ARM GAS  C:\Users\srich\AppData\Local\Temp\cc6xfXvv.s 			page 1


   1              		.syntax unified
   2              		.cpu cortex-m4
   3              		.fpu softvfp
   4              		.eabi_attribute 20, 1
   5              		.eabi_attribute 21, 1
   6              		.eabi_attribute 23, 3
   7              		.eabi_attribute 24, 1
   8              		.eabi_attribute 25, 1
   9              		.eabi_attribute 26, 1
  10              		.eabi_attribute 30, 2
  11              		.eabi_attribute 34, 1
  12              		.eabi_attribute 18, 4
  13              		.thumb
  14              		.file	"can_lld.c"
  15              		.text
  16              	.Ltext0:
  17              		.cfi_sections	.debug_frame
  18              		.section	.text.can_lld_set_filters,"ax",%progbits
  19              		.align	2
  20              		.p2align 4,,15
  21              		.thumb
  22              		.thumb_func
  23              		.type	can_lld_set_filters, %function
  24              	can_lld_set_filters:
  25              	.LFB118:
  26              		.file 1 "c:\\ChibiStudio\\chibios/os/hal/platforms/STM32/can_lld.c"
  27              		.loc 1 69 0
  28              		.cfi_startproc
  29              		@ args = 0, pretend = 0, frame = 0
  30              		@ frame_needed = 0, uses_anonymous_args = 0
  31              		@ link register save eliminated.
  32              	.LVL0:
  33              		.loc 1 72 0
  34 0000 4FF46053 		mov	r3, #14336
  35 0004 C4F20203 		movt	r3, 16386
  36              		.loc 1 69 0
  37 0008 F0B4     		push	{r4, r5, r6, r7}
  38              	.LCFI0:
  39              		.cfi_def_cfa_offset 16
  40              		.cfi_offset 4, -16
  41              		.cfi_offset 5, -12
  42              		.cfi_offset 6, -8
  43              		.cfi_offset 7, -4
  44              		.loc 1 72 0
  45 000a 1D6C     		ldr	r5, [r3, #64]
  46              		.loc 1 75 0
  47 000c 4FF4C844 		mov	r4, #25600
  48 0010 C4F20004 		movt	r4, 16384
  49              		.loc 1 72 0
  50 0014 45F00075 		orr	r5, r5, #33554432
  51 0018 1D64     		str	r5, [r3, #64]
  52              		.loc 1 75 0
  53 001a D4F80032 		ldr	r3, [r4, #512]
  54 001e 1D0C     		lsrs	r5, r3, #16
  55 0020 2B04     		lsls	r3, r5, #16
  56 0022 43F00105 		orr	r5, r3, #1
  57 0026 45EA0023 		orr	r3, r5, r0, lsl #8
ARM GAS  C:\Users\srich\AppData\Local\Temp\cc6xfXvv.s 			page 2


  58 002a C4F80032 		str	r3, [r4, #512]
  59              		.loc 1 76 0
  60 002e 0029     		cmp	r1, #0
  61 0030 00F00781 		beq	.L2
  62              	.LBB17:
  63              		.loc 1 80 0
  64 0034 0026     		movs	r6, #0
  65 0036 C4F81C62 		str	r6, [r4, #540]
  66              		.loc 1 84 0
  67 003a 3346     		mov	r3, r6
  68              		.loc 1 81 0
  69 003c C4F80462 		str	r6, [r4, #516]
  70              		.loc 1 85 0
  71 0040 A446     		mov	ip, r4
  72              		.loc 1 82 0
  73 0042 C4F80C62 		str	r6, [r4, #524]
  74              		.loc 1 85 0
  75 0046 3046     		mov	r0, r6
  76              	.LVL1:
  77              		.loc 1 83 0
  78 0048 C4F81462 		str	r6, [r4, #532]
  79              	.LVL2:
  80              	.L3:
  81              		.loc 1 85 0 discriminator 2
  82 004c 03F14807 		add	r7, r3, #72
  83 0050 03F14906 		add	r6, r3, #73
  84              		.loc 1 86 0 discriminator 2
  85 0054 FD00     		lsls	r5, r7, #3
  86 0056 F400     		lsls	r4, r6, #3
  87 0058 05F18045 		add	r5, r5, #1073741824
  88 005c 04F18044 		add	r4, r4, #1073741824
  89 0060 05F5C845 		add	r5, r5, #25600
  90 0064 04F5C844 		add	r4, r4, #25600
  91              		.loc 1 84 0 discriminator 2
  92 0068 0233     		adds	r3, r3, #2
  93              	.LVL3:
  94 006a 1C2B     		cmp	r3, #28
  95              		.loc 1 85 0 discriminator 2
  96 006c 4CF83700 		str	r0, [ip, r7, lsl #3]
  97              		.loc 1 86 0 discriminator 2
  98 0070 6860     		str	r0, [r5, #4]
  99              		.loc 1 85 0 discriminator 2
 100 0072 4CF83600 		str	r0, [ip, r6, lsl #3]
 101              		.loc 1 86 0 discriminator 2
 102 0076 6060     		str	r0, [r4, #4]
 103              		.loc 1 84 0 discriminator 2
 104 0078 E8D1     		bne	.L3
 105              		.loc 1 92 0
 106 007a 1079     		ldrb	r0, [r2, #4]	@ zero_extendqisi2
 107              		.loc 1 91 0
 108 007c 1468     		ldr	r4, [r2, #0]
 109 007e 0126     		movs	r6, #1
 110              		.loc 1 93 0
 111 0080 4FF4C843 		mov	r3, #25600
 112              	.LVL4:
 113 0084 01F1FF3C 		add	ip, r1, #-1
 114              		.loc 1 92 0
ARM GAS  C:\Users\srich\AppData\Local\Temp\cc6xfXvv.s 			page 3


 115 0088 C707     		lsls	r7, r0, #31
 116              	.LVL5:
 117              		.loc 1 93 0
 118 008a C4F20003 		movt	r3, 16384
 119 008e 0CEA060C 		and	ip, ip, r6
 120              		.loc 1 91 0
 121 0092 06FA04F5 		lsl	r5, r6, r4
 122              	.LVL6:
 123              		.loc 1 92 0
 124 0096 00F10281 		bmi	.L48
 125              	.L17:
 126              		.loc 1 94 0
 127 009a 00F00207 		and	r7, r0, #2
 128 009e FFB2     		uxtb	r7, r7
 129 00a0 27B1     		cbz	r7, .L18
 130              		.loc 1 95 0
 131 00a2 D3F80C72 		ldr	r7, [r3, #524]
 132 00a6 2F43     		orrs	r7, r7, r5
 133 00a8 C3F80C72 		str	r7, [r3, #524]
 134              	.L18:
 135              		.loc 1 96 0
 136 00ac 00F00400 		and	r0, r0, #4
 137 00b0 C7B2     		uxtb	r7, r0
 138 00b2 2FB1     		cbz	r7, .L19
 139              		.loc 1 97 0
 140 00b4 D3F81402 		ldr	r0, [r3, #532]
 141 00b8 45EA0007 		orr	r7, r5, r0
 142 00bc C3F81472 		str	r7, [r3, #532]
 143              	.L19:
 144              		.loc 1 98 0
 145 00c0 9768     		ldr	r7, [r2, #8]
 146 00c2 4834     		adds	r4, r4, #72
 147              		.loc 1 99 0
 148 00c4 E000     		lsls	r0, r4, #3
 149              		.loc 1 98 0
 150 00c6 43F83470 		str	r7, [r3, r4, lsl #3]
 151              		.loc 1 99 0
 152 00ca 00F18044 		add	r4, r0, #1073741824
 153 00ce D768     		ldr	r7, [r2, #12]
 154 00d0 04F5C840 		add	r0, r4, #25600
 155              		.loc 1 90 0
 156 00d4 0124     		movs	r4, #1
 157              		.loc 1 99 0
 158 00d6 4760     		str	r7, [r0, #4]
 159              		.loc 1 100 0
 160 00d8 D3F81C02 		ldr	r0, [r3, #540]
 161              		.loc 1 101 0
 162 00dc 1032     		adds	r2, r2, #16
 163              	.LVL7:
 164              		.loc 1 100 0
 165 00de 0543     		orrs	r5, r5, r0
 166              	.LVL8:
 167              		.loc 1 90 0
 168 00e0 8C42     		cmp	r4, r1
 169              		.loc 1 100 0
 170 00e2 C3F81C52 		str	r5, [r3, #540]
 171              	.LVL9:
ARM GAS  C:\Users\srich\AppData\Local\Temp\cc6xfXvv.s 			page 4


 172              		.loc 1 90 0
 173 00e6 00F0C680 		beq	.L8
 174 00ea BCF1000F 		cmp	ip, #0
 175 00ee 38D0     		beq	.L7
 176              		.loc 1 92 0
 177 00f0 1079     		ldrb	r0, [r2, #4]	@ zero_extendqisi2
 178              		.loc 1 91 0
 179 00f2 1768     		ldr	r7, [r2, #0]
 180              		.loc 1 92 0
 181 00f4 10F0010F 		tst	r0, #1
 182              		.loc 1 91 0
 183 00f8 06FA07F5 		lsl	r5, r6, r7
 184              	.LVL10:
 185              		.loc 1 92 0
 186 00fc 05D0     		beq	.L21
 187              		.loc 1 93 0
 188 00fe D3F804C2 		ldr	ip, [r3, #516]
 189 0102 45EA0C0C 		orr	ip, r5, ip
 190 0106 C3F804C2 		str	ip, [r3, #516]
 191              	.L21:
 192              		.loc 1 94 0
 193 010a 00F0020C 		and	ip, r0, #2
 194 010e 5FFA8CFC 		uxtb	ip, ip
 195 0112 BCF1000F 		cmp	ip, #0
 196 0116 05D0     		beq	.L22
 197              		.loc 1 95 0
 198 0118 D3F80CC2 		ldr	ip, [r3, #524]
 199 011c 45EA0C0C 		orr	ip, r5, ip
 200 0120 C3F80CC2 		str	ip, [r3, #524]
 201              	.L22:
 202              		.loc 1 96 0
 203 0124 00F00400 		and	r0, r0, #4
 204 0128 C0B2     		uxtb	r0, r0
 205 012a 20B1     		cbz	r0, .L23
 206              		.loc 1 97 0
 207 012c D3F81402 		ldr	r0, [r3, #532]
 208 0130 2843     		orrs	r0, r0, r5
 209 0132 C3F81402 		str	r0, [r3, #532]
 210              	.L23:
 211              		.loc 1 98 0
 212 0136 9068     		ldr	r0, [r2, #8]
 213 0138 4837     		adds	r7, r7, #72
 214              		.loc 1 99 0
 215 013a 4FEAC70C 		lsl	ip, r7, #3
 216              		.loc 1 98 0
 217 013e 43F83700 		str	r0, [r3, r7, lsl #3]
 218              		.loc 1 99 0
 219 0142 0CF18040 		add	r0, ip, #1073741824
 220 0146 D768     		ldr	r7, [r2, #12]
 221 0148 00F5C840 		add	r0, r0, #25600
 222              		.loc 1 90 0
 223 014c 0134     		adds	r4, r4, #1
 224              		.loc 1 99 0
 225 014e 4760     		str	r7, [r0, #4]
 226              		.loc 1 100 0
 227 0150 D3F81C02 		ldr	r0, [r3, #540]
 228              		.loc 1 101 0
ARM GAS  C:\Users\srich\AppData\Local\Temp\cc6xfXvv.s 			page 5


 229 0154 1032     		adds	r2, r2, #16
 230              		.loc 1 100 0
 231 0156 0543     		orrs	r5, r5, r0
 232              		.loc 1 90 0
 233 0158 8C42     		cmp	r4, r1
 234              		.loc 1 100 0
 235 015a C3F81C52 		str	r5, [r3, #540]
 236              		.loc 1 90 0
 237 015e 00F08A80 		beq	.L8
 238              	.L7:
 239              		.loc 1 92 0
 240 0162 1079     		ldrb	r0, [r2, #4]	@ zero_extendqisi2
 241              		.loc 1 91 0
 242 0164 1568     		ldr	r5, [r2, #0]
 243              		.loc 1 92 0
 244 0166 C707     		lsls	r7, r0, #31
 245              		.loc 1 91 0
 246 0168 06FA05FC 		lsl	ip, r6, r5
 247              		.loc 1 92 0
 248 016c 05D5     		bpl	.L4
 249              		.loc 1 93 0
 250 016e D3F80472 		ldr	r7, [r3, #516]
 251 0172 4CEA0707 		orr	r7, ip, r7
 252 0176 C3F80472 		str	r7, [r3, #516]
 253              	.L4:
 254              		.loc 1 94 0
 255 017a 00F00207 		and	r7, r0, #2
 256 017e FFB2     		uxtb	r7, r7
 257 0180 2FB1     		cbz	r7, .L5
 258              		.loc 1 95 0
 259 0182 D3F80C72 		ldr	r7, [r3, #524]
 260 0186 4CEA0707 		orr	r7, ip, r7
 261 018a C3F80C72 		str	r7, [r3, #524]
 262              	.L5:
 263              		.loc 1 96 0
 264 018e 00F00400 		and	r0, r0, #4
 265 0192 C7B2     		uxtb	r7, r0
 266 0194 2FB1     		cbz	r7, .L6
 267              		.loc 1 97 0
 268 0196 D3F81402 		ldr	r0, [r3, #532]
 269 019a 4CEA0007 		orr	r7, ip, r0
 270 019e C3F81472 		str	r7, [r3, #532]
 271              	.L6:
 272              		.loc 1 98 0
 273 01a2 9768     		ldr	r7, [r2, #8]
 274 01a4 05F14800 		add	r0, r5, #72
 275              		.loc 1 99 0
 276 01a8 C500     		lsls	r5, r0, #3
 277              		.loc 1 98 0
 278 01aa 43F83070 		str	r7, [r3, r0, lsl #3]
 279              		.loc 1 99 0
 280 01ae 05F18040 		add	r0, r5, #1073741824
 281 01b2 D768     		ldr	r7, [r2, #12]
 282 01b4 00F5C845 		add	r5, r0, #25600
 283              		.loc 1 101 0
 284 01b8 02F11000 		add	r0, r2, #16
 285              		.loc 1 99 0
ARM GAS  C:\Users\srich\AppData\Local\Temp\cc6xfXvv.s 			page 6


 286 01bc 6F60     		str	r7, [r5, #4]
 287              		.loc 1 100 0
 288 01be D3F81C72 		ldr	r7, [r3, #540]
 289 01c2 4CEA0705 		orr	r5, ip, r7
 290 01c6 C3F81C52 		str	r5, [r3, #540]
 291              		.loc 1 91 0
 292 01ca 1769     		ldr	r7, [r2, #16]
 293              		.loc 1 92 0
 294 01cc 0279     		ldrb	r2, [r0, #4]	@ zero_extendqisi2
 295              		.loc 1 90 0
 296 01ce 0134     		adds	r4, r4, #1
 297              		.loc 1 92 0
 298 01d0 12F0010F 		tst	r2, #1
 299              		.loc 1 91 0
 300 01d4 06FA07F5 		lsl	r5, r6, r7
 301              		.loc 1 92 0
 302 01d8 05D0     		beq	.L26
 303              		.loc 1 93 0
 304 01da D3F804C2 		ldr	ip, [r3, #516]
 305 01de 45EA0C0C 		orr	ip, r5, ip
 306 01e2 C3F804C2 		str	ip, [r3, #516]
 307              	.L26:
 308              		.loc 1 94 0
 309 01e6 02F0020C 		and	ip, r2, #2
 310 01ea 5FFA8CFC 		uxtb	ip, ip
 311 01ee BCF1000F 		cmp	ip, #0
 312 01f2 05D0     		beq	.L27
 313              		.loc 1 95 0
 314 01f4 D3F80CC2 		ldr	ip, [r3, #524]
 315 01f8 45EA0C0C 		orr	ip, r5, ip
 316 01fc C3F80CC2 		str	ip, [r3, #524]
 317              	.L27:
 318              		.loc 1 96 0
 319 0200 02F00402 		and	r2, r2, #4
 320 0204 D2B2     		uxtb	r2, r2
 321 0206 22B1     		cbz	r2, .L28
 322              		.loc 1 97 0
 323 0208 D3F81422 		ldr	r2, [r3, #532]
 324 020c 2A43     		orrs	r2, r2, r5
 325 020e C3F81422 		str	r2, [r3, #532]
 326              	.L28:
 327              		.loc 1 98 0
 328 0212 4837     		adds	r7, r7, #72
 329 0214 8268     		ldr	r2, [r0, #8]
 330              		.loc 1 99 0
 331 0216 4FEAC70C 		lsl	ip, r7, #3
 332              		.loc 1 98 0
 333 021a 43F83720 		str	r2, [r3, r7, lsl #3]
 334              		.loc 1 99 0
 335 021e 0CF18042 		add	r2, ip, #1073741824
 336 0222 C768     		ldr	r7, [r0, #12]
 337 0224 02F5C842 		add	r2, r2, #25600
 338              		.loc 1 90 0
 339 0228 0134     		adds	r4, r4, #1
 340              		.loc 1 99 0
 341 022a 5760     		str	r7, [r2, #4]
 342              		.loc 1 100 0
ARM GAS  C:\Users\srich\AppData\Local\Temp\cc6xfXvv.s 			page 7


 343 022c D3F81C22 		ldr	r2, [r3, #540]
 344              		.loc 1 90 0
 345 0230 8C42     		cmp	r4, r1
 346              		.loc 1 100 0
 347 0232 45EA0205 		orr	r5, r5, r2
 348 0236 C3F81C52 		str	r5, [r3, #540]
 349              		.loc 1 101 0
 350 023a 00F11002 		add	r2, r0, #16
 351              		.loc 1 90 0
 352 023e 90D1     		bne	.L7
 353 0240 19E0     		b	.L8
 354              	.LVL11:
 355              	.L2:
 356              	.LBE17:
 357              		.loc 1 110 0
 358 0242 00F14802 		add	r2, r0, #72
 359              	.LVL12:
 360              		.loc 1 111 0
 361 0246 D500     		lsls	r5, r2, #3
 362 0248 05F18043 		add	r3, r5, #1073741824
 363              		.loc 1 116 0
 364 024c 0125     		movs	r5, #1
 365              		.loc 1 111 0
 366 024e 03F5C843 		add	r3, r3, #25600
 367              		.loc 1 116 0
 368 0252 05FA00F0 		lsl	r0, r5, r0
 369              	.LVL13:
 370 0256 2843     		orrs	r0, r0, r5
 371              		.loc 1 107 0
 372 0258 C4F84012 		str	r1, [r4, #576]
 373              		.loc 1 108 0
 374 025c C4F84412 		str	r1, [r4, #580]
 375              		.loc 1 110 0
 376 0260 44F83210 		str	r1, [r4, r2, lsl #3]
 377              		.loc 1 111 0
 378 0264 5960     		str	r1, [r3, #4]
 379              		.loc 1 113 0
 380 0266 C4F80412 		str	r1, [r4, #516]
 381              		.loc 1 114 0
 382 026a C4F81412 		str	r1, [r4, #532]
 383              		.loc 1 116 0
 384 026e C4F80C02 		str	r0, [r4, #524]
 385              		.loc 1 117 0
 386 0272 C4F81C02 		str	r0, [r4, #540]
 387              	.LVL14:
 388              	.L8:
 389              		.loc 1 123 0
 390 0276 4FF4C840 		mov	r0, #25600
 391 027a C4F20000 		movt	r0, 16384
 392              		.loc 1 126 0
 393 027e 4FF46053 		mov	r3, #14336
 394              		.loc 1 123 0
 395 0282 D0F80012 		ldr	r1, [r0, #512]
 396              	.LVL15:
 397              		.loc 1 126 0
 398 0286 C4F20203 		movt	r3, 16386
 399              		.loc 1 123 0
ARM GAS  C:\Users\srich\AppData\Local\Temp\cc6xfXvv.s 			page 8


 400 028a 21F00102 		bic	r2, r1, #1
 401 028e C0F80022 		str	r2, [r0, #512]
 402              		.loc 1 126 0
 403 0292 186C     		ldr	r0, [r3, #64]
 404 0294 20F00071 		bic	r1, r0, #33554432
 405 0298 1964     		str	r1, [r3, #64]
 406              		.loc 1 127 0
 407 029a F0BC     		pop	{r4, r5, r6, r7}
 408 029c 7047     		bx	lr
 409              	.LVL16:
 410              	.L48:
 411              	.LBB18:
 412              		.loc 1 93 0
 413 029e D3F80472 		ldr	r7, [r3, #516]
 414 02a2 2F43     		orrs	r7, r7, r5
 415 02a4 C3F80472 		str	r7, [r3, #516]
 416 02a8 F7E6     		b	.L17
 417              	.LBE18:
 418              		.cfi_endproc
 419              	.LFE118:
 420              		.size	can_lld_set_filters, .-can_lld_set_filters
 421 02aa 00BFAFF3 		.section	.text.Vector8C,"ax",%progbits
 421      0080
 422              		.align	2
 423              		.p2align 4,,15
 424              		.global	Vector8C
 425              		.thumb
 426              		.thumb_func
 427              		.type	Vector8C, %function
 428              	Vector8C:
 429              	.LFB123:
 430              		.loc 1 255 0
 431              		.cfi_startproc
 432              		@ args = 0, pretend = 0, frame = 0
 433              		@ frame_needed = 0, uses_anonymous_args = 0
 434              	.LVL17:
 435 0000 10B5     		push	{r4, lr}
 436              	.LCFI1:
 437              		.cfi_def_cfa_offset 8
 438              		.cfi_offset 4, -8
 439              		.cfi_offset 14, -4
 440              	.LBB23:
 441              	.LBB24:
 442              		.loc 1 139 0
 443 0002 0F4C     		ldr	r4, .L54
 444 0004 40F20113 		movw	r3, #257
 445 0008 626B     		ldr	r2, [r4, #52]
 446 000a C0F20103 		movt	r3, 1
 447 000e 9360     		str	r3, [r2, #8]
 448              	.LBB25:
 449              		.loc 1 140 0
 450 0010 2023     		movs	r3, #32
 451              	.LVL18:
 452              	@ 140 "c:\ChibiStudio\chibios/os/hal/platforms/STM32/can_lld.c" 1
 453 0012 83F31188 		msr     BASEPRI, r3
 454              	@ 0 "" 2
 455              	.LVL19:
ARM GAS  C:\Users\srich\AppData\Local\Temp\cc6xfXvv.s 			page 9


 456              		.thumb
 457              	.LBE25:
 458              		.loc 1 141 0
 459 0016 2069     		ldr	r0, [r4, #16]
 460 0018 0028     		cmp	r0, #0
 461 001a 05DA     		bge	.L51
 462              	.L52:
 463              		.loc 1 142 0
 464 001c 0948     		ldr	r0, .L54+4
 465 001e FFF7FEFF 		bl	chSemSignalI
 466              	.LVL20:
 467              		.loc 1 141 0
 468 0022 2169     		ldr	r1, [r4, #16]
 469 0024 0029     		cmp	r1, #0
 470 0026 F9DB     		blt	.L52
 471              	.LVL21:
 472              	.L51:
 473              		.loc 1 143 0
 474 0028 0748     		ldr	r0, .L54+8
 475 002a 0121     		movs	r1, #1
 476 002c FFF7FEFF 		bl	chEvtBroadcastFlagsI
 477              	.LVL22:
 478              	.LBB26:
 479              		.loc 1 144 0
 480 0030 0023     		movs	r3, #0
 481              	.LVL23:
 482              	@ 144 "c:\ChibiStudio\chibios/os/hal/platforms/STM32/can_lld.c" 1
 483 0032 83F31188 		msr     BASEPRI, r3
 484              	@ 0 "" 2
 485              	.LVL24:
 486              		.thumb
 487              	.LBE26:
 488              	.LBE24:
 489              	.LBE23:
 490              		.loc 1 262 0
 491 0036 BDE81040 		pop	{r4, lr}
 492              		.loc 1 261 0
 493 003a FFF7FEBF 		b	_port_irq_epilogue
 494              	.LVL25:
 495              	.L55:
 496 003e 00BF     		.align	2
 497              	.L54:
 498 0040 00000000 		.word	.LANCHOR0
 499 0044 08000000 		.word	.LANCHOR0+8
 500 0048 24000000 		.word	.LANCHOR0+36
 501              		.cfi_endproc
 502              	.LFE123:
 503              		.size	Vector8C, .-Vector8C
 504 004c AFF30080 		.section	.text.Vector90,"ax",%progbits
 505              		.align	2
 506              		.p2align 4,,15
 507              		.global	Vector90
 508              		.thumb
 509              		.thumb_func
 510              		.type	Vector90, %function
 511              	Vector90:
 512              	.LFB124:
ARM GAS  C:\Users\srich\AppData\Local\Temp\cc6xfXvv.s 			page 10


 513              		.loc 1 269 0
 514              		.cfi_startproc
 515              		@ args = 0, pretend = 0, frame = 0
 516              		@ frame_needed = 0, uses_anonymous_args = 0
 517              	.LVL26:
 518 0000 38B5     		push	{r3, r4, r5, lr}
 519              	.LCFI2:
 520              		.cfi_def_cfa_offset 16
 521              		.cfi_offset 3, -16
 522              		.cfi_offset 4, -12
 523              		.cfi_offset 5, -8
 524              		.cfi_offset 14, -4
 525              	.LBB33:
 526              	.LBB34:
 527              		.loc 1 157 0
 528 0002 174C     		ldr	r4, .L69
 529 0004 636B     		ldr	r3, [r4, #52]
 530 0006 DD68     		ldr	r5, [r3, #12]
 531              	.LVL27:
 532              		.loc 1 158 0
 533 0008 AA07     		lsls	r2, r5, #30
 534 000a 16D0     		beq	.L57
 535              		.loc 1 160 0
 536 000c 5A69     		ldr	r2, [r3, #20]
 537 000e 22F00200 		bic	r0, r2, #2
 538 0012 5861     		str	r0, [r3, #20]
 539              	.LBB35:
 540              		.loc 1 161 0
 541 0014 2023     		movs	r3, #32
 542              	.LVL28:
 543              	@ 161 "c:\ChibiStudio\chibios/os/hal/platforms/STM32/can_lld.c" 1
 544 0016 83F31188 		msr     BASEPRI, r3
 545              	@ 0 "" 2
 546              	.LVL29:
 547              		.thumb
 548              	.LBE35:
 549              		.loc 1 162 0
 550 001a E169     		ldr	r1, [r4, #28]
 551 001c 0029     		cmp	r1, #0
 552 001e 05DA     		bge	.L59
 553              	.L65:
 554              		.loc 1 163 0
 555 0020 1048     		ldr	r0, .L69+4
 556 0022 FFF7FEFF 		bl	chSemSignalI
 557              	.LVL30:
 558              		.loc 1 162 0
 559 0026 E369     		ldr	r3, [r4, #28]
 560 0028 002B     		cmp	r3, #0
 561 002a F9DB     		blt	.L65
 562              	.LVL31:
 563              	.L59:
 564              		.loc 1 164 0
 565 002c 0E48     		ldr	r0, .L69+8
 566 002e 0121     		movs	r1, #1
 567 0030 FFF7FEFF 		bl	chEvtBroadcastFlagsI
 568              	.LVL32:
 569              	.LBB36:
ARM GAS  C:\Users\srich\AppData\Local\Temp\cc6xfXvv.s 			page 11


 570              		.loc 1 165 0
 571 0034 0023     		movs	r3, #0
 572              	.LVL33:
 573              	@ 165 "c:\ChibiStudio\chibios/os/hal/platforms/STM32/can_lld.c" 1
 574 0036 83F31188 		msr     BASEPRI, r3
 575              	@ 0 "" 2
 576              	.LVL34:
 577              		.thumb
 578              	.L57:
 579              	.LBE36:
 580              		.loc 1 167 0
 581 003a EB06     		lsls	r3, r5, #27
 582              	.LVL35:
 583 003c 0BD5     		bpl	.L60
 584              		.loc 1 169 0
 585 003e 626B     		ldr	r2, [r4, #52]
 586 0040 1021     		movs	r1, #16
 587 0042 D160     		str	r1, [r2, #12]
 588              	.LBB37:
 589              		.loc 1 170 0
 590 0044 2023     		movs	r3, #32
 591              	.LVL36:
 592              	@ 170 "c:\ChibiStudio\chibios/os/hal/platforms/STM32/can_lld.c" 1
 593 0046 83F31188 		msr     BASEPRI, r3
 594              	@ 0 "" 2
 595              	.LVL37:
 596              		.thumb
 597              	.LBE37:
 598              		.loc 1 171 0
 599 004a 0848     		ldr	r0, .L69+12
 600 004c FFF7FEFF 		bl	chEvtBroadcastFlagsI
 601              	.LVL38:
 602              	.LBB38:
 603              		.loc 1 172 0
 604 0050 0023     		movs	r3, #0
 605              	.LVL39:
 606              	@ 172 "c:\ChibiStudio\chibios/os/hal/platforms/STM32/can_lld.c" 1
 607 0052 83F31188 		msr     BASEPRI, r3
 608              	@ 0 "" 2
 609              	.LVL40:
 610              		.thumb
 611              	.L60:
 612              	.LBE38:
 613              	.LBE34:
 614              	.LBE33:
 615              		.loc 1 276 0
 616 0056 BDE83840 		pop	{r3, r4, r5, lr}
 617              		.loc 1 275 0
 618 005a FFF7FEBF 		b	_port_irq_epilogue
 619              	.LVL41:
 620              	.L70:
 621 005e 00BF     		.align	2
 622              	.L69:
 623 0060 00000000 		.word	.LANCHOR0
 624 0064 14000000 		.word	.LANCHOR0+20
 625 0068 20000000 		.word	.LANCHOR0+32
 626 006c 28000000 		.word	.LANCHOR0+40
ARM GAS  C:\Users\srich\AppData\Local\Temp\cc6xfXvv.s 			page 12


 627              		.cfi_endproc
 628              	.LFE124:
 629              		.size	Vector90, .-Vector90
 630              		.section	.text.Vector94,"ax",%progbits
 631              		.align	2
 632              		.p2align 4,,15
 633              		.global	Vector94
 634              		.thumb
 635              		.thumb_func
 636              		.type	Vector94, %function
 637              	Vector94:
 638              	.LFB125:
 639              		.loc 1 283 0
 640              		.cfi_startproc
 641              		@ args = 0, pretend = 0, frame = 0
 642              		@ frame_needed = 0, uses_anonymous_args = 0
 643              	.LVL42:
 644 0000 38B5     		push	{r3, r4, r5, lr}
 645              	.LCFI3:
 646              		.cfi_def_cfa_offset 16
 647              		.cfi_offset 3, -16
 648              		.cfi_offset 4, -12
 649              		.cfi_offset 5, -8
 650              		.cfi_offset 14, -4
 651              	.LBB45:
 652              	.LBB46:
 653              		.loc 1 186 0
 654 0002 174C     		ldr	r4, .L84
 655 0004 636B     		ldr	r3, [r4, #52]
 656 0006 1D69     		ldr	r5, [r3, #16]
 657              	.LVL43:
 658              		.loc 1 187 0
 659 0008 AA07     		lsls	r2, r5, #30
 660 000a 16D0     		beq	.L72
 661              		.loc 1 189 0
 662 000c 5A69     		ldr	r2, [r3, #20]
 663 000e 22F01000 		bic	r0, r2, #16
 664 0012 5861     		str	r0, [r3, #20]
 665              	.LBB47:
 666              		.loc 1 190 0
 667 0014 2023     		movs	r3, #32
 668              	.LVL44:
 669              	@ 190 "c:\ChibiStudio\chibios/os/hal/platforms/STM32/can_lld.c" 1
 670 0016 83F31188 		msr     BASEPRI, r3
 671              	@ 0 "" 2
 672              	.LVL45:
 673              		.thumb
 674              	.LBE47:
 675              		.loc 1 191 0
 676 001a E169     		ldr	r1, [r4, #28]
 677 001c 0029     		cmp	r1, #0
 678 001e 05DA     		bge	.L74
 679              	.L80:
 680              		.loc 1 192 0
 681 0020 1048     		ldr	r0, .L84+4
 682 0022 FFF7FEFF 		bl	chSemSignalI
 683              	.LVL46:
ARM GAS  C:\Users\srich\AppData\Local\Temp\cc6xfXvv.s 			page 13


 684              		.loc 1 191 0
 685 0026 E369     		ldr	r3, [r4, #28]
 686 0028 002B     		cmp	r3, #0
 687 002a F9DB     		blt	.L80
 688              	.LVL47:
 689              	.L74:
 690              		.loc 1 193 0
 691 002c 0E48     		ldr	r0, .L84+8
 692 002e 0221     		movs	r1, #2
 693 0030 FFF7FEFF 		bl	chEvtBroadcastFlagsI
 694              	.LVL48:
 695              	.LBB48:
 696              		.loc 1 194 0
 697 0034 0023     		movs	r3, #0
 698              	.LVL49:
 699              	@ 194 "c:\ChibiStudio\chibios/os/hal/platforms/STM32/can_lld.c" 1
 700 0036 83F31188 		msr     BASEPRI, r3
 701              	@ 0 "" 2
 702              	.LVL50:
 703              		.thumb
 704              	.L72:
 705              	.LBE48:
 706              		.loc 1 196 0
 707 003a EB06     		lsls	r3, r5, #27
 708              	.LVL51:
 709 003c 0BD5     		bpl	.L75
 710              		.loc 1 198 0
 711 003e 626B     		ldr	r2, [r4, #52]
 712 0040 1021     		movs	r1, #16
 713 0042 1161     		str	r1, [r2, #16]
 714              	.LBB49:
 715              		.loc 1 199 0
 716 0044 2023     		movs	r3, #32
 717              	.LVL52:
 718              	@ 199 "c:\ChibiStudio\chibios/os/hal/platforms/STM32/can_lld.c" 1
 719 0046 83F31188 		msr     BASEPRI, r3
 720              	@ 0 "" 2
 721              	.LVL53:
 722              		.thumb
 723              	.LBE49:
 724              		.loc 1 200 0
 725 004a 0848     		ldr	r0, .L84+12
 726 004c FFF7FEFF 		bl	chEvtBroadcastFlagsI
 727              	.LVL54:
 728              	.LBB50:
 729              		.loc 1 201 0
 730 0050 0023     		movs	r3, #0
 731              	.LVL55:
 732              	@ 201 "c:\ChibiStudio\chibios/os/hal/platforms/STM32/can_lld.c" 1
 733 0052 83F31188 		msr     BASEPRI, r3
 734              	@ 0 "" 2
 735              	.LVL56:
 736              		.thumb
 737              	.L75:
 738              	.LBE50:
 739              	.LBE46:
 740              	.LBE45:
ARM GAS  C:\Users\srich\AppData\Local\Temp\cc6xfXvv.s 			page 14


 741              		.loc 1 290 0
 742 0056 BDE83840 		pop	{r3, r4, r5, lr}
 743              		.loc 1 289 0
 744 005a FFF7FEBF 		b	_port_irq_epilogue
 745              	.LVL57:
 746              	.L85:
 747 005e 00BF     		.align	2
 748              	.L84:
 749 0060 00000000 		.word	.LANCHOR0
 750 0064 14000000 		.word	.LANCHOR0+20
 751 0068 20000000 		.word	.LANCHOR0+32
 752 006c 28000000 		.word	.LANCHOR0+40
 753              		.cfi_endproc
 754              	.LFE125:
 755              		.size	Vector94, .-Vector94
 756              		.section	.text.Vector98,"ax",%progbits
 757              		.align	2
 758              		.p2align 4,,15
 759              		.global	Vector98
 760              		.thumb
 761              		.thumb_func
 762              		.type	Vector98, %function
 763              	Vector98:
 764              	.LFB126:
 765              		.loc 1 297 0
 766              		.cfi_startproc
 767              		@ args = 0, pretend = 0, frame = 0
 768              		@ frame_needed = 0, uses_anonymous_args = 0
 769              	.LVL58:
 770 0000 38B5     		push	{r3, r4, r5, lr}
 771              	.LCFI4:
 772              		.cfi_def_cfa_offset 16
 773              		.cfi_offset 3, -16
 774              		.cfi_offset 4, -12
 775              		.cfi_offset 5, -8
 776              		.cfi_offset 14, -4
 777              	.LBB58:
 778              	.LBB59:
 779              		.loc 1 215 0
 780 0002 1B4D     		ldr	r5, .L100
 781 0004 6A6B     		ldr	r2, [r5, #52]
 782 0006 5468     		ldr	r4, [r2, #4]
 783              	.LVL59:
 784              		.loc 1 216 0
 785 0008 1C23     		movs	r3, #28
 786              		.loc 1 219 0
 787 000a 2107     		lsls	r1, r4, #28
 788              		.loc 1 216 0
 789 000c 5360     		str	r3, [r2, #4]
 790              		.loc 1 219 0
 791 000e 1DD4     		bmi	.L99
 792              	.LVL60:
 793              	.L87:
 794              		.loc 1 228 0
 795 0010 6307     		lsls	r3, r4, #29
 796              	.LVL61:
 797 0012 17D5     		bpl	.L88
ARM GAS  C:\Users\srich\AppData\Local\Temp\cc6xfXvv.s 			page 15


 798              	.LBB60:
 799              		.loc 1 230 0
 800 0014 686B     		ldr	r0, [r5, #52]
 801 0016 8269     		ldr	r2, [r0, #24]
 802              	.LVL62:
 803              		.loc 1 232 0
 804 0018 8169     		ldr	r1, [r0, #24]
 805              		.loc 1 234 0
 806 001a 12F0700F 		tst	r2, #112
 807              		.loc 1 232 0
 808 001e 21F07003 		bic	r3, r1, #112
 809              		.loc 1 233 0
 810 0022 02F00701 		and	r1, r2, #7
 811              	.LVL63:
 812              		.loc 1 232 0
 813 0026 8361     		str	r3, [r0, #24]
 814              		.loc 1 235 0
 815 0028 18BF     		it	ne
 816 002a 41F00801 		orrne	r1, r1, #8
 817              	.LVL64:
 818              	.LBB61:
 819              		.loc 1 237 0
 820 002e 2023     		movs	r3, #32
 821              	.LVL65:
 822              	@ 237 "c:\ChibiStudio\chibios/os/hal/platforms/STM32/can_lld.c" 1
 823 0030 83F31188 		msr     BASEPRI, r3
 824              	@ 0 "" 2
 825              	.LVL66:
 826              		.thumb
 827              	.LBE61:
 828              		.loc 1 240 0
 829 0034 0F48     		ldr	r0, .L100+4
 830 0036 41EA0241 		orr	r1, r1, r2, lsl #16
 831              	.LVL67:
 832 003a FFF7FEFF 		bl	chEvtBroadcastFlagsI
 833              	.LVL68:
 834              	.LBB62:
 835              		.loc 1 241 0
 836 003e 0023     		movs	r3, #0
 837              	.LVL69:
 838              	@ 241 "c:\ChibiStudio\chibios/os/hal/platforms/STM32/can_lld.c" 1
 839 0040 83F31188 		msr     BASEPRI, r3
 840              	@ 0 "" 2
 841              	.LVL70:
 842              		.thumb
 843              	.L88:
 844              	.LBE62:
 845              	.LBE60:
 846              	.LBE59:
 847              	.LBE58:
 848              		.loc 1 304 0
 849 0044 BDE83840 		pop	{r3, r4, r5, lr}
 850              		.loc 1 303 0
 851 0048 FFF7FEBF 		b	_port_irq_epilogue
 852              	.LVL71:
 853              	.L99:
 854              	.LBB67:
ARM GAS  C:\Users\srich\AppData\Local\Temp\cc6xfXvv.s 			page 16


 855              	.LBB66:
 856              		.loc 1 221 0
 857 004c 1168     		ldr	r1, [r2, #0]
 858              		.loc 1 220 0
 859 004e 2846     		mov	r0, r5
 860 0050 0323     		movs	r3, #3
 861              		.loc 1 221 0
 862 0052 21F00201 		bic	r1, r1, #2
 863              		.loc 1 220 0
 864 0056 00F8303B 		strb	r3, [r0], #48
 865              	.LBB63:
 866              		.loc 1 222 0
 867 005a 2023     		movs	r3, #32
 868              	.LVL72:
 869              	.LBE63:
 870              		.loc 1 221 0
 871 005c 1160     		str	r1, [r2, #0]
 872              	.LBB64:
 873              		.loc 1 222 0
 874              	@ 222 "c:\ChibiStudio\chibios/os/hal/platforms/STM32/can_lld.c" 1
 875 005e 83F31188 		msr     BASEPRI, r3
 876              	@ 0 "" 2
 877              	.LVL73:
 878              		.thumb
 879              	.LBE64:
 880              		.loc 1 223 0
 881 0062 0021     		movs	r1, #0
 882 0064 FFF7FEFF 		bl	chEvtBroadcastFlagsI
 883              	.LVL74:
 884              	.LBB65:
 885              		.loc 1 224 0
 886 0068 0023     		movs	r3, #0
 887              	@ 224 "c:\ChibiStudio\chibios/os/hal/platforms/STM32/can_lld.c" 1
 888 006a 83F31188 		msr     BASEPRI, r3
 889              	@ 0 "" 2
 890              	.LVL75:
 891              		.thumb
 892 006e CFE7     		b	.L87
 893              	.L101:
 894              		.align	2
 895              	.L100:
 896 0070 00000000 		.word	.LANCHOR0
 897 0074 28000000 		.word	.LANCHOR0+40
 898              	.LBE65:
 899              	.LBE66:
 900              	.LBE67:
 901              		.cfi_endproc
 902              	.LFE126:
 903              		.size	Vector98, .-Vector98
 904 0078 AFF30080 		.section	.text.can_lld_init,"ax",%progbits
 904      AFF30080 
 905              		.align	2
 906              		.p2align 4,,15
 907              		.global	can_lld_init
 908              		.thumb
 909              		.thumb_func
 910              		.type	can_lld_init, %function
ARM GAS  C:\Users\srich\AppData\Local\Temp\cc6xfXvv.s 			page 17


 911              	can_lld_init:
 912              	.LFB127:
 913              		.loc 1 374 0
 914              		.cfi_startproc
 915              		@ args = 0, pretend = 0, frame = 0
 916              		@ frame_needed = 0, uses_anonymous_args = 0
 917 0000 10B5     		push	{r4, lr}
 918              	.LCFI5:
 919              		.cfi_def_cfa_offset 8
 920              		.cfi_offset 4, -8
 921              		.cfi_offset 14, -4
 922              		.loc 1 378 0
 923 0002 40F20004 		movw	r4, #:lower16:.LANCHOR0
 924 0006 C0F20004 		movt	r4, #:upper16:.LANCHOR0
 925 000a 2046     		mov	r0, r4
 926 000c FFF7FEFF 		bl	canObjectInit
 927              	.LVL76:
 928              		.loc 1 389 0
 929 0010 0021     		movs	r1, #0
 930              		.loc 1 379 0
 931 0012 4FF4C843 		mov	r3, #25600
 932 0016 C4F20003 		movt	r3, 16384
 933              		.loc 1 389 0
 934 001a 0E20     		movs	r0, #14
 935 001c 0A46     		mov	r2, r1
 936              		.loc 1 379 0
 937 001e 6363     		str	r3, [r4, #52]
 938              		.loc 1 393 0
 939 0020 BDE81040 		pop	{r4, lr}
 940              		.loc 1 389 0
 941 0024 FFF7FEBF 		b	can_lld_set_filters
 942              	.LVL77:
 943              		.cfi_endproc
 944              	.LFE127:
 945              		.size	can_lld_init, .-can_lld_init
 946 0028 AFF30080 		.section	.text.can_lld_start,"ax",%progbits
 946      AFF30080 
 947              		.align	2
 948              		.p2align 4,,15
 949              		.global	can_lld_start
 950              		.thumb
 951              		.thumb_func
 952              		.type	can_lld_start, %function
 953              	can_lld_start:
 954              	.LFB128:
 955              		.loc 1 402 0
 956              		.cfi_startproc
 957              		@ args = 0, pretend = 0, frame = 0
 958              		@ frame_needed = 0, uses_anonymous_args = 0
 959              	.LVL78:
 960              		.loc 1 406 0
 961 0000 1C4B     		ldr	r3, .L113
 962 0002 9842     		cmp	r0, r3
 963              		.loc 1 402 0
 964 0004 10B5     		push	{r4, lr}
 965              	.LCFI6:
 966              		.cfi_def_cfa_offset 8
ARM GAS  C:\Users\srich\AppData\Local\Temp\cc6xfXvv.s 			page 18


 967              		.cfi_offset 4, -8
 968              		.cfi_offset 14, -4
 969              		.loc 1 402 0
 970 0006 0446     		mov	r4, r0
 971              		.loc 1 406 0
 972 0008 1AD0     		beq	.L112
 973              	.LVL79:
 974              	.L104:
 975              		.loc 1 438 0
 976 000a 636B     		ldr	r3, [r4, #52]
 977              		.loc 1 437 0
 978 000c 0220     		movs	r0, #2
 979              		.loc 1 438 0
 980 000e 0122     		movs	r2, #1
 981              		.loc 1 437 0
 982 0010 2070     		strb	r0, [r4, #0]
 983              		.loc 1 438 0
 984 0012 1A60     		str	r2, [r3, #0]
 985              		.loc 1 439 0
 986 0014 5968     		ldr	r1, [r3, #4]
 987 0016 C907     		lsls	r1, r1, #31
 988 0018 07D4     		bmi	.L105
 989              	.L109:
 990              		.loc 1 440 0
 991 001a 0620     		movs	r0, #6
 992 001c 0121     		movs	r1, #1
 993 001e FFF7FEFF 		bl	chSchGoSleepTimeoutS
 994              	.LVL80:
 995              		.loc 1 439 0
 996 0022 636B     		ldr	r3, [r4, #52]
 997 0024 5868     		ldr	r0, [r3, #4]
 998 0026 C207     		lsls	r2, r0, #31
 999 0028 F7D5     		bpl	.L109
 1000              	.L105:
 1001              		.loc 1 442 0
 1002 002a 6168     		ldr	r1, [r4, #4]
 1003              		.loc 1 447 0
 1004 002c 48F65B72 		movw	r2, #36699
 1005              		.loc 1 442 0
 1006 0030 4868     		ldr	r0, [r1, #4]
 1007              		.loc 1 444 0
 1008 0032 0968     		ldr	r1, [r1, #0]
 1009              		.loc 1 442 0
 1010 0034 D861     		str	r0, [r3, #28]
 1011              		.loc 1 447 0
 1012 0036 C0F20102 		movt	r2, 1
 1013              		.loc 1 444 0
 1014 003a 1960     		str	r1, [r3, #0]
 1015              		.loc 1 447 0
 1016 003c 5A61     		str	r2, [r3, #20]
 1017 003e 10BD     		pop	{r4, pc}
 1018              	.LVL81:
 1019              	.L112:
 1020              		.loc 1 407 0
 1021 0040 1320     		movs	r0, #19
 1022              	.LVL82:
 1023 0042 B021     		movs	r1, #176
ARM GAS  C:\Users\srich\AppData\Local\Temp\cc6xfXvv.s 			page 19


 1024 0044 FFF7FEFF 		bl	nvicEnableVector
 1025              	.LVL83:
 1026              		.loc 1 409 0
 1027 0048 1420     		movs	r0, #20
 1028 004a B021     		movs	r1, #176
 1029 004c FFF7FEFF 		bl	nvicEnableVector
 1030              	.LVL84:
 1031              		.loc 1 411 0
 1032 0050 1520     		movs	r0, #21
 1033 0052 B021     		movs	r1, #176
 1034 0054 FFF7FEFF 		bl	nvicEnableVector
 1035              	.LVL85:
 1036              		.loc 1 413 0
 1037 0058 1620     		movs	r0, #22
 1038 005a B021     		movs	r1, #176
 1039 005c FFF7FEFF 		bl	nvicEnableVector
 1040              	.LVL86:
 1041              		.loc 1 415 0
 1042 0060 4FF46050 		mov	r0, #14336
 1043 0064 C4F20200 		movt	r0, 16386
 1044 0068 026C     		ldr	r2, [r0, #64]
 1045 006a 42F00071 		orr	r1, r2, #33554432
 1046 006e 0164     		str	r1, [r0, #64]
 1047 0070 CBE7     		b	.L104
 1048              	.L114:
 1049 0072 00BF     		.align	2
 1050              	.L113:
 1051 0074 00000000 		.word	.LANCHOR0
 1052              		.cfi_endproc
 1053              	.LFE128:
 1054              		.size	can_lld_start, .-can_lld_start
 1055 0078 AFF30080 		.section	.text.can_lld_stop,"ax",%progbits
 1055      AFF30080 
 1056              		.align	2
 1057              		.p2align 4,,15
 1058              		.global	can_lld_stop
 1059              		.thumb
 1060              		.thumb_func
 1061              		.type	can_lld_stop, %function
 1062              	can_lld_stop:
 1063              	.LFB129:
 1064              		.loc 1 460 0
 1065              		.cfi_startproc
 1066              		@ args = 0, pretend = 0, frame = 0
 1067              		@ frame_needed = 0, uses_anonymous_args = 0
 1068              	.LVL87:
 1069 0000 08B5     		push	{r3, lr}
 1070              	.LCFI7:
 1071              		.cfi_def_cfa_offset 8
 1072              		.cfi_offset 3, -8
 1073              		.cfi_offset 14, -4
 1074              		.loc 1 463 0
 1075 0002 0378     		ldrb	r3, [r0, #0]	@ zero_extendqisi2
 1076 0004 032B     		cmp	r3, #3
 1077 0006 00D0     		beq	.L117
 1078              	.LVL88:
 1079              	.L115:
ARM GAS  C:\Users\srich\AppData\Local\Temp\cc6xfXvv.s 			page 20


 1080 0008 08BD     		pop	{r3, pc}
 1081              	.LVL89:
 1082              	.L117:
 1083              		.loc 1 465 0
 1084 000a 1149     		ldr	r1, .L118
 1085 000c 8842     		cmp	r0, r1
 1086 000e FBD1     		bne	.L115
 1087              		.loc 1 472 0
 1088 0010 4FF4C843 		mov	r3, #25600
 1089 0014 C4F20003 		movt	r3, 16384
 1090 0018 0222     		movs	r2, #2
 1091 001a C0F20102 		movt	r2, 1
 1092              		.loc 1 473 0
 1093 001e 0021     		movs	r1, #0
 1094              		.loc 1 472 0
 1095 0020 1A60     		str	r2, [r3, #0]
 1096              		.loc 1 474 0
 1097 0022 1320     		movs	r0, #19
 1098              	.LVL90:
 1099              		.loc 1 473 0
 1100 0024 5961     		str	r1, [r3, #20]
 1101              		.loc 1 474 0
 1102 0026 FFF7FEFF 		bl	nvicDisableVector
 1103              	.LVL91:
 1104              		.loc 1 475 0
 1105 002a 1420     		movs	r0, #20
 1106 002c FFF7FEFF 		bl	nvicDisableVector
 1107              	.LVL92:
 1108              		.loc 1 476 0
 1109 0030 1520     		movs	r0, #21
 1110 0032 FFF7FEFF 		bl	nvicDisableVector
 1111              	.LVL93:
 1112              		.loc 1 477 0
 1113 0036 1620     		movs	r0, #22
 1114 0038 FFF7FEFF 		bl	nvicDisableVector
 1115              	.LVL94:
 1116              		.loc 1 478 0
 1117 003c 4FF46050 		mov	r0, #14336
 1118 0040 C4F20200 		movt	r0, 16386
 1119 0044 036C     		ldr	r3, [r0, #64]
 1120 0046 23F00072 		bic	r2, r3, #33554432
 1121 004a 0264     		str	r2, [r0, #64]
 1122 004c DCE7     		b	.L115
 1123              	.L119:
 1124 004e 00BF     		.align	2
 1125              	.L118:
 1126 0050 00000000 		.word	.LANCHOR0
 1127              		.cfi_endproc
 1128              	.LFE129:
 1129              		.size	can_lld_stop, .-can_lld_stop
 1130 0054 AFF30080 		.section	.text.can_lld_is_tx_empty,"ax",%progbits
 1130      AFF30080 
 1130      AFF30080 
 1131              		.align	2
 1132              		.p2align 4,,15
 1133              		.global	can_lld_is_tx_empty
 1134              		.thumb
ARM GAS  C:\Users\srich\AppData\Local\Temp\cc6xfXvv.s 			page 21


 1135              		.thumb_func
 1136              		.type	can_lld_is_tx_empty, %function
 1137              	can_lld_is_tx_empty:
 1138              	.LFB130:
 1139              		.loc 1 507 0
 1140              		.cfi_startproc
 1141              		@ args = 0, pretend = 0, frame = 0
 1142              		@ frame_needed = 0, uses_anonymous_args = 0
 1143              		@ link register save eliminated.
 1144              	.LVL95:
 1145              		.loc 1 509 0
 1146 0000 0329     		cmp	r1, #3
 1147 0002 1AD8     		bhi	.L127
 1148 0004 DFE801F0 		tbb	[pc, r1]
 1149              	.L126:
 1150 0008 11       		.byte	(.L122-.L126)/2
 1151 0009 0C       		.byte	(.L123-.L126)/2
 1152 000a 07       		.byte	(.L124-.L126)/2
 1153 000b 02       		.byte	(.L125-.L126)/2
 1154              		.align	1
 1155              	.L125:
 1156              		.loc 1 517 0
 1157 000c 436B     		ldr	r3, [r0, #52]
 1158 000e 9868     		ldr	r0, [r3, #8]
 1159              	.LVL96:
 1160 0010 C0F30070 		ubfx	r0, r0, #28, #1
 1161 0014 7047     		bx	lr
 1162              	.LVL97:
 1163              	.L124:
 1164              		.loc 1 515 0
 1165 0016 416B     		ldr	r1, [r0, #52]
 1166              	.LVL98:
 1167 0018 8A68     		ldr	r2, [r1, #8]
 1168 001a C2F3C060 		ubfx	r0, r2, #27, #1
 1169              	.LVL99:
 1170 001e 7047     		bx	lr
 1171              	.LVL100:
 1172              	.L123:
 1173              		.loc 1 513 0
 1174 0020 436B     		ldr	r3, [r0, #52]
 1175 0022 9868     		ldr	r0, [r3, #8]
 1176              	.LVL101:
 1177 0024 C0F38060 		ubfx	r0, r0, #26, #1
 1178 0028 7047     		bx	lr
 1179              	.LVL102:
 1180              	.L122:
 1181              		.loc 1 511 0
 1182 002a 416B     		ldr	r1, [r0, #52]
 1183              	.LVL103:
 1184 002c 8A68     		ldr	r2, [r1, #8]
 1185 002e 12F0E05F 		tst	r2, #469762048
 1186 0032 0CBF     		ite	eq
 1187 0034 0020     		moveq	r0, #0
 1188 0036 0120     		movne	r0, #1
 1189              	.LVL104:
 1190 0038 7047     		bx	lr
 1191              	.LVL105:
ARM GAS  C:\Users\srich\AppData\Local\Temp\cc6xfXvv.s 			page 22


 1192              	.L127:
 1193              		.loc 1 519 0
 1194 003a 0020     		movs	r0, #0
 1195              	.LVL106:
 1196              		.loc 1 521 0
 1197 003c 7047     		bx	lr
 1198              		.cfi_endproc
 1199              	.LFE130:
 1200              		.size	can_lld_is_tx_empty, .-can_lld_is_tx_empty
 1201              		.section	.text.can_lld_transmit,"ax",%progbits
 1202              		.align	2
 1203              		.p2align 4,,15
 1204              		.global	can_lld_transmit
 1205              		.thumb
 1206              		.thumb_func
 1207              		.type	can_lld_transmit, %function
 1208              	can_lld_transmit:
 1209              	.LFB131:
 1210              		.loc 1 534 0
 1211              		.cfi_startproc
 1212              		@ args = 0, pretend = 0, frame = 0
 1213              		@ frame_needed = 0, uses_anonymous_args = 0
 1214              		@ link register save eliminated.
 1215              	.LVL107:
 1216 0000 10B4     		push	{r4}
 1217              	.LCFI8:
 1218              		.cfi_def_cfa_offset 4
 1219              		.cfi_offset 4, -4
 1220              		.loc 1 539 0
 1221 0002 0329     		cmp	r1, #3
 1222 0004 1DD8     		bhi	.L128
 1223 0006 DFE801F0 		tbb	[pc, r1]
 1224              	.L134:
 1225 000a 32       		.byte	(.L130-.L134)/2
 1226 000b 2E       		.byte	(.L131-.L134)/2
 1227 000c 1E       		.byte	(.L132-.L134)/2
 1228 000d 02       		.byte	(.L133-.L134)/2
 1229              		.align	1
 1230              	.L133:
 1231              		.loc 1 550 0
 1232 000e 436B     		ldr	r3, [r0, #52]
 1233 0010 03F5D073 		add	r3, r3, #416
 1234              	.LVL108:
 1235              	.L135:
 1236              		.loc 1 557 0
 1237 0014 1178     		ldrb	r1, [r2, #0]	@ zero_extendqisi2
 1238 0016 01F02004 		and	r4, r1, #32
 1239 001a E0B2     		uxtb	r0, r4
 1240 001c E0B1     		cbz	r0, .L136
 1241              	.L138:
 1242              		.loc 1 558 0
 1243 001e 5468     		ldr	r4, [r2, #4]
 1244 0020 C1F30010 		ubfx	r0, r1, #4, #1
 1245 0024 4000     		lsls	r0, r0, #1
 1246 0026 40EAC400 		orr	r0, r0, r4, lsl #3
 1247 002a 40F00400 		orr	r0, r0, #4
 1248              	.LVL109:
ARM GAS  C:\Users\srich\AppData\Local\Temp\cc6xfXvv.s 			page 23


 1249              	.L137:
 1250              		.loc 1 562 0
 1251 002e 01F00F01 		and	r1, r1, #15
 1252 0032 5960     		str	r1, [r3, #4]
 1253              		.loc 1 563 0
 1254 0034 9168     		ldr	r1, [r2, #8]
 1255 0036 9960     		str	r1, [r3, #8]
 1256              		.loc 1 564 0
 1257 0038 D168     		ldr	r1, [r2, #12]
 1258              		.loc 1 565 0
 1259 003a 40F00102 		orr	r2, r0, #1
 1260              	.LVL110:
 1261              		.loc 1 564 0
 1262 003e D960     		str	r1, [r3, #12]
 1263              		.loc 1 565 0
 1264 0040 1A60     		str	r2, [r3, #0]
 1265              	.LVL111:
 1266              	.L128:
 1267              		.loc 1 566 0
 1268 0042 10BC     		pop	{r4}
 1269 0044 7047     		bx	lr
 1270              	.LVL112:
 1271              	.L132:
 1272              		.loc 1 557 0
 1273 0046 1178     		ldrb	r1, [r2, #0]	@ zero_extendqisi2
 1274              	.LVL113:
 1275              		.loc 1 547 0
 1276 0048 406B     		ldr	r0, [r0, #52]
 1277              	.LVL114:
 1278              		.loc 1 557 0
 1279 004a 01F02004 		and	r4, r1, #32
 1280              		.loc 1 547 0
 1281 004e 00F5C873 		add	r3, r0, #400
 1282              	.LVL115:
 1283              		.loc 1 557 0
 1284 0052 E0B2     		uxtb	r0, r4
 1285 0054 0028     		cmp	r0, #0
 1286 0056 E2D1     		bne	.L138
 1287              	.L136:
 1288              		.loc 1 561 0
 1289 0058 9088     		ldrh	r0, [r2, #4]
 1290 005a C1F30014 		ubfx	r4, r1, #4, #1
 1291 005e 4005     		lsls	r0, r0, #21
 1292 0060 40EA4400 		orr	r0, r0, r4, lsl #1
 1293              	.LVL116:
 1294 0064 E3E7     		b	.L137
 1295              	.LVL117:
 1296              	.L131:
 1297              		.loc 1 544 0
 1298 0066 416B     		ldr	r1, [r0, #52]
 1299              	.LVL118:
 1300 0068 01F5C073 		add	r3, r1, #384
 1301              	.LVL119:
 1302              		.loc 1 545 0
 1303 006c D2E7     		b	.L135
 1304              	.LVL120:
 1305              	.L130:
ARM GAS  C:\Users\srich\AppData\Local\Temp\cc6xfXvv.s 			page 24


 1306              		.loc 1 541 0
 1307 006e 446B     		ldr	r4, [r0, #52]
 1308 0070 A368     		ldr	r3, [r4, #8]
 1309 0072 C3F30160 		ubfx	r0, r3, #24, #2
 1310              	.LVL121:
 1311 0076 1830     		adds	r0, r0, #24
 1312 0078 04EB0013 		add	r3, r4, r0, lsl #4
 1313              	.LVL122:
 1314              		.loc 1 542 0
 1315 007c CAE7     		b	.L135
 1316              		.cfi_endproc
 1317              	.LFE131:
 1318              		.size	can_lld_transmit, .-can_lld_transmit
 1319 007e 00BF     		.section	.text.can_lld_is_rx_nonempty,"ax",%progbits
 1320              		.align	2
 1321              		.p2align 4,,15
 1322              		.global	can_lld_is_rx_nonempty
 1323              		.thumb
 1324              		.thumb_func
 1325              		.type	can_lld_is_rx_nonempty, %function
 1326              	can_lld_is_rx_nonempty:
 1327              	.LFB132:
 1328              		.loc 1 580 0
 1329              		.cfi_startproc
 1330              		@ args = 0, pretend = 0, frame = 0
 1331              		@ frame_needed = 0, uses_anonymous_args = 0
 1332              		@ link register save eliminated.
 1333              	.LVL123:
 1334              		.loc 1 582 0
 1335 0000 0129     		cmp	r1, #1
 1336 0002 0ED0     		beq	.L142
 1337 0004 03D3     		bcc	.L141
 1338 0006 0229     		cmp	r1, #2
 1339 0008 12D0     		beq	.L149
 1340              		.loc 1 591 0
 1341 000a 0020     		movs	r0, #0
 1342              	.LVL124:
 1343              		.loc 1 593 0
 1344 000c 7047     		bx	lr
 1345              	.LVL125:
 1346              	.L141:
 1347              		.loc 1 584 0
 1348 000e 436B     		ldr	r3, [r0, #52]
 1349 0010 DA68     		ldr	r2, [r3, #12]
 1350 0012 9207     		lsls	r2, r2, #30
 1351 0014 0ED1     		bne	.L146
 1352              	.L148:
 1353              		.loc 1 589 0
 1354 0016 1869     		ldr	r0, [r3, #16]
 1355              	.LVL126:
 1356 0018 10F00300 		ands	r0, r0, #3
 1357 001c 18BF     		it	ne
 1358 001e 0120     		movne	r0, #1
 1359 0020 7047     		bx	lr
 1360              	.LVL127:
 1361              	.L142:
 1362              		.loc 1 587 0
ARM GAS  C:\Users\srich\AppData\Local\Temp\cc6xfXvv.s 			page 25


 1363 0022 416B     		ldr	r1, [r0, #52]
 1364              	.LVL128:
 1365 0024 CB68     		ldr	r3, [r1, #12]
 1366 0026 13F00300 		ands	r0, r3, #3
 1367              	.LVL129:
 1368 002a 18BF     		it	ne
 1369 002c 0120     		movne	r0, #1
 1370 002e 7047     		bx	lr
 1371              	.LVL130:
 1372              	.L149:
 1373              		.loc 1 589 0
 1374 0030 436B     		ldr	r3, [r0, #52]
 1375 0032 F0E7     		b	.L148
 1376              	.L146:
 1377              		.loc 1 584 0
 1378 0034 0120     		movs	r0, #1
 1379              	.LVL131:
 1380 0036 7047     		bx	lr
 1381              		.cfi_endproc
 1382              	.LFE132:
 1383              		.size	can_lld_is_rx_nonempty, .-can_lld_is_rx_nonempty
 1384 0038 AFF30080 		.section	.text.can_lld_receive,"ax",%progbits
 1384      AFF30080 
 1385              		.align	2
 1386              		.p2align 4,,15
 1387              		.global	can_lld_receive
 1388              		.thumb
 1389              		.thumb_func
 1390              		.type	can_lld_receive, %function
 1391              	can_lld_receive:
 1392              	.LFB133:
 1393              		.loc 1 606 0
 1394              		.cfi_startproc
 1395              		@ args = 0, pretend = 0, frame = 0
 1396              		@ frame_needed = 0, uses_anonymous_args = 0
 1397              		@ link register save eliminated.
 1398              	.LVL132:
 1399 0000 30B4     		push	{r4, r5}
 1400              	.LCFI9:
 1401              		.cfi_def_cfa_offset 8
 1402              		.cfi_offset 4, -8
 1403              		.cfi_offset 5, -4
 1404              		.loc 1 609 0
 1405 0002 0029     		cmp	r1, #0
 1406 0004 32D1     		bne	.L151
 1407              		.loc 1 610 0
 1408 0006 436B     		ldr	r3, [r0, #52]
 1409 0008 D968     		ldr	r1, [r3, #12]
 1410              	.LVL133:
 1411 000a 8907     		lsls	r1, r1, #30
 1412 000c 34D0     		beq	.L160
 1413              	.L152:
 1414              		.loc 1 622 0
 1415 000e D3F8B041 		ldr	r4, [r3, #432]
 1416              	.LVL134:
 1417              		.loc 1 623 0
 1418 0012 D3F8B411 		ldr	r1, [r3, #436]
ARM GAS  C:\Users\srich\AppData\Local\Temp\cc6xfXvv.s 			page 26


 1419              	.LVL135:
 1420              		.loc 1 624 0
 1421 0016 D3F8B831 		ldr	r3, [r3, #440]
 1422 001a D360     		str	r3, [r2, #12]
 1423              		.loc 1 625 0
 1424 001c 456B     		ldr	r5, [r0, #52]
 1425 001e D5F8BC31 		ldr	r3, [r5, #444]
 1426 0022 1361     		str	r3, [r2, #16]
 1427              		.loc 1 628 0
 1428 0024 436B     		ldr	r3, [r0, #52]
 1429 0026 2020     		movs	r0, #32
 1430              	.LVL136:
 1431 0028 D860     		str	r0, [r3, #12]
 1432              		.loc 1 632 0
 1433 002a DD68     		ldr	r5, [r3, #12]
 1434 002c AD07     		lsls	r5, r5, #30
 1435 002e 42D0     		beq	.L161
 1436              	.L157:
 1437              		.loc 1 656 0
 1438 0030 1379     		ldrb	r3, [r2, #4]	@ zero_extendqisi2
 1439 0032 C4F34000 		ubfx	r0, r4, #1, #1
 1440 0036 60F30413 		bfi	r3, r0, #4, #1
 1441              		.loc 1 657 0
 1442 003a C4F38005 		ubfx	r5, r4, #2, #1
 1443 003e 65F34513 		bfi	r3, r5, #5, #1
 1444              		.loc 1 658 0
 1445 0042 D8B2     		uxtb	r0, r3
 1446 0044 00F02005 		and	r5, r0, #32
 1447 0048 EDB2     		uxtb	r5, r5
 1448              		.loc 1 657 0
 1449 004a 1371     		strb	r3, [r2, #4]
 1450              		.loc 1 658 0
 1451 004c 002D     		cmp	r5, #0
 1452 004e 2CD0     		beq	.L158
 1453              		.loc 1 659 0
 1454 0050 9368     		ldr	r3, [r2, #8]
 1455 0052 E408     		lsrs	r4, r4, #3
 1456              	.LVL137:
 1457 0054 64F31C03 		bfi	r3, r4, #0, #29
 1458 0058 9360     		str	r3, [r2, #8]
 1459              	.L159:
 1460              		.loc 1 662 0
 1461 005a 0346     		mov	r3, r0
 1462 005c 61F30303 		bfi	r3, r1, #0, #4
 1463              		.loc 1 663 0
 1464 0060 080A     		lsrs	r0, r1, #8
 1465              		.loc 1 664 0
 1466 0062 090C     		lsrs	r1, r1, #16
 1467              	.LVL138:
 1468              		.loc 1 662 0
 1469 0064 1371     		strb	r3, [r2, #4]
 1470              		.loc 1 663 0
 1471 0066 1070     		strb	r0, [r2, #0]
 1472              		.loc 1 664 0
 1473 0068 5180     		strh	r1, [r2, #2]	@ movhi
 1474 006a 03E0     		b	.L150
 1475              	.LVL139:
ARM GAS  C:\Users\srich\AppData\Local\Temp\cc6xfXvv.s 			page 27


 1476              	.L151:
 1477              		.loc 1 619 0
 1478 006c 0129     		cmp	r1, #1
 1479 006e 27D0     		beq	.L155
 1480 0070 0229     		cmp	r1, #2
 1481 0072 27D0     		beq	.L162
 1482              	.LVL140:
 1483              	.L150:
 1484              		.loc 1 665 0
 1485 0074 30BC     		pop	{r4, r5}
 1486 0076 7047     		bx	lr
 1487              	.LVL141:
 1488              	.L160:
 1489              		.loc 1 612 0
 1490 0078 1969     		ldr	r1, [r3, #16]
 1491 007a 8907     		lsls	r1, r1, #30
 1492 007c FAD0     		beq	.L150
 1493              	.L153:
 1494              		.loc 1 637 0
 1495 007e D3F8C041 		ldr	r4, [r3, #448]
 1496              	.LVL142:
 1497              		.loc 1 638 0
 1498 0082 D3F8C411 		ldr	r1, [r3, #452]
 1499              	.LVL143:
 1500              		.loc 1 639 0
 1501 0086 D3F8C851 		ldr	r5, [r3, #456]
 1502 008a D560     		str	r5, [r2, #12]
 1503              		.loc 1 640 0
 1504 008c 436B     		ldr	r3, [r0, #52]
 1505 008e D3F8CC51 		ldr	r5, [r3, #460]
 1506 0092 1561     		str	r5, [r2, #16]
 1507              		.loc 1 643 0
 1508 0094 436B     		ldr	r3, [r0, #52]
 1509 0096 2020     		movs	r0, #32
 1510              	.LVL144:
 1511 0098 1861     		str	r0, [r3, #16]
 1512              		.loc 1 647 0
 1513 009a 1D69     		ldr	r5, [r3, #16]
 1514 009c A807     		lsls	r0, r5, #30
 1515 009e C7D1     		bne	.L157
 1516              		.loc 1 648 0
 1517 00a0 5869     		ldr	r0, [r3, #20]
 1518 00a2 40F01005 		orr	r5, r0, #16
 1519 00a6 5D61     		str	r5, [r3, #20]
 1520 00a8 C2E7     		b	.L157
 1521              	.L158:
 1522              		.loc 1 661 0
 1523 00aa 1389     		ldrh	r3, [r2, #8]
 1524 00ac 640D     		lsrs	r4, r4, #21
 1525              	.LVL145:
 1526 00ae 64F30A03 		bfi	r3, r4, #0, #11
 1527 00b2 1381     		strh	r3, [r2, #8]	@ movhi
 1528 00b4 D1E7     		b	.L159
 1529              	.LVL146:
 1530              	.L161:
 1531              		.loc 1 633 0
 1532 00b6 5869     		ldr	r0, [r3, #20]
ARM GAS  C:\Users\srich\AppData\Local\Temp\cc6xfXvv.s 			page 28


 1533 00b8 40F00205 		orr	r5, r0, #2
 1534 00bc 5D61     		str	r5, [r3, #20]
 1535 00be B7E7     		b	.L157
 1536              	.LVL147:
 1537              	.L155:
 1538 00c0 436B     		ldr	r3, [r0, #52]
 1539 00c2 A4E7     		b	.L152
 1540              	.L162:
 1541 00c4 436B     		ldr	r3, [r0, #52]
 1542 00c6 DAE7     		b	.L153
 1543              		.cfi_endproc
 1544              	.LFE133:
 1545              		.size	can_lld_receive, .-can_lld_receive
 1546 00c8 AFF30080 		.section	.text.can_lld_sleep,"ax",%progbits
 1546      AFF30080 
 1547              		.align	2
 1548              		.p2align 4,,15
 1549              		.global	can_lld_sleep
 1550              		.thumb
 1551              		.thumb_func
 1552              		.type	can_lld_sleep, %function
 1553              	can_lld_sleep:
 1554              	.LFB134:
 1555              		.loc 1 675 0
 1556              		.cfi_startproc
 1557              		@ args = 0, pretend = 0, frame = 0
 1558              		@ frame_needed = 0, uses_anonymous_args = 0
 1559              		@ link register save eliminated.
 1560              	.LVL148:
 1561              		.loc 1 677 0
 1562 0000 436B     		ldr	r3, [r0, #52]
 1563 0002 1A68     		ldr	r2, [r3, #0]
 1564 0004 42F00200 		orr	r0, r2, #2
 1565              	.LVL149:
 1566 0008 1860     		str	r0, [r3, #0]
 1567 000a 7047     		bx	lr
 1568              		.cfi_endproc
 1569              	.LFE134:
 1570              		.size	can_lld_sleep, .-can_lld_sleep
 1571 000c AFF30080 		.section	.text.can_lld_wakeup,"ax",%progbits
 1572              		.align	2
 1573              		.p2align 4,,15
 1574              		.global	can_lld_wakeup
 1575              		.thumb
 1576              		.thumb_func
 1577              		.type	can_lld_wakeup, %function
 1578              	can_lld_wakeup:
 1579              	.LFB135:
 1580              		.loc 1 687 0
 1581              		.cfi_startproc
 1582              		@ args = 0, pretend = 0, frame = 0
 1583              		@ frame_needed = 0, uses_anonymous_args = 0
 1584              		@ link register save eliminated.
 1585              	.LVL150:
 1586              		.loc 1 689 0
 1587 0000 436B     		ldr	r3, [r0, #52]
 1588 0002 1A68     		ldr	r2, [r3, #0]
ARM GAS  C:\Users\srich\AppData\Local\Temp\cc6xfXvv.s 			page 29


 1589 0004 22F00200 		bic	r0, r2, #2
 1590              	.LVL151:
 1591 0008 1860     		str	r0, [r3, #0]
 1592 000a 7047     		bx	lr
 1593              		.cfi_endproc
 1594              	.LFE135:
 1595              		.size	can_lld_wakeup, .-can_lld_wakeup
 1596 000c AFF30080 		.section	.text.canSTM32SetFilters,"ax",%progbits
 1597              		.align	2
 1598              		.p2align 4,,15
 1599              		.global	canSTM32SetFilters
 1600              		.thumb
 1601              		.thumb_func
 1602              		.type	canSTM32SetFilters, %function
 1603              	canSTM32SetFilters:
 1604              	.LFB136:
 1605              		.loc 1 705 0
 1606              		.cfi_startproc
 1607              		@ args = 0, pretend = 0, frame = 0
 1608              		@ frame_needed = 0, uses_anonymous_args = 0
 1609              		@ link register save eliminated.
 1610              	.LVL152:
 1611              		.loc 1 721 0
 1612              		.loc 1 720 0
 1613 0000 FFF7FEBF 		b	can_lld_set_filters
 1614              	.LVL153:
 1615              		.cfi_endproc
 1616              	.LFE136:
 1617              		.size	canSTM32SetFilters, .-canSTM32SetFilters
 1618              		.global	CAND1
 1619 0004 AFF30080 		.section	.bss.CAND1,"aw",%nobits
 1619      AFF30080 
 1619      AFF30080 
 1620              		.align	2
 1621              		.set	.LANCHOR0,. + 0
 1622              		.type	CAND1, %object
 1623              		.size	CAND1, 56
 1624              	CAND1:
 1625 0000 00000000 		.space	56
 1625      00000000 
 1625      00000000 
 1625      00000000 
 1625      00000000 
 1626              		.text
 1627              	.Letext0:
 1628              		.file 2 "c:\\chibistudio\\tools\\gnu tools arm embedded\\4.7 2014q2\\bin\\../lib/gcc/arm-none-eabi
 1629              		.file 3 "c:\\ChibiStudio\\chibios/os/ports/GCC/ARMCMx/chtypes.h"
 1630              		.file 4 "c:\\ChibiStudio\\chibios/os/kernel/include/chlists.h"
 1631              		.file 5 "c:\\ChibiStudio\\chibios/os/kernel/include/chthreads.h"
 1632              		.file 6 "c:\\ChibiStudio\\chibios/os/ports/GCC/ARMCMx/chcore_v7m.h"
 1633              		.file 7 "c:\\ChibiStudio\\chibios/os/kernel/include/chsem.h"
 1634              		.file 8 "c:\\ChibiStudio\\chibios/os/kernel/include/chmtx.h"
 1635              		.file 9 "c:\\ChibiStudio\\chibios/os/kernel/include/chevents.h"
 1636              		.file 10 "c:\\ChibiStudio\\chibios/os/hal/platforms/STM32F4xx/stm32f4xx.h"
 1637              		.file 11 "c:\\ChibiStudio\\chibios/os/hal/include/can.h"
 1638              		.file 12 "c:\\ChibiStudio\\chibios/os/hal/platforms/STM32/can_lld.h"
 1639              		.file 13 "c:\\ChibiStudio\\chibios/os/ports/common/ARMCMx/CMSIS/include/core_cm4.h"
ARM GAS  C:\Users\srich\AppData\Local\Temp\cc6xfXvv.s 			page 30


 1640              		.file 14 "c:\\ChibiStudio\\chibios/os/ports/common/ARMCMx/nvic.h"
 1641              		.file 15 "c:\\ChibiStudio\\chibios/os/kernel/include/chschd.h"