ARM GAS  C:\Users\DNIEL~1\AppData\Local\Temp\cc3Fm2Fs.s 			page 1


   1              		.syntax unified
   2              		.cpu cortex-m4
   3              		.fpu softvfp
   4              		.eabi_attribute 20, 1
   5              		.eabi_attribute 21, 1
   6              		.eabi_attribute 23, 3
   7              		.eabi_attribute 24, 1
   8              		.eabi_attribute 25, 1
   9              		.eabi_attribute 26, 1
  10              		.eabi_attribute 30, 2
  11              		.eabi_attribute 18, 4
  12              		.thumb
  13              		.file	"can_comm.c"
  14              		.section	.debug_abbrev,"",%progbits
  15              	.Ldebug_abbrev0:
  16              		.section	.debug_info,"",%progbits
  17              	.Ldebug_info0:
  18              		.section	.debug_line,"",%progbits
  19              	.Ldebug_line0:
  20 0000 3A040000 		.text
  20      02000A03 
  20      00000201 
  20      FB0E0D00 
  20      01010101 
  21              	.Ltext0:
  22              		.cfi_sections	.debug_frame
  23              		.section	.text.chprintf,"ax",%progbits
  24              		.align	2
  25              		.p2align 4,,15
  26              		.thumb
  27              		.thumb_func
  28              		.type	chprintf, %function
  29              	chprintf:
  30              	.LFB118:
  31              		.file 1 "../../../Chibios/os/various/chprintf.h"
  32              		.loc 1 69 0
  33              		.cfi_startproc
  34              		@ args = 4, pretend = 12, frame = 8
  35              		@ frame_needed = 0, uses_anonymous_args = 1
  36              	.LVL0:
  37 0000 0EB4     		push	{r1, r2, r3}
  38              	.LCFI0:
  39              		.cfi_def_cfa_offset 12
  40 0002 00B5     		push	{lr}
  41              	.LCFI1:
  42              		.cfi_def_cfa_offset 16
  43 0004 82B0     		sub	sp, sp, #8
  44              	.LCFI2:
  45              		.cfi_def_cfa_offset 24
  46              		.loc 1 69 0
  47 0006 03AB     		add	r3, sp, #12
  48              		.cfi_offset 14, -16
  49              		.cfi_offset 3, -4
  50              		.cfi_offset 2, -8
  51              		.cfi_offset 1, -12
  52 0008 53F8041B 		ldr	r1, [r3], #4
  53              		.loc 1 73 0
ARM GAS  C:\Users\DNIEL~1\AppData\Local\Temp\cc3Fm2Fs.s 			page 2


  54 000c 1A46     		mov	r2, r3
  55              		.loc 1 72 0
  56 000e 0193     		str	r3, [sp, #4]
  57              		.loc 1 73 0
  58 0010 FFF7FEFF 		bl	chvprintf
  59              	.LVL1:
  60              		.loc 1 75 0
  61 0014 02B0     		add	sp, sp, #8
  62 0016 5DF804EB 		pop	{lr}
  63 001a 03B0     		add	sp, sp, #12
  64 001c 7047     		bx	lr
  65              		.cfi_endproc
  66              	.LFE118:
  67              		.size	chprintf, .-chprintf
  68 001e 00BF     		.section	.text.can_rx,"ax",%progbits
  69              		.align	2
  70              		.p2align 4,,15
  71              		.thumb
  72              		.thumb_func
  73              		.type	can_rx, %function
  74              	can_rx:
  75              	.LFB119:
  76              		.file 2 "src/can_comm.c"
  77              		.loc 2 77 0
  78              		.cfi_startproc
  79              		@ args = 0, pretend = 0, frame = 16
  80              		@ frame_needed = 0, uses_anonymous_args = 0
  81              	.LVL2:
  82 0000 2DE9F041 		push	{r4, r5, r6, r7, r8, lr}
  83              	.LCFI3:
  84              		.cfi_def_cfa_offset 24
  85              		.loc 2 83 0
  86 0004 DFF8F880 		ldr	r8, .L23+28
  87              		.cfi_offset 14, -4
  88              		.cfi_offset 8, -8
  89              		.cfi_offset 7, -12
  90              		.cfi_offset 6, -16
  91              		.cfi_offset 5, -20
  92              		.cfi_offset 4, -24
  93 0008 364A     		ldr	r2, .L23
  94 000a D8F81830 		ldr	r3, [r8, #24]
  95              		.loc 2 84 0
  96 000e 3648     		ldr	r0, .L23+4
  97              	.LVL3:
  98              		.loc 2 83 0
  99 0010 9A61     		str	r2, [r3, #24]
 100              		.loc 2 77 0
 101 0012 84B0     		sub	sp, sp, #16
 102              	.LCFI4:
 103              		.cfi_def_cfa_offset 40
 104              		.loc 2 84 0
 105 0014 6946     		mov	r1, sp
 106 0016 0122     		movs	r2, #1
 107 0018 FFF7FEFF 		bl	chEvtRegisterMask
 108              		.loc 2 88 0
 109 001c 334C     		ldr	r4, .L23+8
 110              		.loc 2 90 0
ARM GAS  C:\Users\DNIEL~1\AppData\Local\Temp\cc3Fm2Fs.s 			page 3


 111 001e 344E     		ldr	r6, .L23+12
 112              		.loc 2 91 0
 113 0020 344D     		ldr	r5, .L23+16
 114              		.loc 2 121 0
 115 0022 354F     		ldr	r7, .L23+20
 116              	.L17:
 117              		.loc 2 85 0 discriminator 1
 118 0024 D8F81830 		ldr	r3, [r8, #24]
 119 0028 597F     		ldrb	r1, [r3, #29]	@ zero_extendqisi2
 120 002a 11F0040F 		tst	r1, #4
 121 002e 51D1     		bne	.L22
 122              		.loc 2 86 0
 123 0030 4FF0FF30 		mov	r0, #-1
 124 0034 6421     		movs	r1, #100
 125 0036 FFF7FEFF 		bl	chEvtWaitAnyTimeout
 126 003a 0028     		cmp	r0, #0
 127 003c F2D0     		beq	.L17
 128              	.L18:
 129              		.loc 2 88 0 discriminator 1
 130 003e 0021     		movs	r1, #0
 131 0040 2E48     		ldr	r0, .L23+24
 132 0042 2A4A     		ldr	r2, .L23+8
 133 0044 0B46     		mov	r3, r1
 134 0046 FFF7FEFF 		bl	canReceive
 135 004a 0028     		cmp	r0, #0
 136 004c EAD1     		bne	.L17
 137              		.loc 2 90 0
 138 004e A168     		ldr	r1, [r4, #8]
 139 0050 C1F31C0E 		ubfx	lr, r1, #0, #29
 140 0054 CEF30F23 		ubfx	r3, lr, #8, #16
 141              		.loc 2 91 0
 142 0058 5FFA8EFC 		uxtb	ip, lr
 143              		.loc 2 100 0
 144 005c 0F2B     		cmp	r3, #15
 145              		.loc 2 90 0
 146 005e 3380     		strh	r3, [r6, #0]	@ movhi
 147              		.loc 2 91 0
 148 0060 A5F800C0 		strh	ip, [r5, #0]	@ movhi
 149              	.LVL4:
 150              		.loc 2 100 0
 151 0064 30D9     		bls	.L19
 152              	.L6:
 153              		.loc 2 104 0
 154 0066 A3F1100C 		sub	ip, r3, #16
 155 006a 1FFA8CF2 		uxth	r2, ip
 156 006e 0F2A     		cmp	r2, #15
 157 0070 2AD9     		bls	.L19
 158              		.loc 2 108 0
 159 0072 A3F12002 		sub	r2, r3, #32
 160 0076 1FFA82FE 		uxth	lr, r2
 161 007a BEF10F0F 		cmp	lr, #15
 162 007e 23D9     		bls	.L19
 163              		.loc 2 112 0
 164 0080 A3F1300E 		sub	lr, r3, #48
 165 0084 1FFA8EFC 		uxth	ip, lr
 166 0088 BCF10F0F 		cmp	ip, #15
 167 008c 1CD9     		bls	.L19
ARM GAS  C:\Users\DNIEL~1\AppData\Local\Temp\cc3Fm2Fs.s 			page 4


 168              		.loc 2 116 0
 169 008e 403B     		subs	r3, r3, #64
 170 0090 9BB2     		uxth	r3, r3
 171 0092 1F2B     		cmp	r3, #31
 172 0094 18D9     		bls	.L19
 173              		.loc 2 122 0
 174 0096 60F31C01 		bfi	r1, r0, #0, #29
 175              		.loc 2 121 0
 176 009a 0522     		movs	r2, #5
 177 009c 3A70     		strb	r2, [r7, #0]
 178              		.loc 2 122 0
 179 009e A160     		str	r1, [r4, #8]
 180              		.loc 2 88 0
 181 00a0 0021     		movs	r1, #0
 182 00a2 1648     		ldr	r0, .L23+24
 183 00a4 114A     		ldr	r2, .L23+8
 184 00a6 0B46     		mov	r3, r1
 185 00a8 FFF7FEFF 		bl	canReceive
 186 00ac 0028     		cmp	r0, #0
 187 00ae B9D1     		bne	.L17
 188              		.loc 2 90 0
 189 00b0 A168     		ldr	r1, [r4, #8]
 190 00b2 C1F31C0E 		ubfx	lr, r1, #0, #29
 191 00b6 CEF30F23 		ubfx	r3, lr, #8, #16
 192              		.loc 2 91 0
 193 00ba 5FFA8EFC 		uxtb	ip, lr
 194              		.loc 2 100 0
 195 00be 0F2B     		cmp	r3, #15
 196              		.loc 2 90 0
 197 00c0 3380     		strh	r3, [r6, #0]	@ movhi
 198              		.loc 2 91 0
 199 00c2 A5F800C0 		strh	ip, [r5, #0]	@ movhi
 200              		.loc 2 100 0
 201 00c6 CED8     		bhi	.L6
 202              	.L19:
 203              		.loc 2 118 0
 204 00c8 60F31C01 		bfi	r1, r0, #0, #29
 205              		.loc 2 143 0
 206 00cc 0520     		movs	r0, #5
 207              		.loc 2 118 0
 208 00ce A160     		str	r1, [r4, #8]
 209              		.loc 2 143 0
 210 00d0 3870     		strb	r0, [r7, #0]
 211 00d2 B4E7     		b	.L18
 212              	.LVL5:
 213              	.L22:
 214              		.loc 2 155 0
 215 00d4 0448     		ldr	r0, .L23+4
 216 00d6 6946     		mov	r1, sp
 217 00d8 FFF7FEFF 		bl	chEvtUnregister
 218              		.loc 2 158 0
 219 00dc 0020     		movs	r0, #0
 220 00de 04B0     		add	sp, sp, #16
 221 00e0 BDE8F081 		pop	{r4, r5, r6, r7, r8, pc}
 222              	.L24:
 223              		.align	2
 224              	.L23:
ARM GAS  C:\Users\DNIEL~1\AppData\Local\Temp\cc3Fm2Fs.s 			page 5


 225 00e4 00000000 		.word	.LC0
 226 00e8 20000000 		.word	CAND1+32
 227 00ec 00000000 		.word	.LANCHOR0
 228 00f0 00000000 		.word	.LANCHOR1
 229 00f4 00000000 		.word	.LANCHOR2
 230 00f8 00000000 		.word	.LANCHOR3
 231 00fc 00000000 		.word	CAND1
 232 0100 00000000 		.word	rlist
 233              		.cfi_endproc
 234              	.LFE119:
 235              		.size	can_rx, .-can_rx
 236 0104 AFF30080 		.section	.text.can_tx,"ax",%progbits
 236      AFF30080 
 236      AFF30080 
 237              		.align	2
 238              		.p2align 4,,15
 239              		.thumb
 240              		.thumb_func
 241              		.type	can_tx, %function
 242              	can_tx:
 243              	.LFB120:
 244              		.loc 2 161 0
 245              		.cfi_startproc
 246              		@ args = 0, pretend = 0, frame = 0
 247              		@ frame_needed = 0, uses_anonymous_args = 0
 248              	.LVL6:
 249 0000 70B5     		push	{r4, r5, r6, lr}
 250              	.LCFI5:
 251              		.cfi_def_cfa_offset 16
 252              		.loc 2 164 0
 253 0002 184D     		ldr	r5, .L29
 254              		.cfi_offset 14, -4
 255              		.cfi_offset 6, -8
 256              		.cfi_offset 5, -12
 257              		.cfi_offset 4, -16
 258 0004 1849     		ldr	r1, .L29+4
 259 0006 AB69     		ldr	r3, [r5, #24]
 260              		.loc 2 168 0
 261 0008 5A7F     		ldrb	r2, [r3, #29]	@ zero_extendqisi2
 262              		.loc 2 164 0
 263 000a 9961     		str	r1, [r3, #24]
 264              		.loc 2 168 0
 265 000c 12F0040F 		tst	r2, #4
 266 0010 25D1     		bne	.L26
 267 0012 164C     		ldr	r4, .L29+8
 268              		.loc 2 173 0
 269 0014 42F20106 		movw	r6, #8193
 270              	.LVL7:
 271              	.L27:
 272              		.loc 2 173 0 is_stmt 0 discriminator 1
 273 0018 6168     		ldr	r1, [r4, #4]
 274              		.loc 2 175 0 is_stmt 1 discriminator 1
 275 001a 0020     		movs	r0, #0
 276              		.loc 2 173 0 discriminator 1
 277 001c 66F31C01 		bfi	r1, r6, #0, #29
 278 0020 6160     		str	r1, [r4, #4]
 279              		.loc 2 175 0 discriminator 1
ARM GAS  C:\Users\DNIEL~1\AppData\Local\Temp\cc3Fm2Fs.s 			page 6


 280 0022 FFF7FEFF 		bl	one_vireGetValue
 281 0026 2081     		strh	r0, [r4, #8]	@ movhi
 282              		.loc 2 176 0 discriminator 1
 283 0028 0120     		movs	r0, #1
 284 002a FFF7FEFF 		bl	one_vireGetValue
 285 002e 6081     		strh	r0, [r4, #10]	@ movhi
 286              		.loc 2 177 0 discriminator 1
 287 0030 0220     		movs	r0, #2
 288 0032 FFF7FEFF 		bl	one_vireGetValue
 289 0036 A081     		strh	r0, [r4, #12]	@ movhi
 290              		.loc 2 178 0 discriminator 1
 291 0038 0320     		movs	r0, #3
 292 003a FFF7FEFF 		bl	one_vireGetValue
 293              		.loc 2 180 0 discriminator 1
 294 003e 0021     		movs	r1, #0
 295 0040 0A4A     		ldr	r2, .L29+8
 296              		.loc 2 178 0 discriminator 1
 297 0042 E081     		strh	r0, [r4, #14]	@ movhi
 298              		.loc 2 180 0 discriminator 1
 299 0044 6423     		movs	r3, #100
 300 0046 0A48     		ldr	r0, .L29+12
 301 0048 FFF7FEFF 		bl	canTransmit
 302              	.LVL8:
 303              		.loc 2 187 0 discriminator 1
 304 004c 4FF47A70 		mov	r0, #1000
 305 0050 FFF7FEFF 		bl	chThdSleep
 306              		.loc 2 168 0 discriminator 1
 307 0054 AA69     		ldr	r2, [r5, #24]
 308 0056 507F     		ldrb	r0, [r2, #29]	@ zero_extendqisi2
 309 0058 10F0040F 		tst	r0, #4
 310 005c DCD0     		beq	.L27
 311              	.LVL9:
 312              	.L26:
 313              		.loc 2 190 0
 314 005e 0020     		movs	r0, #0
 315 0060 70BD     		pop	{r4, r5, r6, pc}
 316              	.L30:
 317 0062 00BF     		.align	2
 318              	.L29:
 319 0064 00000000 		.word	rlist
 320 0068 0C000000 		.word	.LC1
 321 006c 00000000 		.word	.LANCHOR4
 322 0070 00000000 		.word	CAND1
 323              		.cfi_endproc
 324              	.LFE120:
 325              		.size	can_tx, .-can_tx
 326 0074 AFF30080 		.section	.text.can_commInit,"ax",%progbits
 326      AFF30080 
 326      AFF30080 
 327              		.align	2
 328              		.p2align 4,,15
 329              		.global	can_commInit
 330              		.thumb
 331              		.thumb_func
 332              		.type	can_commInit, %function
 333              	can_commInit:
 334              	.LFB121:
ARM GAS  C:\Users\DNIEL~1\AppData\Local\Temp\cc3Fm2Fs.s 			page 7


 335              		.loc 2 192 0
 336              		.cfi_startproc
 337              		@ args = 0, pretend = 0, frame = 0
 338              		@ frame_needed = 0, uses_anonymous_args = 0
 339 0000 10B5     		push	{r4, lr}
 340              	.LCFI6:
 341              		.cfi_def_cfa_offset 8
 342              		.loc 2 193 0
 343 0002 114B     		ldr	r3, .L32
 344              		.loc 2 197 0
 345 0004 1148     		ldr	r0, .L32+4
 346              		.loc 2 193 0
 347 0006 93F800E0 		ldrb	lr, [r3, #0]	@ zero_extendqisi2
 348              		.cfi_offset 14, -4
 349              		.cfi_offset 4, -8
 350              		.loc 2 197 0
 351 000a 1149     		ldr	r1, .L32+8
 352              		.loc 2 194 0
 353 000c 4EF0200C 		orr	ip, lr, #32
 354              		.loc 2 195 0
 355 0010 0CF0EF02 		and	r2, ip, #239
 356 0014 0824     		movs	r4, #8
 357 0016 64F30302 		bfi	r2, r4, #0, #4
 358              		.loc 2 192 0
 359 001a 82B0     		sub	sp, sp, #8
 360              	.LCFI7:
 361              		.cfi_def_cfa_offset 16
 362              		.loc 2 195 0
 363 001c 1A70     		strb	r2, [r3, #0]
 364              		.loc 2 197 0
 365 001e FFF7FEFF 		bl	canStart
 366              		.loc 2 199 0
 367 0022 0024     		movs	r4, #0
 368 0024 4722     		movs	r2, #71
 369 0026 4FF4E871 		mov	r1, #464
 370 002a 0A4B     		ldr	r3, .L32+12
 371 002c 0A48     		ldr	r0, .L32+16
 372 002e 0094     		str	r4, [sp, #0]
 373 0030 FFF7FEFF 		bl	chThdCreateStatic
 374              		.loc 2 200 0
 375 0034 094B     		ldr	r3, .L32+20
 376 0036 0A48     		ldr	r0, .L32+24
 377 0038 0094     		str	r4, [sp, #0]
 378 003a 4FF4E871 		mov	r1, #464
 379 003e 4022     		movs	r2, #64
 380 0040 FFF7FEFF 		bl	chThdCreateStatic
 381              		.loc 2 201 0
 382 0044 02B0     		add	sp, sp, #8
 383 0046 10BD     		pop	{r4, pc}
 384              	.L33:
 385              		.align	2
 386              	.L32:
 387 0048 00000000 		.word	.LANCHOR4
 388 004c 00000000 		.word	CAND1
 389 0050 00000000 		.word	.LANCHOR5
 390 0054 00000000 		.word	can_tx
 391 0058 00000000 		.word	.LANCHOR6
ARM GAS  C:\Users\DNIEL~1\AppData\Local\Temp\cc3Fm2Fs.s 			page 8


 392 005c 00000000 		.word	can_rx
 393 0060 00000000 		.word	.LANCHOR7
 394              		.cfi_endproc
 395              	.LFE121:
 396              		.size	can_commInit, .-can_commInit
 397 0064 AFF30080 		.section	.text.cmd_can_commvalues,"ax",%progbits
 397      AFF30080 
 397      AFF30080 
 398              		.align	2
 399              		.p2align 4,,15
 400              		.global	cmd_can_commvalues
 401              		.thumb
 402              		.thumb_func
 403              		.type	cmd_can_commvalues, %function
 404              	cmd_can_commvalues:
 405              	.LFB122:
 406              		.loc 2 203 0
 407              		.cfi_startproc
 408              		@ args = 0, pretend = 0, frame = 0
 409              		@ frame_needed = 0, uses_anonymous_args = 0
 410              	.LVL10:
 411 0000 2DE9F041 		push	{r4, r5, r6, r7, r8, lr}
 412              	.LCFI8:
 413              		.cfi_def_cfa_offset 24
 414              		.loc 2 207 0
 415 0004 3B49     		ldr	r1, .L37
 416              	.LVL11:
 417              		.loc 2 212 0
 418 0006 3C4E     		ldr	r6, .L37+4
 419              		.cfi_offset 14, -4
 420              		.cfi_offset 8, -8
 421              		.cfi_offset 7, -12
 422              		.cfi_offset 6, -16
 423              		.cfi_offset 5, -20
 424              		.cfi_offset 4, -24
 425              		.loc 2 213 0
 426 0008 3C4F     		ldr	r7, .L37+8
 427              		.loc 2 214 0
 428 000a DFF83C81 		ldr	r8, .L37+84
 429              		.loc 2 203 0
 430 000e 0446     		mov	r4, r0
 431              		.loc 2 207 0
 432 0010 FFF7FEFF 		bl	chprintf
 433              	.LVL12:
 434              		.loc 2 208 0
 435 0014 2046     		mov	r0, r4
 436 0016 3A49     		ldr	r1, .L37+12
 437 0018 FFF7FEFF 		bl	chprintf
 438              		.loc 2 209 0
 439 001c 5FE0     		b	.L35
 440              	.L36:
 441              		.loc 2 210 0
 442 001e 0022     		movs	r2, #0
 443 0020 1346     		mov	r3, r2
 444 0022 3849     		ldr	r1, .L37+16
 445              		.loc 2 222 0
 446 0024 384D     		ldr	r5, .L37+20
ARM GAS  C:\Users\DNIEL~1\AppData\Local\Temp\cc3Fm2Fs.s 			page 9


 447              		.loc 2 210 0
 448 0026 2046     		mov	r0, r4
 449 0028 FFF7FEFF 		bl	chprintf
 450              		.loc 2 211 0
 451 002c 2046     		mov	r0, r4
 452 002e 3749     		ldr	r1, .L37+24
 453 0030 FFF7FEFF 		bl	chprintf
 454              		.loc 2 212 0
 455 0034 B068     		ldr	r0, [r6, #8]
 456 0036 3649     		ldr	r1, .L37+28
 457 0038 20F06042 		bic	r2, r0, #-536870912
 458 003c 2046     		mov	r0, r4
 459 003e FFF7FEFF 		bl	chprintf
 460              		.loc 2 213 0
 461 0042 2046     		mov	r0, r4
 462 0044 3349     		ldr	r1, .L37+32
 463 0046 3A88     		ldrh	r2, [r7, #0]
 464 0048 FFF7FEFF 		bl	chprintf
 465              		.loc 2 214 0
 466 004c B8F80020 		ldrh	r2, [r8, #0]
 467 0050 3149     		ldr	r1, .L37+36
 468 0052 2046     		mov	r0, r4
 469 0054 FFF7FEFF 		bl	chprintf
 470              		.loc 2 215 0
 471 0058 2046     		mov	r0, r4
 472 005a 3049     		ldr	r1, .L37+40
 473 005c FFF7FEFF 		bl	chprintf
 474              		.loc 2 216 0
 475 0060 2046     		mov	r0, r4
 476 0062 2F49     		ldr	r1, .L37+44
 477 0064 B289     		ldrh	r2, [r6, #12]
 478 0066 FFF7FEFF 		bl	chprintf
 479              		.loc 2 217 0
 480 006a 2046     		mov	r0, r4
 481 006c 2D49     		ldr	r1, .L37+48
 482 006e F289     		ldrh	r2, [r6, #14]
 483 0070 FFF7FEFF 		bl	chprintf
 484              		.loc 2 218 0
 485 0074 2046     		mov	r0, r4
 486 0076 2C49     		ldr	r1, .L37+52
 487 0078 328A     		ldrh	r2, [r6, #16]
 488 007a FFF7FEFF 		bl	chprintf
 489              		.loc 2 219 0
 490 007e 728A     		ldrh	r2, [r6, #18]
 491 0080 2A49     		ldr	r1, .L37+56
 492 0082 2046     		mov	r0, r4
 493 0084 FFF7FEFF 		bl	chprintf
 494              		.loc 2 220 0
 495 0088 2046     		mov	r0, r4
 496 008a 2449     		ldr	r1, .L37+40
 497 008c FFF7FEFF 		bl	chprintf
 498              		.loc 2 221 0
 499 0090 2046     		mov	r0, r4
 500 0092 2749     		ldr	r1, .L37+60
 501 0094 FFF7FEFF 		bl	chprintf
 502              		.loc 2 222 0
 503 0098 6A68     		ldr	r2, [r5, #4]
ARM GAS  C:\Users\DNIEL~1\AppData\Local\Temp\cc3Fm2Fs.s 			page 10


 504 009a 2649     		ldr	r1, .L37+64
 505 009c 22F06042 		bic	r2, r2, #-536870912
 506 00a0 2046     		mov	r0, r4
 507 00a2 FFF7FEFF 		bl	chprintf
 508              		.loc 2 223 0
 509 00a6 2046     		mov	r0, r4
 510 00a8 1C49     		ldr	r1, .L37+40
 511 00aa FFF7FEFF 		bl	chprintf
 512              		.loc 2 224 0
 513 00ae 2046     		mov	r0, r4
 514 00b0 2149     		ldr	r1, .L37+68
 515 00b2 2A89     		ldrh	r2, [r5, #8]
 516 00b4 FFF7FEFF 		bl	chprintf
 517              		.loc 2 225 0
 518 00b8 2046     		mov	r0, r4
 519 00ba 2049     		ldr	r1, .L37+72
 520 00bc 6A89     		ldrh	r2, [r5, #10]
 521 00be FFF7FEFF 		bl	chprintf
 522              		.loc 2 226 0
 523 00c2 2046     		mov	r0, r4
 524 00c4 1E49     		ldr	r1, .L37+76
 525 00c6 AA89     		ldrh	r2, [r5, #12]
 526 00c8 FFF7FEFF 		bl	chprintf
 527              		.loc 2 227 0
 528 00cc 2046     		mov	r0, r4
 529 00ce 1D49     		ldr	r1, .L37+80
 530 00d0 EA89     		ldrh	r2, [r5, #14]
 531 00d2 FFF7FEFF 		bl	chprintf
 532              		.loc 2 229 0
 533 00d6 4FF47A70 		mov	r0, #1000
 534 00da FFF7FEFF 		bl	chThdSleep
 535              	.L35:
 536              		.loc 2 209 0 discriminator 1
 537 00de 2168     		ldr	r1, [r4, #0]
 538 00e0 2046     		mov	r0, r4
 539 00e2 4B69     		ldr	r3, [r1, #20]
 540 00e4 0021     		movs	r1, #0
 541 00e6 9847     		blx	r3
 542 00e8 B0F1FF3F 		cmp	r0, #-1
 543 00ec 97D0     		beq	.L36
 544              		.loc 2 231 0
 545 00ee BDE8F081 		pop	{r4, r5, r6, r7, r8, pc}
 546              	.L38:
 547 00f2 00BF     		.align	2
 548              	.L37:
 549 00f4 18000000 		.word	.LC2
 550 00f8 00000000 		.word	.LANCHOR0
 551 00fc 00000000 		.word	.LANCHOR1
 552 0100 1C000000 		.word	.LC3
 553 0104 24000000 		.word	.LC4
 554 0108 00000000 		.word	.LANCHOR4
 555 010c 30000000 		.word	.LC5
 556 0110 54000000 		.word	.LC6
 557 0114 64000000 		.word	.LC7
 558 0118 70000000 		.word	.LC8
 559 011c 84000000 		.word	.LC9
 560 0120 88000000 		.word	.LC10
ARM GAS  C:\Users\DNIEL~1\AppData\Local\Temp\cc3Fm2Fs.s 			page 11


 561 0124 9C000000 		.word	.LC11
 562 0128 B0000000 		.word	.LC12
 563 012c C4000000 		.word	.LC13
 564 0130 D8000000 		.word	.LC14
 565 0134 00010000 		.word	.LC15
 566 0138 10010000 		.word	.LC16
 567 013c 24010000 		.word	.LC17
 568 0140 38010000 		.word	.LC18
 569 0144 4C010000 		.word	.LC19
 570 0148 00000000 		.word	.LANCHOR2
 571              		.cfi_endproc
 572              	.LFE122:
 573              		.size	cmd_can_commvalues, .-cmd_can_commvalues
 574              		.global	can_rxstate
 575              		.global	can_txstate
 576 014c AFF30080 		.section	.bss.can_rxstate,"aw",%nobits
 577              		.set	.LANCHOR3,. + 0
 578              		.type	can_rxstate, %object
 579              		.size	can_rxstate, 1
 580              	can_rxstate:
 581 0000 00       		.space	1
 582              		.section	.bss.id,"aw",%nobits
 583              		.align	1
 584              		.set	.LANCHOR1,. + 0
 585              		.type	id, %object
 586              		.size	id, 2
 587              	id:
 588 0000 0000     		.space	2
 589              		.section	.bss.txmsg,"aw",%nobits
 590              		.align	2
 591              		.set	.LANCHOR4,. + 0
 592              		.type	txmsg, %object
 593              		.size	txmsg, 16
 594              	txmsg:
 595 0000 00000000 		.space	16
 595      00000000 
 595      00000000 
 595      00000000 
 596              		.section	.bss.can_txstate,"aw",%nobits
 597              		.type	can_txstate, %object
 598              		.size	can_txstate, 1
 599              	can_txstate:
 600 0000 00       		.space	1
 601              		.section	.bss.can_tx_wa,"aw",%nobits
 602              		.align	3
 603              		.set	.LANCHOR6,. + 0
 604              		.type	can_tx_wa, %object
 605              		.size	can_tx_wa, 464
 606              	can_tx_wa:
 607 0000 00000000 		.space	464
 607      00000000 
 607      00000000 
 607      00000000 
 607      00000000 
 608              		.section	.rodata.str1.4,"aMS",%progbits,1
 609              		.align	2
 610              	.LC0:
ARM GAS  C:\Users\DNIEL~1\AppData\Local\Temp\cc3Fm2Fs.s 			page 12


 611 0000 72656365 		.ascii	"receiver\000"
 611      69766572 
 611      00
 612 0009 000000   		.space	3
 613              	.LC1:
 614 000c 7472616E 		.ascii	"transmitter\000"
 614      736D6974 
 614      74657200 
 615              	.LC2:
 616 0018 1B6300   		.ascii	"\033c\000"
 617 001b 00       		.space	1
 618              	.LC3:
 619 001c 1B5B324A 		.ascii	"\033[2J\000"
 619      00
 620 0021 000000   		.space	3
 621              	.LC4:
 622 0024 1B5B2564 		.ascii	"\033[%d;%dH\000"
 622      3B256448 
 622      00
 623 002d 000000   		.space	3
 624              	.LC5:
 625 0030 2D2D2D2D 		.ascii	"-------- CAN BUS Receive --------\015\012\000"
 625      2D2D2D2D 
 625      2043414E 
 625      20425553 
 625      20526563 
 626              	.LC6:
 627 0054 52582E45 		.ascii	"RX.EID : %x \015\012\000"
 627      4944203A 
 627      20257820 
 627      0D0A00
 628 0063 00       		.space	1
 629              	.LC7:
 630 0064 6964203A 		.ascii	"id : %x \015\012\000"
 630      20257820 
 630      0D0A00
 631 006f 00       		.space	1
 632              	.LC8:
 633 0070 6D657373 		.ascii	"messages : %x \015\012\000"
 633      61676573 
 633      203A2025 
 633      78200D0A 
 633      00
 634 0081 000000   		.space	3
 635              	.LC9:
 636 0084 0D0A00   		.ascii	"\015\012\000"
 637 0087 00       		.space	1
 638              	.LC10:
 639 0088 52582E44 		.ascii	"RX.DATA1 : %d \015\012\000"
 639      41544131 
 639      203A2025 
 639      64200D0A 
 639      00
 640 0099 000000   		.space	3
 641              	.LC11:
 642 009c 52582E44 		.ascii	"RX.DATA2 : %d \015\012\000"
 642      41544132 
ARM GAS  C:\Users\DNIEL~1\AppData\Local\Temp\cc3Fm2Fs.s 			page 13


 642      203A2025 
 642      64200D0A 
 642      00
 643 00ad 000000   		.space	3
 644              	.LC12:
 645 00b0 52582E44 		.ascii	"RX.DATA3 : %d \015\012\000"
 645      41544133 
 645      203A2025 
 645      64200D0A 
 645      00
 646 00c1 000000   		.space	3
 647              	.LC13:
 648 00c4 52582E44 		.ascii	"RX.DATA4 : %d \015\012\000"
 648      41544134 
 648      203A2025 
 648      64200D0A 
 648      00
 649 00d5 000000   		.space	3
 650              	.LC14:
 651 00d8 2D2D2D2D 		.ascii	"-------- CAN BUS Transmit --------\015\012\000"
 651      2D2D2D2D 
 651      2043414E 
 651      20425553 
 651      20547261 
 652 00fd 000000   		.space	3
 653              	.LC15:
 654 0100 54582E45 		.ascii	"TX.EID : %x \015\012\000"
 654      4944203A 
 654      20257820 
 654      0D0A00
 655 010f 00       		.space	1
 656              	.LC16:
 657 0110 54582E44 		.ascii	"TX.DATA1 : %d \015\012\000"
 657      41544131 
 657      203A2025 
 657      64200D0A 
 657      00
 658 0121 000000   		.space	3
 659              	.LC17:
 660 0124 54582E44 		.ascii	"TX.DATA2 : %d \015\012\000"
 660      41544132 
 660      203A2025 
 660      64200D0A 
 660      00
 661 0135 000000   		.space	3
 662              	.LC18:
 663 0138 54582E44 		.ascii	"TX.DATA3 : %d \015\012\000"
 663      41544133 
 663      203A2025 
 663      64200D0A 
 663      00
 664 0149 000000   		.space	3
 665              	.LC19:
 666 014c 54582E44 		.ascii	"TX.DATA4 : %d \015\012\000"
 666      41544134 
 666      203A2025 
 666      64200D0A 
ARM GAS  C:\Users\DNIEL~1\AppData\Local\Temp\cc3Fm2Fs.s 			page 14


 666      00
 667 015d 000000   		.section	.bss.messages,"aw",%nobits
 668              		.align	1
 669              		.set	.LANCHOR2,. + 0
 670              		.type	messages, %object
 671              		.size	messages, 2
 672              	messages:
 673 0000 0000     		.space	2
 674              		.section	.bss.rxmsg,"aw",%nobits
 675              		.align	2
 676              		.set	.LANCHOR0,. + 0
 677              		.type	rxmsg, %object
 678              		.size	rxmsg, 20
 679              	rxmsg:
 680 0000 00000000 		.space	20
 680      00000000 
 680      00000000 
 680      00000000 
 680      00000000 
 681              		.section	.bss.can_rx_wa,"aw",%nobits
 682              		.align	3
 683              		.set	.LANCHOR7,. + 0
 684              		.type	can_rx_wa, %object
 685              		.size	can_rx_wa, 464
 686              	can_rx_wa:
 687 0000 00000000 		.space	464
 687      00000000 
 687      00000000 
 687      00000000 
 687      00000000 
 688              		.section	.rodata.cancfg,"a",%progbits
 689              		.align	2
 690              		.set	.LANCHOR5,. + 0
 691              		.type	cancfg, %object
 692              		.size	cancfg, 8
 693              	cancfg:
 694 0000 40000000 		.word	64
 695 0004 06001800 		.word	1572870
 696              		.text
 697              	.Letext0:
 698              		.section	.debug_loc,"",%progbits
 699              	.Ldebug_loc0:
 700              	.LLST0:
 701 0000 00000000 		.4byte	.LFB118
 702 0004 02000000 		.4byte	.LCFI0
 703 0008 0200     		.2byte	0x2
 704 000a 7D       		.byte	0x7d
 705 000b 00       		.sleb128 0
 706 000c 02000000 		.4byte	.LCFI0
 707 0010 04000000 		.4byte	.LCFI1
 708 0014 0200     		.2byte	0x2
 709 0016 7D       		.byte	0x7d
 710 0017 0C       		.sleb128 12
 711 0018 04000000 		.4byte	.LCFI1
 712 001c 06000000 		.4byte	.LCFI2
 713 0020 0200     		.2byte	0x2
 714 0022 7D       		.byte	0x7d
ARM GAS  C:\Users\DNIEL~1\AppData\Local\Temp\cc3Fm2Fs.s 			page 15


 715 0023 10       		.sleb128 16
 716 0024 06000000 		.4byte	.LCFI2
 717 0028 1E000000 		.4byte	.LFE118
 718 002c 0200     		.2byte	0x2
 719 002e 7D       		.byte	0x7d
 720 002f 18       		.sleb128 24
 721 0030 00000000 		.4byte	0x0
 722 0034 00000000 		.4byte	0x0
 723              	.LLST1:
 724 0038 00000000 		.4byte	.LVL0
 725 003c 13000000 		.4byte	.LVL1-1
 726 0040 0100     		.2byte	0x1
 727 0042 50       		.byte	0x50
 728 0043 00000000 		.4byte	0x0
 729 0047 00000000 		.4byte	0x0
 730              	.LLST2:
 731 004b 00000000 		.4byte	.LFB119
 732 004f 04000000 		.4byte	.LCFI3
 733 0053 0200     		.2byte	0x2
 734 0055 7D       		.byte	0x7d
 735 0056 00       		.sleb128 0
 736 0057 04000000 		.4byte	.LCFI3
 737 005b 14000000 		.4byte	.LCFI4
 738 005f 0200     		.2byte	0x2
 739 0061 7D       		.byte	0x7d
 740 0062 18       		.sleb128 24
 741 0063 14000000 		.4byte	.LCFI4
 742 0067 04010000 		.4byte	.LFE119
 743 006b 0200     		.2byte	0x2
 744 006d 7D       		.byte	0x7d
 745 006e 28       		.sleb128 40
 746 006f 00000000 		.4byte	0x0
 747 0073 00000000 		.4byte	0x0
 748              	.LLST3:
 749 0077 00000000 		.4byte	.LVL2
 750 007b 10000000 		.4byte	.LVL3
 751 007f 0100     		.2byte	0x1
 752 0081 50       		.byte	0x50
 753 0082 00000000 		.4byte	0x0
 754 0086 00000000 		.4byte	0x0
 755              	.LLST4:
 756 008a 64000000 		.4byte	.LVL4
 757 008e D4000000 		.4byte	.LVL5
 758 0092 0200     		.2byte	0x2
 759 0094 30       		.byte	0x30
 760 0095 9F       		.byte	0x9f
 761 0096 00000000 		.4byte	0x0
 762 009a 00000000 		.4byte	0x0
 763              	.LLST5:
 764 009e 00000000 		.4byte	.LFB120
 765 00a2 02000000 		.4byte	.LCFI5
 766 00a6 0200     		.2byte	0x2
 767 00a8 7D       		.byte	0x7d
 768 00a9 00       		.sleb128 0
 769 00aa 02000000 		.4byte	.LCFI5
 770 00ae 74000000 		.4byte	.LFE120
 771 00b2 0200     		.2byte	0x2
ARM GAS  C:\Users\DNIEL~1\AppData\Local\Temp\cc3Fm2Fs.s 			page 16


 772 00b4 7D       		.byte	0x7d
 773 00b5 10       		.sleb128 16
 774 00b6 00000000 		.4byte	0x0
 775 00ba 00000000 		.4byte	0x0
 776              	.LLST6:
 777 00be 00000000 		.4byte	.LVL6
 778 00c2 18000000 		.4byte	.LVL7
 779 00c6 0100     		.2byte	0x1
 780 00c8 50       		.byte	0x50
 781 00c9 00000000 		.4byte	0x0
 782 00cd 00000000 		.4byte	0x0
 783              	.LLST7:
 784 00d1 18000000 		.4byte	.LVL7
 785 00d5 4C000000 		.4byte	.LVL8
 786 00d9 0200     		.2byte	0x2
 787 00db 30       		.byte	0x30
 788 00dc 9F       		.byte	0x9f
 789 00dd 4C000000 		.4byte	.LVL8
 790 00e1 5E000000 		.4byte	.LVL9
 791 00e5 0200     		.2byte	0x2
 792 00e7 31       		.byte	0x31
 793 00e8 9F       		.byte	0x9f
 794 00e9 00000000 		.4byte	0x0
 795 00ed 00000000 		.4byte	0x0
 796              	.LLST8:
 797 00f1 00000000 		.4byte	.LFB121
 798 00f5 02000000 		.4byte	.LCFI6
 799 00f9 0200     		.2byte	0x2
 800 00fb 7D       		.byte	0x7d
 801 00fc 00       		.sleb128 0
 802 00fd 02000000 		.4byte	.LCFI6
 803 0101 1C000000 		.4byte	.LCFI7
 804 0105 0200     		.2byte	0x2
 805 0107 7D       		.byte	0x7d
 806 0108 08       		.sleb128 8
 807 0109 1C000000 		.4byte	.LCFI7
 808 010d 64000000 		.4byte	.LFE121
 809 0111 0200     		.2byte	0x2
 810 0113 7D       		.byte	0x7d
 811 0114 10       		.sleb128 16
 812 0115 00000000 		.4byte	0x0
 813 0119 00000000 		.4byte	0x0
 814              	.LLST9:
 815 011d 00000000 		.4byte	.LFB122
 816 0121 04000000 		.4byte	.LCFI8
 817 0125 0200     		.2byte	0x2
 818 0127 7D       		.byte	0x7d
 819 0128 00       		.sleb128 0
 820 0129 04000000 		.4byte	.LCFI8
 821 012d 4C010000 		.4byte	.LFE122
 822 0131 0200     		.2byte	0x2
 823 0133 7D       		.byte	0x7d
 824 0134 18       		.sleb128 24
 825 0135 00000000 		.4byte	0x0
 826 0139 00000000 		.4byte	0x0
 827              	.LLST10:
 828 013d 00000000 		.4byte	.LVL10
ARM GAS  C:\Users\DNIEL~1\AppData\Local\Temp\cc3Fm2Fs.s 			page 17


 829 0141 13000000 		.4byte	.LVL12-1
 830 0145 0100     		.2byte	0x1
 831 0147 50       		.byte	0x50
 832 0148 13000000 		.4byte	.LVL12-1
 833 014c 4C010000 		.4byte	.LFE122
 834 0150 0100     		.2byte	0x1
 835 0152 54       		.byte	0x54
 836 0153 00000000 		.4byte	0x0
 837 0157 00000000 		.4byte	0x0
 838              	.LLST11:
 839 015b 00000000 		.4byte	.LVL10
 840 015f 06000000 		.4byte	.LVL11
 841 0163 0100     		.2byte	0x1
 842 0165 51       		.byte	0x51
 843 0166 00000000 		.4byte	0x0
 844 016a 00000000 		.4byte	0x0
 845              	.LLST12:
 846 016e 00000000 		.4byte	.LVL10
 847 0172 13000000 		.4byte	.LVL12-1
 848 0176 0100     		.2byte	0x1
 849 0178 52       		.byte	0x52
 850 0179 00000000 		.4byte	0x0
 851 017d 00000000 		.4byte	0x0
 852              		.file 3 "c:\\program files (x86)\\codesourcery\\sourcery g++ lite\\bin\\../lib/gcc/arm-none-eabi/4
 853              		.file 4 "c:\\program files (x86)\\codesourcery\\sourcery g++ lite\\bin\\../lib/gcc/arm-none-eabi/4
 854              		.file 5 "../../../Chibios/os/ports/GCC/ARMCMx/chtypes.h"
 855              		.file 6 "../../../Chibios/os/kernel/include/chlists.h"
 856              		.file 7 "../../../Chibios/os/kernel/include/chthreads.h"
 857              		.file 8 "../../../Chibios/os/ports/GCC/ARMCMx/chcore_v7m.h"
 858              		.file 9 "../../../Chibios/os/kernel/include/chschd.h"
 859              		.file 10 "../../../Chibios/os/kernel/include/chsem.h"
 860              		.file 11 "../../../Chibios/os/kernel/include/chmtx.h"
 861              		.file 12 "../../../Chibios/os/kernel/include/chevents.h"
 862              		.file 13 "../../../Chibios/os/kernel/include/chstreams.h"
 863              		.file 14 "../../../Chibios/os/hal/platforms/STM32F4xx/stm32f4xx.h"
 864              		.file 15 "../../../Chibios/os/hal/include/io_channel.h"
 865              		.file 16 "../../../Chibios/os/hal/include/can.h"
 866              		.file 17 "../../../Chibios/os/hal/platforms/STM32/can_lld.h"
 867              		.file 18 "c:\\program files (x86)\\codesourcery\\sourcery g++ lite\\bin\\../lib/gcc/arm-none-eabi/
 868              		.file 19 "<built-in>"
 869              		.file 20 "../../../Chibios/os/ports/common/ARMCMx/CMSIS/include/core_cm4.h"
 870              		.section	.debug_info
 871 0000 0E100000 		.4byte	0x100e
 872 0004 0200     		.2byte	0x2
 873 0006 00000000 		.4byte	.Ldebug_abbrev0
 874 000a 04       		.byte	0x4
 875 000b 01       		.uleb128 0x1
 876 000c 7B060000 		.4byte	.LASF173
 877 0010 01       		.byte	0x1
 878 0011 D6050000 		.4byte	.LASF174
 879 0015 D2000000 		.4byte	.LASF175
 880 0019 00000000 		.4byte	0x0
 881 001d 00000000 		.4byte	0x0
 882 0021 00000000 		.4byte	.Ldebug_ranges0+0x0
 883 0025 00000000 		.4byte	.Ldebug_line0
 884 0029 02       		.uleb128 0x2
 885 002a 19000000 		.4byte	.LASF10
ARM GAS  C:\Users\DNIEL~1\AppData\Local\Temp\cc3Fm2Fs.s 			page 18


 886 002e 03       		.byte	0x3
 887 002f D3       		.byte	0xd3
 888 0030 34000000 		.4byte	0x34
 889 0034 03       		.uleb128 0x3
 890 0035 04       		.byte	0x4
 891 0036 07       		.byte	0x7
 892 0037 20020000 		.4byte	.LASF0
 893 003b 03       		.uleb128 0x3
 894 003c 01       		.byte	0x1
 895 003d 06       		.byte	0x6
 896 003e C6000000 		.4byte	.LASF1
 897 0042 03       		.uleb128 0x3
 898 0043 01       		.byte	0x1
 899 0044 08       		.byte	0x8
 900 0045 61040000 		.4byte	.LASF2
 901 0049 03       		.uleb128 0x3
 902 004a 02       		.byte	0x2
 903 004b 05       		.byte	0x5
 904 004c B0040000 		.4byte	.LASF3
 905 0050 03       		.uleb128 0x3
 906 0051 02       		.byte	0x2
 907 0052 07       		.byte	0x7
 908 0053 77020000 		.4byte	.LASF4
 909 0057 04       		.uleb128 0x4
 910 0058 04       		.byte	0x4
 911 0059 05       		.byte	0x5
 912 005a 696E7400 		.ascii	"int\000"
 913 005e 03       		.uleb128 0x3
 914 005f 08       		.byte	0x8
 915 0060 05       		.byte	0x5
 916 0061 B8000000 		.4byte	.LASF5
 917 0065 03       		.uleb128 0x3
 918 0066 08       		.byte	0x8
 919 0067 07       		.byte	0x7
 920 0068 6F000000 		.4byte	.LASF6
 921 006c 03       		.uleb128 0x3
 922 006d 04       		.byte	0x4
 923 006e 05       		.byte	0x5
 924 006f 39010000 		.4byte	.LASF7
 925 0073 05       		.uleb128 0x5
 926 0074 04       		.byte	0x4
 927 0075 03       		.uleb128 0x3
 928 0076 04       		.byte	0x4
 929 0077 07       		.byte	0x7
 930 0078 5C050000 		.4byte	.LASF8
 931 007c 06       		.uleb128 0x6
 932 007d 04       		.byte	0x4
 933 007e 82000000 		.4byte	0x82
 934 0082 03       		.uleb128 0x3
 935 0083 01       		.byte	0x1
 936 0084 08       		.byte	0x8
 937 0085 73050000 		.4byte	.LASF9
 938 0089 06       		.uleb128 0x6
 939 008a 04       		.byte	0x4
 940 008b 8F000000 		.4byte	0x8f
 941 008f 07       		.uleb128 0x7
 942 0090 82000000 		.4byte	0x82
ARM GAS  C:\Users\DNIEL~1\AppData\Local\Temp\cc3Fm2Fs.s 			page 19


 943 0094 02       		.uleb128 0x2
 944 0095 44060000 		.4byte	.LASF11
 945 0099 04       		.byte	0x4
 946 009a 2A       		.byte	0x2a
 947 009b 42000000 		.4byte	0x42
 948 009f 02       		.uleb128 0x2
 949 00a0 87010000 		.4byte	.LASF12
 950 00a4 04       		.byte	0x4
 951 00a5 36       		.byte	0x36
 952 00a6 50000000 		.4byte	0x50
 953 00aa 02       		.uleb128 0x2
 954 00ab 59040000 		.4byte	.LASF13
 955 00af 04       		.byte	0x4
 956 00b0 4F       		.byte	0x4f
 957 00b1 6C000000 		.4byte	0x6c
 958 00b5 02       		.uleb128 0x2
 959 00b6 3D050000 		.4byte	.LASF14
 960 00ba 04       		.byte	0x4
 961 00bb 50       		.byte	0x50
 962 00bc 75000000 		.4byte	0x75
 963 00c0 02       		.uleb128 0x2
 964 00c1 32000000 		.4byte	.LASF15
 965 00c5 04       		.byte	0x4
 966 00c6 78       		.byte	0x78
 967 00c7 65000000 		.4byte	0x65
 968 00cb 03       		.uleb128 0x3
 969 00cc 01       		.byte	0x1
 970 00cd 02       		.byte	0x2
 971 00ce 53040000 		.4byte	.LASF16
 972 00d2 02       		.uleb128 0x2
 973 00d3 BF020000 		.4byte	.LASF17
 974 00d7 05       		.byte	0x5
 975 00d8 2C       		.byte	0x2c
 976 00d9 94000000 		.4byte	0x94
 977 00dd 02       		.uleb128 0x2
 978 00de 42010000 		.4byte	.LASF18
 979 00e2 05       		.byte	0x5
 980 00e3 2D       		.byte	0x2d
 981 00e4 94000000 		.4byte	0x94
 982 00e8 02       		.uleb128 0x2
 983 00e9 FF030000 		.4byte	.LASF19
 984 00ed 05       		.byte	0x5
 985 00ee 2E       		.byte	0x2e
 986 00ef 94000000 		.4byte	0x94
 987 00f3 02       		.uleb128 0x2
 988 00f4 24010000 		.4byte	.LASF20
 989 00f8 05       		.byte	0x5
 990 00f9 2F       		.byte	0x2f
 991 00fa 94000000 		.4byte	0x94
 992 00fe 02       		.uleb128 0x2
 993 00ff 40040000 		.4byte	.LASF21
 994 0103 05       		.byte	0x5
 995 0104 30       		.byte	0x30
 996 0105 B5000000 		.4byte	0xb5
 997 0109 02       		.uleb128 0x2
 998 010a AA020000 		.4byte	.LASF22
 999 010e 05       		.byte	0x5
ARM GAS  C:\Users\DNIEL~1\AppData\Local\Temp\cc3Fm2Fs.s 			page 20


 1000 010f 31       		.byte	0x31
 1001 0110 AA000000 		.4byte	0xaa
 1002 0114 02       		.uleb128 0x2
 1003 0115 E3020000 		.4byte	.LASF23
 1004 0119 05       		.byte	0x5
 1005 011a 33       		.byte	0x33
 1006 011b B5000000 		.4byte	0xb5
 1007 011f 02       		.uleb128 0x2
 1008 0120 EF050000 		.4byte	.LASF24
 1009 0124 05       		.byte	0x5
 1010 0125 34       		.byte	0x34
 1011 0126 B5000000 		.4byte	0xb5
 1012 012a 02       		.uleb128 0x2
 1013 012b 95050000 		.4byte	.LASF25
 1014 012f 05       		.byte	0x5
 1015 0130 35       		.byte	0x35
 1016 0131 B5000000 		.4byte	0xb5
 1017 0135 02       		.uleb128 0x2
 1018 0136 1A020000 		.4byte	.LASF26
 1019 013a 05       		.byte	0x5
 1020 013b 36       		.byte	0x36
 1021 013c AA000000 		.4byte	0xaa
 1022 0140 02       		.uleb128 0x2
 1023 0141 E7010000 		.4byte	.LASF27
 1024 0145 06       		.byte	0x6
 1025 0146 2A       		.byte	0x2a
 1026 0147 4B010000 		.4byte	0x14b
 1027 014b 08       		.uleb128 0x8
 1028 014c E7010000 		.4byte	.LASF27
 1029 0150 48       		.byte	0x48
 1030 0151 07       		.byte	0x7
 1031 0152 5E       		.byte	0x5e
 1032 0153 70020000 		.4byte	0x270
 1033 0157 09       		.uleb128 0x9
 1034 0158 DA040000 		.4byte	.LASF28
 1035 015c 07       		.byte	0x7
 1036 015d 5F       		.byte	0x5f
 1037 015e 95020000 		.4byte	0x295
 1038 0162 02       		.byte	0x2
 1039 0163 23       		.byte	0x23
 1040 0164 00       		.uleb128 0x0
 1041 0165 09       		.uleb128 0x9
 1042 0166 39040000 		.4byte	.LASF29
 1043 016a 07       		.byte	0x7
 1044 016b 61       		.byte	0x61
 1045 016c 95020000 		.4byte	0x295
 1046 0170 02       		.byte	0x2
 1047 0171 23       		.byte	0x23
 1048 0172 04       		.uleb128 0x4
 1049 0173 09       		.uleb128 0x9
 1050 0174 A5000000 		.4byte	.LASF30
 1051 0178 07       		.byte	0x7
 1052 0179 63       		.byte	0x63
 1053 017a FE000000 		.4byte	0xfe
 1054 017e 02       		.byte	0x2
 1055 017f 23       		.byte	0x23
 1056 0180 08       		.uleb128 0x8
ARM GAS  C:\Users\DNIEL~1\AppData\Local\Temp\cc3Fm2Fs.s 			page 21


 1057 0181 09       		.uleb128 0x9
 1058 0182 C7060000 		.4byte	.LASF31
 1059 0186 07       		.byte	0x7
 1060 0187 64       		.byte	0x64
 1061 0188 6C030000 		.4byte	0x36c
 1062 018c 02       		.byte	0x2
 1063 018d 23       		.byte	0x23
 1064 018e 0C       		.uleb128 0xc
 1065 018f 09       		.uleb128 0x9
 1066 0190 A5010000 		.4byte	.LASF32
 1067 0194 07       		.byte	0x7
 1068 0195 66       		.byte	0x66
 1069 0196 95020000 		.4byte	0x295
 1070 019a 02       		.byte	0x2
 1071 019b 23       		.byte	0x23
 1072 019c 10       		.uleb128 0x10
 1073 019d 09       		.uleb128 0x9
 1074 019e 80030000 		.4byte	.LASF33
 1075 01a2 07       		.byte	0x7
 1076 01a3 67       		.byte	0x67
 1077 01a4 95020000 		.4byte	0x295
 1078 01a8 02       		.byte	0x2
 1079 01a9 23       		.byte	0x23
 1080 01aa 14       		.uleb128 0x14
 1081 01ab 09       		.uleb128 0x9
 1082 01ac 07060000 		.4byte	.LASF34
 1083 01b0 07       		.byte	0x7
 1084 01b1 6E       		.byte	0x6e
 1085 01b2 89000000 		.4byte	0x89
 1086 01b6 02       		.byte	0x2
 1087 01b7 23       		.byte	0x23
 1088 01b8 18       		.uleb128 0x18
 1089 01b9 09       		.uleb128 0x9
 1090 01ba BA040000 		.4byte	.LASF35
 1091 01be 07       		.byte	0x7
 1092 01bf 79       		.byte	0x79
 1093 01c0 DD000000 		.4byte	0xdd
 1094 01c4 02       		.byte	0x2
 1095 01c5 23       		.byte	0x23
 1096 01c6 1C       		.uleb128 0x1c
 1097 01c7 09       		.uleb128 0x9
 1098 01c8 F9040000 		.4byte	.LASF36
 1099 01cc 07       		.byte	0x7
 1100 01cd 7D       		.byte	0x7d
 1101 01ce D2000000 		.4byte	0xd2
 1102 01d2 02       		.byte	0x2
 1103 01d3 23       		.byte	0x23
 1104 01d4 1D       		.uleb128 0x1d
 1105 01d5 09       		.uleb128 0x9
 1106 01d6 6B010000 		.4byte	.LASF37
 1107 01da 07       		.byte	0x7
 1108 01db 82       		.byte	0x82
 1109 01dc E8000000 		.4byte	0xe8
 1110 01e0 02       		.byte	0x2
 1111 01e1 23       		.byte	0x23
 1112 01e2 1E       		.uleb128 0x1e
 1113 01e3 09       		.uleb128 0x9
ARM GAS  C:\Users\DNIEL~1\AppData\Local\Temp\cc3Fm2Fs.s 			page 22


 1114 01e4 C2040000 		.4byte	.LASF38
 1115 01e8 07       		.byte	0x7
 1116 01e9 88       		.byte	0x88
 1117 01ea F3000000 		.4byte	0xf3
 1118 01ee 02       		.byte	0x2
 1119 01ef 23       		.byte	0x23
 1120 01f0 1F       		.uleb128 0x1f
 1121 01f1 09       		.uleb128 0x9
 1122 01f2 90010000 		.4byte	.LASF39
 1123 01f6 07       		.byte	0x7
 1124 01f7 8F       		.byte	0x8f
 1125 01f8 94030000 		.4byte	0x394
 1126 01fc 02       		.byte	0x2
 1127 01fd 23       		.byte	0x23
 1128 01fe 20       		.uleb128 0x20
 1129 01ff 0A       		.uleb128 0xa
 1130 0200 705F7500 		.ascii	"p_u\000"
 1131 0204 07       		.byte	0x7
 1132 0205 B4       		.byte	0xb4
 1133 0206 F9040000 		.4byte	0x4f9
 1134 020a 02       		.byte	0x2
 1135 020b 23       		.byte	0x23
 1136 020c 24       		.uleb128 0x24
 1137 020d 09       		.uleb128 0x9
 1138 020e CD060000 		.4byte	.LASF40
 1139 0212 07       		.byte	0x7
 1140 0213 B9       		.byte	0xb9
 1141 0214 BD020000 		.4byte	0x2bd
 1142 0218 02       		.byte	0x2
 1143 0219 23       		.byte	0x23
 1144 021a 28       		.uleb128 0x28
 1145 021b 09       		.uleb128 0x9
 1146 021c 4A020000 		.4byte	.LASF41
 1147 0220 07       		.byte	0x7
 1148 0221 BF       		.byte	0xbf
 1149 0222 9B020000 		.4byte	0x29b
 1150 0226 02       		.byte	0x2
 1151 0227 23       		.byte	0x23
 1152 0228 2C       		.uleb128 0x2c
 1153 0229 09       		.uleb128 0x9
 1154 022a A3060000 		.4byte	.LASF42
 1155 022e 07       		.byte	0x7
 1156 022f C3       		.byte	0xc3
 1157 0230 09010000 		.4byte	0x109
 1158 0234 02       		.byte	0x2
 1159 0235 23       		.byte	0x23
 1160 0236 34       		.uleb128 0x34
 1161 0237 09       		.uleb128 0x9
 1162 0238 28050000 		.4byte	.LASF43
 1163 023c 07       		.byte	0x7
 1164 023d C9       		.byte	0xc9
 1165 023e 14010000 		.4byte	0x114
 1166 0242 02       		.byte	0x2
 1167 0243 23       		.byte	0x23
 1168 0244 38       		.uleb128 0x38
 1169 0245 09       		.uleb128 0x9
 1170 0246 A6040000 		.4byte	.LASF44
ARM GAS  C:\Users\DNIEL~1\AppData\Local\Temp\cc3Fm2Fs.s 			page 23


 1171 024a 07       		.byte	0x7
 1172 024b D0       		.byte	0xd0
 1173 024c 2E050000 		.4byte	0x52e
 1174 0250 02       		.byte	0x2
 1175 0251 23       		.byte	0x23
 1176 0252 3C       		.uleb128 0x3c
 1177 0253 09       		.uleb128 0x9
 1178 0254 9F050000 		.4byte	.LASF45
 1179 0258 07       		.byte	0x7
 1180 0259 D4       		.byte	0xd4
 1181 025a FE000000 		.4byte	0xfe
 1182 025e 02       		.byte	0x2
 1183 025f 23       		.byte	0x23
 1184 0260 40       		.uleb128 0x40
 1185 0261 09       		.uleb128 0x9
 1186 0262 16010000 		.4byte	.LASF46
 1187 0266 07       		.byte	0x7
 1188 0267 DA       		.byte	0xda
 1189 0268 73000000 		.4byte	0x73
 1190 026c 02       		.byte	0x2
 1191 026d 23       		.byte	0x23
 1192 026e 44       		.uleb128 0x44
 1193 026f 00       		.byte	0x0
 1194 0270 0B       		.uleb128 0xb
 1195 0271 08       		.byte	0x8
 1196 0272 06       		.byte	0x6
 1197 0273 61       		.byte	0x61
 1198 0274 95020000 		.4byte	0x295
 1199 0278 09       		.uleb128 0x9
 1200 0279 DA040000 		.4byte	.LASF28
 1201 027d 06       		.byte	0x6
 1202 027e 62       		.byte	0x62
 1203 027f 95020000 		.4byte	0x295
 1204 0283 02       		.byte	0x2
 1205 0284 23       		.byte	0x23
 1206 0285 00       		.uleb128 0x0
 1207 0286 09       		.uleb128 0x9
 1208 0287 39040000 		.4byte	.LASF29
 1209 028b 06       		.byte	0x6
 1210 028c 64       		.byte	0x64
 1211 028d 95020000 		.4byte	0x295
 1212 0291 02       		.byte	0x2
 1213 0292 23       		.byte	0x23
 1214 0293 04       		.uleb128 0x4
 1215 0294 00       		.byte	0x0
 1216 0295 06       		.uleb128 0x6
 1217 0296 04       		.byte	0x4
 1218 0297 40010000 		.4byte	0x140
 1219 029b 02       		.uleb128 0x2
 1220 029c 8E030000 		.4byte	.LASF47
 1221 02a0 06       		.byte	0x6
 1222 02a1 66       		.byte	0x66
 1223 02a2 70020000 		.4byte	0x270
 1224 02a6 0B       		.uleb128 0xb
 1225 02a7 04       		.byte	0x4
 1226 02a8 06       		.byte	0x6
 1227 02a9 6B       		.byte	0x6b
ARM GAS  C:\Users\DNIEL~1\AppData\Local\Temp\cc3Fm2Fs.s 			page 24


 1228 02aa BD020000 		.4byte	0x2bd
 1229 02ae 09       		.uleb128 0x9
 1230 02af DA040000 		.4byte	.LASF28
 1231 02b3 06       		.byte	0x6
 1232 02b4 6D       		.byte	0x6d
 1233 02b5 95020000 		.4byte	0x295
 1234 02b9 02       		.byte	0x2
 1235 02ba 23       		.byte	0x23
 1236 02bb 00       		.uleb128 0x0
 1237 02bc 00       		.byte	0x0
 1238 02bd 02       		.uleb128 0x2
 1239 02be C7020000 		.4byte	.LASF48
 1240 02c2 06       		.byte	0x6
 1241 02c3 70       		.byte	0x70
 1242 02c4 A6020000 		.4byte	0x2a6
 1243 02c8 02       		.uleb128 0x2
 1244 02c9 D9010000 		.4byte	.LASF49
 1245 02cd 08       		.byte	0x8
 1246 02ce E5       		.byte	0xe5
 1247 02cf 73000000 		.4byte	0x73
 1248 02d3 02       		.uleb128 0x2
 1249 02d4 06030000 		.4byte	.LASF50
 1250 02d8 08       		.byte	0x8
 1251 02d9 EB       		.byte	0xeb
 1252 02da C0000000 		.4byte	0xc0
 1253 02de 0C       		.uleb128 0xc
 1254 02df CF050000 		.4byte	.LASF51
 1255 02e3 24       		.byte	0x24
 1256 02e4 08       		.byte	0x8
 1257 02e5 0C01     		.2byte	0x10c
 1258 02e7 6C030000 		.4byte	0x36c
 1259 02eb 0D       		.uleb128 0xd
 1260 02ec 723400   		.ascii	"r4\000"
 1261 02ef 08       		.byte	0x8
 1262 02f0 1F01     		.2byte	0x11f
 1263 02f2 C8020000 		.4byte	0x2c8
 1264 02f6 02       		.byte	0x2
 1265 02f7 23       		.byte	0x23
 1266 02f8 00       		.uleb128 0x0
 1267 02f9 0D       		.uleb128 0xd
 1268 02fa 723500   		.ascii	"r5\000"
 1269 02fd 08       		.byte	0x8
 1270 02fe 2001     		.2byte	0x120
 1271 0300 C8020000 		.4byte	0x2c8
 1272 0304 02       		.byte	0x2
 1273 0305 23       		.byte	0x23
 1274 0306 04       		.uleb128 0x4
 1275 0307 0D       		.uleb128 0xd
 1276 0308 723600   		.ascii	"r6\000"
 1277 030b 08       		.byte	0x8
 1278 030c 2101     		.2byte	0x121
 1279 030e C8020000 		.4byte	0x2c8
 1280 0312 02       		.byte	0x2
 1281 0313 23       		.byte	0x23
 1282 0314 08       		.uleb128 0x8
 1283 0315 0D       		.uleb128 0xd
 1284 0316 723700   		.ascii	"r7\000"
ARM GAS  C:\Users\DNIEL~1\AppData\Local\Temp\cc3Fm2Fs.s 			page 25


 1285 0319 08       		.byte	0x8
 1286 031a 2201     		.2byte	0x122
 1287 031c C8020000 		.4byte	0x2c8
 1288 0320 02       		.byte	0x2
 1289 0321 23       		.byte	0x23
 1290 0322 0C       		.uleb128 0xc
 1291 0323 0D       		.uleb128 0xd
 1292 0324 723800   		.ascii	"r8\000"
 1293 0327 08       		.byte	0x8
 1294 0328 2301     		.2byte	0x123
 1295 032a C8020000 		.4byte	0x2c8
 1296 032e 02       		.byte	0x2
 1297 032f 23       		.byte	0x23
 1298 0330 10       		.uleb128 0x10
 1299 0331 0D       		.uleb128 0xd
 1300 0332 723900   		.ascii	"r9\000"
 1301 0335 08       		.byte	0x8
 1302 0336 2401     		.2byte	0x124
 1303 0338 C8020000 		.4byte	0x2c8
 1304 033c 02       		.byte	0x2
 1305 033d 23       		.byte	0x23
 1306 033e 14       		.uleb128 0x14
 1307 033f 0D       		.uleb128 0xd
 1308 0340 72313000 		.ascii	"r10\000"
 1309 0344 08       		.byte	0x8
 1310 0345 2501     		.2byte	0x125
 1311 0347 C8020000 		.4byte	0x2c8
 1312 034b 02       		.byte	0x2
 1313 034c 23       		.byte	0x23
 1314 034d 18       		.uleb128 0x18
 1315 034e 0D       		.uleb128 0xd
 1316 034f 72313100 		.ascii	"r11\000"
 1317 0353 08       		.byte	0x8
 1318 0354 2601     		.2byte	0x126
 1319 0356 C8020000 		.4byte	0x2c8
 1320 035a 02       		.byte	0x2
 1321 035b 23       		.byte	0x23
 1322 035c 1C       		.uleb128 0x1c
 1323 035d 0D       		.uleb128 0xd
 1324 035e 6C7200   		.ascii	"lr\000"
 1325 0361 08       		.byte	0x8
 1326 0362 2701     		.2byte	0x127
 1327 0364 C8020000 		.4byte	0x2c8
 1328 0368 02       		.byte	0x2
 1329 0369 23       		.byte	0x23
 1330 036a 20       		.uleb128 0x20
 1331 036b 00       		.byte	0x0
 1332 036c 0C       		.uleb128 0xc
 1333 036d C2050000 		.4byte	.LASF52
 1334 0371 04       		.byte	0x4
 1335 0372 08       		.byte	0x8
 1336 0373 3101     		.2byte	0x131
 1337 0375 89030000 		.4byte	0x389
 1338 0379 0D       		.uleb128 0xd
 1339 037a 72313300 		.ascii	"r13\000"
 1340 037e 08       		.byte	0x8
 1341 037f 3201     		.2byte	0x132
ARM GAS  C:\Users\DNIEL~1\AppData\Local\Temp\cc3Fm2Fs.s 			page 26


 1342 0381 89030000 		.4byte	0x389
 1343 0385 02       		.byte	0x2
 1344 0386 23       		.byte	0x23
 1345 0387 00       		.uleb128 0x0
 1346 0388 00       		.byte	0x0
 1347 0389 06       		.uleb128 0x6
 1348 038a 04       		.byte	0x4
 1349 038b DE020000 		.4byte	0x2de
 1350 038f 0E       		.uleb128 0xe
 1351 0390 B5000000 		.4byte	0xb5
 1352 0394 0E       		.uleb128 0xe
 1353 0395 2A010000 		.4byte	0x12a
 1354 0399 0B       		.uleb128 0xb
 1355 039a 1C       		.byte	0x1c
 1356 039b 09       		.byte	0x9
 1357 039c 5E       		.byte	0x5e
 1358 039d F6030000 		.4byte	0x3f6
 1359 03a1 09       		.uleb128 0x9
 1360 03a2 46050000 		.4byte	.LASF53
 1361 03a6 09       		.byte	0x9
 1362 03a7 5F       		.byte	0x5f
 1363 03a8 9B020000 		.4byte	0x29b
 1364 03ac 02       		.byte	0x2
 1365 03ad 23       		.byte	0x23
 1366 03ae 00       		.uleb128 0x0
 1367 03af 09       		.uleb128 0x9
 1368 03b0 CC040000 		.4byte	.LASF54
 1369 03b4 09       		.byte	0x9
 1370 03b5 60       		.byte	0x60
 1371 03b6 FE000000 		.4byte	0xfe
 1372 03ba 02       		.byte	0x2
 1373 03bb 23       		.byte	0x23
 1374 03bc 08       		.uleb128 0x8
 1375 03bd 09       		.uleb128 0x9
 1376 03be 88030000 		.4byte	.LASF55
 1377 03c2 09       		.byte	0x9
 1378 03c3 62       		.byte	0x62
 1379 03c4 6C030000 		.4byte	0x36c
 1380 03c8 02       		.byte	0x2
 1381 03c9 23       		.byte	0x23
 1382 03ca 0C       		.uleb128 0xc
 1383 03cb 09       		.uleb128 0x9
 1384 03cc D1010000 		.4byte	.LASF56
 1385 03d0 09       		.byte	0x9
 1386 03d1 65       		.byte	0x65
 1387 03d2 95020000 		.4byte	0x295
 1388 03d6 02       		.byte	0x2
 1389 03d7 23       		.byte	0x23
 1390 03d8 10       		.uleb128 0x10
 1391 03d9 09       		.uleb128 0x9
 1392 03da AA030000 		.4byte	.LASF57
 1393 03de 09       		.byte	0x9
 1394 03df 66       		.byte	0x66
 1395 03e0 95020000 		.4byte	0x295
 1396 03e4 02       		.byte	0x2
 1397 03e5 23       		.byte	0x23
 1398 03e6 14       		.uleb128 0x14
ARM GAS  C:\Users\DNIEL~1\AppData\Local\Temp\cc3Fm2Fs.s 			page 27


 1399 03e7 09       		.uleb128 0x9
 1400 03e8 A0030000 		.4byte	.LASF58
 1401 03ec 09       		.byte	0x9
 1402 03ed 69       		.byte	0x69
 1403 03ee 95020000 		.4byte	0x295
 1404 03f2 02       		.byte	0x2
 1405 03f3 23       		.byte	0x23
 1406 03f4 18       		.uleb128 0x18
 1407 03f5 00       		.byte	0x0
 1408 03f6 02       		.uleb128 0x2
 1409 03f7 16060000 		.4byte	.LASF59
 1410 03fb 09       		.byte	0x9
 1411 03fc 6B       		.byte	0x6b
 1412 03fd 99030000 		.4byte	0x399
 1413 0401 08       		.uleb128 0x8
 1414 0402 E5050000 		.4byte	.LASF60
 1415 0406 0C       		.byte	0xc
 1416 0407 0A       		.byte	0xa
 1417 0408 2C       		.byte	0x2c
 1418 0409 2A040000 		.4byte	0x42a
 1419 040d 09       		.uleb128 0x9
 1420 040e AD010000 		.4byte	.LASF61
 1421 0412 0A       		.byte	0xa
 1422 0413 2D       		.byte	0x2d
 1423 0414 9B020000 		.4byte	0x29b
 1424 0418 02       		.byte	0x2
 1425 0419 23       		.byte	0x23
 1426 041a 00       		.uleb128 0x0
 1427 041b 09       		.uleb128 0x9
 1428 041c 71020000 		.4byte	.LASF62
 1429 0420 0A       		.byte	0xa
 1430 0421 2F       		.byte	0x2f
 1431 0422 35010000 		.4byte	0x135
 1432 0426 02       		.byte	0x2
 1433 0427 23       		.byte	0x23
 1434 0428 08       		.uleb128 0x8
 1435 0429 00       		.byte	0x0
 1436 042a 02       		.uleb128 0x2
 1437 042b E5050000 		.4byte	.LASF60
 1438 042f 0A       		.byte	0xa
 1439 0430 30       		.byte	0x30
 1440 0431 01040000 		.4byte	0x401
 1441 0435 08       		.uleb128 0x8
 1442 0436 EF020000 		.4byte	.LASF63
 1443 043a 10       		.byte	0x10
 1444 043b 0B       		.byte	0xb
 1445 043c 2C       		.byte	0x2c
 1446 043d 6C040000 		.4byte	0x46c
 1447 0441 09       		.uleb128 0x9
 1448 0442 6F040000 		.4byte	.LASF64
 1449 0446 0B       		.byte	0xb
 1450 0447 2D       		.byte	0x2d
 1451 0448 9B020000 		.4byte	0x29b
 1452 044c 02       		.byte	0x2
 1453 044d 23       		.byte	0x23
 1454 044e 00       		.uleb128 0x0
 1455 044f 09       		.uleb128 0x9
ARM GAS  C:\Users\DNIEL~1\AppData\Local\Temp\cc3Fm2Fs.s 			page 28


 1456 0450 BF060000 		.4byte	.LASF65
 1457 0454 0B       		.byte	0xb
 1458 0455 2F       		.byte	0x2f
 1459 0456 95020000 		.4byte	0x295
 1460 045a 02       		.byte	0x2
 1461 045b 23       		.byte	0x23
 1462 045c 08       		.uleb128 0x8
 1463 045d 09       		.uleb128 0x9
 1464 045e 8E050000 		.4byte	.LASF66
 1465 0462 0B       		.byte	0xb
 1466 0463 31       		.byte	0x31
 1467 0464 6C040000 		.4byte	0x46c
 1468 0468 02       		.byte	0x2
 1469 0469 23       		.byte	0x23
 1470 046a 0C       		.uleb128 0xc
 1471 046b 00       		.byte	0x0
 1472 046c 06       		.uleb128 0x6
 1473 046d 04       		.byte	0x4
 1474 046e 35040000 		.4byte	0x435
 1475 0472 02       		.uleb128 0x2
 1476 0473 EF020000 		.4byte	.LASF63
 1477 0477 0B       		.byte	0xb
 1478 0478 33       		.byte	0x33
 1479 0479 35040000 		.4byte	0x435
 1480 047d 02       		.uleb128 0x2
 1481 047e 66060000 		.4byte	.LASF67
 1482 0482 0C       		.byte	0xc
 1483 0483 2C       		.byte	0x2c
 1484 0484 88040000 		.4byte	0x488
 1485 0488 08       		.uleb128 0x8
 1486 0489 66060000 		.4byte	.LASF67
 1487 048d 10       		.byte	0x10
 1488 048e 0C       		.byte	0xc
 1489 048f 31       		.byte	0x31
 1490 0490 CD040000 		.4byte	0x4cd
 1491 0494 09       		.uleb128 0x9
 1492 0495 B0020000 		.4byte	.LASF68
 1493 0499 0C       		.byte	0xc
 1494 049a 32       		.byte	0x32
 1495 049b CD040000 		.4byte	0x4cd
 1496 049f 02       		.byte	0x2
 1497 04a0 23       		.byte	0x23
 1498 04a1 00       		.uleb128 0x0
 1499 04a2 09       		.uleb128 0x9
 1500 04a3 84040000 		.4byte	.LASF69
 1501 04a7 0C       		.byte	0xc
 1502 04a8 35       		.byte	0x35
 1503 04a9 95020000 		.4byte	0x295
 1504 04ad 02       		.byte	0x2
 1505 04ae 23       		.byte	0x23
 1506 04af 04       		.uleb128 0x4
 1507 04b0 09       		.uleb128 0x9
 1508 04b1 B2030000 		.4byte	.LASF70
 1509 04b5 0C       		.byte	0xc
 1510 04b6 37       		.byte	0x37
 1511 04b7 14010000 		.4byte	0x114
 1512 04bb 02       		.byte	0x2
ARM GAS  C:\Users\DNIEL~1\AppData\Local\Temp\cc3Fm2Fs.s 			page 29


 1513 04bc 23       		.byte	0x23
 1514 04bd 08       		.uleb128 0x8
 1515 04be 09       		.uleb128 0x9
 1516 04bf 9D040000 		.4byte	.LASF71
 1517 04c3 0C       		.byte	0xc
 1518 04c4 3A       		.byte	0x3a
 1519 04c5 1F010000 		.4byte	0x11f
 1520 04c9 02       		.byte	0x2
 1521 04ca 23       		.byte	0x23
 1522 04cb 0C       		.uleb128 0xc
 1523 04cc 00       		.byte	0x0
 1524 04cd 06       		.uleb128 0x6
 1525 04ce 04       		.byte	0x4
 1526 04cf 7D040000 		.4byte	0x47d
 1527 04d3 08       		.uleb128 0x8
 1528 04d4 F9010000 		.4byte	.LASF72
 1529 04d8 04       		.byte	0x4
 1530 04d9 0C       		.byte	0xc
 1531 04da 41       		.byte	0x41
 1532 04db EE040000 		.4byte	0x4ee
 1533 04df 09       		.uleb128 0x9
 1534 04e0 0E060000 		.4byte	.LASF73
 1535 04e4 0C       		.byte	0xc
 1536 04e5 42       		.byte	0x42
 1537 04e6 CD040000 		.4byte	0x4cd
 1538 04ea 02       		.byte	0x2
 1539 04eb 23       		.byte	0x23
 1540 04ec 00       		.uleb128 0x0
 1541 04ed 00       		.byte	0x0
 1542 04ee 02       		.uleb128 0x2
 1543 04ef F9010000 		.4byte	.LASF72
 1544 04f3 0C       		.byte	0xc
 1545 04f4 45       		.byte	0x45
 1546 04f5 D3040000 		.4byte	0x4d3
 1547 04f9 0F       		.uleb128 0xf
 1548 04fa 04       		.byte	0x4
 1549 04fb 07       		.byte	0x7
 1550 04fc 96       		.byte	0x96
 1551 04fd 2E050000 		.4byte	0x52e
 1552 0501 10       		.uleb128 0x10
 1553 0502 2B000000 		.4byte	.LASF74
 1554 0506 07       		.byte	0x7
 1555 0507 9D       		.byte	0x9d
 1556 0508 09010000 		.4byte	0x109
 1557 050c 10       		.uleb128 0x10
 1558 050d 95000000 		.4byte	.LASF75
 1559 0511 07       		.byte	0x7
 1560 0512 A4       		.byte	0xa4
 1561 0513 09010000 		.4byte	0x109
 1562 0517 10       		.uleb128 0x10
 1563 0518 74060000 		.4byte	.LASF76
 1564 051c 07       		.byte	0x7
 1565 051d AB       		.byte	0xab
 1566 051e 73000000 		.4byte	0x73
 1567 0522 10       		.uleb128 0x10
 1568 0523 D3040000 		.4byte	.LASF77
 1569 0527 07       		.byte	0x7
ARM GAS  C:\Users\DNIEL~1\AppData\Local\Temp\cc3Fm2Fs.s 			page 30


 1570 0528 B2       		.byte	0xb2
 1571 0529 14010000 		.4byte	0x114
 1572 052d 00       		.byte	0x0
 1573 052e 06       		.uleb128 0x6
 1574 052f 04       		.byte	0x4
 1575 0530 72040000 		.4byte	0x472
 1576 0534 06       		.uleb128 0x6
 1577 0535 04       		.byte	0x4
 1578 0536 3A050000 		.4byte	0x53a
 1579 053a 11       		.uleb128 0x11
 1580 053b 01       		.byte	0x1
 1581 053c 09010000 		.4byte	0x109
 1582 0540 4A050000 		.4byte	0x54a
 1583 0544 12       		.uleb128 0x12
 1584 0545 73000000 		.4byte	0x73
 1585 0549 00       		.byte	0x0
 1586 054a 06       		.uleb128 0x6
 1587 054b 04       		.byte	0x4
 1588 054c 94000000 		.4byte	0x94
 1589 0550 08       		.uleb128 0x8
 1590 0551 E1040000 		.4byte	.LASF78
 1591 0555 10       		.byte	0x10
 1592 0556 0D       		.byte	0xd
 1593 0557 48       		.byte	0x48
 1594 0558 95050000 		.4byte	0x595
 1595 055c 09       		.uleb128 0x9
 1596 055d 11030000 		.4byte	.LASF79
 1597 0561 0D       		.byte	0xd
 1598 0562 49       		.byte	0x49
 1599 0563 BA050000 		.4byte	0x5ba
 1600 0567 02       		.byte	0x2
 1601 0568 23       		.byte	0x23
 1602 0569 00       		.uleb128 0x0
 1603 056a 09       		.uleb128 0x9
 1604 056b 6E050000 		.4byte	.LASF80
 1605 056f 0D       		.byte	0xd
 1606 0570 49       		.byte	0x49
 1607 0571 DA050000 		.4byte	0x5da
 1608 0575 02       		.byte	0x2
 1609 0576 23       		.byte	0x23
 1610 0577 04       		.uleb128 0x4
 1611 0578 0A       		.uleb128 0xa
 1612 0579 70757400 		.ascii	"put\000"
 1613 057d 0D       		.byte	0xd
 1614 057e 49       		.byte	0x49
 1615 057f F5050000 		.4byte	0x5f5
 1616 0583 02       		.byte	0x2
 1617 0584 23       		.byte	0x23
 1618 0585 08       		.uleb128 0x8
 1619 0586 0A       		.uleb128 0xa
 1620 0587 67657400 		.ascii	"get\000"
 1621 058b 0D       		.byte	0xd
 1622 058c 49       		.byte	0x49
 1623 058d 34050000 		.4byte	0x534
 1624 0591 02       		.byte	0x2
 1625 0592 23       		.byte	0x23
 1626 0593 0C       		.uleb128 0xc
ARM GAS  C:\Users\DNIEL~1\AppData\Local\Temp\cc3Fm2Fs.s 			page 31


 1627 0594 00       		.byte	0x0
 1628 0595 11       		.uleb128 0x11
 1629 0596 01       		.byte	0x1
 1630 0597 29000000 		.4byte	0x29
 1631 059b AF050000 		.4byte	0x5af
 1632 059f 12       		.uleb128 0x12
 1633 05a0 73000000 		.4byte	0x73
 1634 05a4 12       		.uleb128 0x12
 1635 05a5 AF050000 		.4byte	0x5af
 1636 05a9 12       		.uleb128 0x12
 1637 05aa 29000000 		.4byte	0x29
 1638 05ae 00       		.byte	0x0
 1639 05af 06       		.uleb128 0x6
 1640 05b0 04       		.byte	0x4
 1641 05b1 B5050000 		.4byte	0x5b5
 1642 05b5 07       		.uleb128 0x7
 1643 05b6 94000000 		.4byte	0x94
 1644 05ba 06       		.uleb128 0x6
 1645 05bb 04       		.byte	0x4
 1646 05bc 95050000 		.4byte	0x595
 1647 05c0 11       		.uleb128 0x11
 1648 05c1 01       		.byte	0x1
 1649 05c2 29000000 		.4byte	0x29
 1650 05c6 DA050000 		.4byte	0x5da
 1651 05ca 12       		.uleb128 0x12
 1652 05cb 73000000 		.4byte	0x73
 1653 05cf 12       		.uleb128 0x12
 1654 05d0 4A050000 		.4byte	0x54a
 1655 05d4 12       		.uleb128 0x12
 1656 05d5 29000000 		.4byte	0x29
 1657 05d9 00       		.byte	0x0
 1658 05da 06       		.uleb128 0x6
 1659 05db 04       		.byte	0x4
 1660 05dc C0050000 		.4byte	0x5c0
 1661 05e0 11       		.uleb128 0x11
 1662 05e1 01       		.byte	0x1
 1663 05e2 09010000 		.4byte	0x109
 1664 05e6 F5050000 		.4byte	0x5f5
 1665 05ea 12       		.uleb128 0x12
 1666 05eb 73000000 		.4byte	0x73
 1667 05ef 12       		.uleb128 0x12
 1668 05f0 94000000 		.4byte	0x94
 1669 05f4 00       		.byte	0x0
 1670 05f5 06       		.uleb128 0x6
 1671 05f6 04       		.byte	0x4
 1672 05f7 E0050000 		.4byte	0x5e0
 1673 05fb 0B       		.uleb128 0xb
 1674 05fc 04       		.byte	0x4
 1675 05fd 0D       		.byte	0xd
 1676 05fe 51       		.byte	0x51
 1677 05ff 12060000 		.4byte	0x612
 1678 0603 0A       		.uleb128 0xa
 1679 0604 766D7400 		.ascii	"vmt\000"
 1680 0608 0D       		.byte	0xd
 1681 0609 53       		.byte	0x53
 1682 060a 12060000 		.4byte	0x612
 1683 060e 02       		.byte	0x2
ARM GAS  C:\Users\DNIEL~1\AppData\Local\Temp\cc3Fm2Fs.s 			page 32


 1684 060f 23       		.byte	0x23
 1685 0610 00       		.uleb128 0x0
 1686 0611 00       		.byte	0x0
 1687 0612 06       		.uleb128 0x6
 1688 0613 04       		.byte	0x4
 1689 0614 18060000 		.4byte	0x618
 1690 0618 07       		.uleb128 0x7
 1691 0619 50050000 		.4byte	0x550
 1692 061d 02       		.uleb128 0x2
 1693 061e 05020000 		.4byte	.LASF81
 1694 0622 0D       		.byte	0xd
 1695 0623 55       		.byte	0x55
 1696 0624 FB050000 		.4byte	0x5fb
 1697 0628 13       		.uleb128 0x13
 1698 0629 B5000000 		.4byte	0xb5
 1699 062d 38060000 		.4byte	0x638
 1700 0631 14       		.uleb128 0x14
 1701 0632 34000000 		.4byte	0x34
 1702 0636 07       		.byte	0x7
 1703 0637 00       		.byte	0x0
 1704 0638 13       		.uleb128 0x13
 1705 0639 B5000000 		.4byte	0xb5
 1706 063d 48060000 		.4byte	0x648
 1707 0641 14       		.uleb128 0x14
 1708 0642 34000000 		.4byte	0x34
 1709 0646 01       		.byte	0x1
 1710 0647 00       		.byte	0x0
 1711 0648 0E       		.uleb128 0xe
 1712 0649 AA000000 		.4byte	0xaa
 1713 064d 15       		.uleb128 0x15
 1714 064e 10       		.byte	0x10
 1715 064f 0E       		.byte	0xe
 1716 0650 2F02     		.2byte	0x22f
 1717 0652 93060000 		.4byte	0x693
 1718 0656 0D       		.uleb128 0xd
 1719 0657 54495200 		.ascii	"TIR\000"
 1720 065b 0E       		.byte	0xe
 1721 065c 3102     		.2byte	0x231
 1722 065e 8F030000 		.4byte	0x38f
 1723 0662 02       		.byte	0x2
 1724 0663 23       		.byte	0x23
 1725 0664 00       		.uleb128 0x0
 1726 0665 16       		.uleb128 0x16
 1727 0666 F4010000 		.4byte	.LASF82
 1728 066a 0E       		.byte	0xe
 1729 066b 3202     		.2byte	0x232
 1730 066d 8F030000 		.4byte	0x38f
 1731 0671 02       		.byte	0x2
 1732 0672 23       		.byte	0x23
 1733 0673 04       		.uleb128 0x4
 1734 0674 16       		.uleb128 0x16
 1735 0675 34010000 		.4byte	.LASF83
 1736 0679 0E       		.byte	0xe
 1737 067a 3302     		.2byte	0x233
 1738 067c 8F030000 		.4byte	0x38f
 1739 0680 02       		.byte	0x2
 1740 0681 23       		.byte	0x23
ARM GAS  C:\Users\DNIEL~1\AppData\Local\Temp\cc3Fm2Fs.s 			page 33


 1741 0682 08       		.uleb128 0x8
 1742 0683 16       		.uleb128 0x16
 1743 0684 9B030000 		.4byte	.LASF84
 1744 0688 0E       		.byte	0xe
 1745 0689 3402     		.2byte	0x234
 1746 068b 8F030000 		.4byte	0x38f
 1747 068f 02       		.byte	0x2
 1748 0690 23       		.byte	0x23
 1749 0691 0C       		.uleb128 0xc
 1750 0692 00       		.byte	0x0
 1751 0693 17       		.uleb128 0x17
 1752 0694 4B010000 		.4byte	.LASF85
 1753 0698 0E       		.byte	0xe
 1754 0699 3502     		.2byte	0x235
 1755 069b 4D060000 		.4byte	0x64d
 1756 069f 15       		.uleb128 0x15
 1757 06a0 10       		.byte	0x10
 1758 06a1 0E       		.byte	0xe
 1759 06a2 3B02     		.2byte	0x23b
 1760 06a4 E5060000 		.4byte	0x6e5
 1761 06a8 0D       		.uleb128 0xd
 1762 06a9 52495200 		.ascii	"RIR\000"
 1763 06ad 0E       		.byte	0xe
 1764 06ae 3D02     		.2byte	0x23d
 1765 06b0 8F030000 		.4byte	0x38f
 1766 06b4 02       		.byte	0x2
 1767 06b5 23       		.byte	0x23
 1768 06b6 00       		.uleb128 0x0
 1769 06b7 16       		.uleb128 0x16
 1770 06b8 64000000 		.4byte	.LASF86
 1771 06bc 0E       		.byte	0xe
 1772 06bd 3E02     		.2byte	0x23e
 1773 06bf 8F030000 		.4byte	0x38f
 1774 06c3 02       		.byte	0x2
 1775 06c4 23       		.byte	0x23
 1776 06c5 04       		.uleb128 0x4
 1777 06c6 16       		.uleb128 0x16
 1778 06c7 B5060000 		.4byte	.LASF87
 1779 06cb 0E       		.byte	0xe
 1780 06cc 3F02     		.2byte	0x23f
 1781 06ce 8F030000 		.4byte	0x38f
 1782 06d2 02       		.byte	0x2
 1783 06d3 23       		.byte	0x23
 1784 06d4 08       		.uleb128 0x8
 1785 06d5 16       		.uleb128 0x16
 1786 06d6 89050000 		.4byte	.LASF88
 1787 06da 0E       		.byte	0xe
 1788 06db 4002     		.2byte	0x240
 1789 06dd 8F030000 		.4byte	0x38f
 1790 06e1 02       		.byte	0x2
 1791 06e2 23       		.byte	0x23
 1792 06e3 0C       		.uleb128 0xc
 1793 06e4 00       		.byte	0x0
 1794 06e5 17       		.uleb128 0x17
 1795 06e6 20060000 		.4byte	.LASF89
 1796 06ea 0E       		.byte	0xe
 1797 06eb 4102     		.2byte	0x241
ARM GAS  C:\Users\DNIEL~1\AppData\Local\Temp\cc3Fm2Fs.s 			page 34


 1798 06ed 9F060000 		.4byte	0x69f
 1799 06f1 15       		.uleb128 0x15
 1800 06f2 08       		.byte	0x8
 1801 06f3 0E       		.byte	0xe
 1802 06f4 4702     		.2byte	0x247
 1803 06f6 19070000 		.4byte	0x719
 1804 06fa 0D       		.uleb128 0xd
 1805 06fb 46523100 		.ascii	"FR1\000"
 1806 06ff 0E       		.byte	0xe
 1807 0700 4902     		.2byte	0x249
 1808 0702 8F030000 		.4byte	0x38f
 1809 0706 02       		.byte	0x2
 1810 0707 23       		.byte	0x23
 1811 0708 00       		.uleb128 0x0
 1812 0709 0D       		.uleb128 0xd
 1813 070a 46523200 		.ascii	"FR2\000"
 1814 070e 0E       		.byte	0xe
 1815 070f 4A02     		.2byte	0x24a
 1816 0711 8F030000 		.4byte	0x38f
 1817 0715 02       		.byte	0x2
 1818 0716 23       		.byte	0x23
 1819 0717 04       		.uleb128 0x4
 1820 0718 00       		.byte	0x0
 1821 0719 17       		.uleb128 0x17
 1822 071a 8F020000 		.4byte	.LASF90
 1823 071e 0E       		.byte	0xe
 1824 071f 4B02     		.2byte	0x24b
 1825 0721 F1060000 		.4byte	0x6f1
 1826 0725 18       		.uleb128 0x18
 1827 0726 2003     		.2byte	0x320
 1828 0728 0E       		.byte	0xe
 1829 0729 5102     		.2byte	0x251
 1830 072b 87080000 		.4byte	0x887
 1831 072f 0D       		.uleb128 0xd
 1832 0730 4D435200 		.ascii	"MCR\000"
 1833 0734 0E       		.byte	0xe
 1834 0735 5302     		.2byte	0x253
 1835 0737 8F030000 		.4byte	0x38f
 1836 073b 02       		.byte	0x2
 1837 073c 23       		.byte	0x23
 1838 073d 00       		.uleb128 0x0
 1839 073e 0D       		.uleb128 0xd
 1840 073f 4D535200 		.ascii	"MSR\000"
 1841 0743 0E       		.byte	0xe
 1842 0744 5402     		.2byte	0x254
 1843 0746 8F030000 		.4byte	0x38f
 1844 074a 02       		.byte	0x2
 1845 074b 23       		.byte	0x23
 1846 074c 04       		.uleb128 0x4
 1847 074d 0D       		.uleb128 0xd
 1848 074e 54535200 		.ascii	"TSR\000"
 1849 0752 0E       		.byte	0xe
 1850 0753 5502     		.2byte	0x255
 1851 0755 8F030000 		.4byte	0x38f
 1852 0759 02       		.byte	0x2
 1853 075a 23       		.byte	0x23
 1854 075b 08       		.uleb128 0x8
ARM GAS  C:\Users\DNIEL~1\AppData\Local\Temp\cc3Fm2Fs.s 			page 35


 1855 075c 16       		.uleb128 0x16
 1856 075d BF010000 		.4byte	.LASF91
 1857 0761 0E       		.byte	0xe
 1858 0762 5602     		.2byte	0x256
 1859 0764 8F030000 		.4byte	0x38f
 1860 0768 02       		.byte	0x2
 1861 0769 23       		.byte	0x23
 1862 076a 0C       		.uleb128 0xc
 1863 076b 16       		.uleb128 0x16
 1864 076c 8A020000 		.4byte	.LASF92
 1865 0770 0E       		.byte	0xe
 1866 0771 5702     		.2byte	0x257
 1867 0773 8F030000 		.4byte	0x38f
 1868 0777 02       		.byte	0x2
 1869 0778 23       		.byte	0x23
 1870 0779 10       		.uleb128 0x10
 1871 077a 0D       		.uleb128 0xd
 1872 077b 49455200 		.ascii	"IER\000"
 1873 077f 0E       		.byte	0xe
 1874 0780 5802     		.2byte	0x258
 1875 0782 8F030000 		.4byte	0x38f
 1876 0786 02       		.byte	0x2
 1877 0787 23       		.byte	0x23
 1878 0788 14       		.uleb128 0x14
 1879 0789 0D       		.uleb128 0xd
 1880 078a 45535200 		.ascii	"ESR\000"
 1881 078e 0E       		.byte	0xe
 1882 078f 5902     		.2byte	0x259
 1883 0791 8F030000 		.4byte	0x38f
 1884 0795 02       		.byte	0x2
 1885 0796 23       		.byte	0x23
 1886 0797 18       		.uleb128 0x18
 1887 0798 0D       		.uleb128 0xd
 1888 0799 42545200 		.ascii	"BTR\000"
 1889 079d 0E       		.byte	0xe
 1890 079e 5A02     		.2byte	0x25a
 1891 07a0 8F030000 		.4byte	0x38f
 1892 07a4 02       		.byte	0x2
 1893 07a5 23       		.byte	0x23
 1894 07a6 1C       		.uleb128 0x1c
 1895 07a7 16       		.uleb128 0x16
 1896 07a8 07040000 		.4byte	.LASF93
 1897 07ac 0E       		.byte	0xe
 1898 07ad 5B02     		.2byte	0x25b
 1899 07af 87080000 		.4byte	0x887
 1900 07b3 02       		.byte	0x2
 1901 07b4 23       		.byte	0x23
 1902 07b5 20       		.uleb128 0x20
 1903 07b6 16       		.uleb128 0x16
 1904 07b7 33020000 		.4byte	.LASF94
 1905 07bb 0E       		.byte	0xe
 1906 07bc 5C02     		.2byte	0x25c
 1907 07be 97080000 		.4byte	0x897
 1908 07c2 03       		.byte	0x3
 1909 07c3 23       		.byte	0x23
 1910 07c4 8003     		.uleb128 0x180
 1911 07c6 16       		.uleb128 0x16
ARM GAS  C:\Users\DNIEL~1\AppData\Local\Temp\cc3Fm2Fs.s 			page 36


 1912 07c7 B0050000 		.4byte	.LASF95
 1913 07cb 0E       		.byte	0xe
 1914 07cc 5D02     		.2byte	0x25d
 1915 07ce A7080000 		.4byte	0x8a7
 1916 07d2 03       		.byte	0x3
 1917 07d3 23       		.byte	0x23
 1918 07d4 B003     		.uleb128 0x1b0
 1919 07d6 16       		.uleb128 0x16
 1920 07d7 11040000 		.4byte	.LASF96
 1921 07db 0E       		.byte	0xe
 1922 07dc 5E02     		.2byte	0x25e
 1923 07de B7080000 		.4byte	0x8b7
 1924 07e2 03       		.byte	0x3
 1925 07e3 23       		.byte	0x23
 1926 07e4 D003     		.uleb128 0x1d0
 1927 07e6 0D       		.uleb128 0xd
 1928 07e7 464D5200 		.ascii	"FMR\000"
 1929 07eb 0E       		.byte	0xe
 1930 07ec 5F02     		.2byte	0x25f
 1931 07ee 8F030000 		.4byte	0x38f
 1932 07f2 03       		.byte	0x3
 1933 07f3 23       		.byte	0x23
 1934 07f4 8004     		.uleb128 0x200
 1935 07f6 16       		.uleb128 0x16
 1936 07f7 CA050000 		.4byte	.LASF97
 1937 07fb 0E       		.byte	0xe
 1938 07fc 6002     		.2byte	0x260
 1939 07fe 8F030000 		.4byte	0x38f
 1940 0802 03       		.byte	0x3
 1941 0803 23       		.byte	0x23
 1942 0804 8404     		.uleb128 0x204
 1943 0806 16       		.uleb128 0x16
 1944 0807 1B040000 		.4byte	.LASF98
 1945 080b 0E       		.byte	0xe
 1946 080c 6102     		.2byte	0x261
 1947 080e B5000000 		.4byte	0xb5
 1948 0812 03       		.byte	0x3
 1949 0813 23       		.byte	0x23
 1950 0814 8804     		.uleb128 0x208
 1951 0816 16       		.uleb128 0x16
 1952 0817 02060000 		.4byte	.LASF99
 1953 081b 0E       		.byte	0xe
 1954 081c 6202     		.2byte	0x262
 1955 081e 8F030000 		.4byte	0x38f
 1956 0822 03       		.byte	0x3
 1957 0823 23       		.byte	0x23
 1958 0824 8C04     		.uleb128 0x20c
 1959 0826 16       		.uleb128 0x16
 1960 0827 25040000 		.4byte	.LASF100
 1961 082b 0E       		.byte	0xe
 1962 082c 6302     		.2byte	0x263
 1963 082e B5000000 		.4byte	0xb5
 1964 0832 03       		.byte	0x3
 1965 0833 23       		.byte	0x23
 1966 0834 9004     		.uleb128 0x210
 1967 0836 16       		.uleb128 0x16
 1968 0837 DA030000 		.4byte	.LASF101
ARM GAS  C:\Users\DNIEL~1\AppData\Local\Temp\cc3Fm2Fs.s 			page 37


 1969 083b 0E       		.byte	0xe
 1970 083c 6402     		.2byte	0x264
 1971 083e 8F030000 		.4byte	0x38f
 1972 0842 03       		.byte	0x3
 1973 0843 23       		.byte	0x23
 1974 0844 9404     		.uleb128 0x214
 1975 0846 16       		.uleb128 0x16
 1976 0847 2F040000 		.4byte	.LASF102
 1977 084b 0E       		.byte	0xe
 1978 084c 6502     		.2byte	0x265
 1979 084e B5000000 		.4byte	0xb5
 1980 0852 03       		.byte	0x3
 1981 0853 23       		.byte	0x23
 1982 0854 9804     		.uleb128 0x218
 1983 0856 16       		.uleb128 0x16
 1984 0857 2C030000 		.4byte	.LASF103
 1985 085b 0E       		.byte	0xe
 1986 085c 6602     		.2byte	0x266
 1987 085e 8F030000 		.4byte	0x38f
 1988 0862 03       		.byte	0x3
 1989 0863 23       		.byte	0x23
 1990 0864 9C04     		.uleb128 0x21c
 1991 0866 16       		.uleb128 0x16
 1992 0867 33050000 		.4byte	.LASF104
 1993 086b 0E       		.byte	0xe
 1994 086c 6702     		.2byte	0x267
 1995 086e 28060000 		.4byte	0x628
 1996 0872 03       		.byte	0x3
 1997 0873 23       		.byte	0x23
 1998 0874 A004     		.uleb128 0x220
 1999 0876 16       		.uleb128 0x16
 2000 0877 D3020000 		.4byte	.LASF105
 2001 087b 0E       		.byte	0xe
 2002 087c 6802     		.2byte	0x268
 2003 087e C7080000 		.4byte	0x8c7
 2004 0882 03       		.byte	0x3
 2005 0883 23       		.byte	0x23
 2006 0884 C004     		.uleb128 0x240
 2007 0886 00       		.byte	0x0
 2008 0887 13       		.uleb128 0x13
 2009 0888 B5000000 		.4byte	0xb5
 2010 088c 97080000 		.4byte	0x897
 2011 0890 14       		.uleb128 0x14
 2012 0891 34000000 		.4byte	0x34
 2013 0895 57       		.byte	0x57
 2014 0896 00       		.byte	0x0
 2015 0897 13       		.uleb128 0x13
 2016 0898 93060000 		.4byte	0x693
 2017 089c A7080000 		.4byte	0x8a7
 2018 08a0 14       		.uleb128 0x14
 2019 08a1 34000000 		.4byte	0x34
 2020 08a5 02       		.byte	0x2
 2021 08a6 00       		.byte	0x0
 2022 08a7 13       		.uleb128 0x13
 2023 08a8 E5060000 		.4byte	0x6e5
 2024 08ac B7080000 		.4byte	0x8b7
 2025 08b0 14       		.uleb128 0x14
ARM GAS  C:\Users\DNIEL~1\AppData\Local\Temp\cc3Fm2Fs.s 			page 38


 2026 08b1 34000000 		.4byte	0x34
 2027 08b5 01       		.byte	0x1
 2028 08b6 00       		.byte	0x0
 2029 08b7 13       		.uleb128 0x13
 2030 08b8 B5000000 		.4byte	0xb5
 2031 08bc C7080000 		.4byte	0x8c7
 2032 08c0 14       		.uleb128 0x14
 2033 08c1 34000000 		.4byte	0x34
 2034 08c5 0B       		.byte	0xb
 2035 08c6 00       		.byte	0x0
 2036 08c7 13       		.uleb128 0x13
 2037 08c8 19070000 		.4byte	0x719
 2038 08cc D7080000 		.4byte	0x8d7
 2039 08d0 14       		.uleb128 0x14
 2040 08d1 34000000 		.4byte	0x34
 2041 08d5 1B       		.byte	0x1b
 2042 08d6 00       		.byte	0x0
 2043 08d7 17       		.uleb128 0x17
 2044 08d8 58000000 		.4byte	.LASF106
 2045 08dc 0E       		.byte	0xe
 2046 08dd 6902     		.2byte	0x269
 2047 08df 25070000 		.4byte	0x725
 2048 08e3 08       		.uleb128 0x8
 2049 08e4 86000000 		.4byte	.LASF107
 2050 08e8 20       		.byte	0x20
 2051 08e9 0F       		.byte	0xf
 2052 08ea 4E       		.byte	0x4e
 2053 08eb 60090000 		.4byte	0x960
 2054 08ef 09       		.uleb128 0x9
 2055 08f0 11030000 		.4byte	.LASF79
 2056 08f4 0F       		.byte	0xf
 2057 08f5 4F       		.byte	0x4f
 2058 08f6 BA050000 		.4byte	0x5ba
 2059 08fa 02       		.byte	0x2
 2060 08fb 23       		.byte	0x23
 2061 08fc 00       		.uleb128 0x0
 2062 08fd 09       		.uleb128 0x9
 2063 08fe 6E050000 		.4byte	.LASF80
 2064 0902 0F       		.byte	0xf
 2065 0903 4F       		.byte	0x4f
 2066 0904 DA050000 		.4byte	0x5da
 2067 0908 02       		.byte	0x2
 2068 0909 23       		.byte	0x23
 2069 090a 04       		.uleb128 0x4
 2070 090b 0A       		.uleb128 0xa
 2071 090c 70757400 		.ascii	"put\000"
 2072 0910 0F       		.byte	0xf
 2073 0911 4F       		.byte	0x4f
 2074 0912 F5050000 		.4byte	0x5f5
 2075 0916 02       		.byte	0x2
 2076 0917 23       		.byte	0x23
 2077 0918 08       		.uleb128 0x8
 2078 0919 0A       		.uleb128 0xa
 2079 091a 67657400 		.ascii	"get\000"
 2080 091e 0F       		.byte	0xf
 2081 091f 4F       		.byte	0x4f
 2082 0920 34050000 		.4byte	0x534
ARM GAS  C:\Users\DNIEL~1\AppData\Local\Temp\cc3Fm2Fs.s 			page 39


 2083 0924 02       		.byte	0x2
 2084 0925 23       		.byte	0x23
 2085 0926 0C       		.uleb128 0xc
 2086 0927 09       		.uleb128 0x9
 2087 0928 17030000 		.4byte	.LASF108
 2088 092c 0F       		.byte	0xf
 2089 092d 4F       		.byte	0x4f
 2090 092e 7A090000 		.4byte	0x97a
 2091 0932 02       		.byte	0x2
 2092 0933 23       		.byte	0x23
 2093 0934 10       		.uleb128 0x10
 2094 0935 09       		.uleb128 0x9
 2095 0936 6C020000 		.4byte	.LASF109
 2096 093a 0F       		.byte	0xf
 2097 093b 4F       		.byte	0x4f
 2098 093c 95090000 		.4byte	0x995
 2099 0940 02       		.byte	0x2
 2100 0941 23       		.byte	0x23
 2101 0942 14       		.uleb128 0x14
 2102 0943 09       		.uleb128 0x9
 2103 0944 B8020000 		.4byte	.LASF110
 2104 0948 0F       		.byte	0xf
 2105 0949 4F       		.byte	0x4f
 2106 094a BA090000 		.4byte	0x9ba
 2107 094e 02       		.byte	0x2
 2108 094f 23       		.byte	0x23
 2109 0950 18       		.uleb128 0x18
 2110 0951 09       		.uleb128 0x9
 2111 0952 B2000000 		.4byte	.LASF111
 2112 0956 0F       		.byte	0xf
 2113 0957 4F       		.byte	0x4f
 2114 0958 DF090000 		.4byte	0x9df
 2115 095c 02       		.byte	0x2
 2116 095d 23       		.byte	0x23
 2117 095e 1C       		.uleb128 0x1c
 2118 095f 00       		.byte	0x0
 2119 0960 11       		.uleb128 0x11
 2120 0961 01       		.byte	0x1
 2121 0962 09010000 		.4byte	0x109
 2122 0966 7A090000 		.4byte	0x97a
 2123 096a 12       		.uleb128 0x12
 2124 096b 73000000 		.4byte	0x73
 2125 096f 12       		.uleb128 0x12
 2126 0970 94000000 		.4byte	0x94
 2127 0974 12       		.uleb128 0x12
 2128 0975 2A010000 		.4byte	0x12a
 2129 0979 00       		.byte	0x0
 2130 097a 06       		.uleb128 0x6
 2131 097b 04       		.byte	0x4
 2132 097c 60090000 		.4byte	0x960
 2133 0980 11       		.uleb128 0x11
 2134 0981 01       		.byte	0x1
 2135 0982 09010000 		.4byte	0x109
 2136 0986 95090000 		.4byte	0x995
 2137 098a 12       		.uleb128 0x12
 2138 098b 73000000 		.4byte	0x73
 2139 098f 12       		.uleb128 0x12
ARM GAS  C:\Users\DNIEL~1\AppData\Local\Temp\cc3Fm2Fs.s 			page 40


 2140 0990 2A010000 		.4byte	0x12a
 2141 0994 00       		.byte	0x0
 2142 0995 06       		.uleb128 0x6
 2143 0996 04       		.byte	0x4
 2144 0997 80090000 		.4byte	0x980
 2145 099b 11       		.uleb128 0x11
 2146 099c 01       		.byte	0x1
 2147 099d 29000000 		.4byte	0x29
 2148 09a1 BA090000 		.4byte	0x9ba
 2149 09a5 12       		.uleb128 0x12
 2150 09a6 73000000 		.4byte	0x73
 2151 09aa 12       		.uleb128 0x12
 2152 09ab AF050000 		.4byte	0x5af
 2153 09af 12       		.uleb128 0x12
 2154 09b0 29000000 		.4byte	0x29
 2155 09b4 12       		.uleb128 0x12
 2156 09b5 2A010000 		.4byte	0x12a
 2157 09b9 00       		.byte	0x0
 2158 09ba 06       		.uleb128 0x6
 2159 09bb 04       		.byte	0x4
 2160 09bc 9B090000 		.4byte	0x99b
 2161 09c0 11       		.uleb128 0x11
 2162 09c1 01       		.byte	0x1
 2163 09c2 29000000 		.4byte	0x29
 2164 09c6 DF090000 		.4byte	0x9df
 2165 09ca 12       		.uleb128 0x12
 2166 09cb 73000000 		.4byte	0x73
 2167 09cf 12       		.uleb128 0x12
 2168 09d0 4A050000 		.4byte	0x54a
 2169 09d4 12       		.uleb128 0x12
 2170 09d5 29000000 		.4byte	0x29
 2171 09d9 12       		.uleb128 0x12
 2172 09da 2A010000 		.4byte	0x12a
 2173 09de 00       		.byte	0x0
 2174 09df 06       		.uleb128 0x6
 2175 09e0 04       		.byte	0x4
 2176 09e1 C0090000 		.4byte	0x9c0
 2177 09e5 0B       		.uleb128 0xb
 2178 09e6 04       		.byte	0x4
 2179 09e7 0F       		.byte	0xf
 2180 09e8 59       		.byte	0x59
 2181 09e9 FC090000 		.4byte	0x9fc
 2182 09ed 0A       		.uleb128 0xa
 2183 09ee 766D7400 		.ascii	"vmt\000"
 2184 09f2 0F       		.byte	0xf
 2185 09f3 5B       		.byte	0x5b
 2186 09f4 FC090000 		.4byte	0x9fc
 2187 09f8 02       		.byte	0x2
 2188 09f9 23       		.byte	0x23
 2189 09fa 00       		.uleb128 0x0
 2190 09fb 00       		.byte	0x0
 2191 09fc 06       		.uleb128 0x6
 2192 09fd 04       		.byte	0x4
 2193 09fe 020A0000 		.4byte	0xa02
 2194 0a02 07       		.uleb128 0x7
 2195 0a03 E3080000 		.4byte	0x8e3
 2196 0a07 02       		.uleb128 0x2
ARM GAS  C:\Users\DNIEL~1\AppData\Local\Temp\cc3Fm2Fs.s 			page 41


 2197 0a08 A9060000 		.4byte	.LASF112
 2198 0a0c 0F       		.byte	0xf
 2199 0a0d 5D       		.byte	0x5d
 2200 0a0e E5090000 		.4byte	0x9e5
 2201 0a12 19       		.uleb128 0x19
 2202 0a13 01       		.byte	0x1
 2203 0a14 10       		.byte	0x10
 2204 0a15 6E       		.byte	0x6e
 2205 0a16 390A0000 		.4byte	0xa39
 2206 0a1a 1A       		.uleb128 0x1a
 2207 0a1b 48040000 		.4byte	.LASF113
 2208 0a1f 00       		.sleb128 0
 2209 0a20 1A       		.uleb128 0x1a
 2210 0a21 D1030000 		.4byte	.LASF114
 2211 0a25 01       		.sleb128 1
 2212 0a26 1A       		.uleb128 0x1a
 2213 0a27 96060000 		.4byte	.LASF115
 2214 0a2b 02       		.sleb128 2
 2215 0a2c 1A       		.uleb128 0x1a
 2216 0a2d B5010000 		.4byte	.LASF116
 2217 0a31 03       		.sleb128 3
 2218 0a32 1A       		.uleb128 0x1a
 2219 0a33 3D030000 		.4byte	.LASF117
 2220 0a37 04       		.sleb128 4
 2221 0a38 00       		.byte	0x0
 2222 0a39 02       		.uleb128 0x2
 2223 0a3a C6030000 		.4byte	.LASF118
 2224 0a3e 10       		.byte	0x10
 2225 0a3f 74       		.byte	0x74
 2226 0a40 120A0000 		.4byte	0xa12
 2227 0a44 0B       		.uleb128 0xb
 2228 0a45 01       		.byte	0x1
 2229 0a46 11       		.byte	0x11
 2230 0a47 9A       		.byte	0x9a
 2231 0a48 800A0000 		.4byte	0xa80
 2232 0a4c 1B       		.uleb128 0x1b
 2233 0a4d 444C4300 		.ascii	"DLC\000"
 2234 0a51 11       		.byte	0x11
 2235 0a52 9B       		.byte	0x9b
 2236 0a53 94000000 		.4byte	0x94
 2237 0a57 01       		.byte	0x1
 2238 0a58 04       		.byte	0x4
 2239 0a59 04       		.byte	0x4
 2240 0a5a 02       		.byte	0x2
 2241 0a5b 23       		.byte	0x23
 2242 0a5c 00       		.uleb128 0x0
 2243 0a5d 1B       		.uleb128 0x1b
 2244 0a5e 52545200 		.ascii	"RTR\000"
 2245 0a62 11       		.byte	0x11
 2246 0a63 9C       		.byte	0x9c
 2247 0a64 94000000 		.4byte	0x94
 2248 0a68 01       		.byte	0x1
 2249 0a69 01       		.byte	0x1
 2250 0a6a 03       		.byte	0x3
 2251 0a6b 02       		.byte	0x2
 2252 0a6c 23       		.byte	0x23
 2253 0a6d 00       		.uleb128 0x0
ARM GAS  C:\Users\DNIEL~1\AppData\Local\Temp\cc3Fm2Fs.s 			page 42


 2254 0a6e 1B       		.uleb128 0x1b
 2255 0a6f 49444500 		.ascii	"IDE\000"
 2256 0a73 11       		.byte	0x11
 2257 0a74 9D       		.byte	0x9d
 2258 0a75 94000000 		.4byte	0x94
 2259 0a79 01       		.byte	0x1
 2260 0a7a 01       		.byte	0x1
 2261 0a7b 02       		.byte	0x2
 2262 0a7c 02       		.byte	0x2
 2263 0a7d 23       		.byte	0x23
 2264 0a7e 00       		.uleb128 0x0
 2265 0a7f 00       		.byte	0x0
 2266 0a80 0B       		.uleb128 0xb
 2267 0a81 04       		.byte	0x4
 2268 0a82 11       		.byte	0x11
 2269 0a83 A0       		.byte	0xa0
 2270 0a84 9A0A0000 		.4byte	0xa9a
 2271 0a88 1B       		.uleb128 0x1b
 2272 0a89 53494400 		.ascii	"SID\000"
 2273 0a8d 11       		.byte	0x11
 2274 0a8e A1       		.byte	0xa1
 2275 0a8f B5000000 		.4byte	0xb5
 2276 0a93 04       		.byte	0x4
 2277 0a94 0B       		.byte	0xb
 2278 0a95 15       		.byte	0x15
 2279 0a96 02       		.byte	0x2
 2280 0a97 23       		.byte	0x23
 2281 0a98 00       		.uleb128 0x0
 2282 0a99 00       		.byte	0x0
 2283 0a9a 0B       		.uleb128 0xb
 2284 0a9b 04       		.byte	0x4
 2285 0a9c 11       		.byte	0x11
 2286 0a9d A3       		.byte	0xa3
 2287 0a9e B40A0000 		.4byte	0xab4
 2288 0aa2 1B       		.uleb128 0x1b
 2289 0aa3 45494400 		.ascii	"EID\000"
 2290 0aa7 11       		.byte	0x11
 2291 0aa8 A4       		.byte	0xa4
 2292 0aa9 B5000000 		.4byte	0xb5
 2293 0aad 04       		.byte	0x4
 2294 0aae 1D       		.byte	0x1d
 2295 0aaf 03       		.byte	0x3
 2296 0ab0 02       		.byte	0x2
 2297 0ab1 23       		.byte	0x23
 2298 0ab2 00       		.uleb128 0x0
 2299 0ab3 00       		.byte	0x0
 2300 0ab4 0F       		.uleb128 0xf
 2301 0ab5 04       		.byte	0x4
 2302 0ab6 11       		.byte	0x11
 2303 0ab7 9F       		.byte	0x9f
 2304 0ab8 C70A0000 		.4byte	0xac7
 2305 0abc 1C       		.uleb128 0x1c
 2306 0abd 800A0000 		.4byte	0xa80
 2307 0ac1 1C       		.uleb128 0x1c
 2308 0ac2 9A0A0000 		.4byte	0xa9a
 2309 0ac6 00       		.byte	0x0
 2310 0ac7 0F       		.uleb128 0xf
ARM GAS  C:\Users\DNIEL~1\AppData\Local\Temp\cc3Fm2Fs.s 			page 43


 2311 0ac8 08       		.byte	0x8
 2312 0ac9 11       		.byte	0x11
 2313 0aca A7       		.byte	0xa7
 2314 0acb F10A0000 		.4byte	0xaf1
 2315 0acf 10       		.uleb128 0x10
 2316 0ad0 AA050000 		.4byte	.LASF119
 2317 0ad4 11       		.byte	0x11
 2318 0ad5 A8       		.byte	0xa8
 2319 0ad6 F10A0000 		.4byte	0xaf1
 2320 0ada 10       		.uleb128 0x10
 2321 0adb FB050000 		.4byte	.LASF120
 2322 0adf 11       		.byte	0x11
 2323 0ae0 A9       		.byte	0xa9
 2324 0ae1 010B0000 		.4byte	0xb01
 2325 0ae5 10       		.uleb128 0x10
 2326 0ae6 9E000000 		.4byte	.LASF121
 2327 0aea 11       		.byte	0x11
 2328 0aeb AA       		.byte	0xaa
 2329 0aec 38060000 		.4byte	0x638
 2330 0af0 00       		.byte	0x0
 2331 0af1 13       		.uleb128 0x13
 2332 0af2 94000000 		.4byte	0x94
 2333 0af6 010B0000 		.4byte	0xb01
 2334 0afa 14       		.uleb128 0x14
 2335 0afb 34000000 		.4byte	0x34
 2336 0aff 07       		.byte	0x7
 2337 0b00 00       		.byte	0x0
 2338 0b01 13       		.uleb128 0x13
 2339 0b02 9F000000 		.4byte	0x9f
 2340 0b06 110B0000 		.4byte	0xb11
 2341 0b0a 14       		.uleb128 0x14
 2342 0b0b 34000000 		.4byte	0x34
 2343 0b0f 03       		.byte	0x3
 2344 0b10 00       		.byte	0x0
 2345 0b11 0B       		.uleb128 0xb
 2346 0b12 10       		.byte	0x10
 2347 0b13 11       		.byte	0x11
 2348 0b14 99       		.byte	0x99
 2349 0b15 320B0000 		.4byte	0xb32
 2350 0b19 1D       		.uleb128 0x1d
 2351 0b1a 440A0000 		.4byte	0xa44
 2352 0b1e 02       		.byte	0x2
 2353 0b1f 23       		.byte	0x23
 2354 0b20 00       		.uleb128 0x0
 2355 0b21 1D       		.uleb128 0x1d
 2356 0b22 B40A0000 		.4byte	0xab4
 2357 0b26 02       		.byte	0x2
 2358 0b27 23       		.byte	0x23
 2359 0b28 04       		.uleb128 0x4
 2360 0b29 1D       		.uleb128 0x1d
 2361 0b2a C70A0000 		.4byte	0xac7
 2362 0b2e 02       		.byte	0x2
 2363 0b2f 23       		.byte	0x23
 2364 0b30 08       		.uleb128 0x8
 2365 0b31 00       		.byte	0x0
 2366 0b32 02       		.uleb128 0x2
 2367 0b33 61020000 		.4byte	.LASF122
ARM GAS  C:\Users\DNIEL~1\AppData\Local\Temp\cc3Fm2Fs.s 			page 44


 2368 0b37 11       		.byte	0x11
 2369 0b38 AC       		.byte	0xac
 2370 0b39 110B0000 		.4byte	0xb11
 2371 0b3d 0B       		.uleb128 0xb
 2372 0b3e 04       		.byte	0x4
 2373 0b3f 11       		.byte	0x11
 2374 0b40 B4       		.byte	0xb4
 2375 0b41 620B0000 		.4byte	0xb62
 2376 0b45 0A       		.uleb128 0xa
 2377 0b46 464D4900 		.ascii	"FMI\000"
 2378 0b4a 11       		.byte	0x11
 2379 0b4b B5       		.byte	0xb5
 2380 0b4c 94000000 		.4byte	0x94
 2381 0b50 02       		.byte	0x2
 2382 0b51 23       		.byte	0x23
 2383 0b52 00       		.uleb128 0x0
 2384 0b53 09       		.uleb128 0x9
 2385 0b54 E2010000 		.4byte	.LASF123
 2386 0b58 11       		.byte	0x11
 2387 0b59 B6       		.byte	0xb6
 2388 0b5a 9F000000 		.4byte	0x9f
 2389 0b5e 02       		.byte	0x2
 2390 0b5f 23       		.byte	0x23
 2391 0b60 02       		.uleb128 0x2
 2392 0b61 00       		.byte	0x0
 2393 0b62 0B       		.uleb128 0xb
 2394 0b63 01       		.byte	0x1
 2395 0b64 11       		.byte	0x11
 2396 0b65 B8       		.byte	0xb8
 2397 0b66 9E0B0000 		.4byte	0xb9e
 2398 0b6a 1B       		.uleb128 0x1b
 2399 0b6b 444C4300 		.ascii	"DLC\000"
 2400 0b6f 11       		.byte	0x11
 2401 0b70 B9       		.byte	0xb9
 2402 0b71 94000000 		.4byte	0x94
 2403 0b75 01       		.byte	0x1
 2404 0b76 04       		.byte	0x4
 2405 0b77 04       		.byte	0x4
 2406 0b78 02       		.byte	0x2
 2407 0b79 23       		.byte	0x23
 2408 0b7a 00       		.uleb128 0x0
 2409 0b7b 1B       		.uleb128 0x1b
 2410 0b7c 52545200 		.ascii	"RTR\000"
 2411 0b80 11       		.byte	0x11
 2412 0b81 BA       		.byte	0xba
 2413 0b82 94000000 		.4byte	0x94
 2414 0b86 01       		.byte	0x1
 2415 0b87 01       		.byte	0x1
 2416 0b88 03       		.byte	0x3
 2417 0b89 02       		.byte	0x2
 2418 0b8a 23       		.byte	0x23
 2419 0b8b 00       		.uleb128 0x0
 2420 0b8c 1B       		.uleb128 0x1b
 2421 0b8d 49444500 		.ascii	"IDE\000"
 2422 0b91 11       		.byte	0x11
 2423 0b92 BB       		.byte	0xbb
 2424 0b93 94000000 		.4byte	0x94
ARM GAS  C:\Users\DNIEL~1\AppData\Local\Temp\cc3Fm2Fs.s 			page 45


 2425 0b97 01       		.byte	0x1
 2426 0b98 01       		.byte	0x1
 2427 0b99 02       		.byte	0x2
 2428 0b9a 02       		.byte	0x2
 2429 0b9b 23       		.byte	0x23
 2430 0b9c 00       		.uleb128 0x0
 2431 0b9d 00       		.byte	0x0
 2432 0b9e 0B       		.uleb128 0xb
 2433 0b9f 04       		.byte	0x4
 2434 0ba0 11       		.byte	0x11
 2435 0ba1 BE       		.byte	0xbe
 2436 0ba2 B80B0000 		.4byte	0xbb8
 2437 0ba6 1B       		.uleb128 0x1b
 2438 0ba7 53494400 		.ascii	"SID\000"
 2439 0bab 11       		.byte	0x11
 2440 0bac BF       		.byte	0xbf
 2441 0bad B5000000 		.4byte	0xb5
 2442 0bb1 04       		.byte	0x4
 2443 0bb2 0B       		.byte	0xb
 2444 0bb3 15       		.byte	0x15
 2445 0bb4 02       		.byte	0x2
 2446 0bb5 23       		.byte	0x23
 2447 0bb6 00       		.uleb128 0x0
 2448 0bb7 00       		.byte	0x0
 2449 0bb8 0B       		.uleb128 0xb
 2450 0bb9 04       		.byte	0x4
 2451 0bba 11       		.byte	0x11
 2452 0bbb C1       		.byte	0xc1
 2453 0bbc D20B0000 		.4byte	0xbd2
 2454 0bc0 1B       		.uleb128 0x1b
 2455 0bc1 45494400 		.ascii	"EID\000"
 2456 0bc5 11       		.byte	0x11
 2457 0bc6 C2       		.byte	0xc2
 2458 0bc7 B5000000 		.4byte	0xb5
 2459 0bcb 04       		.byte	0x4
 2460 0bcc 1D       		.byte	0x1d
 2461 0bcd 03       		.byte	0x3
 2462 0bce 02       		.byte	0x2
 2463 0bcf 23       		.byte	0x23
 2464 0bd0 00       		.uleb128 0x0
 2465 0bd1 00       		.byte	0x0
 2466 0bd2 0F       		.uleb128 0xf
 2467 0bd3 04       		.byte	0x4
 2468 0bd4 11       		.byte	0x11
 2469 0bd5 BD       		.byte	0xbd
 2470 0bd6 E50B0000 		.4byte	0xbe5
 2471 0bda 1C       		.uleb128 0x1c
 2472 0bdb 9E0B0000 		.4byte	0xb9e
 2473 0bdf 1C       		.uleb128 0x1c
 2474 0be0 B80B0000 		.4byte	0xbb8
 2475 0be4 00       		.byte	0x0
 2476 0be5 0F       		.uleb128 0xf
 2477 0be6 08       		.byte	0x8
 2478 0be7 11       		.byte	0x11
 2479 0be8 C5       		.byte	0xc5
 2480 0be9 0F0C0000 		.4byte	0xc0f
 2481 0bed 10       		.uleb128 0x10
ARM GAS  C:\Users\DNIEL~1\AppData\Local\Temp\cc3Fm2Fs.s 			page 46


 2482 0bee AA050000 		.4byte	.LASF119
 2483 0bf2 11       		.byte	0x11
 2484 0bf3 C6       		.byte	0xc6
 2485 0bf4 F10A0000 		.4byte	0xaf1
 2486 0bf8 10       		.uleb128 0x10
 2487 0bf9 FB050000 		.4byte	.LASF120
 2488 0bfd 11       		.byte	0x11
 2489 0bfe C7       		.byte	0xc7
 2490 0bff 010B0000 		.4byte	0xb01
 2491 0c03 10       		.uleb128 0x10
 2492 0c04 9E000000 		.4byte	.LASF121
 2493 0c08 11       		.byte	0x11
 2494 0c09 C8       		.byte	0xc8
 2495 0c0a 38060000 		.4byte	0x638
 2496 0c0e 00       		.byte	0x0
 2497 0c0f 0B       		.uleb128 0xb
 2498 0c10 14       		.byte	0x14
 2499 0c11 11       		.byte	0x11
 2500 0c12 B3       		.byte	0xb3
 2501 0c13 380C0000 		.4byte	0xc38
 2502 0c17 1D       		.uleb128 0x1d
 2503 0c18 3D0B0000 		.4byte	0xb3d
 2504 0c1c 02       		.byte	0x2
 2505 0c1d 23       		.byte	0x23
 2506 0c1e 00       		.uleb128 0x0
 2507 0c1f 1D       		.uleb128 0x1d
 2508 0c20 620B0000 		.4byte	0xb62
 2509 0c24 02       		.byte	0x2
 2510 0c25 23       		.byte	0x23
 2511 0c26 04       		.uleb128 0x4
 2512 0c27 1D       		.uleb128 0x1d
 2513 0c28 D20B0000 		.4byte	0xbd2
 2514 0c2c 02       		.byte	0x2
 2515 0c2d 23       		.byte	0x23
 2516 0c2e 08       		.uleb128 0x8
 2517 0c2f 1D       		.uleb128 0x1d
 2518 0c30 E50B0000 		.4byte	0xbe5
 2519 0c34 02       		.byte	0x2
 2520 0c35 23       		.byte	0x23
 2521 0c36 0C       		.uleb128 0xc
 2522 0c37 00       		.byte	0x0
 2523 0c38 02       		.uleb128 0x2
 2524 0c39 20000000 		.4byte	.LASF124
 2525 0c3d 11       		.byte	0x11
 2526 0c3e CA       		.byte	0xca
 2527 0c3f 0F0C0000 		.4byte	0xc0f
 2528 0c43 0B       		.uleb128 0xb
 2529 0c44 08       		.byte	0x8
 2530 0c45 11       		.byte	0x11
 2531 0c46 F4       		.byte	0xf4
 2532 0c47 690C0000 		.4byte	0xc69
 2533 0c4b 0A       		.uleb128 0xa
 2534 0c4c 6D637200 		.ascii	"mcr\000"
 2535 0c50 11       		.byte	0x11
 2536 0c51 FA       		.byte	0xfa
 2537 0c52 B5000000 		.4byte	0xb5
 2538 0c56 02       		.byte	0x2
ARM GAS  C:\Users\DNIEL~1\AppData\Local\Temp\cc3Fm2Fs.s 			page 47


 2539 0c57 23       		.byte	0x23
 2540 0c58 00       		.uleb128 0x0
 2541 0c59 0D       		.uleb128 0xd
 2542 0c5a 62747200 		.ascii	"btr\000"
 2543 0c5e 11       		.byte	0x11
 2544 0c5f 0001     		.2byte	0x100
 2545 0c61 B5000000 		.4byte	0xb5
 2546 0c65 02       		.byte	0x2
 2547 0c66 23       		.byte	0x23
 2548 0c67 04       		.uleb128 0x4
 2549 0c68 00       		.byte	0x0
 2550 0c69 17       		.uleb128 0x17
 2551 0c6a 4E000000 		.4byte	.LASF125
 2552 0c6e 11       		.byte	0x11
 2553 0c6f 0101     		.2byte	0x101
 2554 0c71 430C0000 		.4byte	0xc43
 2555 0c75 15       		.uleb128 0x15
 2556 0c76 38       		.byte	0x38
 2557 0c77 11       		.byte	0x11
 2558 0c78 0601     		.2byte	0x106
 2559 0c7a 150D0000 		.4byte	0xd15
 2560 0c7e 16       		.uleb128 0x16
 2561 0c7f 2E010000 		.4byte	.LASF126
 2562 0c83 11       		.byte	0x11
 2563 0c84 0A01     		.2byte	0x10a
 2564 0c86 390A0000 		.4byte	0xa39
 2565 0c8a 02       		.byte	0x2
 2566 0c8b 23       		.byte	0x23
 2567 0c8c 00       		.uleb128 0x0
 2568 0c8d 16       		.uleb128 0x16
 2569 0c8e 82050000 		.4byte	.LASF127
 2570 0c92 11       		.byte	0x11
 2571 0c93 0E01     		.2byte	0x10e
 2572 0c95 150D0000 		.4byte	0xd15
 2573 0c99 02       		.byte	0x2
 2574 0c9a 23       		.byte	0x23
 2575 0c9b 04       		.uleb128 0x4
 2576 0c9c 16       		.uleb128 0x16
 2577 0c9d 1E010000 		.4byte	.LASF128
 2578 0ca1 11       		.byte	0x11
 2579 0ca2 1201     		.2byte	0x112
 2580 0ca4 2A040000 		.4byte	0x42a
 2581 0ca8 02       		.byte	0x2
 2582 0ca9 23       		.byte	0x23
 2583 0caa 08       		.uleb128 0x8
 2584 0cab 16       		.uleb128 0x16
 2585 0cac 56060000 		.4byte	.LASF129
 2586 0cb0 11       		.byte	0x11
 2587 0cb1 1601     		.2byte	0x116
 2588 0cb3 2A040000 		.4byte	0x42a
 2589 0cb7 02       		.byte	0x2
 2590 0cb8 23       		.byte	0x23
 2591 0cb9 14       		.uleb128 0x14
 2592 0cba 16       		.uleb128 0x16
 2593 0cbb C4010000 		.4byte	.LASF130
 2594 0cbf 11       		.byte	0x11
 2595 0cc0 2301     		.2byte	0x123
ARM GAS  C:\Users\DNIEL~1\AppData\Local\Temp\cc3Fm2Fs.s 			page 48


 2596 0cc2 EE040000 		.4byte	0x4ee
 2597 0cc6 02       		.byte	0x2
 2598 0cc7 23       		.byte	0x23
 2599 0cc8 20       		.uleb128 0x20
 2600 0cc9 16       		.uleb128 0x16
 2601 0cca 4E050000 		.4byte	.LASF131
 2602 0cce 11       		.byte	0x11
 2603 0ccf 2A01     		.2byte	0x12a
 2604 0cd1 EE040000 		.4byte	0x4ee
 2605 0cd5 02       		.byte	0x2
 2606 0cd6 23       		.byte	0x23
 2607 0cd7 24       		.uleb128 0x24
 2608 0cd8 16       		.uleb128 0x16
 2609 0cd9 E0030000 		.4byte	.LASF132
 2610 0cdd 11       		.byte	0x11
 2611 0cde 3001     		.2byte	0x130
 2612 0ce0 EE040000 		.4byte	0x4ee
 2613 0ce4 02       		.byte	0x2
 2614 0ce5 23       		.byte	0x23
 2615 0ce6 28       		.uleb128 0x28
 2616 0ce7 16       		.uleb128 0x16
 2617 0ce8 BA030000 		.4byte	.LASF133
 2618 0cec 11       		.byte	0x11
 2619 0ced 3501     		.2byte	0x135
 2620 0cef EE040000 		.4byte	0x4ee
 2621 0cf3 02       		.byte	0x2
 2622 0cf4 23       		.byte	0x23
 2623 0cf5 2C       		.uleb128 0x2c
 2624 0cf6 16       		.uleb128 0x16
 2625 0cf7 77040000 		.4byte	.LASF134
 2626 0cfb 11       		.byte	0x11
 2627 0cfc 3901     		.2byte	0x139
 2628 0cfe EE040000 		.4byte	0x4ee
 2629 0d02 02       		.byte	0x2
 2630 0d03 23       		.byte	0x23
 2631 0d04 30       		.uleb128 0x30
 2632 0d05 0D       		.uleb128 0xd
 2633 0d06 63616E00 		.ascii	"can\000"
 2634 0d0a 11       		.byte	0x11
 2635 0d0b 3F01     		.2byte	0x13f
 2636 0d0d 200D0000 		.4byte	0xd20
 2637 0d11 02       		.byte	0x2
 2638 0d12 23       		.byte	0x23
 2639 0d13 34       		.uleb128 0x34
 2640 0d14 00       		.byte	0x0
 2641 0d15 06       		.uleb128 0x6
 2642 0d16 04       		.byte	0x4
 2643 0d17 1B0D0000 		.4byte	0xd1b
 2644 0d1b 07       		.uleb128 0x7
 2645 0d1c 690C0000 		.4byte	0xc69
 2646 0d20 06       		.uleb128 0x6
 2647 0d21 04       		.byte	0x4
 2648 0d22 D7080000 		.4byte	0x8d7
 2649 0d26 17       		.uleb128 0x17
 2650 0d27 6B030000 		.4byte	.LASF135
 2651 0d2b 11       		.byte	0x11
 2652 0d2c 4001     		.2byte	0x140
ARM GAS  C:\Users\DNIEL~1\AppData\Local\Temp\cc3Fm2Fs.s 			page 49


 2653 0d2e 750C0000 		.4byte	0xc75
 2654 0d32 02       		.uleb128 0x2
 2655 0d33 5C030000 		.4byte	.LASF136
 2656 0d37 12       		.byte	0x12
 2657 0d38 28       		.byte	0x28
 2658 0d39 3D0D0000 		.4byte	0xd3d
 2659 0d3d 08       		.uleb128 0x8
 2660 0d3e 61010000 		.4byte	.LASF137
 2661 0d42 04       		.byte	0x4
 2662 0d43 13       		.byte	0x13
 2663 0d44 00       		.byte	0x0
 2664 0d45 570D0000 		.4byte	0xd57
 2665 0d49 1E       		.uleb128 0x1e
 2666 0d4a BD050000 		.4byte	.LASF138
 2667 0d4e 73000000 		.4byte	0x73
 2668 0d52 02       		.byte	0x2
 2669 0d53 23       		.byte	0x23
 2670 0d54 00       		.uleb128 0x0
 2671 0d55 01       		.byte	0x1
 2672 0d56 00       		.byte	0x0
 2673 0d57 02       		.uleb128 0x2
 2674 0d58 46000000 		.4byte	.LASF139
 2675 0d5c 12       		.byte	0x12
 2676 0d5d 66       		.byte	0x66
 2677 0d5e 320D0000 		.4byte	0xd32
 2678 0d62 03       		.uleb128 0x3
 2679 0d63 08       		.byte	0x8
 2680 0d64 04       		.byte	0x4
 2681 0d65 97010000 		.4byte	.LASF140
 2682 0d69 03       		.uleb128 0x3
 2683 0d6a 04       		.byte	0x4
 2684 0d6b 04       		.byte	0x4
 2685 0d6c EC030000 		.4byte	.LASF141
 2686 0d70 03       		.uleb128 0x3
 2687 0d71 08       		.byte	0x8
 2688 0d72 04       		.byte	0x4
 2689 0d73 31030000 		.4byte	.LASF142
 2690 0d77 1F       		.uleb128 0x1f
 2691 0d78 38060000 		.4byte	.LASF150
 2692 0d7c 01       		.byte	0x1
 2693 0d7d 02       		.byte	0x2
 2694 0d7e 2D       		.byte	0x2d
 2695 0d7f AE0D0000 		.4byte	0xdae
 2696 0d83 1A       		.uleb128 0x1a
 2697 0d84 75030000 		.4byte	.LASF143
 2698 0d88 00       		.sleb128 0
 2699 0d89 1A       		.uleb128 0x1a
 2700 0d8a 01050000 		.4byte	.LASF144
 2701 0d8e 01       		.sleb128 1
 2702 0d8f 1A       		.uleb128 0x1a
 2703 0d90 5C060000 		.4byte	.LASF145
 2704 0d94 02       		.sleb128 2
 2705 0d95 1A       		.uleb128 0x1a
 2706 0d96 3B000000 		.4byte	.LASF146
 2707 0d9a 03       		.sleb128 3
 2708 0d9b 1A       		.uleb128 0x1a
 2709 0d9c 78050000 		.4byte	.LASF147
ARM GAS  C:\Users\DNIEL~1\AppData\Local\Temp\cc3Fm2Fs.s 			page 50


 2710 0da0 04       		.sleb128 4
 2711 0da1 1A       		.uleb128 0x1a
 2712 0da2 55020000 		.4byte	.LASF148
 2713 0da6 05       		.sleb128 5
 2714 0da7 1A       		.uleb128 0x1a
 2715 0da8 4E030000 		.4byte	.LASF149
 2716 0dac 06       		.sleb128 6
 2717 0dad 00       		.byte	0x0
 2718 0dae 1F       		.uleb128 0x1f
 2719 0daf 7B010000 		.4byte	.LASF151
 2720 0db3 01       		.byte	0x1
 2721 0db4 02       		.byte	0x2
 2722 0db5 38       		.byte	0x38
 2723 0db6 C70D0000 		.4byte	0xdc7
 2724 0dba 1A       		.uleb128 0x1a
 2725 0dbb 1C030000 		.4byte	.LASF152
 2726 0dbf 00       		.sleb128 0
 2727 0dc0 1A       		.uleb128 0x1a
 2728 0dc1 08010000 		.4byte	.LASF153
 2729 0dc5 01       		.sleb128 1
 2730 0dc6 00       		.byte	0x0
 2731 0dc7 20       		.uleb128 0x20
 2732 0dc8 D7060000 		.4byte	.LASF176
 2733 0dcc 01       		.byte	0x1
 2734 0dcd 45       		.byte	0x45
 2735 0dce 01       		.byte	0x1
 2736 0dcf 00000000 		.4byte	.LFB118
 2737 0dd3 1E000000 		.4byte	.LFE118
 2738 0dd7 00000000 		.4byte	.LLST0
 2739 0ddb 0B0E0000 		.4byte	0xe0b
 2740 0ddf 21       		.uleb128 0x21
 2741 0de0 63687000 		.ascii	"chp\000"
 2742 0de4 01       		.byte	0x1
 2743 0de5 45       		.byte	0x45
 2744 0de6 0B0E0000 		.4byte	0xe0b
 2745 0dea 38000000 		.4byte	.LLST1
 2746 0dee 22       		.uleb128 0x22
 2747 0def 666D7400 		.ascii	"fmt\000"
 2748 0df3 01       		.byte	0x1
 2749 0df4 45       		.byte	0x45
 2750 0df5 89000000 		.4byte	0x89
 2751 0df9 02       		.byte	0x2
 2752 0dfa 91       		.byte	0x91
 2753 0dfb 74       		.sleb128 -12
 2754 0dfc 23       		.uleb128 0x23
 2755 0dfd 24       		.uleb128 0x24
 2756 0dfe 617000   		.ascii	"ap\000"
 2757 0e01 01       		.byte	0x1
 2758 0e02 46       		.byte	0x46
 2759 0e03 570D0000 		.4byte	0xd57
 2760 0e07 02       		.byte	0x2
 2761 0e08 91       		.byte	0x91
 2762 0e09 6C       		.sleb128 -20
 2763 0e0a 00       		.byte	0x0
 2764 0e0b 06       		.uleb128 0x6
 2765 0e0c 04       		.byte	0x4
 2766 0e0d 1D060000 		.4byte	0x61d
ARM GAS  C:\Users\DNIEL~1\AppData\Local\Temp\cc3Fm2Fs.s 			page 51


 2767 0e11 25       		.uleb128 0x25
 2768 0e12 F5020000 		.4byte	.LASF155
 2769 0e16 02       		.byte	0x2
 2770 0e17 4D       		.byte	0x4d
 2771 0e18 01       		.byte	0x1
 2772 0e19 09010000 		.4byte	0x109
 2773 0e1d 00000000 		.4byte	.LFB119
 2774 0e21 04010000 		.4byte	.LFE119
 2775 0e25 4B000000 		.4byte	.LLST2
 2776 0e29 570E0000 		.4byte	0xe57
 2777 0e2d 21       		.uleb128 0x21
 2778 0e2e 7000     		.ascii	"p\000"
 2779 0e30 02       		.byte	0x2
 2780 0e31 4D       		.byte	0x4d
 2781 0e32 73000000 		.4byte	0x73
 2782 0e36 77000000 		.4byte	.LLST3
 2783 0e3a 24       		.uleb128 0x24
 2784 0e3b 656C00   		.ascii	"el\000"
 2785 0e3e 02       		.byte	0x2
 2786 0e3f 4E       		.byte	0x4e
 2787 0e40 7D040000 		.4byte	0x47d
 2788 0e44 02       		.byte	0x2
 2789 0e45 91       		.byte	0x91
 2790 0e46 58       		.sleb128 -40
 2791 0e47 26       		.uleb128 0x26
 2792 0e48 AC000000 		.4byte	.LASF154
 2793 0e4c 02       		.byte	0x2
 2794 0e4d 50       		.byte	0x50
 2795 0e4e 57000000 		.4byte	0x57
 2796 0e52 8A000000 		.4byte	.LLST4
 2797 0e56 00       		.byte	0x0
 2798 0e57 25       		.uleb128 0x25
 2799 0e58 17050000 		.4byte	.LASF156
 2800 0e5c 02       		.byte	0x2
 2801 0e5d A1       		.byte	0xa1
 2802 0e5e 01       		.byte	0x1
 2803 0e5f 09010000 		.4byte	0x109
 2804 0e63 00000000 		.4byte	.LFB120
 2805 0e67 74000000 		.4byte	.LFE120
 2806 0e6b 9E000000 		.4byte	.LLST5
 2807 0e6f 900E0000 		.4byte	0xe90
 2808 0e73 21       		.uleb128 0x21
 2809 0e74 7000     		.ascii	"p\000"
 2810 0e76 02       		.byte	0x2
 2811 0e77 A1       		.byte	0xa1
 2812 0e78 73000000 		.4byte	0x73
 2813 0e7c BE000000 		.4byte	.LLST6
 2814 0e80 26       		.uleb128 0x26
 2815 0e81 8C060000 		.4byte	.LASF157
 2816 0e85 02       		.byte	0x2
 2817 0e86 A6       		.byte	0xa6
 2818 0e87 57000000 		.4byte	0x57
 2819 0e8b D1000000 		.4byte	.LLST7
 2820 0e8f 00       		.byte	0x0
 2821 0e90 27       		.uleb128 0x27
 2822 0e91 01       		.byte	0x1
 2823 0e92 F2030000 		.4byte	.LASF177
ARM GAS  C:\Users\DNIEL~1\AppData\Local\Temp\cc3Fm2Fs.s 			page 52


 2824 0e96 02       		.byte	0x2
 2825 0e97 C0       		.byte	0xc0
 2826 0e98 01       		.byte	0x1
 2827 0e99 00000000 		.4byte	.LFB121
 2828 0e9d 64000000 		.4byte	.LFE121
 2829 0ea1 F1000000 		.4byte	.LLST8
 2830 0ea5 28       		.uleb128 0x28
 2831 0ea6 01       		.byte	0x1
 2832 0ea7 06000000 		.4byte	.LASF178
 2833 0eab 02       		.byte	0x2
 2834 0eac CB       		.byte	0xcb
 2835 0ead 01       		.byte	0x1
 2836 0eae 00000000 		.4byte	.LFB122
 2837 0eb2 4C010000 		.4byte	.LFE122
 2838 0eb6 1D010000 		.4byte	.LLST9
 2839 0eba EC0E0000 		.4byte	0xeec
 2840 0ebe 21       		.uleb128 0x21
 2841 0ebf 63687000 		.ascii	"chp\000"
 2842 0ec3 02       		.byte	0x2
 2843 0ec4 CB       		.byte	0xcb
 2844 0ec5 0B0E0000 		.4byte	0xe0b
 2845 0ec9 3D010000 		.4byte	.LLST10
 2846 0ecd 29       		.uleb128 0x29
 2847 0ece 87060000 		.4byte	.LASF158
 2848 0ed2 02       		.byte	0x2
 2849 0ed3 CB       		.byte	0xcb
 2850 0ed4 57000000 		.4byte	0x57
 2851 0ed8 5B010000 		.4byte	.LLST11
 2852 0edc 29       		.uleb128 0x29
 2853 0edd BA060000 		.4byte	.LASF159
 2854 0ee1 02       		.byte	0x2
 2855 0ee2 CB       		.byte	0xcb
 2856 0ee3 EC0E0000 		.4byte	0xeec
 2857 0ee7 6E010000 		.4byte	.LLST12
 2858 0eeb 00       		.byte	0x0
 2859 0eec 06       		.uleb128 0x6
 2860 0eed 04       		.byte	0x4
 2861 0eee 7C000000 		.4byte	0x7c
 2862 0ef2 2A       		.uleb128 0x2a
 2863 0ef3 EE010000 		.4byte	.LASF160
 2864 0ef7 09       		.byte	0x9
 2865 0ef8 6F       		.byte	0x6f
 2866 0ef9 F6030000 		.4byte	0x3f6
 2867 0efd 01       		.byte	0x1
 2868 0efe 01       		.byte	0x1
 2869 0eff 2B       		.uleb128 0x2b
 2870 0f00 90040000 		.4byte	.LASF161
 2871 0f04 14       		.byte	0x14
 2872 0f05 9806     		.2byte	0x698
 2873 0f07 48060000 		.4byte	0x648
 2874 0f0b 01       		.byte	0x1
 2875 0f0c 01       		.byte	0x1
 2876 0f0d 2B       		.uleb128 0x2b
 2877 0f0e 2D020000 		.4byte	.LASF162
 2878 0f12 11       		.byte	0x11
 2879 0f13 4B01     		.2byte	0x14b
 2880 0f15 260D0000 		.4byte	0xd26
ARM GAS  C:\Users\DNIEL~1\AppData\Local\Temp\cc3Fm2Fs.s 			page 53


 2881 0f19 01       		.byte	0x1
 2882 0f1a 01       		.byte	0x1
 2883 0f1b 2A       		.uleb128 0x2a
 2884 0f1c 0B050000 		.4byte	.LASF163
 2885 0f20 02       		.byte	0x2
 2886 0f21 36       		.byte	0x36
 2887 0f22 770D0000 		.4byte	0xd77
 2888 0f26 01       		.byte	0x1
 2889 0f27 01       		.byte	0x1
 2890 0f28 2C       		.uleb128 0x2c
 2891 0f29 69000000 		.4byte	.LASF164
 2892 0f2d 02       		.byte	0x2
 2893 0f2e 3E       		.byte	0x3e
 2894 0f2f 320B0000 		.4byte	0xb32
 2895 0f33 05       		.byte	0x5
 2896 0f34 03       		.byte	0x3
 2897 0f35 00000000 		.4byte	txmsg
 2898 0f39 2C       		.uleb128 0x2c
 2899 0f3a 00000000 		.4byte	.LASF165
 2900 0f3e 02       		.byte	0x2
 2901 0f3f 3F       		.byte	0x3f
 2902 0f40 380C0000 		.4byte	0xc38
 2903 0f44 05       		.byte	0x5
 2904 0f45 03       		.byte	0x3
 2905 0f46 00000000 		.4byte	rxmsg
 2906 0f4a 2C       		.uleb128 0x2c
 2907 0f4b 47030000 		.4byte	.LASF166
 2908 0f4f 02       		.byte	0x2
 2909 0f50 41       		.byte	0x41
 2910 0f51 1B0D0000 		.4byte	0xd1b
 2911 0f55 05       		.byte	0x5
 2912 0f56 03       		.byte	0x3
 2913 0f57 00000000 		.4byte	cancfg
 2914 0f5b 24       		.uleb128 0x24
 2915 0f5c 696400   		.ascii	"id\000"
 2916 0f5f 02       		.byte	0x2
 2917 0f60 47       		.byte	0x47
 2918 0f61 9F000000 		.4byte	0x9f
 2919 0f65 05       		.byte	0x5
 2920 0f66 03       		.byte	0x3
 2921 0f67 00000000 		.4byte	id
 2922 0f6b 2C       		.uleb128 0x2c
 2923 0f6c 72010000 		.4byte	.LASF167
 2924 0f70 02       		.byte	0x2
 2925 0f71 48       		.byte	0x48
 2926 0f72 9F000000 		.4byte	0x9f
 2927 0f76 05       		.byte	0x5
 2928 0f77 03       		.byte	0x3
 2929 0f78 00000000 		.4byte	messages
 2930 0f7c 2D       		.uleb128 0x2d
 2931 0f7d 4C060000 		.4byte	.LASF168
 2932 0f81 02       		.byte	0x2
 2933 0f82 49       		.byte	0x49
 2934 0f83 9F000000 		.4byte	0x9f
 2935 0f87 2D       		.uleb128 0x2d
 2936 0f88 9E010000 		.4byte	.LASF169
 2937 0f8c 02       		.byte	0x2
ARM GAS  C:\Users\DNIEL~1\AppData\Local\Temp\cc3Fm2Fs.s 			page 54


 2938 0f8d 4A       		.byte	0x4a
 2939 0f8e 9F000000 		.4byte	0x9f
 2940 0f92 13       		.uleb128 0x13
 2941 0f93 D3020000 		.4byte	0x2d3
 2942 0f97 A20F0000 		.4byte	0xfa2
 2943 0f9b 14       		.uleb128 0x14
 2944 0f9c 34000000 		.4byte	0x34
 2945 0fa0 39       		.byte	0x39
 2946 0fa1 00       		.byte	0x0
 2947 0fa2 2C       		.uleb128 0x2c
 2948 0fa3 FC020000 		.4byte	.LASF170
 2949 0fa7 02       		.byte	0x2
 2950 0fa8 4C       		.byte	0x4c
 2951 0fa9 920F0000 		.4byte	0xf92
 2952 0fad 05       		.byte	0x5
 2953 0fae 03       		.byte	0x3
 2954 0faf 00000000 		.4byte	can_rx_wa
 2955 0fb3 2C       		.uleb128 0x2c
 2956 0fb4 1E050000 		.4byte	.LASF171
 2957 0fb8 02       		.byte	0x2
 2958 0fb9 A0       		.byte	0xa0
 2959 0fba 920F0000 		.4byte	0xf92
 2960 0fbe 05       		.byte	0x5
 2961 0fbf 03       		.byte	0x3
 2962 0fc0 00000000 		.4byte	can_tx_wa
 2963 0fc4 2A       		.uleb128 0x2a
 2964 0fc5 EE010000 		.4byte	.LASF160
 2965 0fc9 09       		.byte	0x9
 2966 0fca 6F       		.byte	0x6f
 2967 0fcb F6030000 		.4byte	0x3f6
 2968 0fcf 01       		.byte	0x1
 2969 0fd0 01       		.byte	0x1
 2970 0fd1 2B       		.uleb128 0x2b
 2971 0fd2 90040000 		.4byte	.LASF161
 2972 0fd6 14       		.byte	0x14
 2973 0fd7 9806     		.2byte	0x698
 2974 0fd9 48060000 		.4byte	0x648
 2975 0fdd 01       		.byte	0x1
 2976 0fde 01       		.byte	0x1
 2977 0fdf 2B       		.uleb128 0x2b
 2978 0fe0 2D020000 		.4byte	.LASF162
 2979 0fe4 11       		.byte	0x11
 2980 0fe5 4B01     		.2byte	0x14b
 2981 0fe7 260D0000 		.4byte	0xd26
 2982 0feb 01       		.byte	0x1
 2983 0fec 01       		.byte	0x1
 2984 0fed 2E       		.uleb128 0x2e
 2985 0fee 0B050000 		.4byte	.LASF163
 2986 0ff2 02       		.byte	0x2
 2987 0ff3 36       		.byte	0x36
 2988 0ff4 770D0000 		.4byte	0xd77
 2989 0ff8 01       		.byte	0x1
 2990 0ff9 05       		.byte	0x5
 2991 0ffa 03       		.byte	0x3
 2992 0ffb 00000000 		.4byte	can_rxstate
 2993 0fff 2E       		.uleb128 0x2e
 2994 1000 3E020000 		.4byte	.LASF172
ARM GAS  C:\Users\DNIEL~1\AppData\Local\Temp\cc3Fm2Fs.s 			page 55


 2995 1004 02       		.byte	0x2
 2996 1005 3C       		.byte	0x3c
 2997 1006 AE0D0000 		.4byte	0xdae
 2998 100a 01       		.byte	0x1
 2999 100b 05       		.byte	0x5
 3000 100c 03       		.byte	0x3
 3001 100d 00000000 		.4byte	can_txstate
 3002 1011 00       		.byte	0x0
 3003              		.section	.debug_abbrev
 3004 0000 01       		.uleb128 0x1
 3005 0001 11       		.uleb128 0x11
 3006 0002 01       		.byte	0x1
 3007 0003 25       		.uleb128 0x25
 3008 0004 0E       		.uleb128 0xe
 3009 0005 13       		.uleb128 0x13
 3010 0006 0B       		.uleb128 0xb
 3011 0007 03       		.uleb128 0x3
 3012 0008 0E       		.uleb128 0xe
 3013 0009 1B       		.uleb128 0x1b
 3014 000a 0E       		.uleb128 0xe
 3015 000b 11       		.uleb128 0x11
 3016 000c 01       		.uleb128 0x1
 3017 000d 52       		.uleb128 0x52
 3018 000e 01       		.uleb128 0x1
 3019 000f 55       		.uleb128 0x55
 3020 0010 06       		.uleb128 0x6
 3021 0011 10       		.uleb128 0x10
 3022 0012 06       		.uleb128 0x6
 3023 0013 00       		.byte	0x0
 3024 0014 00       		.byte	0x0
 3025 0015 02       		.uleb128 0x2
 3026 0016 16       		.uleb128 0x16
 3027 0017 00       		.byte	0x0
 3028 0018 03       		.uleb128 0x3
 3029 0019 0E       		.uleb128 0xe
 3030 001a 3A       		.uleb128 0x3a
 3031 001b 0B       		.uleb128 0xb
 3032 001c 3B       		.uleb128 0x3b
 3033 001d 0B       		.uleb128 0xb
 3034 001e 49       		.uleb128 0x49
 3035 001f 13       		.uleb128 0x13
 3036 0020 00       		.byte	0x0
 3037 0021 00       		.byte	0x0
 3038 0022 03       		.uleb128 0x3
 3039 0023 24       		.uleb128 0x24
 3040 0024 00       		.byte	0x0
 3041 0025 0B       		.uleb128 0xb
 3042 0026 0B       		.uleb128 0xb
 3043 0027 3E       		.uleb128 0x3e
 3044 0028 0B       		.uleb128 0xb
 3045 0029 03       		.uleb128 0x3
 3046 002a 0E       		.uleb128 0xe
 3047 002b 00       		.byte	0x0
 3048 002c 00       		.byte	0x0
 3049 002d 04       		.uleb128 0x4
 3050 002e 24       		.uleb128 0x24
 3051 002f 00       		.byte	0x0
ARM GAS  C:\Users\DNIEL~1\AppData\Local\Temp\cc3Fm2Fs.s 			page 56


 3052 0030 0B       		.uleb128 0xb
 3053 0031 0B       		.uleb128 0xb
 3054 0032 3E       		.uleb128 0x3e
 3055 0033 0B       		.uleb128 0xb
 3056 0034 03       		.uleb128 0x3
 3057 0035 08       		.uleb128 0x8
 3058 0036 00       		.byte	0x0
 3059 0037 00       		.byte	0x0
 3060 0038 05       		.uleb128 0x5
 3061 0039 0F       		.uleb128 0xf
 3062 003a 00       		.byte	0x0
 3063 003b 0B       		.uleb128 0xb
 3064 003c 0B       		.uleb128 0xb
 3065 003d 00       		.byte	0x0
 3066 003e 00       		.byte	0x0
 3067 003f 06       		.uleb128 0x6
 3068 0040 0F       		.uleb128 0xf
 3069 0041 00       		.byte	0x0
 3070 0042 0B       		.uleb128 0xb
 3071 0043 0B       		.uleb128 0xb
 3072 0044 49       		.uleb128 0x49
 3073 0045 13       		.uleb128 0x13
 3074 0046 00       		.byte	0x0
 3075 0047 00       		.byte	0x0
 3076 0048 07       		.uleb128 0x7
 3077 0049 26       		.uleb128 0x26
 3078 004a 00       		.byte	0x0
 3079 004b 49       		.uleb128 0x49
 3080 004c 13       		.uleb128 0x13
 3081 004d 00       		.byte	0x0
 3082 004e 00       		.byte	0x0
 3083 004f 08       		.uleb128 0x8
 3084 0050 13       		.uleb128 0x13
 3085 0051 01       		.byte	0x1
 3086 0052 03       		.uleb128 0x3
 3087 0053 0E       		.uleb128 0xe
 3088 0054 0B       		.uleb128 0xb
 3089 0055 0B       		.uleb128 0xb
 3090 0056 3A       		.uleb128 0x3a
 3091 0057 0B       		.uleb128 0xb
 3092 0058 3B       		.uleb128 0x3b
 3093 0059 0B       		.uleb128 0xb
 3094 005a 01       		.uleb128 0x1
 3095 005b 13       		.uleb128 0x13
 3096 005c 00       		.byte	0x0
 3097 005d 00       		.byte	0x0
 3098 005e 09       		.uleb128 0x9
 3099 005f 0D       		.uleb128 0xd
 3100 0060 00       		.byte	0x0
 3101 0061 03       		.uleb128 0x3
 3102 0062 0E       		.uleb128 0xe
 3103 0063 3A       		.uleb128 0x3a
 3104 0064 0B       		.uleb128 0xb
 3105 0065 3B       		.uleb128 0x3b
 3106 0066 0B       		.uleb128 0xb
 3107 0067 49       		.uleb128 0x49
 3108 0068 13       		.uleb128 0x13
ARM GAS  C:\Users\DNIEL~1\AppData\Local\Temp\cc3Fm2Fs.s 			page 57


 3109 0069 38       		.uleb128 0x38
 3110 006a 0A       		.uleb128 0xa
 3111 006b 00       		.byte	0x0
 3112 006c 00       		.byte	0x0
 3113 006d 0A       		.uleb128 0xa
 3114 006e 0D       		.uleb128 0xd
 3115 006f 00       		.byte	0x0
 3116 0070 03       		.uleb128 0x3
 3117 0071 08       		.uleb128 0x8
 3118 0072 3A       		.uleb128 0x3a
 3119 0073 0B       		.uleb128 0xb
 3120 0074 3B       		.uleb128 0x3b
 3121 0075 0B       		.uleb128 0xb
 3122 0076 49       		.uleb128 0x49
 3123 0077 13       		.uleb128 0x13
 3124 0078 38       		.uleb128 0x38
 3125 0079 0A       		.uleb128 0xa
 3126 007a 00       		.byte	0x0
 3127 007b 00       		.byte	0x0
 3128 007c 0B       		.uleb128 0xb
 3129 007d 13       		.uleb128 0x13
 3130 007e 01       		.byte	0x1
 3131 007f 0B       		.uleb128 0xb
 3132 0080 0B       		.uleb128 0xb
 3133 0081 3A       		.uleb128 0x3a
 3134 0082 0B       		.uleb128 0xb
 3135 0083 3B       		.uleb128 0x3b
 3136 0084 0B       		.uleb128 0xb
 3137 0085 01       		.uleb128 0x1
 3138 0086 13       		.uleb128 0x13
 3139 0087 00       		.byte	0x0
 3140 0088 00       		.byte	0x0
 3141 0089 0C       		.uleb128 0xc
 3142 008a 13       		.uleb128 0x13
 3143 008b 01       		.byte	0x1
 3144 008c 03       		.uleb128 0x3
 3145 008d 0E       		.uleb128 0xe
 3146 008e 0B       		.uleb128 0xb
 3147 008f 0B       		.uleb128 0xb
 3148 0090 3A       		.uleb128 0x3a
 3149 0091 0B       		.uleb128 0xb
 3150 0092 3B       		.uleb128 0x3b
 3151 0093 05       		.uleb128 0x5
 3152 0094 01       		.uleb128 0x1
 3153 0095 13       		.uleb128 0x13
 3154 0096 00       		.byte	0x0
 3155 0097 00       		.byte	0x0
 3156 0098 0D       		.uleb128 0xd
 3157 0099 0D       		.uleb128 0xd
 3158 009a 00       		.byte	0x0
 3159 009b 03       		.uleb128 0x3
 3160 009c 08       		.uleb128 0x8
 3161 009d 3A       		.uleb128 0x3a
 3162 009e 0B       		.uleb128 0xb
 3163 009f 3B       		.uleb128 0x3b
 3164 00a0 05       		.uleb128 0x5
 3165 00a1 49       		.uleb128 0x49
ARM GAS  C:\Users\DNIEL~1\AppData\Local\Temp\cc3Fm2Fs.s 			page 58


 3166 00a2 13       		.uleb128 0x13
 3167 00a3 38       		.uleb128 0x38
 3168 00a4 0A       		.uleb128 0xa
 3169 00a5 00       		.byte	0x0
 3170 00a6 00       		.byte	0x0
 3171 00a7 0E       		.uleb128 0xe
 3172 00a8 35       		.uleb128 0x35
 3173 00a9 00       		.byte	0x0
 3174 00aa 49       		.uleb128 0x49
 3175 00ab 13       		.uleb128 0x13
 3176 00ac 00       		.byte	0x0
 3177 00ad 00       		.byte	0x0
 3178 00ae 0F       		.uleb128 0xf
 3179 00af 17       		.uleb128 0x17
 3180 00b0 01       		.byte	0x1
 3181 00b1 0B       		.uleb128 0xb
 3182 00b2 0B       		.uleb128 0xb
 3183 00b3 3A       		.uleb128 0x3a
 3184 00b4 0B       		.uleb128 0xb
 3185 00b5 3B       		.uleb128 0x3b
 3186 00b6 0B       		.uleb128 0xb
 3187 00b7 01       		.uleb128 0x1
 3188 00b8 13       		.uleb128 0x13
 3189 00b9 00       		.byte	0x0
 3190 00ba 00       		.byte	0x0
 3191 00bb 10       		.uleb128 0x10
 3192 00bc 0D       		.uleb128 0xd
 3193 00bd 00       		.byte	0x0
 3194 00be 03       		.uleb128 0x3
 3195 00bf 0E       		.uleb128 0xe
 3196 00c0 3A       		.uleb128 0x3a
 3197 00c1 0B       		.uleb128 0xb
 3198 00c2 3B       		.uleb128 0x3b
 3199 00c3 0B       		.uleb128 0xb
 3200 00c4 49       		.uleb128 0x49
 3201 00c5 13       		.uleb128 0x13
 3202 00c6 00       		.byte	0x0
 3203 00c7 00       		.byte	0x0
 3204 00c8 11       		.uleb128 0x11
 3205 00c9 15       		.uleb128 0x15
 3206 00ca 01       		.byte	0x1
 3207 00cb 27       		.uleb128 0x27
 3208 00cc 0C       		.uleb128 0xc
 3209 00cd 49       		.uleb128 0x49
 3210 00ce 13       		.uleb128 0x13
 3211 00cf 01       		.uleb128 0x1
 3212 00d0 13       		.uleb128 0x13
 3213 00d1 00       		.byte	0x0
 3214 00d2 00       		.byte	0x0
 3215 00d3 12       		.uleb128 0x12
 3216 00d4 05       		.uleb128 0x5
 3217 00d5 00       		.byte	0x0
 3218 00d6 49       		.uleb128 0x49
 3219 00d7 13       		.uleb128 0x13
 3220 00d8 00       		.byte	0x0
 3221 00d9 00       		.byte	0x0
 3222 00da 13       		.uleb128 0x13
ARM GAS  C:\Users\DNIEL~1\AppData\Local\Temp\cc3Fm2Fs.s 			page 59


 3223 00db 01       		.uleb128 0x1
 3224 00dc 01       		.byte	0x1
 3225 00dd 49       		.uleb128 0x49
 3226 00de 13       		.uleb128 0x13
 3227 00df 01       		.uleb128 0x1
 3228 00e0 13       		.uleb128 0x13
 3229 00e1 00       		.byte	0x0
 3230 00e2 00       		.byte	0x0
 3231 00e3 14       		.uleb128 0x14
 3232 00e4 21       		.uleb128 0x21
 3233 00e5 00       		.byte	0x0
 3234 00e6 49       		.uleb128 0x49
 3235 00e7 13       		.uleb128 0x13
 3236 00e8 2F       		.uleb128 0x2f
 3237 00e9 0B       		.uleb128 0xb
 3238 00ea 00       		.byte	0x0
 3239 00eb 00       		.byte	0x0
 3240 00ec 15       		.uleb128 0x15
 3241 00ed 13       		.uleb128 0x13
 3242 00ee 01       		.byte	0x1
 3243 00ef 0B       		.uleb128 0xb
 3244 00f0 0B       		.uleb128 0xb
 3245 00f1 3A       		.uleb128 0x3a
 3246 00f2 0B       		.uleb128 0xb
 3247 00f3 3B       		.uleb128 0x3b
 3248 00f4 05       		.uleb128 0x5
 3249 00f5 01       		.uleb128 0x1
 3250 00f6 13       		.uleb128 0x13
 3251 00f7 00       		.byte	0x0
 3252 00f8 00       		.byte	0x0
 3253 00f9 16       		.uleb128 0x16
 3254 00fa 0D       		.uleb128 0xd
 3255 00fb 00       		.byte	0x0
 3256 00fc 03       		.uleb128 0x3
 3257 00fd 0E       		.uleb128 0xe
 3258 00fe 3A       		.uleb128 0x3a
 3259 00ff 0B       		.uleb128 0xb
 3260 0100 3B       		.uleb128 0x3b
 3261 0101 05       		.uleb128 0x5
 3262 0102 49       		.uleb128 0x49
 3263 0103 13       		.uleb128 0x13
 3264 0104 38       		.uleb128 0x38
 3265 0105 0A       		.uleb128 0xa
 3266 0106 00       		.byte	0x0
 3267 0107 00       		.byte	0x0
 3268 0108 17       		.uleb128 0x17
 3269 0109 16       		.uleb128 0x16
 3270 010a 00       		.byte	0x0
 3271 010b 03       		.uleb128 0x3
 3272 010c 0E       		.uleb128 0xe
 3273 010d 3A       		.uleb128 0x3a
 3274 010e 0B       		.uleb128 0xb
 3275 010f 3B       		.uleb128 0x3b
 3276 0110 05       		.uleb128 0x5
 3277 0111 49       		.uleb128 0x49
 3278 0112 13       		.uleb128 0x13
 3279 0113 00       		.byte	0x0
ARM GAS  C:\Users\DNIEL~1\AppData\Local\Temp\cc3Fm2Fs.s 			page 60


 3280 0114 00       		.byte	0x0
 3281 0115 18       		.uleb128 0x18
 3282 0116 13       		.uleb128 0x13
 3283 0117 01       		.byte	0x1
 3284 0118 0B       		.uleb128 0xb
 3285 0119 05       		.uleb128 0x5
 3286 011a 3A       		.uleb128 0x3a
 3287 011b 0B       		.uleb128 0xb
 3288 011c 3B       		.uleb128 0x3b
 3289 011d 05       		.uleb128 0x5
 3290 011e 01       		.uleb128 0x1
 3291 011f 13       		.uleb128 0x13
 3292 0120 00       		.byte	0x0
 3293 0121 00       		.byte	0x0
 3294 0122 19       		.uleb128 0x19
 3295 0123 04       		.uleb128 0x4
 3296 0124 01       		.byte	0x1
 3297 0125 0B       		.uleb128 0xb
 3298 0126 0B       		.uleb128 0xb
 3299 0127 3A       		.uleb128 0x3a
 3300 0128 0B       		.uleb128 0xb
 3301 0129 3B       		.uleb128 0x3b
 3302 012a 0B       		.uleb128 0xb
 3303 012b 01       		.uleb128 0x1
 3304 012c 13       		.uleb128 0x13
 3305 012d 00       		.byte	0x0
 3306 012e 00       		.byte	0x0
 3307 012f 1A       		.uleb128 0x1a
 3308 0130 28       		.uleb128 0x28
 3309 0131 00       		.byte	0x0
 3310 0132 03       		.uleb128 0x3
 3311 0133 0E       		.uleb128 0xe
 3312 0134 1C       		.uleb128 0x1c
 3313 0135 0D       		.uleb128 0xd
 3314 0136 00       		.byte	0x0
 3315 0137 00       		.byte	0x0
 3316 0138 1B       		.uleb128 0x1b
 3317 0139 0D       		.uleb128 0xd
 3318 013a 00       		.byte	0x0
 3319 013b 03       		.uleb128 0x3
 3320 013c 08       		.uleb128 0x8
 3321 013d 3A       		.uleb128 0x3a
 3322 013e 0B       		.uleb128 0xb
 3323 013f 3B       		.uleb128 0x3b
 3324 0140 0B       		.uleb128 0xb
 3325 0141 49       		.uleb128 0x49
 3326 0142 13       		.uleb128 0x13
 3327 0143 0B       		.uleb128 0xb
 3328 0144 0B       		.uleb128 0xb
 3329 0145 0D       		.uleb128 0xd
 3330 0146 0B       		.uleb128 0xb
 3331 0147 0C       		.uleb128 0xc
 3332 0148 0B       		.uleb128 0xb
 3333 0149 38       		.uleb128 0x38
 3334 014a 0A       		.uleb128 0xa
 3335 014b 00       		.byte	0x0
 3336 014c 00       		.byte	0x0
ARM GAS  C:\Users\DNIEL~1\AppData\Local\Temp\cc3Fm2Fs.s 			page 61


 3337 014d 1C       		.uleb128 0x1c
 3338 014e 0D       		.uleb128 0xd
 3339 014f 00       		.byte	0x0
 3340 0150 49       		.uleb128 0x49
 3341 0151 13       		.uleb128 0x13
 3342 0152 00       		.byte	0x0
 3343 0153 00       		.byte	0x0
 3344 0154 1D       		.uleb128 0x1d
 3345 0155 0D       		.uleb128 0xd
 3346 0156 00       		.byte	0x0
 3347 0157 49       		.uleb128 0x49
 3348 0158 13       		.uleb128 0x13
 3349 0159 38       		.uleb128 0x38
 3350 015a 0A       		.uleb128 0xa
 3351 015b 00       		.byte	0x0
 3352 015c 00       		.byte	0x0
 3353 015d 1E       		.uleb128 0x1e
 3354 015e 0D       		.uleb128 0xd
 3355 015f 00       		.byte	0x0
 3356 0160 03       		.uleb128 0x3
 3357 0161 0E       		.uleb128 0xe
 3358 0162 49       		.uleb128 0x49
 3359 0163 13       		.uleb128 0x13
 3360 0164 38       		.uleb128 0x38
 3361 0165 0A       		.uleb128 0xa
 3362 0166 34       		.uleb128 0x34
 3363 0167 0C       		.uleb128 0xc
 3364 0168 00       		.byte	0x0
 3365 0169 00       		.byte	0x0
 3366 016a 1F       		.uleb128 0x1f
 3367 016b 04       		.uleb128 0x4
 3368 016c 01       		.byte	0x1
 3369 016d 03       		.uleb128 0x3
 3370 016e 0E       		.uleb128 0xe
 3371 016f 0B       		.uleb128 0xb
 3372 0170 0B       		.uleb128 0xb
 3373 0171 3A       		.uleb128 0x3a
 3374 0172 0B       		.uleb128 0xb
 3375 0173 3B       		.uleb128 0x3b
 3376 0174 0B       		.uleb128 0xb
 3377 0175 01       		.uleb128 0x1
 3378 0176 13       		.uleb128 0x13
 3379 0177 00       		.byte	0x0
 3380 0178 00       		.byte	0x0
 3381 0179 20       		.uleb128 0x20
 3382 017a 2E       		.uleb128 0x2e
 3383 017b 01       		.byte	0x1
 3384 017c 03       		.uleb128 0x3
 3385 017d 0E       		.uleb128 0xe
 3386 017e 3A       		.uleb128 0x3a
 3387 017f 0B       		.uleb128 0xb
 3388 0180 3B       		.uleb128 0x3b
 3389 0181 0B       		.uleb128 0xb
 3390 0182 27       		.uleb128 0x27
 3391 0183 0C       		.uleb128 0xc
 3392 0184 11       		.uleb128 0x11
 3393 0185 01       		.uleb128 0x1
ARM GAS  C:\Users\DNIEL~1\AppData\Local\Temp\cc3Fm2Fs.s 			page 62


 3394 0186 12       		.uleb128 0x12
 3395 0187 01       		.uleb128 0x1
 3396 0188 40       		.uleb128 0x40
 3397 0189 06       		.uleb128 0x6
 3398 018a 01       		.uleb128 0x1
 3399 018b 13       		.uleb128 0x13
 3400 018c 00       		.byte	0x0
 3401 018d 00       		.byte	0x0
 3402 018e 21       		.uleb128 0x21
 3403 018f 05       		.uleb128 0x5
 3404 0190 00       		.byte	0x0
 3405 0191 03       		.uleb128 0x3
 3406 0192 08       		.uleb128 0x8
 3407 0193 3A       		.uleb128 0x3a
 3408 0194 0B       		.uleb128 0xb
 3409 0195 3B       		.uleb128 0x3b
 3410 0196 0B       		.uleb128 0xb
 3411 0197 49       		.uleb128 0x49
 3412 0198 13       		.uleb128 0x13
 3413 0199 02       		.uleb128 0x2
 3414 019a 06       		.uleb128 0x6
 3415 019b 00       		.byte	0x0
 3416 019c 00       		.byte	0x0
 3417 019d 22       		.uleb128 0x22
 3418 019e 05       		.uleb128 0x5
 3419 019f 00       		.byte	0x0
 3420 01a0 03       		.uleb128 0x3
 3421 01a1 08       		.uleb128 0x8
 3422 01a2 3A       		.uleb128 0x3a
 3423 01a3 0B       		.uleb128 0xb
 3424 01a4 3B       		.uleb128 0x3b
 3425 01a5 0B       		.uleb128 0xb
 3426 01a6 49       		.uleb128 0x49
 3427 01a7 13       		.uleb128 0x13
 3428 01a8 02       		.uleb128 0x2
 3429 01a9 0A       		.uleb128 0xa
 3430 01aa 00       		.byte	0x0
 3431 01ab 00       		.byte	0x0
 3432 01ac 23       		.uleb128 0x23
 3433 01ad 18       		.uleb128 0x18
 3434 01ae 00       		.byte	0x0
 3435 01af 00       		.byte	0x0
 3436 01b0 00       		.byte	0x0
 3437 01b1 24       		.uleb128 0x24
 3438 01b2 34       		.uleb128 0x34
 3439 01b3 00       		.byte	0x0
 3440 01b4 03       		.uleb128 0x3
 3441 01b5 08       		.uleb128 0x8
 3442 01b6 3A       		.uleb128 0x3a
 3443 01b7 0B       		.uleb128 0xb
 3444 01b8 3B       		.uleb128 0x3b
 3445 01b9 0B       		.uleb128 0xb
 3446 01ba 49       		.uleb128 0x49
 3447 01bb 13       		.uleb128 0x13
 3448 01bc 02       		.uleb128 0x2
 3449 01bd 0A       		.uleb128 0xa
 3450 01be 00       		.byte	0x0
ARM GAS  C:\Users\DNIEL~1\AppData\Local\Temp\cc3Fm2Fs.s 			page 63


 3451 01bf 00       		.byte	0x0
 3452 01c0 25       		.uleb128 0x25
 3453 01c1 2E       		.uleb128 0x2e
 3454 01c2 01       		.byte	0x1
 3455 01c3 03       		.uleb128 0x3
 3456 01c4 0E       		.uleb128 0xe
 3457 01c5 3A       		.uleb128 0x3a
 3458 01c6 0B       		.uleb128 0xb
 3459 01c7 3B       		.uleb128 0x3b
 3460 01c8 0B       		.uleb128 0xb
 3461 01c9 27       		.uleb128 0x27
 3462 01ca 0C       		.uleb128 0xc
 3463 01cb 49       		.uleb128 0x49
 3464 01cc 13       		.uleb128 0x13
 3465 01cd 11       		.uleb128 0x11
 3466 01ce 01       		.uleb128 0x1
 3467 01cf 12       		.uleb128 0x12
 3468 01d0 01       		.uleb128 0x1
 3469 01d1 40       		.uleb128 0x40
 3470 01d2 06       		.uleb128 0x6
 3471 01d3 01       		.uleb128 0x1
 3472 01d4 13       		.uleb128 0x13
 3473 01d5 00       		.byte	0x0
 3474 01d6 00       		.byte	0x0
 3475 01d7 26       		.uleb128 0x26
 3476 01d8 34       		.uleb128 0x34
 3477 01d9 00       		.byte	0x0
 3478 01da 03       		.uleb128 0x3
 3479 01db 0E       		.uleb128 0xe
 3480 01dc 3A       		.uleb128 0x3a
 3481 01dd 0B       		.uleb128 0xb
 3482 01de 3B       		.uleb128 0x3b
 3483 01df 0B       		.uleb128 0xb
 3484 01e0 49       		.uleb128 0x49
 3485 01e1 13       		.uleb128 0x13
 3486 01e2 02       		.uleb128 0x2
 3487 01e3 06       		.uleb128 0x6
 3488 01e4 00       		.byte	0x0
 3489 01e5 00       		.byte	0x0
 3490 01e6 27       		.uleb128 0x27
 3491 01e7 2E       		.uleb128 0x2e
 3492 01e8 00       		.byte	0x0
 3493 01e9 3F       		.uleb128 0x3f
 3494 01ea 0C       		.uleb128 0xc
 3495 01eb 03       		.uleb128 0x3
 3496 01ec 0E       		.uleb128 0xe
 3497 01ed 3A       		.uleb128 0x3a
 3498 01ee 0B       		.uleb128 0xb
 3499 01ef 3B       		.uleb128 0x3b
 3500 01f0 0B       		.uleb128 0xb
 3501 01f1 27       		.uleb128 0x27
 3502 01f2 0C       		.uleb128 0xc
 3503 01f3 11       		.uleb128 0x11
 3504 01f4 01       		.uleb128 0x1
 3505 01f5 12       		.uleb128 0x12
 3506 01f6 01       		.uleb128 0x1
 3507 01f7 40       		.uleb128 0x40
ARM GAS  C:\Users\DNIEL~1\AppData\Local\Temp\cc3Fm2Fs.s 			page 64


 3508 01f8 06       		.uleb128 0x6
 3509 01f9 00       		.byte	0x0
 3510 01fa 00       		.byte	0x0
 3511 01fb 28       		.uleb128 0x28
 3512 01fc 2E       		.uleb128 0x2e
 3513 01fd 01       		.byte	0x1
 3514 01fe 3F       		.uleb128 0x3f
 3515 01ff 0C       		.uleb128 0xc
 3516 0200 03       		.uleb128 0x3
 3517 0201 0E       		.uleb128 0xe
 3518 0202 3A       		.uleb128 0x3a
 3519 0203 0B       		.uleb128 0xb
 3520 0204 3B       		.uleb128 0x3b
 3521 0205 0B       		.uleb128 0xb
 3522 0206 27       		.uleb128 0x27
 3523 0207 0C       		.uleb128 0xc
 3524 0208 11       		.uleb128 0x11
 3525 0209 01       		.uleb128 0x1
 3526 020a 12       		.uleb128 0x12
 3527 020b 01       		.uleb128 0x1
 3528 020c 40       		.uleb128 0x40
 3529 020d 06       		.uleb128 0x6
 3530 020e 01       		.uleb128 0x1
 3531 020f 13       		.uleb128 0x13
 3532 0210 00       		.byte	0x0
 3533 0211 00       		.byte	0x0
 3534 0212 29       		.uleb128 0x29
 3535 0213 05       		.uleb128 0x5
 3536 0214 00       		.byte	0x0
 3537 0215 03       		.uleb128 0x3
 3538 0216 0E       		.uleb128 0xe
 3539 0217 3A       		.uleb128 0x3a
 3540 0218 0B       		.uleb128 0xb
 3541 0219 3B       		.uleb128 0x3b
 3542 021a 0B       		.uleb128 0xb
 3543 021b 49       		.uleb128 0x49
 3544 021c 13       		.uleb128 0x13
 3545 021d 02       		.uleb128 0x2
 3546 021e 06       		.uleb128 0x6
 3547 021f 00       		.byte	0x0
 3548 0220 00       		.byte	0x0
 3549 0221 2A       		.uleb128 0x2a
 3550 0222 34       		.uleb128 0x34
 3551 0223 00       		.byte	0x0
 3552 0224 03       		.uleb128 0x3
 3553 0225 0E       		.uleb128 0xe
 3554 0226 3A       		.uleb128 0x3a
 3555 0227 0B       		.uleb128 0xb
 3556 0228 3B       		.uleb128 0x3b
 3557 0229 0B       		.uleb128 0xb
 3558 022a 49       		.uleb128 0x49
 3559 022b 13       		.uleb128 0x13
 3560 022c 3F       		.uleb128 0x3f
 3561 022d 0C       		.uleb128 0xc
 3562 022e 3C       		.uleb128 0x3c
 3563 022f 0C       		.uleb128 0xc
 3564 0230 00       		.byte	0x0
ARM GAS  C:\Users\DNIEL~1\AppData\Local\Temp\cc3Fm2Fs.s 			page 65


 3565 0231 00       		.byte	0x0
 3566 0232 2B       		.uleb128 0x2b
 3567 0233 34       		.uleb128 0x34
 3568 0234 00       		.byte	0x0
 3569 0235 03       		.uleb128 0x3
 3570 0236 0E       		.uleb128 0xe
 3571 0237 3A       		.uleb128 0x3a
 3572 0238 0B       		.uleb128 0xb
 3573 0239 3B       		.uleb128 0x3b
 3574 023a 05       		.uleb128 0x5
 3575 023b 49       		.uleb128 0x49
 3576 023c 13       		.uleb128 0x13
 3577 023d 3F       		.uleb128 0x3f
 3578 023e 0C       		.uleb128 0xc
 3579 023f 3C       		.uleb128 0x3c
 3580 0240 0C       		.uleb128 0xc
 3581 0241 00       		.byte	0x0
 3582 0242 00       		.byte	0x0
 3583 0243 2C       		.uleb128 0x2c
 3584 0244 34       		.uleb128 0x34
 3585 0245 00       		.byte	0x0
 3586 0246 03       		.uleb128 0x3
 3587 0247 0E       		.uleb128 0xe
 3588 0248 3A       		.uleb128 0x3a
 3589 0249 0B       		.uleb128 0xb
 3590 024a 3B       		.uleb128 0x3b
 3591 024b 0B       		.uleb128 0xb
 3592 024c 49       		.uleb128 0x49
 3593 024d 13       		.uleb128 0x13
 3594 024e 02       		.uleb128 0x2
 3595 024f 0A       		.uleb128 0xa
 3596 0250 00       		.byte	0x0
 3597 0251 00       		.byte	0x0
 3598 0252 2D       		.uleb128 0x2d
 3599 0253 34       		.uleb128 0x34
 3600 0254 00       		.byte	0x0
 3601 0255 03       		.uleb128 0x3
 3602 0256 0E       		.uleb128 0xe
 3603 0257 3A       		.uleb128 0x3a
 3604 0258 0B       		.uleb128 0xb
 3605 0259 3B       		.uleb128 0x3b
 3606 025a 0B       		.uleb128 0xb
 3607 025b 49       		.uleb128 0x49
 3608 025c 13       		.uleb128 0x13
 3609 025d 00       		.byte	0x0
 3610 025e 00       		.byte	0x0
 3611 025f 2E       		.uleb128 0x2e
 3612 0260 34       		.uleb128 0x34
 3613 0261 00       		.byte	0x0
 3614 0262 03       		.uleb128 0x3
 3615 0263 0E       		.uleb128 0xe
 3616 0264 3A       		.uleb128 0x3a
 3617 0265 0B       		.uleb128 0xb
 3618 0266 3B       		.uleb128 0x3b
 3619 0267 0B       		.uleb128 0xb
 3620 0268 49       		.uleb128 0x49
 3621 0269 13       		.uleb128 0x13
ARM GAS  C:\Users\DNIEL~1\AppData\Local\Temp\cc3Fm2Fs.s 			page 66


 3622 026a 3F       		.uleb128 0x3f
 3623 026b 0C       		.uleb128 0xc
 3624 026c 02       		.uleb128 0x2
 3625 026d 0A       		.uleb128 0xa
 3626 026e 00       		.byte	0x0
 3627 026f 00       		.byte	0x0
 3628 0270 00       		.byte	0x0
 3629              		.section	.debug_pubnames,"",%progbits
 3630 0000 56000000 		.4byte	0x56
 3631 0004 0200     		.2byte	0x2
 3632 0006 00000000 		.4byte	.Ldebug_info0
 3633 000a 12100000 		.4byte	0x1012
 3634 000e 900E0000 		.4byte	0xe90
 3635 0012 63616E5F 		.ascii	"can_commInit\000"
 3635      636F6D6D 
 3635      496E6974 
 3635      00
 3636 001f A50E0000 		.4byte	0xea5
 3637 0023 636D645F 		.ascii	"cmd_can_commvalues\000"
 3637      63616E5F 
 3637      636F6D6D 
 3637      76616C75 
 3637      657300
 3638 0036 ED0F0000 		.4byte	0xfed
 3639 003a 63616E5F 		.ascii	"can_rxstate\000"
 3639      72787374 
 3639      61746500 
 3640 0046 FF0F0000 		.4byte	0xfff
 3641 004a 63616E5F 		.ascii	"can_txstate\000"
 3641      74787374 
 3641      61746500 
 3642 0056 00000000 		.4byte	0x0
 3643              		.section	.debug_pubtypes,"",%progbits
 3644 0000 18030000 		.4byte	0x318
 3645 0004 0200     		.2byte	0x2
 3646 0006 00000000 		.4byte	.Ldebug_info0
 3647 000a 12100000 		.4byte	0x1012
 3648 000e 29000000 		.4byte	0x29
 3649 0012 73697A65 		.ascii	"size_t\000"
 3649      5F7400
 3650 0019 94000000 		.4byte	0x94
 3651 001d 75696E74 		.ascii	"uint8_t\000"
 3651      385F7400 
 3652 0025 9F000000 		.4byte	0x9f
 3653 0029 75696E74 		.ascii	"uint16_t\000"
 3653      31365F74 
 3653      00
 3654 0032 AA000000 		.4byte	0xaa
 3655 0036 696E7433 		.ascii	"int32_t\000"
 3655      325F7400 
 3656 003e B5000000 		.4byte	0xb5
 3657 0042 75696E74 		.ascii	"uint32_t\000"
 3657      33325F74 
 3657      00
 3658 004b C0000000 		.4byte	0xc0
 3659 004f 75696E74 		.ascii	"uint64_t\000"
 3659      36345F74 
ARM GAS  C:\Users\DNIEL~1\AppData\Local\Temp\cc3Fm2Fs.s 			page 67


 3659      00
 3660 0058 D2000000 		.4byte	0xd2
 3661 005c 746D6F64 		.ascii	"tmode_t\000"
 3661      655F7400 
 3662 0064 DD000000 		.4byte	0xdd
 3663 0068 74737461 		.ascii	"tstate_t\000"
 3663      74655F74 
 3663      00
 3664 0071 E8000000 		.4byte	0xe8
 3665 0075 74726566 		.ascii	"trefs_t\000"
 3665      735F7400 
 3666 007d F3000000 		.4byte	0xf3
 3667 0081 74736C69 		.ascii	"tslices_t\000"
 3667      6365735F 
 3667      7400
 3668 008b FE000000 		.4byte	0xfe
 3669 008f 74707269 		.ascii	"tprio_t\000"
 3669      6F5F7400 
 3670 0097 09010000 		.4byte	0x109
 3671 009b 6D73675F 		.ascii	"msg_t\000"
 3671      7400
 3672 00a1 14010000 		.4byte	0x114
 3673 00a5 6576656E 		.ascii	"eventmask_t\000"
 3673      746D6173 
 3673      6B5F7400 
 3674 00b1 1F010000 		.4byte	0x11f
 3675 00b5 666C6167 		.ascii	"flagsmask_t\000"
 3675      736D6173 
 3675      6B5F7400 
 3676 00c1 2A010000 		.4byte	0x12a
 3677 00c5 73797374 		.ascii	"systime_t\000"
 3677      696D655F 
 3677      7400
 3678 00cf 35010000 		.4byte	0x135
 3679 00d3 636E745F 		.ascii	"cnt_t\000"
 3679      7400
 3680 00d9 40010000 		.4byte	0x140
 3681 00dd 54687265 		.ascii	"Thread\000"
 3681      616400
 3682 00e4 9B020000 		.4byte	0x29b
 3683 00e8 54687265 		.ascii	"ThreadsQueue\000"
 3683      61647351 
 3683      75657565 
 3683      00
 3684 00f5 BD020000 		.4byte	0x2bd
 3685 00f9 54687265 		.ascii	"ThreadsList\000"
 3685      6164734C 
 3685      69737400 
 3686 0105 C8020000 		.4byte	0x2c8
 3687 0109 72656761 		.ascii	"regarm_t\000"
 3687      726D5F74 
 3687      00
 3688 0112 D3020000 		.4byte	0x2d3
 3689 0116 73746B61 		.ascii	"stkalign_t\000"
 3689      6C69676E 
 3689      5F7400
 3690 0121 DE020000 		.4byte	0x2de
ARM GAS  C:\Users\DNIEL~1\AppData\Local\Temp\cc3Fm2Fs.s 			page 68


 3691 0125 696E7463 		.ascii	"intctx\000"
 3691      747800
 3692 012c 6C030000 		.4byte	0x36c
 3693 0130 636F6E74 		.ascii	"context\000"
 3693      65787400 
 3694 0138 F6030000 		.4byte	0x3f6
 3695 013c 52656164 		.ascii	"ReadyList\000"
 3695      794C6973 
 3695      7400
 3696 0146 01040000 		.4byte	0x401
 3697 014a 53656D61 		.ascii	"Semaphore\000"
 3697      70686F72 
 3697      6500
 3698 0154 2A040000 		.4byte	0x42a
 3699 0158 53656D61 		.ascii	"Semaphore\000"
 3699      70686F72 
 3699      6500
 3700 0162 35040000 		.4byte	0x435
 3701 0166 4D757465 		.ascii	"Mutex\000"
 3701      7800
 3702 016c 72040000 		.4byte	0x472
 3703 0170 4D757465 		.ascii	"Mutex\000"
 3703      7800
 3704 0176 7D040000 		.4byte	0x47d
 3705 017a 4576656E 		.ascii	"EventListener\000"
 3705      744C6973 
 3705      74656E65 
 3705      7200
 3706 0188 88040000 		.4byte	0x488
 3707 018c 4576656E 		.ascii	"EventListener\000"
 3707      744C6973 
 3707      74656E65 
 3707      7200
 3708 019a D3040000 		.4byte	0x4d3
 3709 019e 4576656E 		.ascii	"EventSource\000"
 3709      74536F75 
 3709      72636500 
 3710 01aa EE040000 		.4byte	0x4ee
 3711 01ae 4576656E 		.ascii	"EventSource\000"
 3711      74536F75 
 3711      72636500 
 3712 01ba 4B010000 		.4byte	0x14b
 3713 01be 54687265 		.ascii	"Thread\000"
 3713      616400
 3714 01c5 50050000 		.4byte	0x550
 3715 01c9 42617365 		.ascii	"BaseSequentialStreamVMT\000"
 3715      53657175 
 3715      656E7469 
 3715      616C5374 
 3715      7265616D 
 3716 01e1 1D060000 		.4byte	0x61d
 3717 01e5 42617365 		.ascii	"BaseSequentialStream\000"
 3717      53657175 
 3717      656E7469 
 3717      616C5374 
 3717      7265616D 
 3718 01fa 93060000 		.4byte	0x693
ARM GAS  C:\Users\DNIEL~1\AppData\Local\Temp\cc3Fm2Fs.s 			page 69


 3719 01fe 43414E5F 		.ascii	"CAN_TxMailBox_TypeDef\000"
 3719      54784D61 
 3719      696C426F 
 3719      785F5479 
 3719      70654465 
 3720 0214 E5060000 		.4byte	0x6e5
 3721 0218 43414E5F 		.ascii	"CAN_FIFOMailBox_TypeDef\000"
 3721      4649464F 
 3721      4D61696C 
 3721      426F785F 
 3721      54797065 
 3722 0230 19070000 		.4byte	0x719
 3723 0234 43414E5F 		.ascii	"CAN_FilterRegister_TypeDef\000"
 3723      46696C74 
 3723      65725265 
 3723      67697374 
 3723      65725F54 
 3724 024f D7080000 		.4byte	0x8d7
 3725 0253 43414E5F 		.ascii	"CAN_TypeDef\000"
 3725      54797065 
 3725      44656600 
 3726 025f E3080000 		.4byte	0x8e3
 3727 0263 42617365 		.ascii	"BaseChannelVMT\000"
 3727      4368616E 
 3727      6E656C56 
 3727      4D5400
 3728 0272 070A0000 		.4byte	0xa07
 3729 0276 42617365 		.ascii	"BaseChannel\000"
 3729      4368616E 
 3729      6E656C00 
 3730 0282 390A0000 		.4byte	0xa39
 3731 0286 63616E73 		.ascii	"canstate_t\000"
 3731      74617465 
 3731      5F7400
 3732 0291 320B0000 		.4byte	0xb32
 3733 0295 43414E54 		.ascii	"CANTxFrame\000"
 3733      78467261 
 3733      6D6500
 3734 02a0 380C0000 		.4byte	0xc38
 3735 02a4 43414E52 		.ascii	"CANRxFrame\000"
 3735      78467261 
 3735      6D6500
 3736 02af 690C0000 		.4byte	0xc69
 3737 02b3 43414E43 		.ascii	"CANConfig\000"
 3737      6F6E6669 
 3737      6700
 3738 02bd 260D0000 		.4byte	0xd26
 3739 02c1 43414E44 		.ascii	"CANDriver\000"
 3739      72697665 
 3739      7200
 3740 02cb 3D0D0000 		.4byte	0xd3d
 3741 02cf 5F5F7661 		.ascii	"__va_list\000"
 3741      5F6C6973 
 3741      7400
 3742 02d9 320D0000 		.4byte	0xd32
 3743 02dd 5F5F676E 		.ascii	"__gnuc_va_list\000"
 3743      75635F76 
ARM GAS  C:\Users\DNIEL~1\AppData\Local\Temp\cc3Fm2Fs.s 			page 70


 3743      615F6C69 
 3743      737400
 3744 02ec 570D0000 		.4byte	0xd57
 3745 02f0 76615F6C 		.ascii	"va_list\000"
 3745      69737400 
 3746 02f8 770D0000 		.4byte	0xd77
 3747 02fc 63616E5F 		.ascii	"can_rxState\000"
 3747      72785374 
 3747      61746500 
 3748 0308 AE0D0000 		.4byte	0xdae
 3749 030c 63616E5F 		.ascii	"can_txState\000"
 3749      74785374 
 3749      61746500 
 3750 0318 00000000 		.4byte	0x0
 3751              		.section	.debug_aranges,"",%progbits
 3752 0000 3C000000 		.4byte	0x3c
 3753 0004 0200     		.2byte	0x2
 3754 0006 00000000 		.4byte	.Ldebug_info0
 3755 000a 04       		.byte	0x4
 3756 000b 00       		.byte	0x0
 3757 000c 0000     		.2byte	0x0
 3758 000e 0000     		.2byte	0x0
 3759 0010 00000000 		.4byte	.LFB118
 3760 0014 1E000000 		.4byte	.LFE118-.LFB118
 3761 0018 00000000 		.4byte	.LFB119
 3762 001c 04010000 		.4byte	.LFE119-.LFB119
 3763 0020 00000000 		.4byte	.LFB120
 3764 0024 74000000 		.4byte	.LFE120-.LFB120
 3765 0028 00000000 		.4byte	.LFB121
 3766 002c 64000000 		.4byte	.LFE121-.LFB121
 3767 0030 00000000 		.4byte	.LFB122
 3768 0034 4C010000 		.4byte	.LFE122-.LFB122
 3769 0038 00000000 		.4byte	0x0
 3770 003c 00000000 		.4byte	0x0
 3771              		.section	.debug_ranges,"",%progbits
 3772              	.Ldebug_ranges0:
 3773 0000 00000000 		.4byte	.LFB118
 3774 0004 1E000000 		.4byte	.LFE118
 3775 0008 00000000 		.4byte	.LFB119
 3776 000c 04010000 		.4byte	.LFE119
 3777 0010 00000000 		.4byte	.LFB120
 3778 0014 74000000 		.4byte	.LFE120
 3779 0018 00000000 		.4byte	.LFB121
 3780 001c 64000000 		.4byte	.LFE121
 3781 0020 00000000 		.4byte	.LFB122
 3782 0024 4C010000 		.4byte	.LFE122
 3783 0028 00000000 		.4byte	0x0
 3784 002c 00000000 		.4byte	0x0
 3785              		.section	.debug_str,"MS",%progbits,1
 3786              	.LASF165:
 3787 0000 72786D73 		.ascii	"rxmsg\000"
 3787      6700
 3788              	.LASF178:
 3789 0006 636D645F 		.ascii	"cmd_can_commvalues\000"
 3789      63616E5F 
 3789      636F6D6D 
 3789      76616C75 
ARM GAS  C:\Users\DNIEL~1\AppData\Local\Temp\cc3Fm2Fs.s 			page 71


 3789      657300
 3790              	.LASF10:
 3791 0019 73697A65 		.ascii	"size_t\000"
 3791      5F7400
 3792              	.LASF124:
 3793 0020 43414E52 		.ascii	"CANRxFrame\000"
 3793      78467261 
 3793      6D6500
 3794              	.LASF74:
 3795 002b 7264796D 		.ascii	"rdymsg\000"
 3795      736700
 3796              	.LASF15:
 3797 0032 75696E74 		.ascii	"uint64_t\000"
 3797      36345F74 
 3797      00
 3798              	.LASF146:
 3799 003b 43414E5F 		.ascii	"CAN_RX_RPY\000"
 3799      52585F52 
 3799      505900
 3800              	.LASF139:
 3801 0046 76615F6C 		.ascii	"va_list\000"
 3801      69737400 
 3802              	.LASF125:
 3803 004e 43414E43 		.ascii	"CANConfig\000"
 3803      6F6E6669 
 3803      6700
 3804              	.LASF106:
 3805 0058 43414E5F 		.ascii	"CAN_TypeDef\000"
 3805      54797065 
 3805      44656600 
 3806              	.LASF86:
 3807 0064 52445452 		.ascii	"RDTR\000"
 3807      00
 3808              	.LASF164:
 3809 0069 74786D73 		.ascii	"txmsg\000"
 3809      6700
 3810              	.LASF6:
 3811 006f 6C6F6E67 		.ascii	"long long unsigned int\000"
 3811      206C6F6E 
 3811      6720756E 
 3811      7369676E 
 3811      65642069 
 3812              	.LASF107:
 3813 0086 42617365 		.ascii	"BaseChannelVMT\000"
 3813      4368616E 
 3813      6E656C56 
 3813      4D5400
 3814              	.LASF75:
 3815 0095 65786974 		.ascii	"exitcode\000"
 3815      636F6465 
 3815      00
 3816              	.LASF121:
 3817 009e 64617461 		.ascii	"data32\000"
 3817      333200
 3818              	.LASF30:
 3819 00a5 705F7072 		.ascii	"p_prio\000"
 3819      696F00
ARM GAS  C:\Users\DNIEL~1\AppData\Local\Temp\cc3Fm2Fs.s 			page 72


 3820              	.LASF154:
 3821 00ac 61736973 		.ascii	"asist\000"
 3821      7400
 3822              	.LASF111:
 3823 00b2 72656164 		.ascii	"readt\000"
 3823      7400
 3824              	.LASF5:
 3825 00b8 6C6F6E67 		.ascii	"long long int\000"
 3825      206C6F6E 
 3825      6720696E 
 3825      7400
 3826              	.LASF1:
 3827 00c6 7369676E 		.ascii	"signed char\000"
 3827      65642063 
 3827      68617200 
 3828              	.LASF175:
 3829 00d2 433A5C44 		.ascii	"C:\\Dani\\MegaLux\\Repo\\Modulux\\Modulux\\modulux\\"
 3829      616E695C 
 3829      4D656761 
 3829      4C75785C 
 3829      5265706F 
 3830 00ff 6669726D 		.ascii	"firmware\000"
 3830      77617265 
 3830      00
 3831              	.LASF153:
 3832 0108 43414E5F 		.ascii	"CAN_TX_NUM_CH\000"
 3832      54585F4E 
 3832      554D5F43 
 3832      4800
 3833              	.LASF46:
 3834 0116 705F6D70 		.ascii	"p_mpool\000"
 3834      6F6F6C00 
 3835              	.LASF128:
 3836 011e 74787365 		.ascii	"txsem\000"
 3836      6D00
 3837              	.LASF20:
 3838 0124 74736C69 		.ascii	"tslices_t\000"
 3838      6365735F 
 3838      7400
 3839              	.LASF126:
 3840 012e 73746174 		.ascii	"state\000"
 3840      6500
 3841              	.LASF83:
 3842 0134 54444C52 		.ascii	"TDLR\000"
 3842      00
 3843              	.LASF7:
 3844 0139 6C6F6E67 		.ascii	"long int\000"
 3844      20696E74 
 3844      00
 3845              	.LASF18:
 3846 0142 74737461 		.ascii	"tstate_t\000"
 3846      74655F74 
 3846      00
 3847              	.LASF85:
 3848 014b 43414E5F 		.ascii	"CAN_TxMailBox_TypeDef\000"
 3848      54784D61 
 3848      696C426F 
ARM GAS  C:\Users\DNIEL~1\AppData\Local\Temp\cc3Fm2Fs.s 			page 73


 3848      785F5479 
 3848      70654465 
 3849              	.LASF137:
 3850 0161 5F5F7661 		.ascii	"__va_list\000"
 3850      5F6C6973 
 3850      7400
 3851              	.LASF37:
 3852 016b 705F7265 		.ascii	"p_refs\000"
 3852      667300
 3853              	.LASF167:
 3854 0172 6D657373 		.ascii	"messages\000"
 3854      61676573 
 3854      00
 3855              	.LASF151:
 3856 017b 63616E5F 		.ascii	"can_txState\000"
 3856      74785374 
 3856      61746500 
 3857              	.LASF12:
 3858 0187 75696E74 		.ascii	"uint16_t\000"
 3858      31365F74 
 3858      00
 3859              	.LASF39:
 3860 0190 705F7469 		.ascii	"p_time\000"
 3860      6D6500
 3861              	.LASF140:
 3862 0197 646F7562 		.ascii	"double\000"
 3862      6C6500
 3863              	.LASF169:
 3864 019e 74785F61 		.ascii	"tx_ans\000"
 3864      6E7300
 3865              	.LASF32:
 3866 01a5 705F6E65 		.ascii	"p_newer\000"
 3866      77657200 
 3867              	.LASF61:
 3868 01ad 735F7175 		.ascii	"s_queue\000"
 3868      65756500 
 3869              	.LASF116:
 3870 01b5 43414E5F 		.ascii	"CAN_READY\000"
 3870      52454144 
 3870      5900
 3871              	.LASF91:
 3872 01bf 52463052 		.ascii	"RF0R\000"
 3872      00
 3873              	.LASF130:
 3874 01c4 72786675 		.ascii	"rxfull_event\000"
 3874      6C6C5F65 
 3874      76656E74 
 3874      00
 3875              	.LASF56:
 3876 01d1 725F6E65 		.ascii	"r_newer\000"
 3876      77657200 
 3877              	.LASF49:
 3878 01d9 72656761 		.ascii	"regarm_t\000"
 3878      726D5F74 
 3878      00
 3879              	.LASF123:
 3880 01e2 54494D45 		.ascii	"TIME\000"
ARM GAS  C:\Users\DNIEL~1\AppData\Local\Temp\cc3Fm2Fs.s 			page 74


 3880      00
 3881              	.LASF27:
 3882 01e7 54687265 		.ascii	"Thread\000"
 3882      616400
 3883              	.LASF160:
 3884 01ee 726C6973 		.ascii	"rlist\000"
 3884      7400
 3885              	.LASF82:
 3886 01f4 54445452 		.ascii	"TDTR\000"
 3886      00
 3887              	.LASF72:
 3888 01f9 4576656E 		.ascii	"EventSource\000"
 3888      74536F75 
 3888      72636500 
 3889              	.LASF81:
 3890 0205 42617365 		.ascii	"BaseSequentialStream\000"
 3890      53657175 
 3890      656E7469 
 3890      616C5374 
 3890      7265616D 
 3891              	.LASF26:
 3892 021a 636E745F 		.ascii	"cnt_t\000"
 3892      7400
 3893              	.LASF0:
 3894 0220 756E7369 		.ascii	"unsigned int\000"
 3894      676E6564 
 3894      20696E74 
 3894      00
 3895              	.LASF162:
 3896 022d 43414E44 		.ascii	"CAND1\000"
 3896      3100
 3897              	.LASF94:
 3898 0233 7354784D 		.ascii	"sTxMailBox\000"
 3898      61696C42 
 3898      6F7800
 3899              	.LASF172:
 3900 023e 63616E5F 		.ascii	"can_txstate\000"
 3900      74787374 
 3900      61746500 
 3901              	.LASF41:
 3902 024a 705F6D73 		.ascii	"p_msgqueue\000"
 3902      67717565 
 3902      756500
 3903              	.LASF148:
 3904 0255 43414E5F 		.ascii	"CAN_RX_WAIT\000"
 3904      52585F57 
 3904      41495400 
 3905              	.LASF122:
 3906 0261 43414E54 		.ascii	"CANTxFrame\000"
 3906      78467261 
 3906      6D6500
 3907              	.LASF109:
 3908 026c 67657474 		.ascii	"gett\000"
 3908      00
 3909              	.LASF62:
 3910 0271 735F636E 		.ascii	"s_cnt\000"
 3910      7400
ARM GAS  C:\Users\DNIEL~1\AppData\Local\Temp\cc3Fm2Fs.s 			page 75


 3911              	.LASF4:
 3912 0277 73686F72 		.ascii	"short unsigned int\000"
 3912      7420756E 
 3912      7369676E 
 3912      65642069 
 3912      6E7400
 3913              	.LASF92:
 3914 028a 52463152 		.ascii	"RF1R\000"
 3914      00
 3915              	.LASF90:
 3916 028f 43414E5F 		.ascii	"CAN_FilterRegister_TypeDef\000"
 3916      46696C74 
 3916      65725265 
 3916      67697374 
 3916      65725F54 
 3917              	.LASF22:
 3918 02aa 6D73675F 		.ascii	"msg_t\000"
 3918      7400
 3919              	.LASF68:
 3920 02b0 656C5F6E 		.ascii	"el_next\000"
 3920      65787400 
 3921              	.LASF110:
 3922 02b8 77726974 		.ascii	"writet\000"
 3922      657400
 3923              	.LASF17:
 3924 02bf 746D6F64 		.ascii	"tmode_t\000"
 3924      655F7400 
 3925              	.LASF48:
 3926 02c7 54687265 		.ascii	"ThreadsList\000"
 3926      6164734C 
 3926      69737400 
 3927              	.LASF105:
 3928 02d3 7346696C 		.ascii	"sFilterRegister\000"
 3928      74657252 
 3928      65676973 
 3928      74657200 
 3929              	.LASF23:
 3930 02e3 6576656E 		.ascii	"eventmask_t\000"
 3930      746D6173 
 3930      6B5F7400 
 3931              	.LASF63:
 3932 02ef 4D757465 		.ascii	"Mutex\000"
 3932      7800
 3933              	.LASF155:
 3934 02f5 63616E5F 		.ascii	"can_rx\000"
 3934      727800
 3935              	.LASF170:
 3936 02fc 63616E5F 		.ascii	"can_rx_wa\000"
 3936      72785F77 
 3936      6100
 3937              	.LASF50:
 3938 0306 73746B61 		.ascii	"stkalign_t\000"
 3938      6C69676E 
 3938      5F7400
 3939              	.LASF79:
 3940 0311 77726974 		.ascii	"write\000"
 3940      6500
ARM GAS  C:\Users\DNIEL~1\AppData\Local\Temp\cc3Fm2Fs.s 			page 76


 3941              	.LASF108:
 3942 0317 70757474 		.ascii	"putt\000"
 3942      00
 3943              	.LASF152:
 3944 031c 43414E5F 		.ascii	"CAN_TX_ONE_VIRE\000"
 3944      54585F4F 
 3944      4E455F56 
 3944      49524500 
 3945              	.LASF103:
 3946 032c 46413152 		.ascii	"FA1R\000"
 3946      00
 3947              	.LASF142:
 3948 0331 6C6F6E67 		.ascii	"long double\000"
 3948      20646F75 
 3948      626C6500 
 3949              	.LASF117:
 3950 033d 43414E5F 		.ascii	"CAN_SLEEP\000"
 3950      534C4545 
 3950      5000
 3951              	.LASF166:
 3952 0347 63616E63 		.ascii	"cancfg\000"
 3952      666700
 3953              	.LASF149:
 3954 034e 43414E5F 		.ascii	"CAN_RX_NUM_CH\000"
 3954      52585F4E 
 3954      554D5F43 
 3954      4800
 3955              	.LASF136:
 3956 035c 5F5F676E 		.ascii	"__gnuc_va_list\000"
 3956      75635F76 
 3956      615F6C69 
 3956      737400
 3957              	.LASF135:
 3958 036b 43414E44 		.ascii	"CANDriver\000"
 3958      72697665 
 3958      7200
 3959              	.LASF143:
 3960 0375 43414E5F 		.ascii	"CAN_RX_BMS\000"
 3960      52585F42 
 3960      4D5300
 3961              	.LASF33:
 3962 0380 705F6F6C 		.ascii	"p_older\000"
 3962      64657200 
 3963              	.LASF55:
 3964 0388 725F6374 		.ascii	"r_ctx\000"
 3964      7800
 3965              	.LASF47:
 3966 038e 54687265 		.ascii	"ThreadsQueue\000"
 3966      61647351 
 3966      75657565 
 3966      00
 3967              	.LASF84:
 3968 039b 54444852 		.ascii	"TDHR\000"
 3968      00
 3969              	.LASF58:
 3970 03a0 725F6375 		.ascii	"r_current\000"
 3970      7272656E 
ARM GAS  C:\Users\DNIEL~1\AppData\Local\Temp\cc3Fm2Fs.s 			page 77


 3970      7400
 3971              	.LASF57:
 3972 03aa 725F6F6C 		.ascii	"r_older\000"
 3972      64657200 
 3973              	.LASF70:
 3974 03b2 656C5F6D 		.ascii	"el_mask\000"
 3974      61736B00 
 3975              	.LASF133:
 3976 03ba 736C6565 		.ascii	"sleep_event\000"
 3976      705F6576 
 3976      656E7400 
 3977              	.LASF118:
 3978 03c6 63616E73 		.ascii	"canstate_t\000"
 3978      74617465 
 3978      5F7400
 3979              	.LASF114:
 3980 03d1 43414E5F 		.ascii	"CAN_STOP\000"
 3980      53544F50 
 3980      00
 3981              	.LASF101:
 3982 03da 46464131 		.ascii	"FFA1R\000"
 3982      5200
 3983              	.LASF132:
 3984 03e0 6572726F 		.ascii	"error_event\000"
 3984      725F6576 
 3984      656E7400 
 3985              	.LASF141:
 3986 03ec 666C6F61 		.ascii	"float\000"
 3986      7400
 3987              	.LASF177:
 3988 03f2 63616E5F 		.ascii	"can_commInit\000"
 3988      636F6D6D 
 3988      496E6974 
 3988      00
 3989              	.LASF19:
 3990 03ff 74726566 		.ascii	"trefs_t\000"
 3990      735F7400 
 3991              	.LASF93:
 3992 0407 52455345 		.ascii	"RESERVED0\000"
 3992      52564544 
 3992      3000
 3993              	.LASF96:
 3994 0411 52455345 		.ascii	"RESERVED1\000"
 3994      52564544 
 3994      3100
 3995              	.LASF98:
 3996 041b 52455345 		.ascii	"RESERVED2\000"
 3996      52564544 
 3996      3200
 3997              	.LASF100:
 3998 0425 52455345 		.ascii	"RESERVED3\000"
 3998      52564544 
 3998      3300
 3999              	.LASF102:
 4000 042f 52455345 		.ascii	"RESERVED4\000"
 4000      52564544 
 4000      3400
ARM GAS  C:\Users\DNIEL~1\AppData\Local\Temp\cc3Fm2Fs.s 			page 78


 4001              	.LASF29:
 4002 0439 705F7072 		.ascii	"p_prev\000"
 4002      657600
 4003              	.LASF21:
 4004 0440 74707269 		.ascii	"tprio_t\000"
 4004      6F5F7400 
 4005              	.LASF113:
 4006 0448 43414E5F 		.ascii	"CAN_UNINIT\000"
 4006      554E494E 
 4006      495400
 4007              	.LASF16:
 4008 0453 5F426F6F 		.ascii	"_Bool\000"
 4008      6C00
 4009              	.LASF13:
 4010 0459 696E7433 		.ascii	"int32_t\000"
 4010      325F7400 
 4011              	.LASF2:
 4012 0461 756E7369 		.ascii	"unsigned char\000"
 4012      676E6564 
 4012      20636861 
 4012      7200
 4013              	.LASF64:
 4014 046f 6D5F7175 		.ascii	"m_queue\000"
 4014      65756500 
 4015              	.LASF134:
 4016 0477 77616B65 		.ascii	"wakeup_event\000"
 4016      75705F65 
 4016      76656E74 
 4016      00
 4017              	.LASF69:
 4018 0484 656C5F6C 		.ascii	"el_listener\000"
 4018      69737465 
 4018      6E657200 
 4019              	.LASF161:
 4020 0490 49544D5F 		.ascii	"ITM_RxBuffer\000"
 4020      52784275 
 4020      66666572 
 4020      00
 4021              	.LASF71:
 4022 049d 656C5F66 		.ascii	"el_flags\000"
 4022      6C616773 
 4022      00
 4023              	.LASF44:
 4024 04a6 705F6D74 		.ascii	"p_mtxlist\000"
 4024      786C6973 
 4024      7400
 4025              	.LASF3:
 4026 04b0 73686F72 		.ascii	"short int\000"
 4026      7420696E 
 4026      7400
 4027              	.LASF35:
 4028 04ba 705F7374 		.ascii	"p_state\000"
 4028      61746500 
 4029              	.LASF38:
 4030 04c2 705F7072 		.ascii	"p_preempt\000"
 4030      65656D70 
 4030      7400
ARM GAS  C:\Users\DNIEL~1\AppData\Local\Temp\cc3Fm2Fs.s 			page 79


 4031              	.LASF54:
 4032 04cc 725F7072 		.ascii	"r_prio\000"
 4032      696F00
 4033              	.LASF77:
 4034 04d3 65776D61 		.ascii	"ewmask\000"
 4034      736B00
 4035              	.LASF28:
 4036 04da 705F6E65 		.ascii	"p_next\000"
 4036      787400
 4037              	.LASF78:
 4038 04e1 42617365 		.ascii	"BaseSequentialStreamVMT\000"
 4038      53657175 
 4038      656E7469 
 4038      616C5374 
 4038      7265616D 
 4039              	.LASF36:
 4040 04f9 705F666C 		.ascii	"p_flags\000"
 4040      61677300 
 4041              	.LASF144:
 4042 0501 43414E5F 		.ascii	"CAN_RX_SM\000"
 4042      52585F53 
 4042      4D00
 4043              	.LASF163:
 4044 050b 63616E5F 		.ascii	"can_rxstate\000"
 4044      72787374 
 4044      61746500 
 4045              	.LASF156:
 4046 0517 63616E5F 		.ascii	"can_tx\000"
 4046      747800
 4047              	.LASF171:
 4048 051e 63616E5F 		.ascii	"can_tx_wa\000"
 4048      74785F77 
 4048      6100
 4049              	.LASF43:
 4050 0528 705F6570 		.ascii	"p_epending\000"
 4050      656E6469 
 4050      6E6700
 4051              	.LASF104:
 4052 0533 52455345 		.ascii	"RESERVED5\000"
 4052      52564544 
 4052      3500
 4053              	.LASF14:
 4054 053d 75696E74 		.ascii	"uint32_t\000"
 4054      33325F74 
 4054      00
 4055              	.LASF53:
 4056 0546 725F7175 		.ascii	"r_queue\000"
 4056      65756500 
 4057              	.LASF131:
 4058 054e 7478656D 		.ascii	"txempty_event\000"
 4058      7074795F 
 4058      6576656E 
 4058      7400
 4059              	.LASF8:
 4060 055c 6C6F6E67 		.ascii	"long unsigned int\000"
 4060      20756E73 
 4060      69676E65 
ARM GAS  C:\Users\DNIEL~1\AppData\Local\Temp\cc3Fm2Fs.s 			page 80


 4060      6420696E 
 4060      7400
 4061              	.LASF80:
 4062 056e 72656164 		.ascii	"read\000"
 4062      00
 4063              	.LASF9:
 4064 0573 63686172 		.ascii	"char\000"
 4064      00
 4065              	.LASF147:
 4066 0578 43414E5F 		.ascii	"CAN_RX_LC\000"
 4066      52585F4C 
 4066      4300
 4067              	.LASF127:
 4068 0582 636F6E66 		.ascii	"config\000"
 4068      696700
 4069              	.LASF88:
 4070 0589 52444852 		.ascii	"RDHR\000"
 4070      00
 4071              	.LASF66:
 4072 058e 6D5F6E65 		.ascii	"m_next\000"
 4072      787400
 4073              	.LASF25:
 4074 0595 73797374 		.ascii	"systime_t\000"
 4074      696D655F 
 4074      7400
 4075              	.LASF45:
 4076 059f 705F7265 		.ascii	"p_realprio\000"
 4076      616C7072 
 4076      696F00
 4077              	.LASF119:
 4078 05aa 64617461 		.ascii	"data8\000"
 4078      3800
 4079              	.LASF95:
 4080 05b0 73464946 		.ascii	"sFIFOMailBox\000"
 4080      4F4D6169 
 4080      6C426F78 
 4080      00
 4081              	.LASF138:
 4082 05bd 5F5F6170 		.ascii	"__ap\000"
 4082      00
 4083              	.LASF52:
 4084 05c2 636F6E74 		.ascii	"context\000"
 4084      65787400 
 4085              	.LASF97:
 4086 05ca 464D3152 		.ascii	"FM1R\000"
 4086      00
 4087              	.LASF51:
 4088 05cf 696E7463 		.ascii	"intctx\000"
 4088      747800
 4089              	.LASF174:
 4090 05d6 7372632F 		.ascii	"src/can_comm.c\000"
 4090      63616E5F 
 4090      636F6D6D 
 4090      2E6300
 4091              	.LASF60:
 4092 05e5 53656D61 		.ascii	"Semaphore\000"
 4092      70686F72 
ARM GAS  C:\Users\DNIEL~1\AppData\Local\Temp\cc3Fm2Fs.s 			page 81


 4092      6500
 4093              	.LASF24:
 4094 05ef 666C6167 		.ascii	"flagsmask_t\000"
 4094      736D6173 
 4094      6B5F7400 
 4095              	.LASF120:
 4096 05fb 64617461 		.ascii	"data16\000"
 4096      313600
 4097              	.LASF99:
 4098 0602 46533152 		.ascii	"FS1R\000"
 4098      00
 4099              	.LASF34:
 4100 0607 705F6E61 		.ascii	"p_name\000"
 4100      6D6500
 4101              	.LASF73:
 4102 060e 65735F6E 		.ascii	"es_next\000"
 4102      65787400 
 4103              	.LASF59:
 4104 0616 52656164 		.ascii	"ReadyList\000"
 4104      794C6973 
 4104      7400
 4105              	.LASF89:
 4106 0620 43414E5F 		.ascii	"CAN_FIFOMailBox_TypeDef\000"
 4106      4649464F 
 4106      4D61696C 
 4106      426F785F 
 4106      54797065 
 4107              	.LASF150:
 4108 0638 63616E5F 		.ascii	"can_rxState\000"
 4108      72785374 
 4108      61746500 
 4109              	.LASF11:
 4110 0644 75696E74 		.ascii	"uint8_t\000"
 4110      385F7400 
 4111              	.LASF168:
 4112 064c 74785F63 		.ascii	"tx_chanel\000"
 4112      68616E65 
 4112      6C00
 4113              	.LASF129:
 4114 0656 72787365 		.ascii	"rxsem\000"
 4114      6D00
 4115              	.LASF145:
 4116 065c 43414E5F 		.ascii	"CAN_RX_ML\000"
 4116      52585F4D 
 4116      4C00
 4117              	.LASF67:
 4118 0666 4576656E 		.ascii	"EventListener\000"
 4118      744C6973 
 4118      74656E65 
 4118      7200
 4119              	.LASF76:
 4120 0674 77746F62 		.ascii	"wtobjp\000"
 4120      6A7000
 4121              	.LASF173:
 4122 067b 474E5520 		.ascii	"GNU C 4.5.2\000"
 4122      4320342E 
 4122      352E3200 
ARM GAS  C:\Users\DNIEL~1\AppData\Local\Temp\cc3Fm2Fs.s 			page 82


 4123              	.LASF158:
 4124 0687 61726763 		.ascii	"argc\000"
 4124      00
 4125              	.LASF157:
 4126 068c 74785F73 		.ascii	"tx_status\000"
 4126      74617475 
 4126      7300
 4127              	.LASF115:
 4128 0696 43414E5F 		.ascii	"CAN_STARTING\000"
 4128      53544152 
 4128      54494E47 
 4128      00
 4129              	.LASF42:
 4130 06a3 705F6D73 		.ascii	"p_msg\000"
 4130      6700
 4131              	.LASF112:
 4132 06a9 42617365 		.ascii	"BaseChannel\000"
 4132      4368616E 
 4132      6E656C00 
 4133              	.LASF87:
 4134 06b5 52444C52 		.ascii	"RDLR\000"
 4134      00
 4135              	.LASF159:
 4136 06ba 61726776 		.ascii	"argv\000"
 4136      00
 4137              	.LASF65:
 4138 06bf 6D5F6F77 		.ascii	"m_owner\000"
 4138      6E657200 
 4139              	.LASF31:
 4140 06c7 705F6374 		.ascii	"p_ctx\000"
 4140      7800
 4141              	.LASF40:
 4142 06cd 705F7761 		.ascii	"p_waiting\000"
 4142      6974696E 
 4142      6700
 4143              	.LASF176:
 4144 06d7 63687072 		.ascii	"chprintf\000"
 4144      696E7466 
 4144      00
 4145              		.ident	"GCC: (Sourcery G++ Lite 2011.03-42) 4.5.2"
ARM GAS  C:\Users\DNIEL~1\AppData\Local\Temp\cc3Fm2Fs.s 			page 83


DEFINED SYMBOLS
                            *ABS*:00000000 can_comm.c
C:\Users\DNIEL~1\AppData\Local\Temp\cc3Fm2Fs.s:24     .text.chprintf:00000000 $t
C:\Users\DNIEL~1\AppData\Local\Temp\cc3Fm2Fs.s:29     .text.chprintf:00000000 chprintf
C:\Users\DNIEL~1\AppData\Local\Temp\cc3Fm2Fs.s:69     .text.can_rx:00000000 $t
C:\Users\DNIEL~1\AppData\Local\Temp\cc3Fm2Fs.s:74     .text.can_rx:00000000 can_rx
C:\Users\DNIEL~1\AppData\Local\Temp\cc3Fm2Fs.s:225    .text.can_rx:000000e4 $d
C:\Users\DNIEL~1\AppData\Local\Temp\cc3Fm2Fs.s:237    .text.can_tx:00000000 $t
C:\Users\DNIEL~1\AppData\Local\Temp\cc3Fm2Fs.s:242    .text.can_tx:00000000 can_tx
C:\Users\DNIEL~1\AppData\Local\Temp\cc3Fm2Fs.s:319    .text.can_tx:00000064 $d
C:\Users\DNIEL~1\AppData\Local\Temp\cc3Fm2Fs.s:327    .text.can_commInit:00000000 $t
C:\Users\DNIEL~1\AppData\Local\Temp\cc3Fm2Fs.s:333    .text.can_commInit:00000000 can_commInit
C:\Users\DNIEL~1\AppData\Local\Temp\cc3Fm2Fs.s:387    .text.can_commInit:00000048 $d
C:\Users\DNIEL~1\AppData\Local\Temp\cc3Fm2Fs.s:398    .text.cmd_can_commvalues:00000000 $t
C:\Users\DNIEL~1\AppData\Local\Temp\cc3Fm2Fs.s:404    .text.cmd_can_commvalues:00000000 cmd_can_commvalues
C:\Users\DNIEL~1\AppData\Local\Temp\cc3Fm2Fs.s:549    .text.cmd_can_commvalues:000000f4 $d
C:\Users\DNIEL~1\AppData\Local\Temp\cc3Fm2Fs.s:580    .bss.can_rxstate:00000000 can_rxstate
C:\Users\DNIEL~1\AppData\Local\Temp\cc3Fm2Fs.s:599    .bss.can_txstate:00000000 can_txstate
C:\Users\DNIEL~1\AppData\Local\Temp\cc3Fm2Fs.s:581    .bss.can_rxstate:00000000 $d
C:\Users\DNIEL~1\AppData\Local\Temp\cc3Fm2Fs.s:583    .bss.id:00000000 $d
C:\Users\DNIEL~1\AppData\Local\Temp\cc3Fm2Fs.s:587    .bss.id:00000000 id
C:\Users\DNIEL~1\AppData\Local\Temp\cc3Fm2Fs.s:590    .bss.txmsg:00000000 $d
C:\Users\DNIEL~1\AppData\Local\Temp\cc3Fm2Fs.s:594    .bss.txmsg:00000000 txmsg
C:\Users\DNIEL~1\AppData\Local\Temp\cc3Fm2Fs.s:600    .bss.can_txstate:00000000 $d
C:\Users\DNIEL~1\AppData\Local\Temp\cc3Fm2Fs.s:602    .bss.can_tx_wa:00000000 $d
C:\Users\DNIEL~1\AppData\Local\Temp\cc3Fm2Fs.s:606    .bss.can_tx_wa:00000000 can_tx_wa
C:\Users\DNIEL~1\AppData\Local\Temp\cc3Fm2Fs.s:609    .rodata.str1.4:00000000 $d
C:\Users\DNIEL~1\AppData\Local\Temp\cc3Fm2Fs.s:668    .bss.messages:00000000 $d
C:\Users\DNIEL~1\AppData\Local\Temp\cc3Fm2Fs.s:672    .bss.messages:00000000 messages
C:\Users\DNIEL~1\AppData\Local\Temp\cc3Fm2Fs.s:675    .bss.rxmsg:00000000 $d
C:\Users\DNIEL~1\AppData\Local\Temp\cc3Fm2Fs.s:679    .bss.rxmsg:00000000 rxmsg
C:\Users\DNIEL~1\AppData\Local\Temp\cc3Fm2Fs.s:682    .bss.can_rx_wa:00000000 $d
C:\Users\DNIEL~1\AppData\Local\Temp\cc3Fm2Fs.s:686    .bss.can_rx_wa:00000000 can_rx_wa
C:\Users\DNIEL~1\AppData\Local\Temp\cc3Fm2Fs.s:689    .rodata.cancfg:00000000 $d
C:\Users\DNIEL~1\AppData\Local\Temp\cc3Fm2Fs.s:693    .rodata.cancfg:00000000 cancfg
                     .debug_frame:00000010 $d
C:\Users\DNIEL~1\AppData\Local\Temp\cc3Fm2Fs.s:236    .text.can_rx:00000104 $t
C:\Users\DNIEL~1\AppData\Local\Temp\cc3Fm2Fs.s:326    .text.can_tx:00000074 $t
C:\Users\DNIEL~1\AppData\Local\Temp\cc3Fm2Fs.s:397    .text.can_commInit:00000064 $t
C:\Users\DNIEL~1\AppData\Local\Temp\cc3Fm2Fs.s:576    .text.cmd_can_commvalues:0000014c $t

UNDEFINED SYMBOLS
chvprintf
chEvtRegisterMask
chEvtWaitAnyTimeout
canReceive
chEvtUnregister
CAND1
rlist
one_vireGetValue
canTransmit
chThdSleep
canStart
chThdCreateStatic
