ARM GAS  C:\Users\DNIEL~1\AppData\Local\Temp\ccVs2ifP.s 			page 1


   1              		.syntax unified
   2              		.cpu cortex-m4
   3              		.fpu softvfp
   4              		.eabi_attribute 20, 1
   5              		.eabi_attribute 21, 1
   6              		.eabi_attribute 23, 3
   7              		.eabi_attribute 24, 1
   8              		.eabi_attribute 25, 1
   9              		.eabi_attribute 26, 1
  10              		.eabi_attribute 30, 2
  11              		.eabi_attribute 18, 4
  12              		.thumb
  13              		.file	"can_comm.c"
  14              		.section	.debug_abbrev,"",%progbits
  15              	.Ldebug_abbrev0:
  16              		.section	.debug_info,"",%progbits
  17              	.Ldebug_info0:
  18              		.section	.debug_line,"",%progbits
  19              	.Ldebug_line0:
  20 0000 C5030000 		.text
  20      02000A03 
  20      00000201 
  20      FB0E0D00 
  20      01010101 
  21              	.Ltext0:
  22              		.cfi_sections	.debug_frame
  23              		.section	.text.chprintf,"ax",%progbits
  24              		.align	2
  25              		.p2align 4,,15
  26              		.thumb
  27              		.thumb_func
  28              		.type	chprintf, %function
  29              	chprintf:
  30              	.LFB118:
  31              		.file 1 "../../../Chibios/os/various/chprintf.h"
  32              		.loc 1 69 0
  33              		.cfi_startproc
  34              		@ args = 4, pretend = 12, frame = 8
  35              		@ frame_needed = 0, uses_anonymous_args = 1
  36              	.LVL0:
  37 0000 0EB4     		push	{r1, r2, r3}
  38              	.LCFI0:
  39              		.cfi_def_cfa_offset 12
  40 0002 00B5     		push	{lr}
  41              	.LCFI1:
  42              		.cfi_def_cfa_offset 16
  43 0004 82B0     		sub	sp, sp, #8
  44              	.LCFI2:
  45              		.cfi_def_cfa_offset 24
  46              		.loc 1 69 0
  47 0006 03AB     		add	r3, sp, #12
  48              		.cfi_offset 14, -16
  49              		.cfi_offset 3, -4
  50              		.cfi_offset 2, -8
  51              		.cfi_offset 1, -12
  52 0008 53F8041B 		ldr	r1, [r3], #4
  53              		.loc 1 73 0
ARM GAS  C:\Users\DNIEL~1\AppData\Local\Temp\ccVs2ifP.s 			page 2


  54 000c 1A46     		mov	r2, r3
  55              		.loc 1 72 0
  56 000e 0193     		str	r3, [sp, #4]
  57              		.loc 1 73 0
  58 0010 FFF7FEFF 		bl	chvprintf
  59              	.LVL1:
  60              		.loc 1 75 0
  61 0014 02B0     		add	sp, sp, #8
  62 0016 5DF804EB 		pop	{lr}
  63 001a 03B0     		add	sp, sp, #12
  64 001c 7047     		bx	lr
  65              		.cfi_endproc
  66              	.LFE118:
  67              		.size	chprintf, .-chprintf
  68 001e 00BF     		.section	.text.can_rx,"ax",%progbits
  69              		.align	2
  70              		.p2align 4,,15
  71              		.thumb
  72              		.thumb_func
  73              		.type	can_rx, %function
  74              	can_rx:
  75              	.LFB119:
  76              		.file 2 "src/can_comm.c"
  77              		.loc 2 57 0
  78              		.cfi_startproc
  79              		@ args = 0, pretend = 0, frame = 16
  80              		@ frame_needed = 0, uses_anonymous_args = 0
  81              	.LVL2:
  82 0000 2DE9F043 		push	{r4, r5, r6, r7, r8, r9, lr}
  83              	.LCFI3:
  84              		.cfi_def_cfa_offset 28
  85              		.loc 2 61 0
  86 0004 2F4F     		ldr	r7, .L27
  87              		.cfi_offset 14, -4
  88              		.cfi_offset 9, -8
  89              		.cfi_offset 8, -12
  90              		.cfi_offset 7, -16
  91              		.cfi_offset 6, -20
  92              		.cfi_offset 5, -24
  93              		.cfi_offset 4, -28
  94 0006 304A     		ldr	r2, .L27+4
  95 0008 BB69     		ldr	r3, [r7, #24]
  96              		.loc 2 62 0
  97 000a 3048     		ldr	r0, .L27+8
  98              	.LVL3:
  99              		.loc 2 61 0
 100 000c 9A61     		str	r2, [r3, #24]
 101              		.loc 2 57 0
 102 000e 85B0     		sub	sp, sp, #20
 103              	.LCFI4:
 104              		.cfi_def_cfa_offset 48
 105              		.loc 2 62 0
 106 0010 6946     		mov	r1, sp
 107 0012 0122     		movs	r2, #1
 108              		.loc 2 70 0
 109 0014 2E4C     		ldr	r4, .L27+12
 110              		.loc 2 66 0
ARM GAS  C:\Users\DNIEL~1\AppData\Local\Temp\ccVs2ifP.s 			page 3


 111 0016 2F4E     		ldr	r6, .L27+16
 112              		.loc 2 69 0
 113 0018 2F4D     		ldr	r5, .L27+20
 114              		.loc 2 62 0
 115 001a FFF7FEFF 		bl	chEvtRegisterMask
 116              		.loc 2 70 0
 117 001e A046     		mov	r8, r4
 118              	.L20:
 119              		.loc 2 63 0 discriminator 1
 120 0020 B869     		ldr	r0, [r7, #24]
 121 0022 90F81DE0 		ldrb	lr, [r0, #29]	@ zero_extendqisi2
 122 0026 1EF0040F 		tst	lr, #4
 123 002a 43D1     		bne	.L23
 124              		.loc 2 64 0
 125 002c 4FF0FF30 		mov	r0, #-1
 126 0030 6421     		movs	r1, #100
 127 0032 FFF7FEFF 		bl	chEvtWaitAnyTimeout
 128 0036 0028     		cmp	r0, #0
 129 0038 F2D0     		beq	.L20
 130              	.L21:
 131              		.loc 2 66 0 discriminator 1
 132 003a 0021     		movs	r1, #0
 133 003c 2748     		ldr	r0, .L27+24
 134 003e 254A     		ldr	r2, .L27+16
 135 0040 0B46     		mov	r3, r1
 136 0042 FFF7FEFF 		bl	canReceive
 137 0046 0028     		cmp	r0, #0
 138 0048 EAD1     		bne	.L20
 139              	.L16:
 140              		.loc 2 69 0
 141 004a B268     		ldr	r2, [r6, #8]
 142 004c C2F31C0E 		ubfx	lr, r2, #0, #29
 143 0050 CEF30F23 		ubfx	r3, lr, #8, #16
 144              		.loc 2 78 0
 145 0054 A3F1100C 		sub	ip, r3, #16
 146 0058 1FFA8CF1 		uxth	r1, ip
 147              		.loc 2 70 0
 148 005c 5FFA8EF2 		uxtb	r2, lr
 149              		.loc 2 78 0
 150 0060 0F29     		cmp	r1, #15
 151              		.loc 2 69 0
 152 0062 2B80     		strh	r3, [r5, #0]	@ movhi
 153              		.loc 2 70 0
 154 0064 2280     		strh	r2, [r4, #0]	@ movhi
 155              		.loc 2 78 0
 156 0066 15D8     		bhi	.L6
 157              		.loc 2 79 0
 158 0068 DFF87490 		ldr	r9, .L27+28
 159              		.loc 2 98 0
 160 006c 012A     		cmp	r2, #1
 161              		.loc 2 79 0
 162 006e 89F80000 		strb	r0, [r9, #0]
 163              		.loc 2 98 0
 164 0072 1AD0     		beq	.L24
 165              	.L8:
 166              		.loc 2 101 0
 167 0074 022A     		cmp	r2, #2
ARM GAS  C:\Users\DNIEL~1\AppData\Local\Temp\ccVs2ifP.s 			page 4


 168 0076 14D0     		beq	.L25
 169              	.L14:
 170              		.loc 2 104 0
 171 0078 032A     		cmp	r2, #3
 172 007a 0FD0     		beq	.L26
 173              	.L15:
 174              		.loc 2 107 0
 175 007c 0422     		movs	r2, #4
 176              		.loc 2 66 0
 177 007e 0021     		movs	r1, #0
 178              		.loc 2 107 0
 179 0080 89F80020 		strb	r2, [r9, #0]
 180              		.loc 2 66 0
 181 0084 1548     		ldr	r0, .L27+24
 182 0086 134A     		ldr	r2, .L27+16
 183 0088 0B46     		mov	r3, r1
 184 008a FFF7FEFF 		bl	canReceive
 185 008e 0028     		cmp	r0, #0
 186 0090 DBD0     		beq	.L16
 187 0092 C5E7     		b	.L20
 188              	.L6:
 189              		.loc 2 92 0
 190 0094 124B     		ldr	r3, .L27+28
 191 0096 0420     		movs	r0, #4
 192 0098 1870     		strb	r0, [r3, #0]
 193 009a CEE7     		b	.L21
 194              	.L26:
 195              		.loc 2 105 0
 196 009c FFF7FEFF 		bl	lightWarning
 197 00a0 ECE7     		b	.L15
 198              	.L25:
 199              		.loc 2 102 0
 200 00a2 FFF7FEFF 		bl	lightLeft
 201 00a6 2288     		ldrh	r2, [r4, #0]
 202 00a8 E6E7     		b	.L14
 203              	.L24:
 204              		.loc 2 99 0
 205 00aa FFF7FEFF 		bl	lightRight
 206 00ae B8F80020 		ldrh	r2, [r8, #0]
 207 00b2 DFE7     		b	.L8
 208              	.L23:
 209              		.loc 2 130 0
 210 00b4 0548     		ldr	r0, .L27+8
 211 00b6 6946     		mov	r1, sp
 212 00b8 FFF7FEFF 		bl	chEvtUnregister
 213              		.loc 2 133 0
 214 00bc 0020     		movs	r0, #0
 215 00be 05B0     		add	sp, sp, #20
 216 00c0 BDE8F083 		pop	{r4, r5, r6, r7, r8, r9, pc}
 217              	.L28:
 218              		.align	2
 219              	.L27:
 220 00c4 00000000 		.word	rlist
 221 00c8 00000000 		.word	.LC0
 222 00cc 20000000 		.word	CAND1+32
 223 00d0 00000000 		.word	.LANCHOR2
 224 00d4 00000000 		.word	.LANCHOR0
ARM GAS  C:\Users\DNIEL~1\AppData\Local\Temp\ccVs2ifP.s 			page 5


 225 00d8 00000000 		.word	.LANCHOR1
 226 00dc 00000000 		.word	CAND1
 227 00e0 00000000 		.word	.LANCHOR3
 228              		.cfi_endproc
 229              	.LFE119:
 230              		.size	can_rx, .-can_rx
 231 00e4 AFF30080 		.section	.text.can_commInit,"ax",%progbits
 231      AFF30080 
 231      AFF30080 
 232              		.align	2
 233              		.p2align 4,,15
 234              		.global	can_commInit
 235              		.thumb
 236              		.thumb_func
 237              		.type	can_commInit, %function
 238              	can_commInit:
 239              	.LFB121:
 240              		.loc 2 158 0
 241              		.cfi_startproc
 242              		@ args = 0, pretend = 0, frame = 0
 243              		@ frame_needed = 0, uses_anonymous_args = 0
 244 0000 00B5     		push	{lr}
 245              	.LCFI5:
 246              		.cfi_def_cfa_offset 4
 247              		.loc 2 159 0
 248 0002 0848     		ldr	r0, .L30
 249 0004 0849     		ldr	r1, .L30+4
 250              		.loc 2 158 0
 251 0006 83B0     		sub	sp, sp, #12
 252              	.LCFI6:
 253              		.cfi_def_cfa_offset 16
 254              		.loc 2 159 0
 255              		.cfi_offset 14, -4
 256 0008 FFF7FEFF 		bl	canStart
 257              		.loc 2 161 0
 258 000c 0022     		movs	r2, #0
 259 000e 0092     		str	r2, [sp, #0]
 260 0010 064B     		ldr	r3, .L30+8
 261 0012 0748     		ldr	r0, .L30+12
 262 0014 4FF4E871 		mov	r1, #464
 263 0018 4022     		movs	r2, #64
 264 001a FFF7FEFF 		bl	chThdCreateStatic
 265              		.loc 2 162 0
 266 001e 03B0     		add	sp, sp, #12
 267 0020 00BD     		pop	{pc}
 268              	.L31:
 269 0022 00BF     		.align	2
 270              	.L30:
 271 0024 00000000 		.word	CAND1
 272 0028 00000000 		.word	.LANCHOR4
 273 002c 00000000 		.word	can_rx
 274 0030 00000000 		.word	.LANCHOR5
 275              		.cfi_endproc
 276              	.LFE121:
 277              		.size	can_commInit, .-can_commInit
 278 0034 AFF30080 		.section	.text.cmd_can_commvalues,"ax",%progbits
 278      AFF30080 
ARM GAS  C:\Users\DNIEL~1\AppData\Local\Temp\ccVs2ifP.s 			page 6


 278      AFF30080 
 279              		.align	2
 280              		.p2align 4,,15
 281              		.global	cmd_can_commvalues
 282              		.thumb
 283              		.thumb_func
 284              		.type	cmd_can_commvalues, %function
 285              	cmd_can_commvalues:
 286              	.LFB122:
 287              		.loc 2 164 0
 288              		.cfi_startproc
 289              		@ args = 0, pretend = 0, frame = 0
 290              		@ frame_needed = 0, uses_anonymous_args = 0
 291              	.LVL4:
 292 0000 F8B5     		push	{r3, r4, r5, r6, r7, lr}
 293              	.LCFI7:
 294              		.cfi_def_cfa_offset 24
 295              		.loc 2 168 0
 296 0002 2449     		ldr	r1, .L35
 297              	.LVL5:
 298              		.loc 2 172 0
 299 0004 244D     		ldr	r5, .L35+4
 300              		.cfi_offset 14, -4
 301              		.cfi_offset 7, -8
 302              		.cfi_offset 6, -12
 303              		.cfi_offset 5, -16
 304              		.cfi_offset 4, -20
 305              		.cfi_offset 3, -24
 306              		.loc 2 173 0
 307 0006 254F     		ldr	r7, .L35+8
 308              		.loc 2 174 0
 309 0008 254E     		ldr	r6, .L35+12
 310              		.loc 2 164 0
 311 000a 0446     		mov	r4, r0
 312              		.loc 2 168 0
 313 000c FFF7FEFF 		bl	chprintf
 314              	.LVL6:
 315              		.loc 2 169 0
 316 0010 2046     		mov	r0, r4
 317 0012 2449     		ldr	r1, .L35+16
 318 0014 FFF7FEFF 		bl	chprintf
 319              		.loc 2 170 0
 320 0018 32E0     		b	.L33
 321              	.L34:
 322              		.loc 2 171 0
 323 001a 0022     		movs	r2, #0
 324 001c 1346     		mov	r3, r2
 325 001e 2046     		mov	r0, r4
 326 0020 2149     		ldr	r1, .L35+20
 327 0022 FFF7FEFF 		bl	chprintf
 328              		.loc 2 172 0
 329 0026 AA68     		ldr	r2, [r5, #8]
 330 0028 2049     		ldr	r1, .L35+24
 331 002a 22F06042 		bic	r2, r2, #-536870912
 332 002e 2046     		mov	r0, r4
 333 0030 FFF7FEFF 		bl	chprintf
 334              		.loc 2 173 0
ARM GAS  C:\Users\DNIEL~1\AppData\Local\Temp\ccVs2ifP.s 			page 7


 335 0034 2046     		mov	r0, r4
 336 0036 1E49     		ldr	r1, .L35+28
 337 0038 3A88     		ldrh	r2, [r7, #0]
 338 003a FFF7FEFF 		bl	chprintf
 339              		.loc 2 174 0
 340 003e 3288     		ldrh	r2, [r6, #0]
 341 0040 1C49     		ldr	r1, .L35+32
 342 0042 2046     		mov	r0, r4
 343 0044 FFF7FEFF 		bl	chprintf
 344              		.loc 2 175 0
 345 0048 2046     		mov	r0, r4
 346 004a 1B49     		ldr	r1, .L35+36
 347 004c FFF7FEFF 		bl	chprintf
 348              		.loc 2 176 0
 349 0050 2046     		mov	r0, r4
 350 0052 1A49     		ldr	r1, .L35+40
 351 0054 AA89     		ldrh	r2, [r5, #12]
 352 0056 FFF7FEFF 		bl	chprintf
 353              		.loc 2 177 0
 354 005a 2046     		mov	r0, r4
 355 005c 1849     		ldr	r1, .L35+44
 356 005e EA89     		ldrh	r2, [r5, #14]
 357 0060 FFF7FEFF 		bl	chprintf
 358              		.loc 2 178 0
 359 0064 2046     		mov	r0, r4
 360 0066 1749     		ldr	r1, .L35+48
 361 0068 2A8A     		ldrh	r2, [r5, #16]
 362 006a FFF7FEFF 		bl	chprintf
 363              		.loc 2 179 0
 364 006e 2046     		mov	r0, r4
 365 0070 1549     		ldr	r1, .L35+52
 366 0072 6A8A     		ldrh	r2, [r5, #18]
 367 0074 FFF7FEFF 		bl	chprintf
 368              		.loc 2 181 0
 369 0078 4FF47A70 		mov	r0, #1000
 370 007c FFF7FEFF 		bl	chThdSleep
 371              	.L33:
 372              		.loc 2 170 0 discriminator 1
 373 0080 2168     		ldr	r1, [r4, #0]
 374 0082 2046     		mov	r0, r4
 375 0084 4B69     		ldr	r3, [r1, #20]
 376 0086 0021     		movs	r1, #0
 377 0088 9847     		blx	r3
 378 008a B0F1FF3F 		cmp	r0, #-1
 379 008e C4D0     		beq	.L34
 380              		.loc 2 183 0
 381 0090 F8BD     		pop	{r3, r4, r5, r6, r7, pc}
 382              	.L36:
 383 0092 00BF     		.align	2
 384              	.L35:
 385 0094 0C000000 		.word	.LC1
 386 0098 00000000 		.word	.LANCHOR0
 387 009c 00000000 		.word	.LANCHOR1
 388 00a0 00000000 		.word	.LANCHOR2
 389 00a4 10000000 		.word	.LC2
 390 00a8 18000000 		.word	.LC3
 391 00ac 24000000 		.word	.LC4
ARM GAS  C:\Users\DNIEL~1\AppData\Local\Temp\ccVs2ifP.s 			page 8


 392 00b0 34000000 		.word	.LC5
 393 00b4 40000000 		.word	.LC6
 394 00b8 54000000 		.word	.LC7
 395 00bc 58000000 		.word	.LC8
 396 00c0 6C000000 		.word	.LC9
 397 00c4 80000000 		.word	.LC10
 398 00c8 94000000 		.word	.LC11
 399              		.cfi_endproc
 400              	.LFE122:
 401              		.size	cmd_can_commvalues, .-cmd_can_commvalues
 402              		.global	canstate
 403 00cc AFF30080 		.section	.bss.id,"aw",%nobits
 404              		.align	1
 405              		.set	.LANCHOR1,. + 0
 406              		.type	id, %object
 407              		.size	id, 2
 408              	id:
 409 0000 0000     		.space	2
 410              		.section	.bss.can_rx_wa,"aw",%nobits
 411              		.align	3
 412              		.set	.LANCHOR5,. + 0
 413              		.type	can_rx_wa, %object
 414              		.size	can_rx_wa, 464
 415              	can_rx_wa:
 416 0000 00000000 		.space	464
 416      00000000 
 416      00000000 
 416      00000000 
 416      00000000 
 417              		.section	.rodata.str1.4,"aMS",%progbits,1
 418              		.align	2
 419              	.LC0:
 420 0000 72656365 		.ascii	"receiver\000"
 420      69766572 
 420      00
 421 0009 000000   		.space	3
 422              	.LC1:
 423 000c 1B6300   		.ascii	"\033c\000"
 424 000f 00       		.space	1
 425              	.LC2:
 426 0010 1B5B324A 		.ascii	"\033[2J\000"
 426      00
 427 0015 000000   		.space	3
 428              	.LC3:
 429 0018 1B5B2564 		.ascii	"\033[%d;%dH\000"
 429      3B256448 
 429      00
 430 0021 000000   		.space	3
 431              	.LC4:
 432 0024 52582E45 		.ascii	"RX.EID : %x \015\012\000"
 432      4944203A 
 432      20257820 
 432      0D0A00
 433 0033 00       		.space	1
 434              	.LC5:
 435 0034 6964203A 		.ascii	"id : %x \015\012\000"
 435      20257820 
ARM GAS  C:\Users\DNIEL~1\AppData\Local\Temp\ccVs2ifP.s 			page 9


 435      0D0A00
 436 003f 00       		.space	1
 437              	.LC6:
 438 0040 6D657373 		.ascii	"messages : %x \015\012\000"
 438      61676573 
 438      203A2025 
 438      78200D0A 
 438      00
 439 0051 000000   		.space	3
 440              	.LC7:
 441 0054 0D0A00   		.ascii	"\015\012\000"
 442 0057 00       		.space	1
 443              	.LC8:
 444 0058 52582E44 		.ascii	"RX.DATA1 : %d \015\012\000"
 444      41544131 
 444      203A2025 
 444      64200D0A 
 444      00
 445 0069 000000   		.space	3
 446              	.LC9:
 447 006c 52582E44 		.ascii	"RX.DATA2 : %d \015\012\000"
 447      41544132 
 447      203A2025 
 447      64200D0A 
 447      00
 448 007d 000000   		.space	3
 449              	.LC10:
 450 0080 52582E44 		.ascii	"RX.DATA3 : %d \015\012\000"
 450      41544133 
 450      203A2025 
 450      64200D0A 
 450      00
 451 0091 000000   		.space	3
 452              	.LC11:
 453 0094 52582E44 		.ascii	"RX.DATA4 : %d \015\012\000"
 453      41544134 
 453      203A2025 
 453      64200D0A 
 453      00
 454 00a5 000000   		.section	.bss.canstate,"aw",%nobits
 455              		.set	.LANCHOR3,. + 0
 456              		.type	canstate, %object
 457              		.size	canstate, 1
 458              	canstate:
 459 0000 00       		.space	1
 460              		.section	.bss.messages,"aw",%nobits
 461              		.align	1
 462              		.set	.LANCHOR2,. + 0
 463              		.type	messages, %object
 464              		.size	messages, 2
 465              	messages:
 466 0000 0000     		.space	2
 467              		.section	.bss.rxmsg,"aw",%nobits
 468              		.align	2
 469              		.set	.LANCHOR0,. + 0
 470              		.type	rxmsg, %object
 471              		.size	rxmsg, 20
ARM GAS  C:\Users\DNIEL~1\AppData\Local\Temp\ccVs2ifP.s 			page 10


 472              	rxmsg:
 473 0000 00000000 		.space	20
 473      00000000 
 473      00000000 
 473      00000000 
 473      00000000 
 474              		.section	.rodata.cancfg,"a",%progbits
 475              		.align	2
 476              		.set	.LANCHOR4,. + 0
 477              		.type	cancfg, %object
 478              		.size	cancfg, 8
 479              	cancfg:
 480 0000 40000000 		.word	64
 481 0004 06001800 		.word	1572870
 482              		.text
 483              	.Letext0:
 484              		.section	.debug_loc,"",%progbits
 485              	.Ldebug_loc0:
 486              	.LLST0:
 487 0000 00000000 		.4byte	.LFB118
 488 0004 02000000 		.4byte	.LCFI0
 489 0008 0200     		.2byte	0x2
 490 000a 7D       		.byte	0x7d
 491 000b 00       		.sleb128 0
 492 000c 02000000 		.4byte	.LCFI0
 493 0010 04000000 		.4byte	.LCFI1
 494 0014 0200     		.2byte	0x2
 495 0016 7D       		.byte	0x7d
 496 0017 0C       		.sleb128 12
 497 0018 04000000 		.4byte	.LCFI1
 498 001c 06000000 		.4byte	.LCFI2
 499 0020 0200     		.2byte	0x2
 500 0022 7D       		.byte	0x7d
 501 0023 10       		.sleb128 16
 502 0024 06000000 		.4byte	.LCFI2
 503 0028 1E000000 		.4byte	.LFE118
 504 002c 0200     		.2byte	0x2
 505 002e 7D       		.byte	0x7d
 506 002f 18       		.sleb128 24
 507 0030 00000000 		.4byte	0x0
 508 0034 00000000 		.4byte	0x0
 509              	.LLST1:
 510 0038 00000000 		.4byte	.LVL0
 511 003c 13000000 		.4byte	.LVL1-1
 512 0040 0100     		.2byte	0x1
 513 0042 50       		.byte	0x50
 514 0043 00000000 		.4byte	0x0
 515 0047 00000000 		.4byte	0x0
 516              	.LLST2:
 517 004b 00000000 		.4byte	.LFB119
 518 004f 04000000 		.4byte	.LCFI3
 519 0053 0200     		.2byte	0x2
 520 0055 7D       		.byte	0x7d
 521 0056 00       		.sleb128 0
 522 0057 04000000 		.4byte	.LCFI3
 523 005b 10000000 		.4byte	.LCFI4
 524 005f 0200     		.2byte	0x2
ARM GAS  C:\Users\DNIEL~1\AppData\Local\Temp\ccVs2ifP.s 			page 11


 525 0061 7D       		.byte	0x7d
 526 0062 1C       		.sleb128 28
 527 0063 10000000 		.4byte	.LCFI4
 528 0067 E4000000 		.4byte	.LFE119
 529 006b 0200     		.2byte	0x2
 530 006d 7D       		.byte	0x7d
 531 006e 30       		.sleb128 48
 532 006f 00000000 		.4byte	0x0
 533 0073 00000000 		.4byte	0x0
 534              	.LLST3:
 535 0077 00000000 		.4byte	.LVL2
 536 007b 0C000000 		.4byte	.LVL3
 537 007f 0100     		.2byte	0x1
 538 0081 50       		.byte	0x50
 539 0082 00000000 		.4byte	0x0
 540 0086 00000000 		.4byte	0x0
 541              	.LLST4:
 542 008a 00000000 		.4byte	.LFB121
 543 008e 02000000 		.4byte	.LCFI5
 544 0092 0200     		.2byte	0x2
 545 0094 7D       		.byte	0x7d
 546 0095 00       		.sleb128 0
 547 0096 02000000 		.4byte	.LCFI5
 548 009a 08000000 		.4byte	.LCFI6
 549 009e 0200     		.2byte	0x2
 550 00a0 7D       		.byte	0x7d
 551 00a1 04       		.sleb128 4
 552 00a2 08000000 		.4byte	.LCFI6
 553 00a6 34000000 		.4byte	.LFE121
 554 00aa 0200     		.2byte	0x2
 555 00ac 7D       		.byte	0x7d
 556 00ad 10       		.sleb128 16
 557 00ae 00000000 		.4byte	0x0
 558 00b2 00000000 		.4byte	0x0
 559              	.LLST5:
 560 00b6 00000000 		.4byte	.LFB122
 561 00ba 02000000 		.4byte	.LCFI7
 562 00be 0200     		.2byte	0x2
 563 00c0 7D       		.byte	0x7d
 564 00c1 00       		.sleb128 0
 565 00c2 02000000 		.4byte	.LCFI7
 566 00c6 CC000000 		.4byte	.LFE122
 567 00ca 0200     		.2byte	0x2
 568 00cc 7D       		.byte	0x7d
 569 00cd 18       		.sleb128 24
 570 00ce 00000000 		.4byte	0x0
 571 00d2 00000000 		.4byte	0x0
 572              	.LLST6:
 573 00d6 00000000 		.4byte	.LVL4
 574 00da 0F000000 		.4byte	.LVL6-1
 575 00de 0100     		.2byte	0x1
 576 00e0 50       		.byte	0x50
 577 00e1 0F000000 		.4byte	.LVL6-1
 578 00e5 CC000000 		.4byte	.LFE122
 579 00e9 0100     		.2byte	0x1
 580 00eb 54       		.byte	0x54
 581 00ec 00000000 		.4byte	0x0
ARM GAS  C:\Users\DNIEL~1\AppData\Local\Temp\ccVs2ifP.s 			page 12


 582 00f0 00000000 		.4byte	0x0
 583              	.LLST7:
 584 00f4 00000000 		.4byte	.LVL4
 585 00f8 04000000 		.4byte	.LVL5
 586 00fc 0100     		.2byte	0x1
 587 00fe 51       		.byte	0x51
 588 00ff 00000000 		.4byte	0x0
 589 0103 00000000 		.4byte	0x0
 590              	.LLST8:
 591 0107 00000000 		.4byte	.LVL4
 592 010b 0F000000 		.4byte	.LVL6-1
 593 010f 0100     		.2byte	0x1
 594 0111 52       		.byte	0x52
 595 0112 00000000 		.4byte	0x0
 596 0116 00000000 		.4byte	0x0
 597              		.file 3 "c:\\program files (x86)\\codesourcery\\sourcery g++ lite\\bin\\../lib/gcc/arm-none-eabi/4
 598              		.file 4 "c:\\program files (x86)\\codesourcery\\sourcery g++ lite\\bin\\../lib/gcc/arm-none-eabi/4
 599              		.file 5 "../../../Chibios/os/ports/GCC/ARMCMx/chtypes.h"
 600              		.file 6 "../../../Chibios/os/kernel/include/chlists.h"
 601              		.file 7 "../../../Chibios/os/kernel/include/chthreads.h"
 602              		.file 8 "../../../Chibios/os/ports/GCC/ARMCMx/chcore_v7m.h"
 603              		.file 9 "../../../Chibios/os/kernel/include/chschd.h"
 604              		.file 10 "../../../Chibios/os/kernel/include/chsem.h"
 605              		.file 11 "../../../Chibios/os/kernel/include/chmtx.h"
 606              		.file 12 "../../../Chibios/os/kernel/include/chevents.h"
 607              		.file 13 "../../../Chibios/os/kernel/include/chstreams.h"
 608              		.file 14 "../../../Chibios/os/hal/platforms/STM32F4xx/stm32f4xx.h"
 609              		.file 15 "../../../Chibios/os/hal/include/io_channel.h"
 610              		.file 16 "../../../Chibios/os/hal/include/can.h"
 611              		.file 17 "../../../Chibios/os/hal/platforms/STM32/can_lld.h"
 612              		.file 18 "c:\\program files (x86)\\codesourcery\\sourcery g++ lite\\bin\\../lib/gcc/arm-none-eabi/
 613              		.file 19 "<built-in>"
 614              		.file 20 "../../../Chibios/os/ports/common/ARMCMx/CMSIS/include/core_cm4.h"
 615              		.section	.debug_info
 616 0000 730F0000 		.4byte	0xf73
 617 0004 0200     		.2byte	0x2
 618 0006 00000000 		.4byte	.Ldebug_abbrev0
 619 000a 04       		.byte	0x4
 620 000b 01       		.uleb128 0x1
 621 000c 04060000 		.4byte	.LASF161
 622 0010 01       		.byte	0x1
 623 0011 6A050000 		.4byte	.LASF162
 624 0015 BC000000 		.4byte	.LASF163
 625 0019 00000000 		.4byte	0x0
 626 001d 00000000 		.4byte	0x0
 627 0021 00000000 		.4byte	.Ldebug_ranges0+0x0
 628 0025 00000000 		.4byte	.Ldebug_line0
 629 0029 02       		.uleb128 0x2
 630 002a 19000000 		.4byte	.LASF10
 631 002e 03       		.byte	0x3
 632 002f D3       		.byte	0xd3
 633 0030 34000000 		.4byte	0x34
 634 0034 03       		.uleb128 0x3
 635 0035 04       		.byte	0x4
 636 0036 07       		.byte	0x7
 637 0037 E7010000 		.4byte	.LASF0
 638 003b 03       		.uleb128 0x3
ARM GAS  C:\Users\DNIEL~1\AppData\Local\Temp\ccVs2ifP.s 			page 13


 639 003c 01       		.byte	0x1
 640 003d 06       		.byte	0x6
 641 003e B0000000 		.4byte	.LASF1
 642 0042 03       		.uleb128 0x3
 643 0043 01       		.byte	0x1
 644 0044 08       		.byte	0x8
 645 0045 12040000 		.4byte	.LASF2
 646 0049 03       		.uleb128 0x3
 647 004a 02       		.byte	0x2
 648 004b 05       		.byte	0x5
 649 004c 61040000 		.4byte	.LASF3
 650 0050 03       		.uleb128 0x3
 651 0051 02       		.byte	0x2
 652 0052 07       		.byte	0x7
 653 0053 2B020000 		.4byte	.LASF4
 654 0057 04       		.uleb128 0x4
 655 0058 04       		.byte	0x4
 656 0059 05       		.byte	0x5
 657 005a 696E7400 		.ascii	"int\000"
 658 005e 03       		.uleb128 0x3
 659 005f 08       		.byte	0x8
 660 0060 05       		.byte	0x5
 661 0061 A2000000 		.4byte	.LASF5
 662 0065 03       		.uleb128 0x3
 663 0066 08       		.byte	0x8
 664 0067 07       		.byte	0x7
 665 0068 5F000000 		.4byte	.LASF6
 666 006c 03       		.uleb128 0x3
 667 006d 04       		.byte	0x4
 668 006e 05       		.byte	0x5
 669 006f 15010000 		.4byte	.LASF7
 670 0073 05       		.uleb128 0x5
 671 0074 04       		.byte	0x4
 672 0075 03       		.uleb128 0x3
 673 0076 04       		.byte	0x4
 674 0077 07       		.byte	0x7
 675 0078 FC040000 		.4byte	.LASF8
 676 007c 06       		.uleb128 0x6
 677 007d 04       		.byte	0x4
 678 007e 82000000 		.4byte	0x82
 679 0082 03       		.uleb128 0x3
 680 0083 01       		.byte	0x1
 681 0084 08       		.byte	0x8
 682 0085 13050000 		.4byte	.LASF9
 683 0089 06       		.uleb128 0x6
 684 008a 04       		.byte	0x4
 685 008b 8F000000 		.4byte	0x8f
 686 008f 07       		.uleb128 0x7
 687 0090 82000000 		.4byte	0x82
 688 0094 02       		.uleb128 0x2
 689 0095 D2050000 		.4byte	.LASF11
 690 0099 04       		.byte	0x4
 691 009a 2A       		.byte	0x2a
 692 009b 42000000 		.4byte	0x42
 693 009f 02       		.uleb128 0x2
 694 00a0 57010000 		.4byte	.LASF12
 695 00a4 04       		.byte	0x4
ARM GAS  C:\Users\DNIEL~1\AppData\Local\Temp\ccVs2ifP.s 			page 14


 696 00a5 36       		.byte	0x36
 697 00a6 50000000 		.4byte	0x50
 698 00aa 02       		.uleb128 0x2
 699 00ab 0A040000 		.4byte	.LASF13
 700 00af 04       		.byte	0x4
 701 00b0 4F       		.byte	0x4f
 702 00b1 6C000000 		.4byte	0x6c
 703 00b5 02       		.uleb128 0x2
 704 00b6 DD040000 		.4byte	.LASF14
 705 00ba 04       		.byte	0x4
 706 00bb 50       		.byte	0x50
 707 00bc 75000000 		.4byte	0x75
 708 00c0 02       		.uleb128 0x2
 709 00c1 32000000 		.4byte	.LASF15
 710 00c5 04       		.byte	0x4
 711 00c6 78       		.byte	0x78
 712 00c7 65000000 		.4byte	0x65
 713 00cb 03       		.uleb128 0x3
 714 00cc 01       		.byte	0x1
 715 00cd 02       		.byte	0x2
 716 00ce 04040000 		.4byte	.LASF16
 717 00d2 02       		.uleb128 0x2
 718 00d3 7A020000 		.4byte	.LASF17
 719 00d7 05       		.byte	0x5
 720 00d8 2C       		.byte	0x2c
 721 00d9 94000000 		.4byte	0x94
 722 00dd 02       		.uleb128 0x2
 723 00de 1E010000 		.4byte	.LASF18
 724 00e2 05       		.byte	0x5
 725 00e3 2D       		.byte	0x2d
 726 00e4 94000000 		.4byte	0x94
 727 00e8 02       		.uleb128 0x2
 728 00e9 B0030000 		.4byte	.LASF19
 729 00ed 05       		.byte	0x5
 730 00ee 2E       		.byte	0x2e
 731 00ef 94000000 		.4byte	0x94
 732 00f3 02       		.uleb128 0x2
 733 00f4 00010000 		.4byte	.LASF20
 734 00f8 05       		.byte	0x5
 735 00f9 2F       		.byte	0x2f
 736 00fa 94000000 		.4byte	0x94
 737 00fe 02       		.uleb128 0x2
 738 00ff F1030000 		.4byte	.LASF21
 739 0103 05       		.byte	0x5
 740 0104 30       		.byte	0x30
 741 0105 B5000000 		.4byte	0xb5
 742 0109 02       		.uleb128 0x2
 743 010a 65020000 		.4byte	.LASF22
 744 010e 05       		.byte	0x5
 745 010f 31       		.byte	0x31
 746 0110 AA000000 		.4byte	0xaa
 747 0114 02       		.uleb128 0x2
 748 0115 9E020000 		.4byte	.LASF23
 749 0119 05       		.byte	0x5
 750 011a 33       		.byte	0x33
 751 011b B5000000 		.4byte	0xb5
 752 011f 02       		.uleb128 0x2
ARM GAS  C:\Users\DNIEL~1\AppData\Local\Temp\ccVs2ifP.s 			page 15


 753 0120 83050000 		.4byte	.LASF24
 754 0124 05       		.byte	0x5
 755 0125 34       		.byte	0x34
 756 0126 B5000000 		.4byte	0xb5
 757 012a 02       		.uleb128 0x2
 758 012b 34050000 		.4byte	.LASF25
 759 012f 05       		.byte	0x5
 760 0130 35       		.byte	0x35
 761 0131 B5000000 		.4byte	0xb5
 762 0135 02       		.uleb128 0x2
 763 0136 E1010000 		.4byte	.LASF26
 764 013a 05       		.byte	0x5
 765 013b 36       		.byte	0x36
 766 013c AA000000 		.4byte	0xaa
 767 0140 02       		.uleb128 0x2
 768 0141 B7040000 		.4byte	.LASF27
 769 0145 06       		.byte	0x6
 770 0146 2A       		.byte	0x2a
 771 0147 4B010000 		.4byte	0x14b
 772 014b 08       		.uleb128 0x8
 773 014c B7040000 		.4byte	.LASF27
 774 0150 48       		.byte	0x48
 775 0151 07       		.byte	0x7
 776 0152 5E       		.byte	0x5e
 777 0153 70020000 		.4byte	0x270
 778 0157 09       		.uleb128 0x9
 779 0158 8B040000 		.4byte	.LASF28
 780 015c 07       		.byte	0x7
 781 015d 5F       		.byte	0x5f
 782 015e 95020000 		.4byte	0x295
 783 0162 02       		.byte	0x2
 784 0163 23       		.byte	0x23
 785 0164 00       		.uleb128 0x0
 786 0165 09       		.uleb128 0x9
 787 0166 EA030000 		.4byte	.LASF29
 788 016a 07       		.byte	0x7
 789 016b 61       		.byte	0x61
 790 016c 95020000 		.4byte	0x295
 791 0170 02       		.byte	0x2
 792 0171 23       		.byte	0x23
 793 0172 04       		.uleb128 0x4
 794 0173 09       		.uleb128 0x9
 795 0174 95000000 		.4byte	.LASF30
 796 0178 07       		.byte	0x7
 797 0179 63       		.byte	0x63
 798 017a FE000000 		.4byte	0xfe
 799 017e 02       		.byte	0x2
 800 017f 23       		.byte	0x23
 801 0180 08       		.uleb128 0x8
 802 0181 09       		.uleb128 0x9
 803 0182 46060000 		.4byte	.LASF31
 804 0186 07       		.byte	0x7
 805 0187 64       		.byte	0x64
 806 0188 6C030000 		.4byte	0x36c
 807 018c 02       		.byte	0x2
 808 018d 23       		.byte	0x23
 809 018e 0C       		.uleb128 0xc
ARM GAS  C:\Users\DNIEL~1\AppData\Local\Temp\ccVs2ifP.s 			page 16


 810 018f 09       		.uleb128 0x9
 811 0190 6E010000 		.4byte	.LASF32
 812 0194 07       		.byte	0x7
 813 0195 66       		.byte	0x66
 814 0196 95020000 		.4byte	0x295
 815 019a 02       		.byte	0x2
 816 019b 23       		.byte	0x23
 817 019c 10       		.uleb128 0x10
 818 019d 09       		.uleb128 0x9
 819 019e 31030000 		.4byte	.LASF33
 820 01a2 07       		.byte	0x7
 821 01a3 67       		.byte	0x67
 822 01a4 95020000 		.4byte	0x295
 823 01a8 02       		.byte	0x2
 824 01a9 23       		.byte	0x23
 825 01aa 14       		.uleb128 0x14
 826 01ab 09       		.uleb128 0x9
 827 01ac 9B050000 		.4byte	.LASF34
 828 01b0 07       		.byte	0x7
 829 01b1 6E       		.byte	0x6e
 830 01b2 89000000 		.4byte	0x89
 831 01b6 02       		.byte	0x2
 832 01b7 23       		.byte	0x23
 833 01b8 18       		.uleb128 0x18
 834 01b9 09       		.uleb128 0x9
 835 01ba 6B040000 		.4byte	.LASF35
 836 01be 07       		.byte	0x7
 837 01bf 79       		.byte	0x79
 838 01c0 DD000000 		.4byte	0xdd
 839 01c4 02       		.byte	0x2
 840 01c5 23       		.byte	0x23
 841 01c6 1C       		.uleb128 0x1c
 842 01c7 09       		.uleb128 0x9
 843 01c8 AA040000 		.4byte	.LASF36
 844 01cc 07       		.byte	0x7
 845 01cd 7D       		.byte	0x7d
 846 01ce D2000000 		.4byte	0xd2
 847 01d2 02       		.byte	0x2
 848 01d3 23       		.byte	0x23
 849 01d4 1D       		.uleb128 0x1d
 850 01d5 09       		.uleb128 0x9
 851 01d6 47010000 		.4byte	.LASF37
 852 01da 07       		.byte	0x7
 853 01db 82       		.byte	0x82
 854 01dc E8000000 		.4byte	0xe8
 855 01e0 02       		.byte	0x2
 856 01e1 23       		.byte	0x23
 857 01e2 1E       		.uleb128 0x1e
 858 01e3 09       		.uleb128 0x9
 859 01e4 73040000 		.4byte	.LASF38
 860 01e8 07       		.byte	0x7
 861 01e9 88       		.byte	0x88
 862 01ea F3000000 		.4byte	0xf3
 863 01ee 02       		.byte	0x2
 864 01ef 23       		.byte	0x23
 865 01f0 1F       		.uleb128 0x1f
 866 01f1 09       		.uleb128 0x9
ARM GAS  C:\Users\DNIEL~1\AppData\Local\Temp\ccVs2ifP.s 			page 17


 867 01f2 60010000 		.4byte	.LASF39
 868 01f6 07       		.byte	0x7
 869 01f7 8F       		.byte	0x8f
 870 01f8 94030000 		.4byte	0x394
 871 01fc 02       		.byte	0x2
 872 01fd 23       		.byte	0x23
 873 01fe 20       		.uleb128 0x20
 874 01ff 0A       		.uleb128 0xa
 875 0200 705F7500 		.ascii	"p_u\000"
 876 0204 07       		.byte	0x7
 877 0205 B4       		.byte	0xb4
 878 0206 F9040000 		.4byte	0x4f9
 879 020a 02       		.byte	0x2
 880 020b 23       		.byte	0x23
 881 020c 24       		.uleb128 0x24
 882 020d 09       		.uleb128 0x9
 883 020e 4C060000 		.4byte	.LASF40
 884 0212 07       		.byte	0x7
 885 0213 B9       		.byte	0xb9
 886 0214 BD020000 		.4byte	0x2bd
 887 0218 02       		.byte	0x2
 888 0219 23       		.byte	0x23
 889 021a 28       		.uleb128 0x28
 890 021b 09       		.uleb128 0x9
 891 021c 05020000 		.4byte	.LASF41
 892 0220 07       		.byte	0x7
 893 0221 BF       		.byte	0xbf
 894 0222 9B020000 		.4byte	0x29b
 895 0226 02       		.byte	0x2
 896 0227 23       		.byte	0x23
 897 0228 2C       		.uleb128 0x2c
 898 0229 09       		.uleb128 0x9
 899 022a 22060000 		.4byte	.LASF42
 900 022e 07       		.byte	0x7
 901 022f C3       		.byte	0xc3
 902 0230 09010000 		.4byte	0x109
 903 0234 02       		.byte	0x2
 904 0235 23       		.byte	0x23
 905 0236 34       		.uleb128 0x34
 906 0237 09       		.uleb128 0x9
 907 0238 C8040000 		.4byte	.LASF43
 908 023c 07       		.byte	0x7
 909 023d C9       		.byte	0xc9
 910 023e 14010000 		.4byte	0x114
 911 0242 02       		.byte	0x2
 912 0243 23       		.byte	0x23
 913 0244 38       		.uleb128 0x38
 914 0245 09       		.uleb128 0x9
 915 0246 57040000 		.4byte	.LASF44
 916 024a 07       		.byte	0x7
 917 024b D0       		.byte	0xd0
 918 024c 2E050000 		.4byte	0x52e
 919 0250 02       		.byte	0x2
 920 0251 23       		.byte	0x23
 921 0252 3C       		.uleb128 0x3c
 922 0253 09       		.uleb128 0x9
 923 0254 3E050000 		.4byte	.LASF45
ARM GAS  C:\Users\DNIEL~1\AppData\Local\Temp\ccVs2ifP.s 			page 18


 924 0258 07       		.byte	0x7
 925 0259 D4       		.byte	0xd4
 926 025a FE000000 		.4byte	0xfe
 927 025e 02       		.byte	0x2
 928 025f 23       		.byte	0x23
 929 0260 40       		.uleb128 0x40
 930 0261 09       		.uleb128 0x9
 931 0262 F2000000 		.4byte	.LASF46
 932 0266 07       		.byte	0x7
 933 0267 DA       		.byte	0xda
 934 0268 73000000 		.4byte	0x73
 935 026c 02       		.byte	0x2
 936 026d 23       		.byte	0x23
 937 026e 44       		.uleb128 0x44
 938 026f 00       		.byte	0x0
 939 0270 0B       		.uleb128 0xb
 940 0271 08       		.byte	0x8
 941 0272 06       		.byte	0x6
 942 0273 61       		.byte	0x61
 943 0274 95020000 		.4byte	0x295
 944 0278 09       		.uleb128 0x9
 945 0279 8B040000 		.4byte	.LASF28
 946 027d 06       		.byte	0x6
 947 027e 62       		.byte	0x62
 948 027f 95020000 		.4byte	0x295
 949 0283 02       		.byte	0x2
 950 0284 23       		.byte	0x23
 951 0285 00       		.uleb128 0x0
 952 0286 09       		.uleb128 0x9
 953 0287 EA030000 		.4byte	.LASF29
 954 028b 06       		.byte	0x6
 955 028c 64       		.byte	0x64
 956 028d 95020000 		.4byte	0x295
 957 0291 02       		.byte	0x2
 958 0292 23       		.byte	0x23
 959 0293 04       		.uleb128 0x4
 960 0294 00       		.byte	0x0
 961 0295 06       		.uleb128 0x6
 962 0296 04       		.byte	0x4
 963 0297 40010000 		.4byte	0x140
 964 029b 02       		.uleb128 0x2
 965 029c 3F030000 		.4byte	.LASF47
 966 02a0 06       		.byte	0x6
 967 02a1 66       		.byte	0x66
 968 02a2 70020000 		.4byte	0x270
 969 02a6 0B       		.uleb128 0xb
 970 02a7 04       		.byte	0x4
 971 02a8 06       		.byte	0x6
 972 02a9 6B       		.byte	0x6b
 973 02aa BD020000 		.4byte	0x2bd
 974 02ae 09       		.uleb128 0x9
 975 02af 8B040000 		.4byte	.LASF28
 976 02b3 06       		.byte	0x6
 977 02b4 6D       		.byte	0x6d
 978 02b5 95020000 		.4byte	0x295
 979 02b9 02       		.byte	0x2
 980 02ba 23       		.byte	0x23
ARM GAS  C:\Users\DNIEL~1\AppData\Local\Temp\ccVs2ifP.s 			page 19


 981 02bb 00       		.uleb128 0x0
 982 02bc 00       		.byte	0x0
 983 02bd 02       		.uleb128 0x2
 984 02be 82020000 		.4byte	.LASF48
 985 02c2 06       		.byte	0x6
 986 02c3 70       		.byte	0x70
 987 02c4 A6020000 		.4byte	0x2a6
 988 02c8 02       		.uleb128 0x2
 989 02c9 AD010000 		.4byte	.LASF49
 990 02cd 08       		.byte	0x8
 991 02ce E5       		.byte	0xe5
 992 02cf 73000000 		.4byte	0x73
 993 02d3 02       		.uleb128 0x2
 994 02d4 C1020000 		.4byte	.LASF50
 995 02d8 08       		.byte	0x8
 996 02d9 EB       		.byte	0xeb
 997 02da C0000000 		.4byte	0xc0
 998 02de 0C       		.uleb128 0xc
 999 02df 63050000 		.4byte	.LASF51
 1000 02e3 24       		.byte	0x24
 1001 02e4 08       		.byte	0x8
 1002 02e5 0C01     		.2byte	0x10c
 1003 02e7 6C030000 		.4byte	0x36c
 1004 02eb 0D       		.uleb128 0xd
 1005 02ec 723400   		.ascii	"r4\000"
 1006 02ef 08       		.byte	0x8
 1007 02f0 1F01     		.2byte	0x11f
 1008 02f2 C8020000 		.4byte	0x2c8
 1009 02f6 02       		.byte	0x2
 1010 02f7 23       		.byte	0x23
 1011 02f8 00       		.uleb128 0x0
 1012 02f9 0D       		.uleb128 0xd
 1013 02fa 723500   		.ascii	"r5\000"
 1014 02fd 08       		.byte	0x8
 1015 02fe 2001     		.2byte	0x120
 1016 0300 C8020000 		.4byte	0x2c8
 1017 0304 02       		.byte	0x2
 1018 0305 23       		.byte	0x23
 1019 0306 04       		.uleb128 0x4
 1020 0307 0D       		.uleb128 0xd
 1021 0308 723600   		.ascii	"r6\000"
 1022 030b 08       		.byte	0x8
 1023 030c 2101     		.2byte	0x121
 1024 030e C8020000 		.4byte	0x2c8
 1025 0312 02       		.byte	0x2
 1026 0313 23       		.byte	0x23
 1027 0314 08       		.uleb128 0x8
 1028 0315 0D       		.uleb128 0xd
 1029 0316 723700   		.ascii	"r7\000"
 1030 0319 08       		.byte	0x8
 1031 031a 2201     		.2byte	0x122
 1032 031c C8020000 		.4byte	0x2c8
 1033 0320 02       		.byte	0x2
 1034 0321 23       		.byte	0x23
 1035 0322 0C       		.uleb128 0xc
 1036 0323 0D       		.uleb128 0xd
 1037 0324 723800   		.ascii	"r8\000"
ARM GAS  C:\Users\DNIEL~1\AppData\Local\Temp\ccVs2ifP.s 			page 20


 1038 0327 08       		.byte	0x8
 1039 0328 2301     		.2byte	0x123
 1040 032a C8020000 		.4byte	0x2c8
 1041 032e 02       		.byte	0x2
 1042 032f 23       		.byte	0x23
 1043 0330 10       		.uleb128 0x10
 1044 0331 0D       		.uleb128 0xd
 1045 0332 723900   		.ascii	"r9\000"
 1046 0335 08       		.byte	0x8
 1047 0336 2401     		.2byte	0x124
 1048 0338 C8020000 		.4byte	0x2c8
 1049 033c 02       		.byte	0x2
 1050 033d 23       		.byte	0x23
 1051 033e 14       		.uleb128 0x14
 1052 033f 0D       		.uleb128 0xd
 1053 0340 72313000 		.ascii	"r10\000"
 1054 0344 08       		.byte	0x8
 1055 0345 2501     		.2byte	0x125
 1056 0347 C8020000 		.4byte	0x2c8
 1057 034b 02       		.byte	0x2
 1058 034c 23       		.byte	0x23
 1059 034d 18       		.uleb128 0x18
 1060 034e 0D       		.uleb128 0xd
 1061 034f 72313100 		.ascii	"r11\000"
 1062 0353 08       		.byte	0x8
 1063 0354 2601     		.2byte	0x126
 1064 0356 C8020000 		.4byte	0x2c8
 1065 035a 02       		.byte	0x2
 1066 035b 23       		.byte	0x23
 1067 035c 1C       		.uleb128 0x1c
 1068 035d 0D       		.uleb128 0xd
 1069 035e 6C7200   		.ascii	"lr\000"
 1070 0361 08       		.byte	0x8
 1071 0362 2701     		.2byte	0x127
 1072 0364 C8020000 		.4byte	0x2c8
 1073 0368 02       		.byte	0x2
 1074 0369 23       		.byte	0x23
 1075 036a 20       		.uleb128 0x20
 1076 036b 00       		.byte	0x0
 1077 036c 0C       		.uleb128 0xc
 1078 036d 5B050000 		.4byte	.LASF52
 1079 0371 04       		.byte	0x4
 1080 0372 08       		.byte	0x8
 1081 0373 3101     		.2byte	0x131
 1082 0375 89030000 		.4byte	0x389
 1083 0379 0D       		.uleb128 0xd
 1084 037a 72313300 		.ascii	"r13\000"
 1085 037e 08       		.byte	0x8
 1086 037f 3201     		.2byte	0x132
 1087 0381 89030000 		.4byte	0x389
 1088 0385 02       		.byte	0x2
 1089 0386 23       		.byte	0x23
 1090 0387 00       		.uleb128 0x0
 1091 0388 00       		.byte	0x0
 1092 0389 06       		.uleb128 0x6
 1093 038a 04       		.byte	0x4
 1094 038b DE020000 		.4byte	0x2de
ARM GAS  C:\Users\DNIEL~1\AppData\Local\Temp\ccVs2ifP.s 			page 21


 1095 038f 0E       		.uleb128 0xe
 1096 0390 B5000000 		.4byte	0xb5
 1097 0394 0E       		.uleb128 0xe
 1098 0395 2A010000 		.4byte	0x12a
 1099 0399 0B       		.uleb128 0xb
 1100 039a 1C       		.byte	0x1c
 1101 039b 09       		.byte	0x9
 1102 039c 5E       		.byte	0x5e
 1103 039d F6030000 		.4byte	0x3f6
 1104 03a1 09       		.uleb128 0x9
 1105 03a2 E6040000 		.4byte	.LASF53
 1106 03a6 09       		.byte	0x9
 1107 03a7 5F       		.byte	0x5f
 1108 03a8 9B020000 		.4byte	0x29b
 1109 03ac 02       		.byte	0x2
 1110 03ad 23       		.byte	0x23
 1111 03ae 00       		.uleb128 0x0
 1112 03af 09       		.uleb128 0x9
 1113 03b0 7D040000 		.4byte	.LASF54
 1114 03b4 09       		.byte	0x9
 1115 03b5 60       		.byte	0x60
 1116 03b6 FE000000 		.4byte	0xfe
 1117 03ba 02       		.byte	0x2
 1118 03bb 23       		.byte	0x23
 1119 03bc 08       		.uleb128 0x8
 1120 03bd 09       		.uleb128 0x9
 1121 03be 39030000 		.4byte	.LASF55
 1122 03c2 09       		.byte	0x9
 1123 03c3 62       		.byte	0x62
 1124 03c4 6C030000 		.4byte	0x36c
 1125 03c8 02       		.byte	0x2
 1126 03c9 23       		.byte	0x23
 1127 03ca 0C       		.uleb128 0xc
 1128 03cb 09       		.uleb128 0x9
 1129 03cc A5010000 		.4byte	.LASF56
 1130 03d0 09       		.byte	0x9
 1131 03d1 65       		.byte	0x65
 1132 03d2 95020000 		.4byte	0x295
 1133 03d6 02       		.byte	0x2
 1134 03d7 23       		.byte	0x23
 1135 03d8 10       		.uleb128 0x10
 1136 03d9 09       		.uleb128 0x9
 1137 03da 5B030000 		.4byte	.LASF57
 1138 03de 09       		.byte	0x9
 1139 03df 66       		.byte	0x66
 1140 03e0 95020000 		.4byte	0x295
 1141 03e4 02       		.byte	0x2
 1142 03e5 23       		.byte	0x23
 1143 03e6 14       		.uleb128 0x14
 1144 03e7 09       		.uleb128 0x9
 1145 03e8 51030000 		.4byte	.LASF58
 1146 03ec 09       		.byte	0x9
 1147 03ed 69       		.byte	0x69
 1148 03ee 95020000 		.4byte	0x295
 1149 03f2 02       		.byte	0x2
 1150 03f3 23       		.byte	0x23
 1151 03f4 18       		.uleb128 0x18
ARM GAS  C:\Users\DNIEL~1\AppData\Local\Temp\ccVs2ifP.s 			page 22


 1152 03f5 00       		.byte	0x0
 1153 03f6 02       		.uleb128 0x2
 1154 03f7 AA050000 		.4byte	.LASF59
 1155 03fb 09       		.byte	0x9
 1156 03fc 6B       		.byte	0x6b
 1157 03fd 99030000 		.4byte	0x399
 1158 0401 08       		.uleb128 0x8
 1159 0402 79050000 		.4byte	.LASF60
 1160 0406 0C       		.byte	0xc
 1161 0407 0A       		.byte	0xa
 1162 0408 2C       		.byte	0x2c
 1163 0409 2A040000 		.4byte	0x42a
 1164 040d 09       		.uleb128 0x9
 1165 040e 76010000 		.4byte	.LASF61
 1166 0412 0A       		.byte	0xa
 1167 0413 2D       		.byte	0x2d
 1168 0414 9B020000 		.4byte	0x29b
 1169 0418 02       		.byte	0x2
 1170 0419 23       		.byte	0x23
 1171 041a 00       		.uleb128 0x0
 1172 041b 09       		.uleb128 0x9
 1173 041c 25020000 		.4byte	.LASF62
 1174 0420 0A       		.byte	0xa
 1175 0421 2F       		.byte	0x2f
 1176 0422 35010000 		.4byte	0x135
 1177 0426 02       		.byte	0x2
 1178 0427 23       		.byte	0x23
 1179 0428 08       		.uleb128 0x8
 1180 0429 00       		.byte	0x0
 1181 042a 02       		.uleb128 0x2
 1182 042b 79050000 		.4byte	.LASF60
 1183 042f 0A       		.byte	0xa
 1184 0430 30       		.byte	0x30
 1185 0431 01040000 		.4byte	0x401
 1186 0435 08       		.uleb128 0x8
 1187 0436 AA020000 		.4byte	.LASF63
 1188 043a 10       		.byte	0x10
 1189 043b 0B       		.byte	0xb
 1190 043c 2C       		.byte	0x2c
 1191 043d 6C040000 		.4byte	0x46c
 1192 0441 09       		.uleb128 0x9
 1193 0442 20040000 		.4byte	.LASF64
 1194 0446 0B       		.byte	0xb
 1195 0447 2D       		.byte	0x2d
 1196 0448 9B020000 		.4byte	0x29b
 1197 044c 02       		.byte	0x2
 1198 044d 23       		.byte	0x23
 1199 044e 00       		.uleb128 0x0
 1200 044f 09       		.uleb128 0x9
 1201 0450 3E060000 		.4byte	.LASF65
 1202 0454 0B       		.byte	0xb
 1203 0455 2F       		.byte	0x2f
 1204 0456 95020000 		.4byte	0x295
 1205 045a 02       		.byte	0x2
 1206 045b 23       		.byte	0x23
 1207 045c 08       		.uleb128 0x8
 1208 045d 09       		.uleb128 0x9
ARM GAS  C:\Users\DNIEL~1\AppData\Local\Temp\ccVs2ifP.s 			page 23


 1209 045e 2D050000 		.4byte	.LASF66
 1210 0462 0B       		.byte	0xb
 1211 0463 31       		.byte	0x31
 1212 0464 6C040000 		.4byte	0x46c
 1213 0468 02       		.byte	0x2
 1214 0469 23       		.byte	0x23
 1215 046a 0C       		.uleb128 0xc
 1216 046b 00       		.byte	0x0
 1217 046c 06       		.uleb128 0x6
 1218 046d 04       		.byte	0x4
 1219 046e 35040000 		.4byte	0x435
 1220 0472 02       		.uleb128 0x2
 1221 0473 AA020000 		.4byte	.LASF63
 1222 0477 0B       		.byte	0xb
 1223 0478 33       		.byte	0x33
 1224 0479 35040000 		.4byte	0x435
 1225 047d 02       		.uleb128 0x2
 1226 047e EF050000 		.4byte	.LASF67
 1227 0482 0C       		.byte	0xc
 1228 0483 2C       		.byte	0x2c
 1229 0484 88040000 		.4byte	0x488
 1230 0488 08       		.uleb128 0x8
 1231 0489 EF050000 		.4byte	.LASF67
 1232 048d 10       		.byte	0x10
 1233 048e 0C       		.byte	0xc
 1234 048f 31       		.byte	0x31
 1235 0490 CD040000 		.4byte	0x4cd
 1236 0494 09       		.uleb128 0x9
 1237 0495 6B020000 		.4byte	.LASF68
 1238 0499 0C       		.byte	0xc
 1239 049a 32       		.byte	0x32
 1240 049b CD040000 		.4byte	0x4cd
 1241 049f 02       		.byte	0x2
 1242 04a0 23       		.byte	0x23
 1243 04a1 00       		.uleb128 0x0
 1244 04a2 09       		.uleb128 0x9
 1245 04a3 35040000 		.4byte	.LASF69
 1246 04a7 0C       		.byte	0xc
 1247 04a8 35       		.byte	0x35
 1248 04a9 95020000 		.4byte	0x295
 1249 04ad 02       		.byte	0x2
 1250 04ae 23       		.byte	0x23
 1251 04af 04       		.uleb128 0x4
 1252 04b0 09       		.uleb128 0x9
 1253 04b1 63030000 		.4byte	.LASF70
 1254 04b5 0C       		.byte	0xc
 1255 04b6 37       		.byte	0x37
 1256 04b7 14010000 		.4byte	0x114
 1257 04bb 02       		.byte	0x2
 1258 04bc 23       		.byte	0x23
 1259 04bd 08       		.uleb128 0x8
 1260 04be 09       		.uleb128 0x9
 1261 04bf 4E040000 		.4byte	.LASF71
 1262 04c3 0C       		.byte	0xc
 1263 04c4 3A       		.byte	0x3a
 1264 04c5 1F010000 		.4byte	0x11f
 1265 04c9 02       		.byte	0x2
ARM GAS  C:\Users\DNIEL~1\AppData\Local\Temp\ccVs2ifP.s 			page 24


 1266 04ca 23       		.byte	0x23
 1267 04cb 0C       		.uleb128 0xc
 1268 04cc 00       		.byte	0x0
 1269 04cd 06       		.uleb128 0x6
 1270 04ce 04       		.byte	0x4
 1271 04cf 7D040000 		.4byte	0x47d
 1272 04d3 08       		.uleb128 0x8
 1273 04d4 C0010000 		.4byte	.LASF72
 1274 04d8 04       		.byte	0x4
 1275 04d9 0C       		.byte	0xc
 1276 04da 41       		.byte	0x41
 1277 04db EE040000 		.4byte	0x4ee
 1278 04df 09       		.uleb128 0x9
 1279 04e0 A2050000 		.4byte	.LASF73
 1280 04e4 0C       		.byte	0xc
 1281 04e5 42       		.byte	0x42
 1282 04e6 CD040000 		.4byte	0x4cd
 1283 04ea 02       		.byte	0x2
 1284 04eb 23       		.byte	0x23
 1285 04ec 00       		.uleb128 0x0
 1286 04ed 00       		.byte	0x0
 1287 04ee 02       		.uleb128 0x2
 1288 04ef C0010000 		.4byte	.LASF72
 1289 04f3 0C       		.byte	0xc
 1290 04f4 45       		.byte	0x45
 1291 04f5 D3040000 		.4byte	0x4d3
 1292 04f9 0F       		.uleb128 0xf
 1293 04fa 04       		.byte	0x4
 1294 04fb 07       		.byte	0x7
 1295 04fc 96       		.byte	0x96
 1296 04fd 2E050000 		.4byte	0x52e
 1297 0501 10       		.uleb128 0x10
 1298 0502 2B000000 		.4byte	.LASF74
 1299 0506 07       		.byte	0x7
 1300 0507 9D       		.byte	0x9d
 1301 0508 09010000 		.4byte	0x109
 1302 050c 10       		.uleb128 0x10
 1303 050d 85000000 		.4byte	.LASF75
 1304 0511 07       		.byte	0x7
 1305 0512 A4       		.byte	0xa4
 1306 0513 09010000 		.4byte	0x109
 1307 0517 10       		.uleb128 0x10
 1308 0518 FD050000 		.4byte	.LASF76
 1309 051c 07       		.byte	0x7
 1310 051d AB       		.byte	0xab
 1311 051e 73000000 		.4byte	0x73
 1312 0522 10       		.uleb128 0x10
 1313 0523 84040000 		.4byte	.LASF77
 1314 0527 07       		.byte	0x7
 1315 0528 B2       		.byte	0xb2
 1316 0529 14010000 		.4byte	0x114
 1317 052d 00       		.byte	0x0
 1318 052e 06       		.uleb128 0x6
 1319 052f 04       		.byte	0x4
 1320 0530 72040000 		.4byte	0x472
 1321 0534 06       		.uleb128 0x6
 1322 0535 04       		.byte	0x4
ARM GAS  C:\Users\DNIEL~1\AppData\Local\Temp\ccVs2ifP.s 			page 25


 1323 0536 3A050000 		.4byte	0x53a
 1324 053a 11       		.uleb128 0x11
 1325 053b 01       		.byte	0x1
 1326 053c 09010000 		.4byte	0x109
 1327 0540 4A050000 		.4byte	0x54a
 1328 0544 12       		.uleb128 0x12
 1329 0545 73000000 		.4byte	0x73
 1330 0549 00       		.byte	0x0
 1331 054a 06       		.uleb128 0x6
 1332 054b 04       		.byte	0x4
 1333 054c 94000000 		.4byte	0x94
 1334 0550 08       		.uleb128 0x8
 1335 0551 92040000 		.4byte	.LASF78
 1336 0555 10       		.byte	0x10
 1337 0556 0D       		.byte	0xd
 1338 0557 48       		.byte	0x48
 1339 0558 95050000 		.4byte	0x595
 1340 055c 09       		.uleb128 0x9
 1341 055d CC020000 		.4byte	.LASF79
 1342 0561 0D       		.byte	0xd
 1343 0562 49       		.byte	0x49
 1344 0563 BA050000 		.4byte	0x5ba
 1345 0567 02       		.byte	0x2
 1346 0568 23       		.byte	0x23
 1347 0569 00       		.uleb128 0x0
 1348 056a 09       		.uleb128 0x9
 1349 056b 0E050000 		.4byte	.LASF80
 1350 056f 0D       		.byte	0xd
 1351 0570 49       		.byte	0x49
 1352 0571 DA050000 		.4byte	0x5da
 1353 0575 02       		.byte	0x2
 1354 0576 23       		.byte	0x23
 1355 0577 04       		.uleb128 0x4
 1356 0578 0A       		.uleb128 0xa
 1357 0579 70757400 		.ascii	"put\000"
 1358 057d 0D       		.byte	0xd
 1359 057e 49       		.byte	0x49
 1360 057f F5050000 		.4byte	0x5f5
 1361 0583 02       		.byte	0x2
 1362 0584 23       		.byte	0x23
 1363 0585 08       		.uleb128 0x8
 1364 0586 0A       		.uleb128 0xa
 1365 0587 67657400 		.ascii	"get\000"
 1366 058b 0D       		.byte	0xd
 1367 058c 49       		.byte	0x49
 1368 058d 34050000 		.4byte	0x534
 1369 0591 02       		.byte	0x2
 1370 0592 23       		.byte	0x23
 1371 0593 0C       		.uleb128 0xc
 1372 0594 00       		.byte	0x0
 1373 0595 11       		.uleb128 0x11
 1374 0596 01       		.byte	0x1
 1375 0597 29000000 		.4byte	0x29
 1376 059b AF050000 		.4byte	0x5af
 1377 059f 12       		.uleb128 0x12
 1378 05a0 73000000 		.4byte	0x73
 1379 05a4 12       		.uleb128 0x12
ARM GAS  C:\Users\DNIEL~1\AppData\Local\Temp\ccVs2ifP.s 			page 26


 1380 05a5 AF050000 		.4byte	0x5af
 1381 05a9 12       		.uleb128 0x12
 1382 05aa 29000000 		.4byte	0x29
 1383 05ae 00       		.byte	0x0
 1384 05af 06       		.uleb128 0x6
 1385 05b0 04       		.byte	0x4
 1386 05b1 B5050000 		.4byte	0x5b5
 1387 05b5 07       		.uleb128 0x7
 1388 05b6 94000000 		.4byte	0x94
 1389 05ba 06       		.uleb128 0x6
 1390 05bb 04       		.byte	0x4
 1391 05bc 95050000 		.4byte	0x595
 1392 05c0 11       		.uleb128 0x11
 1393 05c1 01       		.byte	0x1
 1394 05c2 29000000 		.4byte	0x29
 1395 05c6 DA050000 		.4byte	0x5da
 1396 05ca 12       		.uleb128 0x12
 1397 05cb 73000000 		.4byte	0x73
 1398 05cf 12       		.uleb128 0x12
 1399 05d0 4A050000 		.4byte	0x54a
 1400 05d4 12       		.uleb128 0x12
 1401 05d5 29000000 		.4byte	0x29
 1402 05d9 00       		.byte	0x0
 1403 05da 06       		.uleb128 0x6
 1404 05db 04       		.byte	0x4
 1405 05dc C0050000 		.4byte	0x5c0
 1406 05e0 11       		.uleb128 0x11
 1407 05e1 01       		.byte	0x1
 1408 05e2 09010000 		.4byte	0x109
 1409 05e6 F5050000 		.4byte	0x5f5
 1410 05ea 12       		.uleb128 0x12
 1411 05eb 73000000 		.4byte	0x73
 1412 05ef 12       		.uleb128 0x12
 1413 05f0 94000000 		.4byte	0x94
 1414 05f4 00       		.byte	0x0
 1415 05f5 06       		.uleb128 0x6
 1416 05f6 04       		.byte	0x4
 1417 05f7 E0050000 		.4byte	0x5e0
 1418 05fb 0B       		.uleb128 0xb
 1419 05fc 04       		.byte	0x4
 1420 05fd 0D       		.byte	0xd
 1421 05fe 51       		.byte	0x51
 1422 05ff 12060000 		.4byte	0x612
 1423 0603 0A       		.uleb128 0xa
 1424 0604 766D7400 		.ascii	"vmt\000"
 1425 0608 0D       		.byte	0xd
 1426 0609 53       		.byte	0x53
 1427 060a 12060000 		.4byte	0x612
 1428 060e 02       		.byte	0x2
 1429 060f 23       		.byte	0x23
 1430 0610 00       		.uleb128 0x0
 1431 0611 00       		.byte	0x0
 1432 0612 06       		.uleb128 0x6
 1433 0613 04       		.byte	0x4
 1434 0614 18060000 		.4byte	0x618
 1435 0618 07       		.uleb128 0x7
 1436 0619 50050000 		.4byte	0x550
ARM GAS  C:\Users\DNIEL~1\AppData\Local\Temp\ccVs2ifP.s 			page 27


 1437 061d 02       		.uleb128 0x2
 1438 061e CC010000 		.4byte	.LASF81
 1439 0622 0D       		.byte	0xd
 1440 0623 55       		.byte	0x55
 1441 0624 FB050000 		.4byte	0x5fb
 1442 0628 13       		.uleb128 0x13
 1443 0629 B5000000 		.4byte	0xb5
 1444 062d 38060000 		.4byte	0x638
 1445 0631 14       		.uleb128 0x14
 1446 0632 34000000 		.4byte	0x34
 1447 0636 07       		.byte	0x7
 1448 0637 00       		.byte	0x0
 1449 0638 13       		.uleb128 0x13
 1450 0639 B5000000 		.4byte	0xb5
 1451 063d 48060000 		.4byte	0x648
 1452 0641 14       		.uleb128 0x14
 1453 0642 34000000 		.4byte	0x34
 1454 0646 01       		.byte	0x1
 1455 0647 00       		.byte	0x0
 1456 0648 0E       		.uleb128 0xe
 1457 0649 AA000000 		.4byte	0xaa
 1458 064d 15       		.uleb128 0x15
 1459 064e 10       		.byte	0x10
 1460 064f 0E       		.byte	0xe
 1461 0650 2F02     		.2byte	0x22f
 1462 0652 93060000 		.4byte	0x693
 1463 0656 0D       		.uleb128 0xd
 1464 0657 54495200 		.ascii	"TIR\000"
 1465 065b 0E       		.byte	0xe
 1466 065c 3102     		.2byte	0x231
 1467 065e 8F030000 		.4byte	0x38f
 1468 0662 02       		.byte	0x2
 1469 0663 23       		.byte	0x23
 1470 0664 00       		.uleb128 0x0
 1471 0665 16       		.uleb128 0x16
 1472 0666 BB010000 		.4byte	.LASF82
 1473 066a 0E       		.byte	0xe
 1474 066b 3202     		.2byte	0x232
 1475 066d 8F030000 		.4byte	0x38f
 1476 0671 02       		.byte	0x2
 1477 0672 23       		.byte	0x23
 1478 0673 04       		.uleb128 0x4
 1479 0674 16       		.uleb128 0x16
 1480 0675 10010000 		.4byte	.LASF83
 1481 0679 0E       		.byte	0xe
 1482 067a 3302     		.2byte	0x233
 1483 067c 8F030000 		.4byte	0x38f
 1484 0680 02       		.byte	0x2
 1485 0681 23       		.byte	0x23
 1486 0682 08       		.uleb128 0x8
 1487 0683 16       		.uleb128 0x16
 1488 0684 4C030000 		.4byte	.LASF84
 1489 0688 0E       		.byte	0xe
 1490 0689 3402     		.2byte	0x234
 1491 068b 8F030000 		.4byte	0x38f
 1492 068f 02       		.byte	0x2
 1493 0690 23       		.byte	0x23
ARM GAS  C:\Users\DNIEL~1\AppData\Local\Temp\ccVs2ifP.s 			page 28


 1494 0691 0C       		.uleb128 0xc
 1495 0692 00       		.byte	0x0
 1496 0693 17       		.uleb128 0x17
 1497 0694 27010000 		.4byte	.LASF85
 1498 0698 0E       		.byte	0xe
 1499 0699 3502     		.2byte	0x235
 1500 069b 4D060000 		.4byte	0x64d
 1501 069f 15       		.uleb128 0x15
 1502 06a0 10       		.byte	0x10
 1503 06a1 0E       		.byte	0xe
 1504 06a2 3B02     		.2byte	0x23b
 1505 06a4 E5060000 		.4byte	0x6e5
 1506 06a8 0D       		.uleb128 0xd
 1507 06a9 52495200 		.ascii	"RIR\000"
 1508 06ad 0E       		.byte	0xe
 1509 06ae 3D02     		.2byte	0x23d
 1510 06b0 8F030000 		.4byte	0x38f
 1511 06b4 02       		.byte	0x2
 1512 06b5 23       		.byte	0x23
 1513 06b6 00       		.uleb128 0x0
 1514 06b7 16       		.uleb128 0x16
 1515 06b8 10020000 		.4byte	.LASF86
 1516 06bc 0E       		.byte	0xe
 1517 06bd 3E02     		.2byte	0x23e
 1518 06bf 8F030000 		.4byte	0x38f
 1519 06c3 02       		.byte	0x2
 1520 06c4 23       		.byte	0x23
 1521 06c5 04       		.uleb128 0x4
 1522 06c6 16       		.uleb128 0x16
 1523 06c7 34060000 		.4byte	.LASF87
 1524 06cb 0E       		.byte	0xe
 1525 06cc 3F02     		.2byte	0x23f
 1526 06ce 8F030000 		.4byte	0x38f
 1527 06d2 02       		.byte	0x2
 1528 06d3 23       		.byte	0x23
 1529 06d4 08       		.uleb128 0x8
 1530 06d5 16       		.uleb128 0x16
 1531 06d6 1F050000 		.4byte	.LASF88
 1532 06da 0E       		.byte	0xe
 1533 06db 4002     		.2byte	0x240
 1534 06dd 8F030000 		.4byte	0x38f
 1535 06e1 02       		.byte	0x2
 1536 06e2 23       		.byte	0x23
 1537 06e3 0C       		.uleb128 0xc
 1538 06e4 00       		.byte	0x0
 1539 06e5 17       		.uleb128 0x17
 1540 06e6 B4050000 		.4byte	.LASF89
 1541 06ea 0E       		.byte	0xe
 1542 06eb 4102     		.2byte	0x241
 1543 06ed 9F060000 		.4byte	0x69f
 1544 06f1 15       		.uleb128 0x15
 1545 06f2 08       		.byte	0x8
 1546 06f3 0E       		.byte	0xe
 1547 06f4 4702     		.2byte	0x247
 1548 06f6 19070000 		.4byte	0x719
 1549 06fa 0D       		.uleb128 0xd
 1550 06fb 46523100 		.ascii	"FR1\000"
ARM GAS  C:\Users\DNIEL~1\AppData\Local\Temp\ccVs2ifP.s 			page 29


 1551 06ff 0E       		.byte	0xe
 1552 0700 4902     		.2byte	0x249
 1553 0702 8F030000 		.4byte	0x38f
 1554 0706 02       		.byte	0x2
 1555 0707 23       		.byte	0x23
 1556 0708 00       		.uleb128 0x0
 1557 0709 0D       		.uleb128 0xd
 1558 070a 46523200 		.ascii	"FR2\000"
 1559 070e 0E       		.byte	0xe
 1560 070f 4A02     		.2byte	0x24a
 1561 0711 8F030000 		.4byte	0x38f
 1562 0715 02       		.byte	0x2
 1563 0716 23       		.byte	0x23
 1564 0717 04       		.uleb128 0x4
 1565 0718 00       		.byte	0x0
 1566 0719 17       		.uleb128 0x17
 1567 071a 4A020000 		.4byte	.LASF90
 1568 071e 0E       		.byte	0xe
 1569 071f 4B02     		.2byte	0x24b
 1570 0721 F1060000 		.4byte	0x6f1
 1571 0725 18       		.uleb128 0x18
 1572 0726 2003     		.2byte	0x320
 1573 0728 0E       		.byte	0xe
 1574 0729 5102     		.2byte	0x251
 1575 072b 87080000 		.4byte	0x887
 1576 072f 0D       		.uleb128 0xd
 1577 0730 4D435200 		.ascii	"MCR\000"
 1578 0734 0E       		.byte	0xe
 1579 0735 5302     		.2byte	0x253
 1580 0737 8F030000 		.4byte	0x38f
 1581 073b 02       		.byte	0x2
 1582 073c 23       		.byte	0x23
 1583 073d 00       		.uleb128 0x0
 1584 073e 0D       		.uleb128 0xd
 1585 073f 4D535200 		.ascii	"MSR\000"
 1586 0743 0E       		.byte	0xe
 1587 0744 5402     		.2byte	0x254
 1588 0746 8F030000 		.4byte	0x38f
 1589 074a 02       		.byte	0x2
 1590 074b 23       		.byte	0x23
 1591 074c 04       		.uleb128 0x4
 1592 074d 0D       		.uleb128 0xd
 1593 074e 54535200 		.ascii	"TSR\000"
 1594 0752 0E       		.byte	0xe
 1595 0753 5502     		.2byte	0x255
 1596 0755 8F030000 		.4byte	0x38f
 1597 0759 02       		.byte	0x2
 1598 075a 23       		.byte	0x23
 1599 075b 08       		.uleb128 0x8
 1600 075c 16       		.uleb128 0x16
 1601 075d 93010000 		.4byte	.LASF91
 1602 0761 0E       		.byte	0xe
 1603 0762 5602     		.2byte	0x256
 1604 0764 8F030000 		.4byte	0x38f
 1605 0768 02       		.byte	0x2
 1606 0769 23       		.byte	0x23
 1607 076a 0C       		.uleb128 0xc
ARM GAS  C:\Users\DNIEL~1\AppData\Local\Temp\ccVs2ifP.s 			page 30


 1608 076b 16       		.uleb128 0x16
 1609 076c 3E020000 		.4byte	.LASF92
 1610 0770 0E       		.byte	0xe
 1611 0771 5702     		.2byte	0x257
 1612 0773 8F030000 		.4byte	0x38f
 1613 0777 02       		.byte	0x2
 1614 0778 23       		.byte	0x23
 1615 0779 10       		.uleb128 0x10
 1616 077a 0D       		.uleb128 0xd
 1617 077b 49455200 		.ascii	"IER\000"
 1618 077f 0E       		.byte	0xe
 1619 0780 5802     		.2byte	0x258
 1620 0782 8F030000 		.4byte	0x38f
 1621 0786 02       		.byte	0x2
 1622 0787 23       		.byte	0x23
 1623 0788 14       		.uleb128 0x14
 1624 0789 0D       		.uleb128 0xd
 1625 078a 45535200 		.ascii	"ESR\000"
 1626 078e 0E       		.byte	0xe
 1627 078f 5902     		.2byte	0x259
 1628 0791 8F030000 		.4byte	0x38f
 1629 0795 02       		.byte	0x2
 1630 0796 23       		.byte	0x23
 1631 0797 18       		.uleb128 0x18
 1632 0798 0D       		.uleb128 0xd
 1633 0799 42545200 		.ascii	"BTR\000"
 1634 079d 0E       		.byte	0xe
 1635 079e 5A02     		.2byte	0x25a
 1636 07a0 8F030000 		.4byte	0x38f
 1637 07a4 02       		.byte	0x2
 1638 07a5 23       		.byte	0x23
 1639 07a6 1C       		.uleb128 0x1c
 1640 07a7 16       		.uleb128 0x16
 1641 07a8 B8030000 		.4byte	.LASF93
 1642 07ac 0E       		.byte	0xe
 1643 07ad 5B02     		.2byte	0x25b
 1644 07af 87080000 		.4byte	0x887
 1645 07b3 02       		.byte	0x2
 1646 07b4 23       		.byte	0x23
 1647 07b5 20       		.uleb128 0x20
 1648 07b6 16       		.uleb128 0x16
 1649 07b7 FA010000 		.4byte	.LASF94
 1650 07bb 0E       		.byte	0xe
 1651 07bc 5C02     		.2byte	0x25c
 1652 07be 97080000 		.4byte	0x897
 1653 07c2 03       		.byte	0x3
 1654 07c3 23       		.byte	0x23
 1655 07c4 8003     		.uleb128 0x180
 1656 07c6 16       		.uleb128 0x16
 1657 07c7 49050000 		.4byte	.LASF95
 1658 07cb 0E       		.byte	0xe
 1659 07cc 5D02     		.2byte	0x25d
 1660 07ce A7080000 		.4byte	0x8a7
 1661 07d2 03       		.byte	0x3
 1662 07d3 23       		.byte	0x23
 1663 07d4 B003     		.uleb128 0x1b0
 1664 07d6 16       		.uleb128 0x16
ARM GAS  C:\Users\DNIEL~1\AppData\Local\Temp\ccVs2ifP.s 			page 31


 1665 07d7 C2030000 		.4byte	.LASF96
 1666 07db 0E       		.byte	0xe
 1667 07dc 5E02     		.2byte	0x25e
 1668 07de B7080000 		.4byte	0x8b7
 1669 07e2 03       		.byte	0x3
 1670 07e3 23       		.byte	0x23
 1671 07e4 D003     		.uleb128 0x1d0
 1672 07e6 0D       		.uleb128 0xd
 1673 07e7 464D5200 		.ascii	"FMR\000"
 1674 07eb 0E       		.byte	0xe
 1675 07ec 5F02     		.2byte	0x25f
 1676 07ee 8F030000 		.4byte	0x38f
 1677 07f2 03       		.byte	0x3
 1678 07f3 23       		.byte	0x23
 1679 07f4 8004     		.uleb128 0x200
 1680 07f6 16       		.uleb128 0x16
 1681 07f7 B2040000 		.4byte	.LASF97
 1682 07fb 0E       		.byte	0xe
 1683 07fc 6002     		.2byte	0x260
 1684 07fe 8F030000 		.4byte	0x38f
 1685 0802 03       		.byte	0x3
 1686 0803 23       		.byte	0x23
 1687 0804 8404     		.uleb128 0x204
 1688 0806 16       		.uleb128 0x16
 1689 0807 CC030000 		.4byte	.LASF98
 1690 080b 0E       		.byte	0xe
 1691 080c 6102     		.2byte	0x261
 1692 080e B5000000 		.4byte	0xb5
 1693 0812 03       		.byte	0x3
 1694 0813 23       		.byte	0x23
 1695 0814 8804     		.uleb128 0x208
 1696 0816 16       		.uleb128 0x16
 1697 0817 96050000 		.4byte	.LASF99
 1698 081b 0E       		.byte	0xe
 1699 081c 6202     		.2byte	0x262
 1700 081e 8F030000 		.4byte	0x38f
 1701 0822 03       		.byte	0x3
 1702 0823 23       		.byte	0x23
 1703 0824 8C04     		.uleb128 0x20c
 1704 0826 16       		.uleb128 0x16
 1705 0827 D6030000 		.4byte	.LASF100
 1706 082b 0E       		.byte	0xe
 1707 082c 6302     		.2byte	0x263
 1708 082e B5000000 		.4byte	0xb5
 1709 0832 03       		.byte	0x3
 1710 0833 23       		.byte	0x23
 1711 0834 9004     		.uleb128 0x210
 1712 0836 16       		.uleb128 0x16
 1713 0837 8B030000 		.4byte	.LASF101
 1714 083b 0E       		.byte	0xe
 1715 083c 6402     		.2byte	0x264
 1716 083e 8F030000 		.4byte	0x38f
 1717 0842 03       		.byte	0x3
 1718 0843 23       		.byte	0x23
 1719 0844 9404     		.uleb128 0x214
 1720 0846 16       		.uleb128 0x16
 1721 0847 E0030000 		.4byte	.LASF102
ARM GAS  C:\Users\DNIEL~1\AppData\Local\Temp\ccVs2ifP.s 			page 32


 1722 084b 0E       		.byte	0xe
 1723 084c 6502     		.2byte	0x265
 1724 084e B5000000 		.4byte	0xb5
 1725 0852 03       		.byte	0x3
 1726 0853 23       		.byte	0x23
 1727 0854 9804     		.uleb128 0x218
 1728 0856 16       		.uleb128 0x16
 1729 0857 D7020000 		.4byte	.LASF103
 1730 085b 0E       		.byte	0xe
 1731 085c 6602     		.2byte	0x266
 1732 085e 8F030000 		.4byte	0x38f
 1733 0862 03       		.byte	0x3
 1734 0863 23       		.byte	0x23
 1735 0864 9C04     		.uleb128 0x21c
 1736 0866 16       		.uleb128 0x16
 1737 0867 D3040000 		.4byte	.LASF104
 1738 086b 0E       		.byte	0xe
 1739 086c 6702     		.2byte	0x267
 1740 086e 28060000 		.4byte	0x628
 1741 0872 03       		.byte	0x3
 1742 0873 23       		.byte	0x23
 1743 0874 A004     		.uleb128 0x220
 1744 0876 16       		.uleb128 0x16
 1745 0877 8E020000 		.4byte	.LASF105
 1746 087b 0E       		.byte	0xe
 1747 087c 6802     		.2byte	0x268
 1748 087e C7080000 		.4byte	0x8c7
 1749 0882 03       		.byte	0x3
 1750 0883 23       		.byte	0x23
 1751 0884 C004     		.uleb128 0x240
 1752 0886 00       		.byte	0x0
 1753 0887 13       		.uleb128 0x13
 1754 0888 B5000000 		.4byte	0xb5
 1755 088c 97080000 		.4byte	0x897
 1756 0890 14       		.uleb128 0x14
 1757 0891 34000000 		.4byte	0x34
 1758 0895 57       		.byte	0x57
 1759 0896 00       		.byte	0x0
 1760 0897 13       		.uleb128 0x13
 1761 0898 93060000 		.4byte	0x693
 1762 089c A7080000 		.4byte	0x8a7
 1763 08a0 14       		.uleb128 0x14
 1764 08a1 34000000 		.4byte	0x34
 1765 08a5 02       		.byte	0x2
 1766 08a6 00       		.byte	0x0
 1767 08a7 13       		.uleb128 0x13
 1768 08a8 E5060000 		.4byte	0x6e5
 1769 08ac B7080000 		.4byte	0x8b7
 1770 08b0 14       		.uleb128 0x14
 1771 08b1 34000000 		.4byte	0x34
 1772 08b5 01       		.byte	0x1
 1773 08b6 00       		.byte	0x0
 1774 08b7 13       		.uleb128 0x13
 1775 08b8 B5000000 		.4byte	0xb5
 1776 08bc C7080000 		.4byte	0x8c7
 1777 08c0 14       		.uleb128 0x14
 1778 08c1 34000000 		.4byte	0x34
ARM GAS  C:\Users\DNIEL~1\AppData\Local\Temp\ccVs2ifP.s 			page 33


 1779 08c5 0B       		.byte	0xb
 1780 08c6 00       		.byte	0x0
 1781 08c7 13       		.uleb128 0x13
 1782 08c8 19070000 		.4byte	0x719
 1783 08cc D7080000 		.4byte	0x8d7
 1784 08d0 14       		.uleb128 0x14
 1785 08d1 34000000 		.4byte	0x34
 1786 08d5 1B       		.byte	0x1b
 1787 08d6 00       		.byte	0x0
 1788 08d7 17       		.uleb128 0x17
 1789 08d8 4D000000 		.4byte	.LASF106
 1790 08dc 0E       		.byte	0xe
 1791 08dd 6902     		.2byte	0x269
 1792 08df 25070000 		.4byte	0x725
 1793 08e3 08       		.uleb128 0x8
 1794 08e4 76000000 		.4byte	.LASF107
 1795 08e8 20       		.byte	0x20
 1796 08e9 0F       		.byte	0xf
 1797 08ea 4E       		.byte	0x4e
 1798 08eb 60090000 		.4byte	0x960
 1799 08ef 09       		.uleb128 0x9
 1800 08f0 CC020000 		.4byte	.LASF79
 1801 08f4 0F       		.byte	0xf
 1802 08f5 4F       		.byte	0x4f
 1803 08f6 BA050000 		.4byte	0x5ba
 1804 08fa 02       		.byte	0x2
 1805 08fb 23       		.byte	0x23
 1806 08fc 00       		.uleb128 0x0
 1807 08fd 09       		.uleb128 0x9
 1808 08fe 0E050000 		.4byte	.LASF80
 1809 0902 0F       		.byte	0xf
 1810 0903 4F       		.byte	0x4f
 1811 0904 DA050000 		.4byte	0x5da
 1812 0908 02       		.byte	0x2
 1813 0909 23       		.byte	0x23
 1814 090a 04       		.uleb128 0x4
 1815 090b 0A       		.uleb128 0xa
 1816 090c 70757400 		.ascii	"put\000"
 1817 0910 0F       		.byte	0xf
 1818 0911 4F       		.byte	0x4f
 1819 0912 F5050000 		.4byte	0x5f5
 1820 0916 02       		.byte	0x2
 1821 0917 23       		.byte	0x23
 1822 0918 08       		.uleb128 0x8
 1823 0919 0A       		.uleb128 0xa
 1824 091a 67657400 		.ascii	"get\000"
 1825 091e 0F       		.byte	0xf
 1826 091f 4F       		.byte	0x4f
 1827 0920 34050000 		.4byte	0x534
 1828 0924 02       		.byte	0x2
 1829 0925 23       		.byte	0x23
 1830 0926 0C       		.uleb128 0xc
 1831 0927 09       		.uleb128 0x9
 1832 0928 D2020000 		.4byte	.LASF108
 1833 092c 0F       		.byte	0xf
 1834 092d 4F       		.byte	0x4f
 1835 092e 7A090000 		.4byte	0x97a
ARM GAS  C:\Users\DNIEL~1\AppData\Local\Temp\ccVs2ifP.s 			page 34


 1836 0932 02       		.byte	0x2
 1837 0933 23       		.byte	0x23
 1838 0934 10       		.uleb128 0x10
 1839 0935 09       		.uleb128 0x9
 1840 0936 20020000 		.4byte	.LASF109
 1841 093a 0F       		.byte	0xf
 1842 093b 4F       		.byte	0x4f
 1843 093c 95090000 		.4byte	0x995
 1844 0940 02       		.byte	0x2
 1845 0941 23       		.byte	0x23
 1846 0942 14       		.uleb128 0x14
 1847 0943 09       		.uleb128 0x9
 1848 0944 73020000 		.4byte	.LASF110
 1849 0948 0F       		.byte	0xf
 1850 0949 4F       		.byte	0x4f
 1851 094a BA090000 		.4byte	0x9ba
 1852 094e 02       		.byte	0x2
 1853 094f 23       		.byte	0x23
 1854 0950 18       		.uleb128 0x18
 1855 0951 09       		.uleb128 0x9
 1856 0952 9C000000 		.4byte	.LASF111
 1857 0956 0F       		.byte	0xf
 1858 0957 4F       		.byte	0x4f
 1859 0958 DF090000 		.4byte	0x9df
 1860 095c 02       		.byte	0x2
 1861 095d 23       		.byte	0x23
 1862 095e 1C       		.uleb128 0x1c
 1863 095f 00       		.byte	0x0
 1864 0960 11       		.uleb128 0x11
 1865 0961 01       		.byte	0x1
 1866 0962 09010000 		.4byte	0x109
 1867 0966 7A090000 		.4byte	0x97a
 1868 096a 12       		.uleb128 0x12
 1869 096b 73000000 		.4byte	0x73
 1870 096f 12       		.uleb128 0x12
 1871 0970 94000000 		.4byte	0x94
 1872 0974 12       		.uleb128 0x12
 1873 0975 2A010000 		.4byte	0x12a
 1874 0979 00       		.byte	0x0
 1875 097a 06       		.uleb128 0x6
 1876 097b 04       		.byte	0x4
 1877 097c 60090000 		.4byte	0x960
 1878 0980 11       		.uleb128 0x11
 1879 0981 01       		.byte	0x1
 1880 0982 09010000 		.4byte	0x109
 1881 0986 95090000 		.4byte	0x995
 1882 098a 12       		.uleb128 0x12
 1883 098b 73000000 		.4byte	0x73
 1884 098f 12       		.uleb128 0x12
 1885 0990 2A010000 		.4byte	0x12a
 1886 0994 00       		.byte	0x0
 1887 0995 06       		.uleb128 0x6
 1888 0996 04       		.byte	0x4
 1889 0997 80090000 		.4byte	0x980
 1890 099b 11       		.uleb128 0x11
 1891 099c 01       		.byte	0x1
 1892 099d 29000000 		.4byte	0x29
ARM GAS  C:\Users\DNIEL~1\AppData\Local\Temp\ccVs2ifP.s 			page 35


 1893 09a1 BA090000 		.4byte	0x9ba
 1894 09a5 12       		.uleb128 0x12
 1895 09a6 73000000 		.4byte	0x73
 1896 09aa 12       		.uleb128 0x12
 1897 09ab AF050000 		.4byte	0x5af
 1898 09af 12       		.uleb128 0x12
 1899 09b0 29000000 		.4byte	0x29
 1900 09b4 12       		.uleb128 0x12
 1901 09b5 2A010000 		.4byte	0x12a
 1902 09b9 00       		.byte	0x0
 1903 09ba 06       		.uleb128 0x6
 1904 09bb 04       		.byte	0x4
 1905 09bc 9B090000 		.4byte	0x99b
 1906 09c0 11       		.uleb128 0x11
 1907 09c1 01       		.byte	0x1
 1908 09c2 29000000 		.4byte	0x29
 1909 09c6 DF090000 		.4byte	0x9df
 1910 09ca 12       		.uleb128 0x12
 1911 09cb 73000000 		.4byte	0x73
 1912 09cf 12       		.uleb128 0x12
 1913 09d0 4A050000 		.4byte	0x54a
 1914 09d4 12       		.uleb128 0x12
 1915 09d5 29000000 		.4byte	0x29
 1916 09d9 12       		.uleb128 0x12
 1917 09da 2A010000 		.4byte	0x12a
 1918 09de 00       		.byte	0x0
 1919 09df 06       		.uleb128 0x6
 1920 09e0 04       		.byte	0x4
 1921 09e1 C0090000 		.4byte	0x9c0
 1922 09e5 0B       		.uleb128 0xb
 1923 09e6 04       		.byte	0x4
 1924 09e7 0F       		.byte	0xf
 1925 09e8 59       		.byte	0x59
 1926 09e9 FC090000 		.4byte	0x9fc
 1927 09ed 0A       		.uleb128 0xa
 1928 09ee 766D7400 		.ascii	"vmt\000"
 1929 09f2 0F       		.byte	0xf
 1930 09f3 5B       		.byte	0x5b
 1931 09f4 FC090000 		.4byte	0x9fc
 1932 09f8 02       		.byte	0x2
 1933 09f9 23       		.byte	0x23
 1934 09fa 00       		.uleb128 0x0
 1935 09fb 00       		.byte	0x0
 1936 09fc 06       		.uleb128 0x6
 1937 09fd 04       		.byte	0x4
 1938 09fe 020A0000 		.4byte	0xa02
 1939 0a02 07       		.uleb128 0x7
 1940 0a03 E3080000 		.4byte	0x8e3
 1941 0a07 02       		.uleb128 0x2
 1942 0a08 28060000 		.4byte	.LASF112
 1943 0a0c 0F       		.byte	0xf
 1944 0a0d 5D       		.byte	0x5d
 1945 0a0e E5090000 		.4byte	0x9e5
 1946 0a12 19       		.uleb128 0x19
 1947 0a13 01       		.byte	0x1
 1948 0a14 10       		.byte	0x10
 1949 0a15 6E       		.byte	0x6e
ARM GAS  C:\Users\DNIEL~1\AppData\Local\Temp\ccVs2ifP.s 			page 36


 1950 0a16 390A0000 		.4byte	0xa39
 1951 0a1a 1A       		.uleb128 0x1a
 1952 0a1b F9030000 		.4byte	.LASF113
 1953 0a1f 00       		.sleb128 0
 1954 0a20 1A       		.uleb128 0x1a
 1955 0a21 82030000 		.4byte	.LASF114
 1956 0a25 01       		.sleb128 1
 1957 0a26 1A       		.uleb128 0x1a
 1958 0a27 15060000 		.4byte	.LASF115
 1959 0a2b 02       		.sleb128 2
 1960 0a2c 1A       		.uleb128 0x1a
 1961 0a2d 89010000 		.4byte	.LASF116
 1962 0a31 03       		.sleb128 3
 1963 0a32 1A       		.uleb128 0x1a
 1964 0a33 F8020000 		.4byte	.LASF117
 1965 0a37 04       		.sleb128 4
 1966 0a38 00       		.byte	0x0
 1967 0a39 02       		.uleb128 0x2
 1968 0a3a 77030000 		.4byte	.LASF118
 1969 0a3e 10       		.byte	0x10
 1970 0a3f 74       		.byte	0x74
 1971 0a40 120A0000 		.4byte	0xa12
 1972 0a44 0B       		.uleb128 0xb
 1973 0a45 01       		.byte	0x1
 1974 0a46 11       		.byte	0x11
 1975 0a47 9A       		.byte	0x9a
 1976 0a48 800A0000 		.4byte	0xa80
 1977 0a4c 1B       		.uleb128 0x1b
 1978 0a4d 444C4300 		.ascii	"DLC\000"
 1979 0a51 11       		.byte	0x11
 1980 0a52 9B       		.byte	0x9b
 1981 0a53 94000000 		.4byte	0x94
 1982 0a57 01       		.byte	0x1
 1983 0a58 04       		.byte	0x4
 1984 0a59 04       		.byte	0x4
 1985 0a5a 02       		.byte	0x2
 1986 0a5b 23       		.byte	0x23
 1987 0a5c 00       		.uleb128 0x0
 1988 0a5d 1B       		.uleb128 0x1b
 1989 0a5e 52545200 		.ascii	"RTR\000"
 1990 0a62 11       		.byte	0x11
 1991 0a63 9C       		.byte	0x9c
 1992 0a64 94000000 		.4byte	0x94
 1993 0a68 01       		.byte	0x1
 1994 0a69 01       		.byte	0x1
 1995 0a6a 03       		.byte	0x3
 1996 0a6b 02       		.byte	0x2
 1997 0a6c 23       		.byte	0x23
 1998 0a6d 00       		.uleb128 0x0
 1999 0a6e 1B       		.uleb128 0x1b
 2000 0a6f 49444500 		.ascii	"IDE\000"
 2001 0a73 11       		.byte	0x11
 2002 0a74 9D       		.byte	0x9d
 2003 0a75 94000000 		.4byte	0x94
 2004 0a79 01       		.byte	0x1
 2005 0a7a 01       		.byte	0x1
 2006 0a7b 02       		.byte	0x2
ARM GAS  C:\Users\DNIEL~1\AppData\Local\Temp\ccVs2ifP.s 			page 37


 2007 0a7c 02       		.byte	0x2
 2008 0a7d 23       		.byte	0x23
 2009 0a7e 00       		.uleb128 0x0
 2010 0a7f 00       		.byte	0x0
 2011 0a80 0B       		.uleb128 0xb
 2012 0a81 04       		.byte	0x4
 2013 0a82 11       		.byte	0x11
 2014 0a83 A0       		.byte	0xa0
 2015 0a84 9A0A0000 		.4byte	0xa9a
 2016 0a88 1B       		.uleb128 0x1b
 2017 0a89 53494400 		.ascii	"SID\000"
 2018 0a8d 11       		.byte	0x11
 2019 0a8e A1       		.byte	0xa1
 2020 0a8f B5000000 		.4byte	0xb5
 2021 0a93 04       		.byte	0x4
 2022 0a94 0B       		.byte	0xb
 2023 0a95 15       		.byte	0x15
 2024 0a96 02       		.byte	0x2
 2025 0a97 23       		.byte	0x23
 2026 0a98 00       		.uleb128 0x0
 2027 0a99 00       		.byte	0x0
 2028 0a9a 0B       		.uleb128 0xb
 2029 0a9b 04       		.byte	0x4
 2030 0a9c 11       		.byte	0x11
 2031 0a9d A3       		.byte	0xa3
 2032 0a9e B40A0000 		.4byte	0xab4
 2033 0aa2 1B       		.uleb128 0x1b
 2034 0aa3 45494400 		.ascii	"EID\000"
 2035 0aa7 11       		.byte	0x11
 2036 0aa8 A4       		.byte	0xa4
 2037 0aa9 B5000000 		.4byte	0xb5
 2038 0aad 04       		.byte	0x4
 2039 0aae 1D       		.byte	0x1d
 2040 0aaf 03       		.byte	0x3
 2041 0ab0 02       		.byte	0x2
 2042 0ab1 23       		.byte	0x23
 2043 0ab2 00       		.uleb128 0x0
 2044 0ab3 00       		.byte	0x0
 2045 0ab4 0F       		.uleb128 0xf
 2046 0ab5 04       		.byte	0x4
 2047 0ab6 11       		.byte	0x11
 2048 0ab7 9F       		.byte	0x9f
 2049 0ab8 C70A0000 		.4byte	0xac7
 2050 0abc 1C       		.uleb128 0x1c
 2051 0abd 800A0000 		.4byte	0xa80
 2052 0ac1 1C       		.uleb128 0x1c
 2053 0ac2 9A0A0000 		.4byte	0xa9a
 2054 0ac6 00       		.byte	0x0
 2055 0ac7 0F       		.uleb128 0xf
 2056 0ac8 08       		.byte	0x8
 2057 0ac9 11       		.byte	0x11
 2058 0aca A7       		.byte	0xa7
 2059 0acb F10A0000 		.4byte	0xaf1
 2060 0acf 10       		.uleb128 0x10
 2061 0ad0 09030000 		.4byte	.LASF119
 2062 0ad4 11       		.byte	0x11
 2063 0ad5 A8       		.byte	0xa8
ARM GAS  C:\Users\DNIEL~1\AppData\Local\Temp\ccVs2ifP.s 			page 38


 2064 0ad6 F10A0000 		.4byte	0xaf1
 2065 0ada 10       		.uleb128 0x10
 2066 0adb 8F050000 		.4byte	.LASF120
 2067 0adf 11       		.byte	0x11
 2068 0ae0 A9       		.byte	0xa9
 2069 0ae1 010B0000 		.4byte	0xb01
 2070 0ae5 10       		.uleb128 0x10
 2071 0ae6 8E000000 		.4byte	.LASF121
 2072 0aea 11       		.byte	0x11
 2073 0aeb AA       		.byte	0xaa
 2074 0aec 38060000 		.4byte	0x638
 2075 0af0 00       		.byte	0x0
 2076 0af1 13       		.uleb128 0x13
 2077 0af2 94000000 		.4byte	0x94
 2078 0af6 010B0000 		.4byte	0xb01
 2079 0afa 14       		.uleb128 0x14
 2080 0afb 34000000 		.4byte	0x34
 2081 0aff 07       		.byte	0x7
 2082 0b00 00       		.byte	0x0
 2083 0b01 13       		.uleb128 0x13
 2084 0b02 9F000000 		.4byte	0x9f
 2085 0b06 110B0000 		.4byte	0xb11
 2086 0b0a 14       		.uleb128 0x14
 2087 0b0b 34000000 		.4byte	0x34
 2088 0b0f 03       		.byte	0x3
 2089 0b10 00       		.byte	0x0
 2090 0b11 0B       		.uleb128 0xb
 2091 0b12 10       		.byte	0x10
 2092 0b13 11       		.byte	0x11
 2093 0b14 99       		.byte	0x99
 2094 0b15 320B0000 		.4byte	0xb32
 2095 0b19 1D       		.uleb128 0x1d
 2096 0b1a 440A0000 		.4byte	0xa44
 2097 0b1e 02       		.byte	0x2
 2098 0b1f 23       		.byte	0x23
 2099 0b20 00       		.uleb128 0x0
 2100 0b21 1D       		.uleb128 0x1d
 2101 0b22 B40A0000 		.4byte	0xab4
 2102 0b26 02       		.byte	0x2
 2103 0b27 23       		.byte	0x23
 2104 0b28 04       		.uleb128 0x4
 2105 0b29 1D       		.uleb128 0x1d
 2106 0b2a C70A0000 		.4byte	0xac7
 2107 0b2e 02       		.byte	0x2
 2108 0b2f 23       		.byte	0x23
 2109 0b30 08       		.uleb128 0x8
 2110 0b31 00       		.byte	0x0
 2111 0b32 02       		.uleb128 0x2
 2112 0b33 15020000 		.4byte	.LASF122
 2113 0b37 11       		.byte	0x11
 2114 0b38 AC       		.byte	0xac
 2115 0b39 110B0000 		.4byte	0xb11
 2116 0b3d 0B       		.uleb128 0xb
 2117 0b3e 04       		.byte	0x4
 2118 0b3f 11       		.byte	0x11
 2119 0b40 B4       		.byte	0xb4
 2120 0b41 620B0000 		.4byte	0xb62
ARM GAS  C:\Users\DNIEL~1\AppData\Local\Temp\ccVs2ifP.s 			page 39


 2121 0b45 0A       		.uleb128 0xa
 2122 0b46 464D4900 		.ascii	"FMI\000"
 2123 0b4a 11       		.byte	0x11
 2124 0b4b B5       		.byte	0xb5
 2125 0b4c 94000000 		.4byte	0x94
 2126 0b50 02       		.byte	0x2
 2127 0b51 23       		.byte	0x23
 2128 0b52 00       		.uleb128 0x0
 2129 0b53 09       		.uleb128 0x9
 2130 0b54 B6010000 		.4byte	.LASF123
 2131 0b58 11       		.byte	0x11
 2132 0b59 B6       		.byte	0xb6
 2133 0b5a 9F000000 		.4byte	0x9f
 2134 0b5e 02       		.byte	0x2
 2135 0b5f 23       		.byte	0x23
 2136 0b60 02       		.uleb128 0x2
 2137 0b61 00       		.byte	0x0
 2138 0b62 0B       		.uleb128 0xb
 2139 0b63 01       		.byte	0x1
 2140 0b64 11       		.byte	0x11
 2141 0b65 B8       		.byte	0xb8
 2142 0b66 9E0B0000 		.4byte	0xb9e
 2143 0b6a 1B       		.uleb128 0x1b
 2144 0b6b 444C4300 		.ascii	"DLC\000"
 2145 0b6f 11       		.byte	0x11
 2146 0b70 B9       		.byte	0xb9
 2147 0b71 94000000 		.4byte	0x94
 2148 0b75 01       		.byte	0x1
 2149 0b76 04       		.byte	0x4
 2150 0b77 04       		.byte	0x4
 2151 0b78 02       		.byte	0x2
 2152 0b79 23       		.byte	0x23
 2153 0b7a 00       		.uleb128 0x0
 2154 0b7b 1B       		.uleb128 0x1b
 2155 0b7c 52545200 		.ascii	"RTR\000"
 2156 0b80 11       		.byte	0x11
 2157 0b81 BA       		.byte	0xba
 2158 0b82 94000000 		.4byte	0x94
 2159 0b86 01       		.byte	0x1
 2160 0b87 01       		.byte	0x1
 2161 0b88 03       		.byte	0x3
 2162 0b89 02       		.byte	0x2
 2163 0b8a 23       		.byte	0x23
 2164 0b8b 00       		.uleb128 0x0
 2165 0b8c 1B       		.uleb128 0x1b
 2166 0b8d 49444500 		.ascii	"IDE\000"
 2167 0b91 11       		.byte	0x11
 2168 0b92 BB       		.byte	0xbb
 2169 0b93 94000000 		.4byte	0x94
 2170 0b97 01       		.byte	0x1
 2171 0b98 01       		.byte	0x1
 2172 0b99 02       		.byte	0x2
 2173 0b9a 02       		.byte	0x2
 2174 0b9b 23       		.byte	0x23
 2175 0b9c 00       		.uleb128 0x0
 2176 0b9d 00       		.byte	0x0
 2177 0b9e 0B       		.uleb128 0xb
ARM GAS  C:\Users\DNIEL~1\AppData\Local\Temp\ccVs2ifP.s 			page 40


 2178 0b9f 04       		.byte	0x4
 2179 0ba0 11       		.byte	0x11
 2180 0ba1 BE       		.byte	0xbe
 2181 0ba2 B80B0000 		.4byte	0xbb8
 2182 0ba6 1B       		.uleb128 0x1b
 2183 0ba7 53494400 		.ascii	"SID\000"
 2184 0bab 11       		.byte	0x11
 2185 0bac BF       		.byte	0xbf
 2186 0bad B5000000 		.4byte	0xb5
 2187 0bb1 04       		.byte	0x4
 2188 0bb2 0B       		.byte	0xb
 2189 0bb3 15       		.byte	0x15
 2190 0bb4 02       		.byte	0x2
 2191 0bb5 23       		.byte	0x23
 2192 0bb6 00       		.uleb128 0x0
 2193 0bb7 00       		.byte	0x0
 2194 0bb8 0B       		.uleb128 0xb
 2195 0bb9 04       		.byte	0x4
 2196 0bba 11       		.byte	0x11
 2197 0bbb C1       		.byte	0xc1
 2198 0bbc D20B0000 		.4byte	0xbd2
 2199 0bc0 1B       		.uleb128 0x1b
 2200 0bc1 45494400 		.ascii	"EID\000"
 2201 0bc5 11       		.byte	0x11
 2202 0bc6 C2       		.byte	0xc2
 2203 0bc7 B5000000 		.4byte	0xb5
 2204 0bcb 04       		.byte	0x4
 2205 0bcc 1D       		.byte	0x1d
 2206 0bcd 03       		.byte	0x3
 2207 0bce 02       		.byte	0x2
 2208 0bcf 23       		.byte	0x23
 2209 0bd0 00       		.uleb128 0x0
 2210 0bd1 00       		.byte	0x0
 2211 0bd2 0F       		.uleb128 0xf
 2212 0bd3 04       		.byte	0x4
 2213 0bd4 11       		.byte	0x11
 2214 0bd5 BD       		.byte	0xbd
 2215 0bd6 E50B0000 		.4byte	0xbe5
 2216 0bda 1C       		.uleb128 0x1c
 2217 0bdb 9E0B0000 		.4byte	0xb9e
 2218 0bdf 1C       		.uleb128 0x1c
 2219 0be0 B80B0000 		.4byte	0xbb8
 2220 0be4 00       		.byte	0x0
 2221 0be5 0F       		.uleb128 0xf
 2222 0be6 08       		.byte	0x8
 2223 0be7 11       		.byte	0x11
 2224 0be8 C5       		.byte	0xc5
 2225 0be9 0F0C0000 		.4byte	0xc0f
 2226 0bed 10       		.uleb128 0x10
 2227 0bee 09030000 		.4byte	.LASF119
 2228 0bf2 11       		.byte	0x11
 2229 0bf3 C6       		.byte	0xc6
 2230 0bf4 F10A0000 		.4byte	0xaf1
 2231 0bf8 10       		.uleb128 0x10
 2232 0bf9 8F050000 		.4byte	.LASF120
 2233 0bfd 11       		.byte	0x11
 2234 0bfe C7       		.byte	0xc7
ARM GAS  C:\Users\DNIEL~1\AppData\Local\Temp\ccVs2ifP.s 			page 41


 2235 0bff 010B0000 		.4byte	0xb01
 2236 0c03 10       		.uleb128 0x10
 2237 0c04 8E000000 		.4byte	.LASF121
 2238 0c08 11       		.byte	0x11
 2239 0c09 C8       		.byte	0xc8
 2240 0c0a 38060000 		.4byte	0x638
 2241 0c0e 00       		.byte	0x0
 2242 0c0f 0B       		.uleb128 0xb
 2243 0c10 14       		.byte	0x14
 2244 0c11 11       		.byte	0x11
 2245 0c12 B3       		.byte	0xb3
 2246 0c13 380C0000 		.4byte	0xc38
 2247 0c17 1D       		.uleb128 0x1d
 2248 0c18 3D0B0000 		.4byte	0xb3d
 2249 0c1c 02       		.byte	0x2
 2250 0c1d 23       		.byte	0x23
 2251 0c1e 00       		.uleb128 0x0
 2252 0c1f 1D       		.uleb128 0x1d
 2253 0c20 620B0000 		.4byte	0xb62
 2254 0c24 02       		.byte	0x2
 2255 0c25 23       		.byte	0x23
 2256 0c26 04       		.uleb128 0x4
 2257 0c27 1D       		.uleb128 0x1d
 2258 0c28 D20B0000 		.4byte	0xbd2
 2259 0c2c 02       		.byte	0x2
 2260 0c2d 23       		.byte	0x23
 2261 0c2e 08       		.uleb128 0x8
 2262 0c2f 1D       		.uleb128 0x1d
 2263 0c30 E50B0000 		.4byte	0xbe5
 2264 0c34 02       		.byte	0x2
 2265 0c35 23       		.byte	0x23
 2266 0c36 0C       		.uleb128 0xc
 2267 0c37 00       		.byte	0x0
 2268 0c38 02       		.uleb128 0x2
 2269 0c39 20000000 		.4byte	.LASF124
 2270 0c3d 11       		.byte	0x11
 2271 0c3e CA       		.byte	0xca
 2272 0c3f 0F0C0000 		.4byte	0xc0f
 2273 0c43 0B       		.uleb128 0xb
 2274 0c44 08       		.byte	0x8
 2275 0c45 11       		.byte	0x11
 2276 0c46 F4       		.byte	0xf4
 2277 0c47 690C0000 		.4byte	0xc69
 2278 0c4b 0A       		.uleb128 0xa
 2279 0c4c 6D637200 		.ascii	"mcr\000"
 2280 0c50 11       		.byte	0x11
 2281 0c51 FA       		.byte	0xfa
 2282 0c52 B5000000 		.4byte	0xb5
 2283 0c56 02       		.byte	0x2
 2284 0c57 23       		.byte	0x23
 2285 0c58 00       		.uleb128 0x0
 2286 0c59 0D       		.uleb128 0xd
 2287 0c5a 62747200 		.ascii	"btr\000"
 2288 0c5e 11       		.byte	0x11
 2289 0c5f 0001     		.2byte	0x100
 2290 0c61 B5000000 		.4byte	0xb5
 2291 0c65 02       		.byte	0x2
ARM GAS  C:\Users\DNIEL~1\AppData\Local\Temp\ccVs2ifP.s 			page 42


 2292 0c66 23       		.byte	0x23
 2293 0c67 04       		.uleb128 0x4
 2294 0c68 00       		.byte	0x0
 2295 0c69 17       		.uleb128 0x17
 2296 0c6a 43000000 		.4byte	.LASF125
 2297 0c6e 11       		.byte	0x11
 2298 0c6f 0101     		.2byte	0x101
 2299 0c71 430C0000 		.4byte	0xc43
 2300 0c75 15       		.uleb128 0x15
 2301 0c76 38       		.byte	0x38
 2302 0c77 11       		.byte	0x11
 2303 0c78 0601     		.2byte	0x106
 2304 0c7a 150D0000 		.4byte	0xd15
 2305 0c7e 16       		.uleb128 0x16
 2306 0c7f 0A010000 		.4byte	.LASF126
 2307 0c83 11       		.byte	0x11
 2308 0c84 0A01     		.2byte	0x10a
 2309 0c86 390A0000 		.4byte	0xa39
 2310 0c8a 02       		.byte	0x2
 2311 0c8b 23       		.byte	0x23
 2312 0c8c 00       		.uleb128 0x0
 2313 0c8d 16       		.uleb128 0x16
 2314 0c8e 18050000 		.4byte	.LASF127
 2315 0c92 11       		.byte	0x11
 2316 0c93 0E01     		.2byte	0x10e
 2317 0c95 150D0000 		.4byte	0xd15
 2318 0c99 02       		.byte	0x2
 2319 0c9a 23       		.byte	0x23
 2320 0c9b 04       		.uleb128 0x4
 2321 0c9c 16       		.uleb128 0x16
 2322 0c9d FA000000 		.4byte	.LASF128
 2323 0ca1 11       		.byte	0x11
 2324 0ca2 1201     		.2byte	0x112
 2325 0ca4 2A040000 		.4byte	0x42a
 2326 0ca8 02       		.byte	0x2
 2327 0ca9 23       		.byte	0x23
 2328 0caa 08       		.uleb128 0x8
 2329 0cab 16       		.uleb128 0x16
 2330 0cac DA050000 		.4byte	.LASF129
 2331 0cb0 11       		.byte	0x11
 2332 0cb1 1601     		.2byte	0x116
 2333 0cb3 2A040000 		.4byte	0x42a
 2334 0cb7 02       		.byte	0x2
 2335 0cb8 23       		.byte	0x23
 2336 0cb9 14       		.uleb128 0x14
 2337 0cba 16       		.uleb128 0x16
 2338 0cbb 98010000 		.4byte	.LASF130
 2339 0cbf 11       		.byte	0x11
 2340 0cc0 2301     		.2byte	0x123
 2341 0cc2 EE040000 		.4byte	0x4ee
 2342 0cc6 02       		.byte	0x2
 2343 0cc7 23       		.byte	0x23
 2344 0cc8 20       		.uleb128 0x20
 2345 0cc9 16       		.uleb128 0x16
 2346 0cca EE040000 		.4byte	.LASF131
 2347 0cce 11       		.byte	0x11
 2348 0ccf 2A01     		.2byte	0x12a
ARM GAS  C:\Users\DNIEL~1\AppData\Local\Temp\ccVs2ifP.s 			page 43


 2349 0cd1 EE040000 		.4byte	0x4ee
 2350 0cd5 02       		.byte	0x2
 2351 0cd6 23       		.byte	0x23
 2352 0cd7 24       		.uleb128 0x24
 2353 0cd8 16       		.uleb128 0x16
 2354 0cd9 91030000 		.4byte	.LASF132
 2355 0cdd 11       		.byte	0x11
 2356 0cde 3001     		.2byte	0x130
 2357 0ce0 EE040000 		.4byte	0x4ee
 2358 0ce4 02       		.byte	0x2
 2359 0ce5 23       		.byte	0x23
 2360 0ce6 28       		.uleb128 0x28
 2361 0ce7 16       		.uleb128 0x16
 2362 0ce8 6B030000 		.4byte	.LASF133
 2363 0cec 11       		.byte	0x11
 2364 0ced 3501     		.2byte	0x135
 2365 0cef EE040000 		.4byte	0x4ee
 2366 0cf3 02       		.byte	0x2
 2367 0cf4 23       		.byte	0x23
 2368 0cf5 2C       		.uleb128 0x2c
 2369 0cf6 16       		.uleb128 0x16
 2370 0cf7 28040000 		.4byte	.LASF134
 2371 0cfb 11       		.byte	0x11
 2372 0cfc 3901     		.2byte	0x139
 2373 0cfe EE040000 		.4byte	0x4ee
 2374 0d02 02       		.byte	0x2
 2375 0d03 23       		.byte	0x23
 2376 0d04 30       		.uleb128 0x30
 2377 0d05 0D       		.uleb128 0xd
 2378 0d06 63616E00 		.ascii	"can\000"
 2379 0d0a 11       		.byte	0x11
 2380 0d0b 3F01     		.2byte	0x13f
 2381 0d0d 200D0000 		.4byte	0xd20
 2382 0d11 02       		.byte	0x2
 2383 0d12 23       		.byte	0x23
 2384 0d13 34       		.uleb128 0x34
 2385 0d14 00       		.byte	0x0
 2386 0d15 06       		.uleb128 0x6
 2387 0d16 04       		.byte	0x4
 2388 0d17 1B0D0000 		.4byte	0xd1b
 2389 0d1b 07       		.uleb128 0x7
 2390 0d1c 690C0000 		.4byte	0xc69
 2391 0d20 06       		.uleb128 0x6
 2392 0d21 04       		.byte	0x4
 2393 0d22 D7080000 		.4byte	0x8d7
 2394 0d26 17       		.uleb128 0x17
 2395 0d27 1E030000 		.4byte	.LASF135
 2396 0d2b 11       		.byte	0x11
 2397 0d2c 4001     		.2byte	0x140
 2398 0d2e 750C0000 		.4byte	0xc75
 2399 0d32 02       		.uleb128 0x2
 2400 0d33 0F030000 		.4byte	.LASF136
 2401 0d37 12       		.byte	0x12
 2402 0d38 28       		.byte	0x28
 2403 0d39 3D0D0000 		.4byte	0xd3d
 2404 0d3d 08       		.uleb128 0x8
 2405 0d3e 3D010000 		.4byte	.LASF137
ARM GAS  C:\Users\DNIEL~1\AppData\Local\Temp\ccVs2ifP.s 			page 44


 2406 0d42 04       		.byte	0x4
 2407 0d43 13       		.byte	0x13
 2408 0d44 00       		.byte	0x0
 2409 0d45 570D0000 		.4byte	0xd57
 2410 0d49 1E       		.uleb128 0x1e
 2411 0d4a 56050000 		.4byte	.LASF138
 2412 0d4e 73000000 		.4byte	0x73
 2413 0d52 02       		.byte	0x2
 2414 0d53 23       		.byte	0x23
 2415 0d54 00       		.uleb128 0x0
 2416 0d55 01       		.byte	0x1
 2417 0d56 00       		.byte	0x0
 2418 0d57 02       		.uleb128 0x2
 2419 0d58 3B000000 		.4byte	.LASF139
 2420 0d5c 12       		.byte	0x12
 2421 0d5d 66       		.byte	0x66
 2422 0d5e 320D0000 		.4byte	0xd32
 2423 0d62 03       		.uleb128 0x3
 2424 0d63 08       		.byte	0x8
 2425 0d64 04       		.byte	0x4
 2426 0d65 67010000 		.4byte	.LASF140
 2427 0d69 03       		.uleb128 0x3
 2428 0d6a 04       		.byte	0x4
 2429 0d6b 04       		.byte	0x4
 2430 0d6c 9D030000 		.4byte	.LASF141
 2431 0d70 03       		.uleb128 0x3
 2432 0d71 08       		.byte	0x8
 2433 0d72 04       		.byte	0x4
 2434 0d73 EC020000 		.4byte	.LASF142
 2435 0d77 1F       		.uleb128 0x1f
 2436 0d78 DC020000 		.4byte	.LASF164
 2437 0d7c 01       		.byte	0x1
 2438 0d7d 02       		.byte	0x2
 2439 0d7e 22       		.byte	0x22
 2440 0d7f A80D0000 		.4byte	0xda8
 2441 0d83 1A       		.uleb128 0x1a
 2442 0d84 E5020000 		.4byte	.LASF143
 2443 0d88 00       		.sleb128 0
 2444 0d89 1A       		.uleb128 0x1a
 2445 0d8a E0050000 		.4byte	.LASF144
 2446 0d8e 01       		.sleb128 1
 2447 0d8f 1A       		.uleb128 0x1a
 2448 0d90 E7050000 		.4byte	.LASF145
 2449 0d94 02       		.sleb128 2
 2450 0d95 1A       		.uleb128 0x1a
 2451 0d96 43020000 		.4byte	.LASF146
 2452 0d9a 03       		.sleb128 3
 2453 0d9b 1A       		.uleb128 0x1a
 2454 0d9c 28030000 		.4byte	.LASF147
 2455 0da0 04       		.sleb128 4
 2456 0da1 1A       		.uleb128 0x1a
 2457 0da2 7E010000 		.4byte	.LASF148
 2458 0da6 05       		.sleb128 5
 2459 0da7 00       		.byte	0x0
 2460 0da8 20       		.uleb128 0x20
 2461 0da9 56060000 		.4byte	.LASF165
 2462 0dad 01       		.byte	0x1
ARM GAS  C:\Users\DNIEL~1\AppData\Local\Temp\ccVs2ifP.s 			page 45


 2463 0dae 45       		.byte	0x45
 2464 0daf 01       		.byte	0x1
 2465 0db0 00000000 		.4byte	.LFB118
 2466 0db4 1E000000 		.4byte	.LFE118
 2467 0db8 00000000 		.4byte	.LLST0
 2468 0dbc EC0D0000 		.4byte	0xdec
 2469 0dc0 21       		.uleb128 0x21
 2470 0dc1 63687000 		.ascii	"chp\000"
 2471 0dc5 01       		.byte	0x1
 2472 0dc6 45       		.byte	0x45
 2473 0dc7 EC0D0000 		.4byte	0xdec
 2474 0dcb 38000000 		.4byte	.LLST1
 2475 0dcf 22       		.uleb128 0x22
 2476 0dd0 666D7400 		.ascii	"fmt\000"
 2477 0dd4 01       		.byte	0x1
 2478 0dd5 45       		.byte	0x45
 2479 0dd6 89000000 		.4byte	0x89
 2480 0dda 02       		.byte	0x2
 2481 0ddb 91       		.byte	0x91
 2482 0ddc 74       		.sleb128 -12
 2483 0ddd 23       		.uleb128 0x23
 2484 0dde 24       		.uleb128 0x24
 2485 0ddf 617000   		.ascii	"ap\000"
 2486 0de2 01       		.byte	0x1
 2487 0de3 46       		.byte	0x46
 2488 0de4 570D0000 		.4byte	0xd57
 2489 0de8 02       		.byte	0x2
 2490 0de9 91       		.byte	0x91
 2491 0dea 6C       		.sleb128 -20
 2492 0deb 00       		.byte	0x0
 2493 0dec 06       		.uleb128 0x6
 2494 0ded 04       		.byte	0x4
 2495 0dee 1D060000 		.4byte	0x61d
 2496 0df2 25       		.uleb128 0x25
 2497 0df3 B0020000 		.4byte	.LASF166
 2498 0df7 02       		.byte	0x2
 2499 0df8 39       		.byte	0x39
 2500 0df9 01       		.byte	0x1
 2501 0dfa 09010000 		.4byte	0x109
 2502 0dfe 00000000 		.4byte	.LFB119
 2503 0e02 E4000000 		.4byte	.LFE119
 2504 0e06 4B000000 		.4byte	.LLST2
 2505 0e0a 290E0000 		.4byte	0xe29
 2506 0e0e 21       		.uleb128 0x21
 2507 0e0f 7000     		.ascii	"p\000"
 2508 0e11 02       		.byte	0x2
 2509 0e12 39       		.byte	0x39
 2510 0e13 73000000 		.4byte	0x73
 2511 0e17 77000000 		.4byte	.LLST3
 2512 0e1b 24       		.uleb128 0x24
 2513 0e1c 656C00   		.ascii	"el\000"
 2514 0e1f 02       		.byte	0x2
 2515 0e20 3A       		.byte	0x3a
 2516 0e21 7D040000 		.4byte	0x47d
 2517 0e25 02       		.byte	0x2
 2518 0e26 91       		.byte	0x91
 2519 0e27 50       		.sleb128 -48
ARM GAS  C:\Users\DNIEL~1\AppData\Local\Temp\ccVs2ifP.s 			page 46


 2520 0e28 00       		.byte	0x0
 2521 0e29 26       		.uleb128 0x26
 2522 0e2a 01       		.byte	0x1
 2523 0e2b A3030000 		.4byte	.LASF167
 2524 0e2f 02       		.byte	0x2
 2525 0e30 9E       		.byte	0x9e
 2526 0e31 01       		.byte	0x1
 2527 0e32 00000000 		.4byte	.LFB121
 2528 0e36 34000000 		.4byte	.LFE121
 2529 0e3a 8A000000 		.4byte	.LLST4
 2530 0e3e 27       		.uleb128 0x27
 2531 0e3f 01       		.byte	0x1
 2532 0e40 06000000 		.4byte	.LASF168
 2533 0e44 02       		.byte	0x2
 2534 0e45 A4       		.byte	0xa4
 2535 0e46 01       		.byte	0x1
 2536 0e47 00000000 		.4byte	.LFB122
 2537 0e4b CC000000 		.4byte	.LFE122
 2538 0e4f B6000000 		.4byte	.LLST5
 2539 0e53 850E0000 		.4byte	0xe85
 2540 0e57 21       		.uleb128 0x21
 2541 0e58 63687000 		.ascii	"chp\000"
 2542 0e5c 02       		.byte	0x2
 2543 0e5d A4       		.byte	0xa4
 2544 0e5e EC0D0000 		.4byte	0xdec
 2545 0e62 D6000000 		.4byte	.LLST6
 2546 0e66 28       		.uleb128 0x28
 2547 0e67 10060000 		.4byte	.LASF149
 2548 0e6b 02       		.byte	0x2
 2549 0e6c A4       		.byte	0xa4
 2550 0e6d 57000000 		.4byte	0x57
 2551 0e71 F4000000 		.4byte	.LLST7
 2552 0e75 28       		.uleb128 0x28
 2553 0e76 39060000 		.4byte	.LASF150
 2554 0e7a 02       		.byte	0x2
 2555 0e7b A4       		.byte	0xa4
 2556 0e7c 850E0000 		.4byte	0xe85
 2557 0e80 07010000 		.4byte	.LLST8
 2558 0e84 00       		.byte	0x0
 2559 0e85 06       		.uleb128 0x6
 2560 0e86 04       		.byte	0x4
 2561 0e87 7C000000 		.4byte	0x7c
 2562 0e8b 29       		.uleb128 0x29
 2563 0e8c CC050000 		.4byte	.LASF151
 2564 0e90 09       		.byte	0x9
 2565 0e91 6F       		.byte	0x6f
 2566 0e92 F6030000 		.4byte	0x3f6
 2567 0e96 01       		.byte	0x1
 2568 0e97 01       		.byte	0x1
 2569 0e98 2A       		.uleb128 0x2a
 2570 0e99 41040000 		.4byte	.LASF152
 2571 0e9d 14       		.byte	0x14
 2572 0e9e 9806     		.2byte	0x698
 2573 0ea0 48060000 		.4byte	0x648
 2574 0ea4 01       		.byte	0x1
 2575 0ea5 01       		.byte	0x1
 2576 0ea6 2A       		.uleb128 0x2a
ARM GAS  C:\Users\DNIEL~1\AppData\Local\Temp\ccVs2ifP.s 			page 47


 2577 0ea7 F4010000 		.4byte	.LASF153
 2578 0eab 11       		.byte	0x11
 2579 0eac 4B01     		.2byte	0x14b
 2580 0eae 260D0000 		.4byte	0xd26
 2581 0eb2 01       		.byte	0x1
 2582 0eb3 01       		.byte	0x1
 2583 0eb4 29       		.uleb128 0x29
 2584 0eb5 24050000 		.4byte	.LASF154
 2585 0eb9 02       		.byte	0x2
 2586 0eba 2A       		.byte	0x2a
 2587 0ebb 770D0000 		.4byte	0xd77
 2588 0ebf 01       		.byte	0x1
 2589 0ec0 01       		.byte	0x1
 2590 0ec1 2B       		.uleb128 0x2b
 2591 0ec2 59000000 		.4byte	.LASF159
 2592 0ec6 02       		.byte	0x2
 2593 0ec7 2C       		.byte	0x2c
 2594 0ec8 320B0000 		.4byte	0xb32
 2595 0ecc 2C       		.uleb128 0x2c
 2596 0ecd 00000000 		.4byte	.LASF155
 2597 0ed1 02       		.byte	0x2
 2598 0ed2 2D       		.byte	0x2d
 2599 0ed3 380C0000 		.4byte	0xc38
 2600 0ed7 05       		.byte	0x5
 2601 0ed8 03       		.byte	0x3
 2602 0ed9 00000000 		.4byte	rxmsg
 2603 0edd 2C       		.uleb128 0x2c
 2604 0ede 02030000 		.4byte	.LASF156
 2605 0ee2 02       		.byte	0x2
 2606 0ee3 2F       		.byte	0x2f
 2607 0ee4 1B0D0000 		.4byte	0xd1b
 2608 0ee8 05       		.byte	0x5
 2609 0ee9 03       		.byte	0x3
 2610 0eea 00000000 		.4byte	cancfg
 2611 0eee 24       		.uleb128 0x24
 2612 0eef 696400   		.ascii	"id\000"
 2613 0ef2 02       		.byte	0x2
 2614 0ef3 35       		.byte	0x35
 2615 0ef4 9F000000 		.4byte	0x9f
 2616 0ef8 05       		.byte	0x5
 2617 0ef9 03       		.byte	0x3
 2618 0efa 00000000 		.4byte	id
 2619 0efe 2C       		.uleb128 0x2c
 2620 0eff 4E010000 		.4byte	.LASF157
 2621 0f03 02       		.byte	0x2
 2622 0f04 36       		.byte	0x36
 2623 0f05 9F000000 		.4byte	0x9f
 2624 0f09 05       		.byte	0x5
 2625 0f0a 03       		.byte	0x3
 2626 0f0b 00000000 		.4byte	messages
 2627 0f0f 13       		.uleb128 0x13
 2628 0f10 D3020000 		.4byte	0x2d3
 2629 0f14 1F0F0000 		.4byte	0xf1f
 2630 0f18 14       		.uleb128 0x14
 2631 0f19 34000000 		.4byte	0x34
 2632 0f1d 39       		.byte	0x39
 2633 0f1e 00       		.byte	0x0
ARM GAS  C:\Users\DNIEL~1\AppData\Local\Temp\ccVs2ifP.s 			page 48


 2634 0f1f 2C       		.uleb128 0x2c
 2635 0f20 B7020000 		.4byte	.LASF158
 2636 0f24 02       		.byte	0x2
 2637 0f25 38       		.byte	0x38
 2638 0f26 0F0F0000 		.4byte	0xf0f
 2639 0f2a 05       		.byte	0x5
 2640 0f2b 03       		.byte	0x3
 2641 0f2c 00000000 		.4byte	can_rx_wa
 2642 0f30 2B       		.uleb128 0x2b
 2643 0f31 BE040000 		.4byte	.LASF160
 2644 0f35 02       		.byte	0x2
 2645 0f36 89       		.byte	0x89
 2646 0f37 0F0F0000 		.4byte	0xf0f
 2647 0f3b 29       		.uleb128 0x29
 2648 0f3c CC050000 		.4byte	.LASF151
 2649 0f40 09       		.byte	0x9
 2650 0f41 6F       		.byte	0x6f
 2651 0f42 F6030000 		.4byte	0x3f6
 2652 0f46 01       		.byte	0x1
 2653 0f47 01       		.byte	0x1
 2654 0f48 2A       		.uleb128 0x2a
 2655 0f49 41040000 		.4byte	.LASF152
 2656 0f4d 14       		.byte	0x14
 2657 0f4e 9806     		.2byte	0x698
 2658 0f50 48060000 		.4byte	0x648
 2659 0f54 01       		.byte	0x1
 2660 0f55 01       		.byte	0x1
 2661 0f56 2A       		.uleb128 0x2a
 2662 0f57 F4010000 		.4byte	.LASF153
 2663 0f5b 11       		.byte	0x11
 2664 0f5c 4B01     		.2byte	0x14b
 2665 0f5e 260D0000 		.4byte	0xd26
 2666 0f62 01       		.byte	0x1
 2667 0f63 01       		.byte	0x1
 2668 0f64 2D       		.uleb128 0x2d
 2669 0f65 24050000 		.4byte	.LASF154
 2670 0f69 02       		.byte	0x2
 2671 0f6a 2A       		.byte	0x2a
 2672 0f6b 770D0000 		.4byte	0xd77
 2673 0f6f 01       		.byte	0x1
 2674 0f70 05       		.byte	0x5
 2675 0f71 03       		.byte	0x3
 2676 0f72 00000000 		.4byte	canstate
 2677 0f76 00       		.byte	0x0
 2678              		.section	.debug_abbrev
 2679 0000 01       		.uleb128 0x1
 2680 0001 11       		.uleb128 0x11
 2681 0002 01       		.byte	0x1
 2682 0003 25       		.uleb128 0x25
 2683 0004 0E       		.uleb128 0xe
 2684 0005 13       		.uleb128 0x13
 2685 0006 0B       		.uleb128 0xb
 2686 0007 03       		.uleb128 0x3
 2687 0008 0E       		.uleb128 0xe
 2688 0009 1B       		.uleb128 0x1b
 2689 000a 0E       		.uleb128 0xe
 2690 000b 11       		.uleb128 0x11
ARM GAS  C:\Users\DNIEL~1\AppData\Local\Temp\ccVs2ifP.s 			page 49


 2691 000c 01       		.uleb128 0x1
 2692 000d 52       		.uleb128 0x52
 2693 000e 01       		.uleb128 0x1
 2694 000f 55       		.uleb128 0x55
 2695 0010 06       		.uleb128 0x6
 2696 0011 10       		.uleb128 0x10
 2697 0012 06       		.uleb128 0x6
 2698 0013 00       		.byte	0x0
 2699 0014 00       		.byte	0x0
 2700 0015 02       		.uleb128 0x2
 2701 0016 16       		.uleb128 0x16
 2702 0017 00       		.byte	0x0
 2703 0018 03       		.uleb128 0x3
 2704 0019 0E       		.uleb128 0xe
 2705 001a 3A       		.uleb128 0x3a
 2706 001b 0B       		.uleb128 0xb
 2707 001c 3B       		.uleb128 0x3b
 2708 001d 0B       		.uleb128 0xb
 2709 001e 49       		.uleb128 0x49
 2710 001f 13       		.uleb128 0x13
 2711 0020 00       		.byte	0x0
 2712 0021 00       		.byte	0x0
 2713 0022 03       		.uleb128 0x3
 2714 0023 24       		.uleb128 0x24
 2715 0024 00       		.byte	0x0
 2716 0025 0B       		.uleb128 0xb
 2717 0026 0B       		.uleb128 0xb
 2718 0027 3E       		.uleb128 0x3e
 2719 0028 0B       		.uleb128 0xb
 2720 0029 03       		.uleb128 0x3
 2721 002a 0E       		.uleb128 0xe
 2722 002b 00       		.byte	0x0
 2723 002c 00       		.byte	0x0
 2724 002d 04       		.uleb128 0x4
 2725 002e 24       		.uleb128 0x24
 2726 002f 00       		.byte	0x0
 2727 0030 0B       		.uleb128 0xb
 2728 0031 0B       		.uleb128 0xb
 2729 0032 3E       		.uleb128 0x3e
 2730 0033 0B       		.uleb128 0xb
 2731 0034 03       		.uleb128 0x3
 2732 0035 08       		.uleb128 0x8
 2733 0036 00       		.byte	0x0
 2734 0037 00       		.byte	0x0
 2735 0038 05       		.uleb128 0x5
 2736 0039 0F       		.uleb128 0xf
 2737 003a 00       		.byte	0x0
 2738 003b 0B       		.uleb128 0xb
 2739 003c 0B       		.uleb128 0xb
 2740 003d 00       		.byte	0x0
 2741 003e 00       		.byte	0x0
 2742 003f 06       		.uleb128 0x6
 2743 0040 0F       		.uleb128 0xf
 2744 0041 00       		.byte	0x0
 2745 0042 0B       		.uleb128 0xb
 2746 0043 0B       		.uleb128 0xb
 2747 0044 49       		.uleb128 0x49
ARM GAS  C:\Users\DNIEL~1\AppData\Local\Temp\ccVs2ifP.s 			page 50


 2748 0045 13       		.uleb128 0x13
 2749 0046 00       		.byte	0x0
 2750 0047 00       		.byte	0x0
 2751 0048 07       		.uleb128 0x7
 2752 0049 26       		.uleb128 0x26
 2753 004a 00       		.byte	0x0
 2754 004b 49       		.uleb128 0x49
 2755 004c 13       		.uleb128 0x13
 2756 004d 00       		.byte	0x0
 2757 004e 00       		.byte	0x0
 2758 004f 08       		.uleb128 0x8
 2759 0050 13       		.uleb128 0x13
 2760 0051 01       		.byte	0x1
 2761 0052 03       		.uleb128 0x3
 2762 0053 0E       		.uleb128 0xe
 2763 0054 0B       		.uleb128 0xb
 2764 0055 0B       		.uleb128 0xb
 2765 0056 3A       		.uleb128 0x3a
 2766 0057 0B       		.uleb128 0xb
 2767 0058 3B       		.uleb128 0x3b
 2768 0059 0B       		.uleb128 0xb
 2769 005a 01       		.uleb128 0x1
 2770 005b 13       		.uleb128 0x13
 2771 005c 00       		.byte	0x0
 2772 005d 00       		.byte	0x0
 2773 005e 09       		.uleb128 0x9
 2774 005f 0D       		.uleb128 0xd
 2775 0060 00       		.byte	0x0
 2776 0061 03       		.uleb128 0x3
 2777 0062 0E       		.uleb128 0xe
 2778 0063 3A       		.uleb128 0x3a
 2779 0064 0B       		.uleb128 0xb
 2780 0065 3B       		.uleb128 0x3b
 2781 0066 0B       		.uleb128 0xb
 2782 0067 49       		.uleb128 0x49
 2783 0068 13       		.uleb128 0x13
 2784 0069 38       		.uleb128 0x38
 2785 006a 0A       		.uleb128 0xa
 2786 006b 00       		.byte	0x0
 2787 006c 00       		.byte	0x0
 2788 006d 0A       		.uleb128 0xa
 2789 006e 0D       		.uleb128 0xd
 2790 006f 00       		.byte	0x0
 2791 0070 03       		.uleb128 0x3
 2792 0071 08       		.uleb128 0x8
 2793 0072 3A       		.uleb128 0x3a
 2794 0073 0B       		.uleb128 0xb
 2795 0074 3B       		.uleb128 0x3b
 2796 0075 0B       		.uleb128 0xb
 2797 0076 49       		.uleb128 0x49
 2798 0077 13       		.uleb128 0x13
 2799 0078 38       		.uleb128 0x38
 2800 0079 0A       		.uleb128 0xa
 2801 007a 00       		.byte	0x0
 2802 007b 00       		.byte	0x0
 2803 007c 0B       		.uleb128 0xb
 2804 007d 13       		.uleb128 0x13
ARM GAS  C:\Users\DNIEL~1\AppData\Local\Temp\ccVs2ifP.s 			page 51


 2805 007e 01       		.byte	0x1
 2806 007f 0B       		.uleb128 0xb
 2807 0080 0B       		.uleb128 0xb
 2808 0081 3A       		.uleb128 0x3a
 2809 0082 0B       		.uleb128 0xb
 2810 0083 3B       		.uleb128 0x3b
 2811 0084 0B       		.uleb128 0xb
 2812 0085 01       		.uleb128 0x1
 2813 0086 13       		.uleb128 0x13
 2814 0087 00       		.byte	0x0
 2815 0088 00       		.byte	0x0
 2816 0089 0C       		.uleb128 0xc
 2817 008a 13       		.uleb128 0x13
 2818 008b 01       		.byte	0x1
 2819 008c 03       		.uleb128 0x3
 2820 008d 0E       		.uleb128 0xe
 2821 008e 0B       		.uleb128 0xb
 2822 008f 0B       		.uleb128 0xb
 2823 0090 3A       		.uleb128 0x3a
 2824 0091 0B       		.uleb128 0xb
 2825 0092 3B       		.uleb128 0x3b
 2826 0093 05       		.uleb128 0x5
 2827 0094 01       		.uleb128 0x1
 2828 0095 13       		.uleb128 0x13
 2829 0096 00       		.byte	0x0
 2830 0097 00       		.byte	0x0
 2831 0098 0D       		.uleb128 0xd
 2832 0099 0D       		.uleb128 0xd
 2833 009a 00       		.byte	0x0
 2834 009b 03       		.uleb128 0x3
 2835 009c 08       		.uleb128 0x8
 2836 009d 3A       		.uleb128 0x3a
 2837 009e 0B       		.uleb128 0xb
 2838 009f 3B       		.uleb128 0x3b
 2839 00a0 05       		.uleb128 0x5
 2840 00a1 49       		.uleb128 0x49
 2841 00a2 13       		.uleb128 0x13
 2842 00a3 38       		.uleb128 0x38
 2843 00a4 0A       		.uleb128 0xa
 2844 00a5 00       		.byte	0x0
 2845 00a6 00       		.byte	0x0
 2846 00a7 0E       		.uleb128 0xe
 2847 00a8 35       		.uleb128 0x35
 2848 00a9 00       		.byte	0x0
 2849 00aa 49       		.uleb128 0x49
 2850 00ab 13       		.uleb128 0x13
 2851 00ac 00       		.byte	0x0
 2852 00ad 00       		.byte	0x0
 2853 00ae 0F       		.uleb128 0xf
 2854 00af 17       		.uleb128 0x17
 2855 00b0 01       		.byte	0x1
 2856 00b1 0B       		.uleb128 0xb
 2857 00b2 0B       		.uleb128 0xb
 2858 00b3 3A       		.uleb128 0x3a
 2859 00b4 0B       		.uleb128 0xb
 2860 00b5 3B       		.uleb128 0x3b
 2861 00b6 0B       		.uleb128 0xb
ARM GAS  C:\Users\DNIEL~1\AppData\Local\Temp\ccVs2ifP.s 			page 52


 2862 00b7 01       		.uleb128 0x1
 2863 00b8 13       		.uleb128 0x13
 2864 00b9 00       		.byte	0x0
 2865 00ba 00       		.byte	0x0
 2866 00bb 10       		.uleb128 0x10
 2867 00bc 0D       		.uleb128 0xd
 2868 00bd 00       		.byte	0x0
 2869 00be 03       		.uleb128 0x3
 2870 00bf 0E       		.uleb128 0xe
 2871 00c0 3A       		.uleb128 0x3a
 2872 00c1 0B       		.uleb128 0xb
 2873 00c2 3B       		.uleb128 0x3b
 2874 00c3 0B       		.uleb128 0xb
 2875 00c4 49       		.uleb128 0x49
 2876 00c5 13       		.uleb128 0x13
 2877 00c6 00       		.byte	0x0
 2878 00c7 00       		.byte	0x0
 2879 00c8 11       		.uleb128 0x11
 2880 00c9 15       		.uleb128 0x15
 2881 00ca 01       		.byte	0x1
 2882 00cb 27       		.uleb128 0x27
 2883 00cc 0C       		.uleb128 0xc
 2884 00cd 49       		.uleb128 0x49
 2885 00ce 13       		.uleb128 0x13
 2886 00cf 01       		.uleb128 0x1
 2887 00d0 13       		.uleb128 0x13
 2888 00d1 00       		.byte	0x0
 2889 00d2 00       		.byte	0x0
 2890 00d3 12       		.uleb128 0x12
 2891 00d4 05       		.uleb128 0x5
 2892 00d5 00       		.byte	0x0
 2893 00d6 49       		.uleb128 0x49
 2894 00d7 13       		.uleb128 0x13
 2895 00d8 00       		.byte	0x0
 2896 00d9 00       		.byte	0x0
 2897 00da 13       		.uleb128 0x13
 2898 00db 01       		.uleb128 0x1
 2899 00dc 01       		.byte	0x1
 2900 00dd 49       		.uleb128 0x49
 2901 00de 13       		.uleb128 0x13
 2902 00df 01       		.uleb128 0x1
 2903 00e0 13       		.uleb128 0x13
 2904 00e1 00       		.byte	0x0
 2905 00e2 00       		.byte	0x0
 2906 00e3 14       		.uleb128 0x14
 2907 00e4 21       		.uleb128 0x21
 2908 00e5 00       		.byte	0x0
 2909 00e6 49       		.uleb128 0x49
 2910 00e7 13       		.uleb128 0x13
 2911 00e8 2F       		.uleb128 0x2f
 2912 00e9 0B       		.uleb128 0xb
 2913 00ea 00       		.byte	0x0
 2914 00eb 00       		.byte	0x0
 2915 00ec 15       		.uleb128 0x15
 2916 00ed 13       		.uleb128 0x13
 2917 00ee 01       		.byte	0x1
 2918 00ef 0B       		.uleb128 0xb
ARM GAS  C:\Users\DNIEL~1\AppData\Local\Temp\ccVs2ifP.s 			page 53


 2919 00f0 0B       		.uleb128 0xb
 2920 00f1 3A       		.uleb128 0x3a
 2921 00f2 0B       		.uleb128 0xb
 2922 00f3 3B       		.uleb128 0x3b
 2923 00f4 05       		.uleb128 0x5
 2924 00f5 01       		.uleb128 0x1
 2925 00f6 13       		.uleb128 0x13
 2926 00f7 00       		.byte	0x0
 2927 00f8 00       		.byte	0x0
 2928 00f9 16       		.uleb128 0x16
 2929 00fa 0D       		.uleb128 0xd
 2930 00fb 00       		.byte	0x0
 2931 00fc 03       		.uleb128 0x3
 2932 00fd 0E       		.uleb128 0xe
 2933 00fe 3A       		.uleb128 0x3a
 2934 00ff 0B       		.uleb128 0xb
 2935 0100 3B       		.uleb128 0x3b
 2936 0101 05       		.uleb128 0x5
 2937 0102 49       		.uleb128 0x49
 2938 0103 13       		.uleb128 0x13
 2939 0104 38       		.uleb128 0x38
 2940 0105 0A       		.uleb128 0xa
 2941 0106 00       		.byte	0x0
 2942 0107 00       		.byte	0x0
 2943 0108 17       		.uleb128 0x17
 2944 0109 16       		.uleb128 0x16
 2945 010a 00       		.byte	0x0
 2946 010b 03       		.uleb128 0x3
 2947 010c 0E       		.uleb128 0xe
 2948 010d 3A       		.uleb128 0x3a
 2949 010e 0B       		.uleb128 0xb
 2950 010f 3B       		.uleb128 0x3b
 2951 0110 05       		.uleb128 0x5
 2952 0111 49       		.uleb128 0x49
 2953 0112 13       		.uleb128 0x13
 2954 0113 00       		.byte	0x0
 2955 0114 00       		.byte	0x0
 2956 0115 18       		.uleb128 0x18
 2957 0116 13       		.uleb128 0x13
 2958 0117 01       		.byte	0x1
 2959 0118 0B       		.uleb128 0xb
 2960 0119 05       		.uleb128 0x5
 2961 011a 3A       		.uleb128 0x3a
 2962 011b 0B       		.uleb128 0xb
 2963 011c 3B       		.uleb128 0x3b
 2964 011d 05       		.uleb128 0x5
 2965 011e 01       		.uleb128 0x1
 2966 011f 13       		.uleb128 0x13
 2967 0120 00       		.byte	0x0
 2968 0121 00       		.byte	0x0
 2969 0122 19       		.uleb128 0x19
 2970 0123 04       		.uleb128 0x4
 2971 0124 01       		.byte	0x1
 2972 0125 0B       		.uleb128 0xb
 2973 0126 0B       		.uleb128 0xb
 2974 0127 3A       		.uleb128 0x3a
 2975 0128 0B       		.uleb128 0xb
ARM GAS  C:\Users\DNIEL~1\AppData\Local\Temp\ccVs2ifP.s 			page 54


 2976 0129 3B       		.uleb128 0x3b
 2977 012a 0B       		.uleb128 0xb
 2978 012b 01       		.uleb128 0x1
 2979 012c 13       		.uleb128 0x13
 2980 012d 00       		.byte	0x0
 2981 012e 00       		.byte	0x0
 2982 012f 1A       		.uleb128 0x1a
 2983 0130 28       		.uleb128 0x28
 2984 0131 00       		.byte	0x0
 2985 0132 03       		.uleb128 0x3
 2986 0133 0E       		.uleb128 0xe
 2987 0134 1C       		.uleb128 0x1c
 2988 0135 0D       		.uleb128 0xd
 2989 0136 00       		.byte	0x0
 2990 0137 00       		.byte	0x0
 2991 0138 1B       		.uleb128 0x1b
 2992 0139 0D       		.uleb128 0xd
 2993 013a 00       		.byte	0x0
 2994 013b 03       		.uleb128 0x3
 2995 013c 08       		.uleb128 0x8
 2996 013d 3A       		.uleb128 0x3a
 2997 013e 0B       		.uleb128 0xb
 2998 013f 3B       		.uleb128 0x3b
 2999 0140 0B       		.uleb128 0xb
 3000 0141 49       		.uleb128 0x49
 3001 0142 13       		.uleb128 0x13
 3002 0143 0B       		.uleb128 0xb
 3003 0144 0B       		.uleb128 0xb
 3004 0145 0D       		.uleb128 0xd
 3005 0146 0B       		.uleb128 0xb
 3006 0147 0C       		.uleb128 0xc
 3007 0148 0B       		.uleb128 0xb
 3008 0149 38       		.uleb128 0x38
 3009 014a 0A       		.uleb128 0xa
 3010 014b 00       		.byte	0x0
 3011 014c 00       		.byte	0x0
 3012 014d 1C       		.uleb128 0x1c
 3013 014e 0D       		.uleb128 0xd
 3014 014f 00       		.byte	0x0
 3015 0150 49       		.uleb128 0x49
 3016 0151 13       		.uleb128 0x13
 3017 0152 00       		.byte	0x0
 3018 0153 00       		.byte	0x0
 3019 0154 1D       		.uleb128 0x1d
 3020 0155 0D       		.uleb128 0xd
 3021 0156 00       		.byte	0x0
 3022 0157 49       		.uleb128 0x49
 3023 0158 13       		.uleb128 0x13
 3024 0159 38       		.uleb128 0x38
 3025 015a 0A       		.uleb128 0xa
 3026 015b 00       		.byte	0x0
 3027 015c 00       		.byte	0x0
 3028 015d 1E       		.uleb128 0x1e
 3029 015e 0D       		.uleb128 0xd
 3030 015f 00       		.byte	0x0
 3031 0160 03       		.uleb128 0x3
 3032 0161 0E       		.uleb128 0xe
ARM GAS  C:\Users\DNIEL~1\AppData\Local\Temp\ccVs2ifP.s 			page 55


 3033 0162 49       		.uleb128 0x49
 3034 0163 13       		.uleb128 0x13
 3035 0164 38       		.uleb128 0x38
 3036 0165 0A       		.uleb128 0xa
 3037 0166 34       		.uleb128 0x34
 3038 0167 0C       		.uleb128 0xc
 3039 0168 00       		.byte	0x0
 3040 0169 00       		.byte	0x0
 3041 016a 1F       		.uleb128 0x1f
 3042 016b 04       		.uleb128 0x4
 3043 016c 01       		.byte	0x1
 3044 016d 03       		.uleb128 0x3
 3045 016e 0E       		.uleb128 0xe
 3046 016f 0B       		.uleb128 0xb
 3047 0170 0B       		.uleb128 0xb
 3048 0171 3A       		.uleb128 0x3a
 3049 0172 0B       		.uleb128 0xb
 3050 0173 3B       		.uleb128 0x3b
 3051 0174 0B       		.uleb128 0xb
 3052 0175 01       		.uleb128 0x1
 3053 0176 13       		.uleb128 0x13
 3054 0177 00       		.byte	0x0
 3055 0178 00       		.byte	0x0
 3056 0179 20       		.uleb128 0x20
 3057 017a 2E       		.uleb128 0x2e
 3058 017b 01       		.byte	0x1
 3059 017c 03       		.uleb128 0x3
 3060 017d 0E       		.uleb128 0xe
 3061 017e 3A       		.uleb128 0x3a
 3062 017f 0B       		.uleb128 0xb
 3063 0180 3B       		.uleb128 0x3b
 3064 0181 0B       		.uleb128 0xb
 3065 0182 27       		.uleb128 0x27
 3066 0183 0C       		.uleb128 0xc
 3067 0184 11       		.uleb128 0x11
 3068 0185 01       		.uleb128 0x1
 3069 0186 12       		.uleb128 0x12
 3070 0187 01       		.uleb128 0x1
 3071 0188 40       		.uleb128 0x40
 3072 0189 06       		.uleb128 0x6
 3073 018a 01       		.uleb128 0x1
 3074 018b 13       		.uleb128 0x13
 3075 018c 00       		.byte	0x0
 3076 018d 00       		.byte	0x0
 3077 018e 21       		.uleb128 0x21
 3078 018f 05       		.uleb128 0x5
 3079 0190 00       		.byte	0x0
 3080 0191 03       		.uleb128 0x3
 3081 0192 08       		.uleb128 0x8
 3082 0193 3A       		.uleb128 0x3a
 3083 0194 0B       		.uleb128 0xb
 3084 0195 3B       		.uleb128 0x3b
 3085 0196 0B       		.uleb128 0xb
 3086 0197 49       		.uleb128 0x49
 3087 0198 13       		.uleb128 0x13
 3088 0199 02       		.uleb128 0x2
 3089 019a 06       		.uleb128 0x6
ARM GAS  C:\Users\DNIEL~1\AppData\Local\Temp\ccVs2ifP.s 			page 56


 3090 019b 00       		.byte	0x0
 3091 019c 00       		.byte	0x0
 3092 019d 22       		.uleb128 0x22
 3093 019e 05       		.uleb128 0x5
 3094 019f 00       		.byte	0x0
 3095 01a0 03       		.uleb128 0x3
 3096 01a1 08       		.uleb128 0x8
 3097 01a2 3A       		.uleb128 0x3a
 3098 01a3 0B       		.uleb128 0xb
 3099 01a4 3B       		.uleb128 0x3b
 3100 01a5 0B       		.uleb128 0xb
 3101 01a6 49       		.uleb128 0x49
 3102 01a7 13       		.uleb128 0x13
 3103 01a8 02       		.uleb128 0x2
 3104 01a9 0A       		.uleb128 0xa
 3105 01aa 00       		.byte	0x0
 3106 01ab 00       		.byte	0x0
 3107 01ac 23       		.uleb128 0x23
 3108 01ad 18       		.uleb128 0x18
 3109 01ae 00       		.byte	0x0
 3110 01af 00       		.byte	0x0
 3111 01b0 00       		.byte	0x0
 3112 01b1 24       		.uleb128 0x24
 3113 01b2 34       		.uleb128 0x34
 3114 01b3 00       		.byte	0x0
 3115 01b4 03       		.uleb128 0x3
 3116 01b5 08       		.uleb128 0x8
 3117 01b6 3A       		.uleb128 0x3a
 3118 01b7 0B       		.uleb128 0xb
 3119 01b8 3B       		.uleb128 0x3b
 3120 01b9 0B       		.uleb128 0xb
 3121 01ba 49       		.uleb128 0x49
 3122 01bb 13       		.uleb128 0x13
 3123 01bc 02       		.uleb128 0x2
 3124 01bd 0A       		.uleb128 0xa
 3125 01be 00       		.byte	0x0
 3126 01bf 00       		.byte	0x0
 3127 01c0 25       		.uleb128 0x25
 3128 01c1 2E       		.uleb128 0x2e
 3129 01c2 01       		.byte	0x1
 3130 01c3 03       		.uleb128 0x3
 3131 01c4 0E       		.uleb128 0xe
 3132 01c5 3A       		.uleb128 0x3a
 3133 01c6 0B       		.uleb128 0xb
 3134 01c7 3B       		.uleb128 0x3b
 3135 01c8 0B       		.uleb128 0xb
 3136 01c9 27       		.uleb128 0x27
 3137 01ca 0C       		.uleb128 0xc
 3138 01cb 49       		.uleb128 0x49
 3139 01cc 13       		.uleb128 0x13
 3140 01cd 11       		.uleb128 0x11
 3141 01ce 01       		.uleb128 0x1
 3142 01cf 12       		.uleb128 0x12
 3143 01d0 01       		.uleb128 0x1
 3144 01d1 40       		.uleb128 0x40
 3145 01d2 06       		.uleb128 0x6
 3146 01d3 01       		.uleb128 0x1
ARM GAS  C:\Users\DNIEL~1\AppData\Local\Temp\ccVs2ifP.s 			page 57


 3147 01d4 13       		.uleb128 0x13
 3148 01d5 00       		.byte	0x0
 3149 01d6 00       		.byte	0x0
 3150 01d7 26       		.uleb128 0x26
 3151 01d8 2E       		.uleb128 0x2e
 3152 01d9 00       		.byte	0x0
 3153 01da 3F       		.uleb128 0x3f
 3154 01db 0C       		.uleb128 0xc
 3155 01dc 03       		.uleb128 0x3
 3156 01dd 0E       		.uleb128 0xe
 3157 01de 3A       		.uleb128 0x3a
 3158 01df 0B       		.uleb128 0xb
 3159 01e0 3B       		.uleb128 0x3b
 3160 01e1 0B       		.uleb128 0xb
 3161 01e2 27       		.uleb128 0x27
 3162 01e3 0C       		.uleb128 0xc
 3163 01e4 11       		.uleb128 0x11
 3164 01e5 01       		.uleb128 0x1
 3165 01e6 12       		.uleb128 0x12
 3166 01e7 01       		.uleb128 0x1
 3167 01e8 40       		.uleb128 0x40
 3168 01e9 06       		.uleb128 0x6
 3169 01ea 00       		.byte	0x0
 3170 01eb 00       		.byte	0x0
 3171 01ec 27       		.uleb128 0x27
 3172 01ed 2E       		.uleb128 0x2e
 3173 01ee 01       		.byte	0x1
 3174 01ef 3F       		.uleb128 0x3f
 3175 01f0 0C       		.uleb128 0xc
 3176 01f1 03       		.uleb128 0x3
 3177 01f2 0E       		.uleb128 0xe
 3178 01f3 3A       		.uleb128 0x3a
 3179 01f4 0B       		.uleb128 0xb
 3180 01f5 3B       		.uleb128 0x3b
 3181 01f6 0B       		.uleb128 0xb
 3182 01f7 27       		.uleb128 0x27
 3183 01f8 0C       		.uleb128 0xc
 3184 01f9 11       		.uleb128 0x11
 3185 01fa 01       		.uleb128 0x1
 3186 01fb 12       		.uleb128 0x12
 3187 01fc 01       		.uleb128 0x1
 3188 01fd 40       		.uleb128 0x40
 3189 01fe 06       		.uleb128 0x6
 3190 01ff 01       		.uleb128 0x1
 3191 0200 13       		.uleb128 0x13
 3192 0201 00       		.byte	0x0
 3193 0202 00       		.byte	0x0
 3194 0203 28       		.uleb128 0x28
 3195 0204 05       		.uleb128 0x5
 3196 0205 00       		.byte	0x0
 3197 0206 03       		.uleb128 0x3
 3198 0207 0E       		.uleb128 0xe
 3199 0208 3A       		.uleb128 0x3a
 3200 0209 0B       		.uleb128 0xb
 3201 020a 3B       		.uleb128 0x3b
 3202 020b 0B       		.uleb128 0xb
 3203 020c 49       		.uleb128 0x49
ARM GAS  C:\Users\DNIEL~1\AppData\Local\Temp\ccVs2ifP.s 			page 58


 3204 020d 13       		.uleb128 0x13
 3205 020e 02       		.uleb128 0x2
 3206 020f 06       		.uleb128 0x6
 3207 0210 00       		.byte	0x0
 3208 0211 00       		.byte	0x0
 3209 0212 29       		.uleb128 0x29
 3210 0213 34       		.uleb128 0x34
 3211 0214 00       		.byte	0x0
 3212 0215 03       		.uleb128 0x3
 3213 0216 0E       		.uleb128 0xe
 3214 0217 3A       		.uleb128 0x3a
 3215 0218 0B       		.uleb128 0xb
 3216 0219 3B       		.uleb128 0x3b
 3217 021a 0B       		.uleb128 0xb
 3218 021b 49       		.uleb128 0x49
 3219 021c 13       		.uleb128 0x13
 3220 021d 3F       		.uleb128 0x3f
 3221 021e 0C       		.uleb128 0xc
 3222 021f 3C       		.uleb128 0x3c
 3223 0220 0C       		.uleb128 0xc
 3224 0221 00       		.byte	0x0
 3225 0222 00       		.byte	0x0
 3226 0223 2A       		.uleb128 0x2a
 3227 0224 34       		.uleb128 0x34
 3228 0225 00       		.byte	0x0
 3229 0226 03       		.uleb128 0x3
 3230 0227 0E       		.uleb128 0xe
 3231 0228 3A       		.uleb128 0x3a
 3232 0229 0B       		.uleb128 0xb
 3233 022a 3B       		.uleb128 0x3b
 3234 022b 05       		.uleb128 0x5
 3235 022c 49       		.uleb128 0x49
 3236 022d 13       		.uleb128 0x13
 3237 022e 3F       		.uleb128 0x3f
 3238 022f 0C       		.uleb128 0xc
 3239 0230 3C       		.uleb128 0x3c
 3240 0231 0C       		.uleb128 0xc
 3241 0232 00       		.byte	0x0
 3242 0233 00       		.byte	0x0
 3243 0234 2B       		.uleb128 0x2b
 3244 0235 34       		.uleb128 0x34
 3245 0236 00       		.byte	0x0
 3246 0237 03       		.uleb128 0x3
 3247 0238 0E       		.uleb128 0xe
 3248 0239 3A       		.uleb128 0x3a
 3249 023a 0B       		.uleb128 0xb
 3250 023b 3B       		.uleb128 0x3b
 3251 023c 0B       		.uleb128 0xb
 3252 023d 49       		.uleb128 0x49
 3253 023e 13       		.uleb128 0x13
 3254 023f 00       		.byte	0x0
 3255 0240 00       		.byte	0x0
 3256 0241 2C       		.uleb128 0x2c
 3257 0242 34       		.uleb128 0x34
 3258 0243 00       		.byte	0x0
 3259 0244 03       		.uleb128 0x3
 3260 0245 0E       		.uleb128 0xe
ARM GAS  C:\Users\DNIEL~1\AppData\Local\Temp\ccVs2ifP.s 			page 59


 3261 0246 3A       		.uleb128 0x3a
 3262 0247 0B       		.uleb128 0xb
 3263 0248 3B       		.uleb128 0x3b
 3264 0249 0B       		.uleb128 0xb
 3265 024a 49       		.uleb128 0x49
 3266 024b 13       		.uleb128 0x13
 3267 024c 02       		.uleb128 0x2
 3268 024d 0A       		.uleb128 0xa
 3269 024e 00       		.byte	0x0
 3270 024f 00       		.byte	0x0
 3271 0250 2D       		.uleb128 0x2d
 3272 0251 34       		.uleb128 0x34
 3273 0252 00       		.byte	0x0
 3274 0253 03       		.uleb128 0x3
 3275 0254 0E       		.uleb128 0xe
 3276 0255 3A       		.uleb128 0x3a
 3277 0256 0B       		.uleb128 0xb
 3278 0257 3B       		.uleb128 0x3b
 3279 0258 0B       		.uleb128 0xb
 3280 0259 49       		.uleb128 0x49
 3281 025a 13       		.uleb128 0x13
 3282 025b 3F       		.uleb128 0x3f
 3283 025c 0C       		.uleb128 0xc
 3284 025d 02       		.uleb128 0x2
 3285 025e 0A       		.uleb128 0xa
 3286 025f 00       		.byte	0x0
 3287 0260 00       		.byte	0x0
 3288 0261 00       		.byte	0x0
 3289              		.section	.debug_pubnames,"",%progbits
 3290 0000 43000000 		.4byte	0x43
 3291 0004 0200     		.2byte	0x2
 3292 0006 00000000 		.4byte	.Ldebug_info0
 3293 000a 770F0000 		.4byte	0xf77
 3294 000e 290E0000 		.4byte	0xe29
 3295 0012 63616E5F 		.ascii	"can_commInit\000"
 3295      636F6D6D 
 3295      496E6974 
 3295      00
 3296 001f 3E0E0000 		.4byte	0xe3e
 3297 0023 636D645F 		.ascii	"cmd_can_commvalues\000"
 3297      63616E5F 
 3297      636F6D6D 
 3297      76616C75 
 3297      657300
 3298 0036 640F0000 		.4byte	0xf64
 3299 003a 63616E73 		.ascii	"canstate\000"
 3299      74617465 
 3299      00
 3300 0043 00000000 		.4byte	0x0
 3301              		.section	.debug_pubtypes,"",%progbits
 3302 0000 05030000 		.4byte	0x305
 3303 0004 0200     		.2byte	0x2
 3304 0006 00000000 		.4byte	.Ldebug_info0
 3305 000a 770F0000 		.4byte	0xf77
 3306 000e 29000000 		.4byte	0x29
 3307 0012 73697A65 		.ascii	"size_t\000"
 3307      5F7400
ARM GAS  C:\Users\DNIEL~1\AppData\Local\Temp\ccVs2ifP.s 			page 60


 3308 0019 94000000 		.4byte	0x94
 3309 001d 75696E74 		.ascii	"uint8_t\000"
 3309      385F7400 
 3310 0025 9F000000 		.4byte	0x9f
 3311 0029 75696E74 		.ascii	"uint16_t\000"
 3311      31365F74 
 3311      00
 3312 0032 AA000000 		.4byte	0xaa
 3313 0036 696E7433 		.ascii	"int32_t\000"
 3313      325F7400 
 3314 003e B5000000 		.4byte	0xb5
 3315 0042 75696E74 		.ascii	"uint32_t\000"
 3315      33325F74 
 3315      00
 3316 004b C0000000 		.4byte	0xc0
 3317 004f 75696E74 		.ascii	"uint64_t\000"
 3317      36345F74 
 3317      00
 3318 0058 D2000000 		.4byte	0xd2
 3319 005c 746D6F64 		.ascii	"tmode_t\000"
 3319      655F7400 
 3320 0064 DD000000 		.4byte	0xdd
 3321 0068 74737461 		.ascii	"tstate_t\000"
 3321      74655F74 
 3321      00
 3322 0071 E8000000 		.4byte	0xe8
 3323 0075 74726566 		.ascii	"trefs_t\000"
 3323      735F7400 
 3324 007d F3000000 		.4byte	0xf3
 3325 0081 74736C69 		.ascii	"tslices_t\000"
 3325      6365735F 
 3325      7400
 3326 008b FE000000 		.4byte	0xfe
 3327 008f 74707269 		.ascii	"tprio_t\000"
 3327      6F5F7400 
 3328 0097 09010000 		.4byte	0x109
 3329 009b 6D73675F 		.ascii	"msg_t\000"
 3329      7400
 3330 00a1 14010000 		.4byte	0x114
 3331 00a5 6576656E 		.ascii	"eventmask_t\000"
 3331      746D6173 
 3331      6B5F7400 
 3332 00b1 1F010000 		.4byte	0x11f
 3333 00b5 666C6167 		.ascii	"flagsmask_t\000"
 3333      736D6173 
 3333      6B5F7400 
 3334 00c1 2A010000 		.4byte	0x12a
 3335 00c5 73797374 		.ascii	"systime_t\000"
 3335      696D655F 
 3335      7400
 3336 00cf 35010000 		.4byte	0x135
 3337 00d3 636E745F 		.ascii	"cnt_t\000"
 3337      7400
 3338 00d9 40010000 		.4byte	0x140
 3339 00dd 54687265 		.ascii	"Thread\000"
 3339      616400
 3340 00e4 9B020000 		.4byte	0x29b
ARM GAS  C:\Users\DNIEL~1\AppData\Local\Temp\ccVs2ifP.s 			page 61


 3341 00e8 54687265 		.ascii	"ThreadsQueue\000"
 3341      61647351 
 3341      75657565 
 3341      00
 3342 00f5 BD020000 		.4byte	0x2bd
 3343 00f9 54687265 		.ascii	"ThreadsList\000"
 3343      6164734C 
 3343      69737400 
 3344 0105 C8020000 		.4byte	0x2c8
 3345 0109 72656761 		.ascii	"regarm_t\000"
 3345      726D5F74 
 3345      00
 3346 0112 D3020000 		.4byte	0x2d3
 3347 0116 73746B61 		.ascii	"stkalign_t\000"
 3347      6C69676E 
 3347      5F7400
 3348 0121 DE020000 		.4byte	0x2de
 3349 0125 696E7463 		.ascii	"intctx\000"
 3349      747800
 3350 012c 6C030000 		.4byte	0x36c
 3351 0130 636F6E74 		.ascii	"context\000"
 3351      65787400 
 3352 0138 F6030000 		.4byte	0x3f6
 3353 013c 52656164 		.ascii	"ReadyList\000"
 3353      794C6973 
 3353      7400
 3354 0146 01040000 		.4byte	0x401
 3355 014a 53656D61 		.ascii	"Semaphore\000"
 3355      70686F72 
 3355      6500
 3356 0154 2A040000 		.4byte	0x42a
 3357 0158 53656D61 		.ascii	"Semaphore\000"
 3357      70686F72 
 3357      6500
 3358 0162 35040000 		.4byte	0x435
 3359 0166 4D757465 		.ascii	"Mutex\000"
 3359      7800
 3360 016c 72040000 		.4byte	0x472
 3361 0170 4D757465 		.ascii	"Mutex\000"
 3361      7800
 3362 0176 7D040000 		.4byte	0x47d
 3363 017a 4576656E 		.ascii	"EventListener\000"
 3363      744C6973 
 3363      74656E65 
 3363      7200
 3364 0188 88040000 		.4byte	0x488
 3365 018c 4576656E 		.ascii	"EventListener\000"
 3365      744C6973 
 3365      74656E65 
 3365      7200
 3366 019a D3040000 		.4byte	0x4d3
 3367 019e 4576656E 		.ascii	"EventSource\000"
 3367      74536F75 
 3367      72636500 
 3368 01aa EE040000 		.4byte	0x4ee
 3369 01ae 4576656E 		.ascii	"EventSource\000"
 3369      74536F75 
ARM GAS  C:\Users\DNIEL~1\AppData\Local\Temp\ccVs2ifP.s 			page 62


 3369      72636500 
 3370 01ba 4B010000 		.4byte	0x14b
 3371 01be 54687265 		.ascii	"Thread\000"
 3371      616400
 3372 01c5 50050000 		.4byte	0x550
 3373 01c9 42617365 		.ascii	"BaseSequentialStreamVMT\000"
 3373      53657175 
 3373      656E7469 
 3373      616C5374 
 3373      7265616D 
 3374 01e1 1D060000 		.4byte	0x61d
 3375 01e5 42617365 		.ascii	"BaseSequentialStream\000"
 3375      53657175 
 3375      656E7469 
 3375      616C5374 
 3375      7265616D 
 3376 01fa 93060000 		.4byte	0x693
 3377 01fe 43414E5F 		.ascii	"CAN_TxMailBox_TypeDef\000"
 3377      54784D61 
 3377      696C426F 
 3377      785F5479 
 3377      70654465 
 3378 0214 E5060000 		.4byte	0x6e5
 3379 0218 43414E5F 		.ascii	"CAN_FIFOMailBox_TypeDef\000"
 3379      4649464F 
 3379      4D61696C 
 3379      426F785F 
 3379      54797065 
 3380 0230 19070000 		.4byte	0x719
 3381 0234 43414E5F 		.ascii	"CAN_FilterRegister_TypeDef\000"
 3381      46696C74 
 3381      65725265 
 3381      67697374 
 3381      65725F54 
 3382 024f D7080000 		.4byte	0x8d7
 3383 0253 43414E5F 		.ascii	"CAN_TypeDef\000"
 3383      54797065 
 3383      44656600 
 3384 025f E3080000 		.4byte	0x8e3
 3385 0263 42617365 		.ascii	"BaseChannelVMT\000"
 3385      4368616E 
 3385      6E656C56 
 3385      4D5400
 3386 0272 070A0000 		.4byte	0xa07
 3387 0276 42617365 		.ascii	"BaseChannel\000"
 3387      4368616E 
 3387      6E656C00 
 3388 0282 390A0000 		.4byte	0xa39
 3389 0286 63616E73 		.ascii	"canstate_t\000"
 3389      74617465 
 3389      5F7400
 3390 0291 320B0000 		.4byte	0xb32
 3391 0295 43414E54 		.ascii	"CANTxFrame\000"
 3391      78467261 
 3391      6D6500
 3392 02a0 380C0000 		.4byte	0xc38
 3393 02a4 43414E52 		.ascii	"CANRxFrame\000"
ARM GAS  C:\Users\DNIEL~1\AppData\Local\Temp\ccVs2ifP.s 			page 63


 3393      78467261 
 3393      6D6500
 3394 02af 690C0000 		.4byte	0xc69
 3395 02b3 43414E43 		.ascii	"CANConfig\000"
 3395      6F6E6669 
 3395      6700
 3396 02bd 260D0000 		.4byte	0xd26
 3397 02c1 43414E44 		.ascii	"CANDriver\000"
 3397      72697665 
 3397      7200
 3398 02cb 3D0D0000 		.4byte	0xd3d
 3399 02cf 5F5F7661 		.ascii	"__va_list\000"
 3399      5F6C6973 
 3399      7400
 3400 02d9 320D0000 		.4byte	0xd32
 3401 02dd 5F5F676E 		.ascii	"__gnuc_va_list\000"
 3401      75635F76 
 3401      615F6C69 
 3401      737400
 3402 02ec 570D0000 		.4byte	0xd57
 3403 02f0 76615F6C 		.ascii	"va_list\000"
 3403      69737400 
 3404 02f8 770D0000 		.4byte	0xd77
 3405 02fc 63616E53 		.ascii	"canState\000"
 3405      74617465 
 3405      00
 3406 0305 00000000 		.4byte	0x0
 3407              		.section	.debug_aranges,"",%progbits
 3408 0000 34000000 		.4byte	0x34
 3409 0004 0200     		.2byte	0x2
 3410 0006 00000000 		.4byte	.Ldebug_info0
 3411 000a 04       		.byte	0x4
 3412 000b 00       		.byte	0x0
 3413 000c 0000     		.2byte	0x0
 3414 000e 0000     		.2byte	0x0
 3415 0010 00000000 		.4byte	.LFB118
 3416 0014 1E000000 		.4byte	.LFE118-.LFB118
 3417 0018 00000000 		.4byte	.LFB119
 3418 001c E4000000 		.4byte	.LFE119-.LFB119
 3419 0020 00000000 		.4byte	.LFB121
 3420 0024 34000000 		.4byte	.LFE121-.LFB121
 3421 0028 00000000 		.4byte	.LFB122
 3422 002c CC000000 		.4byte	.LFE122-.LFB122
 3423 0030 00000000 		.4byte	0x0
 3424 0034 00000000 		.4byte	0x0
 3425              		.section	.debug_ranges,"",%progbits
 3426              	.Ldebug_ranges0:
 3427 0000 00000000 		.4byte	.LFB118
 3428 0004 1E000000 		.4byte	.LFE118
 3429 0008 00000000 		.4byte	.LFB119
 3430 000c E4000000 		.4byte	.LFE119
 3431 0010 00000000 		.4byte	.LFB121
 3432 0014 34000000 		.4byte	.LFE121
 3433 0018 00000000 		.4byte	.LFB122
 3434 001c CC000000 		.4byte	.LFE122
 3435 0020 00000000 		.4byte	0x0
 3436 0024 00000000 		.4byte	0x0
ARM GAS  C:\Users\DNIEL~1\AppData\Local\Temp\ccVs2ifP.s 			page 64


 3437              		.section	.debug_str,"MS",%progbits,1
 3438              	.LASF155:
 3439 0000 72786D73 		.ascii	"rxmsg\000"
 3439      6700
 3440              	.LASF168:
 3441 0006 636D645F 		.ascii	"cmd_can_commvalues\000"
 3441      63616E5F 
 3441      636F6D6D 
 3441      76616C75 
 3441      657300
 3442              	.LASF10:
 3443 0019 73697A65 		.ascii	"size_t\000"
 3443      5F7400
 3444              	.LASF124:
 3445 0020 43414E52 		.ascii	"CANRxFrame\000"
 3445      78467261 
 3445      6D6500
 3446              	.LASF74:
 3447 002b 7264796D 		.ascii	"rdymsg\000"
 3447      736700
 3448              	.LASF15:
 3449 0032 75696E74 		.ascii	"uint64_t\000"
 3449      36345F74 
 3449      00
 3450              	.LASF139:
 3451 003b 76615F6C 		.ascii	"va_list\000"
 3451      69737400 
 3452              	.LASF125:
 3453 0043 43414E43 		.ascii	"CANConfig\000"
 3453      6F6E6669 
 3453      6700
 3454              	.LASF106:
 3455 004d 43414E5F 		.ascii	"CAN_TypeDef\000"
 3455      54797065 
 3455      44656600 
 3456              	.LASF159:
 3457 0059 74786D73 		.ascii	"txmsg\000"
 3457      6700
 3458              	.LASF6:
 3459 005f 6C6F6E67 		.ascii	"long long unsigned int\000"
 3459      206C6F6E 
 3459      6720756E 
 3459      7369676E 
 3459      65642069 
 3460              	.LASF107:
 3461 0076 42617365 		.ascii	"BaseChannelVMT\000"
 3461      4368616E 
 3461      6E656C56 
 3461      4D5400
 3462              	.LASF75:
 3463 0085 65786974 		.ascii	"exitcode\000"
 3463      636F6465 
 3463      00
 3464              	.LASF121:
 3465 008e 64617461 		.ascii	"data32\000"
 3465      333200
 3466              	.LASF30:
ARM GAS  C:\Users\DNIEL~1\AppData\Local\Temp\ccVs2ifP.s 			page 65


 3467 0095 705F7072 		.ascii	"p_prio\000"
 3467      696F00
 3468              	.LASF111:
 3469 009c 72656164 		.ascii	"readt\000"
 3469      7400
 3470              	.LASF5:
 3471 00a2 6C6F6E67 		.ascii	"long long int\000"
 3471      206C6F6E 
 3471      6720696E 
 3471      7400
 3472              	.LASF1:
 3473 00b0 7369676E 		.ascii	"signed char\000"
 3473      65642063 
 3473      68617200 
 3474              	.LASF163:
 3475 00bc 433A5C44 		.ascii	"C:\\Dani\\MegaLux\\Repo\\Modulux\\Modulux\\modulux\\"
 3475      616E695C 
 3475      4D656761 
 3475      4C75785C 
 3475      5265706F 
 3476 00e9 6669726D 		.ascii	"firmware\000"
 3476      77617265 
 3476      00
 3477              	.LASF46:
 3478 00f2 705F6D70 		.ascii	"p_mpool\000"
 3478      6F6F6C00 
 3479              	.LASF128:
 3480 00fa 74787365 		.ascii	"txsem\000"
 3480      6D00
 3481              	.LASF20:
 3482 0100 74736C69 		.ascii	"tslices_t\000"
 3482      6365735F 
 3482      7400
 3483              	.LASF126:
 3484 010a 73746174 		.ascii	"state\000"
 3484      6500
 3485              	.LASF83:
 3486 0110 54444C52 		.ascii	"TDLR\000"
 3486      00
 3487              	.LASF7:
 3488 0115 6C6F6E67 		.ascii	"long int\000"
 3488      20696E74 
 3488      00
 3489              	.LASF18:
 3490 011e 74737461 		.ascii	"tstate_t\000"
 3490      74655F74 
 3490      00
 3491              	.LASF85:
 3492 0127 43414E5F 		.ascii	"CAN_TxMailBox_TypeDef\000"
 3492      54784D61 
 3492      696C426F 
 3492      785F5479 
 3492      70654465 
 3493              	.LASF137:
 3494 013d 5F5F7661 		.ascii	"__va_list\000"
 3494      5F6C6973 
 3494      7400
ARM GAS  C:\Users\DNIEL~1\AppData\Local\Temp\ccVs2ifP.s 			page 66


 3495              	.LASF37:
 3496 0147 705F7265 		.ascii	"p_refs\000"
 3496      667300
 3497              	.LASF157:
 3498 014e 6D657373 		.ascii	"messages\000"
 3498      61676573 
 3498      00
 3499              	.LASF12:
 3500 0157 75696E74 		.ascii	"uint16_t\000"
 3500      31365F74 
 3500      00
 3501              	.LASF39:
 3502 0160 705F7469 		.ascii	"p_time\000"
 3502      6D6500
 3503              	.LASF140:
 3504 0167 646F7562 		.ascii	"double\000"
 3504      6C6500
 3505              	.LASF32:
 3506 016e 705F6E65 		.ascii	"p_newer\000"
 3506      77657200 
 3507              	.LASF61:
 3508 0176 735F7175 		.ascii	"s_queue\000"
 3508      65756500 
 3509              	.LASF148:
 3510 017e 43414E5F 		.ascii	"CAN_NUM_CH\000"
 3510      4E554D5F 
 3510      434800
 3511              	.LASF116:
 3512 0189 43414E5F 		.ascii	"CAN_READY\000"
 3512      52454144 
 3512      5900
 3513              	.LASF91:
 3514 0193 52463052 		.ascii	"RF0R\000"
 3514      00
 3515              	.LASF130:
 3516 0198 72786675 		.ascii	"rxfull_event\000"
 3516      6C6C5F65 
 3516      76656E74 
 3516      00
 3517              	.LASF56:
 3518 01a5 725F6E65 		.ascii	"r_newer\000"
 3518      77657200 
 3519              	.LASF49:
 3520 01ad 72656761 		.ascii	"regarm_t\000"
 3520      726D5F74 
 3520      00
 3521              	.LASF123:
 3522 01b6 54494D45 		.ascii	"TIME\000"
 3522      00
 3523              	.LASF82:
 3524 01bb 54445452 		.ascii	"TDTR\000"
 3524      00
 3525              	.LASF72:
 3526 01c0 4576656E 		.ascii	"EventSource\000"
 3526      74536F75 
 3526      72636500 
 3527              	.LASF81:
ARM GAS  C:\Users\DNIEL~1\AppData\Local\Temp\ccVs2ifP.s 			page 67


 3528 01cc 42617365 		.ascii	"BaseSequentialStream\000"
 3528      53657175 
 3528      656E7469 
 3528      616C5374 
 3528      7265616D 
 3529              	.LASF26:
 3530 01e1 636E745F 		.ascii	"cnt_t\000"
 3530      7400
 3531              	.LASF0:
 3532 01e7 756E7369 		.ascii	"unsigned int\000"
 3532      676E6564 
 3532      20696E74 
 3532      00
 3533              	.LASF153:
 3534 01f4 43414E44 		.ascii	"CAND1\000"
 3534      3100
 3535              	.LASF94:
 3536 01fa 7354784D 		.ascii	"sTxMailBox\000"
 3536      61696C42 
 3536      6F7800
 3537              	.LASF41:
 3538 0205 705F6D73 		.ascii	"p_msgqueue\000"
 3538      67717565 
 3538      756500
 3539              	.LASF86:
 3540 0210 52445452 		.ascii	"RDTR\000"
 3540      00
 3541              	.LASF122:
 3542 0215 43414E54 		.ascii	"CANTxFrame\000"
 3542      78467261 
 3542      6D6500
 3543              	.LASF109:
 3544 0220 67657474 		.ascii	"gett\000"
 3544      00
 3545              	.LASF62:
 3546 0225 735F636E 		.ascii	"s_cnt\000"
 3546      7400
 3547              	.LASF4:
 3548 022b 73686F72 		.ascii	"short unsigned int\000"
 3548      7420756E 
 3548      7369676E 
 3548      65642069 
 3548      6E7400
 3549              	.LASF92:
 3550 023e 52463152 		.ascii	"RF1R\000"
 3550      00
 3551              	.LASF146:
 3552 0243 43414E5F 		.ascii	"CAN_LC\000"
 3552      4C4300
 3553              	.LASF90:
 3554 024a 43414E5F 		.ascii	"CAN_FilterRegister_TypeDef\000"
 3554      46696C74 
 3554      65725265 
 3554      67697374 
 3554      65725F54 
 3555              	.LASF22:
 3556 0265 6D73675F 		.ascii	"msg_t\000"
ARM GAS  C:\Users\DNIEL~1\AppData\Local\Temp\ccVs2ifP.s 			page 68


 3556      7400
 3557              	.LASF68:
 3558 026b 656C5F6E 		.ascii	"el_next\000"
 3558      65787400 
 3559              	.LASF110:
 3560 0273 77726974 		.ascii	"writet\000"
 3560      657400
 3561              	.LASF17:
 3562 027a 746D6F64 		.ascii	"tmode_t\000"
 3562      655F7400 
 3563              	.LASF48:
 3564 0282 54687265 		.ascii	"ThreadsList\000"
 3564      6164734C 
 3564      69737400 
 3565              	.LASF105:
 3566 028e 7346696C 		.ascii	"sFilterRegister\000"
 3566      74657252 
 3566      65676973 
 3566      74657200 
 3567              	.LASF23:
 3568 029e 6576656E 		.ascii	"eventmask_t\000"
 3568      746D6173 
 3568      6B5F7400 
 3569              	.LASF63:
 3570 02aa 4D757465 		.ascii	"Mutex\000"
 3570      7800
 3571              	.LASF166:
 3572 02b0 63616E5F 		.ascii	"can_rx\000"
 3572      727800
 3573              	.LASF158:
 3574 02b7 63616E5F 		.ascii	"can_rx_wa\000"
 3574      72785F77 
 3574      6100
 3575              	.LASF50:
 3576 02c1 73746B61 		.ascii	"stkalign_t\000"
 3576      6C69676E 
 3576      5F7400
 3577              	.LASF79:
 3578 02cc 77726974 		.ascii	"write\000"
 3578      6500
 3579              	.LASF108:
 3580 02d2 70757474 		.ascii	"putt\000"
 3580      00
 3581              	.LASF103:
 3582 02d7 46413152 		.ascii	"FA1R\000"
 3582      00
 3583              	.LASF164:
 3584 02dc 63616E53 		.ascii	"canState\000"
 3584      74617465 
 3584      00
 3585              	.LASF143:
 3586 02e5 43414E5F 		.ascii	"CAN_SM\000"
 3586      534D00
 3587              	.LASF142:
 3588 02ec 6C6F6E67 		.ascii	"long double\000"
 3588      20646F75 
 3588      626C6500 
ARM GAS  C:\Users\DNIEL~1\AppData\Local\Temp\ccVs2ifP.s 			page 69


 3589              	.LASF117:
 3590 02f8 43414E5F 		.ascii	"CAN_SLEEP\000"
 3590      534C4545 
 3590      5000
 3591              	.LASF156:
 3592 0302 63616E63 		.ascii	"cancfg\000"
 3592      666700
 3593              	.LASF119:
 3594 0309 64617461 		.ascii	"data8\000"
 3594      3800
 3595              	.LASF136:
 3596 030f 5F5F676E 		.ascii	"__gnuc_va_list\000"
 3596      75635F76 
 3596      615F6C69 
 3596      737400
 3597              	.LASF135:
 3598 031e 43414E44 		.ascii	"CANDriver\000"
 3598      72697665 
 3598      7200
 3599              	.LASF147:
 3600 0328 43414E5F 		.ascii	"CAN_WAIT\000"
 3600      57414954 
 3600      00
 3601              	.LASF33:
 3602 0331 705F6F6C 		.ascii	"p_older\000"
 3602      64657200 
 3603              	.LASF55:
 3604 0339 725F6374 		.ascii	"r_ctx\000"
 3604      7800
 3605              	.LASF47:
 3606 033f 54687265 		.ascii	"ThreadsQueue\000"
 3606      61647351 
 3606      75657565 
 3606      00
 3607              	.LASF84:
 3608 034c 54444852 		.ascii	"TDHR\000"
 3608      00
 3609              	.LASF58:
 3610 0351 725F6375 		.ascii	"r_current\000"
 3610      7272656E 
 3610      7400
 3611              	.LASF57:
 3612 035b 725F6F6C 		.ascii	"r_older\000"
 3612      64657200 
 3613              	.LASF70:
 3614 0363 656C5F6D 		.ascii	"el_mask\000"
 3614      61736B00 
 3615              	.LASF133:
 3616 036b 736C6565 		.ascii	"sleep_event\000"
 3616      705F6576 
 3616      656E7400 
 3617              	.LASF118:
 3618 0377 63616E73 		.ascii	"canstate_t\000"
 3618      74617465 
 3618      5F7400
 3619              	.LASF114:
 3620 0382 43414E5F 		.ascii	"CAN_STOP\000"
ARM GAS  C:\Users\DNIEL~1\AppData\Local\Temp\ccVs2ifP.s 			page 70


 3620      53544F50 
 3620      00
 3621              	.LASF101:
 3622 038b 46464131 		.ascii	"FFA1R\000"
 3622      5200
 3623              	.LASF132:
 3624 0391 6572726F 		.ascii	"error_event\000"
 3624      725F6576 
 3624      656E7400 
 3625              	.LASF141:
 3626 039d 666C6F61 		.ascii	"float\000"
 3626      7400
 3627              	.LASF167:
 3628 03a3 63616E5F 		.ascii	"can_commInit\000"
 3628      636F6D6D 
 3628      496E6974 
 3628      00
 3629              	.LASF19:
 3630 03b0 74726566 		.ascii	"trefs_t\000"
 3630      735F7400 
 3631              	.LASF93:
 3632 03b8 52455345 		.ascii	"RESERVED0\000"
 3632      52564544 
 3632      3000
 3633              	.LASF96:
 3634 03c2 52455345 		.ascii	"RESERVED1\000"
 3634      52564544 
 3634      3100
 3635              	.LASF98:
 3636 03cc 52455345 		.ascii	"RESERVED2\000"
 3636      52564544 
 3636      3200
 3637              	.LASF100:
 3638 03d6 52455345 		.ascii	"RESERVED3\000"
 3638      52564544 
 3638      3300
 3639              	.LASF102:
 3640 03e0 52455345 		.ascii	"RESERVED4\000"
 3640      52564544 
 3640      3400
 3641              	.LASF29:
 3642 03ea 705F7072 		.ascii	"p_prev\000"
 3642      657600
 3643              	.LASF21:
 3644 03f1 74707269 		.ascii	"tprio_t\000"
 3644      6F5F7400 
 3645              	.LASF113:
 3646 03f9 43414E5F 		.ascii	"CAN_UNINIT\000"
 3646      554E494E 
 3646      495400
 3647              	.LASF16:
 3648 0404 5F426F6F 		.ascii	"_Bool\000"
 3648      6C00
 3649              	.LASF13:
 3650 040a 696E7433 		.ascii	"int32_t\000"
 3650      325F7400 
 3651              	.LASF2:
ARM GAS  C:\Users\DNIEL~1\AppData\Local\Temp\ccVs2ifP.s 			page 71


 3652 0412 756E7369 		.ascii	"unsigned char\000"
 3652      676E6564 
 3652      20636861 
 3652      7200
 3653              	.LASF64:
 3654 0420 6D5F7175 		.ascii	"m_queue\000"
 3654      65756500 
 3655              	.LASF134:
 3656 0428 77616B65 		.ascii	"wakeup_event\000"
 3656      75705F65 
 3656      76656E74 
 3656      00
 3657              	.LASF69:
 3658 0435 656C5F6C 		.ascii	"el_listener\000"
 3658      69737465 
 3658      6E657200 
 3659              	.LASF152:
 3660 0441 49544D5F 		.ascii	"ITM_RxBuffer\000"
 3660      52784275 
 3660      66666572 
 3660      00
 3661              	.LASF71:
 3662 044e 656C5F66 		.ascii	"el_flags\000"
 3662      6C616773 
 3662      00
 3663              	.LASF44:
 3664 0457 705F6D74 		.ascii	"p_mtxlist\000"
 3664      786C6973 
 3664      7400
 3665              	.LASF3:
 3666 0461 73686F72 		.ascii	"short int\000"
 3666      7420696E 
 3666      7400
 3667              	.LASF35:
 3668 046b 705F7374 		.ascii	"p_state\000"
 3668      61746500 
 3669              	.LASF38:
 3670 0473 705F7072 		.ascii	"p_preempt\000"
 3670      65656D70 
 3670      7400
 3671              	.LASF54:
 3672 047d 725F7072 		.ascii	"r_prio\000"
 3672      696F00
 3673              	.LASF77:
 3674 0484 65776D61 		.ascii	"ewmask\000"
 3674      736B00
 3675              	.LASF28:
 3676 048b 705F6E65 		.ascii	"p_next\000"
 3676      787400
 3677              	.LASF78:
 3678 0492 42617365 		.ascii	"BaseSequentialStreamVMT\000"
 3678      53657175 
 3678      656E7469 
 3678      616C5374 
 3678      7265616D 
 3679              	.LASF36:
 3680 04aa 705F666C 		.ascii	"p_flags\000"
ARM GAS  C:\Users\DNIEL~1\AppData\Local\Temp\ccVs2ifP.s 			page 72


 3680      61677300 
 3681              	.LASF97:
 3682 04b2 464D3152 		.ascii	"FM1R\000"
 3682      00
 3683              	.LASF27:
 3684 04b7 54687265 		.ascii	"Thread\000"
 3684      616400
 3685              	.LASF160:
 3686 04be 63616E5F 		.ascii	"can_tx_wa\000"
 3686      74785F77 
 3686      6100
 3687              	.LASF43:
 3688 04c8 705F6570 		.ascii	"p_epending\000"
 3688      656E6469 
 3688      6E6700
 3689              	.LASF104:
 3690 04d3 52455345 		.ascii	"RESERVED5\000"
 3690      52564544 
 3690      3500
 3691              	.LASF14:
 3692 04dd 75696E74 		.ascii	"uint32_t\000"
 3692      33325F74 
 3692      00
 3693              	.LASF53:
 3694 04e6 725F7175 		.ascii	"r_queue\000"
 3694      65756500 
 3695              	.LASF131:
 3696 04ee 7478656D 		.ascii	"txempty_event\000"
 3696      7074795F 
 3696      6576656E 
 3696      7400
 3697              	.LASF8:
 3698 04fc 6C6F6E67 		.ascii	"long unsigned int\000"
 3698      20756E73 
 3698      69676E65 
 3698      6420696E 
 3698      7400
 3699              	.LASF80:
 3700 050e 72656164 		.ascii	"read\000"
 3700      00
 3701              	.LASF9:
 3702 0513 63686172 		.ascii	"char\000"
 3702      00
 3703              	.LASF127:
 3704 0518 636F6E66 		.ascii	"config\000"
 3704      696700
 3705              	.LASF88:
 3706 051f 52444852 		.ascii	"RDHR\000"
 3706      00
 3707              	.LASF154:
 3708 0524 63616E73 		.ascii	"canstate\000"
 3708      74617465 
 3708      00
 3709              	.LASF66:
 3710 052d 6D5F6E65 		.ascii	"m_next\000"
 3710      787400
 3711              	.LASF25:
ARM GAS  C:\Users\DNIEL~1\AppData\Local\Temp\ccVs2ifP.s 			page 73


 3712 0534 73797374 		.ascii	"systime_t\000"
 3712      696D655F 
 3712      7400
 3713              	.LASF45:
 3714 053e 705F7265 		.ascii	"p_realprio\000"
 3714      616C7072 
 3714      696F00
 3715              	.LASF95:
 3716 0549 73464946 		.ascii	"sFIFOMailBox\000"
 3716      4F4D6169 
 3716      6C426F78 
 3716      00
 3717              	.LASF138:
 3718 0556 5F5F6170 		.ascii	"__ap\000"
 3718      00
 3719              	.LASF52:
 3720 055b 636F6E74 		.ascii	"context\000"
 3720      65787400 
 3721              	.LASF51:
 3722 0563 696E7463 		.ascii	"intctx\000"
 3722      747800
 3723              	.LASF162:
 3724 056a 7372632F 		.ascii	"src/can_comm.c\000"
 3724      63616E5F 
 3724      636F6D6D 
 3724      2E6300
 3725              	.LASF60:
 3726 0579 53656D61 		.ascii	"Semaphore\000"
 3726      70686F72 
 3726      6500
 3727              	.LASF24:
 3728 0583 666C6167 		.ascii	"flagsmask_t\000"
 3728      736D6173 
 3728      6B5F7400 
 3729              	.LASF120:
 3730 058f 64617461 		.ascii	"data16\000"
 3730      313600
 3731              	.LASF99:
 3732 0596 46533152 		.ascii	"FS1R\000"
 3732      00
 3733              	.LASF34:
 3734 059b 705F6E61 		.ascii	"p_name\000"
 3734      6D6500
 3735              	.LASF73:
 3736 05a2 65735F6E 		.ascii	"es_next\000"
 3736      65787400 
 3737              	.LASF59:
 3738 05aa 52656164 		.ascii	"ReadyList\000"
 3738      794C6973 
 3738      7400
 3739              	.LASF89:
 3740 05b4 43414E5F 		.ascii	"CAN_FIFOMailBox_TypeDef\000"
 3740      4649464F 
 3740      4D61696C 
 3740      426F785F 
 3740      54797065 
 3741              	.LASF151:
ARM GAS  C:\Users\DNIEL~1\AppData\Local\Temp\ccVs2ifP.s 			page 74


 3742 05cc 726C6973 		.ascii	"rlist\000"
 3742      7400
 3743              	.LASF11:
 3744 05d2 75696E74 		.ascii	"uint8_t\000"
 3744      385F7400 
 3745              	.LASF129:
 3746 05da 72787365 		.ascii	"rxsem\000"
 3746      6D00
 3747              	.LASF144:
 3748 05e0 43414E5F 		.ascii	"CAN_ML\000"
 3748      4D4C00
 3749              	.LASF145:
 3750 05e7 43414E5F 		.ascii	"CAN_RPY\000"
 3750      52505900 
 3751              	.LASF67:
 3752 05ef 4576656E 		.ascii	"EventListener\000"
 3752      744C6973 
 3752      74656E65 
 3752      7200
 3753              	.LASF76:
 3754 05fd 77746F62 		.ascii	"wtobjp\000"
 3754      6A7000
 3755              	.LASF161:
 3756 0604 474E5520 		.ascii	"GNU C 4.5.2\000"
 3756      4320342E 
 3756      352E3200 
 3757              	.LASF149:
 3758 0610 61726763 		.ascii	"argc\000"
 3758      00
 3759              	.LASF115:
 3760 0615 43414E5F 		.ascii	"CAN_STARTING\000"
 3760      53544152 
 3760      54494E47 
 3760      00
 3761              	.LASF42:
 3762 0622 705F6D73 		.ascii	"p_msg\000"
 3762      6700
 3763              	.LASF112:
 3764 0628 42617365 		.ascii	"BaseChannel\000"
 3764      4368616E 
 3764      6E656C00 
 3765              	.LASF87:
 3766 0634 52444C52 		.ascii	"RDLR\000"
 3766      00
 3767              	.LASF150:
 3768 0639 61726776 		.ascii	"argv\000"
 3768      00
 3769              	.LASF65:
 3770 063e 6D5F6F77 		.ascii	"m_owner\000"
 3770      6E657200 
 3771              	.LASF31:
 3772 0646 705F6374 		.ascii	"p_ctx\000"
 3772      7800
 3773              	.LASF40:
 3774 064c 705F7761 		.ascii	"p_waiting\000"
 3774      6974696E 
 3774      6700
ARM GAS  C:\Users\DNIEL~1\AppData\Local\Temp\ccVs2ifP.s 			page 75


 3775              	.LASF165:
 3776 0656 63687072 		.ascii	"chprintf\000"
 3776      696E7466 
 3776      00
 3777              		.ident	"GCC: (Sourcery G++ Lite 2011.03-42) 4.5.2"
ARM GAS  C:\Users\DNIEL~1\AppData\Local\Temp\ccVs2ifP.s 			page 76


DEFINED SYMBOLS
                            *ABS*:00000000 can_comm.c
C:\Users\DNIEL~1\AppData\Local\Temp\ccVs2ifP.s:24     .text.chprintf:00000000 $t
C:\Users\DNIEL~1\AppData\Local\Temp\ccVs2ifP.s:29     .text.chprintf:00000000 chprintf
C:\Users\DNIEL~1\AppData\Local\Temp\ccVs2ifP.s:69     .text.can_rx:00000000 $t
C:\Users\DNIEL~1\AppData\Local\Temp\ccVs2ifP.s:74     .text.can_rx:00000000 can_rx
C:\Users\DNIEL~1\AppData\Local\Temp\ccVs2ifP.s:220    .text.can_rx:000000c4 $d
C:\Users\DNIEL~1\AppData\Local\Temp\ccVs2ifP.s:232    .text.can_commInit:00000000 $t
C:\Users\DNIEL~1\AppData\Local\Temp\ccVs2ifP.s:238    .text.can_commInit:00000000 can_commInit
C:\Users\DNIEL~1\AppData\Local\Temp\ccVs2ifP.s:271    .text.can_commInit:00000024 $d
C:\Users\DNIEL~1\AppData\Local\Temp\ccVs2ifP.s:279    .text.cmd_can_commvalues:00000000 $t
C:\Users\DNIEL~1\AppData\Local\Temp\ccVs2ifP.s:285    .text.cmd_can_commvalues:00000000 cmd_can_commvalues
C:\Users\DNIEL~1\AppData\Local\Temp\ccVs2ifP.s:385    .text.cmd_can_commvalues:00000094 $d
C:\Users\DNIEL~1\AppData\Local\Temp\ccVs2ifP.s:458    .bss.canstate:00000000 canstate
C:\Users\DNIEL~1\AppData\Local\Temp\ccVs2ifP.s:404    .bss.id:00000000 $d
C:\Users\DNIEL~1\AppData\Local\Temp\ccVs2ifP.s:408    .bss.id:00000000 id
C:\Users\DNIEL~1\AppData\Local\Temp\ccVs2ifP.s:411    .bss.can_rx_wa:00000000 $d
C:\Users\DNIEL~1\AppData\Local\Temp\ccVs2ifP.s:415    .bss.can_rx_wa:00000000 can_rx_wa
C:\Users\DNIEL~1\AppData\Local\Temp\ccVs2ifP.s:418    .rodata.str1.4:00000000 $d
C:\Users\DNIEL~1\AppData\Local\Temp\ccVs2ifP.s:459    .bss.canstate:00000000 $d
C:\Users\DNIEL~1\AppData\Local\Temp\ccVs2ifP.s:461    .bss.messages:00000000 $d
C:\Users\DNIEL~1\AppData\Local\Temp\ccVs2ifP.s:465    .bss.messages:00000000 messages
C:\Users\DNIEL~1\AppData\Local\Temp\ccVs2ifP.s:468    .bss.rxmsg:00000000 $d
C:\Users\DNIEL~1\AppData\Local\Temp\ccVs2ifP.s:472    .bss.rxmsg:00000000 rxmsg
C:\Users\DNIEL~1\AppData\Local\Temp\ccVs2ifP.s:475    .rodata.cancfg:00000000 $d
C:\Users\DNIEL~1\AppData\Local\Temp\ccVs2ifP.s:479    .rodata.cancfg:00000000 cancfg
                     .debug_frame:00000010 $d
C:\Users\DNIEL~1\AppData\Local\Temp\ccVs2ifP.s:231    .text.can_rx:000000e4 $t
C:\Users\DNIEL~1\AppData\Local\Temp\ccVs2ifP.s:278    .text.can_commInit:00000034 $t
C:\Users\DNIEL~1\AppData\Local\Temp\ccVs2ifP.s:403    .text.cmd_can_commvalues:000000cc $t

UNDEFINED SYMBOLS
chvprintf
chEvtRegisterMask
chEvtWaitAnyTimeout
canReceive
lightWarning
lightLeft
lightRight
chEvtUnregister
rlist
CAND1
canStart
chThdCreateStatic
chThdSleep
