ARM GAS  C:\Users\RICHRD~1\AppData\Local\Temp\ccq2u7a9.s 			page 1


   1              		.syntax unified
   2              		.cpu cortex-m4
   3              		.fpu softvfp
   4              		.eabi_attribute 20, 1
   5              		.eabi_attribute 21, 1
   6              		.eabi_attribute 23, 3
   7              		.eabi_attribute 24, 1
   8              		.eabi_attribute 25, 1
   9              		.eabi_attribute 26, 1
  10              		.eabi_attribute 30, 2
  11              		.eabi_attribute 34, 1
  12              		.eabi_attribute 18, 4
  13              		.thumb
  14              		.file	"can_comm.c"
  15              		.text
  16              	.Ltext0:
  17              		.cfi_sections	.debug_frame
  18              		.section	.text.chprintf,"ax",%progbits
  19              		.align	2
  20              		.p2align 4,,15
  21              		.thumb
  22              		.thumb_func
  23              		.type	chprintf, %function
  24              	chprintf:
  25              	.LFB118:
  26              		.file 1 "../../Chibios/os/various/chprintf.h"
  27              		.loc 1 69 0
  28              		.cfi_startproc
  29              		@ args = 4, pretend = 12, frame = 8
  30              		@ frame_needed = 0, uses_anonymous_args = 1
  31              	.LVL0:
  32 0000 0EB4     		push	{r1, r2, r3}
  33              	.LCFI0:
  34              		.cfi_def_cfa_offset 12
  35              		.cfi_offset 1, -12
  36              		.cfi_offset 2, -8
  37              		.cfi_offset 3, -4
  38 0002 00B5     		push	{lr}
  39              	.LCFI1:
  40              		.cfi_def_cfa_offset 16
  41              		.cfi_offset 14, -16
  42 0004 82B0     		sub	sp, sp, #8
  43              	.LCFI2:
  44              		.cfi_def_cfa_offset 24
  45              		.loc 1 69 0
  46 0006 03AB     		add	r3, sp, #12
  47 0008 53F8041B 		ldr	r1, [r3], #4
  48              		.loc 1 73 0
  49 000c 1A46     		mov	r2, r3
  50              		.loc 1 72 0
  51 000e 0193     		str	r3, [sp, #4]
  52              		.loc 1 73 0
  53 0010 FFF7FEFF 		bl	chvprintf
  54              	.LVL1:
  55              		.loc 1 75 0
  56 0014 02B0     		add	sp, sp, #8
  57 0016 5DF804EB 		pop	{lr}
ARM GAS  C:\Users\RICHRD~1\AppData\Local\Temp\ccq2u7a9.s 			page 2


  58 001a 03B0     		add	sp, sp, #12
  59 001c 7047     		bx	lr
  60              		.cfi_endproc
  61              	.LFE118:
  62              		.size	chprintf, .-chprintf
  63 001e 00BF     		.section	.text.can_rx,"ax",%progbits
  64              		.align	2
  65              		.p2align 4,,15
  66              		.thumb
  67              		.thumb_func
  68              		.type	can_rx, %function
  69              	can_rx:
  70              	.LFB119:
  71              		.file 2 "src/can_comm.c"
  72              		.loc 2 77 0
  73              		.cfi_startproc
  74              		@ args = 0, pretend = 0, frame = 16
  75              		@ frame_needed = 0, uses_anonymous_args = 0
  76              	.LVL2:
  77 0000 2DE9F041 		push	{r4, r5, r6, r7, r8, lr}
  78              	.LCFI3:
  79              		.cfi_def_cfa_offset 24
  80              		.cfi_offset 4, -24
  81              		.cfi_offset 5, -20
  82              		.cfi_offset 6, -16
  83              		.cfi_offset 7, -12
  84              		.cfi_offset 8, -8
  85              		.cfi_offset 14, -4
  86              		.loc 2 83 0
  87 0004 DFF8C880 		ldr	r8, .L25+28
  88 0008 2A4A     		ldr	r2, .L25
  89 000a D8F81830 		ldr	r3, [r8, #24]
  90              		.loc 2 84 0
  91 000e 2A48     		ldr	r0, .L25+4
  92              	.LVL3:
  93              		.loc 2 83 0
  94 0010 9A61     		str	r2, [r3, #24]
  95              		.loc 2 77 0
  96 0012 84B0     		sub	sp, sp, #16
  97              	.LCFI4:
  98              		.cfi_def_cfa_offset 40
  99              		.loc 2 84 0
 100 0014 6946     		mov	r1, sp
 101 0016 0122     		movs	r2, #1
 102 0018 FFF7FEFF 		bl	chEvtRegisterMask
 103              	.LVL4:
 104              		.loc 2 88 0
 105 001c 274C     		ldr	r4, .L25+8
 106              		.loc 2 90 0
 107 001e 284E     		ldr	r6, .L25+12
 108              		.loc 2 91 0
 109 0020 284D     		ldr	r5, .L25+16
 110              		.loc 2 121 0
 111 0022 294F     		ldr	r7, .L25+20
 112              	.L20:
 113              		.loc 2 85 0 discriminator 1
 114 0024 D8F81800 		ldr	r0, [r8, #24]
ARM GAS  C:\Users\RICHRD~1\AppData\Local\Temp\ccq2u7a9.s 			page 3


 115 0028 417F     		ldrb	r1, [r0, #29]	@ zero_extendqisi2
 116 002a 01F00403 		and	r3, r1, #4
 117 002e DAB2     		uxtb	r2, r3
 118 0030 002A     		cmp	r2, #0
 119 0032 37D1     		bne	.L24
 120              		.loc 2 86 0
 121 0034 4FF0FF30 		mov	r0, #-1
 122 0038 6421     		movs	r1, #100
 123 003a FFF7FEFF 		bl	chEvtWaitAnyTimeout
 124              	.LVL5:
 125 003e 0028     		cmp	r0, #0
 126 0040 F0D0     		beq	.L20
 127              	.L21:
 128              		.loc 2 88 0 discriminator 1
 129 0042 0021     		movs	r1, #0
 130 0044 2148     		ldr	r0, .L25+24
 131 0046 1D4A     		ldr	r2, .L25+8
 132 0048 0B46     		mov	r3, r1
 133 004a FFF7FEFF 		bl	canReceive
 134              	.LVL6:
 135 004e 0028     		cmp	r0, #0
 136 0050 E8D1     		bne	.L20
 137              		.loc 2 90 0
 138 0052 A168     		ldr	r1, [r4, #8]
 139 0054 C1F31C02 		ubfx	r2, r1, #0, #29
 140 0058 C2F30F23 		ubfx	r3, r2, #8, #16
 141              		.loc 2 100 0
 142 005c 0F2B     		cmp	r3, #15
 143              		.loc 2 91 0
 144 005e D2B2     		uxtb	r2, r2
 145              		.loc 2 90 0
 146 0060 3380     		strh	r3, [r6, #0]	@ movhi
 147              		.loc 2 91 0
 148 0062 2A80     		strh	r2, [r5, #0]	@ movhi
 149              	.LVL7:
 150              		.loc 2 100 0
 151 0064 14D9     		bls	.L22
 152              		.loc 2 104 0
 153 0066 A3F11002 		sub	r2, r3, #16
 154 006a 0F2A     		cmp	r2, #15
 155 006c 10D9     		bls	.L22
 156              		.loc 2 108 0
 157 006e A3F12002 		sub	r2, r3, #32
 158 0072 0F2A     		cmp	r2, #15
 159 0074 0CD9     		bls	.L22
 160              		.loc 2 112 0
 161 0076 A3F13002 		sub	r2, r3, #48
 162 007a 0F2A     		cmp	r2, #15
 163 007c 08D9     		bls	.L22
 164              		.loc 2 116 0
 165 007e 403B     		subs	r3, r3, #64
 166 0080 1F2B     		cmp	r3, #31
 167              		.loc 2 118 0
 168 0082 60F31C01 		bfi	r1, r0, #0, #29
 169              		.loc 2 116 0
 170 0086 09D8     		bhi	.L11
 171              		.loc 2 118 0
ARM GAS  C:\Users\RICHRD~1\AppData\Local\Temp\ccq2u7a9.s 			page 4


 172 0088 A160     		str	r1, [r4, #8]
 173              		.loc 2 143 0
 174 008a 0521     		movs	r1, #5
 175 008c 3970     		strb	r1, [r7, #0]
 176              		.loc 2 144 0
 177 008e D8E7     		b	.L21
 178              	.L22:
 179              		.loc 2 114 0
 180 0090 60F31C01 		bfi	r1, r0, #0, #29
 181              		.loc 2 139 0
 182 0094 0523     		movs	r3, #5
 183              		.loc 2 114 0
 184 0096 A160     		str	r1, [r4, #8]
 185              		.loc 2 139 0
 186 0098 3B70     		strb	r3, [r7, #0]
 187              		.loc 2 140 0
 188 009a D2E7     		b	.L21
 189              	.L11:
 190              		.loc 2 121 0
 191 009c 0520     		movs	r0, #5
 192 009e 3870     		strb	r0, [r7, #0]
 193              		.loc 2 122 0
 194 00a0 A160     		str	r1, [r4, #8]
 195 00a2 CEE7     		b	.L21
 196              	.LVL8:
 197              	.L24:
 198              		.loc 2 155 0
 199 00a4 0448     		ldr	r0, .L25+4
 200 00a6 6946     		mov	r1, sp
 201 00a8 FFF7FEFF 		bl	chEvtUnregister
 202              	.LVL9:
 203              		.loc 2 158 0
 204 00ac 0020     		movs	r0, #0
 205 00ae 04B0     		add	sp, sp, #16
 206 00b0 BDE8F081 		pop	{r4, r5, r6, r7, r8, pc}
 207              	.L26:
 208              		.align	2
 209              	.L25:
 210 00b4 00000000 		.word	.LC0
 211 00b8 20000000 		.word	CAND1+32
 212 00bc 00000000 		.word	.LANCHOR0
 213 00c0 00000000 		.word	.LANCHOR1
 214 00c4 00000000 		.word	.LANCHOR2
 215 00c8 00000000 		.word	.LANCHOR3
 216 00cc 00000000 		.word	CAND1
 217 00d0 00000000 		.word	rlist
 218              		.cfi_endproc
 219              	.LFE119:
 220              		.size	can_rx, .-can_rx
 221 00d4 AFF30080 		.section	.text.can_tx,"ax",%progbits
 221      AFF30080 
 221      AFF30080 
 222              		.align	2
 223              		.p2align 4,,15
 224              		.thumb
 225              		.thumb_func
 226              		.type	can_tx, %function
ARM GAS  C:\Users\RICHRD~1\AppData\Local\Temp\ccq2u7a9.s 			page 5


 227              	can_tx:
 228              	.LFB120:
 229              		.loc 2 161 0
 230              		.cfi_startproc
 231              		@ args = 0, pretend = 0, frame = 0
 232              		@ frame_needed = 0, uses_anonymous_args = 0
 233              	.LVL10:
 234 0000 70B5     		push	{r4, r5, r6, lr}
 235              	.LCFI5:
 236              		.cfi_def_cfa_offset 16
 237              		.cfi_offset 4, -16
 238              		.cfi_offset 5, -12
 239              		.cfi_offset 6, -8
 240              		.cfi_offset 14, -4
 241              		.loc 2 164 0
 242 0002 194D     		ldr	r5, .L37
 243 0004 1949     		ldr	r1, .L37+4
 244 0006 AB69     		ldr	r3, [r5, #24]
 245              		.loc 2 168 0
 246 0008 5A7F     		ldrb	r2, [r3, #29]	@ zero_extendqisi2
 247              		.loc 2 164 0
 248 000a 9961     		str	r1, [r3, #24]
 249              		.loc 2 168 0
 250 000c 02F00400 		and	r0, r2, #4
 251              	.LVL11:
 252 0010 C3B2     		uxtb	r3, r0
 253 0012 3BBB     		cbnz	r3, .L36
 254 0014 164C     		ldr	r4, .L37+8
 255              		.loc 2 173 0
 256 0016 42F20106 		movw	r6, #8193
 257              	.L28:
 258              	.LVL12:
 259 001a 6268     		ldr	r2, [r4, #4]
 260              		.loc 2 175 0
 261 001c 0020     		movs	r0, #0
 262              		.loc 2 173 0
 263 001e 66F31C02 		bfi	r2, r6, #0, #29
 264 0022 6260     		str	r2, [r4, #4]
 265              		.loc 2 175 0
 266 0024 FFF7FEFF 		bl	one_vireGetValue
 267              	.LVL13:
 268 0028 2081     		strh	r0, [r4, #8]	@ movhi
 269              		.loc 2 176 0
 270 002a 0120     		movs	r0, #1
 271 002c FFF7FEFF 		bl	one_vireGetValue
 272              	.LVL14:
 273 0030 6081     		strh	r0, [r4, #10]	@ movhi
 274              		.loc 2 177 0
 275 0032 0220     		movs	r0, #2
 276 0034 FFF7FEFF 		bl	one_vireGetValue
 277              	.LVL15:
 278 0038 A081     		strh	r0, [r4, #12]	@ movhi
 279              		.loc 2 178 0
 280 003a 0320     		movs	r0, #3
 281 003c FFF7FEFF 		bl	one_vireGetValue
 282              	.LVL16:
 283              		.loc 2 180 0
ARM GAS  C:\Users\RICHRD~1\AppData\Local\Temp\ccq2u7a9.s 			page 6


 284 0040 0021     		movs	r1, #0
 285 0042 0B4A     		ldr	r2, .L37+8
 286              		.loc 2 178 0
 287 0044 E081     		strh	r0, [r4, #14]	@ movhi
 288              		.loc 2 180 0
 289 0046 6423     		movs	r3, #100
 290 0048 0A48     		ldr	r0, .L37+12
 291 004a FFF7FEFF 		bl	canTransmit
 292              	.LVL17:
 293              		.loc 2 187 0
 294 004e 4FF47A70 		mov	r0, #1000
 295 0052 FFF7FEFF 		bl	chThdSleep
 296              	.LVL18:
 297              		.loc 2 168 0
 298 0056 A969     		ldr	r1, [r5, #24]
 299 0058 487F     		ldrb	r0, [r1, #29]	@ zero_extendqisi2
 300 005a 00F00403 		and	r3, r0, #4
 301 005e DAB2     		uxtb	r2, r3
 302 0060 002A     		cmp	r2, #0
 303 0062 DAD0     		beq	.L28
 304              	.LVL19:
 305              	.L36:
 306              		.loc 2 190 0
 307 0064 0020     		movs	r0, #0
 308 0066 70BD     		pop	{r4, r5, r6, pc}
 309              	.L38:
 310              		.align	2
 311              	.L37:
 312 0068 00000000 		.word	rlist
 313 006c 0C000000 		.word	.LC1
 314 0070 00000000 		.word	.LANCHOR4
 315 0074 00000000 		.word	CAND1
 316              		.cfi_endproc
 317              	.LFE120:
 318              		.size	can_tx, .-can_tx
 319 0078 AFF30080 		.section	.text.can_commInit,"ax",%progbits
 319      AFF30080 
 320              		.align	2
 321              		.p2align 4,,15
 322              		.global	can_commInit
 323              		.thumb
 324              		.thumb_func
 325              		.type	can_commInit, %function
 326              	can_commInit:
 327              	.LFB121:
 328              		.loc 2 192 0
 329              		.cfi_startproc
 330              		@ args = 0, pretend = 0, frame = 0
 331              		@ frame_needed = 0, uses_anonymous_args = 0
 332 0000 10B5     		push	{r4, lr}
 333              	.LCFI6:
 334              		.cfi_def_cfa_offset 8
 335              		.cfi_offset 4, -8
 336              		.cfi_offset 14, -4
 337              		.loc 2 193 0
 338 0002 40F20003 		movw	r3, #:lower16:.LANCHOR4
 339 0006 C0F20003 		movt	r3, #:upper16:.LANCHOR4
ARM GAS  C:\Users\RICHRD~1\AppData\Local\Temp\ccq2u7a9.s 			page 7


 340              		.loc 2 195 0
 341 000a 0821     		movs	r1, #8
 342              		.loc 2 193 0
 343 000c 1A78     		ldrb	r2, [r3, #0]	@ zero_extendqisi2
 344              		.loc 2 194 0
 345 000e 42F02000 		orr	r0, r2, #32
 346              		.loc 2 195 0
 347 0012 00F0EF02 		and	r2, r0, #239
 348 0016 61F30302 		bfi	r2, r1, #0, #4
 349              		.loc 2 197 0
 350 001a 40F20000 		movw	r0, #:lower16:CAND1
 351 001e 40F20001 		movw	r1, #:lower16:.LANCHOR5
 352              		.loc 2 192 0
 353 0022 82B0     		sub	sp, sp, #8
 354              	.LCFI7:
 355              		.cfi_def_cfa_offset 16
 356              		.loc 2 195 0
 357 0024 1A70     		strb	r2, [r3, #0]
 358              		.loc 2 197 0
 359 0026 C0F20000 		movt	r0, #:upper16:CAND1
 360 002a C0F20001 		movt	r1, #:upper16:.LANCHOR5
 361 002e FFF7FEFF 		bl	canStart
 362              	.LVL20:
 363              		.loc 2 199 0
 364 0032 0024     		movs	r4, #0
 365 0034 40F20003 		movw	r3, #:lower16:can_tx
 366 0038 40F20000 		movw	r0, #:lower16:.LANCHOR6
 367 003c 4722     		movs	r2, #71
 368 003e 4FF4E871 		mov	r1, #464
 369 0042 C0F20003 		movt	r3, #:upper16:can_tx
 370 0046 0094     		str	r4, [sp, #0]
 371 0048 C0F20000 		movt	r0, #:upper16:.LANCHOR6
 372 004c FFF7FEFF 		bl	chThdCreateStatic
 373              	.LVL21:
 374              		.loc 2 200 0
 375 0050 40F20000 		movw	r0, #:lower16:.LANCHOR7
 376 0054 40F20003 		movw	r3, #:lower16:can_rx
 377 0058 0094     		str	r4, [sp, #0]
 378 005a 4FF4E871 		mov	r1, #464
 379 005e 4022     		movs	r2, #64
 380 0060 C0F20003 		movt	r3, #:upper16:can_rx
 381 0064 C0F20000 		movt	r0, #:upper16:.LANCHOR7
 382 0068 FFF7FEFF 		bl	chThdCreateStatic
 383              	.LVL22:
 384              		.loc 2 201 0
 385 006c 02B0     		add	sp, sp, #8
 386 006e 10BD     		pop	{r4, pc}
 387              		.cfi_endproc
 388              	.LFE121:
 389              		.size	can_commInit, .-can_commInit
 390              		.section	.text.cmd_can_commvalues,"ax",%progbits
 391              		.align	2
 392              		.p2align 4,,15
 393              		.global	cmd_can_commvalues
 394              		.thumb
 395              		.thumb_func
 396              		.type	cmd_can_commvalues, %function
ARM GAS  C:\Users\RICHRD~1\AppData\Local\Temp\ccq2u7a9.s 			page 8


 397              	cmd_can_commvalues:
 398              	.LFB122:
 399              		.loc 2 203 0
 400              		.cfi_startproc
 401              		@ args = 0, pretend = 0, frame = 0
 402              		@ frame_needed = 0, uses_anonymous_args = 0
 403              	.LVL23:
 404 0000 F8B5     		push	{r3, r4, r5, r6, r7, lr}
 405              	.LCFI8:
 406              		.cfi_def_cfa_offset 24
 407              		.cfi_offset 3, -24
 408              		.cfi_offset 4, -20
 409              		.cfi_offset 5, -16
 410              		.cfi_offset 6, -12
 411              		.cfi_offset 7, -8
 412              		.cfi_offset 14, -4
 413              		.loc 2 207 0
 414 0002 3949     		ldr	r1, .L43
 415              	.LVL24:
 416              		.loc 2 212 0
 417 0004 394E     		ldr	r6, .L43+4
 418              		.loc 2 213 0
 419 0006 3A4F     		ldr	r7, .L43+8
 420              		.loc 2 203 0
 421 0008 0446     		mov	r4, r0
 422              		.loc 2 207 0
 423 000a FFF7FEFF 		bl	chprintf
 424              	.LVL25:
 425              		.loc 2 208 0
 426 000e 2046     		mov	r0, r4
 427 0010 3849     		ldr	r1, .L43+12
 428 0012 FFF7FEFF 		bl	chprintf
 429              	.LVL26:
 430              		.loc 2 209 0
 431 0016 5AE0     		b	.L41
 432              	.LVL27:
 433              	.L42:
 434              		.loc 2 210 0
 435 0018 FFF7FEFF 		bl	chprintf
 436              	.LVL28:
 437              		.loc 2 211 0
 438 001c 2046     		mov	r0, r4
 439 001e 3649     		ldr	r1, .L43+16
 440 0020 FFF7FEFF 		bl	chprintf
 441              	.LVL29:
 442              		.loc 2 212 0
 443 0024 B068     		ldr	r0, [r6, #8]
 444 0026 3549     		ldr	r1, .L43+20
 445 0028 20F06042 		bic	r2, r0, #-536870912
 446 002c 2046     		mov	r0, r4
 447 002e FFF7FEFF 		bl	chprintf
 448              	.LVL30:
 449              		.loc 2 213 0
 450 0032 2046     		mov	r0, r4
 451 0034 3249     		ldr	r1, .L43+24
 452 0036 3A88     		ldrh	r2, [r7, #0]
 453 0038 FFF7FEFF 		bl	chprintf
ARM GAS  C:\Users\RICHRD~1\AppData\Local\Temp\ccq2u7a9.s 			page 9


 454              	.LVL31:
 455              		.loc 2 214 0
 456 003c 314B     		ldr	r3, .L43+28
 457 003e 3249     		ldr	r1, .L43+32
 458 0040 1A88     		ldrh	r2, [r3, #0]
 459 0042 2046     		mov	r0, r4
 460 0044 FFF7FEFF 		bl	chprintf
 461              	.LVL32:
 462              		.loc 2 215 0
 463 0048 2046     		mov	r0, r4
 464 004a 3049     		ldr	r1, .L43+36
 465 004c FFF7FEFF 		bl	chprintf
 466              	.LVL33:
 467              		.loc 2 216 0
 468 0050 2046     		mov	r0, r4
 469 0052 2F49     		ldr	r1, .L43+40
 470 0054 B289     		ldrh	r2, [r6, #12]
 471 0056 FFF7FEFF 		bl	chprintf
 472              	.LVL34:
 473              		.loc 2 217 0
 474 005a 2046     		mov	r0, r4
 475 005c 2D49     		ldr	r1, .L43+44
 476 005e F289     		ldrh	r2, [r6, #14]
 477 0060 FFF7FEFF 		bl	chprintf
 478              	.LVL35:
 479              		.loc 2 218 0
 480 0064 2046     		mov	r0, r4
 481 0066 2C49     		ldr	r1, .L43+48
 482 0068 328A     		ldrh	r2, [r6, #16]
 483 006a FFF7FEFF 		bl	chprintf
 484              	.LVL36:
 485              		.loc 2 219 0
 486 006e 728A     		ldrh	r2, [r6, #18]
 487 0070 2A49     		ldr	r1, .L43+52
 488 0072 2046     		mov	r0, r4
 489 0074 FFF7FEFF 		bl	chprintf
 490              	.LVL37:
 491              		.loc 2 220 0
 492 0078 2046     		mov	r0, r4
 493 007a 2449     		ldr	r1, .L43+36
 494 007c FFF7FEFF 		bl	chprintf
 495              	.LVL38:
 496              		.loc 2 221 0
 497 0080 2046     		mov	r0, r4
 498 0082 2749     		ldr	r1, .L43+56
 499 0084 FFF7FEFF 		bl	chprintf
 500              	.LVL39:
 501              		.loc 2 222 0
 502 0088 6A68     		ldr	r2, [r5, #4]
 503 008a 2649     		ldr	r1, .L43+60
 504 008c 22F06042 		bic	r2, r2, #-536870912
 505 0090 2046     		mov	r0, r4
 506 0092 FFF7FEFF 		bl	chprintf
 507              	.LVL40:
 508              		.loc 2 223 0
 509 0096 2046     		mov	r0, r4
 510 0098 1C49     		ldr	r1, .L43+36
ARM GAS  C:\Users\RICHRD~1\AppData\Local\Temp\ccq2u7a9.s 			page 10


 511 009a FFF7FEFF 		bl	chprintf
 512              	.LVL41:
 513              		.loc 2 224 0
 514 009e 2046     		mov	r0, r4
 515 00a0 2149     		ldr	r1, .L43+64
 516 00a2 2A89     		ldrh	r2, [r5, #8]
 517 00a4 FFF7FEFF 		bl	chprintf
 518              	.LVL42:
 519              		.loc 2 225 0
 520 00a8 2046     		mov	r0, r4
 521 00aa 2049     		ldr	r1, .L43+68
 522 00ac 6A89     		ldrh	r2, [r5, #10]
 523 00ae FFF7FEFF 		bl	chprintf
 524              	.LVL43:
 525              		.loc 2 226 0
 526 00b2 2046     		mov	r0, r4
 527 00b4 1E49     		ldr	r1, .L43+72
 528 00b6 AA89     		ldrh	r2, [r5, #12]
 529 00b8 FFF7FEFF 		bl	chprintf
 530              	.LVL44:
 531              		.loc 2 227 0
 532 00bc 2046     		mov	r0, r4
 533 00be 1D49     		ldr	r1, .L43+76
 534 00c0 EA89     		ldrh	r2, [r5, #14]
 535 00c2 FFF7FEFF 		bl	chprintf
 536              	.LVL45:
 537              		.loc 2 229 0
 538 00c6 4FF47A70 		mov	r0, #1000
 539 00ca FFF7FEFF 		bl	chThdSleep
 540              	.LVL46:
 541              	.L41:
 542              		.loc 2 209 0 discriminator 1
 543 00ce 2368     		ldr	r3, [r4, #0]
 544              		.loc 2 222 0 discriminator 1
 545 00d0 194D     		ldr	r5, .L43+80
 546              		.loc 2 209 0 discriminator 1
 547 00d2 5A69     		ldr	r2, [r3, #20]
 548 00d4 0021     		movs	r1, #0
 549 00d6 2046     		mov	r0, r4
 550 00d8 9047     		blx	r2
 551              	.LVL47:
 552              		.loc 2 210 0 discriminator 1
 553 00da 0022     		movs	r2, #0
 554              		.loc 2 209 0 discriminator 1
 555 00dc 0130     		adds	r0, r0, #1
 556              		.loc 2 210 0 discriminator 1
 557 00de 1346     		mov	r3, r2
 558 00e0 1649     		ldr	r1, .L43+84
 559 00e2 2046     		mov	r0, r4
 560              		.loc 2 209 0 discriminator 1
 561 00e4 98D0     		beq	.L42
 562              	.LVL48:
 563              		.loc 2 231 0
 564 00e6 F8BD     		pop	{r3, r4, r5, r6, r7, pc}
 565              	.L44:
 566              		.align	2
 567              	.L43:
ARM GAS  C:\Users\RICHRD~1\AppData\Local\Temp\ccq2u7a9.s 			page 11


 568 00e8 18000000 		.word	.LC2
 569 00ec 00000000 		.word	.LANCHOR0
 570 00f0 00000000 		.word	.LANCHOR1
 571 00f4 1C000000 		.word	.LC3
 572 00f8 30000000 		.word	.LC5
 573 00fc 54000000 		.word	.LC6
 574 0100 64000000 		.word	.LC7
 575 0104 00000000 		.word	.LANCHOR2
 576 0108 70000000 		.word	.LC8
 577 010c 84000000 		.word	.LC9
 578 0110 88000000 		.word	.LC10
 579 0114 9C000000 		.word	.LC11
 580 0118 B0000000 		.word	.LC12
 581 011c C4000000 		.word	.LC13
 582 0120 D8000000 		.word	.LC14
 583 0124 00010000 		.word	.LC15
 584 0128 10010000 		.word	.LC16
 585 012c 24010000 		.word	.LC17
 586 0130 38010000 		.word	.LC18
 587 0134 4C010000 		.word	.LC19
 588 0138 00000000 		.word	.LANCHOR4
 589 013c 24000000 		.word	.LC4
 590              		.cfi_endproc
 591              	.LFE122:
 592              		.size	cmd_can_commvalues, .-cmd_can_commvalues
 593              		.global	can_txstate
 594              		.global	can_rxstate
 595              		.section	.bss.can_rxstate,"aw",%nobits
 596              		.set	.LANCHOR3,. + 0
 597              		.type	can_rxstate, %object
 598              		.size	can_rxstate, 1
 599              	can_rxstate:
 600 0000 00       		.space	1
 601              		.section	.bss.id,"aw",%nobits
 602              		.align	1
 603              		.set	.LANCHOR1,. + 0
 604              		.type	id, %object
 605              		.size	id, 2
 606              	id:
 607 0000 0000     		.space	2
 608              		.section	.bss.txmsg,"aw",%nobits
 609              		.align	2
 610              		.set	.LANCHOR4,. + 0
 611              		.type	txmsg, %object
 612              		.size	txmsg, 16
 613              	txmsg:
 614 0000 00000000 		.space	16
 614      00000000 
 614      00000000 
 614      00000000 
 615              		.section	.bss.can_txstate,"aw",%nobits
 616              		.type	can_txstate, %object
 617              		.size	can_txstate, 1
 618              	can_txstate:
 619 0000 00       		.space	1
 620              		.section	.bss.can_tx_wa,"aw",%nobits
 621              		.align	3
ARM GAS  C:\Users\RICHRD~1\AppData\Local\Temp\ccq2u7a9.s 			page 12


 622              		.set	.LANCHOR6,. + 0
 623              		.type	can_tx_wa, %object
 624              		.size	can_tx_wa, 464
 625              	can_tx_wa:
 626 0000 00000000 		.space	464
 626      00000000 
 626      00000000 
 626      00000000 
 626      00000000 
 627              		.section	.rodata.str1.4,"aMS",%progbits,1
 628              		.align	2
 629              	.LC0:
 630 0000 72656365 		.ascii	"receiver\000"
 630      69766572 
 630      00
 631 0009 000000   		.space	3
 632              	.LC1:
 633 000c 7472616E 		.ascii	"transmitter\000"
 633      736D6974 
 633      74657200 
 634              	.LC2:
 635 0018 1B6300   		.ascii	"\033c\000"
 636 001b 00       		.space	1
 637              	.LC3:
 638 001c 1B5B324A 		.ascii	"\033[2J\000"
 638      00
 639 0021 000000   		.space	3
 640              	.LC4:
 641 0024 1B5B2564 		.ascii	"\033[%d;%dH\000"
 641      3B256448 
 641      00
 642 002d 000000   		.space	3
 643              	.LC5:
 644 0030 2D2D2D2D 		.ascii	"-------- CAN BUS Receive --------\015\012\000"
 644      2D2D2D2D 
 644      2043414E 
 644      20425553 
 644      20526563 
 645              	.LC6:
 646 0054 52582E45 		.ascii	"RX.EID : %x \015\012\000"
 646      4944203A 
 646      20257820 
 646      0D0A00
 647 0063 00       		.space	1
 648              	.LC7:
 649 0064 6964203A 		.ascii	"id : %x \015\012\000"
 649      20257820 
 649      0D0A00
 650 006f 00       		.space	1
 651              	.LC8:
 652 0070 6D657373 		.ascii	"messages : %x \015\012\000"
 652      61676573 
 652      203A2025 
 652      78200D0A 
 652      00
 653 0081 000000   		.space	3
 654              	.LC9:
ARM GAS  C:\Users\RICHRD~1\AppData\Local\Temp\ccq2u7a9.s 			page 13


 655 0084 0D0A00   		.ascii	"\015\012\000"
 656 0087 00       		.space	1
 657              	.LC10:
 658 0088 52582E44 		.ascii	"RX.DATA1 : %d \015\012\000"
 658      41544131 
 658      203A2025 
 658      64200D0A 
 658      00
 659 0099 000000   		.space	3
 660              	.LC11:
 661 009c 52582E44 		.ascii	"RX.DATA2 : %d \015\012\000"
 661      41544132 
 661      203A2025 
 661      64200D0A 
 661      00
 662 00ad 000000   		.space	3
 663              	.LC12:
 664 00b0 52582E44 		.ascii	"RX.DATA3 : %d \015\012\000"
 664      41544133 
 664      203A2025 
 664      64200D0A 
 664      00
 665 00c1 000000   		.space	3
 666              	.LC13:
 667 00c4 52582E44 		.ascii	"RX.DATA4 : %d \015\012\000"
 667      41544134 
 667      203A2025 
 667      64200D0A 
 667      00
 668 00d5 000000   		.space	3
 669              	.LC14:
 670 00d8 2D2D2D2D 		.ascii	"-------- CAN BUS Transmit --------\015\012\000"
 670      2D2D2D2D 
 670      2043414E 
 670      20425553 
 670      20547261 
 671 00fd 000000   		.space	3
 672              	.LC15:
 673 0100 54582E45 		.ascii	"TX.EID : %x \015\012\000"
 673      4944203A 
 673      20257820 
 673      0D0A00
 674 010f 00       		.space	1
 675              	.LC16:
 676 0110 54582E44 		.ascii	"TX.DATA1 : %d \015\012\000"
 676      41544131 
 676      203A2025 
 676      64200D0A 
 676      00
 677 0121 000000   		.space	3
 678              	.LC17:
 679 0124 54582E44 		.ascii	"TX.DATA2 : %d \015\012\000"
 679      41544132 
 679      203A2025 
 679      64200D0A 
 679      00
 680 0135 000000   		.space	3
ARM GAS  C:\Users\RICHRD~1\AppData\Local\Temp\ccq2u7a9.s 			page 14


 681              	.LC18:
 682 0138 54582E44 		.ascii	"TX.DATA3 : %d \015\012\000"
 682      41544133 
 682      203A2025 
 682      64200D0A 
 682      00
 683 0149 000000   		.space	3
 684              	.LC19:
 685 014c 54582E44 		.ascii	"TX.DATA4 : %d \015\012\000"
 685      41544134 
 685      203A2025 
 685      64200D0A 
 685      00
 686 015d 000000   		.section	.bss.messages,"aw",%nobits
 687              		.align	1
 688              		.set	.LANCHOR2,. + 0
 689              		.type	messages, %object
 690              		.size	messages, 2
 691              	messages:
 692 0000 0000     		.space	2
 693              		.section	.bss.rxmsg,"aw",%nobits
 694              		.align	2
 695              		.set	.LANCHOR0,. + 0
 696              		.type	rxmsg, %object
 697              		.size	rxmsg, 20
 698              	rxmsg:
 699 0000 00000000 		.space	20
 699      00000000 
 699      00000000 
 699      00000000 
 699      00000000 
 700              		.section	.bss.can_rx_wa,"aw",%nobits
 701              		.align	3
 702              		.set	.LANCHOR7,. + 0
 703              		.type	can_rx_wa, %object
 704              		.size	can_rx_wa, 464
 705              	can_rx_wa:
 706 0000 00000000 		.space	464
 706      00000000 
 706      00000000 
 706      00000000 
 706      00000000 
 707              		.section	.rodata.cancfg,"a",%progbits
 708              		.align	2
 709              		.set	.LANCHOR5,. + 0
 710              		.type	cancfg, %object
 711              		.size	cancfg, 8
 712              	cancfg:
 713 0000 40000000 		.word	64
 714 0004 06001800 		.word	1572870
 715              		.text
 716              	.Letext0:
 717              		.file 3 "c:\\chibistudio\\tools\\gnu tools arm embedded\\4.7 2014q2\\bin\\../lib/gcc/arm-none-eabi
 718              		.file 4 "c:\\chibistudio\\tools\\gnu tools arm embedded\\4.7 2014q2\\bin\\../lib/gcc/arm-none-eabi
 719              		.file 5 "../../Chibios/os/ports/GCC/ARMCMx/chtypes.h"
 720              		.file 6 "../../Chibios/os/kernel/include/chlists.h"
 721              		.file 7 "../../Chibios/os/kernel/include/chthreads.h"
ARM GAS  C:\Users\RICHRD~1\AppData\Local\Temp\ccq2u7a9.s 			page 15


 722              		.file 8 "../../Chibios/os/ports/GCC/ARMCMx/chcore_v7m.h"
 723              		.file 9 "../../Chibios/os/kernel/include/chschd.h"
 724              		.file 10 "../../Chibios/os/kernel/include/chsem.h"
 725              		.file 11 "../../Chibios/os/kernel/include/chmtx.h"
 726              		.file 12 "../../Chibios/os/kernel/include/chevents.h"
 727              		.file 13 "../../Chibios/os/kernel/include/chstreams.h"
 728              		.file 14 "../../Chibios/os/hal/platforms/STM32F4xx/stm32f4xx.h"
 729              		.file 15 "../../Chibios/os/hal/include/io_channel.h"
 730              		.file 16 "../../Chibios/os/hal/include/can.h"
 731              		.file 17 "../../Chibios/os/hal/platforms/STM32/can_lld.h"
 732              		.file 18 "c:\\chibistudio\\tools\\gnu tools arm embedded\\4.7 2014q2\\bin\\../lib/gcc/arm-none-eab
 733              		.file 19 "<built-in>"
 734              		.file 20 "../../Chibios/os/ports/common/ARMCMx/CMSIS/include/core_cm4.h"
 735              		.file 21 "include/one_vire_comm.h"
 736              		.section	.debug_info,"",%progbits
 737              	.Ldebug_info0:
 738 0000 17150000 		.4byte	0x1517
 739 0004 0200     		.2byte	0x2
 740 0006 00000000 		.4byte	.Ldebug_abbrev0
 741 000a 04       		.byte	0x4
 742 000b 01       		.uleb128 0x1
 743 000c C4030000 		.4byte	.LASF188
 744 0010 01       		.byte	0x1
 745 0011 69060000 		.4byte	.LASF189
 746 0015 76070000 		.4byte	.LASF190
 747 0019 00000000 		.4byte	.Ldebug_ranges0+0
 748 001d 00000000 		.4byte	0
 749 0021 00000000 		.4byte	0
 750 0025 00000000 		.4byte	.Ldebug_line0
 751 0029 02       		.uleb128 0x2
 752 002a 21000000 		.4byte	.LASF11
 753 002e 03       		.byte	0x3
 754 002f D5       		.byte	0xd5
 755 0030 34000000 		.4byte	0x34
 756 0034 03       		.uleb128 0x3
 757 0035 04       		.byte	0x4
 758 0036 07       		.byte	0x7
 759 0037 1B020000 		.4byte	.LASF0
 760 003b 03       		.uleb128 0x3
 761 003c 01       		.byte	0x1
 762 003d 06       		.byte	0x6
 763 003e E6000000 		.4byte	.LASF1
 764 0042 03       		.uleb128 0x3
 765 0043 01       		.byte	0x1
 766 0044 08       		.byte	0x8
 767 0045 EE040000 		.4byte	.LASF2
 768 0049 03       		.uleb128 0x3
 769 004a 02       		.byte	0x2
 770 004b 05       		.byte	0x5
 771 004c 3D050000 		.4byte	.LASF3
 772 0050 03       		.uleb128 0x3
 773 0051 02       		.byte	0x2
 774 0052 07       		.byte	0x7
 775 0053 72020000 		.4byte	.LASF4
 776 0057 04       		.uleb128 0x4
 777 0058 04       		.byte	0x4
 778 0059 05       		.byte	0x5
ARM GAS  C:\Users\RICHRD~1\AppData\Local\Temp\ccq2u7a9.s 			page 16


 779 005a 696E7400 		.ascii	"int\000"
 780 005e 03       		.uleb128 0x3
 781 005f 08       		.byte	0x8
 782 0060 05       		.byte	0x5
 783 0061 D8000000 		.4byte	.LASF5
 784 0065 03       		.uleb128 0x3
 785 0066 08       		.byte	0x8
 786 0067 07       		.byte	0x7
 787 0068 77000000 		.4byte	.LASF6
 788 006c 03       		.uleb128 0x3
 789 006d 04       		.byte	0x4
 790 006e 05       		.byte	0x5
 791 006f 30010000 		.4byte	.LASF7
 792 0073 03       		.uleb128 0x3
 793 0074 04       		.byte	0x4
 794 0075 07       		.byte	0x7
 795 0076 6C030000 		.4byte	.LASF8
 796 007a 05       		.uleb128 0x5
 797 007b 04       		.byte	0x4
 798 007c 03       		.uleb128 0x3
 799 007d 04       		.byte	0x4
 800 007e 07       		.byte	0x7
 801 007f E9050000 		.4byte	.LASF9
 802 0083 06       		.uleb128 0x6
 803 0084 04       		.byte	0x4
 804 0085 89000000 		.4byte	0x89
 805 0089 03       		.uleb128 0x3
 806 008a 01       		.byte	0x1
 807 008b 08       		.byte	0x8
 808 008c 00060000 		.4byte	.LASF10
 809 0090 06       		.uleb128 0x6
 810 0091 04       		.byte	0x4
 811 0092 96000000 		.4byte	0x96
 812 0096 07       		.uleb128 0x7
 813 0097 89000000 		.4byte	0x89
 814 009b 02       		.uleb128 0x2
 815 009c E2060000 		.4byte	.LASF12
 816 00a0 04       		.byte	0x4
 817 00a1 2A       		.byte	0x2a
 818 00a2 42000000 		.4byte	0x42
 819 00a6 02       		.uleb128 0x2
 820 00a7 7E010000 		.4byte	.LASF13
 821 00ab 04       		.byte	0x4
 822 00ac 36       		.byte	0x36
 823 00ad 50000000 		.4byte	0x50
 824 00b1 02       		.uleb128 0x2
 825 00b2 E6040000 		.4byte	.LASF14
 826 00b6 04       		.byte	0x4
 827 00b7 4F       		.byte	0x4f
 828 00b8 6C000000 		.4byte	0x6c
 829 00bc 02       		.uleb128 0x2
 830 00bd CA050000 		.4byte	.LASF15
 831 00c1 04       		.byte	0x4
 832 00c2 50       		.byte	0x50
 833 00c3 7C000000 		.4byte	0x7c
 834 00c7 02       		.uleb128 0x2
 835 00c8 3A000000 		.4byte	.LASF16
ARM GAS  C:\Users\RICHRD~1\AppData\Local\Temp\ccq2u7a9.s 			page 17


 836 00cc 04       		.byte	0x4
 837 00cd 78       		.byte	0x78
 838 00ce 65000000 		.4byte	0x65
 839 00d2 03       		.uleb128 0x3
 840 00d3 01       		.byte	0x1
 841 00d4 02       		.byte	0x2
 842 00d5 E0040000 		.4byte	.LASF17
 843 00d9 02       		.uleb128 0x2
 844 00da DC020000 		.4byte	.LASF18
 845 00de 05       		.byte	0x5
 846 00df 2C       		.byte	0x2c
 847 00e0 9B000000 		.4byte	0x9b
 848 00e4 02       		.uleb128 0x2
 849 00e5 39010000 		.4byte	.LASF19
 850 00e9 05       		.byte	0x5
 851 00ea 2D       		.byte	0x2d
 852 00eb 9B000000 		.4byte	0x9b
 853 00ef 02       		.uleb128 0x2
 854 00f0 8C040000 		.4byte	.LASF20
 855 00f4 05       		.byte	0x5
 856 00f5 2E       		.byte	0x2e
 857 00f6 9B000000 		.4byte	0x9b
 858 00fa 02       		.uleb128 0x2
 859 00fb 1B010000 		.4byte	.LASF21
 860 00ff 05       		.byte	0x5
 861 0100 2F       		.byte	0x2f
 862 0101 9B000000 		.4byte	0x9b
 863 0105 02       		.uleb128 0x2
 864 0106 CD040000 		.4byte	.LASF22
 865 010a 05       		.byte	0x5
 866 010b 30       		.byte	0x30
 867 010c BC000000 		.4byte	0xbc
 868 0110 02       		.uleb128 0x2
 869 0111 B7020000 		.4byte	.LASF23
 870 0115 05       		.byte	0x5
 871 0116 31       		.byte	0x31
 872 0117 B1000000 		.4byte	0xb1
 873 011b 02       		.uleb128 0x2
 874 011c 00030000 		.4byte	.LASF24
 875 0120 05       		.byte	0x5
 876 0121 33       		.byte	0x33
 877 0122 BC000000 		.4byte	0xbc
 878 0126 02       		.uleb128 0x2
 879 0127 82060000 		.4byte	.LASF25
 880 012b 05       		.byte	0x5
 881 012c 34       		.byte	0x34
 882 012d BC000000 		.4byte	0xbc
 883 0131 02       		.uleb128 0x2
 884 0132 28060000 		.4byte	.LASF26
 885 0136 05       		.byte	0x5
 886 0137 35       		.byte	0x35
 887 0138 BC000000 		.4byte	0xbc
 888 013c 02       		.uleb128 0x2
 889 013d 15020000 		.4byte	.LASF27
 890 0141 05       		.byte	0x5
 891 0142 36       		.byte	0x36
 892 0143 B1000000 		.4byte	0xb1
ARM GAS  C:\Users\RICHRD~1\AppData\Local\Temp\ccq2u7a9.s 			page 18


 893 0147 02       		.uleb128 0x2
 894 0148 E2010000 		.4byte	.LASF28
 895 014c 06       		.byte	0x6
 896 014d 2A       		.byte	0x2a
 897 014e 52010000 		.4byte	0x152
 898 0152 08       		.uleb128 0x8
 899 0153 E2010000 		.4byte	.LASF28
 900 0157 48       		.byte	0x48
 901 0158 07       		.byte	0x7
 902 0159 5E       		.byte	0x5e
 903 015a 77020000 		.4byte	0x277
 904 015e 09       		.uleb128 0x9
 905 015f 67050000 		.4byte	.LASF29
 906 0163 07       		.byte	0x7
 907 0164 5F       		.byte	0x5f
 908 0165 9C020000 		.4byte	0x29c
 909 0169 02       		.byte	0x2
 910 016a 23       		.byte	0x23
 911 016b 00       		.uleb128 0
 912 016c 09       		.uleb128 0x9
 913 016d C6040000 		.4byte	.LASF30
 914 0171 07       		.byte	0x7
 915 0172 61       		.byte	0x61
 916 0173 9C020000 		.4byte	0x29c
 917 0177 02       		.byte	0x2
 918 0178 23       		.byte	0x23
 919 0179 04       		.uleb128 0x4
 920 017a 09       		.uleb128 0x9
 921 017b 0E070000 		.4byte	.LASF31
 922 017f 07       		.byte	0x7
 923 0180 63       		.byte	0x63
 924 0181 05010000 		.4byte	0x105
 925 0185 02       		.byte	0x2
 926 0186 23       		.byte	0x23
 927 0187 08       		.uleb128 0x8
 928 0188 09       		.uleb128 0x9
 929 0189 A4070000 		.4byte	.LASF32
 930 018d 07       		.byte	0x7
 931 018e 64       		.byte	0x64
 932 018f 73030000 		.4byte	0x373
 933 0193 02       		.byte	0x2
 934 0194 23       		.byte	0x23
 935 0195 0C       		.uleb128 0xc
 936 0196 09       		.uleb128 0x9
 937 0197 9C010000 		.4byte	.LASF33
 938 019b 07       		.byte	0x7
 939 019c 66       		.byte	0x66
 940 019d 9C020000 		.4byte	0x29c
 941 01a1 02       		.byte	0x2
 942 01a2 23       		.byte	0x23
 943 01a3 10       		.uleb128 0x10
 944 01a4 09       		.uleb128 0x9
 945 01a5 0D040000 		.4byte	.LASF34
 946 01a9 07       		.byte	0x7
 947 01aa 67       		.byte	0x67
 948 01ab 9C020000 		.4byte	0x29c
 949 01af 02       		.byte	0x2
ARM GAS  C:\Users\RICHRD~1\AppData\Local\Temp\ccq2u7a9.s 			page 19


 950 01b0 23       		.byte	0x23
 951 01b1 14       		.uleb128 0x14
 952 01b2 09       		.uleb128 0x9
 953 01b3 A5060000 		.4byte	.LASF35
 954 01b7 07       		.byte	0x7
 955 01b8 6E       		.byte	0x6e
 956 01b9 90000000 		.4byte	0x90
 957 01bd 02       		.byte	0x2
 958 01be 23       		.byte	0x23
 959 01bf 18       		.uleb128 0x18
 960 01c0 09       		.uleb128 0x9
 961 01c1 47050000 		.4byte	.LASF36
 962 01c5 07       		.byte	0x7
 963 01c6 79       		.byte	0x79
 964 01c7 E4000000 		.4byte	0xe4
 965 01cb 02       		.byte	0x2
 966 01cc 23       		.byte	0x23
 967 01cd 1C       		.uleb128 0x1c
 968 01ce 09       		.uleb128 0x9
 969 01cf 86050000 		.4byte	.LASF37
 970 01d3 07       		.byte	0x7
 971 01d4 7D       		.byte	0x7d
 972 01d5 D9000000 		.4byte	0xd9
 973 01d9 02       		.byte	0x2
 974 01da 23       		.byte	0x23
 975 01db 1D       		.uleb128 0x1d
 976 01dc 09       		.uleb128 0x9
 977 01dd 62010000 		.4byte	.LASF38
 978 01e1 07       		.byte	0x7
 979 01e2 82       		.byte	0x82
 980 01e3 EF000000 		.4byte	0xef
 981 01e7 02       		.byte	0x2
 982 01e8 23       		.byte	0x23
 983 01e9 1E       		.uleb128 0x1e
 984 01ea 09       		.uleb128 0x9
 985 01eb 4F050000 		.4byte	.LASF39
 986 01ef 07       		.byte	0x7
 987 01f0 88       		.byte	0x88
 988 01f1 FA000000 		.4byte	0xfa
 989 01f5 02       		.byte	0x2
 990 01f6 23       		.byte	0x23
 991 01f7 1F       		.uleb128 0x1f
 992 01f8 09       		.uleb128 0x9
 993 01f9 87010000 		.4byte	.LASF40
 994 01fd 07       		.byte	0x7
 995 01fe 8F       		.byte	0x8f
 996 01ff 9B030000 		.4byte	0x39b
 997 0203 02       		.byte	0x2
 998 0204 23       		.byte	0x23
 999 0205 20       		.uleb128 0x20
 1000 0206 0A       		.uleb128 0xa
 1001 0207 705F7500 		.ascii	"p_u\000"
 1002 020b 07       		.byte	0x7
 1003 020c B4       		.byte	0xb4
 1004 020d 00050000 		.4byte	0x500
 1005 0211 02       		.byte	0x2
 1006 0212 23       		.byte	0x23
ARM GAS  C:\Users\RICHRD~1\AppData\Local\Temp\ccq2u7a9.s 			page 20


 1007 0213 24       		.uleb128 0x24
 1008 0214 09       		.uleb128 0x9
 1009 0215 AA070000 		.4byte	.LASF41
 1010 0219 07       		.byte	0x7
 1011 021a B9       		.byte	0xb9
 1012 021b C4020000 		.4byte	0x2c4
 1013 021f 02       		.byte	0x2
 1014 0220 23       		.byte	0x23
 1015 0221 28       		.uleb128 0x28
 1016 0222 09       		.uleb128 0x9
 1017 0223 45020000 		.4byte	.LASF42
 1018 0227 07       		.byte	0x7
 1019 0228 BF       		.byte	0xbf
 1020 0229 A2020000 		.4byte	0x2a2
 1021 022d 02       		.byte	0x2
 1022 022e 23       		.byte	0x23
 1023 022f 2C       		.uleb128 0x2c
 1024 0230 09       		.uleb128 0x9
 1025 0231 16060000 		.4byte	.LASF43
 1026 0235 07       		.byte	0x7
 1027 0236 C3       		.byte	0xc3
 1028 0237 10010000 		.4byte	0x110
 1029 023b 02       		.byte	0x2
 1030 023c 23       		.byte	0x23
 1031 023d 34       		.uleb128 0x34
 1032 023e 09       		.uleb128 0x9
 1033 023f B5050000 		.4byte	.LASF44
 1034 0243 07       		.byte	0x7
 1035 0244 C9       		.byte	0xc9
 1036 0245 1B010000 		.4byte	0x11b
 1037 0249 02       		.byte	0x2
 1038 024a 23       		.byte	0x23
 1039 024b 38       		.uleb128 0x38
 1040 024c 09       		.uleb128 0x9
 1041 024d 33050000 		.4byte	.LASF45
 1042 0251 07       		.byte	0x7
 1043 0252 D0       		.byte	0xd0
 1044 0253 35050000 		.4byte	0x535
 1045 0257 02       		.byte	0x2
 1046 0258 23       		.byte	0x23
 1047 0259 3C       		.uleb128 0x3c
 1048 025a 09       		.uleb128 0x9
 1049 025b 32060000 		.4byte	.LASF46
 1050 025f 07       		.byte	0x7
 1051 0260 D4       		.byte	0xd4
 1052 0261 05010000 		.4byte	0x105
 1053 0265 02       		.byte	0x2
 1054 0266 23       		.byte	0x23
 1055 0267 40       		.uleb128 0x40
 1056 0268 09       		.uleb128 0x9
 1057 0269 0D010000 		.4byte	.LASF47
 1058 026d 07       		.byte	0x7
 1059 026e DA       		.byte	0xda
 1060 026f 7A000000 		.4byte	0x7a
 1061 0273 02       		.byte	0x2
 1062 0274 23       		.byte	0x23
 1063 0275 44       		.uleb128 0x44
ARM GAS  C:\Users\RICHRD~1\AppData\Local\Temp\ccq2u7a9.s 			page 21


 1064 0276 00       		.byte	0
 1065 0277 0B       		.uleb128 0xb
 1066 0278 08       		.byte	0x8
 1067 0279 06       		.byte	0x6
 1068 027a 61       		.byte	0x61
 1069 027b 9C020000 		.4byte	0x29c
 1070 027f 09       		.uleb128 0x9
 1071 0280 67050000 		.4byte	.LASF29
 1072 0284 06       		.byte	0x6
 1073 0285 62       		.byte	0x62
 1074 0286 9C020000 		.4byte	0x29c
 1075 028a 02       		.byte	0x2
 1076 028b 23       		.byte	0x23
 1077 028c 00       		.uleb128 0
 1078 028d 09       		.uleb128 0x9
 1079 028e C6040000 		.4byte	.LASF30
 1080 0292 06       		.byte	0x6
 1081 0293 64       		.byte	0x64
 1082 0294 9C020000 		.4byte	0x29c
 1083 0298 02       		.byte	0x2
 1084 0299 23       		.byte	0x23
 1085 029a 04       		.uleb128 0x4
 1086 029b 00       		.byte	0
 1087 029c 06       		.uleb128 0x6
 1088 029d 04       		.byte	0x4
 1089 029e 47010000 		.4byte	0x147
 1090 02a2 02       		.uleb128 0x2
 1091 02a3 1B040000 		.4byte	.LASF48
 1092 02a7 06       		.byte	0x6
 1093 02a8 66       		.byte	0x66
 1094 02a9 77020000 		.4byte	0x277
 1095 02ad 0B       		.uleb128 0xb
 1096 02ae 04       		.byte	0x4
 1097 02af 06       		.byte	0x6
 1098 02b0 6B       		.byte	0x6b
 1099 02b1 C4020000 		.4byte	0x2c4
 1100 02b5 09       		.uleb128 0x9
 1101 02b6 67050000 		.4byte	.LASF29
 1102 02ba 06       		.byte	0x6
 1103 02bb 6D       		.byte	0x6d
 1104 02bc 9C020000 		.4byte	0x29c
 1105 02c0 02       		.byte	0x2
 1106 02c1 23       		.byte	0x23
 1107 02c2 00       		.uleb128 0
 1108 02c3 00       		.byte	0
 1109 02c4 02       		.uleb128 0x2
 1110 02c5 E4020000 		.4byte	.LASF49
 1111 02c9 06       		.byte	0x6
 1112 02ca 70       		.byte	0x70
 1113 02cb AD020000 		.4byte	0x2ad
 1114 02cf 02       		.uleb128 0x2
 1115 02d0 D4010000 		.4byte	.LASF50
 1116 02d4 08       		.byte	0x8
 1117 02d5 E5       		.byte	0xe5
 1118 02d6 7A000000 		.4byte	0x7a
 1119 02da 02       		.uleb128 0x2
 1120 02db 23030000 		.4byte	.LASF51
ARM GAS  C:\Users\RICHRD~1\AppData\Local\Temp\ccq2u7a9.s 			page 22


 1121 02df 08       		.byte	0x8
 1122 02e0 EB       		.byte	0xeb
 1123 02e1 C7000000 		.4byte	0xc7
 1124 02e5 0C       		.uleb128 0xc
 1125 02e6 62060000 		.4byte	.LASF52
 1126 02ea 24       		.byte	0x24
 1127 02eb 08       		.byte	0x8
 1128 02ec 0C01     		.2byte	0x10c
 1129 02ee 73030000 		.4byte	0x373
 1130 02f2 0D       		.uleb128 0xd
 1131 02f3 723400   		.ascii	"r4\000"
 1132 02f6 08       		.byte	0x8
 1133 02f7 1F01     		.2byte	0x11f
 1134 02f9 CF020000 		.4byte	0x2cf
 1135 02fd 02       		.byte	0x2
 1136 02fe 23       		.byte	0x23
 1137 02ff 00       		.uleb128 0
 1138 0300 0D       		.uleb128 0xd
 1139 0301 723500   		.ascii	"r5\000"
 1140 0304 08       		.byte	0x8
 1141 0305 2001     		.2byte	0x120
 1142 0307 CF020000 		.4byte	0x2cf
 1143 030b 02       		.byte	0x2
 1144 030c 23       		.byte	0x23
 1145 030d 04       		.uleb128 0x4
 1146 030e 0D       		.uleb128 0xd
 1147 030f 723600   		.ascii	"r6\000"
 1148 0312 08       		.byte	0x8
 1149 0313 2101     		.2byte	0x121
 1150 0315 CF020000 		.4byte	0x2cf
 1151 0319 02       		.byte	0x2
 1152 031a 23       		.byte	0x23
 1153 031b 08       		.uleb128 0x8
 1154 031c 0D       		.uleb128 0xd
 1155 031d 723700   		.ascii	"r7\000"
 1156 0320 08       		.byte	0x8
 1157 0321 2201     		.2byte	0x122
 1158 0323 CF020000 		.4byte	0x2cf
 1159 0327 02       		.byte	0x2
 1160 0328 23       		.byte	0x23
 1161 0329 0C       		.uleb128 0xc
 1162 032a 0D       		.uleb128 0xd
 1163 032b 723800   		.ascii	"r8\000"
 1164 032e 08       		.byte	0x8
 1165 032f 2301     		.2byte	0x123
 1166 0331 CF020000 		.4byte	0x2cf
 1167 0335 02       		.byte	0x2
 1168 0336 23       		.byte	0x23
 1169 0337 10       		.uleb128 0x10
 1170 0338 0D       		.uleb128 0xd
 1171 0339 723900   		.ascii	"r9\000"
 1172 033c 08       		.byte	0x8
 1173 033d 2401     		.2byte	0x124
 1174 033f CF020000 		.4byte	0x2cf
 1175 0343 02       		.byte	0x2
 1176 0344 23       		.byte	0x23
 1177 0345 14       		.uleb128 0x14
ARM GAS  C:\Users\RICHRD~1\AppData\Local\Temp\ccq2u7a9.s 			page 23


 1178 0346 0D       		.uleb128 0xd
 1179 0347 72313000 		.ascii	"r10\000"
 1180 034b 08       		.byte	0x8
 1181 034c 2501     		.2byte	0x125
 1182 034e CF020000 		.4byte	0x2cf
 1183 0352 02       		.byte	0x2
 1184 0353 23       		.byte	0x23
 1185 0354 18       		.uleb128 0x18
 1186 0355 0D       		.uleb128 0xd
 1187 0356 72313100 		.ascii	"r11\000"
 1188 035a 08       		.byte	0x8
 1189 035b 2601     		.2byte	0x126
 1190 035d CF020000 		.4byte	0x2cf
 1191 0361 02       		.byte	0x2
 1192 0362 23       		.byte	0x23
 1193 0363 1C       		.uleb128 0x1c
 1194 0364 0D       		.uleb128 0xd
 1195 0365 6C7200   		.ascii	"lr\000"
 1196 0368 08       		.byte	0x8
 1197 0369 2701     		.2byte	0x127
 1198 036b CF020000 		.4byte	0x2cf
 1199 036f 02       		.byte	0x2
 1200 0370 23       		.byte	0x23
 1201 0371 20       		.uleb128 0x20
 1202 0372 00       		.byte	0
 1203 0373 0C       		.uleb128 0xc
 1204 0374 55060000 		.4byte	.LASF53
 1205 0378 04       		.byte	0x4
 1206 0379 08       		.byte	0x8
 1207 037a 3101     		.2byte	0x131
 1208 037c 90030000 		.4byte	0x390
 1209 0380 0D       		.uleb128 0xd
 1210 0381 72313300 		.ascii	"r13\000"
 1211 0385 08       		.byte	0x8
 1212 0386 3201     		.2byte	0x132
 1213 0388 90030000 		.4byte	0x390
 1214 038c 02       		.byte	0x2
 1215 038d 23       		.byte	0x23
 1216 038e 00       		.uleb128 0
 1217 038f 00       		.byte	0
 1218 0390 06       		.uleb128 0x6
 1219 0391 04       		.byte	0x4
 1220 0392 E5020000 		.4byte	0x2e5
 1221 0396 0E       		.uleb128 0xe
 1222 0397 BC000000 		.4byte	0xbc
 1223 039b 0E       		.uleb128 0xe
 1224 039c 31010000 		.4byte	0x131
 1225 03a0 0B       		.uleb128 0xb
 1226 03a1 1C       		.byte	0x1c
 1227 03a2 09       		.byte	0x9
 1228 03a3 5E       		.byte	0x5e
 1229 03a4 FD030000 		.4byte	0x3fd
 1230 03a8 09       		.uleb128 0x9
 1231 03a9 D3050000 		.4byte	.LASF54
 1232 03ad 09       		.byte	0x9
 1233 03ae 5F       		.byte	0x5f
 1234 03af A2020000 		.4byte	0x2a2
ARM GAS  C:\Users\RICHRD~1\AppData\Local\Temp\ccq2u7a9.s 			page 24


 1235 03b3 02       		.byte	0x2
 1236 03b4 23       		.byte	0x23
 1237 03b5 00       		.uleb128 0
 1238 03b6 09       		.uleb128 0x9
 1239 03b7 59050000 		.4byte	.LASF55
 1240 03bb 09       		.byte	0x9
 1241 03bc 60       		.byte	0x60
 1242 03bd 05010000 		.4byte	0x105
 1243 03c1 02       		.byte	0x2
 1244 03c2 23       		.byte	0x23
 1245 03c3 08       		.uleb128 0x8
 1246 03c4 09       		.uleb128 0x9
 1247 03c5 15040000 		.4byte	.LASF56
 1248 03c9 09       		.byte	0x9
 1249 03ca 62       		.byte	0x62
 1250 03cb 73030000 		.4byte	0x373
 1251 03cf 02       		.byte	0x2
 1252 03d0 23       		.byte	0x23
 1253 03d1 0C       		.uleb128 0xc
 1254 03d2 09       		.uleb128 0x9
 1255 03d3 CC010000 		.4byte	.LASF57
 1256 03d7 09       		.byte	0x9
 1257 03d8 65       		.byte	0x65
 1258 03d9 9C020000 		.4byte	0x29c
 1259 03dd 02       		.byte	0x2
 1260 03de 23       		.byte	0x23
 1261 03df 10       		.uleb128 0x10
 1262 03e0 09       		.uleb128 0x9
 1263 03e1 37040000 		.4byte	.LASF58
 1264 03e5 09       		.byte	0x9
 1265 03e6 66       		.byte	0x66
 1266 03e7 9C020000 		.4byte	0x29c
 1267 03eb 02       		.byte	0x2
 1268 03ec 23       		.byte	0x23
 1269 03ed 14       		.uleb128 0x14
 1270 03ee 09       		.uleb128 0x9
 1271 03ef 2D040000 		.4byte	.LASF59
 1272 03f3 09       		.byte	0x9
 1273 03f4 69       		.byte	0x69
 1274 03f5 9C020000 		.4byte	0x29c
 1275 03f9 02       		.byte	0x2
 1276 03fa 23       		.byte	0x23
 1277 03fb 18       		.uleb128 0x18
 1278 03fc 00       		.byte	0
 1279 03fd 02       		.uleb128 0x2
 1280 03fe B4060000 		.4byte	.LASF60
 1281 0402 09       		.byte	0x9
 1282 0403 6B       		.byte	0x6b
 1283 0404 A0030000 		.4byte	0x3a0
 1284 0408 08       		.uleb128 0x8
 1285 0409 78060000 		.4byte	.LASF61
 1286 040d 0C       		.byte	0xc
 1287 040e 0A       		.byte	0xa
 1288 040f 2C       		.byte	0x2c
 1289 0410 31040000 		.4byte	0x431
 1290 0414 09       		.uleb128 0x9
 1291 0415 A4010000 		.4byte	.LASF62
ARM GAS  C:\Users\RICHRD~1\AppData\Local\Temp\ccq2u7a9.s 			page 25


 1292 0419 0A       		.byte	0xa
 1293 041a 2D       		.byte	0x2d
 1294 041b A2020000 		.4byte	0x2a2
 1295 041f 02       		.byte	0x2
 1296 0420 23       		.byte	0x23
 1297 0421 00       		.uleb128 0
 1298 0422 09       		.uleb128 0x9
 1299 0423 6C020000 		.4byte	.LASF63
 1300 0427 0A       		.byte	0xa
 1301 0428 2F       		.byte	0x2f
 1302 0429 3C010000 		.4byte	0x13c
 1303 042d 02       		.byte	0x2
 1304 042e 23       		.byte	0x23
 1305 042f 08       		.uleb128 0x8
 1306 0430 00       		.byte	0
 1307 0431 02       		.uleb128 0x2
 1308 0432 78060000 		.4byte	.LASF61
 1309 0436 0A       		.byte	0xa
 1310 0437 30       		.byte	0x30
 1311 0438 08040000 		.4byte	0x408
 1312 043c 08       		.uleb128 0x8
 1313 043d 0C030000 		.4byte	.LASF64
 1314 0441 10       		.byte	0x10
 1315 0442 0B       		.byte	0xb
 1316 0443 2C       		.byte	0x2c
 1317 0444 73040000 		.4byte	0x473
 1318 0448 09       		.uleb128 0x9
 1319 0449 FC040000 		.4byte	.LASF65
 1320 044d 0B       		.byte	0xb
 1321 044e 2D       		.byte	0x2d
 1322 044f A2020000 		.4byte	0x2a2
 1323 0453 02       		.byte	0x2
 1324 0454 23       		.byte	0x23
 1325 0455 00       		.uleb128 0
 1326 0456 09       		.uleb128 0x9
 1327 0457 6E070000 		.4byte	.LASF66
 1328 045b 0B       		.byte	0xb
 1329 045c 2F       		.byte	0x2f
 1330 045d 9C020000 		.4byte	0x29c
 1331 0461 02       		.byte	0x2
 1332 0462 23       		.byte	0x23
 1333 0463 08       		.uleb128 0x8
 1334 0464 09       		.uleb128 0x9
 1335 0465 21060000 		.4byte	.LASF67
 1336 0469 0B       		.byte	0xb
 1337 046a 31       		.byte	0x31
 1338 046b 73040000 		.4byte	0x473
 1339 046f 02       		.byte	0x2
 1340 0470 23       		.byte	0x23
 1341 0471 0C       		.uleb128 0xc
 1342 0472 00       		.byte	0
 1343 0473 06       		.uleb128 0x6
 1344 0474 04       		.byte	0x4
 1345 0475 3C040000 		.4byte	0x43c
 1346 0479 02       		.uleb128 0x2
 1347 047a 0C030000 		.4byte	.LASF64
 1348 047e 0B       		.byte	0xb
ARM GAS  C:\Users\RICHRD~1\AppData\Local\Temp\ccq2u7a9.s 			page 26


 1349 047f 33       		.byte	0x33
 1350 0480 3C040000 		.4byte	0x43c
 1351 0484 02       		.uleb128 0x2
 1352 0485 15070000 		.4byte	.LASF68
 1353 0489 0C       		.byte	0xc
 1354 048a 2C       		.byte	0x2c
 1355 048b 8F040000 		.4byte	0x48f
 1356 048f 08       		.uleb128 0x8
 1357 0490 15070000 		.4byte	.LASF68
 1358 0494 10       		.byte	0x10
 1359 0495 0C       		.byte	0xc
 1360 0496 31       		.byte	0x31
 1361 0497 D4040000 		.4byte	0x4d4
 1362 049b 09       		.uleb128 0x9
 1363 049c BD020000 		.4byte	.LASF69
 1364 04a0 0C       		.byte	0xc
 1365 04a1 32       		.byte	0x32
 1366 04a2 D4040000 		.4byte	0x4d4
 1367 04a6 02       		.byte	0x2
 1368 04a7 23       		.byte	0x23
 1369 04a8 00       		.uleb128 0
 1370 04a9 09       		.uleb128 0x9
 1371 04aa 11050000 		.4byte	.LASF70
 1372 04ae 0C       		.byte	0xc
 1373 04af 35       		.byte	0x35
 1374 04b0 9C020000 		.4byte	0x29c
 1375 04b4 02       		.byte	0x2
 1376 04b5 23       		.byte	0x23
 1377 04b6 04       		.uleb128 0x4
 1378 04b7 09       		.uleb128 0x9
 1379 04b8 3F040000 		.4byte	.LASF71
 1380 04bc 0C       		.byte	0xc
 1381 04bd 37       		.byte	0x37
 1382 04be 1B010000 		.4byte	0x11b
 1383 04c2 02       		.byte	0x2
 1384 04c3 23       		.byte	0x23
 1385 04c4 08       		.uleb128 0x8
 1386 04c5 09       		.uleb128 0x9
 1387 04c6 2A050000 		.4byte	.LASF72
 1388 04ca 0C       		.byte	0xc
 1389 04cb 3A       		.byte	0x3a
 1390 04cc 26010000 		.4byte	0x126
 1391 04d0 02       		.byte	0x2
 1392 04d1 23       		.byte	0x23
 1393 04d2 0C       		.uleb128 0xc
 1394 04d3 00       		.byte	0
 1395 04d4 06       		.uleb128 0x6
 1396 04d5 04       		.byte	0x4
 1397 04d6 84040000 		.4byte	0x484
 1398 04da 08       		.uleb128 0x8
 1399 04db F4010000 		.4byte	.LASF73
 1400 04df 04       		.byte	0x4
 1401 04e0 0C       		.byte	0xc
 1402 04e1 41       		.byte	0x41
 1403 04e2 F5040000 		.4byte	0x4f5
 1404 04e6 09       		.uleb128 0x9
 1405 04e7 AC060000 		.4byte	.LASF74
ARM GAS  C:\Users\RICHRD~1\AppData\Local\Temp\ccq2u7a9.s 			page 27


 1406 04eb 0C       		.byte	0xc
 1407 04ec 42       		.byte	0x42
 1408 04ed D4040000 		.4byte	0x4d4
 1409 04f1 02       		.byte	0x2
 1410 04f2 23       		.byte	0x23
 1411 04f3 00       		.uleb128 0
 1412 04f4 00       		.byte	0
 1413 04f5 02       		.uleb128 0x2
 1414 04f6 F4010000 		.4byte	.LASF73
 1415 04fa 0C       		.byte	0xc
 1416 04fb 45       		.byte	0x45
 1417 04fc DA040000 		.4byte	0x4da
 1418 0500 0F       		.uleb128 0xf
 1419 0501 04       		.byte	0x4
 1420 0502 07       		.byte	0x7
 1421 0503 96       		.byte	0x96
 1422 0504 35050000 		.4byte	0x535
 1423 0508 10       		.uleb128 0x10
 1424 0509 33000000 		.4byte	.LASF75
 1425 050d 07       		.byte	0x7
 1426 050e 9D       		.byte	0x9d
 1427 050f 10010000 		.4byte	0x110
 1428 0513 10       		.uleb128 0x10
 1429 0514 9D000000 		.4byte	.LASF76
 1430 0518 07       		.byte	0x7
 1431 0519 A4       		.byte	0xa4
 1432 051a 10010000 		.4byte	0x110
 1433 051e 10       		.uleb128 0x10
 1434 051f 23070000 		.4byte	.LASF77
 1435 0523 07       		.byte	0x7
 1436 0524 AB       		.byte	0xab
 1437 0525 7A000000 		.4byte	0x7a
 1438 0529 10       		.uleb128 0x10
 1439 052a 60050000 		.4byte	.LASF78
 1440 052e 07       		.byte	0x7
 1441 052f B2       		.byte	0xb2
 1442 0530 1B010000 		.4byte	0x11b
 1443 0534 00       		.byte	0
 1444 0535 06       		.uleb128 0x6
 1445 0536 04       		.byte	0x4
 1446 0537 79040000 		.4byte	0x479
 1447 053b 02       		.uleb128 0x2
 1448 053c 06000000 		.4byte	.LASF79
 1449 0540 07       		.byte	0x7
 1450 0541 E5       		.byte	0xe5
 1451 0542 46050000 		.4byte	0x546
 1452 0546 06       		.uleb128 0x6
 1453 0547 04       		.byte	0x4
 1454 0548 4C050000 		.4byte	0x54c
 1455 054c 11       		.uleb128 0x11
 1456 054d 01       		.byte	0x1
 1457 054e 10010000 		.4byte	0x110
 1458 0552 5C050000 		.4byte	0x55c
 1459 0556 12       		.uleb128 0x12
 1460 0557 7A000000 		.4byte	0x7a
 1461 055b 00       		.byte	0
 1462 055c 06       		.uleb128 0x6
ARM GAS  C:\Users\RICHRD~1\AppData\Local\Temp\ccq2u7a9.s 			page 28


 1463 055d 04       		.byte	0x4
 1464 055e 9B000000 		.4byte	0x9b
 1465 0562 08       		.uleb128 0x8
 1466 0563 6E050000 		.4byte	.LASF80
 1467 0567 10       		.byte	0x10
 1468 0568 0D       		.byte	0xd
 1469 0569 48       		.byte	0x48
 1470 056a A7050000 		.4byte	0x5a7
 1471 056e 09       		.uleb128 0x9
 1472 056f 40030000 		.4byte	.LASF81
 1473 0573 0D       		.byte	0xd
 1474 0574 49       		.byte	0x49
 1475 0575 CC050000 		.4byte	0x5cc
 1476 0579 02       		.byte	0x2
 1477 057a 23       		.byte	0x23
 1478 057b 00       		.uleb128 0
 1479 057c 09       		.uleb128 0x9
 1480 057d FB050000 		.4byte	.LASF82
 1481 0581 0D       		.byte	0xd
 1482 0582 49       		.byte	0x49
 1483 0583 EC050000 		.4byte	0x5ec
 1484 0587 02       		.byte	0x2
 1485 0588 23       		.byte	0x23
 1486 0589 04       		.uleb128 0x4
 1487 058a 0A       		.uleb128 0xa
 1488 058b 70757400 		.ascii	"put\000"
 1489 058f 0D       		.byte	0xd
 1490 0590 49       		.byte	0x49
 1491 0591 07060000 		.4byte	0x607
 1492 0595 02       		.byte	0x2
 1493 0596 23       		.byte	0x23
 1494 0597 08       		.uleb128 0x8
 1495 0598 0A       		.uleb128 0xa
 1496 0599 67657400 		.ascii	"get\000"
 1497 059d 0D       		.byte	0xd
 1498 059e 49       		.byte	0x49
 1499 059f 46050000 		.4byte	0x546
 1500 05a3 02       		.byte	0x2
 1501 05a4 23       		.byte	0x23
 1502 05a5 0C       		.uleb128 0xc
 1503 05a6 00       		.byte	0
 1504 05a7 11       		.uleb128 0x11
 1505 05a8 01       		.byte	0x1
 1506 05a9 29000000 		.4byte	0x29
 1507 05ad C1050000 		.4byte	0x5c1
 1508 05b1 12       		.uleb128 0x12
 1509 05b2 7A000000 		.4byte	0x7a
 1510 05b6 12       		.uleb128 0x12
 1511 05b7 C1050000 		.4byte	0x5c1
 1512 05bb 12       		.uleb128 0x12
 1513 05bc 29000000 		.4byte	0x29
 1514 05c0 00       		.byte	0
 1515 05c1 06       		.uleb128 0x6
 1516 05c2 04       		.byte	0x4
 1517 05c3 C7050000 		.4byte	0x5c7
 1518 05c7 07       		.uleb128 0x7
 1519 05c8 9B000000 		.4byte	0x9b
ARM GAS  C:\Users\RICHRD~1\AppData\Local\Temp\ccq2u7a9.s 			page 29


 1520 05cc 06       		.uleb128 0x6
 1521 05cd 04       		.byte	0x4
 1522 05ce A7050000 		.4byte	0x5a7
 1523 05d2 11       		.uleb128 0x11
 1524 05d3 01       		.byte	0x1
 1525 05d4 29000000 		.4byte	0x29
 1526 05d8 EC050000 		.4byte	0x5ec
 1527 05dc 12       		.uleb128 0x12
 1528 05dd 7A000000 		.4byte	0x7a
 1529 05e1 12       		.uleb128 0x12
 1530 05e2 5C050000 		.4byte	0x55c
 1531 05e6 12       		.uleb128 0x12
 1532 05e7 29000000 		.4byte	0x29
 1533 05eb 00       		.byte	0
 1534 05ec 06       		.uleb128 0x6
 1535 05ed 04       		.byte	0x4
 1536 05ee D2050000 		.4byte	0x5d2
 1537 05f2 11       		.uleb128 0x11
 1538 05f3 01       		.byte	0x1
 1539 05f4 10010000 		.4byte	0x110
 1540 05f8 07060000 		.4byte	0x607
 1541 05fc 12       		.uleb128 0x12
 1542 05fd 7A000000 		.4byte	0x7a
 1543 0601 12       		.uleb128 0x12
 1544 0602 9B000000 		.4byte	0x9b
 1545 0606 00       		.byte	0
 1546 0607 06       		.uleb128 0x6
 1547 0608 04       		.byte	0x4
 1548 0609 F2050000 		.4byte	0x5f2
 1549 060d 0B       		.uleb128 0xb
 1550 060e 04       		.byte	0x4
 1551 060f 0D       		.byte	0xd
 1552 0610 51       		.byte	0x51
 1553 0611 24060000 		.4byte	0x624
 1554 0615 0A       		.uleb128 0xa
 1555 0616 766D7400 		.ascii	"vmt\000"
 1556 061a 0D       		.byte	0xd
 1557 061b 53       		.byte	0x53
 1558 061c 24060000 		.4byte	0x624
 1559 0620 02       		.byte	0x2
 1560 0621 23       		.byte	0x23
 1561 0622 00       		.uleb128 0
 1562 0623 00       		.byte	0
 1563 0624 06       		.uleb128 0x6
 1564 0625 04       		.byte	0x4
 1565 0626 2A060000 		.4byte	0x62a
 1566 062a 07       		.uleb128 0x7
 1567 062b 62050000 		.4byte	0x562
 1568 062f 02       		.uleb128 0x2
 1569 0630 00020000 		.4byte	.LASF83
 1570 0634 0D       		.byte	0xd
 1571 0635 55       		.byte	0x55
 1572 0636 0D060000 		.4byte	0x60d
 1573 063a 13       		.uleb128 0x13
 1574 063b BC000000 		.4byte	0xbc
 1575 063f 4A060000 		.4byte	0x64a
 1576 0643 14       		.uleb128 0x14
ARM GAS  C:\Users\RICHRD~1\AppData\Local\Temp\ccq2u7a9.s 			page 30


 1577 0644 73000000 		.4byte	0x73
 1578 0648 07       		.byte	0x7
 1579 0649 00       		.byte	0
 1580 064a 13       		.uleb128 0x13
 1581 064b BC000000 		.4byte	0xbc
 1582 064f 5A060000 		.4byte	0x65a
 1583 0653 14       		.uleb128 0x14
 1584 0654 73000000 		.4byte	0x73
 1585 0658 01       		.byte	0x1
 1586 0659 00       		.byte	0
 1587 065a 0E       		.uleb128 0xe
 1588 065b B1000000 		.4byte	0xb1
 1589 065f 15       		.uleb128 0x15
 1590 0660 10       		.byte	0x10
 1591 0661 0E       		.byte	0xe
 1592 0662 2F02     		.2byte	0x22f
 1593 0664 A5060000 		.4byte	0x6a5
 1594 0668 0D       		.uleb128 0xd
 1595 0669 54495200 		.ascii	"TIR\000"
 1596 066d 0E       		.byte	0xe
 1597 066e 3102     		.2byte	0x231
 1598 0670 96030000 		.4byte	0x396
 1599 0674 02       		.byte	0x2
 1600 0675 23       		.byte	0x23
 1601 0676 00       		.uleb128 0
 1602 0677 16       		.uleb128 0x16
 1603 0678 EF010000 		.4byte	.LASF84
 1604 067c 0E       		.byte	0xe
 1605 067d 3202     		.2byte	0x232
 1606 067f 96030000 		.4byte	0x396
 1607 0683 02       		.byte	0x2
 1608 0684 23       		.byte	0x23
 1609 0685 04       		.uleb128 0x4
 1610 0686 16       		.uleb128 0x16
 1611 0687 2B010000 		.4byte	.LASF85
 1612 068b 0E       		.byte	0xe
 1613 068c 3302     		.2byte	0x233
 1614 068e 96030000 		.4byte	0x396
 1615 0692 02       		.byte	0x2
 1616 0693 23       		.byte	0x23
 1617 0694 08       		.uleb128 0x8
 1618 0695 16       		.uleb128 0x16
 1619 0696 28040000 		.4byte	.LASF86
 1620 069a 0E       		.byte	0xe
 1621 069b 3402     		.2byte	0x234
 1622 069d 96030000 		.4byte	0x396
 1623 06a1 02       		.byte	0x2
 1624 06a2 23       		.byte	0x23
 1625 06a3 0C       		.uleb128 0xc
 1626 06a4 00       		.byte	0
 1627 06a5 17       		.uleb128 0x17
 1628 06a6 42010000 		.4byte	.LASF87
 1629 06aa 0E       		.byte	0xe
 1630 06ab 3502     		.2byte	0x235
 1631 06ad 5F060000 		.4byte	0x65f
 1632 06b1 15       		.uleb128 0x15
 1633 06b2 10       		.byte	0x10
ARM GAS  C:\Users\RICHRD~1\AppData\Local\Temp\ccq2u7a9.s 			page 31


 1634 06b3 0E       		.byte	0xe
 1635 06b4 3B02     		.2byte	0x23b
 1636 06b6 F7060000 		.4byte	0x6f7
 1637 06ba 0D       		.uleb128 0xd
 1638 06bb 52495200 		.ascii	"RIR\000"
 1639 06bf 0E       		.byte	0xe
 1640 06c0 3D02     		.2byte	0x23d
 1641 06c2 96030000 		.4byte	0x396
 1642 06c6 02       		.byte	0x2
 1643 06c7 23       		.byte	0x23
 1644 06c8 00       		.uleb128 0
 1645 06c9 16       		.uleb128 0x16
 1646 06ca 6C000000 		.4byte	.LASF88
 1647 06ce 0E       		.byte	0xe
 1648 06cf 3E02     		.2byte	0x23e
 1649 06d1 96030000 		.4byte	0x396
 1650 06d5 02       		.byte	0x2
 1651 06d6 23       		.byte	0x23
 1652 06d7 04       		.uleb128 0x4
 1653 06d8 16       		.uleb128 0x16
 1654 06d9 64070000 		.4byte	.LASF89
 1655 06dd 0E       		.byte	0xe
 1656 06de 3F02     		.2byte	0x23f
 1657 06e0 96030000 		.4byte	0x396
 1658 06e4 02       		.byte	0x2
 1659 06e5 23       		.byte	0x23
 1660 06e6 08       		.uleb128 0x8
 1661 06e7 16       		.uleb128 0x16
 1662 06e8 1C060000 		.4byte	.LASF90
 1663 06ec 0E       		.byte	0xe
 1664 06ed 4002     		.2byte	0x240
 1665 06ef 96030000 		.4byte	0x396
 1666 06f3 02       		.byte	0x2
 1667 06f4 23       		.byte	0x23
 1668 06f5 0C       		.uleb128 0xc
 1669 06f6 00       		.byte	0
 1670 06f7 17       		.uleb128 0x17
 1671 06f8 BE060000 		.4byte	.LASF91
 1672 06fc 0E       		.byte	0xe
 1673 06fd 4102     		.2byte	0x241
 1674 06ff B1060000 		.4byte	0x6b1
 1675 0703 15       		.uleb128 0x15
 1676 0704 08       		.byte	0x8
 1677 0705 0E       		.byte	0xe
 1678 0706 4702     		.2byte	0x247
 1679 0708 2B070000 		.4byte	0x72b
 1680 070c 0D       		.uleb128 0xd
 1681 070d 46523100 		.ascii	"FR1\000"
 1682 0711 0E       		.byte	0xe
 1683 0712 4902     		.2byte	0x249
 1684 0714 96030000 		.4byte	0x396
 1685 0718 02       		.byte	0x2
 1686 0719 23       		.byte	0x23
 1687 071a 00       		.uleb128 0
 1688 071b 0D       		.uleb128 0xd
 1689 071c 46523200 		.ascii	"FR2\000"
 1690 0720 0E       		.byte	0xe
ARM GAS  C:\Users\RICHRD~1\AppData\Local\Temp\ccq2u7a9.s 			page 32


 1691 0721 4A02     		.2byte	0x24a
 1692 0723 96030000 		.4byte	0x396
 1693 0727 02       		.byte	0x2
 1694 0728 23       		.byte	0x23
 1695 0729 04       		.uleb128 0x4
 1696 072a 00       		.byte	0
 1697 072b 17       		.uleb128 0x17
 1698 072c 8A020000 		.4byte	.LASF92
 1699 0730 0E       		.byte	0xe
 1700 0731 4B02     		.2byte	0x24b
 1701 0733 03070000 		.4byte	0x703
 1702 0737 18       		.uleb128 0x18
 1703 0738 2003     		.2byte	0x320
 1704 073a 0E       		.byte	0xe
 1705 073b 5102     		.2byte	0x251
 1706 073d 99080000 		.4byte	0x899
 1707 0741 0D       		.uleb128 0xd
 1708 0742 4D435200 		.ascii	"MCR\000"
 1709 0746 0E       		.byte	0xe
 1710 0747 5302     		.2byte	0x253
 1711 0749 96030000 		.4byte	0x396
 1712 074d 02       		.byte	0x2
 1713 074e 23       		.byte	0x23
 1714 074f 00       		.uleb128 0
 1715 0750 0D       		.uleb128 0xd
 1716 0751 4D535200 		.ascii	"MSR\000"
 1717 0755 0E       		.byte	0xe
 1718 0756 5402     		.2byte	0x254
 1719 0758 96030000 		.4byte	0x396
 1720 075c 02       		.byte	0x2
 1721 075d 23       		.byte	0x23
 1722 075e 04       		.uleb128 0x4
 1723 075f 0D       		.uleb128 0xd
 1724 0760 54535200 		.ascii	"TSR\000"
 1725 0764 0E       		.byte	0xe
 1726 0765 5502     		.2byte	0x255
 1727 0767 96030000 		.4byte	0x396
 1728 076b 02       		.byte	0x2
 1729 076c 23       		.byte	0x23
 1730 076d 08       		.uleb128 0x8
 1731 076e 16       		.uleb128 0x16
 1732 076f 2A070000 		.4byte	.LASF93
 1733 0773 0E       		.byte	0xe
 1734 0774 5602     		.2byte	0x256
 1735 0776 96030000 		.4byte	0x396
 1736 077a 02       		.byte	0x2
 1737 077b 23       		.byte	0x23
 1738 077c 0C       		.uleb128 0xc
 1739 077d 16       		.uleb128 0x16
 1740 077e 85020000 		.4byte	.LASF94
 1741 0782 0E       		.byte	0xe
 1742 0783 5702     		.2byte	0x257
 1743 0785 96030000 		.4byte	0x396
 1744 0789 02       		.byte	0x2
 1745 078a 23       		.byte	0x23
 1746 078b 10       		.uleb128 0x10
 1747 078c 0D       		.uleb128 0xd
ARM GAS  C:\Users\RICHRD~1\AppData\Local\Temp\ccq2u7a9.s 			page 33


 1748 078d 49455200 		.ascii	"IER\000"
 1749 0791 0E       		.byte	0xe
 1750 0792 5802     		.2byte	0x258
 1751 0794 96030000 		.4byte	0x396
 1752 0798 02       		.byte	0x2
 1753 0799 23       		.byte	0x23
 1754 079a 14       		.uleb128 0x14
 1755 079b 0D       		.uleb128 0xd
 1756 079c 45535200 		.ascii	"ESR\000"
 1757 07a0 0E       		.byte	0xe
 1758 07a1 5902     		.2byte	0x259
 1759 07a3 96030000 		.4byte	0x396
 1760 07a7 02       		.byte	0x2
 1761 07a8 23       		.byte	0x23
 1762 07a9 18       		.uleb128 0x18
 1763 07aa 0D       		.uleb128 0xd
 1764 07ab 42545200 		.ascii	"BTR\000"
 1765 07af 0E       		.byte	0xe
 1766 07b0 5A02     		.2byte	0x25a
 1767 07b2 96030000 		.4byte	0x396
 1768 07b6 02       		.byte	0x2
 1769 07b7 23       		.byte	0x23
 1770 07b8 1C       		.uleb128 0x1c
 1771 07b9 16       		.uleb128 0x16
 1772 07ba 94040000 		.4byte	.LASF95
 1773 07be 0E       		.byte	0xe
 1774 07bf 5B02     		.2byte	0x25b
 1775 07c1 99080000 		.4byte	0x899
 1776 07c5 02       		.byte	0x2
 1777 07c6 23       		.byte	0x23
 1778 07c7 20       		.uleb128 0x20
 1779 07c8 16       		.uleb128 0x16
 1780 07c9 2E020000 		.4byte	.LASF96
 1781 07cd 0E       		.byte	0xe
 1782 07ce 5C02     		.2byte	0x25c
 1783 07d0 A9080000 		.4byte	0x8a9
 1784 07d4 03       		.byte	0x3
 1785 07d5 23       		.byte	0x23
 1786 07d6 8003     		.uleb128 0x180
 1787 07d8 16       		.uleb128 0x16
 1788 07d9 43060000 		.4byte	.LASF97
 1789 07dd 0E       		.byte	0xe
 1790 07de 5D02     		.2byte	0x25d
 1791 07e0 B9080000 		.4byte	0x8b9
 1792 07e4 03       		.byte	0x3
 1793 07e5 23       		.byte	0x23
 1794 07e6 B003     		.uleb128 0x1b0
 1795 07e8 16       		.uleb128 0x16
 1796 07e9 9E040000 		.4byte	.LASF98
 1797 07ed 0E       		.byte	0xe
 1798 07ee 5E02     		.2byte	0x25e
 1799 07f0 C9080000 		.4byte	0x8c9
 1800 07f4 03       		.byte	0x3
 1801 07f5 23       		.byte	0x23
 1802 07f6 D003     		.uleb128 0x1d0
 1803 07f8 0D       		.uleb128 0xd
 1804 07f9 464D5200 		.ascii	"FMR\000"
ARM GAS  C:\Users\RICHRD~1\AppData\Local\Temp\ccq2u7a9.s 			page 34


 1805 07fd 0E       		.byte	0xe
 1806 07fe 5F02     		.2byte	0x25f
 1807 0800 96030000 		.4byte	0x396
 1808 0804 03       		.byte	0x3
 1809 0805 23       		.byte	0x23
 1810 0806 8004     		.uleb128 0x200
 1811 0808 16       		.uleb128 0x16
 1812 0809 5D060000 		.4byte	.LASF99
 1813 080d 0E       		.byte	0xe
 1814 080e 6002     		.2byte	0x260
 1815 0810 96030000 		.4byte	0x396
 1816 0814 03       		.byte	0x3
 1817 0815 23       		.byte	0x23
 1818 0816 8404     		.uleb128 0x204
 1819 0818 16       		.uleb128 0x16
 1820 0819 A8040000 		.4byte	.LASF100
 1821 081d 0E       		.byte	0xe
 1822 081e 6102     		.2byte	0x261
 1823 0820 BC000000 		.4byte	0xbc
 1824 0824 03       		.byte	0x3
 1825 0825 23       		.byte	0x23
 1826 0826 8804     		.uleb128 0x208
 1827 0828 16       		.uleb128 0x16
 1828 0829 95060000 		.4byte	.LASF101
 1829 082d 0E       		.byte	0xe
 1830 082e 6202     		.2byte	0x262
 1831 0830 96030000 		.4byte	0x396
 1832 0834 03       		.byte	0x3
 1833 0835 23       		.byte	0x23
 1834 0836 8C04     		.uleb128 0x20c
 1835 0838 16       		.uleb128 0x16
 1836 0839 B2040000 		.4byte	.LASF102
 1837 083d 0E       		.byte	0xe
 1838 083e 6302     		.2byte	0x263
 1839 0840 BC000000 		.4byte	0xbc
 1840 0844 03       		.byte	0x3
 1841 0845 23       		.byte	0x23
 1842 0846 9004     		.uleb128 0x210
 1843 0848 16       		.uleb128 0x16
 1844 0849 67040000 		.4byte	.LASF103
 1845 084d 0E       		.byte	0xe
 1846 084e 6402     		.2byte	0x264
 1847 0850 96030000 		.4byte	0x396
 1848 0854 03       		.byte	0x3
 1849 0855 23       		.byte	0x23
 1850 0856 9404     		.uleb128 0x214
 1851 0858 16       		.uleb128 0x16
 1852 0859 BC040000 		.4byte	.LASF104
 1853 085d 0E       		.byte	0xe
 1854 085e 6502     		.2byte	0x265
 1855 0860 BC000000 		.4byte	0xbc
 1856 0864 03       		.byte	0x3
 1857 0865 23       		.byte	0x23
 1858 0866 9804     		.uleb128 0x218
 1859 0868 16       		.uleb128 0x16
 1860 0869 5B030000 		.4byte	.LASF105
 1861 086d 0E       		.byte	0xe
ARM GAS  C:\Users\RICHRD~1\AppData\Local\Temp\ccq2u7a9.s 			page 35


 1862 086e 6602     		.2byte	0x266
 1863 0870 96030000 		.4byte	0x396
 1864 0874 03       		.byte	0x3
 1865 0875 23       		.byte	0x23
 1866 0876 9C04     		.uleb128 0x21c
 1867 0878 16       		.uleb128 0x16
 1868 0879 C0050000 		.4byte	.LASF106
 1869 087d 0E       		.byte	0xe
 1870 087e 6702     		.2byte	0x267
 1871 0880 3A060000 		.4byte	0x63a
 1872 0884 03       		.byte	0x3
 1873 0885 23       		.byte	0x23
 1874 0886 A004     		.uleb128 0x220
 1875 0888 16       		.uleb128 0x16
 1876 0889 F0020000 		.4byte	.LASF107
 1877 088d 0E       		.byte	0xe
 1878 088e 6802     		.2byte	0x268
 1879 0890 D9080000 		.4byte	0x8d9
 1880 0894 03       		.byte	0x3
 1881 0895 23       		.byte	0x23
 1882 0896 C004     		.uleb128 0x240
 1883 0898 00       		.byte	0
 1884 0899 13       		.uleb128 0x13
 1885 089a BC000000 		.4byte	0xbc
 1886 089e A9080000 		.4byte	0x8a9
 1887 08a2 14       		.uleb128 0x14
 1888 08a3 73000000 		.4byte	0x73
 1889 08a7 57       		.byte	0x57
 1890 08a8 00       		.byte	0
 1891 08a9 13       		.uleb128 0x13
 1892 08aa A5060000 		.4byte	0x6a5
 1893 08ae B9080000 		.4byte	0x8b9
 1894 08b2 14       		.uleb128 0x14
 1895 08b3 73000000 		.4byte	0x73
 1896 08b7 02       		.byte	0x2
 1897 08b8 00       		.byte	0
 1898 08b9 13       		.uleb128 0x13
 1899 08ba F7060000 		.4byte	0x6f7
 1900 08be C9080000 		.4byte	0x8c9
 1901 08c2 14       		.uleb128 0x14
 1902 08c3 73000000 		.4byte	0x73
 1903 08c7 01       		.byte	0x1
 1904 08c8 00       		.byte	0
 1905 08c9 13       		.uleb128 0x13
 1906 08ca BC000000 		.4byte	0xbc
 1907 08ce D9080000 		.4byte	0x8d9
 1908 08d2 14       		.uleb128 0x14
 1909 08d3 73000000 		.4byte	0x73
 1910 08d7 0B       		.byte	0xb
 1911 08d8 00       		.byte	0
 1912 08d9 13       		.uleb128 0x13
 1913 08da 2B070000 		.4byte	0x72b
 1914 08de E9080000 		.4byte	0x8e9
 1915 08e2 14       		.uleb128 0x14
 1916 08e3 73000000 		.4byte	0x73
 1917 08e7 1B       		.byte	0x1b
 1918 08e8 00       		.byte	0
ARM GAS  C:\Users\RICHRD~1\AppData\Local\Temp\ccq2u7a9.s 			page 36


 1919 08e9 17       		.uleb128 0x17
 1920 08ea 60000000 		.4byte	.LASF108
 1921 08ee 0E       		.byte	0xe
 1922 08ef 6902     		.2byte	0x269
 1923 08f1 37070000 		.4byte	0x737
 1924 08f5 08       		.uleb128 0x8
 1925 08f6 8E000000 		.4byte	.LASF109
 1926 08fa 20       		.byte	0x20
 1927 08fb 0F       		.byte	0xf
 1928 08fc 4E       		.byte	0x4e
 1929 08fd 72090000 		.4byte	0x972
 1930 0901 09       		.uleb128 0x9
 1931 0902 40030000 		.4byte	.LASF81
 1932 0906 0F       		.byte	0xf
 1933 0907 4F       		.byte	0x4f
 1934 0908 CC050000 		.4byte	0x5cc
 1935 090c 02       		.byte	0x2
 1936 090d 23       		.byte	0x23
 1937 090e 00       		.uleb128 0
 1938 090f 09       		.uleb128 0x9
 1939 0910 FB050000 		.4byte	.LASF82
 1940 0914 0F       		.byte	0xf
 1941 0915 4F       		.byte	0x4f
 1942 0916 EC050000 		.4byte	0x5ec
 1943 091a 02       		.byte	0x2
 1944 091b 23       		.byte	0x23
 1945 091c 04       		.uleb128 0x4
 1946 091d 0A       		.uleb128 0xa
 1947 091e 70757400 		.ascii	"put\000"
 1948 0922 0F       		.byte	0xf
 1949 0923 4F       		.byte	0x4f
 1950 0924 07060000 		.4byte	0x607
 1951 0928 02       		.byte	0x2
 1952 0929 23       		.byte	0x23
 1953 092a 08       		.uleb128 0x8
 1954 092b 0A       		.uleb128 0xa
 1955 092c 67657400 		.ascii	"get\000"
 1956 0930 0F       		.byte	0xf
 1957 0931 4F       		.byte	0x4f
 1958 0932 46050000 		.4byte	0x546
 1959 0936 02       		.byte	0x2
 1960 0937 23       		.byte	0x23
 1961 0938 0C       		.uleb128 0xc
 1962 0939 09       		.uleb128 0x9
 1963 093a 46030000 		.4byte	.LASF110
 1964 093e 0F       		.byte	0xf
 1965 093f 4F       		.byte	0x4f
 1966 0940 8C090000 		.4byte	0x98c
 1967 0944 02       		.byte	0x2
 1968 0945 23       		.byte	0x23
 1969 0946 10       		.uleb128 0x10
 1970 0947 09       		.uleb128 0x9
 1971 0948 67020000 		.4byte	.LASF111
 1972 094c 0F       		.byte	0xf
 1973 094d 4F       		.byte	0x4f
 1974 094e A7090000 		.4byte	0x9a7
 1975 0952 02       		.byte	0x2
ARM GAS  C:\Users\RICHRD~1\AppData\Local\Temp\ccq2u7a9.s 			page 37


 1976 0953 23       		.byte	0x23
 1977 0954 14       		.uleb128 0x14
 1978 0955 09       		.uleb128 0x9
 1979 0956 D5020000 		.4byte	.LASF112
 1980 095a 0F       		.byte	0xf
 1981 095b 4F       		.byte	0x4f
 1982 095c CC090000 		.4byte	0x9cc
 1983 0960 02       		.byte	0x2
 1984 0961 23       		.byte	0x23
 1985 0962 18       		.uleb128 0x18
 1986 0963 09       		.uleb128 0x9
 1987 0964 D2000000 		.4byte	.LASF113
 1988 0968 0F       		.byte	0xf
 1989 0969 4F       		.byte	0x4f
 1990 096a F1090000 		.4byte	0x9f1
 1991 096e 02       		.byte	0x2
 1992 096f 23       		.byte	0x23
 1993 0970 1C       		.uleb128 0x1c
 1994 0971 00       		.byte	0
 1995 0972 11       		.uleb128 0x11
 1996 0973 01       		.byte	0x1
 1997 0974 10010000 		.4byte	0x110
 1998 0978 8C090000 		.4byte	0x98c
 1999 097c 12       		.uleb128 0x12
 2000 097d 7A000000 		.4byte	0x7a
 2001 0981 12       		.uleb128 0x12
 2002 0982 9B000000 		.4byte	0x9b
 2003 0986 12       		.uleb128 0x12
 2004 0987 31010000 		.4byte	0x131
 2005 098b 00       		.byte	0
 2006 098c 06       		.uleb128 0x6
 2007 098d 04       		.byte	0x4
 2008 098e 72090000 		.4byte	0x972
 2009 0992 11       		.uleb128 0x11
 2010 0993 01       		.byte	0x1
 2011 0994 10010000 		.4byte	0x110
 2012 0998 A7090000 		.4byte	0x9a7
 2013 099c 12       		.uleb128 0x12
 2014 099d 7A000000 		.4byte	0x7a
 2015 09a1 12       		.uleb128 0x12
 2016 09a2 31010000 		.4byte	0x131
 2017 09a6 00       		.byte	0
 2018 09a7 06       		.uleb128 0x6
 2019 09a8 04       		.byte	0x4
 2020 09a9 92090000 		.4byte	0x992
 2021 09ad 11       		.uleb128 0x11
 2022 09ae 01       		.byte	0x1
 2023 09af 29000000 		.4byte	0x29
 2024 09b3 CC090000 		.4byte	0x9cc
 2025 09b7 12       		.uleb128 0x12
 2026 09b8 7A000000 		.4byte	0x7a
 2027 09bc 12       		.uleb128 0x12
 2028 09bd C1050000 		.4byte	0x5c1
 2029 09c1 12       		.uleb128 0x12
 2030 09c2 29000000 		.4byte	0x29
 2031 09c6 12       		.uleb128 0x12
 2032 09c7 31010000 		.4byte	0x131
ARM GAS  C:\Users\RICHRD~1\AppData\Local\Temp\ccq2u7a9.s 			page 38


 2033 09cb 00       		.byte	0
 2034 09cc 06       		.uleb128 0x6
 2035 09cd 04       		.byte	0x4
 2036 09ce AD090000 		.4byte	0x9ad
 2037 09d2 11       		.uleb128 0x11
 2038 09d3 01       		.byte	0x1
 2039 09d4 29000000 		.4byte	0x29
 2040 09d8 F1090000 		.4byte	0x9f1
 2041 09dc 12       		.uleb128 0x12
 2042 09dd 7A000000 		.4byte	0x7a
 2043 09e1 12       		.uleb128 0x12
 2044 09e2 5C050000 		.4byte	0x55c
 2045 09e6 12       		.uleb128 0x12
 2046 09e7 29000000 		.4byte	0x29
 2047 09eb 12       		.uleb128 0x12
 2048 09ec 31010000 		.4byte	0x131
 2049 09f0 00       		.byte	0
 2050 09f1 06       		.uleb128 0x6
 2051 09f2 04       		.byte	0x4
 2052 09f3 D2090000 		.4byte	0x9d2
 2053 09f7 0B       		.uleb128 0xb
 2054 09f8 04       		.byte	0x4
 2055 09f9 0F       		.byte	0xf
 2056 09fa 59       		.byte	0x59
 2057 09fb 0E0A0000 		.4byte	0xa0e
 2058 09ff 0A       		.uleb128 0xa
 2059 0a00 766D7400 		.ascii	"vmt\000"
 2060 0a04 0F       		.byte	0xf
 2061 0a05 5B       		.byte	0x5b
 2062 0a06 0E0A0000 		.4byte	0xa0e
 2063 0a0a 02       		.byte	0x2
 2064 0a0b 23       		.byte	0x23
 2065 0a0c 00       		.uleb128 0
 2066 0a0d 00       		.byte	0
 2067 0a0e 06       		.uleb128 0x6
 2068 0a0f 04       		.byte	0x4
 2069 0a10 140A0000 		.4byte	0xa14
 2070 0a14 07       		.uleb128 0x7
 2071 0a15 F5080000 		.4byte	0x8f5
 2072 0a19 02       		.uleb128 0x2
 2073 0a1a 58070000 		.4byte	.LASF114
 2074 0a1e 0F       		.byte	0xf
 2075 0a1f 5D       		.byte	0x5d
 2076 0a20 F7090000 		.4byte	0x9f7
 2077 0a24 19       		.uleb128 0x19
 2078 0a25 01       		.byte	0x1
 2079 0a26 10       		.byte	0x10
 2080 0a27 6E       		.byte	0x6e
 2081 0a28 4B0A0000 		.4byte	0xa4b
 2082 0a2c 1A       		.uleb128 0x1a
 2083 0a2d D5040000 		.4byte	.LASF115
 2084 0a31 00       		.sleb128 0
 2085 0a32 1A       		.uleb128 0x1a
 2086 0a33 5E040000 		.4byte	.LASF116
 2087 0a37 01       		.sleb128 1
 2088 0a38 1A       		.uleb128 0x1a
 2089 0a39 F2000000 		.4byte	.LASF117
ARM GAS  C:\Users\RICHRD~1\AppData\Local\Temp\ccq2u7a9.s 			page 39


 2090 0a3d 02       		.sleb128 2
 2091 0a3e 1A       		.uleb128 0x1a
 2092 0a3f AC010000 		.4byte	.LASF118
 2093 0a43 03       		.sleb128 3
 2094 0a44 1A       		.uleb128 0x1a
 2095 0a45 81030000 		.4byte	.LASF119
 2096 0a49 04       		.sleb128 4
 2097 0a4a 00       		.byte	0
 2098 0a4b 02       		.uleb128 0x2
 2099 0a4c 53040000 		.4byte	.LASF120
 2100 0a50 10       		.byte	0x10
 2101 0a51 74       		.byte	0x74
 2102 0a52 240A0000 		.4byte	0xa24
 2103 0a56 02       		.uleb128 0x2
 2104 0a57 2F070000 		.4byte	.LASF121
 2105 0a5b 11       		.byte	0x11
 2106 0a5c 92       		.byte	0x92
 2107 0a5d BC000000 		.4byte	0xbc
 2108 0a61 0B       		.uleb128 0xb
 2109 0a62 01       		.byte	0x1
 2110 0a63 11       		.byte	0x11
 2111 0a64 9A       		.byte	0x9a
 2112 0a65 9D0A0000 		.4byte	0xa9d
 2113 0a69 1B       		.uleb128 0x1b
 2114 0a6a 444C4300 		.ascii	"DLC\000"
 2115 0a6e 11       		.byte	0x11
 2116 0a6f 9B       		.byte	0x9b
 2117 0a70 9B000000 		.4byte	0x9b
 2118 0a74 01       		.byte	0x1
 2119 0a75 04       		.byte	0x4
 2120 0a76 04       		.byte	0x4
 2121 0a77 02       		.byte	0x2
 2122 0a78 23       		.byte	0x23
 2123 0a79 00       		.uleb128 0
 2124 0a7a 1B       		.uleb128 0x1b
 2125 0a7b 52545200 		.ascii	"RTR\000"
 2126 0a7f 11       		.byte	0x11
 2127 0a80 9C       		.byte	0x9c
 2128 0a81 9B000000 		.4byte	0x9b
 2129 0a85 01       		.byte	0x1
 2130 0a86 01       		.byte	0x1
 2131 0a87 03       		.byte	0x3
 2132 0a88 02       		.byte	0x2
 2133 0a89 23       		.byte	0x23
 2134 0a8a 00       		.uleb128 0
 2135 0a8b 1B       		.uleb128 0x1b
 2136 0a8c 49444500 		.ascii	"IDE\000"
 2137 0a90 11       		.byte	0x11
 2138 0a91 9D       		.byte	0x9d
 2139 0a92 9B000000 		.4byte	0x9b
 2140 0a96 01       		.byte	0x1
 2141 0a97 01       		.byte	0x1
 2142 0a98 02       		.byte	0x2
 2143 0a99 02       		.byte	0x2
 2144 0a9a 23       		.byte	0x23
 2145 0a9b 00       		.uleb128 0
 2146 0a9c 00       		.byte	0
ARM GAS  C:\Users\RICHRD~1\AppData\Local\Temp\ccq2u7a9.s 			page 40


 2147 0a9d 0B       		.uleb128 0xb
 2148 0a9e 04       		.byte	0x4
 2149 0a9f 11       		.byte	0x11
 2150 0aa0 A0       		.byte	0xa0
 2151 0aa1 B70A0000 		.4byte	0xab7
 2152 0aa5 1B       		.uleb128 0x1b
 2153 0aa6 53494400 		.ascii	"SID\000"
 2154 0aaa 11       		.byte	0x11
 2155 0aab A1       		.byte	0xa1
 2156 0aac BC000000 		.4byte	0xbc
 2157 0ab0 04       		.byte	0x4
 2158 0ab1 0B       		.byte	0xb
 2159 0ab2 15       		.byte	0x15
 2160 0ab3 02       		.byte	0x2
 2161 0ab4 23       		.byte	0x23
 2162 0ab5 00       		.uleb128 0
 2163 0ab6 00       		.byte	0
 2164 0ab7 0B       		.uleb128 0xb
 2165 0ab8 04       		.byte	0x4
 2166 0ab9 11       		.byte	0x11
 2167 0aba A3       		.byte	0xa3
 2168 0abb D10A0000 		.4byte	0xad1
 2169 0abf 1B       		.uleb128 0x1b
 2170 0ac0 45494400 		.ascii	"EID\000"
 2171 0ac4 11       		.byte	0x11
 2172 0ac5 A4       		.byte	0xa4
 2173 0ac6 BC000000 		.4byte	0xbc
 2174 0aca 04       		.byte	0x4
 2175 0acb 1D       		.byte	0x1d
 2176 0acc 03       		.byte	0x3
 2177 0acd 02       		.byte	0x2
 2178 0ace 23       		.byte	0x23
 2179 0acf 00       		.uleb128 0
 2180 0ad0 00       		.byte	0
 2181 0ad1 0F       		.uleb128 0xf
 2182 0ad2 04       		.byte	0x4
 2183 0ad3 11       		.byte	0x11
 2184 0ad4 9F       		.byte	0x9f
 2185 0ad5 E40A0000 		.4byte	0xae4
 2186 0ad9 1C       		.uleb128 0x1c
 2187 0ada 9D0A0000 		.4byte	0xa9d
 2188 0ade 1C       		.uleb128 0x1c
 2189 0adf B70A0000 		.4byte	0xab7
 2190 0ae3 00       		.byte	0
 2191 0ae4 0F       		.uleb128 0xf
 2192 0ae5 08       		.byte	0x8
 2193 0ae6 11       		.byte	0x11
 2194 0ae7 A7       		.byte	0xa7
 2195 0ae8 0E0B0000 		.4byte	0xb0e
 2196 0aec 10       		.uleb128 0x10
 2197 0aed 3D060000 		.4byte	.LASF122
 2198 0af1 11       		.byte	0x11
 2199 0af2 A8       		.byte	0xa8
 2200 0af3 0E0B0000 		.4byte	0xb0e
 2201 0af7 10       		.uleb128 0x10
 2202 0af8 8E060000 		.4byte	.LASF123
 2203 0afc 11       		.byte	0x11
ARM GAS  C:\Users\RICHRD~1\AppData\Local\Temp\ccq2u7a9.s 			page 41


 2204 0afd A9       		.byte	0xa9
 2205 0afe 1E0B0000 		.4byte	0xb1e
 2206 0b02 10       		.uleb128 0x10
 2207 0b03 A6000000 		.4byte	.LASF124
 2208 0b07 11       		.byte	0x11
 2209 0b08 AA       		.byte	0xaa
 2210 0b09 4A060000 		.4byte	0x64a
 2211 0b0d 00       		.byte	0
 2212 0b0e 13       		.uleb128 0x13
 2213 0b0f 9B000000 		.4byte	0x9b
 2214 0b13 1E0B0000 		.4byte	0xb1e
 2215 0b17 14       		.uleb128 0x14
 2216 0b18 73000000 		.4byte	0x73
 2217 0b1c 07       		.byte	0x7
 2218 0b1d 00       		.byte	0
 2219 0b1e 13       		.uleb128 0x13
 2220 0b1f A6000000 		.4byte	0xa6
 2221 0b23 2E0B0000 		.4byte	0xb2e
 2222 0b27 14       		.uleb128 0x14
 2223 0b28 73000000 		.4byte	0x73
 2224 0b2c 03       		.byte	0x3
 2225 0b2d 00       		.byte	0
 2226 0b2e 0B       		.uleb128 0xb
 2227 0b2f 10       		.byte	0x10
 2228 0b30 11       		.byte	0x11
 2229 0b31 99       		.byte	0x99
 2230 0b32 4F0B0000 		.4byte	0xb4f
 2231 0b36 1D       		.uleb128 0x1d
 2232 0b37 610A0000 		.4byte	0xa61
 2233 0b3b 02       		.byte	0x2
 2234 0b3c 23       		.byte	0x23
 2235 0b3d 00       		.uleb128 0
 2236 0b3e 1D       		.uleb128 0x1d
 2237 0b3f D10A0000 		.4byte	0xad1
 2238 0b43 02       		.byte	0x2
 2239 0b44 23       		.byte	0x23
 2240 0b45 04       		.uleb128 0x4
 2241 0b46 1D       		.uleb128 0x1d
 2242 0b47 E40A0000 		.4byte	0xae4
 2243 0b4b 02       		.byte	0x2
 2244 0b4c 23       		.byte	0x23
 2245 0b4d 08       		.uleb128 0x8
 2246 0b4e 00       		.byte	0
 2247 0b4f 02       		.uleb128 0x2
 2248 0b50 5C020000 		.4byte	.LASF125
 2249 0b54 11       		.byte	0x11
 2250 0b55 AC       		.byte	0xac
 2251 0b56 2E0B0000 		.4byte	0xb2e
 2252 0b5a 0B       		.uleb128 0xb
 2253 0b5b 04       		.byte	0x4
 2254 0b5c 11       		.byte	0x11
 2255 0b5d B4       		.byte	0xb4
 2256 0b5e 7F0B0000 		.4byte	0xb7f
 2257 0b62 0A       		.uleb128 0xa
 2258 0b63 464D4900 		.ascii	"FMI\000"
 2259 0b67 11       		.byte	0x11
 2260 0b68 B5       		.byte	0xb5
ARM GAS  C:\Users\RICHRD~1\AppData\Local\Temp\ccq2u7a9.s 			page 42


 2261 0b69 9B000000 		.4byte	0x9b
 2262 0b6d 02       		.byte	0x2
 2263 0b6e 23       		.byte	0x23
 2264 0b6f 00       		.uleb128 0
 2265 0b70 09       		.uleb128 0x9
 2266 0b71 DD010000 		.4byte	.LASF126
 2267 0b75 11       		.byte	0x11
 2268 0b76 B6       		.byte	0xb6
 2269 0b77 A6000000 		.4byte	0xa6
 2270 0b7b 02       		.byte	0x2
 2271 0b7c 23       		.byte	0x23
 2272 0b7d 02       		.uleb128 0x2
 2273 0b7e 00       		.byte	0
 2274 0b7f 0B       		.uleb128 0xb
 2275 0b80 01       		.byte	0x1
 2276 0b81 11       		.byte	0x11
 2277 0b82 B8       		.byte	0xb8
 2278 0b83 BB0B0000 		.4byte	0xbbb
 2279 0b87 1B       		.uleb128 0x1b
 2280 0b88 444C4300 		.ascii	"DLC\000"
 2281 0b8c 11       		.byte	0x11
 2282 0b8d B9       		.byte	0xb9
 2283 0b8e 9B000000 		.4byte	0x9b
 2284 0b92 01       		.byte	0x1
 2285 0b93 04       		.byte	0x4
 2286 0b94 04       		.byte	0x4
 2287 0b95 02       		.byte	0x2
 2288 0b96 23       		.byte	0x23
 2289 0b97 00       		.uleb128 0
 2290 0b98 1B       		.uleb128 0x1b
 2291 0b99 52545200 		.ascii	"RTR\000"
 2292 0b9d 11       		.byte	0x11
 2293 0b9e BA       		.byte	0xba
 2294 0b9f 9B000000 		.4byte	0x9b
 2295 0ba3 01       		.byte	0x1
 2296 0ba4 01       		.byte	0x1
 2297 0ba5 03       		.byte	0x3
 2298 0ba6 02       		.byte	0x2
 2299 0ba7 23       		.byte	0x23
 2300 0ba8 00       		.uleb128 0
 2301 0ba9 1B       		.uleb128 0x1b
 2302 0baa 49444500 		.ascii	"IDE\000"
 2303 0bae 11       		.byte	0x11
 2304 0baf BB       		.byte	0xbb
 2305 0bb0 9B000000 		.4byte	0x9b
 2306 0bb4 01       		.byte	0x1
 2307 0bb5 01       		.byte	0x1
 2308 0bb6 02       		.byte	0x2
 2309 0bb7 02       		.byte	0x2
 2310 0bb8 23       		.byte	0x23
 2311 0bb9 00       		.uleb128 0
 2312 0bba 00       		.byte	0
 2313 0bbb 0B       		.uleb128 0xb
 2314 0bbc 04       		.byte	0x4
 2315 0bbd 11       		.byte	0x11
 2316 0bbe BE       		.byte	0xbe
 2317 0bbf D50B0000 		.4byte	0xbd5
ARM GAS  C:\Users\RICHRD~1\AppData\Local\Temp\ccq2u7a9.s 			page 43


 2318 0bc3 1B       		.uleb128 0x1b
 2319 0bc4 53494400 		.ascii	"SID\000"
 2320 0bc8 11       		.byte	0x11
 2321 0bc9 BF       		.byte	0xbf
 2322 0bca BC000000 		.4byte	0xbc
 2323 0bce 04       		.byte	0x4
 2324 0bcf 0B       		.byte	0xb
 2325 0bd0 15       		.byte	0x15
 2326 0bd1 02       		.byte	0x2
 2327 0bd2 23       		.byte	0x23
 2328 0bd3 00       		.uleb128 0
 2329 0bd4 00       		.byte	0
 2330 0bd5 0B       		.uleb128 0xb
 2331 0bd6 04       		.byte	0x4
 2332 0bd7 11       		.byte	0x11
 2333 0bd8 C1       		.byte	0xc1
 2334 0bd9 EF0B0000 		.4byte	0xbef
 2335 0bdd 1B       		.uleb128 0x1b
 2336 0bde 45494400 		.ascii	"EID\000"
 2337 0be2 11       		.byte	0x11
 2338 0be3 C2       		.byte	0xc2
 2339 0be4 BC000000 		.4byte	0xbc
 2340 0be8 04       		.byte	0x4
 2341 0be9 1D       		.byte	0x1d
 2342 0bea 03       		.byte	0x3
 2343 0beb 02       		.byte	0x2
 2344 0bec 23       		.byte	0x23
 2345 0bed 00       		.uleb128 0
 2346 0bee 00       		.byte	0
 2347 0bef 0F       		.uleb128 0xf
 2348 0bf0 04       		.byte	0x4
 2349 0bf1 11       		.byte	0x11
 2350 0bf2 BD       		.byte	0xbd
 2351 0bf3 020C0000 		.4byte	0xc02
 2352 0bf7 1C       		.uleb128 0x1c
 2353 0bf8 BB0B0000 		.4byte	0xbbb
 2354 0bfc 1C       		.uleb128 0x1c
 2355 0bfd D50B0000 		.4byte	0xbd5
 2356 0c01 00       		.byte	0
 2357 0c02 0F       		.uleb128 0xf
 2358 0c03 08       		.byte	0x8
 2359 0c04 11       		.byte	0x11
 2360 0c05 C5       		.byte	0xc5
 2361 0c06 2C0C0000 		.4byte	0xc2c
 2362 0c0a 10       		.uleb128 0x10
 2363 0c0b 3D060000 		.4byte	.LASF122
 2364 0c0f 11       		.byte	0x11
 2365 0c10 C6       		.byte	0xc6
 2366 0c11 0E0B0000 		.4byte	0xb0e
 2367 0c15 10       		.uleb128 0x10
 2368 0c16 8E060000 		.4byte	.LASF123
 2369 0c1a 11       		.byte	0x11
 2370 0c1b C7       		.byte	0xc7
 2371 0c1c 1E0B0000 		.4byte	0xb1e
 2372 0c20 10       		.uleb128 0x10
 2373 0c21 A6000000 		.4byte	.LASF124
 2374 0c25 11       		.byte	0x11
ARM GAS  C:\Users\RICHRD~1\AppData\Local\Temp\ccq2u7a9.s 			page 44


 2375 0c26 C8       		.byte	0xc8
 2376 0c27 4A060000 		.4byte	0x64a
 2377 0c2b 00       		.byte	0
 2378 0c2c 0B       		.uleb128 0xb
 2379 0c2d 14       		.byte	0x14
 2380 0c2e 11       		.byte	0x11
 2381 0c2f B3       		.byte	0xb3
 2382 0c30 550C0000 		.4byte	0xc55
 2383 0c34 1D       		.uleb128 0x1d
 2384 0c35 5A0B0000 		.4byte	0xb5a
 2385 0c39 02       		.byte	0x2
 2386 0c3a 23       		.byte	0x23
 2387 0c3b 00       		.uleb128 0
 2388 0c3c 1D       		.uleb128 0x1d
 2389 0c3d 7F0B0000 		.4byte	0xb7f
 2390 0c41 02       		.byte	0x2
 2391 0c42 23       		.byte	0x23
 2392 0c43 04       		.uleb128 0x4
 2393 0c44 1D       		.uleb128 0x1d
 2394 0c45 EF0B0000 		.4byte	0xbef
 2395 0c49 02       		.byte	0x2
 2396 0c4a 23       		.byte	0x23
 2397 0c4b 08       		.uleb128 0x8
 2398 0c4c 1D       		.uleb128 0x1d
 2399 0c4d 020C0000 		.4byte	0xc02
 2400 0c51 02       		.byte	0x2
 2401 0c52 23       		.byte	0x23
 2402 0c53 0C       		.uleb128 0xc
 2403 0c54 00       		.byte	0
 2404 0c55 02       		.uleb128 0x2
 2405 0c56 28000000 		.4byte	.LASF127
 2406 0c5a 11       		.byte	0x11
 2407 0c5b CA       		.byte	0xca
 2408 0c5c 2C0C0000 		.4byte	0xc2c
 2409 0c60 0B       		.uleb128 0xb
 2410 0c61 08       		.byte	0x8
 2411 0c62 11       		.byte	0x11
 2412 0c63 F4       		.byte	0xf4
 2413 0c64 860C0000 		.4byte	0xc86
 2414 0c68 0A       		.uleb128 0xa
 2415 0c69 6D637200 		.ascii	"mcr\000"
 2416 0c6d 11       		.byte	0x11
 2417 0c6e FA       		.byte	0xfa
 2418 0c6f BC000000 		.4byte	0xbc
 2419 0c73 02       		.byte	0x2
 2420 0c74 23       		.byte	0x23
 2421 0c75 00       		.uleb128 0
 2422 0c76 0D       		.uleb128 0xd
 2423 0c77 62747200 		.ascii	"btr\000"
 2424 0c7b 11       		.byte	0x11
 2425 0c7c 0001     		.2byte	0x100
 2426 0c7e BC000000 		.4byte	0xbc
 2427 0c82 02       		.byte	0x2
 2428 0c83 23       		.byte	0x23
 2429 0c84 04       		.uleb128 0x4
 2430 0c85 00       		.byte	0
 2431 0c86 17       		.uleb128 0x17
ARM GAS  C:\Users\RICHRD~1\AppData\Local\Temp\ccq2u7a9.s 			page 45


 2432 0c87 56000000 		.4byte	.LASF128
 2433 0c8b 11       		.byte	0x11
 2434 0c8c 0101     		.2byte	0x101
 2435 0c8e 600C0000 		.4byte	0xc60
 2436 0c92 15       		.uleb128 0x15
 2437 0c93 38       		.byte	0x38
 2438 0c94 11       		.byte	0x11
 2439 0c95 0601     		.2byte	0x106
 2440 0c97 320D0000 		.4byte	0xd32
 2441 0c9b 16       		.uleb128 0x16
 2442 0c9c 25010000 		.4byte	.LASF129
 2443 0ca0 11       		.byte	0x11
 2444 0ca1 0A01     		.2byte	0x10a
 2445 0ca3 4B0A0000 		.4byte	0xa4b
 2446 0ca7 02       		.byte	0x2
 2447 0ca8 23       		.byte	0x23
 2448 0ca9 00       		.uleb128 0
 2449 0caa 16       		.uleb128 0x16
 2450 0cab 0F060000 		.4byte	.LASF130
 2451 0caf 11       		.byte	0x11
 2452 0cb0 0E01     		.2byte	0x10e
 2453 0cb2 320D0000 		.4byte	0xd32
 2454 0cb6 02       		.byte	0x2
 2455 0cb7 23       		.byte	0x23
 2456 0cb8 04       		.uleb128 0x4
 2457 0cb9 16       		.uleb128 0x16
 2458 0cba 15010000 		.4byte	.LASF131
 2459 0cbe 11       		.byte	0x11
 2460 0cbf 1201     		.2byte	0x112
 2461 0cc1 31040000 		.4byte	0x431
 2462 0cc5 02       		.byte	0x2
 2463 0cc6 23       		.byte	0x23
 2464 0cc7 08       		.uleb128 0x8
 2465 0cc8 16       		.uleb128 0x16
 2466 0cc9 FE060000 		.4byte	.LASF132
 2467 0ccd 11       		.byte	0x11
 2468 0cce 1601     		.2byte	0x116
 2469 0cd0 31040000 		.4byte	0x431
 2470 0cd4 02       		.byte	0x2
 2471 0cd5 23       		.byte	0x23
 2472 0cd6 14       		.uleb128 0x14
 2473 0cd7 16       		.uleb128 0x16
 2474 0cd8 BF010000 		.4byte	.LASF133
 2475 0cdc 11       		.byte	0x11
 2476 0cdd 2301     		.2byte	0x123
 2477 0cdf F5040000 		.4byte	0x4f5
 2478 0ce3 02       		.byte	0x2
 2479 0ce4 23       		.byte	0x23
 2480 0ce5 20       		.uleb128 0x20
 2481 0ce6 16       		.uleb128 0x16
 2482 0ce7 DB050000 		.4byte	.LASF134
 2483 0ceb 11       		.byte	0x11
 2484 0cec 2A01     		.2byte	0x12a
 2485 0cee F5040000 		.4byte	0x4f5
 2486 0cf2 02       		.byte	0x2
 2487 0cf3 23       		.byte	0x23
 2488 0cf4 24       		.uleb128 0x24
ARM GAS  C:\Users\RICHRD~1\AppData\Local\Temp\ccq2u7a9.s 			page 46


 2489 0cf5 16       		.uleb128 0x16
 2490 0cf6 6D040000 		.4byte	.LASF135
 2491 0cfa 11       		.byte	0x11
 2492 0cfb 3001     		.2byte	0x130
 2493 0cfd F5040000 		.4byte	0x4f5
 2494 0d01 02       		.byte	0x2
 2495 0d02 23       		.byte	0x23
 2496 0d03 28       		.uleb128 0x28
 2497 0d04 16       		.uleb128 0x16
 2498 0d05 47040000 		.4byte	.LASF136
 2499 0d09 11       		.byte	0x11
 2500 0d0a 3501     		.2byte	0x135
 2501 0d0c F5040000 		.4byte	0x4f5
 2502 0d10 02       		.byte	0x2
 2503 0d11 23       		.byte	0x23
 2504 0d12 2C       		.uleb128 0x2c
 2505 0d13 16       		.uleb128 0x16
 2506 0d14 04050000 		.4byte	.LASF137
 2507 0d18 11       		.byte	0x11
 2508 0d19 3901     		.2byte	0x139
 2509 0d1b F5040000 		.4byte	0x4f5
 2510 0d1f 02       		.byte	0x2
 2511 0d20 23       		.byte	0x23
 2512 0d21 30       		.uleb128 0x30
 2513 0d22 0D       		.uleb128 0xd
 2514 0d23 63616E00 		.ascii	"can\000"
 2515 0d27 11       		.byte	0x11
 2516 0d28 3F01     		.2byte	0x13f
 2517 0d2a 3D0D0000 		.4byte	0xd3d
 2518 0d2e 02       		.byte	0x2
 2519 0d2f 23       		.byte	0x23
 2520 0d30 34       		.uleb128 0x34
 2521 0d31 00       		.byte	0
 2522 0d32 06       		.uleb128 0x6
 2523 0d33 04       		.byte	0x4
 2524 0d34 380D0000 		.4byte	0xd38
 2525 0d38 07       		.uleb128 0x7
 2526 0d39 860C0000 		.4byte	0xc86
 2527 0d3d 06       		.uleb128 0x6
 2528 0d3e 04       		.byte	0x4
 2529 0d3f E9080000 		.4byte	0x8e9
 2530 0d43 17       		.uleb128 0x17
 2531 0d44 AF030000 		.4byte	.LASF138
 2532 0d48 11       		.byte	0x11
 2533 0d49 4001     		.2byte	0x140
 2534 0d4b 920C0000 		.4byte	0xc92
 2535 0d4f 02       		.uleb128 0x2
 2536 0d50 A0030000 		.4byte	.LASF139
 2537 0d54 12       		.byte	0x12
 2538 0d55 28       		.byte	0x28
 2539 0d56 5A0D0000 		.4byte	0xd5a
 2540 0d5a 08       		.uleb128 0x8
 2541 0d5b 58010000 		.4byte	.LASF140
 2542 0d5f 04       		.byte	0x4
 2543 0d60 13       		.byte	0x13
 2544 0d61 00       		.byte	0
 2545 0d62 740D0000 		.4byte	0xd74
ARM GAS  C:\Users\RICHRD~1\AppData\Local\Temp\ccq2u7a9.s 			page 47


 2546 0d66 1E       		.uleb128 0x1e
 2547 0d67 50060000 		.4byte	.LASF141
 2548 0d6b 7A000000 		.4byte	0x7a
 2549 0d6f 02       		.byte	0x2
 2550 0d70 23       		.byte	0x23
 2551 0d71 00       		.uleb128 0
 2552 0d72 01       		.byte	0x1
 2553 0d73 00       		.byte	0
 2554 0d74 02       		.uleb128 0x2
 2555 0d75 4E000000 		.4byte	.LASF142
 2556 0d79 12       		.byte	0x12
 2557 0d7a 66       		.byte	0x66
 2558 0d7b 4F0D0000 		.4byte	0xd4f
 2559 0d7f 03       		.uleb128 0x3
 2560 0d80 08       		.byte	0x8
 2561 0d81 04       		.byte	0x4
 2562 0d82 8E010000 		.4byte	.LASF143
 2563 0d86 03       		.uleb128 0x3
 2564 0d87 04       		.byte	0x4
 2565 0d88 04       		.byte	0x4
 2566 0d89 79040000 		.4byte	.LASF144
 2567 0d8d 03       		.uleb128 0x3
 2568 0d8e 08       		.byte	0x8
 2569 0d8f 04       		.byte	0x4
 2570 0d90 75030000 		.4byte	.LASF145
 2571 0d94 1F       		.uleb128 0x1f
 2572 0d95 D6060000 		.4byte	.LASF153
 2573 0d99 01       		.byte	0x1
 2574 0d9a 02       		.byte	0x2
 2575 0d9b 2D       		.byte	0x2d
 2576 0d9c CB0D0000 		.4byte	0xdcb
 2577 0da0 1A       		.uleb128 0x1a
 2578 0da1 B9030000 		.4byte	.LASF146
 2579 0da5 00       		.sleb128 0
 2580 0da6 1A       		.uleb128 0x1a
 2581 0da7 8E050000 		.4byte	.LASF147
 2582 0dab 01       		.sleb128 1
 2583 0dac 1A       		.uleb128 0x1a
 2584 0dad 04070000 		.4byte	.LASF148
 2585 0db1 02       		.sleb128 2
 2586 0db2 1A       		.uleb128 0x1a
 2587 0db3 43000000 		.4byte	.LASF149
 2588 0db7 03       		.sleb128 3
 2589 0db8 1A       		.uleb128 0x1a
 2590 0db9 05060000 		.4byte	.LASF150
 2591 0dbd 04       		.sleb128 4
 2592 0dbe 1A       		.uleb128 0x1a
 2593 0dbf 50020000 		.4byte	.LASF151
 2594 0dc3 05       		.sleb128 5
 2595 0dc4 1A       		.uleb128 0x1a
 2596 0dc5 92030000 		.4byte	.LASF152
 2597 0dc9 06       		.sleb128 6
 2598 0dca 00       		.byte	0
 2599 0dcb 1F       		.uleb128 0x1f
 2600 0dcc 72010000 		.4byte	.LASF154
 2601 0dd0 01       		.byte	0x1
 2602 0dd1 02       		.byte	0x2
ARM GAS  C:\Users\RICHRD~1\AppData\Local\Temp\ccq2u7a9.s 			page 48


 2603 0dd2 38       		.byte	0x38
 2604 0dd3 E40D0000 		.4byte	0xde4
 2605 0dd7 1A       		.uleb128 0x1a
 2606 0dd8 4B030000 		.4byte	.LASF155
 2607 0ddc 00       		.sleb128 0
 2608 0ddd 1A       		.uleb128 0x1a
 2609 0dde FF000000 		.4byte	.LASF156
 2610 0de2 01       		.sleb128 1
 2611 0de3 00       		.byte	0
 2612 0de4 20       		.uleb128 0x20
 2613 0de5 B4070000 		.4byte	.LASF191
 2614 0de9 01       		.byte	0x1
 2615 0dea 45       		.byte	0x45
 2616 0deb 01       		.byte	0x1
 2617 0dec 00000000 		.4byte	.LFB118
 2618 0df0 1E000000 		.4byte	.LFE118
 2619 0df4 00000000 		.4byte	.LLST0
 2620 0df8 01       		.byte	0x1
 2621 0df9 470E0000 		.4byte	0xe47
 2622 0dfd 21       		.uleb128 0x21
 2623 0dfe 63687000 		.ascii	"chp\000"
 2624 0e02 01       		.byte	0x1
 2625 0e03 45       		.byte	0x45
 2626 0e04 470E0000 		.4byte	0xe47
 2627 0e08 38000000 		.4byte	.LLST1
 2628 0e0c 22       		.uleb128 0x22
 2629 0e0d 666D7400 		.ascii	"fmt\000"
 2630 0e11 01       		.byte	0x1
 2631 0e12 45       		.byte	0x45
 2632 0e13 90000000 		.4byte	0x90
 2633 0e17 02       		.byte	0x2
 2634 0e18 91       		.byte	0x91
 2635 0e19 74       		.sleb128 -12
 2636 0e1a 23       		.uleb128 0x23
 2637 0e1b 24       		.uleb128 0x24
 2638 0e1c 617000   		.ascii	"ap\000"
 2639 0e1f 01       		.byte	0x1
 2640 0e20 46       		.byte	0x46
 2641 0e21 740D0000 		.4byte	0xd74
 2642 0e25 02       		.byte	0x2
 2643 0e26 91       		.byte	0x91
 2644 0e27 6C       		.sleb128 -20
 2645 0e28 25       		.uleb128 0x25
 2646 0e29 14000000 		.4byte	.LVL1
 2647 0e2d CE130000 		.4byte	0x13ce
 2648 0e31 26       		.uleb128 0x26
 2649 0e32 01       		.byte	0x1
 2650 0e33 52       		.byte	0x52
 2651 0e34 02       		.byte	0x2
 2652 0e35 91       		.byte	0x91
 2653 0e36 60       		.sleb128 -32
 2654 0e37 26       		.uleb128 0x26
 2655 0e38 01       		.byte	0x1
 2656 0e39 51       		.byte	0x51
 2657 0e3a 03       		.byte	0x3
 2658 0e3b 91       		.byte	0x91
 2659 0e3c 5C       		.sleb128 -36
ARM GAS  C:\Users\RICHRD~1\AppData\Local\Temp\ccq2u7a9.s 			page 49


 2660 0e3d 06       		.byte	0x6
 2661 0e3e 26       		.uleb128 0x26
 2662 0e3f 01       		.byte	0x1
 2663 0e40 50       		.byte	0x50
 2664 0e41 03       		.byte	0x3
 2665 0e42 F3       		.byte	0xf3
 2666 0e43 01       		.uleb128 0x1
 2667 0e44 50       		.byte	0x50
 2668 0e45 00       		.byte	0
 2669 0e46 00       		.byte	0
 2670 0e47 06       		.uleb128 0x6
 2671 0e48 04       		.byte	0x4
 2672 0e49 2F060000 		.4byte	0x62f
 2673 0e4d 27       		.uleb128 0x27
 2674 0e4e 12030000 		.4byte	.LASF158
 2675 0e52 02       		.byte	0x2
 2676 0e53 4D       		.byte	0x4d
 2677 0e54 01       		.byte	0x1
 2678 0e55 10010000 		.4byte	0x110
 2679 0e59 00000000 		.4byte	.LFB119
 2680 0e5d D4000000 		.4byte	.LFE119
 2681 0e61 59000000 		.4byte	.LLST2
 2682 0e65 01       		.byte	0x1
 2683 0e66 F50E0000 		.4byte	0xef5
 2684 0e6a 21       		.uleb128 0x21
 2685 0e6b 7000     		.ascii	"p\000"
 2686 0e6d 02       		.byte	0x2
 2687 0e6e 4D       		.byte	0x4d
 2688 0e6f 7A000000 		.4byte	0x7a
 2689 0e73 85000000 		.4byte	.LLST3
 2690 0e77 24       		.uleb128 0x24
 2691 0e78 656C00   		.ascii	"el\000"
 2692 0e7b 02       		.byte	0x2
 2693 0e7c 4E       		.byte	0x4e
 2694 0e7d 84040000 		.4byte	0x484
 2695 0e81 02       		.byte	0x2
 2696 0e82 91       		.byte	0x91
 2697 0e83 58       		.sleb128 -40
 2698 0e84 28       		.uleb128 0x28
 2699 0e85 CC000000 		.4byte	.LASF157
 2700 0e89 02       		.byte	0x2
 2701 0e8a 50       		.byte	0x50
 2702 0e8b 57000000 		.4byte	0x57
 2703 0e8f A6000000 		.4byte	.LLST4
 2704 0e93 29       		.uleb128 0x29
 2705 0e94 1C000000 		.4byte	.LVL4
 2706 0e98 EC130000 		.4byte	0x13ec
 2707 0e9c AC0E0000 		.4byte	0xeac
 2708 0ea0 26       		.uleb128 0x26
 2709 0ea1 01       		.byte	0x1
 2710 0ea2 52       		.byte	0x52
 2711 0ea3 01       		.byte	0x1
 2712 0ea4 31       		.byte	0x31
 2713 0ea5 26       		.uleb128 0x26
 2714 0ea6 01       		.byte	0x1
 2715 0ea7 51       		.byte	0x51
 2716 0ea8 02       		.byte	0x2
ARM GAS  C:\Users\RICHRD~1\AppData\Local\Temp\ccq2u7a9.s 			page 50


 2717 0ea9 7D       		.byte	0x7d
 2718 0eaa 00       		.sleb128 0
 2719 0eab 00       		.byte	0
 2720 0eac 29       		.uleb128 0x29
 2721 0ead 3E000000 		.4byte	.LVL5
 2722 0eb1 10140000 		.4byte	0x1410
 2723 0eb5 C60E0000 		.4byte	0xec6
 2724 0eb9 26       		.uleb128 0x26
 2725 0eba 01       		.byte	0x1
 2726 0ebb 51       		.byte	0x51
 2727 0ebc 02       		.byte	0x2
 2728 0ebd 08       		.byte	0x8
 2729 0ebe 64       		.byte	0x64
 2730 0ebf 26       		.uleb128 0x26
 2731 0ec0 01       		.byte	0x1
 2732 0ec1 50       		.byte	0x50
 2733 0ec2 02       		.byte	0x2
 2734 0ec3 09       		.byte	0x9
 2735 0ec4 FF       		.byte	0xff
 2736 0ec5 00       		.byte	0
 2737 0ec6 29       		.uleb128 0x29
 2738 0ec7 4E000000 		.4byte	.LVL6
 2739 0ecb 2D140000 		.4byte	0x142d
 2740 0ecf E40E0000 		.4byte	0xee4
 2741 0ed3 26       		.uleb128 0x26
 2742 0ed4 01       		.byte	0x1
 2743 0ed5 53       		.byte	0x53
 2744 0ed6 01       		.byte	0x1
 2745 0ed7 30       		.byte	0x30
 2746 0ed8 26       		.uleb128 0x26
 2747 0ed9 01       		.byte	0x1
 2748 0eda 52       		.byte	0x52
 2749 0edb 02       		.byte	0x2
 2750 0edc 74       		.byte	0x74
 2751 0edd 00       		.sleb128 0
 2752 0ede 26       		.uleb128 0x26
 2753 0edf 01       		.byte	0x1
 2754 0ee0 51       		.byte	0x51
 2755 0ee1 01       		.byte	0x1
 2756 0ee2 30       		.byte	0x30
 2757 0ee3 00       		.byte	0
 2758 0ee4 25       		.uleb128 0x25
 2759 0ee5 AC000000 		.4byte	.LVL9
 2760 0ee9 60140000 		.4byte	0x1460
 2761 0eed 26       		.uleb128 0x26
 2762 0eee 01       		.byte	0x1
 2763 0eef 51       		.byte	0x51
 2764 0ef0 02       		.byte	0x2
 2765 0ef1 7D       		.byte	0x7d
 2766 0ef2 00       		.sleb128 0
 2767 0ef3 00       		.byte	0
 2768 0ef4 00       		.byte	0
 2769 0ef5 27       		.uleb128 0x27
 2770 0ef6 A4050000 		.4byte	.LASF159
 2771 0efa 02       		.byte	0x2
 2772 0efb A1       		.byte	0xa1
 2773 0efc 01       		.byte	0x1
ARM GAS  C:\Users\RICHRD~1\AppData\Local\Temp\ccq2u7a9.s 			page 51


 2774 0efd 10010000 		.4byte	0x110
 2775 0f01 00000000 		.4byte	.LFB120
 2776 0f05 78000000 		.4byte	.LFE120
 2777 0f09 BA000000 		.4byte	.LLST5
 2778 0f0d 01       		.byte	0x1
 2779 0f0e AB0F0000 		.4byte	0xfab
 2780 0f12 21       		.uleb128 0x21
 2781 0f13 7000     		.ascii	"p\000"
 2782 0f15 02       		.byte	0x2
 2783 0f16 A1       		.byte	0xa1
 2784 0f17 7A000000 		.4byte	0x7a
 2785 0f1b DA000000 		.4byte	.LLST6
 2786 0f1f 28       		.uleb128 0x28
 2787 0f20 3D070000 		.4byte	.LASF160
 2788 0f24 02       		.byte	0x2
 2789 0f25 A6       		.byte	0xa6
 2790 0f26 57000000 		.4byte	0x57
 2791 0f2a FB000000 		.4byte	.LLST7
 2792 0f2e 29       		.uleb128 0x29
 2793 0f2f 28000000 		.4byte	.LVL13
 2794 0f33 79140000 		.4byte	0x1479
 2795 0f37 410F0000 		.4byte	0xf41
 2796 0f3b 26       		.uleb128 0x26
 2797 0f3c 01       		.byte	0x1
 2798 0f3d 50       		.byte	0x50
 2799 0f3e 01       		.byte	0x1
 2800 0f3f 30       		.byte	0x30
 2801 0f40 00       		.byte	0
 2802 0f41 29       		.uleb128 0x29
 2803 0f42 30000000 		.4byte	.LVL14
 2804 0f46 79140000 		.4byte	0x1479
 2805 0f4a 540F0000 		.4byte	0xf54
 2806 0f4e 26       		.uleb128 0x26
 2807 0f4f 01       		.byte	0x1
 2808 0f50 50       		.byte	0x50
 2809 0f51 01       		.byte	0x1
 2810 0f52 31       		.byte	0x31
 2811 0f53 00       		.byte	0
 2812 0f54 29       		.uleb128 0x29
 2813 0f55 38000000 		.4byte	.LVL15
 2814 0f59 79140000 		.4byte	0x1479
 2815 0f5d 670F0000 		.4byte	0xf67
 2816 0f61 26       		.uleb128 0x26
 2817 0f62 01       		.byte	0x1
 2818 0f63 50       		.byte	0x50
 2819 0f64 01       		.byte	0x1
 2820 0f65 32       		.byte	0x32
 2821 0f66 00       		.byte	0
 2822 0f67 29       		.uleb128 0x29
 2823 0f68 40000000 		.4byte	.LVL16
 2824 0f6c 79140000 		.4byte	0x1479
 2825 0f70 7A0F0000 		.4byte	0xf7a
 2826 0f74 26       		.uleb128 0x26
 2827 0f75 01       		.byte	0x1
 2828 0f76 50       		.byte	0x50
 2829 0f77 01       		.byte	0x1
 2830 0f78 33       		.byte	0x33
ARM GAS  C:\Users\RICHRD~1\AppData\Local\Temp\ccq2u7a9.s 			page 52


 2831 0f79 00       		.byte	0
 2832 0f7a 29       		.uleb128 0x29
 2833 0f7b 4E000000 		.4byte	.LVL17
 2834 0f7f 91140000 		.4byte	0x1491
 2835 0f83 990F0000 		.4byte	0xf99
 2836 0f87 26       		.uleb128 0x26
 2837 0f88 01       		.byte	0x1
 2838 0f89 53       		.byte	0x53
 2839 0f8a 02       		.byte	0x2
 2840 0f8b 08       		.byte	0x8
 2841 0f8c 64       		.byte	0x64
 2842 0f8d 26       		.uleb128 0x26
 2843 0f8e 01       		.byte	0x1
 2844 0f8f 52       		.byte	0x52
 2845 0f90 02       		.byte	0x2
 2846 0f91 74       		.byte	0x74
 2847 0f92 00       		.sleb128 0
 2848 0f93 26       		.uleb128 0x26
 2849 0f94 01       		.byte	0x1
 2850 0f95 51       		.byte	0x51
 2851 0f96 01       		.byte	0x1
 2852 0f97 30       		.byte	0x30
 2853 0f98 00       		.byte	0
 2854 0f99 25       		.uleb128 0x25
 2855 0f9a 56000000 		.4byte	.LVL18
 2856 0f9e C3140000 		.4byte	0x14c3
 2857 0fa2 26       		.uleb128 0x26
 2858 0fa3 01       		.byte	0x1
 2859 0fa4 50       		.byte	0x50
 2860 0fa5 03       		.byte	0x3
 2861 0fa6 0A       		.byte	0xa
 2862 0fa7 E803     		.2byte	0x3e8
 2863 0fa9 00       		.byte	0
 2864 0faa 00       		.byte	0
 2865 0fab 2A       		.uleb128 0x2a
 2866 0fac 01       		.byte	0x1
 2867 0fad 7F040000 		.4byte	.LASF161
 2868 0fb1 02       		.byte	0x2
 2869 0fb2 C0       		.byte	0xc0
 2870 0fb3 01       		.byte	0x1
 2871 0fb4 00000000 		.4byte	.LFB121
 2872 0fb8 70000000 		.4byte	.LFE121
 2873 0fbc 1B010000 		.4byte	.LLST8
 2874 0fc0 01       		.byte	0x1
 2875 0fc1 41100000 		.4byte	0x1041
 2876 0fc5 29       		.uleb128 0x29
 2877 0fc6 32000000 		.4byte	.LVL20
 2878 0fca D8140000 		.4byte	0x14d8
 2879 0fce DC0F0000 		.4byte	0xfdc
 2880 0fd2 26       		.uleb128 0x26
 2881 0fd3 01       		.byte	0x1
 2882 0fd4 51       		.byte	0x51
 2883 0fd5 05       		.byte	0x5
 2884 0fd6 03       		.byte	0x3
 2885 0fd7 00000000 		.4byte	.LANCHOR5
 2886 0fdb 00       		.byte	0
 2887 0fdc 29       		.uleb128 0x29
ARM GAS  C:\Users\RICHRD~1\AppData\Local\Temp\ccq2u7a9.s 			page 53


 2888 0fdd 50000000 		.4byte	.LVL21
 2889 0fe1 F1140000 		.4byte	0x14f1
 2890 0fe5 10100000 		.4byte	0x1010
 2891 0fe9 26       		.uleb128 0x26
 2892 0fea 01       		.byte	0x1
 2893 0feb 53       		.byte	0x53
 2894 0fec 05       		.byte	0x5
 2895 0fed 03       		.byte	0x3
 2896 0fee 00000000 		.4byte	can_tx
 2897 0ff2 26       		.uleb128 0x26
 2898 0ff3 01       		.byte	0x1
 2899 0ff4 52       		.byte	0x52
 2900 0ff5 02       		.byte	0x2
 2901 0ff6 08       		.byte	0x8
 2902 0ff7 47       		.byte	0x47
 2903 0ff8 26       		.uleb128 0x26
 2904 0ff9 01       		.byte	0x1
 2905 0ffa 51       		.byte	0x51
 2906 0ffb 03       		.byte	0x3
 2907 0ffc 0A       		.byte	0xa
 2908 0ffd D001     		.2byte	0x1d0
 2909 0fff 26       		.uleb128 0x26
 2910 1000 01       		.byte	0x1
 2911 1001 50       		.byte	0x50
 2912 1002 05       		.byte	0x5
 2913 1003 03       		.byte	0x3
 2914 1004 00000000 		.4byte	.LANCHOR6
 2915 1008 26       		.uleb128 0x26
 2916 1009 02       		.byte	0x2
 2917 100a 7D       		.byte	0x7d
 2918 100b 00       		.sleb128 0
 2919 100c 02       		.byte	0x2
 2920 100d 74       		.byte	0x74
 2921 100e 00       		.sleb128 0
 2922 100f 00       		.byte	0
 2923 1010 25       		.uleb128 0x25
 2924 1011 6C000000 		.4byte	.LVL22
 2925 1015 F1140000 		.4byte	0x14f1
 2926 1019 26       		.uleb128 0x26
 2927 101a 01       		.byte	0x1
 2928 101b 53       		.byte	0x53
 2929 101c 05       		.byte	0x5
 2930 101d 03       		.byte	0x3
 2931 101e 00000000 		.4byte	can_rx
 2932 1022 26       		.uleb128 0x26
 2933 1023 01       		.byte	0x1
 2934 1024 52       		.byte	0x52
 2935 1025 02       		.byte	0x2
 2936 1026 08       		.byte	0x8
 2937 1027 40       		.byte	0x40
 2938 1028 26       		.uleb128 0x26
 2939 1029 01       		.byte	0x1
 2940 102a 51       		.byte	0x51
 2941 102b 03       		.byte	0x3
 2942 102c 0A       		.byte	0xa
 2943 102d D001     		.2byte	0x1d0
 2944 102f 26       		.uleb128 0x26
ARM GAS  C:\Users\RICHRD~1\AppData\Local\Temp\ccq2u7a9.s 			page 54


 2945 1030 01       		.byte	0x1
 2946 1031 50       		.byte	0x50
 2947 1032 05       		.byte	0x5
 2948 1033 03       		.byte	0x3
 2949 1034 00000000 		.4byte	.LANCHOR7
 2950 1038 26       		.uleb128 0x26
 2951 1039 02       		.byte	0x2
 2952 103a 7D       		.byte	0x7d
 2953 103b 00       		.sleb128 0
 2954 103c 02       		.byte	0x2
 2955 103d 74       		.byte	0x74
 2956 103e 00       		.sleb128 0
 2957 103f 00       		.byte	0
 2958 1040 00       		.byte	0
 2959 1041 2A       		.uleb128 0x2a
 2960 1042 01       		.byte	0x1
 2961 1043 0E000000 		.4byte	.LASF162
 2962 1047 02       		.byte	0x2
 2963 1048 CB       		.byte	0xcb
 2964 1049 01       		.byte	0x1
 2965 104a 00000000 		.4byte	.LFB122
 2966 104e 40010000 		.4byte	.LFE122
 2967 1052 47010000 		.4byte	.LLST9
 2968 1056 01       		.byte	0x1
 2969 1057 DF120000 		.4byte	0x12df
 2970 105b 21       		.uleb128 0x21
 2971 105c 63687000 		.ascii	"chp\000"
 2972 1060 02       		.byte	0x2
 2973 1061 CB       		.byte	0xcb
 2974 1062 470E0000 		.4byte	0xe47
 2975 1066 67010000 		.4byte	.LLST10
 2976 106a 2B       		.uleb128 0x2b
 2977 106b 38070000 		.4byte	.LASF163
 2978 106f 02       		.byte	0x2
 2979 1070 CB       		.byte	0xcb
 2980 1071 57000000 		.4byte	0x57
 2981 1075 A6010000 		.4byte	.LLST11
 2982 1079 2B       		.uleb128 0x2b
 2983 107a 69070000 		.4byte	.LASF164
 2984 107e 02       		.byte	0x2
 2985 107f CB       		.byte	0xcb
 2986 1080 DF120000 		.4byte	0x12df
 2987 1084 C7010000 		.4byte	.LLST12
 2988 1088 29       		.uleb128 0x29
 2989 1089 0E000000 		.4byte	.LVL25
 2990 108d E40D0000 		.4byte	0xde4
 2991 1091 A5100000 		.4byte	0x10a5
 2992 1095 26       		.uleb128 0x26
 2993 1096 01       		.byte	0x1
 2994 1097 51       		.byte	0x51
 2995 1098 05       		.byte	0x5
 2996 1099 03       		.byte	0x3
 2997 109a 18000000 		.4byte	.LC2
 2998 109e 26       		.uleb128 0x26
 2999 109f 01       		.byte	0x1
 3000 10a0 50       		.byte	0x50
 3001 10a1 02       		.byte	0x2
ARM GAS  C:\Users\RICHRD~1\AppData\Local\Temp\ccq2u7a9.s 			page 55


 3002 10a2 74       		.byte	0x74
 3003 10a3 00       		.sleb128 0
 3004 10a4 00       		.byte	0
 3005 10a5 29       		.uleb128 0x29
 3006 10a6 16000000 		.4byte	.LVL26
 3007 10aa E40D0000 		.4byte	0xde4
 3008 10ae C2100000 		.4byte	0x10c2
 3009 10b2 26       		.uleb128 0x26
 3010 10b3 01       		.byte	0x1
 3011 10b4 51       		.byte	0x51
 3012 10b5 05       		.byte	0x5
 3013 10b6 03       		.byte	0x3
 3014 10b7 1C000000 		.4byte	.LC3
 3015 10bb 26       		.uleb128 0x26
 3016 10bc 01       		.byte	0x1
 3017 10bd 50       		.byte	0x50
 3018 10be 02       		.byte	0x2
 3019 10bf 74       		.byte	0x74
 3020 10c0 00       		.sleb128 0
 3021 10c1 00       		.byte	0
 3022 10c2 2C       		.uleb128 0x2c
 3023 10c3 1C000000 		.4byte	.LVL28
 3024 10c7 E40D0000 		.4byte	0xde4
 3025 10cb 29       		.uleb128 0x29
 3026 10cc 24000000 		.4byte	.LVL29
 3027 10d0 E40D0000 		.4byte	0xde4
 3028 10d4 E8100000 		.4byte	0x10e8
 3029 10d8 26       		.uleb128 0x26
 3030 10d9 01       		.byte	0x1
 3031 10da 51       		.byte	0x51
 3032 10db 05       		.byte	0x5
 3033 10dc 03       		.byte	0x3
 3034 10dd 30000000 		.4byte	.LC5
 3035 10e1 26       		.uleb128 0x26
 3036 10e2 01       		.byte	0x1
 3037 10e3 50       		.byte	0x50
 3038 10e4 02       		.byte	0x2
 3039 10e5 74       		.byte	0x74
 3040 10e6 00       		.sleb128 0
 3041 10e7 00       		.byte	0
 3042 10e8 29       		.uleb128 0x29
 3043 10e9 32000000 		.4byte	.LVL30
 3044 10ed E40D0000 		.4byte	0xde4
 3045 10f1 05110000 		.4byte	0x1105
 3046 10f5 26       		.uleb128 0x26
 3047 10f6 01       		.byte	0x1
 3048 10f7 51       		.byte	0x51
 3049 10f8 05       		.byte	0x5
 3050 10f9 03       		.byte	0x3
 3051 10fa 54000000 		.4byte	.LC6
 3052 10fe 26       		.uleb128 0x26
 3053 10ff 01       		.byte	0x1
 3054 1100 50       		.byte	0x50
 3055 1101 02       		.byte	0x2
 3056 1102 74       		.byte	0x74
 3057 1103 00       		.sleb128 0
 3058 1104 00       		.byte	0
ARM GAS  C:\Users\RICHRD~1\AppData\Local\Temp\ccq2u7a9.s 			page 56


 3059 1105 29       		.uleb128 0x29
 3060 1106 3C000000 		.4byte	.LVL31
 3061 110a E40D0000 		.4byte	0xde4
 3062 110e 22110000 		.4byte	0x1122
 3063 1112 26       		.uleb128 0x26
 3064 1113 01       		.byte	0x1
 3065 1114 51       		.byte	0x51
 3066 1115 05       		.byte	0x5
 3067 1116 03       		.byte	0x3
 3068 1117 64000000 		.4byte	.LC7
 3069 111b 26       		.uleb128 0x26
 3070 111c 01       		.byte	0x1
 3071 111d 50       		.byte	0x50
 3072 111e 02       		.byte	0x2
 3073 111f 74       		.byte	0x74
 3074 1120 00       		.sleb128 0
 3075 1121 00       		.byte	0
 3076 1122 29       		.uleb128 0x29
 3077 1123 48000000 		.4byte	.LVL32
 3078 1127 E40D0000 		.4byte	0xde4
 3079 112b 3F110000 		.4byte	0x113f
 3080 112f 26       		.uleb128 0x26
 3081 1130 01       		.byte	0x1
 3082 1131 51       		.byte	0x51
 3083 1132 05       		.byte	0x5
 3084 1133 03       		.byte	0x3
 3085 1134 70000000 		.4byte	.LC8
 3086 1138 26       		.uleb128 0x26
 3087 1139 01       		.byte	0x1
 3088 113a 50       		.byte	0x50
 3089 113b 02       		.byte	0x2
 3090 113c 74       		.byte	0x74
 3091 113d 00       		.sleb128 0
 3092 113e 00       		.byte	0
 3093 113f 29       		.uleb128 0x29
 3094 1140 50000000 		.4byte	.LVL33
 3095 1144 E40D0000 		.4byte	0xde4
 3096 1148 5C110000 		.4byte	0x115c
 3097 114c 26       		.uleb128 0x26
 3098 114d 01       		.byte	0x1
 3099 114e 51       		.byte	0x51
 3100 114f 05       		.byte	0x5
 3101 1150 03       		.byte	0x3
 3102 1151 84000000 		.4byte	.LC9
 3103 1155 26       		.uleb128 0x26
 3104 1156 01       		.byte	0x1
 3105 1157 50       		.byte	0x50
 3106 1158 02       		.byte	0x2
 3107 1159 74       		.byte	0x74
 3108 115a 00       		.sleb128 0
 3109 115b 00       		.byte	0
 3110 115c 29       		.uleb128 0x29
 3111 115d 5A000000 		.4byte	.LVL34
 3112 1161 E40D0000 		.4byte	0xde4
 3113 1165 79110000 		.4byte	0x1179
 3114 1169 26       		.uleb128 0x26
 3115 116a 01       		.byte	0x1
ARM GAS  C:\Users\RICHRD~1\AppData\Local\Temp\ccq2u7a9.s 			page 57


 3116 116b 51       		.byte	0x51
 3117 116c 05       		.byte	0x5
 3118 116d 03       		.byte	0x3
 3119 116e 88000000 		.4byte	.LC10
 3120 1172 26       		.uleb128 0x26
 3121 1173 01       		.byte	0x1
 3122 1174 50       		.byte	0x50
 3123 1175 02       		.byte	0x2
 3124 1176 74       		.byte	0x74
 3125 1177 00       		.sleb128 0
 3126 1178 00       		.byte	0
 3127 1179 29       		.uleb128 0x29
 3128 117a 64000000 		.4byte	.LVL35
 3129 117e E40D0000 		.4byte	0xde4
 3130 1182 96110000 		.4byte	0x1196
 3131 1186 26       		.uleb128 0x26
 3132 1187 01       		.byte	0x1
 3133 1188 51       		.byte	0x51
 3134 1189 05       		.byte	0x5
 3135 118a 03       		.byte	0x3
 3136 118b 9C000000 		.4byte	.LC11
 3137 118f 26       		.uleb128 0x26
 3138 1190 01       		.byte	0x1
 3139 1191 50       		.byte	0x50
 3140 1192 02       		.byte	0x2
 3141 1193 74       		.byte	0x74
 3142 1194 00       		.sleb128 0
 3143 1195 00       		.byte	0
 3144 1196 29       		.uleb128 0x29
 3145 1197 6E000000 		.4byte	.LVL36
 3146 119b E40D0000 		.4byte	0xde4
 3147 119f B3110000 		.4byte	0x11b3
 3148 11a3 26       		.uleb128 0x26
 3149 11a4 01       		.byte	0x1
 3150 11a5 51       		.byte	0x51
 3151 11a6 05       		.byte	0x5
 3152 11a7 03       		.byte	0x3
 3153 11a8 B0000000 		.4byte	.LC12
 3154 11ac 26       		.uleb128 0x26
 3155 11ad 01       		.byte	0x1
 3156 11ae 50       		.byte	0x50
 3157 11af 02       		.byte	0x2
 3158 11b0 74       		.byte	0x74
 3159 11b1 00       		.sleb128 0
 3160 11b2 00       		.byte	0
 3161 11b3 29       		.uleb128 0x29
 3162 11b4 78000000 		.4byte	.LVL37
 3163 11b8 E40D0000 		.4byte	0xde4
 3164 11bc D0110000 		.4byte	0x11d0
 3165 11c0 26       		.uleb128 0x26
 3166 11c1 01       		.byte	0x1
 3167 11c2 51       		.byte	0x51
 3168 11c3 05       		.byte	0x5
 3169 11c4 03       		.byte	0x3
 3170 11c5 C4000000 		.4byte	.LC13
 3171 11c9 26       		.uleb128 0x26
 3172 11ca 01       		.byte	0x1
ARM GAS  C:\Users\RICHRD~1\AppData\Local\Temp\ccq2u7a9.s 			page 58


 3173 11cb 50       		.byte	0x50
 3174 11cc 02       		.byte	0x2
 3175 11cd 74       		.byte	0x74
 3176 11ce 00       		.sleb128 0
 3177 11cf 00       		.byte	0
 3178 11d0 29       		.uleb128 0x29
 3179 11d1 80000000 		.4byte	.LVL38
 3180 11d5 E40D0000 		.4byte	0xde4
 3181 11d9 ED110000 		.4byte	0x11ed
 3182 11dd 26       		.uleb128 0x26
 3183 11de 01       		.byte	0x1
 3184 11df 51       		.byte	0x51
 3185 11e0 05       		.byte	0x5
 3186 11e1 03       		.byte	0x3
 3187 11e2 84000000 		.4byte	.LC9
 3188 11e6 26       		.uleb128 0x26
 3189 11e7 01       		.byte	0x1
 3190 11e8 50       		.byte	0x50
 3191 11e9 02       		.byte	0x2
 3192 11ea 74       		.byte	0x74
 3193 11eb 00       		.sleb128 0
 3194 11ec 00       		.byte	0
 3195 11ed 29       		.uleb128 0x29
 3196 11ee 88000000 		.4byte	.LVL39
 3197 11f2 E40D0000 		.4byte	0xde4
 3198 11f6 0A120000 		.4byte	0x120a
 3199 11fa 26       		.uleb128 0x26
 3200 11fb 01       		.byte	0x1
 3201 11fc 51       		.byte	0x51
 3202 11fd 05       		.byte	0x5
 3203 11fe 03       		.byte	0x3
 3204 11ff D8000000 		.4byte	.LC14
 3205 1203 26       		.uleb128 0x26
 3206 1204 01       		.byte	0x1
 3207 1205 50       		.byte	0x50
 3208 1206 02       		.byte	0x2
 3209 1207 74       		.byte	0x74
 3210 1208 00       		.sleb128 0
 3211 1209 00       		.byte	0
 3212 120a 29       		.uleb128 0x29
 3213 120b 96000000 		.4byte	.LVL40
 3214 120f E40D0000 		.4byte	0xde4
 3215 1213 27120000 		.4byte	0x1227
 3216 1217 26       		.uleb128 0x26
 3217 1218 01       		.byte	0x1
 3218 1219 51       		.byte	0x51
 3219 121a 05       		.byte	0x5
 3220 121b 03       		.byte	0x3
 3221 121c 00010000 		.4byte	.LC15
 3222 1220 26       		.uleb128 0x26
 3223 1221 01       		.byte	0x1
 3224 1222 50       		.byte	0x50
 3225 1223 02       		.byte	0x2
 3226 1224 74       		.byte	0x74
 3227 1225 00       		.sleb128 0
 3228 1226 00       		.byte	0
 3229 1227 29       		.uleb128 0x29
ARM GAS  C:\Users\RICHRD~1\AppData\Local\Temp\ccq2u7a9.s 			page 59


 3230 1228 9E000000 		.4byte	.LVL41
 3231 122c E40D0000 		.4byte	0xde4
 3232 1230 44120000 		.4byte	0x1244
 3233 1234 26       		.uleb128 0x26
 3234 1235 01       		.byte	0x1
 3235 1236 51       		.byte	0x51
 3236 1237 05       		.byte	0x5
 3237 1238 03       		.byte	0x3
 3238 1239 84000000 		.4byte	.LC9
 3239 123d 26       		.uleb128 0x26
 3240 123e 01       		.byte	0x1
 3241 123f 50       		.byte	0x50
 3242 1240 02       		.byte	0x2
 3243 1241 74       		.byte	0x74
 3244 1242 00       		.sleb128 0
 3245 1243 00       		.byte	0
 3246 1244 29       		.uleb128 0x29
 3247 1245 A8000000 		.4byte	.LVL42
 3248 1249 E40D0000 		.4byte	0xde4
 3249 124d 61120000 		.4byte	0x1261
 3250 1251 26       		.uleb128 0x26
 3251 1252 01       		.byte	0x1
 3252 1253 51       		.byte	0x51
 3253 1254 05       		.byte	0x5
 3254 1255 03       		.byte	0x3
 3255 1256 10010000 		.4byte	.LC16
 3256 125a 26       		.uleb128 0x26
 3257 125b 01       		.byte	0x1
 3258 125c 50       		.byte	0x50
 3259 125d 02       		.byte	0x2
 3260 125e 74       		.byte	0x74
 3261 125f 00       		.sleb128 0
 3262 1260 00       		.byte	0
 3263 1261 29       		.uleb128 0x29
 3264 1262 B2000000 		.4byte	.LVL43
 3265 1266 E40D0000 		.4byte	0xde4
 3266 126a 7E120000 		.4byte	0x127e
 3267 126e 26       		.uleb128 0x26
 3268 126f 01       		.byte	0x1
 3269 1270 51       		.byte	0x51
 3270 1271 05       		.byte	0x5
 3271 1272 03       		.byte	0x3
 3272 1273 24010000 		.4byte	.LC17
 3273 1277 26       		.uleb128 0x26
 3274 1278 01       		.byte	0x1
 3275 1279 50       		.byte	0x50
 3276 127a 02       		.byte	0x2
 3277 127b 74       		.byte	0x74
 3278 127c 00       		.sleb128 0
 3279 127d 00       		.byte	0
 3280 127e 29       		.uleb128 0x29
 3281 127f BC000000 		.4byte	.LVL44
 3282 1283 E40D0000 		.4byte	0xde4
 3283 1287 9B120000 		.4byte	0x129b
 3284 128b 26       		.uleb128 0x26
 3285 128c 01       		.byte	0x1
 3286 128d 51       		.byte	0x51
ARM GAS  C:\Users\RICHRD~1\AppData\Local\Temp\ccq2u7a9.s 			page 60


 3287 128e 05       		.byte	0x5
 3288 128f 03       		.byte	0x3
 3289 1290 38010000 		.4byte	.LC18
 3290 1294 26       		.uleb128 0x26
 3291 1295 01       		.byte	0x1
 3292 1296 50       		.byte	0x50
 3293 1297 02       		.byte	0x2
 3294 1298 74       		.byte	0x74
 3295 1299 00       		.sleb128 0
 3296 129a 00       		.byte	0
 3297 129b 29       		.uleb128 0x29
 3298 129c C6000000 		.4byte	.LVL45
 3299 12a0 E40D0000 		.4byte	0xde4
 3300 12a4 B8120000 		.4byte	0x12b8
 3301 12a8 26       		.uleb128 0x26
 3302 12a9 01       		.byte	0x1
 3303 12aa 51       		.byte	0x51
 3304 12ab 05       		.byte	0x5
 3305 12ac 03       		.byte	0x3
 3306 12ad 4C010000 		.4byte	.LC19
 3307 12b1 26       		.uleb128 0x26
 3308 12b2 01       		.byte	0x1
 3309 12b3 50       		.byte	0x50
 3310 12b4 02       		.byte	0x2
 3311 12b5 74       		.byte	0x74
 3312 12b6 00       		.sleb128 0
 3313 12b7 00       		.byte	0
 3314 12b8 29       		.uleb128 0x29
 3315 12b9 CE000000 		.4byte	.LVL46
 3316 12bd C3140000 		.4byte	0x14c3
 3317 12c1 CD120000 		.4byte	0x12cd
 3318 12c5 26       		.uleb128 0x26
 3319 12c6 01       		.byte	0x1
 3320 12c7 50       		.byte	0x50
 3321 12c8 03       		.byte	0x3
 3322 12c9 0A       		.byte	0xa
 3323 12ca E803     		.2byte	0x3e8
 3324 12cc 00       		.byte	0
 3325 12cd 2D       		.uleb128 0x2d
 3326 12ce DA000000 		.4byte	.LVL47
 3327 12d2 26       		.uleb128 0x26
 3328 12d3 01       		.byte	0x1
 3329 12d4 51       		.byte	0x51
 3330 12d5 01       		.byte	0x1
 3331 12d6 30       		.byte	0x30
 3332 12d7 26       		.uleb128 0x26
 3333 12d8 01       		.byte	0x1
 3334 12d9 50       		.byte	0x50
 3335 12da 02       		.byte	0x2
 3336 12db 74       		.byte	0x74
 3337 12dc 00       		.sleb128 0
 3338 12dd 00       		.byte	0
 3339 12de 00       		.byte	0
 3340 12df 06       		.uleb128 0x6
 3341 12e0 04       		.byte	0x4
 3342 12e1 83000000 		.4byte	0x83
 3343 12e5 2E       		.uleb128 0x2e
ARM GAS  C:\Users\RICHRD~1\AppData\Local\Temp\ccq2u7a9.s 			page 61


 3344 12e6 71000000 		.4byte	.LASF165
 3345 12ea 02       		.byte	0x2
 3346 12eb 3E       		.byte	0x3e
 3347 12ec 4F0B0000 		.4byte	0xb4f
 3348 12f0 05       		.byte	0x5
 3349 12f1 03       		.byte	0x3
 3350 12f2 00000000 		.4byte	txmsg
 3351 12f6 2E       		.uleb128 0x2e
 3352 12f7 00000000 		.4byte	.LASF166
 3353 12fb 02       		.byte	0x2
 3354 12fc 3F       		.byte	0x3f
 3355 12fd 550C0000 		.4byte	0xc55
 3356 1301 05       		.byte	0x5
 3357 1302 03       		.byte	0x3
 3358 1303 00000000 		.4byte	rxmsg
 3359 1307 2E       		.uleb128 0x2e
 3360 1308 8B030000 		.4byte	.LASF167
 3361 130c 02       		.byte	0x2
 3362 130d 41       		.byte	0x41
 3363 130e 380D0000 		.4byte	0xd38
 3364 1312 05       		.byte	0x5
 3365 1313 03       		.byte	0x3
 3366 1314 00000000 		.4byte	cancfg
 3367 1318 24       		.uleb128 0x24
 3368 1319 696400   		.ascii	"id\000"
 3369 131c 02       		.byte	0x2
 3370 131d 47       		.byte	0x47
 3371 131e A6000000 		.4byte	0xa6
 3372 1322 05       		.byte	0x5
 3373 1323 03       		.byte	0x3
 3374 1324 00000000 		.4byte	id
 3375 1328 2E       		.uleb128 0x2e
 3376 1329 69010000 		.4byte	.LASF168
 3377 132d 02       		.byte	0x2
 3378 132e 48       		.byte	0x48
 3379 132f A6000000 		.4byte	0xa6
 3380 1333 05       		.byte	0x5
 3381 1334 03       		.byte	0x3
 3382 1335 00000000 		.4byte	messages
 3383 1339 2F       		.uleb128 0x2f
 3384 133a EA060000 		.4byte	.LASF169
 3385 133e 02       		.byte	0x2
 3386 133f 49       		.byte	0x49
 3387 1340 A6000000 		.4byte	0xa6
 3388 1344 2F       		.uleb128 0x2f
 3389 1345 95010000 		.4byte	.LASF170
 3390 1349 02       		.byte	0x2
 3391 134a 4A       		.byte	0x4a
 3392 134b A6000000 		.4byte	0xa6
 3393 134f 13       		.uleb128 0x13
 3394 1350 DA020000 		.4byte	0x2da
 3395 1354 5F130000 		.4byte	0x135f
 3396 1358 14       		.uleb128 0x14
 3397 1359 73000000 		.4byte	0x73
 3398 135d 39       		.byte	0x39
 3399 135e 00       		.byte	0
 3400 135f 2E       		.uleb128 0x2e
ARM GAS  C:\Users\RICHRD~1\AppData\Local\Temp\ccq2u7a9.s 			page 62


 3401 1360 19030000 		.4byte	.LASF171
 3402 1364 02       		.byte	0x2
 3403 1365 4C       		.byte	0x4c
 3404 1366 4F130000 		.4byte	0x134f
 3405 136a 05       		.byte	0x5
 3406 136b 03       		.byte	0x3
 3407 136c 00000000 		.4byte	can_rx_wa
 3408 1370 2E       		.uleb128 0x2e
 3409 1371 AB050000 		.4byte	.LASF172
 3410 1375 02       		.byte	0x2
 3411 1376 A0       		.byte	0xa0
 3412 1377 4F130000 		.4byte	0x134f
 3413 137b 05       		.byte	0x5
 3414 137c 03       		.byte	0x3
 3415 137d 00000000 		.4byte	can_tx_wa
 3416 1381 30       		.uleb128 0x30
 3417 1382 E9010000 		.4byte	.LASF173
 3418 1386 09       		.byte	0x9
 3419 1387 6F       		.byte	0x6f
 3420 1388 FD030000 		.4byte	0x3fd
 3421 138c 01       		.byte	0x1
 3422 138d 01       		.byte	0x1
 3423 138e 31       		.uleb128 0x31
 3424 138f 1D050000 		.4byte	.LASF174
 3425 1393 14       		.byte	0x14
 3426 1394 9806     		.2byte	0x698
 3427 1396 5A060000 		.4byte	0x65a
 3428 139a 01       		.byte	0x1
 3429 139b 01       		.byte	0x1
 3430 139c 31       		.uleb128 0x31
 3431 139d 28020000 		.4byte	.LASF175
 3432 13a1 11       		.byte	0x11
 3433 13a2 4B01     		.2byte	0x14b
 3434 13a4 430D0000 		.4byte	0xd43
 3435 13a8 01       		.byte	0x1
 3436 13a9 01       		.byte	0x1
 3437 13aa 32       		.uleb128 0x32
 3438 13ab 98050000 		.4byte	.LASF176
 3439 13af 02       		.byte	0x2
 3440 13b0 36       		.byte	0x36
 3441 13b1 940D0000 		.4byte	0xd94
 3442 13b5 01       		.byte	0x1
 3443 13b6 05       		.byte	0x5
 3444 13b7 03       		.byte	0x3
 3445 13b8 00000000 		.4byte	can_rxstate
 3446 13bc 32       		.uleb128 0x32
 3447 13bd 39020000 		.4byte	.LASF177
 3448 13c1 02       		.byte	0x2
 3449 13c2 3C       		.byte	0x3c
 3450 13c3 CB0D0000 		.4byte	0xdcb
 3451 13c7 01       		.byte	0x1
 3452 13c8 05       		.byte	0x5
 3453 13c9 03       		.byte	0x3
 3454 13ca 00000000 		.4byte	can_txstate
 3455 13ce 33       		.uleb128 0x33
 3456 13cf 01       		.byte	0x1
 3457 13d0 F4060000 		.4byte	.LASF178
ARM GAS  C:\Users\RICHRD~1\AppData\Local\Temp\ccq2u7a9.s 			page 63


 3458 13d4 01       		.byte	0x1
 3459 13d5 28       		.byte	0x28
 3460 13d6 01       		.byte	0x1
 3461 13d7 01       		.byte	0x1
 3462 13d8 EC130000 		.4byte	0x13ec
 3463 13dc 12       		.uleb128 0x12
 3464 13dd 470E0000 		.4byte	0xe47
 3465 13e1 12       		.uleb128 0x12
 3466 13e2 90000000 		.4byte	0x90
 3467 13e6 12       		.uleb128 0x12
 3468 13e7 740D0000 		.4byte	0xd74
 3469 13eb 00       		.byte	0
 3470 13ec 33       		.uleb128 0x33
 3471 13ed 01       		.byte	0x1
 3472 13ee A5020000 		.4byte	.LASF179
 3473 13f2 0C       		.byte	0xc
 3474 13f3 AF       		.byte	0xaf
 3475 13f4 01       		.byte	0x1
 3476 13f5 01       		.byte	0x1
 3477 13f6 0A140000 		.4byte	0x140a
 3478 13fa 12       		.uleb128 0x12
 3479 13fb 0A140000 		.4byte	0x140a
 3480 13ff 12       		.uleb128 0x12
 3481 1400 D4040000 		.4byte	0x4d4
 3482 1404 12       		.uleb128 0x12
 3483 1405 1B010000 		.4byte	0x11b
 3484 1409 00       		.byte	0
 3485 140a 06       		.uleb128 0x6
 3486 140b 04       		.byte	0x4
 3487 140c F5040000 		.4byte	0x4f5
 3488 1410 34       		.uleb128 0x34
 3489 1411 01       		.byte	0x1
 3490 1412 AD000000 		.4byte	.LASF180
 3491 1416 0C       		.byte	0xc
 3492 1417 C3       		.byte	0xc3
 3493 1418 01       		.byte	0x1
 3494 1419 1B010000 		.4byte	0x11b
 3495 141d 01       		.byte	0x1
 3496 141e 2D140000 		.4byte	0x142d
 3497 1422 12       		.uleb128 0x12
 3498 1423 1B010000 		.4byte	0x11b
 3499 1427 12       		.uleb128 0x12
 3500 1428 31010000 		.4byte	0x131
 3501 142c 00       		.byte	0
 3502 142d 34       		.uleb128 0x34
 3503 142e 01       		.byte	0x1
 3504 142f C1000000 		.4byte	.LASF181
 3505 1433 10       		.byte	0x10
 3506 1434 95       		.byte	0x95
 3507 1435 01       		.byte	0x1
 3508 1436 10010000 		.4byte	0x110
 3509 143a 01       		.byte	0x1
 3510 143b 54140000 		.4byte	0x1454
 3511 143f 12       		.uleb128 0x12
 3512 1440 54140000 		.4byte	0x1454
 3513 1444 12       		.uleb128 0x12
 3514 1445 560A0000 		.4byte	0xa56
ARM GAS  C:\Users\RICHRD~1\AppData\Local\Temp\ccq2u7a9.s 			page 64


 3515 1449 12       		.uleb128 0x12
 3516 144a 5A140000 		.4byte	0x145a
 3517 144e 12       		.uleb128 0x12
 3518 144f 31010000 		.4byte	0x131
 3519 1453 00       		.byte	0
 3520 1454 06       		.uleb128 0x6
 3521 1455 04       		.byte	0x4
 3522 1456 430D0000 		.4byte	0xd43
 3523 145a 06       		.uleb128 0x6
 3524 145b 04       		.byte	0x4
 3525 145c 550C0000 		.4byte	0xc55
 3526 1460 33       		.uleb128 0x33
 3527 1461 01       		.byte	0x1
 3528 1462 C5020000 		.4byte	.LASF182
 3529 1466 0C       		.byte	0xc
 3530 1467 B2       		.byte	0xb2
 3531 1468 01       		.byte	0x1
 3532 1469 01       		.byte	0x1
 3533 146a 79140000 		.4byte	0x1479
 3534 146e 12       		.uleb128 0x12
 3535 146f 0A140000 		.4byte	0x140a
 3536 1473 12       		.uleb128 0x12
 3537 1474 D4040000 		.4byte	0x4d4
 3538 1478 00       		.byte	0
 3539 1479 34       		.uleb128 0x34
 3540 147a 01       		.byte	0x1
 3541 147b 47070000 		.4byte	.LASF183
 3542 147f 15       		.byte	0x15
 3543 1480 0E       		.byte	0xe
 3544 1481 01       		.byte	0x1
 3545 1482 BC000000 		.4byte	0xbc
 3546 1486 01       		.byte	0x1
 3547 1487 91140000 		.4byte	0x1491
 3548 148b 12       		.uleb128 0x12
 3549 148c 57000000 		.4byte	0x57
 3550 1490 00       		.byte	0
 3551 1491 34       		.uleb128 0x34
 3552 1492 01       		.byte	0x1
 3553 1493 60030000 		.4byte	.LASF184
 3554 1497 10       		.byte	0x10
 3555 1498 91       		.byte	0x91
 3556 1499 01       		.byte	0x1
 3557 149a 10010000 		.4byte	0x110
 3558 149e 01       		.byte	0x1
 3559 149f B8140000 		.4byte	0x14b8
 3560 14a3 12       		.uleb128 0x12
 3561 14a4 54140000 		.4byte	0x1454
 3562 14a8 12       		.uleb128 0x12
 3563 14a9 560A0000 		.4byte	0xa56
 3564 14ad 12       		.uleb128 0x12
 3565 14ae B8140000 		.4byte	0x14b8
 3566 14b2 12       		.uleb128 0x12
 3567 14b3 31010000 		.4byte	0x131
 3568 14b7 00       		.byte	0
 3569 14b8 06       		.uleb128 0x6
 3570 14b9 04       		.byte	0x4
 3571 14ba BE140000 		.4byte	0x14be
ARM GAS  C:\Users\RICHRD~1\AppData\Local\Temp\ccq2u7a9.s 			page 65


 3572 14be 07       		.uleb128 0x7
 3573 14bf 4F0B0000 		.4byte	0xb4f
 3574 14c3 35       		.uleb128 0x35
 3575 14c4 01       		.byte	0x1
 3576 14c5 9A060000 		.4byte	.LASF185
 3577 14c9 07       		.byte	0x7
 3578 14ca 7501     		.2byte	0x175
 3579 14cc 01       		.byte	0x1
 3580 14cd 01       		.byte	0x1
 3581 14ce D8140000 		.4byte	0x14d8
 3582 14d2 12       		.uleb128 0x12
 3583 14d3 31010000 		.4byte	0x131
 3584 14d7 00       		.byte	0
 3585 14d8 33       		.uleb128 0x33
 3586 14d9 01       		.byte	0x1
 3587 14da B6010000 		.4byte	.LASF186
 3588 14de 10       		.byte	0x10
 3589 14df 8F       		.byte	0x8f
 3590 14e0 01       		.byte	0x1
 3591 14e1 01       		.byte	0x1
 3592 14e2 F1140000 		.4byte	0x14f1
 3593 14e6 12       		.uleb128 0x12
 3594 14e7 54140000 		.4byte	0x1454
 3595 14eb 12       		.uleb128 0x12
 3596 14ec 320D0000 		.4byte	0xd32
 3597 14f0 00       		.byte	0
 3598 14f1 36       		.uleb128 0x36
 3599 14f2 01       		.byte	0x1
 3600 14f3 2E030000 		.4byte	.LASF187
 3601 14f7 07       		.byte	0x7
 3602 14f8 7001     		.2byte	0x170
 3603 14fa 01       		.byte	0x1
 3604 14fb 9C020000 		.4byte	0x29c
 3605 14ff 01       		.byte	0x1
 3606 1500 12       		.uleb128 0x12
 3607 1501 7A000000 		.4byte	0x7a
 3608 1505 12       		.uleb128 0x12
 3609 1506 29000000 		.4byte	0x29
 3610 150a 12       		.uleb128 0x12
 3611 150b 05010000 		.4byte	0x105
 3612 150f 12       		.uleb128 0x12
 3613 1510 3B050000 		.4byte	0x53b
 3614 1514 12       		.uleb128 0x12
 3615 1515 7A000000 		.4byte	0x7a
 3616 1519 00       		.byte	0
 3617 151a 00       		.byte	0
 3618              		.section	.debug_abbrev,"",%progbits
 3619              	.Ldebug_abbrev0:
 3620 0000 01       		.uleb128 0x1
 3621 0001 11       		.uleb128 0x11
 3622 0002 01       		.byte	0x1
 3623 0003 25       		.uleb128 0x25
 3624 0004 0E       		.uleb128 0xe
 3625 0005 13       		.uleb128 0x13
 3626 0006 0B       		.uleb128 0xb
 3627 0007 03       		.uleb128 0x3
 3628 0008 0E       		.uleb128 0xe
ARM GAS  C:\Users\RICHRD~1\AppData\Local\Temp\ccq2u7a9.s 			page 66


 3629 0009 1B       		.uleb128 0x1b
 3630 000a 0E       		.uleb128 0xe
 3631 000b 55       		.uleb128 0x55
 3632 000c 06       		.uleb128 0x6
 3633 000d 11       		.uleb128 0x11
 3634 000e 01       		.uleb128 0x1
 3635 000f 52       		.uleb128 0x52
 3636 0010 01       		.uleb128 0x1
 3637 0011 10       		.uleb128 0x10
 3638 0012 06       		.uleb128 0x6
 3639 0013 00       		.byte	0
 3640 0014 00       		.byte	0
 3641 0015 02       		.uleb128 0x2
 3642 0016 16       		.uleb128 0x16
 3643 0017 00       		.byte	0
 3644 0018 03       		.uleb128 0x3
 3645 0019 0E       		.uleb128 0xe
 3646 001a 3A       		.uleb128 0x3a
 3647 001b 0B       		.uleb128 0xb
 3648 001c 3B       		.uleb128 0x3b
 3649 001d 0B       		.uleb128 0xb
 3650 001e 49       		.uleb128 0x49
 3651 001f 13       		.uleb128 0x13
 3652 0020 00       		.byte	0
 3653 0021 00       		.byte	0
 3654 0022 03       		.uleb128 0x3
 3655 0023 24       		.uleb128 0x24
 3656 0024 00       		.byte	0
 3657 0025 0B       		.uleb128 0xb
 3658 0026 0B       		.uleb128 0xb
 3659 0027 3E       		.uleb128 0x3e
 3660 0028 0B       		.uleb128 0xb
 3661 0029 03       		.uleb128 0x3
 3662 002a 0E       		.uleb128 0xe
 3663 002b 00       		.byte	0
 3664 002c 00       		.byte	0
 3665 002d 04       		.uleb128 0x4
 3666 002e 24       		.uleb128 0x24
 3667 002f 00       		.byte	0
 3668 0030 0B       		.uleb128 0xb
 3669 0031 0B       		.uleb128 0xb
 3670 0032 3E       		.uleb128 0x3e
 3671 0033 0B       		.uleb128 0xb
 3672 0034 03       		.uleb128 0x3
 3673 0035 08       		.uleb128 0x8
 3674 0036 00       		.byte	0
 3675 0037 00       		.byte	0
 3676 0038 05       		.uleb128 0x5
 3677 0039 0F       		.uleb128 0xf
 3678 003a 00       		.byte	0
 3679 003b 0B       		.uleb128 0xb
 3680 003c 0B       		.uleb128 0xb
 3681 003d 00       		.byte	0
 3682 003e 00       		.byte	0
 3683 003f 06       		.uleb128 0x6
 3684 0040 0F       		.uleb128 0xf
 3685 0041 00       		.byte	0
ARM GAS  C:\Users\RICHRD~1\AppData\Local\Temp\ccq2u7a9.s 			page 67


 3686 0042 0B       		.uleb128 0xb
 3687 0043 0B       		.uleb128 0xb
 3688 0044 49       		.uleb128 0x49
 3689 0045 13       		.uleb128 0x13
 3690 0046 00       		.byte	0
 3691 0047 00       		.byte	0
 3692 0048 07       		.uleb128 0x7
 3693 0049 26       		.uleb128 0x26
 3694 004a 00       		.byte	0
 3695 004b 49       		.uleb128 0x49
 3696 004c 13       		.uleb128 0x13
 3697 004d 00       		.byte	0
 3698 004e 00       		.byte	0
 3699 004f 08       		.uleb128 0x8
 3700 0050 13       		.uleb128 0x13
 3701 0051 01       		.byte	0x1
 3702 0052 03       		.uleb128 0x3
 3703 0053 0E       		.uleb128 0xe
 3704 0054 0B       		.uleb128 0xb
 3705 0055 0B       		.uleb128 0xb
 3706 0056 3A       		.uleb128 0x3a
 3707 0057 0B       		.uleb128 0xb
 3708 0058 3B       		.uleb128 0x3b
 3709 0059 0B       		.uleb128 0xb
 3710 005a 01       		.uleb128 0x1
 3711 005b 13       		.uleb128 0x13
 3712 005c 00       		.byte	0
 3713 005d 00       		.byte	0
 3714 005e 09       		.uleb128 0x9
 3715 005f 0D       		.uleb128 0xd
 3716 0060 00       		.byte	0
 3717 0061 03       		.uleb128 0x3
 3718 0062 0E       		.uleb128 0xe
 3719 0063 3A       		.uleb128 0x3a
 3720 0064 0B       		.uleb128 0xb
 3721 0065 3B       		.uleb128 0x3b
 3722 0066 0B       		.uleb128 0xb
 3723 0067 49       		.uleb128 0x49
 3724 0068 13       		.uleb128 0x13
 3725 0069 38       		.uleb128 0x38
 3726 006a 0A       		.uleb128 0xa
 3727 006b 00       		.byte	0
 3728 006c 00       		.byte	0
 3729 006d 0A       		.uleb128 0xa
 3730 006e 0D       		.uleb128 0xd
 3731 006f 00       		.byte	0
 3732 0070 03       		.uleb128 0x3
 3733 0071 08       		.uleb128 0x8
 3734 0072 3A       		.uleb128 0x3a
 3735 0073 0B       		.uleb128 0xb
 3736 0074 3B       		.uleb128 0x3b
 3737 0075 0B       		.uleb128 0xb
 3738 0076 49       		.uleb128 0x49
 3739 0077 13       		.uleb128 0x13
 3740 0078 38       		.uleb128 0x38
 3741 0079 0A       		.uleb128 0xa
 3742 007a 00       		.byte	0
ARM GAS  C:\Users\RICHRD~1\AppData\Local\Temp\ccq2u7a9.s 			page 68


 3743 007b 00       		.byte	0
 3744 007c 0B       		.uleb128 0xb
 3745 007d 13       		.uleb128 0x13
 3746 007e 01       		.byte	0x1
 3747 007f 0B       		.uleb128 0xb
 3748 0080 0B       		.uleb128 0xb
 3749 0081 3A       		.uleb128 0x3a
 3750 0082 0B       		.uleb128 0xb
 3751 0083 3B       		.uleb128 0x3b
 3752 0084 0B       		.uleb128 0xb
 3753 0085 01       		.uleb128 0x1
 3754 0086 13       		.uleb128 0x13
 3755 0087 00       		.byte	0
 3756 0088 00       		.byte	0
 3757 0089 0C       		.uleb128 0xc
 3758 008a 13       		.uleb128 0x13
 3759 008b 01       		.byte	0x1
 3760 008c 03       		.uleb128 0x3
 3761 008d 0E       		.uleb128 0xe
 3762 008e 0B       		.uleb128 0xb
 3763 008f 0B       		.uleb128 0xb
 3764 0090 3A       		.uleb128 0x3a
 3765 0091 0B       		.uleb128 0xb
 3766 0092 3B       		.uleb128 0x3b
 3767 0093 05       		.uleb128 0x5
 3768 0094 01       		.uleb128 0x1
 3769 0095 13       		.uleb128 0x13
 3770 0096 00       		.byte	0
 3771 0097 00       		.byte	0
 3772 0098 0D       		.uleb128 0xd
 3773 0099 0D       		.uleb128 0xd
 3774 009a 00       		.byte	0
 3775 009b 03       		.uleb128 0x3
 3776 009c 08       		.uleb128 0x8
 3777 009d 3A       		.uleb128 0x3a
 3778 009e 0B       		.uleb128 0xb
 3779 009f 3B       		.uleb128 0x3b
 3780 00a0 05       		.uleb128 0x5
 3781 00a1 49       		.uleb128 0x49
 3782 00a2 13       		.uleb128 0x13
 3783 00a3 38       		.uleb128 0x38
 3784 00a4 0A       		.uleb128 0xa
 3785 00a5 00       		.byte	0
 3786 00a6 00       		.byte	0
 3787 00a7 0E       		.uleb128 0xe
 3788 00a8 35       		.uleb128 0x35
 3789 00a9 00       		.byte	0
 3790 00aa 49       		.uleb128 0x49
 3791 00ab 13       		.uleb128 0x13
 3792 00ac 00       		.byte	0
 3793 00ad 00       		.byte	0
 3794 00ae 0F       		.uleb128 0xf
 3795 00af 17       		.uleb128 0x17
 3796 00b0 01       		.byte	0x1
 3797 00b1 0B       		.uleb128 0xb
 3798 00b2 0B       		.uleb128 0xb
 3799 00b3 3A       		.uleb128 0x3a
ARM GAS  C:\Users\RICHRD~1\AppData\Local\Temp\ccq2u7a9.s 			page 69


 3800 00b4 0B       		.uleb128 0xb
 3801 00b5 3B       		.uleb128 0x3b
 3802 00b6 0B       		.uleb128 0xb
 3803 00b7 01       		.uleb128 0x1
 3804 00b8 13       		.uleb128 0x13
 3805 00b9 00       		.byte	0
 3806 00ba 00       		.byte	0
 3807 00bb 10       		.uleb128 0x10
 3808 00bc 0D       		.uleb128 0xd
 3809 00bd 00       		.byte	0
 3810 00be 03       		.uleb128 0x3
 3811 00bf 0E       		.uleb128 0xe
 3812 00c0 3A       		.uleb128 0x3a
 3813 00c1 0B       		.uleb128 0xb
 3814 00c2 3B       		.uleb128 0x3b
 3815 00c3 0B       		.uleb128 0xb
 3816 00c4 49       		.uleb128 0x49
 3817 00c5 13       		.uleb128 0x13
 3818 00c6 00       		.byte	0
 3819 00c7 00       		.byte	0
 3820 00c8 11       		.uleb128 0x11
 3821 00c9 15       		.uleb128 0x15
 3822 00ca 01       		.byte	0x1
 3823 00cb 27       		.uleb128 0x27
 3824 00cc 0C       		.uleb128 0xc
 3825 00cd 49       		.uleb128 0x49
 3826 00ce 13       		.uleb128 0x13
 3827 00cf 01       		.uleb128 0x1
 3828 00d0 13       		.uleb128 0x13
 3829 00d1 00       		.byte	0
 3830 00d2 00       		.byte	0
 3831 00d3 12       		.uleb128 0x12
 3832 00d4 05       		.uleb128 0x5
 3833 00d5 00       		.byte	0
 3834 00d6 49       		.uleb128 0x49
 3835 00d7 13       		.uleb128 0x13
 3836 00d8 00       		.byte	0
 3837 00d9 00       		.byte	0
 3838 00da 13       		.uleb128 0x13
 3839 00db 01       		.uleb128 0x1
 3840 00dc 01       		.byte	0x1
 3841 00dd 49       		.uleb128 0x49
 3842 00de 13       		.uleb128 0x13
 3843 00df 01       		.uleb128 0x1
 3844 00e0 13       		.uleb128 0x13
 3845 00e1 00       		.byte	0
 3846 00e2 00       		.byte	0
 3847 00e3 14       		.uleb128 0x14
 3848 00e4 21       		.uleb128 0x21
 3849 00e5 00       		.byte	0
 3850 00e6 49       		.uleb128 0x49
 3851 00e7 13       		.uleb128 0x13
 3852 00e8 2F       		.uleb128 0x2f
 3853 00e9 0B       		.uleb128 0xb
 3854 00ea 00       		.byte	0
 3855 00eb 00       		.byte	0
 3856 00ec 15       		.uleb128 0x15
ARM GAS  C:\Users\RICHRD~1\AppData\Local\Temp\ccq2u7a9.s 			page 70


 3857 00ed 13       		.uleb128 0x13
 3858 00ee 01       		.byte	0x1
 3859 00ef 0B       		.uleb128 0xb
 3860 00f0 0B       		.uleb128 0xb
 3861 00f1 3A       		.uleb128 0x3a
 3862 00f2 0B       		.uleb128 0xb
 3863 00f3 3B       		.uleb128 0x3b
 3864 00f4 05       		.uleb128 0x5
 3865 00f5 01       		.uleb128 0x1
 3866 00f6 13       		.uleb128 0x13
 3867 00f7 00       		.byte	0
 3868 00f8 00       		.byte	0
 3869 00f9 16       		.uleb128 0x16
 3870 00fa 0D       		.uleb128 0xd
 3871 00fb 00       		.byte	0
 3872 00fc 03       		.uleb128 0x3
 3873 00fd 0E       		.uleb128 0xe
 3874 00fe 3A       		.uleb128 0x3a
 3875 00ff 0B       		.uleb128 0xb
 3876 0100 3B       		.uleb128 0x3b
 3877 0101 05       		.uleb128 0x5
 3878 0102 49       		.uleb128 0x49
 3879 0103 13       		.uleb128 0x13
 3880 0104 38       		.uleb128 0x38
 3881 0105 0A       		.uleb128 0xa
 3882 0106 00       		.byte	0
 3883 0107 00       		.byte	0
 3884 0108 17       		.uleb128 0x17
 3885 0109 16       		.uleb128 0x16
 3886 010a 00       		.byte	0
 3887 010b 03       		.uleb128 0x3
 3888 010c 0E       		.uleb128 0xe
 3889 010d 3A       		.uleb128 0x3a
 3890 010e 0B       		.uleb128 0xb
 3891 010f 3B       		.uleb128 0x3b
 3892 0110 05       		.uleb128 0x5
 3893 0111 49       		.uleb128 0x49
 3894 0112 13       		.uleb128 0x13
 3895 0113 00       		.byte	0
 3896 0114 00       		.byte	0
 3897 0115 18       		.uleb128 0x18
 3898 0116 13       		.uleb128 0x13
 3899 0117 01       		.byte	0x1
 3900 0118 0B       		.uleb128 0xb
 3901 0119 05       		.uleb128 0x5
 3902 011a 3A       		.uleb128 0x3a
 3903 011b 0B       		.uleb128 0xb
 3904 011c 3B       		.uleb128 0x3b
 3905 011d 05       		.uleb128 0x5
 3906 011e 01       		.uleb128 0x1
 3907 011f 13       		.uleb128 0x13
 3908 0120 00       		.byte	0
 3909 0121 00       		.byte	0
 3910 0122 19       		.uleb128 0x19
 3911 0123 04       		.uleb128 0x4
 3912 0124 01       		.byte	0x1
 3913 0125 0B       		.uleb128 0xb
ARM GAS  C:\Users\RICHRD~1\AppData\Local\Temp\ccq2u7a9.s 			page 71


 3914 0126 0B       		.uleb128 0xb
 3915 0127 3A       		.uleb128 0x3a
 3916 0128 0B       		.uleb128 0xb
 3917 0129 3B       		.uleb128 0x3b
 3918 012a 0B       		.uleb128 0xb
 3919 012b 01       		.uleb128 0x1
 3920 012c 13       		.uleb128 0x13
 3921 012d 00       		.byte	0
 3922 012e 00       		.byte	0
 3923 012f 1A       		.uleb128 0x1a
 3924 0130 28       		.uleb128 0x28
 3925 0131 00       		.byte	0
 3926 0132 03       		.uleb128 0x3
 3927 0133 0E       		.uleb128 0xe
 3928 0134 1C       		.uleb128 0x1c
 3929 0135 0D       		.uleb128 0xd
 3930 0136 00       		.byte	0
 3931 0137 00       		.byte	0
 3932 0138 1B       		.uleb128 0x1b
 3933 0139 0D       		.uleb128 0xd
 3934 013a 00       		.byte	0
 3935 013b 03       		.uleb128 0x3
 3936 013c 08       		.uleb128 0x8
 3937 013d 3A       		.uleb128 0x3a
 3938 013e 0B       		.uleb128 0xb
 3939 013f 3B       		.uleb128 0x3b
 3940 0140 0B       		.uleb128 0xb
 3941 0141 49       		.uleb128 0x49
 3942 0142 13       		.uleb128 0x13
 3943 0143 0B       		.uleb128 0xb
 3944 0144 0B       		.uleb128 0xb
 3945 0145 0D       		.uleb128 0xd
 3946 0146 0B       		.uleb128 0xb
 3947 0147 0C       		.uleb128 0xc
 3948 0148 0B       		.uleb128 0xb
 3949 0149 38       		.uleb128 0x38
 3950 014a 0A       		.uleb128 0xa
 3951 014b 00       		.byte	0
 3952 014c 00       		.byte	0
 3953 014d 1C       		.uleb128 0x1c
 3954 014e 0D       		.uleb128 0xd
 3955 014f 00       		.byte	0
 3956 0150 49       		.uleb128 0x49
 3957 0151 13       		.uleb128 0x13
 3958 0152 00       		.byte	0
 3959 0153 00       		.byte	0
 3960 0154 1D       		.uleb128 0x1d
 3961 0155 0D       		.uleb128 0xd
 3962 0156 00       		.byte	0
 3963 0157 49       		.uleb128 0x49
 3964 0158 13       		.uleb128 0x13
 3965 0159 38       		.uleb128 0x38
 3966 015a 0A       		.uleb128 0xa
 3967 015b 00       		.byte	0
 3968 015c 00       		.byte	0
 3969 015d 1E       		.uleb128 0x1e
 3970 015e 0D       		.uleb128 0xd
ARM GAS  C:\Users\RICHRD~1\AppData\Local\Temp\ccq2u7a9.s 			page 72


 3971 015f 00       		.byte	0
 3972 0160 03       		.uleb128 0x3
 3973 0161 0E       		.uleb128 0xe
 3974 0162 49       		.uleb128 0x49
 3975 0163 13       		.uleb128 0x13
 3976 0164 38       		.uleb128 0x38
 3977 0165 0A       		.uleb128 0xa
 3978 0166 34       		.uleb128 0x34
 3979 0167 0C       		.uleb128 0xc
 3980 0168 00       		.byte	0
 3981 0169 00       		.byte	0
 3982 016a 1F       		.uleb128 0x1f
 3983 016b 04       		.uleb128 0x4
 3984 016c 01       		.byte	0x1
 3985 016d 03       		.uleb128 0x3
 3986 016e 0E       		.uleb128 0xe
 3987 016f 0B       		.uleb128 0xb
 3988 0170 0B       		.uleb128 0xb
 3989 0171 3A       		.uleb128 0x3a
 3990 0172 0B       		.uleb128 0xb
 3991 0173 3B       		.uleb128 0x3b
 3992 0174 0B       		.uleb128 0xb
 3993 0175 01       		.uleb128 0x1
 3994 0176 13       		.uleb128 0x13
 3995 0177 00       		.byte	0
 3996 0178 00       		.byte	0
 3997 0179 20       		.uleb128 0x20
 3998 017a 2E       		.uleb128 0x2e
 3999 017b 01       		.byte	0x1
 4000 017c 03       		.uleb128 0x3
 4001 017d 0E       		.uleb128 0xe
 4002 017e 3A       		.uleb128 0x3a
 4003 017f 0B       		.uleb128 0xb
 4004 0180 3B       		.uleb128 0x3b
 4005 0181 0B       		.uleb128 0xb
 4006 0182 27       		.uleb128 0x27
 4007 0183 0C       		.uleb128 0xc
 4008 0184 11       		.uleb128 0x11
 4009 0185 01       		.uleb128 0x1
 4010 0186 12       		.uleb128 0x12
 4011 0187 01       		.uleb128 0x1
 4012 0188 40       		.uleb128 0x40
 4013 0189 06       		.uleb128 0x6
 4014 018a 9742     		.uleb128 0x2117
 4015 018c 0C       		.uleb128 0xc
 4016 018d 01       		.uleb128 0x1
 4017 018e 13       		.uleb128 0x13
 4018 018f 00       		.byte	0
 4019 0190 00       		.byte	0
 4020 0191 21       		.uleb128 0x21
 4021 0192 05       		.uleb128 0x5
 4022 0193 00       		.byte	0
 4023 0194 03       		.uleb128 0x3
 4024 0195 08       		.uleb128 0x8
 4025 0196 3A       		.uleb128 0x3a
 4026 0197 0B       		.uleb128 0xb
 4027 0198 3B       		.uleb128 0x3b
ARM GAS  C:\Users\RICHRD~1\AppData\Local\Temp\ccq2u7a9.s 			page 73


 4028 0199 0B       		.uleb128 0xb
 4029 019a 49       		.uleb128 0x49
 4030 019b 13       		.uleb128 0x13
 4031 019c 02       		.uleb128 0x2
 4032 019d 06       		.uleb128 0x6
 4033 019e 00       		.byte	0
 4034 019f 00       		.byte	0
 4035 01a0 22       		.uleb128 0x22
 4036 01a1 05       		.uleb128 0x5
 4037 01a2 00       		.byte	0
 4038 01a3 03       		.uleb128 0x3
 4039 01a4 08       		.uleb128 0x8
 4040 01a5 3A       		.uleb128 0x3a
 4041 01a6 0B       		.uleb128 0xb
 4042 01a7 3B       		.uleb128 0x3b
 4043 01a8 0B       		.uleb128 0xb
 4044 01a9 49       		.uleb128 0x49
 4045 01aa 13       		.uleb128 0x13
 4046 01ab 02       		.uleb128 0x2
 4047 01ac 0A       		.uleb128 0xa
 4048 01ad 00       		.byte	0
 4049 01ae 00       		.byte	0
 4050 01af 23       		.uleb128 0x23
 4051 01b0 18       		.uleb128 0x18
 4052 01b1 00       		.byte	0
 4053 01b2 00       		.byte	0
 4054 01b3 00       		.byte	0
 4055 01b4 24       		.uleb128 0x24
 4056 01b5 34       		.uleb128 0x34
 4057 01b6 00       		.byte	0
 4058 01b7 03       		.uleb128 0x3
 4059 01b8 08       		.uleb128 0x8
 4060 01b9 3A       		.uleb128 0x3a
 4061 01ba 0B       		.uleb128 0xb
 4062 01bb 3B       		.uleb128 0x3b
 4063 01bc 0B       		.uleb128 0xb
 4064 01bd 49       		.uleb128 0x49
 4065 01be 13       		.uleb128 0x13
 4066 01bf 02       		.uleb128 0x2
 4067 01c0 0A       		.uleb128 0xa
 4068 01c1 00       		.byte	0
 4069 01c2 00       		.byte	0
 4070 01c3 25       		.uleb128 0x25
 4071 01c4 898201   		.uleb128 0x4109
 4072 01c7 01       		.byte	0x1
 4073 01c8 11       		.uleb128 0x11
 4074 01c9 01       		.uleb128 0x1
 4075 01ca 31       		.uleb128 0x31
 4076 01cb 13       		.uleb128 0x13
 4077 01cc 00       		.byte	0
 4078 01cd 00       		.byte	0
 4079 01ce 26       		.uleb128 0x26
 4080 01cf 8A8201   		.uleb128 0x410a
 4081 01d2 00       		.byte	0
 4082 01d3 02       		.uleb128 0x2
 4083 01d4 0A       		.uleb128 0xa
 4084 01d5 9142     		.uleb128 0x2111
ARM GAS  C:\Users\RICHRD~1\AppData\Local\Temp\ccq2u7a9.s 			page 74


 4085 01d7 0A       		.uleb128 0xa
 4086 01d8 00       		.byte	0
 4087 01d9 00       		.byte	0
 4088 01da 27       		.uleb128 0x27
 4089 01db 2E       		.uleb128 0x2e
 4090 01dc 01       		.byte	0x1
 4091 01dd 03       		.uleb128 0x3
 4092 01de 0E       		.uleb128 0xe
 4093 01df 3A       		.uleb128 0x3a
 4094 01e0 0B       		.uleb128 0xb
 4095 01e1 3B       		.uleb128 0x3b
 4096 01e2 0B       		.uleb128 0xb
 4097 01e3 27       		.uleb128 0x27
 4098 01e4 0C       		.uleb128 0xc
 4099 01e5 49       		.uleb128 0x49
 4100 01e6 13       		.uleb128 0x13
 4101 01e7 11       		.uleb128 0x11
 4102 01e8 01       		.uleb128 0x1
 4103 01e9 12       		.uleb128 0x12
 4104 01ea 01       		.uleb128 0x1
 4105 01eb 40       		.uleb128 0x40
 4106 01ec 06       		.uleb128 0x6
 4107 01ed 9742     		.uleb128 0x2117
 4108 01ef 0C       		.uleb128 0xc
 4109 01f0 01       		.uleb128 0x1
 4110 01f1 13       		.uleb128 0x13
 4111 01f2 00       		.byte	0
 4112 01f3 00       		.byte	0
 4113 01f4 28       		.uleb128 0x28
 4114 01f5 34       		.uleb128 0x34
 4115 01f6 00       		.byte	0
 4116 01f7 03       		.uleb128 0x3
 4117 01f8 0E       		.uleb128 0xe
 4118 01f9 3A       		.uleb128 0x3a
 4119 01fa 0B       		.uleb128 0xb
 4120 01fb 3B       		.uleb128 0x3b
 4121 01fc 0B       		.uleb128 0xb
 4122 01fd 49       		.uleb128 0x49
 4123 01fe 13       		.uleb128 0x13
 4124 01ff 02       		.uleb128 0x2
 4125 0200 06       		.uleb128 0x6
 4126 0201 00       		.byte	0
 4127 0202 00       		.byte	0
 4128 0203 29       		.uleb128 0x29
 4129 0204 898201   		.uleb128 0x4109
 4130 0207 01       		.byte	0x1
 4131 0208 11       		.uleb128 0x11
 4132 0209 01       		.uleb128 0x1
 4133 020a 31       		.uleb128 0x31
 4134 020b 13       		.uleb128 0x13
 4135 020c 01       		.uleb128 0x1
 4136 020d 13       		.uleb128 0x13
 4137 020e 00       		.byte	0
 4138 020f 00       		.byte	0
 4139 0210 2A       		.uleb128 0x2a
 4140 0211 2E       		.uleb128 0x2e
 4141 0212 01       		.byte	0x1
ARM GAS  C:\Users\RICHRD~1\AppData\Local\Temp\ccq2u7a9.s 			page 75


 4142 0213 3F       		.uleb128 0x3f
 4143 0214 0C       		.uleb128 0xc
 4144 0215 03       		.uleb128 0x3
 4145 0216 0E       		.uleb128 0xe
 4146 0217 3A       		.uleb128 0x3a
 4147 0218 0B       		.uleb128 0xb
 4148 0219 3B       		.uleb128 0x3b
 4149 021a 0B       		.uleb128 0xb
 4150 021b 27       		.uleb128 0x27
 4151 021c 0C       		.uleb128 0xc
 4152 021d 11       		.uleb128 0x11
 4153 021e 01       		.uleb128 0x1
 4154 021f 12       		.uleb128 0x12
 4155 0220 01       		.uleb128 0x1
 4156 0221 40       		.uleb128 0x40
 4157 0222 06       		.uleb128 0x6
 4158 0223 9742     		.uleb128 0x2117
 4159 0225 0C       		.uleb128 0xc
 4160 0226 01       		.uleb128 0x1
 4161 0227 13       		.uleb128 0x13
 4162 0228 00       		.byte	0
 4163 0229 00       		.byte	0
 4164 022a 2B       		.uleb128 0x2b
 4165 022b 05       		.uleb128 0x5
 4166 022c 00       		.byte	0
 4167 022d 03       		.uleb128 0x3
 4168 022e 0E       		.uleb128 0xe
 4169 022f 3A       		.uleb128 0x3a
 4170 0230 0B       		.uleb128 0xb
 4171 0231 3B       		.uleb128 0x3b
 4172 0232 0B       		.uleb128 0xb
 4173 0233 49       		.uleb128 0x49
 4174 0234 13       		.uleb128 0x13
 4175 0235 02       		.uleb128 0x2
 4176 0236 06       		.uleb128 0x6
 4177 0237 00       		.byte	0
 4178 0238 00       		.byte	0
 4179 0239 2C       		.uleb128 0x2c
 4180 023a 898201   		.uleb128 0x4109
 4181 023d 00       		.byte	0
 4182 023e 11       		.uleb128 0x11
 4183 023f 01       		.uleb128 0x1
 4184 0240 31       		.uleb128 0x31
 4185 0241 13       		.uleb128 0x13
 4186 0242 00       		.byte	0
 4187 0243 00       		.byte	0
 4188 0244 2D       		.uleb128 0x2d
 4189 0245 898201   		.uleb128 0x4109
 4190 0248 01       		.byte	0x1
 4191 0249 11       		.uleb128 0x11
 4192 024a 01       		.uleb128 0x1
 4193 024b 00       		.byte	0
 4194 024c 00       		.byte	0
 4195 024d 2E       		.uleb128 0x2e
 4196 024e 34       		.uleb128 0x34
 4197 024f 00       		.byte	0
 4198 0250 03       		.uleb128 0x3
ARM GAS  C:\Users\RICHRD~1\AppData\Local\Temp\ccq2u7a9.s 			page 76


 4199 0251 0E       		.uleb128 0xe
 4200 0252 3A       		.uleb128 0x3a
 4201 0253 0B       		.uleb128 0xb
 4202 0254 3B       		.uleb128 0x3b
 4203 0255 0B       		.uleb128 0xb
 4204 0256 49       		.uleb128 0x49
 4205 0257 13       		.uleb128 0x13
 4206 0258 02       		.uleb128 0x2
 4207 0259 0A       		.uleb128 0xa
 4208 025a 00       		.byte	0
 4209 025b 00       		.byte	0
 4210 025c 2F       		.uleb128 0x2f
 4211 025d 34       		.uleb128 0x34
 4212 025e 00       		.byte	0
 4213 025f 03       		.uleb128 0x3
 4214 0260 0E       		.uleb128 0xe
 4215 0261 3A       		.uleb128 0x3a
 4216 0262 0B       		.uleb128 0xb
 4217 0263 3B       		.uleb128 0x3b
 4218 0264 0B       		.uleb128 0xb
 4219 0265 49       		.uleb128 0x49
 4220 0266 13       		.uleb128 0x13
 4221 0267 00       		.byte	0
 4222 0268 00       		.byte	0
 4223 0269 30       		.uleb128 0x30
 4224 026a 34       		.uleb128 0x34
 4225 026b 00       		.byte	0
 4226 026c 03       		.uleb128 0x3
 4227 026d 0E       		.uleb128 0xe
 4228 026e 3A       		.uleb128 0x3a
 4229 026f 0B       		.uleb128 0xb
 4230 0270 3B       		.uleb128 0x3b
 4231 0271 0B       		.uleb128 0xb
 4232 0272 49       		.uleb128 0x49
 4233 0273 13       		.uleb128 0x13
 4234 0274 3F       		.uleb128 0x3f
 4235 0275 0C       		.uleb128 0xc
 4236 0276 3C       		.uleb128 0x3c
 4237 0277 0C       		.uleb128 0xc
 4238 0278 00       		.byte	0
 4239 0279 00       		.byte	0
 4240 027a 31       		.uleb128 0x31
 4241 027b 34       		.uleb128 0x34
 4242 027c 00       		.byte	0
 4243 027d 03       		.uleb128 0x3
 4244 027e 0E       		.uleb128 0xe
 4245 027f 3A       		.uleb128 0x3a
 4246 0280 0B       		.uleb128 0xb
 4247 0281 3B       		.uleb128 0x3b
 4248 0282 05       		.uleb128 0x5
 4249 0283 49       		.uleb128 0x49
 4250 0284 13       		.uleb128 0x13
 4251 0285 3F       		.uleb128 0x3f
 4252 0286 0C       		.uleb128 0xc
 4253 0287 3C       		.uleb128 0x3c
 4254 0288 0C       		.uleb128 0xc
 4255 0289 00       		.byte	0
ARM GAS  C:\Users\RICHRD~1\AppData\Local\Temp\ccq2u7a9.s 			page 77


 4256 028a 00       		.byte	0
 4257 028b 32       		.uleb128 0x32
 4258 028c 34       		.uleb128 0x34
 4259 028d 00       		.byte	0
 4260 028e 03       		.uleb128 0x3
 4261 028f 0E       		.uleb128 0xe
 4262 0290 3A       		.uleb128 0x3a
 4263 0291 0B       		.uleb128 0xb
 4264 0292 3B       		.uleb128 0x3b
 4265 0293 0B       		.uleb128 0xb
 4266 0294 49       		.uleb128 0x49
 4267 0295 13       		.uleb128 0x13
 4268 0296 3F       		.uleb128 0x3f
 4269 0297 0C       		.uleb128 0xc
 4270 0298 02       		.uleb128 0x2
 4271 0299 0A       		.uleb128 0xa
 4272 029a 00       		.byte	0
 4273 029b 00       		.byte	0
 4274 029c 33       		.uleb128 0x33
 4275 029d 2E       		.uleb128 0x2e
 4276 029e 01       		.byte	0x1
 4277 029f 3F       		.uleb128 0x3f
 4278 02a0 0C       		.uleb128 0xc
 4279 02a1 03       		.uleb128 0x3
 4280 02a2 0E       		.uleb128 0xe
 4281 02a3 3A       		.uleb128 0x3a
 4282 02a4 0B       		.uleb128 0xb
 4283 02a5 3B       		.uleb128 0x3b
 4284 02a6 0B       		.uleb128 0xb
 4285 02a7 27       		.uleb128 0x27
 4286 02a8 0C       		.uleb128 0xc
 4287 02a9 3C       		.uleb128 0x3c
 4288 02aa 0C       		.uleb128 0xc
 4289 02ab 01       		.uleb128 0x1
 4290 02ac 13       		.uleb128 0x13
 4291 02ad 00       		.byte	0
 4292 02ae 00       		.byte	0
 4293 02af 34       		.uleb128 0x34
 4294 02b0 2E       		.uleb128 0x2e
 4295 02b1 01       		.byte	0x1
 4296 02b2 3F       		.uleb128 0x3f
 4297 02b3 0C       		.uleb128 0xc
 4298 02b4 03       		.uleb128 0x3
 4299 02b5 0E       		.uleb128 0xe
 4300 02b6 3A       		.uleb128 0x3a
 4301 02b7 0B       		.uleb128 0xb
 4302 02b8 3B       		.uleb128 0x3b
 4303 02b9 0B       		.uleb128 0xb
 4304 02ba 27       		.uleb128 0x27
 4305 02bb 0C       		.uleb128 0xc
 4306 02bc 49       		.uleb128 0x49
 4307 02bd 13       		.uleb128 0x13
 4308 02be 3C       		.uleb128 0x3c
 4309 02bf 0C       		.uleb128 0xc
 4310 02c0 01       		.uleb128 0x1
 4311 02c1 13       		.uleb128 0x13
 4312 02c2 00       		.byte	0
ARM GAS  C:\Users\RICHRD~1\AppData\Local\Temp\ccq2u7a9.s 			page 78


 4313 02c3 00       		.byte	0
 4314 02c4 35       		.uleb128 0x35
 4315 02c5 2E       		.uleb128 0x2e
 4316 02c6 01       		.byte	0x1
 4317 02c7 3F       		.uleb128 0x3f
 4318 02c8 0C       		.uleb128 0xc
 4319 02c9 03       		.uleb128 0x3
 4320 02ca 0E       		.uleb128 0xe
 4321 02cb 3A       		.uleb128 0x3a
 4322 02cc 0B       		.uleb128 0xb
 4323 02cd 3B       		.uleb128 0x3b
 4324 02ce 05       		.uleb128 0x5
 4325 02cf 27       		.uleb128 0x27
 4326 02d0 0C       		.uleb128 0xc
 4327 02d1 3C       		.uleb128 0x3c
 4328 02d2 0C       		.uleb128 0xc
 4329 02d3 01       		.uleb128 0x1
 4330 02d4 13       		.uleb128 0x13
 4331 02d5 00       		.byte	0
 4332 02d6 00       		.byte	0
 4333 02d7 36       		.uleb128 0x36
 4334 02d8 2E       		.uleb128 0x2e
 4335 02d9 01       		.byte	0x1
 4336 02da 3F       		.uleb128 0x3f
 4337 02db 0C       		.uleb128 0xc
 4338 02dc 03       		.uleb128 0x3
 4339 02dd 0E       		.uleb128 0xe
 4340 02de 3A       		.uleb128 0x3a
 4341 02df 0B       		.uleb128 0xb
 4342 02e0 3B       		.uleb128 0x3b
 4343 02e1 05       		.uleb128 0x5
 4344 02e2 27       		.uleb128 0x27
 4345 02e3 0C       		.uleb128 0xc
 4346 02e4 49       		.uleb128 0x49
 4347 02e5 13       		.uleb128 0x13
 4348 02e6 3C       		.uleb128 0x3c
 4349 02e7 0C       		.uleb128 0xc
 4350 02e8 00       		.byte	0
 4351 02e9 00       		.byte	0
 4352 02ea 00       		.byte	0
 4353              		.section	.debug_loc,"",%progbits
 4354              	.Ldebug_loc0:
 4355              	.LLST0:
 4356 0000 00000000 		.4byte	.LFB118
 4357 0004 02000000 		.4byte	.LCFI0
 4358 0008 0200     		.2byte	0x2
 4359 000a 7D       		.byte	0x7d
 4360 000b 00       		.sleb128 0
 4361 000c 02000000 		.4byte	.LCFI0
 4362 0010 04000000 		.4byte	.LCFI1
 4363 0014 0200     		.2byte	0x2
 4364 0016 7D       		.byte	0x7d
 4365 0017 0C       		.sleb128 12
 4366 0018 04000000 		.4byte	.LCFI1
 4367 001c 06000000 		.4byte	.LCFI2
 4368 0020 0200     		.2byte	0x2
 4369 0022 7D       		.byte	0x7d
ARM GAS  C:\Users\RICHRD~1\AppData\Local\Temp\ccq2u7a9.s 			page 79


 4370 0023 10       		.sleb128 16
 4371 0024 06000000 		.4byte	.LCFI2
 4372 0028 1E000000 		.4byte	.LFE118
 4373 002c 0200     		.2byte	0x2
 4374 002e 7D       		.byte	0x7d
 4375 002f 18       		.sleb128 24
 4376 0030 00000000 		.4byte	0
 4377 0034 00000000 		.4byte	0
 4378              	.LLST1:
 4379 0038 00000000 		.4byte	.LVL0
 4380 003c 13000000 		.4byte	.LVL1-1
 4381 0040 0100     		.2byte	0x1
 4382 0042 50       		.byte	0x50
 4383 0043 13000000 		.4byte	.LVL1-1
 4384 0047 1E000000 		.4byte	.LFE118
 4385 004b 0400     		.2byte	0x4
 4386 004d F3       		.byte	0xf3
 4387 004e 01       		.uleb128 0x1
 4388 004f 50       		.byte	0x50
 4389 0050 9F       		.byte	0x9f
 4390 0051 00000000 		.4byte	0
 4391 0055 00000000 		.4byte	0
 4392              	.LLST2:
 4393 0059 00000000 		.4byte	.LFB119
 4394 005d 04000000 		.4byte	.LCFI3
 4395 0061 0200     		.2byte	0x2
 4396 0063 7D       		.byte	0x7d
 4397 0064 00       		.sleb128 0
 4398 0065 04000000 		.4byte	.LCFI3
 4399 0069 14000000 		.4byte	.LCFI4
 4400 006d 0200     		.2byte	0x2
 4401 006f 7D       		.byte	0x7d
 4402 0070 18       		.sleb128 24
 4403 0071 14000000 		.4byte	.LCFI4
 4404 0075 D4000000 		.4byte	.LFE119
 4405 0079 0200     		.2byte	0x2
 4406 007b 7D       		.byte	0x7d
 4407 007c 28       		.sleb128 40
 4408 007d 00000000 		.4byte	0
 4409 0081 00000000 		.4byte	0
 4410              	.LLST3:
 4411 0085 00000000 		.4byte	.LVL2
 4412 0089 10000000 		.4byte	.LVL3
 4413 008d 0100     		.2byte	0x1
 4414 008f 50       		.byte	0x50
 4415 0090 10000000 		.4byte	.LVL3
 4416 0094 D4000000 		.4byte	.LFE119
 4417 0098 0400     		.2byte	0x4
 4418 009a F3       		.byte	0xf3
 4419 009b 01       		.uleb128 0x1
 4420 009c 50       		.byte	0x50
 4421 009d 9F       		.byte	0x9f
 4422 009e 00000000 		.4byte	0
 4423 00a2 00000000 		.4byte	0
 4424              	.LLST4:
 4425 00a6 64000000 		.4byte	.LVL7
 4426 00aa A4000000 		.4byte	.LVL8
ARM GAS  C:\Users\RICHRD~1\AppData\Local\Temp\ccq2u7a9.s 			page 80


 4427 00ae 0200     		.2byte	0x2
 4428 00b0 30       		.byte	0x30
 4429 00b1 9F       		.byte	0x9f
 4430 00b2 00000000 		.4byte	0
 4431 00b6 00000000 		.4byte	0
 4432              	.LLST5:
 4433 00ba 00000000 		.4byte	.LFB120
 4434 00be 02000000 		.4byte	.LCFI5
 4435 00c2 0200     		.2byte	0x2
 4436 00c4 7D       		.byte	0x7d
 4437 00c5 00       		.sleb128 0
 4438 00c6 02000000 		.4byte	.LCFI5
 4439 00ca 78000000 		.4byte	.LFE120
 4440 00ce 0200     		.2byte	0x2
 4441 00d0 7D       		.byte	0x7d
 4442 00d1 10       		.sleb128 16
 4443 00d2 00000000 		.4byte	0
 4444 00d6 00000000 		.4byte	0
 4445              	.LLST6:
 4446 00da 00000000 		.4byte	.LVL10
 4447 00de 10000000 		.4byte	.LVL11
 4448 00e2 0100     		.2byte	0x1
 4449 00e4 50       		.byte	0x50
 4450 00e5 10000000 		.4byte	.LVL11
 4451 00e9 78000000 		.4byte	.LFE120
 4452 00ed 0400     		.2byte	0x4
 4453 00ef F3       		.byte	0xf3
 4454 00f0 01       		.uleb128 0x1
 4455 00f1 50       		.byte	0x50
 4456 00f2 9F       		.byte	0x9f
 4457 00f3 00000000 		.4byte	0
 4458 00f7 00000000 		.4byte	0
 4459              	.LLST7:
 4460 00fb 1A000000 		.4byte	.LVL12
 4461 00ff 4E000000 		.4byte	.LVL17
 4462 0103 0200     		.2byte	0x2
 4463 0105 30       		.byte	0x30
 4464 0106 9F       		.byte	0x9f
 4465 0107 4E000000 		.4byte	.LVL17
 4466 010b 64000000 		.4byte	.LVL19
 4467 010f 0200     		.2byte	0x2
 4468 0111 31       		.byte	0x31
 4469 0112 9F       		.byte	0x9f
 4470 0113 00000000 		.4byte	0
 4471 0117 00000000 		.4byte	0
 4472              	.LLST8:
 4473 011b 00000000 		.4byte	.LFB121
 4474 011f 02000000 		.4byte	.LCFI6
 4475 0123 0200     		.2byte	0x2
 4476 0125 7D       		.byte	0x7d
 4477 0126 00       		.sleb128 0
 4478 0127 02000000 		.4byte	.LCFI6
 4479 012b 24000000 		.4byte	.LCFI7
 4480 012f 0200     		.2byte	0x2
 4481 0131 7D       		.byte	0x7d
 4482 0132 08       		.sleb128 8
 4483 0133 24000000 		.4byte	.LCFI7
ARM GAS  C:\Users\RICHRD~1\AppData\Local\Temp\ccq2u7a9.s 			page 81


 4484 0137 70000000 		.4byte	.LFE121
 4485 013b 0200     		.2byte	0x2
 4486 013d 7D       		.byte	0x7d
 4487 013e 10       		.sleb128 16
 4488 013f 00000000 		.4byte	0
 4489 0143 00000000 		.4byte	0
 4490              	.LLST9:
 4491 0147 00000000 		.4byte	.LFB122
 4492 014b 02000000 		.4byte	.LCFI8
 4493 014f 0200     		.2byte	0x2
 4494 0151 7D       		.byte	0x7d
 4495 0152 00       		.sleb128 0
 4496 0153 02000000 		.4byte	.LCFI8
 4497 0157 40010000 		.4byte	.LFE122
 4498 015b 0200     		.2byte	0x2
 4499 015d 7D       		.byte	0x7d
 4500 015e 18       		.sleb128 24
 4501 015f 00000000 		.4byte	0
 4502 0163 00000000 		.4byte	0
 4503              	.LLST10:
 4504 0167 00000000 		.4byte	.LVL23
 4505 016b 0D000000 		.4byte	.LVL25-1
 4506 016f 0100     		.2byte	0x1
 4507 0171 50       		.byte	0x50
 4508 0172 0D000000 		.4byte	.LVL25-1
 4509 0176 18000000 		.4byte	.LVL27
 4510 017a 0100     		.2byte	0x1
 4511 017c 54       		.byte	0x54
 4512 017d 18000000 		.4byte	.LVL27
 4513 0181 1B000000 		.4byte	.LVL28-1
 4514 0185 0100     		.2byte	0x1
 4515 0187 50       		.byte	0x50
 4516 0188 1B000000 		.4byte	.LVL28-1
 4517 018c E6000000 		.4byte	.LVL48
 4518 0190 0100     		.2byte	0x1
 4519 0192 54       		.byte	0x54
 4520 0193 E6000000 		.4byte	.LVL48
 4521 0197 40010000 		.4byte	.LFE122
 4522 019b 0100     		.2byte	0x1
 4523 019d 50       		.byte	0x50
 4524 019e 00000000 		.4byte	0
 4525 01a2 00000000 		.4byte	0
 4526              	.LLST11:
 4527 01a6 00000000 		.4byte	.LVL23
 4528 01aa 04000000 		.4byte	.LVL24
 4529 01ae 0100     		.2byte	0x1
 4530 01b0 51       		.byte	0x51
 4531 01b1 04000000 		.4byte	.LVL24
 4532 01b5 40010000 		.4byte	.LFE122
 4533 01b9 0400     		.2byte	0x4
 4534 01bb F3       		.byte	0xf3
 4535 01bc 01       		.uleb128 0x1
 4536 01bd 51       		.byte	0x51
 4537 01be 9F       		.byte	0x9f
 4538 01bf 00000000 		.4byte	0
 4539 01c3 00000000 		.4byte	0
 4540              	.LLST12:
ARM GAS  C:\Users\RICHRD~1\AppData\Local\Temp\ccq2u7a9.s 			page 82


 4541 01c7 00000000 		.4byte	.LVL23
 4542 01cb 0D000000 		.4byte	.LVL25-1
 4543 01cf 0100     		.2byte	0x1
 4544 01d1 52       		.byte	0x52
 4545 01d2 0D000000 		.4byte	.LVL25-1
 4546 01d6 40010000 		.4byte	.LFE122
 4547 01da 0400     		.2byte	0x4
 4548 01dc F3       		.byte	0xf3
 4549 01dd 01       		.uleb128 0x1
 4550 01de 52       		.byte	0x52
 4551 01df 9F       		.byte	0x9f
 4552 01e0 00000000 		.4byte	0
 4553 01e4 00000000 		.4byte	0
 4554              		.section	.debug_aranges,"",%progbits
 4555 0000 3C000000 		.4byte	0x3c
 4556 0004 0200     		.2byte	0x2
 4557 0006 00000000 		.4byte	.Ldebug_info0
 4558 000a 04       		.byte	0x4
 4559 000b 00       		.byte	0
 4560 000c 0000     		.2byte	0
 4561 000e 0000     		.2byte	0
 4562 0010 00000000 		.4byte	.LFB118
 4563 0014 1E000000 		.4byte	.LFE118-.LFB118
 4564 0018 00000000 		.4byte	.LFB119
 4565 001c D4000000 		.4byte	.LFE119-.LFB119
 4566 0020 00000000 		.4byte	.LFB120
 4567 0024 78000000 		.4byte	.LFE120-.LFB120
 4568 0028 00000000 		.4byte	.LFB121
 4569 002c 70000000 		.4byte	.LFE121-.LFB121
 4570 0030 00000000 		.4byte	.LFB122
 4571 0034 40010000 		.4byte	.LFE122-.LFB122
 4572 0038 00000000 		.4byte	0
 4573 003c 00000000 		.4byte	0
 4574              		.section	.debug_ranges,"",%progbits
 4575              	.Ldebug_ranges0:
 4576 0000 00000000 		.4byte	.LFB118
 4577 0004 1E000000 		.4byte	.LFE118
 4578 0008 00000000 		.4byte	.LFB119
 4579 000c D4000000 		.4byte	.LFE119
 4580 0010 00000000 		.4byte	.LFB120
 4581 0014 78000000 		.4byte	.LFE120
 4582 0018 00000000 		.4byte	.LFB121
 4583 001c 70000000 		.4byte	.LFE121
 4584 0020 00000000 		.4byte	.LFB122
 4585 0024 40010000 		.4byte	.LFE122
 4586 0028 00000000 		.4byte	0
 4587 002c 00000000 		.4byte	0
 4588              		.section	.debug_line,"",%progbits
 4589              	.Ldebug_line0:
 4590 0000 24040000 		.section	.debug_str,"MS",%progbits,1
 4590      02001203 
 4590      00000201 
 4590      FB0E0D00 
 4590      01010101 
 4591              	.LASF166:
 4592 0000 72786D73 		.ascii	"rxmsg\000"
 4592      6700
ARM GAS  C:\Users\RICHRD~1\AppData\Local\Temp\ccq2u7a9.s 			page 83


 4593              	.LASF79:
 4594 0006 7466756E 		.ascii	"tfunc_t\000"
 4594      635F7400 
 4595              	.LASF162:
 4596 000e 636D645F 		.ascii	"cmd_can_commvalues\000"
 4596      63616E5F 
 4596      636F6D6D 
 4596      76616C75 
 4596      657300
 4597              	.LASF11:
 4598 0021 73697A65 		.ascii	"size_t\000"
 4598      5F7400
 4599              	.LASF127:
 4600 0028 43414E52 		.ascii	"CANRxFrame\000"
 4600      78467261 
 4600      6D6500
 4601              	.LASF75:
 4602 0033 7264796D 		.ascii	"rdymsg\000"
 4602      736700
 4603              	.LASF16:
 4604 003a 75696E74 		.ascii	"uint64_t\000"
 4604      36345F74 
 4604      00
 4605              	.LASF149:
 4606 0043 43414E5F 		.ascii	"CAN_RX_RPY\000"
 4606      52585F52 
 4606      505900
 4607              	.LASF142:
 4608 004e 76615F6C 		.ascii	"va_list\000"
 4608      69737400 
 4609              	.LASF128:
 4610 0056 43414E43 		.ascii	"CANConfig\000"
 4610      6F6E6669 
 4610      6700
 4611              	.LASF108:
 4612 0060 43414E5F 		.ascii	"CAN_TypeDef\000"
 4612      54797065 
 4612      44656600 
 4613              	.LASF88:
 4614 006c 52445452 		.ascii	"RDTR\000"
 4614      00
 4615              	.LASF165:
 4616 0071 74786D73 		.ascii	"txmsg\000"
 4616      6700
 4617              	.LASF6:
 4618 0077 6C6F6E67 		.ascii	"long long unsigned int\000"
 4618      206C6F6E 
 4618      6720756E 
 4618      7369676E 
 4618      65642069 
 4619              	.LASF109:
 4620 008e 42617365 		.ascii	"BaseChannelVMT\000"
 4620      4368616E 
 4620      6E656C56 
 4620      4D5400
 4621              	.LASF76:
 4622 009d 65786974 		.ascii	"exitcode\000"
ARM GAS  C:\Users\RICHRD~1\AppData\Local\Temp\ccq2u7a9.s 			page 84


 4622      636F6465 
 4622      00
 4623              	.LASF124:
 4624 00a6 64617461 		.ascii	"data32\000"
 4624      333200
 4625              	.LASF180:
 4626 00ad 63684576 		.ascii	"chEvtWaitAnyTimeout\000"
 4626      74576169 
 4626      74416E79 
 4626      54696D65 
 4626      6F757400 
 4627              	.LASF181:
 4628 00c1 63616E52 		.ascii	"canReceive\000"
 4628      65636569 
 4628      766500
 4629              	.LASF157:
 4630 00cc 61736973 		.ascii	"asist\000"
 4630      7400
 4631              	.LASF113:
 4632 00d2 72656164 		.ascii	"readt\000"
 4632      7400
 4633              	.LASF5:
 4634 00d8 6C6F6E67 		.ascii	"long long int\000"
 4634      206C6F6E 
 4634      6720696E 
 4634      7400
 4635              	.LASF1:
 4636 00e6 7369676E 		.ascii	"signed char\000"
 4636      65642063 
 4636      68617200 
 4637              	.LASF117:
 4638 00f2 43414E5F 		.ascii	"CAN_STARTING\000"
 4638      53544152 
 4638      54494E47 
 4638      00
 4639              	.LASF156:
 4640 00ff 43414E5F 		.ascii	"CAN_TX_NUM_CH\000"
 4640      54585F4E 
 4640      554D5F43 
 4640      4800
 4641              	.LASF47:
 4642 010d 705F6D70 		.ascii	"p_mpool\000"
 4642      6F6F6C00 
 4643              	.LASF131:
 4644 0115 74787365 		.ascii	"txsem\000"
 4644      6D00
 4645              	.LASF21:
 4646 011b 74736C69 		.ascii	"tslices_t\000"
 4646      6365735F 
 4646      7400
 4647              	.LASF129:
 4648 0125 73746174 		.ascii	"state\000"
 4648      6500
 4649              	.LASF85:
 4650 012b 54444C52 		.ascii	"TDLR\000"
 4650      00
 4651              	.LASF7:
ARM GAS  C:\Users\RICHRD~1\AppData\Local\Temp\ccq2u7a9.s 			page 85


 4652 0130 6C6F6E67 		.ascii	"long int\000"
 4652      20696E74 
 4652      00
 4653              	.LASF19:
 4654 0139 74737461 		.ascii	"tstate_t\000"
 4654      74655F74 
 4654      00
 4655              	.LASF87:
 4656 0142 43414E5F 		.ascii	"CAN_TxMailBox_TypeDef\000"
 4656      54784D61 
 4656      696C426F 
 4656      785F5479 
 4656      70654465 
 4657              	.LASF140:
 4658 0158 5F5F7661 		.ascii	"__va_list\000"
 4658      5F6C6973 
 4658      7400
 4659              	.LASF38:
 4660 0162 705F7265 		.ascii	"p_refs\000"
 4660      667300
 4661              	.LASF168:
 4662 0169 6D657373 		.ascii	"messages\000"
 4662      61676573 
 4662      00
 4663              	.LASF154:
 4664 0172 63616E5F 		.ascii	"can_txState\000"
 4664      74785374 
 4664      61746500 
 4665              	.LASF13:
 4666 017e 75696E74 		.ascii	"uint16_t\000"
 4666      31365F74 
 4666      00
 4667              	.LASF40:
 4668 0187 705F7469 		.ascii	"p_time\000"
 4668      6D6500
 4669              	.LASF143:
 4670 018e 646F7562 		.ascii	"double\000"
 4670      6C6500
 4671              	.LASF170:
 4672 0195 74785F61 		.ascii	"tx_ans\000"
 4672      6E7300
 4673              	.LASF33:
 4674 019c 705F6E65 		.ascii	"p_newer\000"
 4674      77657200 
 4675              	.LASF62:
 4676 01a4 735F7175 		.ascii	"s_queue\000"
 4676      65756500 
 4677              	.LASF118:
 4678 01ac 43414E5F 		.ascii	"CAN_READY\000"
 4678      52454144 
 4678      5900
 4679              	.LASF186:
 4680 01b6 63616E53 		.ascii	"canStart\000"
 4680      74617274 
 4680      00
 4681              	.LASF133:
 4682 01bf 72786675 		.ascii	"rxfull_event\000"
ARM GAS  C:\Users\RICHRD~1\AppData\Local\Temp\ccq2u7a9.s 			page 86


 4682      6C6C5F65 
 4682      76656E74 
 4682      00
 4683              	.LASF57:
 4684 01cc 725F6E65 		.ascii	"r_newer\000"
 4684      77657200 
 4685              	.LASF50:
 4686 01d4 72656761 		.ascii	"regarm_t\000"
 4686      726D5F74 
 4686      00
 4687              	.LASF126:
 4688 01dd 54494D45 		.ascii	"TIME\000"
 4688      00
 4689              	.LASF28:
 4690 01e2 54687265 		.ascii	"Thread\000"
 4690      616400
 4691              	.LASF173:
 4692 01e9 726C6973 		.ascii	"rlist\000"
 4692      7400
 4693              	.LASF84:
 4694 01ef 54445452 		.ascii	"TDTR\000"
 4694      00
 4695              	.LASF73:
 4696 01f4 4576656E 		.ascii	"EventSource\000"
 4696      74536F75 
 4696      72636500 
 4697              	.LASF83:
 4698 0200 42617365 		.ascii	"BaseSequentialStream\000"
 4698      53657175 
 4698      656E7469 
 4698      616C5374 
 4698      7265616D 
 4699              	.LASF27:
 4700 0215 636E745F 		.ascii	"cnt_t\000"
 4700      7400
 4701              	.LASF0:
 4702 021b 756E7369 		.ascii	"unsigned int\000"
 4702      676E6564 
 4702      20696E74 
 4702      00
 4703              	.LASF175:
 4704 0228 43414E44 		.ascii	"CAND1\000"
 4704      3100
 4705              	.LASF96:
 4706 022e 7354784D 		.ascii	"sTxMailBox\000"
 4706      61696C42 
 4706      6F7800
 4707              	.LASF177:
 4708 0239 63616E5F 		.ascii	"can_txstate\000"
 4708      74787374 
 4708      61746500 
 4709              	.LASF42:
 4710 0245 705F6D73 		.ascii	"p_msgqueue\000"
 4710      67717565 
 4710      756500
 4711              	.LASF151:
 4712 0250 43414E5F 		.ascii	"CAN_RX_WAIT\000"
ARM GAS  C:\Users\RICHRD~1\AppData\Local\Temp\ccq2u7a9.s 			page 87


 4712      52585F57 
 4712      41495400 
 4713              	.LASF125:
 4714 025c 43414E54 		.ascii	"CANTxFrame\000"
 4714      78467261 
 4714      6D6500
 4715              	.LASF111:
 4716 0267 67657474 		.ascii	"gett\000"
 4716      00
 4717              	.LASF63:
 4718 026c 735F636E 		.ascii	"s_cnt\000"
 4718      7400
 4719              	.LASF4:
 4720 0272 73686F72 		.ascii	"short unsigned int\000"
 4720      7420756E 
 4720      7369676E 
 4720      65642069 
 4720      6E7400
 4721              	.LASF94:
 4722 0285 52463152 		.ascii	"RF1R\000"
 4722      00
 4723              	.LASF92:
 4724 028a 43414E5F 		.ascii	"CAN_FilterRegister_TypeDef\000"
 4724      46696C74 
 4724      65725265 
 4724      67697374 
 4724      65725F54 
 4725              	.LASF179:
 4726 02a5 63684576 		.ascii	"chEvtRegisterMask\000"
 4726      74526567 
 4726      69737465 
 4726      724D6173 
 4726      6B00
 4727              	.LASF23:
 4728 02b7 6D73675F 		.ascii	"msg_t\000"
 4728      7400
 4729              	.LASF69:
 4730 02bd 656C5F6E 		.ascii	"el_next\000"
 4730      65787400 
 4731              	.LASF182:
 4732 02c5 63684576 		.ascii	"chEvtUnregister\000"
 4732      74556E72 
 4732      65676973 
 4732      74657200 
 4733              	.LASF112:
 4734 02d5 77726974 		.ascii	"writet\000"
 4734      657400
 4735              	.LASF18:
 4736 02dc 746D6F64 		.ascii	"tmode_t\000"
 4736      655F7400 
 4737              	.LASF49:
 4738 02e4 54687265 		.ascii	"ThreadsList\000"
 4738      6164734C 
 4738      69737400 
 4739              	.LASF107:
 4740 02f0 7346696C 		.ascii	"sFilterRegister\000"
 4740      74657252 
ARM GAS  C:\Users\RICHRD~1\AppData\Local\Temp\ccq2u7a9.s 			page 88


 4740      65676973 
 4740      74657200 
 4741              	.LASF24:
 4742 0300 6576656E 		.ascii	"eventmask_t\000"
 4742      746D6173 
 4742      6B5F7400 
 4743              	.LASF64:
 4744 030c 4D757465 		.ascii	"Mutex\000"
 4744      7800
 4745              	.LASF158:
 4746 0312 63616E5F 		.ascii	"can_rx\000"
 4746      727800
 4747              	.LASF171:
 4748 0319 63616E5F 		.ascii	"can_rx_wa\000"
 4748      72785F77 
 4748      6100
 4749              	.LASF51:
 4750 0323 73746B61 		.ascii	"stkalign_t\000"
 4750      6C69676E 
 4750      5F7400
 4751              	.LASF187:
 4752 032e 63685468 		.ascii	"chThdCreateStatic\000"
 4752      64437265 
 4752      61746553 
 4752      74617469 
 4752      6300
 4753              	.LASF81:
 4754 0340 77726974 		.ascii	"write\000"
 4754      6500
 4755              	.LASF110:
 4756 0346 70757474 		.ascii	"putt\000"
 4756      00
 4757              	.LASF155:
 4758 034b 43414E5F 		.ascii	"CAN_TX_ONE_VIRE\000"
 4758      54585F4F 
 4758      4E455F56 
 4758      49524500 
 4759              	.LASF105:
 4760 035b 46413152 		.ascii	"FA1R\000"
 4760      00
 4761              	.LASF184:
 4762 0360 63616E54 		.ascii	"canTransmit\000"
 4762      72616E73 
 4762      6D697400 
 4763              	.LASF8:
 4764 036c 73697A65 		.ascii	"sizetype\000"
 4764      74797065 
 4764      00
 4765              	.LASF145:
 4766 0375 6C6F6E67 		.ascii	"long double\000"
 4766      20646F75 
 4766      626C6500 
 4767              	.LASF119:
 4768 0381 43414E5F 		.ascii	"CAN_SLEEP\000"
 4768      534C4545 
 4768      5000
 4769              	.LASF167:
ARM GAS  C:\Users\RICHRD~1\AppData\Local\Temp\ccq2u7a9.s 			page 89


 4770 038b 63616E63 		.ascii	"cancfg\000"
 4770      666700
 4771              	.LASF152:
 4772 0392 43414E5F 		.ascii	"CAN_RX_NUM_CH\000"
 4772      52585F4E 
 4772      554D5F43 
 4772      4800
 4773              	.LASF139:
 4774 03a0 5F5F676E 		.ascii	"__gnuc_va_list\000"
 4774      75635F76 
 4774      615F6C69 
 4774      737400
 4775              	.LASF138:
 4776 03af 43414E44 		.ascii	"CANDriver\000"
 4776      72697665 
 4776      7200
 4777              	.LASF146:
 4778 03b9 43414E5F 		.ascii	"CAN_RX_BMS\000"
 4778      52585F42 
 4778      4D5300
 4779              	.LASF188:
 4780 03c4 474E5520 		.ascii	"GNU C 4.7.4 20140401 (release) [ARM/embedded-4_7-br"
 4780      4320342E 
 4780      372E3420 
 4780      32303134 
 4780      30343031 
 4781 03f7 616E6368 		.ascii	"anch revision 209195]\000"
 4781      20726576 
 4781      6973696F 
 4781      6E203230 
 4781      39313935 
 4782              	.LASF34:
 4783 040d 705F6F6C 		.ascii	"p_older\000"
 4783      64657200 
 4784              	.LASF56:
 4785 0415 725F6374 		.ascii	"r_ctx\000"
 4785      7800
 4786              	.LASF48:
 4787 041b 54687265 		.ascii	"ThreadsQueue\000"
 4787      61647351 
 4787      75657565 
 4787      00
 4788              	.LASF86:
 4789 0428 54444852 		.ascii	"TDHR\000"
 4789      00
 4790              	.LASF59:
 4791 042d 725F6375 		.ascii	"r_current\000"
 4791      7272656E 
 4791      7400
 4792              	.LASF58:
 4793 0437 725F6F6C 		.ascii	"r_older\000"
 4793      64657200 
 4794              	.LASF71:
 4795 043f 656C5F6D 		.ascii	"el_mask\000"
 4795      61736B00 
 4796              	.LASF136:
 4797 0447 736C6565 		.ascii	"sleep_event\000"
ARM GAS  C:\Users\RICHRD~1\AppData\Local\Temp\ccq2u7a9.s 			page 90


 4797      705F6576 
 4797      656E7400 
 4798              	.LASF120:
 4799 0453 63616E73 		.ascii	"canstate_t\000"
 4799      74617465 
 4799      5F7400
 4800              	.LASF116:
 4801 045e 43414E5F 		.ascii	"CAN_STOP\000"
 4801      53544F50 
 4801      00
 4802              	.LASF103:
 4803 0467 46464131 		.ascii	"FFA1R\000"
 4803      5200
 4804              	.LASF135:
 4805 046d 6572726F 		.ascii	"error_event\000"
 4805      725F6576 
 4805      656E7400 
 4806              	.LASF144:
 4807 0479 666C6F61 		.ascii	"float\000"
 4807      7400
 4808              	.LASF161:
 4809 047f 63616E5F 		.ascii	"can_commInit\000"
 4809      636F6D6D 
 4809      496E6974 
 4809      00
 4810              	.LASF20:
 4811 048c 74726566 		.ascii	"trefs_t\000"
 4811      735F7400 
 4812              	.LASF95:
 4813 0494 52455345 		.ascii	"RESERVED0\000"
 4813      52564544 
 4813      3000
 4814              	.LASF98:
 4815 049e 52455345 		.ascii	"RESERVED1\000"
 4815      52564544 
 4815      3100
 4816              	.LASF100:
 4817 04a8 52455345 		.ascii	"RESERVED2\000"
 4817      52564544 
 4817      3200
 4818              	.LASF102:
 4819 04b2 52455345 		.ascii	"RESERVED3\000"
 4819      52564544 
 4819      3300
 4820              	.LASF104:
 4821 04bc 52455345 		.ascii	"RESERVED4\000"
 4821      52564544 
 4821      3400
 4822              	.LASF30:
 4823 04c6 705F7072 		.ascii	"p_prev\000"
 4823      657600
 4824              	.LASF22:
 4825 04cd 74707269 		.ascii	"tprio_t\000"
 4825      6F5F7400 
 4826              	.LASF115:
 4827 04d5 43414E5F 		.ascii	"CAN_UNINIT\000"
 4827      554E494E 
ARM GAS  C:\Users\RICHRD~1\AppData\Local\Temp\ccq2u7a9.s 			page 91


 4827      495400
 4828              	.LASF17:
 4829 04e0 5F426F6F 		.ascii	"_Bool\000"
 4829      6C00
 4830              	.LASF14:
 4831 04e6 696E7433 		.ascii	"int32_t\000"
 4831      325F7400 
 4832              	.LASF2:
 4833 04ee 756E7369 		.ascii	"unsigned char\000"
 4833      676E6564 
 4833      20636861 
 4833      7200
 4834              	.LASF65:
 4835 04fc 6D5F7175 		.ascii	"m_queue\000"
 4835      65756500 
 4836              	.LASF137:
 4837 0504 77616B65 		.ascii	"wakeup_event\000"
 4837      75705F65 
 4837      76656E74 
 4837      00
 4838              	.LASF70:
 4839 0511 656C5F6C 		.ascii	"el_listener\000"
 4839      69737465 
 4839      6E657200 
 4840              	.LASF174:
 4841 051d 49544D5F 		.ascii	"ITM_RxBuffer\000"
 4841      52784275 
 4841      66666572 
 4841      00
 4842              	.LASF72:
 4843 052a 656C5F66 		.ascii	"el_flags\000"
 4843      6C616773 
 4843      00
 4844              	.LASF45:
 4845 0533 705F6D74 		.ascii	"p_mtxlist\000"
 4845      786C6973 
 4845      7400
 4846              	.LASF3:
 4847 053d 73686F72 		.ascii	"short int\000"
 4847      7420696E 
 4847      7400
 4848              	.LASF36:
 4849 0547 705F7374 		.ascii	"p_state\000"
 4849      61746500 
 4850              	.LASF39:
 4851 054f 705F7072 		.ascii	"p_preempt\000"
 4851      65656D70 
 4851      7400
 4852              	.LASF55:
 4853 0559 725F7072 		.ascii	"r_prio\000"
 4853      696F00
 4854              	.LASF78:
 4855 0560 65776D61 		.ascii	"ewmask\000"
 4855      736B00
 4856              	.LASF29:
 4857 0567 705F6E65 		.ascii	"p_next\000"
 4857      787400
ARM GAS  C:\Users\RICHRD~1\AppData\Local\Temp\ccq2u7a9.s 			page 92


 4858              	.LASF80:
 4859 056e 42617365 		.ascii	"BaseSequentialStreamVMT\000"
 4859      53657175 
 4859      656E7469 
 4859      616C5374 
 4859      7265616D 
 4860              	.LASF37:
 4861 0586 705F666C 		.ascii	"p_flags\000"
 4861      61677300 
 4862              	.LASF147:
 4863 058e 43414E5F 		.ascii	"CAN_RX_SM\000"
 4863      52585F53 
 4863      4D00
 4864              	.LASF176:
 4865 0598 63616E5F 		.ascii	"can_rxstate\000"
 4865      72787374 
 4865      61746500 
 4866              	.LASF159:
 4867 05a4 63616E5F 		.ascii	"can_tx\000"
 4867      747800
 4868              	.LASF172:
 4869 05ab 63616E5F 		.ascii	"can_tx_wa\000"
 4869      74785F77 
 4869      6100
 4870              	.LASF44:
 4871 05b5 705F6570 		.ascii	"p_epending\000"
 4871      656E6469 
 4871      6E6700
 4872              	.LASF106:
 4873 05c0 52455345 		.ascii	"RESERVED5\000"
 4873      52564544 
 4873      3500
 4874              	.LASF15:
 4875 05ca 75696E74 		.ascii	"uint32_t\000"
 4875      33325F74 
 4875      00
 4876              	.LASF54:
 4877 05d3 725F7175 		.ascii	"r_queue\000"
 4877      65756500 
 4878              	.LASF134:
 4879 05db 7478656D 		.ascii	"txempty_event\000"
 4879      7074795F 
 4879      6576656E 
 4879      7400
 4880              	.LASF9:
 4881 05e9 6C6F6E67 		.ascii	"long unsigned int\000"
 4881      20756E73 
 4881      69676E65 
 4881      6420696E 
 4881      7400
 4882              	.LASF82:
 4883 05fb 72656164 		.ascii	"read\000"
 4883      00
 4884              	.LASF10:
 4885 0600 63686172 		.ascii	"char\000"
 4885      00
 4886              	.LASF150:
ARM GAS  C:\Users\RICHRD~1\AppData\Local\Temp\ccq2u7a9.s 			page 93


 4887 0605 43414E5F 		.ascii	"CAN_RX_LC\000"
 4887      52585F4C 
 4887      4300
 4888              	.LASF130:
 4889 060f 636F6E66 		.ascii	"config\000"
 4889      696700
 4890              	.LASF43:
 4891 0616 705F6D73 		.ascii	"p_msg\000"
 4891      6700
 4892              	.LASF90:
 4893 061c 52444852 		.ascii	"RDHR\000"
 4893      00
 4894              	.LASF67:
 4895 0621 6D5F6E65 		.ascii	"m_next\000"
 4895      787400
 4896              	.LASF26:
 4897 0628 73797374 		.ascii	"systime_t\000"
 4897      696D655F 
 4897      7400
 4898              	.LASF46:
 4899 0632 705F7265 		.ascii	"p_realprio\000"
 4899      616C7072 
 4899      696F00
 4900              	.LASF122:
 4901 063d 64617461 		.ascii	"data8\000"
 4901      3800
 4902              	.LASF97:
 4903 0643 73464946 		.ascii	"sFIFOMailBox\000"
 4903      4F4D6169 
 4903      6C426F78 
 4903      00
 4904              	.LASF141:
 4905 0650 5F5F6170 		.ascii	"__ap\000"
 4905      00
 4906              	.LASF53:
 4907 0655 636F6E74 		.ascii	"context\000"
 4907      65787400 
 4908              	.LASF99:
 4909 065d 464D3152 		.ascii	"FM1R\000"
 4909      00
 4910              	.LASF52:
 4911 0662 696E7463 		.ascii	"intctx\000"
 4911      747800
 4912              	.LASF189:
 4913 0669 7372632F 		.ascii	"src/can_comm.c\000"
 4913      63616E5F 
 4913      636F6D6D 
 4913      2E6300
 4914              	.LASF61:
 4915 0678 53656D61 		.ascii	"Semaphore\000"
 4915      70686F72 
 4915      6500
 4916              	.LASF25:
 4917 0682 666C6167 		.ascii	"flagsmask_t\000"
 4917      736D6173 
 4917      6B5F7400 
 4918              	.LASF123:
ARM GAS  C:\Users\RICHRD~1\AppData\Local\Temp\ccq2u7a9.s 			page 94


 4919 068e 64617461 		.ascii	"data16\000"
 4919      313600
 4920              	.LASF101:
 4921 0695 46533152 		.ascii	"FS1R\000"
 4921      00
 4922              	.LASF185:
 4923 069a 63685468 		.ascii	"chThdSleep\000"
 4923      64536C65 
 4923      657000
 4924              	.LASF35:
 4925 06a5 705F6E61 		.ascii	"p_name\000"
 4925      6D6500
 4926              	.LASF74:
 4927 06ac 65735F6E 		.ascii	"es_next\000"
 4927      65787400 
 4928              	.LASF60:
 4929 06b4 52656164 		.ascii	"ReadyList\000"
 4929      794C6973 
 4929      7400
 4930              	.LASF91:
 4931 06be 43414E5F 		.ascii	"CAN_FIFOMailBox_TypeDef\000"
 4931      4649464F 
 4931      4D61696C 
 4931      426F785F 
 4931      54797065 
 4932              	.LASF153:
 4933 06d6 63616E5F 		.ascii	"can_rxState\000"
 4933      72785374 
 4933      61746500 
 4934              	.LASF12:
 4935 06e2 75696E74 		.ascii	"uint8_t\000"
 4935      385F7400 
 4936              	.LASF169:
 4937 06ea 74785F63 		.ascii	"tx_chanel\000"
 4937      68616E65 
 4937      6C00
 4938              	.LASF178:
 4939 06f4 63687670 		.ascii	"chvprintf\000"
 4939      72696E74 
 4939      6600
 4940              	.LASF132:
 4941 06fe 72787365 		.ascii	"rxsem\000"
 4941      6D00
 4942              	.LASF148:
 4943 0704 43414E5F 		.ascii	"CAN_RX_ML\000"
 4943      52585F4D 
 4943      4C00
 4944              	.LASF31:
 4945 070e 705F7072 		.ascii	"p_prio\000"
 4945      696F00
 4946              	.LASF68:
 4947 0715 4576656E 		.ascii	"EventListener\000"
 4947      744C6973 
 4947      74656E65 
 4947      7200
 4948              	.LASF77:
 4949 0723 77746F62 		.ascii	"wtobjp\000"
ARM GAS  C:\Users\RICHRD~1\AppData\Local\Temp\ccq2u7a9.s 			page 95


 4949      6A7000
 4950              	.LASF93:
 4951 072a 52463052 		.ascii	"RF0R\000"
 4951      00
 4952              	.LASF121:
 4953 072f 63616E6D 		.ascii	"canmbx_t\000"
 4953      62785F74 
 4953      00
 4954              	.LASF163:
 4955 0738 61726763 		.ascii	"argc\000"
 4955      00
 4956              	.LASF160:
 4957 073d 74785F73 		.ascii	"tx_status\000"
 4957      74617475 
 4957      7300
 4958              	.LASF183:
 4959 0747 6F6E655F 		.ascii	"one_vireGetValue\000"
 4959      76697265 
 4959      47657456 
 4959      616C7565 
 4959      00
 4960              	.LASF114:
 4961 0758 42617365 		.ascii	"BaseChannel\000"
 4961      4368616E 
 4961      6E656C00 
 4962              	.LASF89:
 4963 0764 52444C52 		.ascii	"RDLR\000"
 4963      00
 4964              	.LASF164:
 4965 0769 61726776 		.ascii	"argv\000"
 4965      00
 4966              	.LASF66:
 4967 076e 6D5F6F77 		.ascii	"m_owner\000"
 4967      6E657200 
 4968              	.LASF190:
 4969 0776 433A5C55 		.ascii	"C:\\Users\\Rich\341rd\\git\\Modulux\\modulux\\firmw"
 4969      73657273 
 4969      5C526963 
 4969      68E17264 
 4969      5C676974 
 4970 07a0 61726500 		.ascii	"are\000"
 4971              	.LASF32:
 4972 07a4 705F6374 		.ascii	"p_ctx\000"
 4972      7800
 4973              	.LASF41:
 4974 07aa 705F7761 		.ascii	"p_waiting\000"
 4974      6974696E 
 4974      6700
 4975              	.LASF191:
 4976 07b4 63687072 		.ascii	"chprintf\000"
 4976      696E7466 
 4976      00
 4977              		.ident	"GCC: (GNU Tools for ARM Embedded Processors) 4.7.4 20140401 (release) [ARM/embedded-4_7-br
ARM GAS  C:\Users\RICHRD~1\AppData\Local\Temp\ccq2u7a9.s 			page 96


DEFINED SYMBOLS
                            *ABS*:00000000 can_comm.c
C:\Users\RICHRD~1\AppData\Local\Temp\ccq2u7a9.s:19     .text.chprintf:00000000 $t
C:\Users\RICHRD~1\AppData\Local\Temp\ccq2u7a9.s:24     .text.chprintf:00000000 chprintf
C:\Users\RICHRD~1\AppData\Local\Temp\ccq2u7a9.s:64     .text.can_rx:00000000 $t
C:\Users\RICHRD~1\AppData\Local\Temp\ccq2u7a9.s:69     .text.can_rx:00000000 can_rx
C:\Users\RICHRD~1\AppData\Local\Temp\ccq2u7a9.s:210    .text.can_rx:000000b4 $d
C:\Users\RICHRD~1\AppData\Local\Temp\ccq2u7a9.s:222    .text.can_tx:00000000 $t
C:\Users\RICHRD~1\AppData\Local\Temp\ccq2u7a9.s:227    .text.can_tx:00000000 can_tx
C:\Users\RICHRD~1\AppData\Local\Temp\ccq2u7a9.s:312    .text.can_tx:00000068 $d
C:\Users\RICHRD~1\AppData\Local\Temp\ccq2u7a9.s:320    .text.can_commInit:00000000 $t
C:\Users\RICHRD~1\AppData\Local\Temp\ccq2u7a9.s:326    .text.can_commInit:00000000 can_commInit
C:\Users\RICHRD~1\AppData\Local\Temp\ccq2u7a9.s:610    .bss.txmsg:00000000 .LANCHOR4
C:\Users\RICHRD~1\AppData\Local\Temp\ccq2u7a9.s:709    .rodata.cancfg:00000000 .LANCHOR5
C:\Users\RICHRD~1\AppData\Local\Temp\ccq2u7a9.s:622    .bss.can_tx_wa:00000000 .LANCHOR6
C:\Users\RICHRD~1\AppData\Local\Temp\ccq2u7a9.s:702    .bss.can_rx_wa:00000000 .LANCHOR7
C:\Users\RICHRD~1\AppData\Local\Temp\ccq2u7a9.s:391    .text.cmd_can_commvalues:00000000 $t
C:\Users\RICHRD~1\AppData\Local\Temp\ccq2u7a9.s:397    .text.cmd_can_commvalues:00000000 cmd_can_commvalues
C:\Users\RICHRD~1\AppData\Local\Temp\ccq2u7a9.s:568    .text.cmd_can_commvalues:000000e8 $d
C:\Users\RICHRD~1\AppData\Local\Temp\ccq2u7a9.s:618    .bss.can_txstate:00000000 can_txstate
C:\Users\RICHRD~1\AppData\Local\Temp\ccq2u7a9.s:599    .bss.can_rxstate:00000000 can_rxstate
C:\Users\RICHRD~1\AppData\Local\Temp\ccq2u7a9.s:600    .bss.can_rxstate:00000000 $d
C:\Users\RICHRD~1\AppData\Local\Temp\ccq2u7a9.s:602    .bss.id:00000000 $d
C:\Users\RICHRD~1\AppData\Local\Temp\ccq2u7a9.s:606    .bss.id:00000000 id
C:\Users\RICHRD~1\AppData\Local\Temp\ccq2u7a9.s:609    .bss.txmsg:00000000 $d
C:\Users\RICHRD~1\AppData\Local\Temp\ccq2u7a9.s:613    .bss.txmsg:00000000 txmsg
C:\Users\RICHRD~1\AppData\Local\Temp\ccq2u7a9.s:619    .bss.can_txstate:00000000 $d
C:\Users\RICHRD~1\AppData\Local\Temp\ccq2u7a9.s:621    .bss.can_tx_wa:00000000 $d
C:\Users\RICHRD~1\AppData\Local\Temp\ccq2u7a9.s:625    .bss.can_tx_wa:00000000 can_tx_wa
C:\Users\RICHRD~1\AppData\Local\Temp\ccq2u7a9.s:628    .rodata.str1.4:00000000 $d
C:\Users\RICHRD~1\AppData\Local\Temp\ccq2u7a9.s:687    .bss.messages:00000000 $d
C:\Users\RICHRD~1\AppData\Local\Temp\ccq2u7a9.s:691    .bss.messages:00000000 messages
C:\Users\RICHRD~1\AppData\Local\Temp\ccq2u7a9.s:694    .bss.rxmsg:00000000 $d
C:\Users\RICHRD~1\AppData\Local\Temp\ccq2u7a9.s:698    .bss.rxmsg:00000000 rxmsg
C:\Users\RICHRD~1\AppData\Local\Temp\ccq2u7a9.s:701    .bss.can_rx_wa:00000000 $d
C:\Users\RICHRD~1\AppData\Local\Temp\ccq2u7a9.s:705    .bss.can_rx_wa:00000000 can_rx_wa
C:\Users\RICHRD~1\AppData\Local\Temp\ccq2u7a9.s:708    .rodata.cancfg:00000000 $d
C:\Users\RICHRD~1\AppData\Local\Temp\ccq2u7a9.s:712    .rodata.cancfg:00000000 cancfg
                     .debug_frame:00000010 $d
C:\Users\RICHRD~1\AppData\Local\Temp\ccq2u7a9.s:221    .text.can_rx:000000d4 $t
C:\Users\RICHRD~1\AppData\Local\Temp\ccq2u7a9.s:319    .text.can_tx:00000078 $t

UNDEFINED SYMBOLS
chvprintf
chEvtRegisterMask
chEvtWaitAnyTimeout
canReceive
chEvtUnregister
CAND1
rlist
one_vireGetValue
canTransmit
chThdSleep
canStart
chThdCreateStatic
