ARM GAS  C:\Users\DNIEL~1\AppData\Local\Temp\ccVs2ifP.s 			page 1


   1              		.syntax unified
   2              		.cpu cortex-m4
   3              		.fpu softvfp
   4              		.eabi_attribute 20, 1
   5              		.eabi_attribute 21, 1
   6              		.eabi_attribute 23, 3
   7              		.eabi_attribute 24, 1
   8              		.eabi_attribute 25, 1
   9              		.eabi_attribute 26, 1
  10              		.eabi_attribute 30, 2
  11              		.eabi_attribute 18, 4
  12              		.thumb
  13              		.file	"can_comm.c"
  20 0000 C5030000 		.text
  20      02000A03 
  20      00000201 
  20      FB0E0D00 
  20      01010101 
  21              	.Ltext0:
  22              		.cfi_sections	.debug_frame
  23              		.section	.text.chprintf,"ax",%progbits
  24              		.align	2
  25              		.p2align 4,,15
  26              		.thumb
  27              		.thumb_func
  28              		.type	chprintf, %function
  29              	chprintf:
  30              	.LFB118:
  31              		.file 1 "../../../Chibios/os/various/chprintf.h"
  32              		.loc 1 69 0
  33              		.cfi_startproc
  34              		@ args = 4, pretend = 12, frame = 8
  35              		@ frame_needed = 0, uses_anonymous_args = 1
  36              	.LVL0:
  37 0000 0EB4     		push	{r1, r2, r3}
  38              	.LCFI0:
  39              		.cfi_def_cfa_offset 12
  40 0002 00B5     		push	{lr}
  41              	.LCFI1:
  42              		.cfi_def_cfa_offset 16
  43 0004 82B0     		sub	sp, sp, #8
  44              	.LCFI2:
  45              		.cfi_def_cfa_offset 24
  46              		.loc 1 69 0
  47 0006 03AB     		add	r3, sp, #12
  48              		.cfi_offset 14, -16
  49              		.cfi_offset 3, -4
  50              		.cfi_offset 2, -8
  51              		.cfi_offset 1, -12
  52 0008 53F8041B 		ldr	r1, [r3], #4
  53              		.loc 1 73 0
ARM GAS  C:\Users\DNIEL~1\AppData\Local\Temp\ccVs2ifP.s 			page 2


  54 000c 1A46     		mov	r2, r3
  55              		.loc 1 72 0
  56 000e 0193     		str	r3, [sp, #4]
  57              		.loc 1 73 0
  58 0010 FFF7FEFF 		bl	chvprintf
  59              	.LVL1:
  60              		.loc 1 75 0
  61 0014 02B0     		add	sp, sp, #8
  62 0016 5DF804EB 		pop	{lr}
  63 001a 03B0     		add	sp, sp, #12
  64 001c 7047     		bx	lr
  65              		.cfi_endproc
  66              	.LFE118:
  67              		.size	chprintf, .-chprintf
  68 001e 00BF     		.section	.text.can_rx,"ax",%progbits
  69              		.align	2
  70              		.p2align 4,,15
  71              		.thumb
  72              		.thumb_func
  73              		.type	can_rx, %function
  74              	can_rx:
  75              	.LFB119:
  76              		.file 2 "src/can_comm.c"
  77              		.loc 2 57 0
  78              		.cfi_startproc
  79              		@ args = 0, pretend = 0, frame = 16
  80              		@ frame_needed = 0, uses_anonymous_args = 0
  81              	.LVL2:
  82 0000 2DE9F043 		push	{r4, r5, r6, r7, r8, r9, lr}
  83              	.LCFI3:
  84              		.cfi_def_cfa_offset 28
  85              		.loc 2 61 0
  86 0004 2F4F     		ldr	r7, .L27
  87              		.cfi_offset 14, -4
  88              		.cfi_offset 9, -8
  89              		.cfi_offset 8, -12
  90              		.cfi_offset 7, -16
  91              		.cfi_offset 6, -20
  92              		.cfi_offset 5, -24
  93              		.cfi_offset 4, -28
  94 0006 304A     		ldr	r2, .L27+4
  95 0008 BB69     		ldr	r3, [r7, #24]
  96              		.loc 2 62 0
  97 000a 3048     		ldr	r0, .L27+8
  98              	.LVL3:
  99              		.loc 2 61 0
 100 000c 9A61     		str	r2, [r3, #24]
 101              		.loc 2 57 0
 102 000e 85B0     		sub	sp, sp, #20
 103              	.LCFI4:
 104              		.cfi_def_cfa_offset 48
 105              		.loc 2 62 0
 106 0010 6946     		mov	r1, sp
 107 0012 0122     		movs	r2, #1
 108              		.loc 2 70 0
 109 0014 2E4C     		ldr	r4, .L27+12
 110              		.loc 2 66 0
ARM GAS  C:\Users\DNIEL~1\AppData\Local\Temp\ccVs2ifP.s 			page 3


 111 0016 2F4E     		ldr	r6, .L27+16
 112              		.loc 2 69 0
 113 0018 2F4D     		ldr	r5, .L27+20
 114              		.loc 2 62 0
 115 001a FFF7FEFF 		bl	chEvtRegisterMask
 116              		.loc 2 70 0
 117 001e A046     		mov	r8, r4
 118              	.L20:
 119              		.loc 2 63 0 discriminator 1
 120 0020 B869     		ldr	r0, [r7, #24]
 121 0022 90F81DE0 		ldrb	lr, [r0, #29]	@ zero_extendqisi2
 122 0026 1EF0040F 		tst	lr, #4
 123 002a 43D1     		bne	.L23
 124              		.loc 2 64 0
 125 002c 4FF0FF30 		mov	r0, #-1
 126 0030 6421     		movs	r1, #100
 127 0032 FFF7FEFF 		bl	chEvtWaitAnyTimeout
 128 0036 0028     		cmp	r0, #0
 129 0038 F2D0     		beq	.L20
 130              	.L21:
 131              		.loc 2 66 0 discriminator 1
 132 003a 0021     		movs	r1, #0
 133 003c 2748     		ldr	r0, .L27+24
 134 003e 254A     		ldr	r2, .L27+16
 135 0040 0B46     		mov	r3, r1
 136 0042 FFF7FEFF 		bl	canReceive
 137 0046 0028     		cmp	r0, #0
 138 0048 EAD1     		bne	.L20
 139              	.L16:
 140              		.loc 2 69 0
 141 004a B268     		ldr	r2, [r6, #8]
 142 004c C2F31C0E 		ubfx	lr, r2, #0, #29
 143 0050 CEF30F23 		ubfx	r3, lr, #8, #16
 144              		.loc 2 78 0
 145 0054 A3F1100C 		sub	ip, r3, #16
 146 0058 1FFA8CF1 		uxth	r1, ip
 147              		.loc 2 70 0
 148 005c 5FFA8EF2 		uxtb	r2, lr
 149              		.loc 2 78 0
 150 0060 0F29     		cmp	r1, #15
 151              		.loc 2 69 0
 152 0062 2B80     		strh	r3, [r5, #0]	@ movhi
 153              		.loc 2 70 0
 154 0064 2280     		strh	r2, [r4, #0]	@ movhi
 155              		.loc 2 78 0
 156 0066 15D8     		bhi	.L6
 157              		.loc 2 79 0
 158 0068 DFF87490 		ldr	r9, .L27+28
 159              		.loc 2 98 0
 160 006c 012A     		cmp	r2, #1
 161              		.loc 2 79 0
 162 006e 89F80000 		strb	r0, [r9, #0]
 163              		.loc 2 98 0
 164 0072 1AD0     		beq	.L24
 165              	.L8:
 166              		.loc 2 101 0
 167 0074 022A     		cmp	r2, #2
ARM GAS  C:\Users\DNIEL~1\AppData\Local\Temp\ccVs2ifP.s 			page 4


 168 0076 14D0     		beq	.L25
 169              	.L14:
 170              		.loc 2 104 0
 171 0078 032A     		cmp	r2, #3
 172 007a 0FD0     		beq	.L26
 173              	.L15:
 174              		.loc 2 107 0
 175 007c 0422     		movs	r2, #4
 176              		.loc 2 66 0
 177 007e 0021     		movs	r1, #0
 178              		.loc 2 107 0
 179 0080 89F80020 		strb	r2, [r9, #0]
 180              		.loc 2 66 0
 181 0084 1548     		ldr	r0, .L27+24
 182 0086 134A     		ldr	r2, .L27+16
 183 0088 0B46     		mov	r3, r1
 184 008a FFF7FEFF 		bl	canReceive
 185 008e 0028     		cmp	r0, #0
 186 0090 DBD0     		beq	.L16
 187 0092 C5E7     		b	.L20
 188              	.L6:
 189              		.loc 2 92 0
 190 0094 124B     		ldr	r3, .L27+28
 191 0096 0420     		movs	r0, #4
 192 0098 1870     		strb	r0, [r3, #0]
 193 009a CEE7     		b	.L21
 194              	.L26:
 195              		.loc 2 105 0
 196 009c FFF7FEFF 		bl	lightWarning
 197 00a0 ECE7     		b	.L15
 198              	.L25:
 199              		.loc 2 102 0
 200 00a2 FFF7FEFF 		bl	lightLeft
 201 00a6 2288     		ldrh	r2, [r4, #0]
 202 00a8 E6E7     		b	.L14
 203              	.L24:
 204              		.loc 2 99 0
 205 00aa FFF7FEFF 		bl	lightRight
 206 00ae B8F80020 		ldrh	r2, [r8, #0]
 207 00b2 DFE7     		b	.L8
 208              	.L23:
 209              		.loc 2 130 0
 210 00b4 0548     		ldr	r0, .L27+8
 211 00b6 6946     		mov	r1, sp
 212 00b8 FFF7FEFF 		bl	chEvtUnregister
 213              		.loc 2 133 0
 214 00bc 0020     		movs	r0, #0
 215 00be 05B0     		add	sp, sp, #20
 216 00c0 BDE8F083 		pop	{r4, r5, r6, r7, r8, r9, pc}
 217              	.L28:
 218              		.align	2
 219              	.L27:
 220 00c4 00000000 		.word	rlist
 221 00c8 00000000 		.word	.LC0
 222 00cc 20000000 		.word	CAND1+32
 223 00d0 00000000 		.word	.LANCHOR2
 224 00d4 00000000 		.word	.LANCHOR0
ARM GAS  C:\Users\DNIEL~1\AppData\Local\Temp\ccVs2ifP.s 			page 5


 225 00d8 00000000 		.word	.LANCHOR1
 226 00dc 00000000 		.word	CAND1
 227 00e0 00000000 		.word	.LANCHOR3
 228              		.cfi_endproc
 229              	.LFE119:
 230              		.size	can_rx, .-can_rx
 231 00e4 AFF30080 		.section	.text.can_commInit,"ax",%progbits
 231      AFF30080 
 231      AFF30080 
 232              		.align	2
 233              		.p2align 4,,15
 234              		.global	can_commInit
 235              		.thumb
 236              		.thumb_func
 237              		.type	can_commInit, %function
 238              	can_commInit:
 239              	.LFB121:
 240              		.loc 2 158 0
 241              		.cfi_startproc
 242              		@ args = 0, pretend = 0, frame = 0
 243              		@ frame_needed = 0, uses_anonymous_args = 0
 244 0000 00B5     		push	{lr}
 245              	.LCFI5:
 246              		.cfi_def_cfa_offset 4
 247              		.loc 2 159 0
 248 0002 0848     		ldr	r0, .L30
 249 0004 0849     		ldr	r1, .L30+4
 250              		.loc 2 158 0
 251 0006 83B0     		sub	sp, sp, #12
 252              	.LCFI6:
 253              		.cfi_def_cfa_offset 16
 254              		.loc 2 159 0
 255              		.cfi_offset 14, -4
 256 0008 FFF7FEFF 		bl	canStart
 257              		.loc 2 161 0
 258 000c 0022     		movs	r2, #0
 259 000e 0092     		str	r2, [sp, #0]
 260 0010 064B     		ldr	r3, .L30+8
 261 0012 0748     		ldr	r0, .L30+12
 262 0014 4FF4E871 		mov	r1, #464
 263 0018 4022     		movs	r2, #64
 264 001a FFF7FEFF 		bl	chThdCreateStatic
 265              		.loc 2 162 0
 266 001e 03B0     		add	sp, sp, #12
 267 0020 00BD     		pop	{pc}
 268              	.L31:
 269 0022 00BF     		.align	2
 270              	.L30:
 271 0024 00000000 		.word	CAND1
 272 0028 00000000 		.word	.LANCHOR4
 273 002c 00000000 		.word	can_rx
 274 0030 00000000 		.word	.LANCHOR5
 275              		.cfi_endproc
 276              	.LFE121:
 277              		.size	can_commInit, .-can_commInit
 278 0034 AFF30080 		.section	.text.cmd_can_commvalues,"ax",%progbits
 278      AFF30080 
ARM GAS  C:\Users\DNIEL~1\AppData\Local\Temp\ccVs2ifP.s 			page 6


 278      AFF30080 
 279              		.align	2
 280              		.p2align 4,,15
 281              		.global	cmd_can_commvalues
 282              		.thumb
 283              		.thumb_func
 284              		.type	cmd_can_commvalues, %function
 285              	cmd_can_commvalues:
 286              	.LFB122:
 287              		.loc 2 164 0
 288              		.cfi_startproc
 289              		@ args = 0, pretend = 0, frame = 0
 290              		@ frame_needed = 0, uses_anonymous_args = 0
 291              	.LVL4:
 292 0000 F8B5     		push	{r3, r4, r5, r6, r7, lr}
 293              	.LCFI7:
 294              		.cfi_def_cfa_offset 24
 295              		.loc 2 168 0
 296 0002 2449     		ldr	r1, .L35
 297              	.LVL5:
 298              		.loc 2 172 0
 299 0004 244D     		ldr	r5, .L35+4
 300              		.cfi_offset 14, -4
 301              		.cfi_offset 7, -8
 302              		.cfi_offset 6, -12
 303              		.cfi_offset 5, -16
 304              		.cfi_offset 4, -20
 305              		.cfi_offset 3, -24
 306              		.loc 2 173 0
 307 0006 254F     		ldr	r7, .L35+8
 308              		.loc 2 174 0
 309 0008 254E     		ldr	r6, .L35+12
 310              		.loc 2 164 0
 311 000a 0446     		mov	r4, r0
 312              		.loc 2 168 0
 313 000c FFF7FEFF 		bl	chprintf
 314              	.LVL6:
 315              		.loc 2 169 0
 316 0010 2046     		mov	r0, r4
 317 0012 2449     		ldr	r1, .L35+16
 318 0014 FFF7FEFF 		bl	chprintf
 319              		.loc 2 170 0
 320 0018 32E0     		b	.L33
 321              	.L34:
 322              		.loc 2 171 0
 323 001a 0022     		movs	r2, #0
 324 001c 1346     		mov	r3, r2
 325 001e 2046     		mov	r0, r4
 326 0020 2149     		ldr	r1, .L35+20
 327 0022 FFF7FEFF 		bl	chprintf
 328              		.loc 2 172 0
 329 0026 AA68     		ldr	r2, [r5, #8]
 330 0028 2049     		ldr	r1, .L35+24
 331 002a 22F06042 		bic	r2, r2, #-536870912
 332 002e 2046     		mov	r0, r4
 333 0030 FFF7FEFF 		bl	chprintf
 334              		.loc 2 173 0
ARM GAS  C:\Users\DNIEL~1\AppData\Local\Temp\ccVs2ifP.s 			page 7


 335 0034 2046     		mov	r0, r4
 336 0036 1E49     		ldr	r1, .L35+28
 337 0038 3A88     		ldrh	r2, [r7, #0]
 338 003a FFF7FEFF 		bl	chprintf
 339              		.loc 2 174 0
 340 003e 3288     		ldrh	r2, [r6, #0]
 341 0040 1C49     		ldr	r1, .L35+32
 342 0042 2046     		mov	r0, r4
 343 0044 FFF7FEFF 		bl	chprintf
 344              		.loc 2 175 0
 345 0048 2046     		mov	r0, r4
 346 004a 1B49     		ldr	r1, .L35+36
 347 004c FFF7FEFF 		bl	chprintf
 348              		.loc 2 176 0
 349 0050 2046     		mov	r0, r4
 350 0052 1A49     		ldr	r1, .L35+40
 351 0054 AA89     		ldrh	r2, [r5, #12]
 352 0056 FFF7FEFF 		bl	chprintf
 353              		.loc 2 177 0
 354 005a 2046     		mov	r0, r4
 355 005c 1849     		ldr	r1, .L35+44
 356 005e EA89     		ldrh	r2, [r5, #14]
 357 0060 FFF7FEFF 		bl	chprintf
 358              		.loc 2 178 0
 359 0064 2046     		mov	r0, r4
 360 0066 1749     		ldr	r1, .L35+48
 361 0068 2A8A     		ldrh	r2, [r5, #16]
 362 006a FFF7FEFF 		bl	chprintf
 363              		.loc 2 179 0
 364 006e 2046     		mov	r0, r4
 365 0070 1549     		ldr	r1, .L35+52
 366 0072 6A8A     		ldrh	r2, [r5, #18]
 367 0074 FFF7FEFF 		bl	chprintf
 368              		.loc 2 181 0
 369 0078 4FF47A70 		mov	r0, #1000
 370 007c FFF7FEFF 		bl	chThdSleep
 371              	.L33:
 372              		.loc 2 170 0 discriminator 1
 373 0080 2168     		ldr	r1, [r4, #0]
 374 0082 2046     		mov	r0, r4
 375 0084 4B69     		ldr	r3, [r1, #20]
 376 0086 0021     		movs	r1, #0
 377 0088 9847     		blx	r3
 378 008a B0F1FF3F 		cmp	r0, #-1
 379 008e C4D0     		beq	.L34
 380              		.loc 2 183 0
 381 0090 F8BD     		pop	{r3, r4, r5, r6, r7, pc}
 382              	.L36:
 383 0092 00BF     		.align	2
 384              	.L35:
 385 0094 0C000000 		.word	.LC1
 386 0098 00000000 		.word	.LANCHOR0
 387 009c 00000000 		.word	.LANCHOR1
 388 00a0 00000000 		.word	.LANCHOR2
 389 00a4 10000000 		.word	.LC2
 390 00a8 18000000 		.word	.LC3
 391 00ac 24000000 		.word	.LC4
ARM GAS  C:\Users\DNIEL~1\AppData\Local\Temp\ccVs2ifP.s 			page 8


 392 00b0 34000000 		.word	.LC5
 393 00b4 40000000 		.word	.LC6
 394 00b8 54000000 		.word	.LC7
 395 00bc 58000000 		.word	.LC8
 396 00c0 6C000000 		.word	.LC9
 397 00c4 80000000 		.word	.LC10
 398 00c8 94000000 		.word	.LC11
 399              		.cfi_endproc
 400              	.LFE122:
 401              		.size	cmd_can_commvalues, .-cmd_can_commvalues
 402              		.global	canstate
 403 00cc AFF30080 		.section	.bss.id,"aw",%nobits
 404              		.align	1
 405              		.set	.LANCHOR1,. + 0
 406              		.type	id, %object
 407              		.size	id, 2
 408              	id:
 409 0000 0000     		.space	2
 410              		.section	.bss.can_rx_wa,"aw",%nobits
 411              		.align	3
 412              		.set	.LANCHOR5,. + 0
 413              		.type	can_rx_wa, %object
 414              		.size	can_rx_wa, 464
 415              	can_rx_wa:
 416 0000 00000000 		.space	464
 416      00000000 
 416      00000000 
 416      00000000 
 416      00000000 
 417              		.section	.rodata.str1.4,"aMS",%progbits,1
 418              		.align	2
 419              	.LC0:
 420 0000 72656365 		.ascii	"receiver\000"
 420      69766572 
 420      00
 421 0009 000000   		.space	3
 422              	.LC1:
 423 000c 1B6300   		.ascii	"\033c\000"
 424 000f 00       		.space	1
 425              	.LC2:
 426 0010 1B5B324A 		.ascii	"\033[2J\000"
 426      00
 427 0015 000000   		.space	3
 428              	.LC3:
 429 0018 1B5B2564 		.ascii	"\033[%d;%dH\000"
 429      3B256448 
 429      00
 430 0021 000000   		.space	3
 431              	.LC4:
 432 0024 52582E45 		.ascii	"RX.EID : %x \015\012\000"
 432      4944203A 
 432      20257820 
 432      0D0A00
 433 0033 00       		.space	1
 434              	.LC5:
 435 0034 6964203A 		.ascii	"id : %x \015\012\000"
 435      20257820 
ARM GAS  C:\Users\DNIEL~1\AppData\Local\Temp\ccVs2ifP.s 			page 9


 435      0D0A00
 436 003f 00       		.space	1
 437              	.LC6:
 438 0040 6D657373 		.ascii	"messages : %x \015\012\000"
 438      61676573 
 438      203A2025 
 438      78200D0A 
 438      00
 439 0051 000000   		.space	3
 440              	.LC7:
 441 0054 0D0A00   		.ascii	"\015\012\000"
 442 0057 00       		.space	1
 443              	.LC8:
 444 0058 52582E44 		.ascii	"RX.DATA1 : %d \015\012\000"
 444      41544131 
 444      203A2025 
 444      64200D0A 
 444      00
 445 0069 000000   		.space	3
 446              	.LC9:
 447 006c 52582E44 		.ascii	"RX.DATA2 : %d \015\012\000"
 447      41544132 
 447      203A2025 
 447      64200D0A 
 447      00
 448 007d 000000   		.space	3
 449              	.LC10:
 450 0080 52582E44 		.ascii	"RX.DATA3 : %d \015\012\000"
 450      41544133 
 450      203A2025 
 450      64200D0A 
 450      00
 451 0091 000000   		.space	3
 452              	.LC11:
 453 0094 52582E44 		.ascii	"RX.DATA4 : %d \015\012\000"
 453      41544134 
 453      203A2025 
 453      64200D0A 
 453      00
 454 00a5 000000   		.section	.bss.canstate,"aw",%nobits
 455              		.set	.LANCHOR3,. + 0
 456              		.type	canstate, %object
 457              		.size	canstate, 1
 458              	canstate:
 459 0000 00       		.space	1
 460              		.section	.bss.messages,"aw",%nobits
 461              		.align	1
 462              		.set	.LANCHOR2,. + 0
 463              		.type	messages, %object
 464              		.size	messages, 2
 465              	messages:
 466 0000 0000     		.space	2
 467              		.section	.bss.rxmsg,"aw",%nobits
 468              		.align	2
 469              		.set	.LANCHOR0,. + 0
 470              		.type	rxmsg, %object
 471              		.size	rxmsg, 20
ARM GAS  C:\Users\DNIEL~1\AppData\Local\Temp\ccVs2ifP.s 			page 10


 472              	rxmsg:
 473 0000 00000000 		.space	20
 473      00000000 
 473      00000000 
 473      00000000 
 473      00000000 
 474              		.section	.rodata.cancfg,"a",%progbits
 475              		.align	2
 476              		.set	.LANCHOR4,. + 0
 477              		.type	cancfg, %object
 478              		.size	cancfg, 8
 479              	cancfg:
 480 0000 40000000 		.word	64
 481 0004 06001800 		.word	1572870
 482              		.text
 483              	.Letext0: