ARM GAS  C:\Users\DNIEL~1\AppData\Local\Temp\ccGM5WUW.s 			page 1


   1              		.syntax unified
   2              		.cpu cortex-m4
   3              		.fpu softvfp
   4              		.eabi_attribute 20, 1
   5              		.eabi_attribute 21, 1
   6              		.eabi_attribute 23, 3
   7              		.eabi_attribute 24, 1
   8              		.eabi_attribute 25, 1
   9              		.eabi_attribute 26, 1
  10              		.eabi_attribute 30, 2
  11              		.eabi_attribute 18, 4
  12              		.thumb
  13              		.file	"can_comm.c"
  14              		.section	.debug_abbrev,"",%progbits
  15              	.Ldebug_abbrev0:
  16              		.section	.debug_info,"",%progbits
  17              	.Ldebug_info0:
  18              		.section	.debug_line,"",%progbits
  19              	.Ldebug_line0:
  20 0000 3A040000 		.text
  20      02000A03 
  20      00000201 
  20      FB0E0D00 
  20      01010101 
  21              	.Ltext0:
  22              		.cfi_sections	.debug_frame
  23              		.section	.text.chprintf,"ax",%progbits
  24              		.align	2
  25              		.p2align 4,,15
  26              		.thumb
  27              		.thumb_func
  28              		.type	chprintf, %function
  29              	chprintf:
  30              	.LFB118:
  31              		.file 1 "../../../Chibios/os/various/chprintf.h"
  32              		.loc 1 69 0
  33              		.cfi_startproc
  34              		@ args = 4, pretend = 12, frame = 8
  35              		@ frame_needed = 0, uses_anonymous_args = 1
  36              	.LVL0:
  37 0000 0EB4     		push	{r1, r2, r3}
  38              	.LCFI0:
  39              		.cfi_def_cfa_offset 12
  40 0002 00B5     		push	{lr}
  41              	.LCFI1:
  42              		.cfi_def_cfa_offset 16
  43 0004 82B0     		sub	sp, sp, #8
  44              	.LCFI2:
  45              		.cfi_def_cfa_offset 24
  46              		.loc 1 69 0
  47 0006 03AB     		add	r3, sp, #12
  48              		.cfi_offset 14, -16
  49              		.cfi_offset 3, -4
  50              		.cfi_offset 2, -8
  51              		.cfi_offset 1, -12
  52 0008 53F8041B 		ldr	r1, [r3], #4
  53              		.loc 1 73 0
ARM GAS  C:\Users\DNIEL~1\AppData\Local\Temp\ccGM5WUW.s 			page 2


  54 000c 1A46     		mov	r2, r3
  55              		.loc 1 72 0
  56 000e 0193     		str	r3, [sp, #4]
  57              		.loc 1 73 0
  58 0010 FFF7FEFF 		bl	chvprintf
  59              	.LVL1:
  60              		.loc 1 75 0
  61 0014 02B0     		add	sp, sp, #8
  62 0016 5DF804EB 		pop	{lr}
  63 001a 03B0     		add	sp, sp, #12
  64 001c 7047     		bx	lr
  65              		.cfi_endproc
  66              	.LFE118:
  67              		.size	chprintf, .-chprintf
  68 001e 00BF     		.section	.text.can_rx,"ax",%progbits
  69              		.align	2
  70              		.p2align 4,,15
  71              		.thumb
  72              		.thumb_func
  73              		.type	can_rx, %function
  74              	can_rx:
  75              	.LFB119:
  76              		.file 2 "src/can_comm.c"
  77              		.loc 2 69 0
  78              		.cfi_startproc
  79              		@ args = 0, pretend = 0, frame = 16
  80              		@ frame_needed = 0, uses_anonymous_args = 0
  81              	.LVL2:
  82 0000 2DE9F043 		push	{r4, r5, r6, r7, r8, r9, lr}
  83              	.LCFI3:
  84              		.cfi_def_cfa_offset 28
  85              		.loc 2 73 0
  86 0004 2F4F     		ldr	r7, .L27
  87              		.cfi_offset 14, -4
  88              		.cfi_offset 9, -8
  89              		.cfi_offset 8, -12
  90              		.cfi_offset 7, -16
  91              		.cfi_offset 6, -20
  92              		.cfi_offset 5, -24
  93              		.cfi_offset 4, -28
  94 0006 304A     		ldr	r2, .L27+4
  95 0008 BB69     		ldr	r3, [r7, #24]
  96              		.loc 2 74 0
  97 000a 3048     		ldr	r0, .L27+8
  98              	.LVL3:
  99              		.loc 2 73 0
 100 000c 9A61     		str	r2, [r3, #24]
 101              		.loc 2 69 0
 102 000e 85B0     		sub	sp, sp, #20
 103              	.LCFI4:
 104              		.cfi_def_cfa_offset 48
 105              		.loc 2 74 0
 106 0010 6946     		mov	r1, sp
 107 0012 0122     		movs	r2, #1
 108              		.loc 2 82 0
 109 0014 2E4C     		ldr	r4, .L27+12
 110              		.loc 2 78 0
ARM GAS  C:\Users\DNIEL~1\AppData\Local\Temp\ccGM5WUW.s 			page 3


 111 0016 2F4E     		ldr	r6, .L27+16
 112              		.loc 2 81 0
 113 0018 2F4D     		ldr	r5, .L27+20
 114              		.loc 2 74 0
 115 001a FFF7FEFF 		bl	chEvtRegisterMask
 116              		.loc 2 82 0
 117 001e A046     		mov	r8, r4
 118              	.L20:
 119              		.loc 2 75 0 discriminator 1
 120 0020 B869     		ldr	r0, [r7, #24]
 121 0022 90F81DE0 		ldrb	lr, [r0, #29]	@ zero_extendqisi2
 122 0026 1EF0040F 		tst	lr, #4
 123 002a 43D1     		bne	.L23
 124              		.loc 2 76 0
 125 002c 4FF0FF30 		mov	r0, #-1
 126 0030 6421     		movs	r1, #100
 127 0032 FFF7FEFF 		bl	chEvtWaitAnyTimeout
 128 0036 0028     		cmp	r0, #0
 129 0038 F2D0     		beq	.L20
 130              	.L21:
 131              		.loc 2 78 0 discriminator 1
 132 003a 0021     		movs	r1, #0
 133 003c 2748     		ldr	r0, .L27+24
 134 003e 254A     		ldr	r2, .L27+16
 135 0040 0B46     		mov	r3, r1
 136 0042 FFF7FEFF 		bl	canReceive
 137 0046 0028     		cmp	r0, #0
 138 0048 EAD1     		bne	.L20
 139              	.L16:
 140              		.loc 2 81 0
 141 004a B268     		ldr	r2, [r6, #8]
 142 004c C2F31C0E 		ubfx	lr, r2, #0, #29
 143 0050 CEF30F23 		ubfx	r3, lr, #8, #16
 144              		.loc 2 90 0
 145 0054 A3F1100C 		sub	ip, r3, #16
 146 0058 1FFA8CF1 		uxth	r1, ip
 147              		.loc 2 82 0
 148 005c 5FFA8EF2 		uxtb	r2, lr
 149              		.loc 2 90 0
 150 0060 0F29     		cmp	r1, #15
 151              		.loc 2 81 0
 152 0062 2B80     		strh	r3, [r5, #0]	@ movhi
 153              		.loc 2 82 0
 154 0064 2280     		strh	r2, [r4, #0]	@ movhi
 155              		.loc 2 90 0
 156 0066 15D8     		bhi	.L6
 157              		.loc 2 91 0
 158 0068 DFF87490 		ldr	r9, .L27+28
 159              		.loc 2 110 0
 160 006c 012A     		cmp	r2, #1
 161              		.loc 2 91 0
 162 006e 89F80000 		strb	r0, [r9, #0]
 163              		.loc 2 110 0
 164 0072 1AD0     		beq	.L24
 165              	.L8:
 166              		.loc 2 113 0
 167 0074 022A     		cmp	r2, #2
ARM GAS  C:\Users\DNIEL~1\AppData\Local\Temp\ccGM5WUW.s 			page 4


 168 0076 14D0     		beq	.L25
 169              	.L14:
 170              		.loc 2 116 0
 171 0078 032A     		cmp	r2, #3
 172 007a 0FD0     		beq	.L26
 173              	.L15:
 174              		.loc 2 119 0
 175 007c 0422     		movs	r2, #4
 176              		.loc 2 78 0
 177 007e 0021     		movs	r1, #0
 178              		.loc 2 119 0
 179 0080 89F80020 		strb	r2, [r9, #0]
 180              		.loc 2 78 0
 181 0084 1548     		ldr	r0, .L27+24
 182 0086 134A     		ldr	r2, .L27+16
 183 0088 0B46     		mov	r3, r1
 184 008a FFF7FEFF 		bl	canReceive
 185 008e 0028     		cmp	r0, #0
 186 0090 DBD0     		beq	.L16
 187 0092 C5E7     		b	.L20
 188              	.L6:
 189              		.loc 2 104 0
 190 0094 124B     		ldr	r3, .L27+28
 191 0096 0420     		movs	r0, #4
 192 0098 1870     		strb	r0, [r3, #0]
 193 009a CEE7     		b	.L21
 194              	.L26:
 195              		.loc 2 117 0
 196 009c FFF7FEFF 		bl	lightWarning
 197 00a0 ECE7     		b	.L15
 198              	.L25:
 199              		.loc 2 114 0
 200 00a2 FFF7FEFF 		bl	lightLeft
 201 00a6 2288     		ldrh	r2, [r4, #0]
 202 00a8 E6E7     		b	.L14
 203              	.L24:
 204              		.loc 2 111 0
 205 00aa FFF7FEFF 		bl	lightRight
 206 00ae B8F80020 		ldrh	r2, [r8, #0]
 207 00b2 DFE7     		b	.L8
 208              	.L23:
 209              		.loc 2 142 0
 210 00b4 0548     		ldr	r0, .L27+8
 211 00b6 6946     		mov	r1, sp
 212 00b8 FFF7FEFF 		bl	chEvtUnregister
 213              		.loc 2 145 0
 214 00bc 0020     		movs	r0, #0
 215 00be 05B0     		add	sp, sp, #20
 216 00c0 BDE8F083 		pop	{r4, r5, r6, r7, r8, r9, pc}
 217              	.L28:
 218              		.align	2
 219              	.L27:
 220 00c4 00000000 		.word	rlist
 221 00c8 00000000 		.word	.LC0
 222 00cc 20000000 		.word	CAND1+32
 223 00d0 00000000 		.word	.LANCHOR2
 224 00d4 00000000 		.word	.LANCHOR0
ARM GAS  C:\Users\DNIEL~1\AppData\Local\Temp\ccGM5WUW.s 			page 5


 225 00d8 00000000 		.word	.LANCHOR1
 226 00dc 00000000 		.word	CAND1
 227 00e0 00000000 		.word	.LANCHOR3
 228              		.cfi_endproc
 229              	.LFE119:
 230              		.size	can_rx, .-can_rx
 231 00e4 AFF30080 		.section	.text.can_tx,"ax",%progbits
 231      AFF30080 
 231      AFF30080 
 232              		.align	2
 233              		.p2align 4,,15
 234              		.thumb
 235              		.thumb_func
 236              		.type	can_tx, %function
 237              	can_tx:
 238              	.LFB120:
 239              		.loc 2 148 0
 240              		.cfi_startproc
 241              		@ args = 0, pretend = 0, frame = 0
 242              		@ frame_needed = 0, uses_anonymous_args = 0
 243              	.LVL4:
 244 0000 70B5     		push	{r4, r5, r6, lr}
 245              	.LCFI5:
 246              		.cfi_def_cfa_offset 16
 247              		.loc 2 151 0
 248 0002 184D     		ldr	r5, .L33
 249              		.cfi_offset 14, -4
 250              		.cfi_offset 6, -8
 251              		.cfi_offset 5, -12
 252              		.cfi_offset 4, -16
 253 0004 1849     		ldr	r1, .L33+4
 254 0006 AB69     		ldr	r3, [r5, #24]
 255              		.loc 2 153 0
 256 0008 5A7F     		ldrb	r2, [r3, #29]	@ zero_extendqisi2
 257              		.loc 2 151 0
 258 000a 9961     		str	r1, [r3, #24]
 259              		.loc 2 153 0
 260 000c 12F0040F 		tst	r2, #4
 261 0010 25D1     		bne	.L30
 262 0012 164C     		ldr	r4, .L33+8
 263              	.LBB2:
 264              		.loc 2 161 0
 265 0014 42F20106 		movw	r6, #8193
 266              	.LVL5:
 267              	.L31:
 268              		.loc 2 161 0 is_stmt 0 discriminator 1
 269 0018 6168     		ldr	r1, [r4, #4]
 270              		.loc 2 164 0 is_stmt 1 discriminator 1
 271 001a 0020     		movs	r0, #0
 272              		.loc 2 161 0 discriminator 1
 273 001c 66F31C01 		bfi	r1, r6, #0, #29
 274 0020 6160     		str	r1, [r4, #4]
 275              		.loc 2 164 0 discriminator 1
 276 0022 FFF7FEFF 		bl	one_vireGetValue
 277 0026 2081     		strh	r0, [r4, #8]	@ movhi
 278              		.loc 2 165 0 discriminator 1
 279 0028 0120     		movs	r0, #1
ARM GAS  C:\Users\DNIEL~1\AppData\Local\Temp\ccGM5WUW.s 			page 6


 280 002a FFF7FEFF 		bl	one_vireGetValue
 281 002e 6081     		strh	r0, [r4, #10]	@ movhi
 282              		.loc 2 166 0 discriminator 1
 283 0030 0220     		movs	r0, #2
 284 0032 FFF7FEFF 		bl	one_vireGetValue
 285 0036 A081     		strh	r0, [r4, #12]	@ movhi
 286              		.loc 2 167 0 discriminator 1
 287 0038 0320     		movs	r0, #3
 288 003a FFF7FEFF 		bl	one_vireGetValue
 289              		.loc 2 169 0 discriminator 1
 290 003e 0021     		movs	r1, #0
 291 0040 0A4A     		ldr	r2, .L33+8
 292              		.loc 2 167 0 discriminator 1
 293 0042 E081     		strh	r0, [r4, #14]	@ movhi
 294              		.loc 2 169 0 discriminator 1
 295 0044 6423     		movs	r3, #100
 296 0046 0A48     		ldr	r0, .L33+12
 297 0048 FFF7FEFF 		bl	canTransmit
 298              	.LVL6:
 299              		.loc 2 175 0 discriminator 1
 300 004c 4FF47A70 		mov	r0, #1000
 301 0050 FFF7FEFF 		bl	chThdSleep
 302              	.LBE2:
 303              		.loc 2 153 0 discriminator 1
 304 0054 AA69     		ldr	r2, [r5, #24]
 305 0056 507F     		ldrb	r0, [r2, #29]	@ zero_extendqisi2
 306 0058 10F0040F 		tst	r0, #4
 307 005c DCD0     		beq	.L31
 308              	.LVL7:
 309              	.L30:
 310              		.loc 2 178 0
 311 005e 0020     		movs	r0, #0
 312 0060 70BD     		pop	{r4, r5, r6, pc}
 313              	.L34:
 314 0062 00BF     		.align	2
 315              	.L33:
 316 0064 00000000 		.word	rlist
 317 0068 0C000000 		.word	.LC1
 318 006c 00000000 		.word	.LANCHOR4
 319 0070 00000000 		.word	CAND1
 320              		.cfi_endproc
 321              	.LFE120:
 322              		.size	can_tx, .-can_tx
 323 0074 AFF30080 		.section	.text.can_commInit,"ax",%progbits
 323      AFF30080 
 323      AFF30080 
 324              		.align	2
 325              		.p2align 4,,15
 326              		.global	can_commInit
 327              		.thumb
 328              		.thumb_func
 329              		.type	can_commInit, %function
 330              	can_commInit:
 331              	.LFB121:
 332              		.loc 2 180 0
 333              		.cfi_startproc
 334              		@ args = 0, pretend = 0, frame = 0
ARM GAS  C:\Users\DNIEL~1\AppData\Local\Temp\ccGM5WUW.s 			page 7


 335              		@ frame_needed = 0, uses_anonymous_args = 0
 336 0000 30B5     		push	{r4, r5, lr}
 337              	.LCFI6:
 338              		.cfi_def_cfa_offset 12
 339              		.loc 2 181 0
 340 0002 144B     		ldr	r3, .L36
 341              		.loc 2 186 0
 342 0004 1448     		ldr	r0, .L36+4
 343              		.loc 2 181 0
 344 0006 93F800E0 		ldrb	lr, [r3, #0]	@ zero_extendqisi2
 345              		.cfi_offset 14, -4
 346              		.cfi_offset 5, -8
 347              		.cfi_offset 4, -12
 348              		.loc 2 182 0
 349 000a 5D68     		ldr	r5, [r3, #4]
 350              		.loc 2 186 0
 351 000c 1349     		ldr	r1, .L36+8
 352              		.loc 2 183 0
 353 000e 4EF0200C 		orr	ip, lr, #32
 354              		.loc 2 182 0
 355 0012 2024     		movs	r4, #32
 356              		.loc 2 184 0
 357 0014 0CF0EF02 		and	r2, ip, #239
 358              		.loc 2 182 0
 359 0018 64F31C05 		bfi	r5, r4, #0, #29
 360              		.loc 2 184 0
 361 001c 0824     		movs	r4, #8
 362 001e 64F30302 		bfi	r2, r4, #0, #4
 363              		.loc 2 180 0
 364 0022 83B0     		sub	sp, sp, #12
 365              	.LCFI7:
 366              		.cfi_def_cfa_offset 24
 367              		.loc 2 182 0
 368 0024 5D60     		str	r5, [r3, #4]
 369              		.loc 2 184 0
 370 0026 1A70     		strb	r2, [r3, #0]
 371              		.loc 2 186 0
 372 0028 FFF7FEFF 		bl	canStart
 373              		.loc 2 188 0
 374 002c 0024     		movs	r4, #0
 375 002e 4722     		movs	r2, #71
 376 0030 4FF4E871 		mov	r1, #464
 377 0034 0A4B     		ldr	r3, .L36+12
 378 0036 0B48     		ldr	r0, .L36+16
 379 0038 0094     		str	r4, [sp, #0]
 380 003a FFF7FEFF 		bl	chThdCreateStatic
 381              		.loc 2 189 0
 382 003e 0A4B     		ldr	r3, .L36+20
 383 0040 0A48     		ldr	r0, .L36+24
 384 0042 0094     		str	r4, [sp, #0]
 385 0044 4FF4E871 		mov	r1, #464
 386 0048 4022     		movs	r2, #64
 387 004a FFF7FEFF 		bl	chThdCreateStatic
 388              		.loc 2 190 0
 389 004e 03B0     		add	sp, sp, #12
 390 0050 30BD     		pop	{r4, r5, pc}
 391              	.L37:
ARM GAS  C:\Users\DNIEL~1\AppData\Local\Temp\ccGM5WUW.s 			page 8


 392 0052 00BF     		.align	2
 393              	.L36:
 394 0054 00000000 		.word	.LANCHOR4
 395 0058 00000000 		.word	CAND1
 396 005c 00000000 		.word	.LANCHOR5
 397 0060 00000000 		.word	can_tx
 398 0064 00000000 		.word	.LANCHOR6
 399 0068 00000000 		.word	can_rx
 400 006c 00000000 		.word	.LANCHOR7
 401              		.cfi_endproc
 402              	.LFE121:
 403              		.size	can_commInit, .-can_commInit
 404              		.section	.text.cmd_can_commvalues,"ax",%progbits
 405              		.align	2
 406              		.p2align 4,,15
 407              		.global	cmd_can_commvalues
 408              		.thumb
 409              		.thumb_func
 410              		.type	cmd_can_commvalues, %function
 411              	cmd_can_commvalues:
 412              	.LFB122:
 413              		.loc 2 192 0
 414              		.cfi_startproc
 415              		@ args = 0, pretend = 0, frame = 0
 416              		@ frame_needed = 0, uses_anonymous_args = 0
 417              	.LVL8:
 418 0000 2DE9F041 		push	{r4, r5, r6, r7, r8, lr}
 419              	.LCFI8:
 420              		.cfi_def_cfa_offset 24
 421              		.loc 2 196 0
 422 0004 3B49     		ldr	r1, .L41
 423              	.LVL9:
 424              		.loc 2 201 0
 425 0006 3C4E     		ldr	r6, .L41+4
 426              		.cfi_offset 14, -4
 427              		.cfi_offset 8, -8
 428              		.cfi_offset 7, -12
 429              		.cfi_offset 6, -16
 430              		.cfi_offset 5, -20
 431              		.cfi_offset 4, -24
 432              		.loc 2 202 0
 433 0008 3C4F     		ldr	r7, .L41+8
 434              		.loc 2 203 0
 435 000a DFF83C81 		ldr	r8, .L41+84
 436              		.loc 2 192 0
 437 000e 0446     		mov	r4, r0
 438              		.loc 2 196 0
 439 0010 FFF7FEFF 		bl	chprintf
 440              	.LVL10:
 441              		.loc 2 197 0
 442 0014 2046     		mov	r0, r4
 443 0016 3A49     		ldr	r1, .L41+12
 444 0018 FFF7FEFF 		bl	chprintf
 445              		.loc 2 198 0
 446 001c 5FE0     		b	.L39
 447              	.L40:
 448              		.loc 2 199 0
ARM GAS  C:\Users\DNIEL~1\AppData\Local\Temp\ccGM5WUW.s 			page 9


 449 001e 0022     		movs	r2, #0
 450 0020 1346     		mov	r3, r2
 451 0022 3849     		ldr	r1, .L41+16
 452              		.loc 2 211 0
 453 0024 384D     		ldr	r5, .L41+20
 454              		.loc 2 199 0
 455 0026 2046     		mov	r0, r4
 456 0028 FFF7FEFF 		bl	chprintf
 457              		.loc 2 200 0
 458 002c 2046     		mov	r0, r4
 459 002e 3749     		ldr	r1, .L41+24
 460 0030 FFF7FEFF 		bl	chprintf
 461              		.loc 2 201 0
 462 0034 B068     		ldr	r0, [r6, #8]
 463 0036 3649     		ldr	r1, .L41+28
 464 0038 20F06042 		bic	r2, r0, #-536870912
 465 003c 2046     		mov	r0, r4
 466 003e FFF7FEFF 		bl	chprintf
 467              		.loc 2 202 0
 468 0042 2046     		mov	r0, r4
 469 0044 3349     		ldr	r1, .L41+32
 470 0046 3A88     		ldrh	r2, [r7, #0]
 471 0048 FFF7FEFF 		bl	chprintf
 472              		.loc 2 203 0
 473 004c B8F80020 		ldrh	r2, [r8, #0]
 474 0050 3149     		ldr	r1, .L41+36
 475 0052 2046     		mov	r0, r4
 476 0054 FFF7FEFF 		bl	chprintf
 477              		.loc 2 204 0
 478 0058 2046     		mov	r0, r4
 479 005a 3049     		ldr	r1, .L41+40
 480 005c FFF7FEFF 		bl	chprintf
 481              		.loc 2 205 0
 482 0060 2046     		mov	r0, r4
 483 0062 2F49     		ldr	r1, .L41+44
 484 0064 B289     		ldrh	r2, [r6, #12]
 485 0066 FFF7FEFF 		bl	chprintf
 486              		.loc 2 206 0
 487 006a 2046     		mov	r0, r4
 488 006c 2D49     		ldr	r1, .L41+48
 489 006e F289     		ldrh	r2, [r6, #14]
 490 0070 FFF7FEFF 		bl	chprintf
 491              		.loc 2 207 0
 492 0074 2046     		mov	r0, r4
 493 0076 2C49     		ldr	r1, .L41+52
 494 0078 328A     		ldrh	r2, [r6, #16]
 495 007a FFF7FEFF 		bl	chprintf
 496              		.loc 2 208 0
 497 007e 728A     		ldrh	r2, [r6, #18]
 498 0080 2A49     		ldr	r1, .L41+56
 499 0082 2046     		mov	r0, r4
 500 0084 FFF7FEFF 		bl	chprintf
 501              		.loc 2 209 0
 502 0088 2046     		mov	r0, r4
 503 008a 2449     		ldr	r1, .L41+40
 504 008c FFF7FEFF 		bl	chprintf
 505              		.loc 2 210 0
ARM GAS  C:\Users\DNIEL~1\AppData\Local\Temp\ccGM5WUW.s 			page 10


 506 0090 2046     		mov	r0, r4
 507 0092 2749     		ldr	r1, .L41+60
 508 0094 FFF7FEFF 		bl	chprintf
 509              		.loc 2 211 0
 510 0098 6A68     		ldr	r2, [r5, #4]
 511 009a 2649     		ldr	r1, .L41+64
 512 009c 22F06042 		bic	r2, r2, #-536870912
 513 00a0 2046     		mov	r0, r4
 514 00a2 FFF7FEFF 		bl	chprintf
 515              		.loc 2 212 0
 516 00a6 2046     		mov	r0, r4
 517 00a8 1C49     		ldr	r1, .L41+40
 518 00aa FFF7FEFF 		bl	chprintf
 519              		.loc 2 213 0
 520 00ae 2046     		mov	r0, r4
 521 00b0 2149     		ldr	r1, .L41+68
 522 00b2 2A89     		ldrh	r2, [r5, #8]
 523 00b4 FFF7FEFF 		bl	chprintf
 524              		.loc 2 214 0
 525 00b8 2046     		mov	r0, r4
 526 00ba 2049     		ldr	r1, .L41+72
 527 00bc 6A89     		ldrh	r2, [r5, #10]
 528 00be FFF7FEFF 		bl	chprintf
 529              		.loc 2 215 0
 530 00c2 2046     		mov	r0, r4
 531 00c4 1E49     		ldr	r1, .L41+76
 532 00c6 AA89     		ldrh	r2, [r5, #12]
 533 00c8 FFF7FEFF 		bl	chprintf
 534              		.loc 2 216 0
 535 00cc 2046     		mov	r0, r4
 536 00ce 1D49     		ldr	r1, .L41+80
 537 00d0 EA89     		ldrh	r2, [r5, #14]
 538 00d2 FFF7FEFF 		bl	chprintf
 539              		.loc 2 218 0
 540 00d6 4FF47A70 		mov	r0, #1000
 541 00da FFF7FEFF 		bl	chThdSleep
 542              	.L39:
 543              		.loc 2 198 0 discriminator 1
 544 00de 2168     		ldr	r1, [r4, #0]
 545 00e0 2046     		mov	r0, r4
 546 00e2 4B69     		ldr	r3, [r1, #20]
 547 00e4 0021     		movs	r1, #0
 548 00e6 9847     		blx	r3
 549 00e8 B0F1FF3F 		cmp	r0, #-1
 550 00ec 97D0     		beq	.L40
 551              		.loc 2 220 0
 552 00ee BDE8F081 		pop	{r4, r5, r6, r7, r8, pc}
 553              	.L42:
 554 00f2 00BF     		.align	2
 555              	.L41:
 556 00f4 18000000 		.word	.LC2
 557 00f8 00000000 		.word	.LANCHOR0
 558 00fc 00000000 		.word	.LANCHOR1
 559 0100 1C000000 		.word	.LC3
 560 0104 24000000 		.word	.LC4
 561 0108 00000000 		.word	.LANCHOR4
 562 010c 30000000 		.word	.LC5
ARM GAS  C:\Users\DNIEL~1\AppData\Local\Temp\ccGM5WUW.s 			page 11


 563 0110 54000000 		.word	.LC6
 564 0114 64000000 		.word	.LC7
 565 0118 70000000 		.word	.LC8
 566 011c 84000000 		.word	.LC9
 567 0120 88000000 		.word	.LC10
 568 0124 9C000000 		.word	.LC11
 569 0128 B0000000 		.word	.LC12
 570 012c C4000000 		.word	.LC13
 571 0130 D8000000 		.word	.LC14
 572 0134 00010000 		.word	.LC15
 573 0138 10010000 		.word	.LC16
 574 013c 24010000 		.word	.LC17
 575 0140 38010000 		.word	.LC18
 576 0144 4C010000 		.word	.LC19
 577 0148 00000000 		.word	.LANCHOR2
 578              		.cfi_endproc
 579              	.LFE122:
 580              		.size	cmd_can_commvalues, .-cmd_can_commvalues
 581              		.global	can_rxstate
 582              		.global	can_txstate
 583 014c AFF30080 		.section	.bss.can_rxstate,"aw",%nobits
 584              		.set	.LANCHOR3,. + 0
 585              		.type	can_rxstate, %object
 586              		.size	can_rxstate, 1
 587              	can_rxstate:
 588 0000 00       		.space	1
 589              		.section	.bss.id,"aw",%nobits
 590              		.align	1
 591              		.set	.LANCHOR1,. + 0
 592              		.type	id, %object
 593              		.size	id, 2
 594              	id:
 595 0000 0000     		.space	2
 596              		.section	.bss.txmsg,"aw",%nobits
 597              		.align	2
 598              		.set	.LANCHOR4,. + 0
 599              		.type	txmsg, %object
 600              		.size	txmsg, 16
 601              	txmsg:
 602 0000 00000000 		.space	16
 602      00000000 
 602      00000000 
 602      00000000 
 603              		.section	.bss.can_txstate,"aw",%nobits
 604              		.type	can_txstate, %object
 605              		.size	can_txstate, 1
 606              	can_txstate:
 607 0000 00       		.space	1
 608              		.section	.bss.can_tx_wa,"aw",%nobits
 609              		.align	3
 610              		.set	.LANCHOR6,. + 0
 611              		.type	can_tx_wa, %object
 612              		.size	can_tx_wa, 464
 613              	can_tx_wa:
 614 0000 00000000 		.space	464
 614      00000000 
 614      00000000 
ARM GAS  C:\Users\DNIEL~1\AppData\Local\Temp\ccGM5WUW.s 			page 12


 614      00000000 
 614      00000000 
 615              		.section	.rodata.str1.4,"aMS",%progbits,1
 616              		.align	2
 617              	.LC0:
 618 0000 72656365 		.ascii	"receiver\000"
 618      69766572 
 618      00
 619 0009 000000   		.space	3
 620              	.LC1:
 621 000c 7472616E 		.ascii	"transmitter\000"
 621      736D6974 
 621      74657200 
 622              	.LC2:
 623 0018 1B6300   		.ascii	"\033c\000"
 624 001b 00       		.space	1
 625              	.LC3:
 626 001c 1B5B324A 		.ascii	"\033[2J\000"
 626      00
 627 0021 000000   		.space	3
 628              	.LC4:
 629 0024 1B5B2564 		.ascii	"\033[%d;%dH\000"
 629      3B256448 
 629      00
 630 002d 000000   		.space	3
 631              	.LC5:
 632 0030 2D2D2D2D 		.ascii	"-------- CAN BUS Receive --------\015\012\000"
 632      2D2D2D2D 
 632      2043414E 
 632      20425553 
 632      20526563 
 633              	.LC6:
 634 0054 52582E45 		.ascii	"RX.EID : %x \015\012\000"
 634      4944203A 
 634      20257820 
 634      0D0A00
 635 0063 00       		.space	1
 636              	.LC7:
 637 0064 6964203A 		.ascii	"id : %x \015\012\000"
 637      20257820 
 637      0D0A00
 638 006f 00       		.space	1
 639              	.LC8:
 640 0070 6D657373 		.ascii	"messages : %x \015\012\000"
 640      61676573 
 640      203A2025 
 640      78200D0A 
 640      00
 641 0081 000000   		.space	3
 642              	.LC9:
 643 0084 0D0A00   		.ascii	"\015\012\000"
 644 0087 00       		.space	1
 645              	.LC10:
 646 0088 52582E44 		.ascii	"RX.DATA1 : %d \015\012\000"
 646      41544131 
 646      203A2025 
 646      64200D0A 
ARM GAS  C:\Users\DNIEL~1\AppData\Local\Temp\ccGM5WUW.s 			page 13


 646      00
 647 0099 000000   		.space	3
 648              	.LC11:
 649 009c 52582E44 		.ascii	"RX.DATA2 : %d \015\012\000"
 649      41544132 
 649      203A2025 
 649      64200D0A 
 649      00
 650 00ad 000000   		.space	3
 651              	.LC12:
 652 00b0 52582E44 		.ascii	"RX.DATA3 : %d \015\012\000"
 652      41544133 
 652      203A2025 
 652      64200D0A 
 652      00
 653 00c1 000000   		.space	3
 654              	.LC13:
 655 00c4 52582E44 		.ascii	"RX.DATA4 : %d \015\012\000"
 655      41544134 
 655      203A2025 
 655      64200D0A 
 655      00
 656 00d5 000000   		.space	3
 657              	.LC14:
 658 00d8 2D2D2D2D 		.ascii	"-------- CAN BUS Transmit --------\015\012\000"
 658      2D2D2D2D 
 658      2043414E 
 658      20425553 
 658      20547261 
 659 00fd 000000   		.space	3
 660              	.LC15:
 661 0100 54582E45 		.ascii	"TX.EID : %x \015\012\000"
 661      4944203A 
 661      20257820 
 661      0D0A00
 662 010f 00       		.space	1
 663              	.LC16:
 664 0110 54582E44 		.ascii	"TX.DATA1 : %d \015\012\000"
 664      41544131 
 664      203A2025 
 664      64200D0A 
 664      00
 665 0121 000000   		.space	3
 666              	.LC17:
 667 0124 54582E44 		.ascii	"TX.DATA2 : %d \015\012\000"
 667      41544132 
 667      203A2025 
 667      64200D0A 
 667      00
 668 0135 000000   		.space	3
 669              	.LC18:
 670 0138 54582E44 		.ascii	"TX.DATA3 : %d \015\012\000"
 670      41544133 
 670      203A2025 
 670      64200D0A 
 670      00
 671 0149 000000   		.space	3
ARM GAS  C:\Users\DNIEL~1\AppData\Local\Temp\ccGM5WUW.s 			page 14


 672              	.LC19:
 673 014c 54582E44 		.ascii	"TX.DATA4 : %d \015\012\000"
 673      41544134 
 673      203A2025 
 673      64200D0A 
 673      00
 674 015d 000000   		.section	.bss.messages,"aw",%nobits
 675              		.align	1
 676              		.set	.LANCHOR2,. + 0
 677              		.type	messages, %object
 678              		.size	messages, 2
 679              	messages:
 680 0000 0000     		.space	2
 681              		.section	.bss.rxmsg,"aw",%nobits
 682              		.align	2
 683              		.set	.LANCHOR0,. + 0
 684              		.type	rxmsg, %object
 685              		.size	rxmsg, 20
 686              	rxmsg:
 687 0000 00000000 		.space	20
 687      00000000 
 687      00000000 
 687      00000000 
 687      00000000 
 688              		.section	.bss.can_rx_wa,"aw",%nobits
 689              		.align	3
 690              		.set	.LANCHOR7,. + 0
 691              		.type	can_rx_wa, %object
 692              		.size	can_rx_wa, 464
 693              	can_rx_wa:
 694 0000 00000000 		.space	464
 694      00000000 
 694      00000000 
 694      00000000 
 694      00000000 
 695              		.section	.rodata.cancfg,"a",%progbits
 696              		.align	2
 697              		.set	.LANCHOR5,. + 0
 698              		.type	cancfg, %object
 699              		.size	cancfg, 8
 700              	cancfg:
 701 0000 40000000 		.word	64
 702 0004 06001800 		.word	1572870
 703              		.text
 704              	.Letext0:
 705              		.section	.debug_loc,"",%progbits
 706              	.Ldebug_loc0:
 707              	.LLST0:
 708 0000 00000000 		.4byte	.LFB118
 709 0004 02000000 		.4byte	.LCFI0
 710 0008 0200     		.2byte	0x2
 711 000a 7D       		.byte	0x7d
 712 000b 00       		.sleb128 0
 713 000c 02000000 		.4byte	.LCFI0
 714 0010 04000000 		.4byte	.LCFI1
 715 0014 0200     		.2byte	0x2
 716 0016 7D       		.byte	0x7d
ARM GAS  C:\Users\DNIEL~1\AppData\Local\Temp\ccGM5WUW.s 			page 15


 717 0017 0C       		.sleb128 12
 718 0018 04000000 		.4byte	.LCFI1
 719 001c 06000000 		.4byte	.LCFI2
 720 0020 0200     		.2byte	0x2
 721 0022 7D       		.byte	0x7d
 722 0023 10       		.sleb128 16
 723 0024 06000000 		.4byte	.LCFI2
 724 0028 1E000000 		.4byte	.LFE118
 725 002c 0200     		.2byte	0x2
 726 002e 7D       		.byte	0x7d
 727 002f 18       		.sleb128 24
 728 0030 00000000 		.4byte	0x0
 729 0034 00000000 		.4byte	0x0
 730              	.LLST1:
 731 0038 00000000 		.4byte	.LVL0
 732 003c 13000000 		.4byte	.LVL1-1
 733 0040 0100     		.2byte	0x1
 734 0042 50       		.byte	0x50
 735 0043 00000000 		.4byte	0x0
 736 0047 00000000 		.4byte	0x0
 737              	.LLST2:
 738 004b 00000000 		.4byte	.LFB119
 739 004f 04000000 		.4byte	.LCFI3
 740 0053 0200     		.2byte	0x2
 741 0055 7D       		.byte	0x7d
 742 0056 00       		.sleb128 0
 743 0057 04000000 		.4byte	.LCFI3
 744 005b 10000000 		.4byte	.LCFI4
 745 005f 0200     		.2byte	0x2
 746 0061 7D       		.byte	0x7d
 747 0062 1C       		.sleb128 28
 748 0063 10000000 		.4byte	.LCFI4
 749 0067 E4000000 		.4byte	.LFE119
 750 006b 0200     		.2byte	0x2
 751 006d 7D       		.byte	0x7d
 752 006e 30       		.sleb128 48
 753 006f 00000000 		.4byte	0x0
 754 0073 00000000 		.4byte	0x0
 755              	.LLST3:
 756 0077 00000000 		.4byte	.LVL2
 757 007b 0C000000 		.4byte	.LVL3
 758 007f 0100     		.2byte	0x1
 759 0081 50       		.byte	0x50
 760 0082 00000000 		.4byte	0x0
 761 0086 00000000 		.4byte	0x0
 762              	.LLST4:
 763 008a 00000000 		.4byte	.LFB120
 764 008e 02000000 		.4byte	.LCFI5
 765 0092 0200     		.2byte	0x2
 766 0094 7D       		.byte	0x7d
 767 0095 00       		.sleb128 0
 768 0096 02000000 		.4byte	.LCFI5
 769 009a 74000000 		.4byte	.LFE120
 770 009e 0200     		.2byte	0x2
 771 00a0 7D       		.byte	0x7d
 772 00a1 10       		.sleb128 16
 773 00a2 00000000 		.4byte	0x0
ARM GAS  C:\Users\DNIEL~1\AppData\Local\Temp\ccGM5WUW.s 			page 16


 774 00a6 00000000 		.4byte	0x0
 775              	.LLST5:
 776 00aa 00000000 		.4byte	.LVL4
 777 00ae 18000000 		.4byte	.LVL5
 778 00b2 0100     		.2byte	0x1
 779 00b4 50       		.byte	0x50
 780 00b5 00000000 		.4byte	0x0
 781 00b9 00000000 		.4byte	0x0
 782              	.LLST6:
 783 00bd 18000000 		.4byte	.LVL5
 784 00c1 4C000000 		.4byte	.LVL6
 785 00c5 0200     		.2byte	0x2
 786 00c7 30       		.byte	0x30
 787 00c8 9F       		.byte	0x9f
 788 00c9 4C000000 		.4byte	.LVL6
 789 00cd 5E000000 		.4byte	.LVL7
 790 00d1 0200     		.2byte	0x2
 791 00d3 31       		.byte	0x31
 792 00d4 9F       		.byte	0x9f
 793 00d5 00000000 		.4byte	0x0
 794 00d9 00000000 		.4byte	0x0
 795              	.LLST7:
 796 00dd 00000000 		.4byte	.LFB121
 797 00e1 02000000 		.4byte	.LCFI6
 798 00e5 0200     		.2byte	0x2
 799 00e7 7D       		.byte	0x7d
 800 00e8 00       		.sleb128 0
 801 00e9 02000000 		.4byte	.LCFI6
 802 00ed 24000000 		.4byte	.LCFI7
 803 00f1 0200     		.2byte	0x2
 804 00f3 7D       		.byte	0x7d
 805 00f4 0C       		.sleb128 12
 806 00f5 24000000 		.4byte	.LCFI7
 807 00f9 70000000 		.4byte	.LFE121
 808 00fd 0200     		.2byte	0x2
 809 00ff 7D       		.byte	0x7d
 810 0100 18       		.sleb128 24
 811 0101 00000000 		.4byte	0x0
 812 0105 00000000 		.4byte	0x0
 813              	.LLST8:
 814 0109 00000000 		.4byte	.LFB122
 815 010d 04000000 		.4byte	.LCFI8
 816 0111 0200     		.2byte	0x2
 817 0113 7D       		.byte	0x7d
 818 0114 00       		.sleb128 0
 819 0115 04000000 		.4byte	.LCFI8
 820 0119 4C010000 		.4byte	.LFE122
 821 011d 0200     		.2byte	0x2
 822 011f 7D       		.byte	0x7d
 823 0120 18       		.sleb128 24
 824 0121 00000000 		.4byte	0x0
 825 0125 00000000 		.4byte	0x0
 826              	.LLST9:
 827 0129 00000000 		.4byte	.LVL8
 828 012d 13000000 		.4byte	.LVL10-1
 829 0131 0100     		.2byte	0x1
 830 0133 50       		.byte	0x50
ARM GAS  C:\Users\DNIEL~1\AppData\Local\Temp\ccGM5WUW.s 			page 17


 831 0134 13000000 		.4byte	.LVL10-1
 832 0138 4C010000 		.4byte	.LFE122
 833 013c 0100     		.2byte	0x1
 834 013e 54       		.byte	0x54
 835 013f 00000000 		.4byte	0x0
 836 0143 00000000 		.4byte	0x0
 837              	.LLST10:
 838 0147 00000000 		.4byte	.LVL8
 839 014b 06000000 		.4byte	.LVL9
 840 014f 0100     		.2byte	0x1
 841 0151 51       		.byte	0x51
 842 0152 00000000 		.4byte	0x0
 843 0156 00000000 		.4byte	0x0
 844              	.LLST11:
 845 015a 00000000 		.4byte	.LVL8
 846 015e 13000000 		.4byte	.LVL10-1
 847 0162 0100     		.2byte	0x1
 848 0164 52       		.byte	0x52
 849 0165 00000000 		.4byte	0x0
 850 0169 00000000 		.4byte	0x0
 851              		.file 3 "c:\\program files (x86)\\codesourcery\\sourcery g++ lite\\bin\\../lib/gcc/arm-none-eabi/4
 852              		.file 4 "c:\\program files (x86)\\codesourcery\\sourcery g++ lite\\bin\\../lib/gcc/arm-none-eabi/4
 853              		.file 5 "../../../Chibios/os/ports/GCC/ARMCMx/chtypes.h"
 854              		.file 6 "../../../Chibios/os/kernel/include/chlists.h"
 855              		.file 7 "../../../Chibios/os/kernel/include/chthreads.h"
 856              		.file 8 "../../../Chibios/os/ports/GCC/ARMCMx/chcore_v7m.h"
 857              		.file 9 "../../../Chibios/os/kernel/include/chschd.h"
 858              		.file 10 "../../../Chibios/os/kernel/include/chsem.h"
 859              		.file 11 "../../../Chibios/os/kernel/include/chmtx.h"
 860              		.file 12 "../../../Chibios/os/kernel/include/chevents.h"
 861              		.file 13 "../../../Chibios/os/kernel/include/chstreams.h"
 862              		.file 14 "../../../Chibios/os/hal/platforms/STM32F4xx/stm32f4xx.h"
 863              		.file 15 "../../../Chibios/os/hal/include/io_channel.h"
 864              		.file 16 "../../../Chibios/os/hal/include/can.h"
 865              		.file 17 "../../../Chibios/os/hal/platforms/STM32/can_lld.h"
 866              		.file 18 "c:\\program files (x86)\\codesourcery\\sourcery g++ lite\\bin\\../lib/gcc/arm-none-eabi/
 867              		.file 19 "<built-in>"
 868              		.file 20 "../../../Chibios/os/ports/common/ARMCMx/CMSIS/include/core_cm4.h"
 869              		.section	.debug_info
 870 0000 ED0F0000 		.4byte	0xfed
 871 0004 0200     		.2byte	0x2
 872 0006 00000000 		.4byte	.Ldebug_abbrev0
 873 000a 04       		.byte	0x4
 874 000b 01       		.uleb128 0x1
 875 000c 59060000 		.4byte	.LASF169
 876 0010 01       		.byte	0x1
 877 0011 BE050000 		.4byte	.LASF170
 878 0015 CC000000 		.4byte	.LASF171
 879 0019 00000000 		.4byte	0x0
 880 001d 00000000 		.4byte	0x0
 881 0021 00000000 		.4byte	.Ldebug_ranges0+0x0
 882 0025 00000000 		.4byte	.Ldebug_line0
 883 0029 02       		.uleb128 0x2
 884 002a 19000000 		.4byte	.LASF10
 885 002e 03       		.byte	0x3
 886 002f D3       		.byte	0xd3
 887 0030 34000000 		.4byte	0x34
ARM GAS  C:\Users\DNIEL~1\AppData\Local\Temp\ccGM5WUW.s 			page 18


 888 0034 03       		.uleb128 0x3
 889 0035 04       		.byte	0x4
 890 0036 07       		.byte	0x7
 891 0037 13020000 		.4byte	.LASF0
 892 003b 03       		.uleb128 0x3
 893 003c 01       		.byte	0x1
 894 003d 06       		.byte	0x6
 895 003e C0000000 		.4byte	.LASF1
 896 0042 03       		.uleb128 0x3
 897 0043 01       		.byte	0x1
 898 0044 08       		.byte	0x8
 899 0045 49040000 		.4byte	.LASF2
 900 0049 03       		.uleb128 0x3
 901 004a 02       		.byte	0x2
 902 004b 05       		.byte	0x5
 903 004c 98040000 		.4byte	.LASF3
 904 0050 03       		.uleb128 0x3
 905 0051 02       		.byte	0x2
 906 0052 07       		.byte	0x7
 907 0053 6A020000 		.4byte	.LASF4
 908 0057 04       		.uleb128 0x4
 909 0058 04       		.byte	0x4
 910 0059 05       		.byte	0x5
 911 005a 696E7400 		.ascii	"int\000"
 912 005e 03       		.uleb128 0x3
 913 005f 08       		.byte	0x8
 914 0060 05       		.byte	0x5
 915 0061 B2000000 		.4byte	.LASF5
 916 0065 03       		.uleb128 0x3
 917 0066 08       		.byte	0x8
 918 0067 07       		.byte	0x7
 919 0068 6F000000 		.4byte	.LASF6
 920 006c 03       		.uleb128 0x3
 921 006d 04       		.byte	0x4
 922 006e 05       		.byte	0x5
 923 006f 33010000 		.4byte	.LASF7
 924 0073 05       		.uleb128 0x5
 925 0074 04       		.byte	0x4
 926 0075 03       		.uleb128 0x3
 927 0076 04       		.byte	0x4
 928 0077 07       		.byte	0x7
 929 0078 44050000 		.4byte	.LASF8
 930 007c 06       		.uleb128 0x6
 931 007d 04       		.byte	0x4
 932 007e 82000000 		.4byte	0x82
 933 0082 03       		.uleb128 0x3
 934 0083 01       		.byte	0x1
 935 0084 08       		.byte	0x8
 936 0085 5B050000 		.4byte	.LASF9
 937 0089 06       		.uleb128 0x6
 938 008a 04       		.byte	0x4
 939 008b 8F000000 		.4byte	0x8f
 940 008f 07       		.uleb128 0x7
 941 0090 82000000 		.4byte	0x82
 942 0094 02       		.uleb128 0x2
 943 0095 2C060000 		.4byte	.LASF11
 944 0099 04       		.byte	0x4
ARM GAS  C:\Users\DNIEL~1\AppData\Local\Temp\ccGM5WUW.s 			page 19


 945 009a 2A       		.byte	0x2a
 946 009b 42000000 		.4byte	0x42
 947 009f 02       		.uleb128 0x2
 948 00a0 81010000 		.4byte	.LASF12
 949 00a4 04       		.byte	0x4
 950 00a5 36       		.byte	0x36
 951 00a6 50000000 		.4byte	0x50
 952 00aa 02       		.uleb128 0x2
 953 00ab 41040000 		.4byte	.LASF13
 954 00af 04       		.byte	0x4
 955 00b0 4F       		.byte	0x4f
 956 00b1 6C000000 		.4byte	0x6c
 957 00b5 02       		.uleb128 0x2
 958 00b6 25050000 		.4byte	.LASF14
 959 00ba 04       		.byte	0x4
 960 00bb 50       		.byte	0x50
 961 00bc 75000000 		.4byte	0x75
 962 00c0 02       		.uleb128 0x2
 963 00c1 32000000 		.4byte	.LASF15
 964 00c5 04       		.byte	0x4
 965 00c6 78       		.byte	0x78
 966 00c7 65000000 		.4byte	0x65
 967 00cb 03       		.uleb128 0x3
 968 00cc 01       		.byte	0x1
 969 00cd 02       		.byte	0x2
 970 00ce 3B040000 		.4byte	.LASF16
 971 00d2 02       		.uleb128 0x2
 972 00d3 B2020000 		.4byte	.LASF17
 973 00d7 05       		.byte	0x5
 974 00d8 2C       		.byte	0x2c
 975 00d9 94000000 		.4byte	0x94
 976 00dd 02       		.uleb128 0x2
 977 00de 3C010000 		.4byte	.LASF18
 978 00e2 05       		.byte	0x5
 979 00e3 2D       		.byte	0x2d
 980 00e4 94000000 		.4byte	0x94
 981 00e8 02       		.uleb128 0x2
 982 00e9 E7030000 		.4byte	.LASF19
 983 00ed 05       		.byte	0x5
 984 00ee 2E       		.byte	0x2e
 985 00ef 94000000 		.4byte	0x94
 986 00f3 02       		.uleb128 0x2
 987 00f4 1E010000 		.4byte	.LASF20
 988 00f8 05       		.byte	0x5
 989 00f9 2F       		.byte	0x2f
 990 00fa 94000000 		.4byte	0x94
 991 00fe 02       		.uleb128 0x2
 992 00ff 28040000 		.4byte	.LASF21
 993 0103 05       		.byte	0x5
 994 0104 30       		.byte	0x30
 995 0105 B5000000 		.4byte	0xb5
 996 0109 02       		.uleb128 0x2
 997 010a 9D020000 		.4byte	.LASF22
 998 010e 05       		.byte	0x5
 999 010f 31       		.byte	0x31
 1000 0110 AA000000 		.4byte	0xaa
 1001 0114 02       		.uleb128 0x2
ARM GAS  C:\Users\DNIEL~1\AppData\Local\Temp\ccGM5WUW.s 			page 20


 1002 0115 D6020000 		.4byte	.LASF23
 1003 0119 05       		.byte	0x5
 1004 011a 33       		.byte	0x33
 1005 011b B5000000 		.4byte	0xb5
 1006 011f 02       		.uleb128 0x2
 1007 0120 D7050000 		.4byte	.LASF24
 1008 0124 05       		.byte	0x5
 1009 0125 34       		.byte	0x34
 1010 0126 B5000000 		.4byte	0xb5
 1011 012a 02       		.uleb128 0x2
 1012 012b 7D050000 		.4byte	.LASF25
 1013 012f 05       		.byte	0x5
 1014 0130 35       		.byte	0x35
 1015 0131 B5000000 		.4byte	0xb5
 1016 0135 02       		.uleb128 0x2
 1017 0136 0D020000 		.4byte	.LASF26
 1018 013a 05       		.byte	0x5
 1019 013b 36       		.byte	0x36
 1020 013c AA000000 		.4byte	0xaa
 1021 0140 02       		.uleb128 0x2
 1022 0141 DA010000 		.4byte	.LASF27
 1023 0145 06       		.byte	0x6
 1024 0146 2A       		.byte	0x2a
 1025 0147 4B010000 		.4byte	0x14b
 1026 014b 08       		.uleb128 0x8
 1027 014c DA010000 		.4byte	.LASF27
 1028 0150 48       		.byte	0x48
 1029 0151 07       		.byte	0x7
 1030 0152 5E       		.byte	0x5e
 1031 0153 70020000 		.4byte	0x270
 1032 0157 09       		.uleb128 0x9
 1033 0158 C2040000 		.4byte	.LASF28
 1034 015c 07       		.byte	0x7
 1035 015d 5F       		.byte	0x5f
 1036 015e 95020000 		.4byte	0x295
 1037 0162 02       		.byte	0x2
 1038 0163 23       		.byte	0x23
 1039 0164 00       		.uleb128 0x0
 1040 0165 09       		.uleb128 0x9
 1041 0166 21040000 		.4byte	.LASF29
 1042 016a 07       		.byte	0x7
 1043 016b 61       		.byte	0x61
 1044 016c 95020000 		.4byte	0x295
 1045 0170 02       		.byte	0x2
 1046 0171 23       		.byte	0x23
 1047 0172 04       		.uleb128 0x4
 1048 0173 09       		.uleb128 0x9
 1049 0174 A5000000 		.4byte	.LASF30
 1050 0178 07       		.byte	0x7
 1051 0179 63       		.byte	0x63
 1052 017a FE000000 		.4byte	0xfe
 1053 017e 02       		.byte	0x2
 1054 017f 23       		.byte	0x23
 1055 0180 08       		.uleb128 0x8
 1056 0181 09       		.uleb128 0x9
 1057 0182 A5060000 		.4byte	.LASF31
 1058 0186 07       		.byte	0x7
ARM GAS  C:\Users\DNIEL~1\AppData\Local\Temp\ccGM5WUW.s 			page 21


 1059 0187 64       		.byte	0x64
 1060 0188 6C030000 		.4byte	0x36c
 1061 018c 02       		.byte	0x2
 1062 018d 23       		.byte	0x23
 1063 018e 0C       		.uleb128 0xc
 1064 018f 09       		.uleb128 0x9
 1065 0190 98010000 		.4byte	.LASF32
 1066 0194 07       		.byte	0x7
 1067 0195 66       		.byte	0x66
 1068 0196 95020000 		.4byte	0x295
 1069 019a 02       		.byte	0x2
 1070 019b 23       		.byte	0x23
 1071 019c 10       		.uleb128 0x10
 1072 019d 09       		.uleb128 0x9
 1073 019e 68030000 		.4byte	.LASF33
 1074 01a2 07       		.byte	0x7
 1075 01a3 67       		.byte	0x67
 1076 01a4 95020000 		.4byte	0x295
 1077 01a8 02       		.byte	0x2
 1078 01a9 23       		.byte	0x23
 1079 01aa 14       		.uleb128 0x14
 1080 01ab 09       		.uleb128 0x9
 1081 01ac EF050000 		.4byte	.LASF34
 1082 01b0 07       		.byte	0x7
 1083 01b1 6E       		.byte	0x6e
 1084 01b2 89000000 		.4byte	0x89
 1085 01b6 02       		.byte	0x2
 1086 01b7 23       		.byte	0x23
 1087 01b8 18       		.uleb128 0x18
 1088 01b9 09       		.uleb128 0x9
 1089 01ba A2040000 		.4byte	.LASF35
 1090 01be 07       		.byte	0x7
 1091 01bf 79       		.byte	0x79
 1092 01c0 DD000000 		.4byte	0xdd
 1093 01c4 02       		.byte	0x2
 1094 01c5 23       		.byte	0x23
 1095 01c6 1C       		.uleb128 0x1c
 1096 01c7 09       		.uleb128 0x9
 1097 01c8 E1040000 		.4byte	.LASF36
 1098 01cc 07       		.byte	0x7
 1099 01cd 7D       		.byte	0x7d
 1100 01ce D2000000 		.4byte	0xd2
 1101 01d2 02       		.byte	0x2
 1102 01d3 23       		.byte	0x23
 1103 01d4 1D       		.uleb128 0x1d
 1104 01d5 09       		.uleb128 0x9
 1105 01d6 65010000 		.4byte	.LASF37
 1106 01da 07       		.byte	0x7
 1107 01db 82       		.byte	0x82
 1108 01dc E8000000 		.4byte	0xe8
 1109 01e0 02       		.byte	0x2
 1110 01e1 23       		.byte	0x23
 1111 01e2 1E       		.uleb128 0x1e
 1112 01e3 09       		.uleb128 0x9
 1113 01e4 AA040000 		.4byte	.LASF38
 1114 01e8 07       		.byte	0x7
 1115 01e9 88       		.byte	0x88
ARM GAS  C:\Users\DNIEL~1\AppData\Local\Temp\ccGM5WUW.s 			page 22


 1116 01ea F3000000 		.4byte	0xf3
 1117 01ee 02       		.byte	0x2
 1118 01ef 23       		.byte	0x23
 1119 01f0 1F       		.uleb128 0x1f
 1120 01f1 09       		.uleb128 0x9
 1121 01f2 8A010000 		.4byte	.LASF39
 1122 01f6 07       		.byte	0x7
 1123 01f7 8F       		.byte	0x8f
 1124 01f8 94030000 		.4byte	0x394
 1125 01fc 02       		.byte	0x2
 1126 01fd 23       		.byte	0x23
 1127 01fe 20       		.uleb128 0x20
 1128 01ff 0A       		.uleb128 0xa
 1129 0200 705F7500 		.ascii	"p_u\000"
 1130 0204 07       		.byte	0x7
 1131 0205 B4       		.byte	0xb4
 1132 0206 F9040000 		.4byte	0x4f9
 1133 020a 02       		.byte	0x2
 1134 020b 23       		.byte	0x23
 1135 020c 24       		.uleb128 0x24
 1136 020d 09       		.uleb128 0x9
 1137 020e AB060000 		.4byte	.LASF40
 1138 0212 07       		.byte	0x7
 1139 0213 B9       		.byte	0xb9
 1140 0214 BD020000 		.4byte	0x2bd
 1141 0218 02       		.byte	0x2
 1142 0219 23       		.byte	0x23
 1143 021a 28       		.uleb128 0x28
 1144 021b 09       		.uleb128 0x9
 1145 021c 3D020000 		.4byte	.LASF41
 1146 0220 07       		.byte	0x7
 1147 0221 BF       		.byte	0xbf
 1148 0222 9B020000 		.4byte	0x29b
 1149 0226 02       		.byte	0x2
 1150 0227 23       		.byte	0x23
 1151 0228 2C       		.uleb128 0x2c
 1152 0229 09       		.uleb128 0x9
 1153 022a 81060000 		.4byte	.LASF42
 1154 022e 07       		.byte	0x7
 1155 022f C3       		.byte	0xc3
 1156 0230 09010000 		.4byte	0x109
 1157 0234 02       		.byte	0x2
 1158 0235 23       		.byte	0x23
 1159 0236 34       		.uleb128 0x34
 1160 0237 09       		.uleb128 0x9
 1161 0238 10050000 		.4byte	.LASF43
 1162 023c 07       		.byte	0x7
 1163 023d C9       		.byte	0xc9
 1164 023e 14010000 		.4byte	0x114
 1165 0242 02       		.byte	0x2
 1166 0243 23       		.byte	0x23
 1167 0244 38       		.uleb128 0x38
 1168 0245 09       		.uleb128 0x9
 1169 0246 8E040000 		.4byte	.LASF44
 1170 024a 07       		.byte	0x7
 1171 024b D0       		.byte	0xd0
 1172 024c 2E050000 		.4byte	0x52e
ARM GAS  C:\Users\DNIEL~1\AppData\Local\Temp\ccGM5WUW.s 			page 23


 1173 0250 02       		.byte	0x2
 1174 0251 23       		.byte	0x23
 1175 0252 3C       		.uleb128 0x3c
 1176 0253 09       		.uleb128 0x9
 1177 0254 87050000 		.4byte	.LASF45
 1178 0258 07       		.byte	0x7
 1179 0259 D4       		.byte	0xd4
 1180 025a FE000000 		.4byte	0xfe
 1181 025e 02       		.byte	0x2
 1182 025f 23       		.byte	0x23
 1183 0260 40       		.uleb128 0x40
 1184 0261 09       		.uleb128 0x9
 1185 0262 10010000 		.4byte	.LASF46
 1186 0266 07       		.byte	0x7
 1187 0267 DA       		.byte	0xda
 1188 0268 73000000 		.4byte	0x73
 1189 026c 02       		.byte	0x2
 1190 026d 23       		.byte	0x23
 1191 026e 44       		.uleb128 0x44
 1192 026f 00       		.byte	0x0
 1193 0270 0B       		.uleb128 0xb
 1194 0271 08       		.byte	0x8
 1195 0272 06       		.byte	0x6
 1196 0273 61       		.byte	0x61
 1197 0274 95020000 		.4byte	0x295
 1198 0278 09       		.uleb128 0x9
 1199 0279 C2040000 		.4byte	.LASF28
 1200 027d 06       		.byte	0x6
 1201 027e 62       		.byte	0x62
 1202 027f 95020000 		.4byte	0x295
 1203 0283 02       		.byte	0x2
 1204 0284 23       		.byte	0x23
 1205 0285 00       		.uleb128 0x0
 1206 0286 09       		.uleb128 0x9
 1207 0287 21040000 		.4byte	.LASF29
 1208 028b 06       		.byte	0x6
 1209 028c 64       		.byte	0x64
 1210 028d 95020000 		.4byte	0x295
 1211 0291 02       		.byte	0x2
 1212 0292 23       		.byte	0x23
 1213 0293 04       		.uleb128 0x4
 1214 0294 00       		.byte	0x0
 1215 0295 06       		.uleb128 0x6
 1216 0296 04       		.byte	0x4
 1217 0297 40010000 		.4byte	0x140
 1218 029b 02       		.uleb128 0x2
 1219 029c 76030000 		.4byte	.LASF47
 1220 02a0 06       		.byte	0x6
 1221 02a1 66       		.byte	0x66
 1222 02a2 70020000 		.4byte	0x270
 1223 02a6 0B       		.uleb128 0xb
 1224 02a7 04       		.byte	0x4
 1225 02a8 06       		.byte	0x6
 1226 02a9 6B       		.byte	0x6b
 1227 02aa BD020000 		.4byte	0x2bd
 1228 02ae 09       		.uleb128 0x9
 1229 02af C2040000 		.4byte	.LASF28
ARM GAS  C:\Users\DNIEL~1\AppData\Local\Temp\ccGM5WUW.s 			page 24


 1230 02b3 06       		.byte	0x6
 1231 02b4 6D       		.byte	0x6d
 1232 02b5 95020000 		.4byte	0x295
 1233 02b9 02       		.byte	0x2
 1234 02ba 23       		.byte	0x23
 1235 02bb 00       		.uleb128 0x0
 1236 02bc 00       		.byte	0x0
 1237 02bd 02       		.uleb128 0x2
 1238 02be BA020000 		.4byte	.LASF48
 1239 02c2 06       		.byte	0x6
 1240 02c3 70       		.byte	0x70
 1241 02c4 A6020000 		.4byte	0x2a6
 1242 02c8 02       		.uleb128 0x2
 1243 02c9 CC010000 		.4byte	.LASF49
 1244 02cd 08       		.byte	0x8
 1245 02ce E5       		.byte	0xe5
 1246 02cf 73000000 		.4byte	0x73
 1247 02d3 02       		.uleb128 0x2
 1248 02d4 F9020000 		.4byte	.LASF50
 1249 02d8 08       		.byte	0x8
 1250 02d9 EB       		.byte	0xeb
 1251 02da C0000000 		.4byte	0xc0
 1252 02de 0C       		.uleb128 0xc
 1253 02df B7050000 		.4byte	.LASF51
 1254 02e3 24       		.byte	0x24
 1255 02e4 08       		.byte	0x8
 1256 02e5 0C01     		.2byte	0x10c
 1257 02e7 6C030000 		.4byte	0x36c
 1258 02eb 0D       		.uleb128 0xd
 1259 02ec 723400   		.ascii	"r4\000"
 1260 02ef 08       		.byte	0x8
 1261 02f0 1F01     		.2byte	0x11f
 1262 02f2 C8020000 		.4byte	0x2c8
 1263 02f6 02       		.byte	0x2
 1264 02f7 23       		.byte	0x23
 1265 02f8 00       		.uleb128 0x0
 1266 02f9 0D       		.uleb128 0xd
 1267 02fa 723500   		.ascii	"r5\000"
 1268 02fd 08       		.byte	0x8
 1269 02fe 2001     		.2byte	0x120
 1270 0300 C8020000 		.4byte	0x2c8
 1271 0304 02       		.byte	0x2
 1272 0305 23       		.byte	0x23
 1273 0306 04       		.uleb128 0x4
 1274 0307 0D       		.uleb128 0xd
 1275 0308 723600   		.ascii	"r6\000"
 1276 030b 08       		.byte	0x8
 1277 030c 2101     		.2byte	0x121
 1278 030e C8020000 		.4byte	0x2c8
 1279 0312 02       		.byte	0x2
 1280 0313 23       		.byte	0x23
 1281 0314 08       		.uleb128 0x8
 1282 0315 0D       		.uleb128 0xd
 1283 0316 723700   		.ascii	"r7\000"
 1284 0319 08       		.byte	0x8
 1285 031a 2201     		.2byte	0x122
 1286 031c C8020000 		.4byte	0x2c8
ARM GAS  C:\Users\DNIEL~1\AppData\Local\Temp\ccGM5WUW.s 			page 25


 1287 0320 02       		.byte	0x2
 1288 0321 23       		.byte	0x23
 1289 0322 0C       		.uleb128 0xc
 1290 0323 0D       		.uleb128 0xd
 1291 0324 723800   		.ascii	"r8\000"
 1292 0327 08       		.byte	0x8
 1293 0328 2301     		.2byte	0x123
 1294 032a C8020000 		.4byte	0x2c8
 1295 032e 02       		.byte	0x2
 1296 032f 23       		.byte	0x23
 1297 0330 10       		.uleb128 0x10
 1298 0331 0D       		.uleb128 0xd
 1299 0332 723900   		.ascii	"r9\000"
 1300 0335 08       		.byte	0x8
 1301 0336 2401     		.2byte	0x124
 1302 0338 C8020000 		.4byte	0x2c8
 1303 033c 02       		.byte	0x2
 1304 033d 23       		.byte	0x23
 1305 033e 14       		.uleb128 0x14
 1306 033f 0D       		.uleb128 0xd
 1307 0340 72313000 		.ascii	"r10\000"
 1308 0344 08       		.byte	0x8
 1309 0345 2501     		.2byte	0x125
 1310 0347 C8020000 		.4byte	0x2c8
 1311 034b 02       		.byte	0x2
 1312 034c 23       		.byte	0x23
 1313 034d 18       		.uleb128 0x18
 1314 034e 0D       		.uleb128 0xd
 1315 034f 72313100 		.ascii	"r11\000"
 1316 0353 08       		.byte	0x8
 1317 0354 2601     		.2byte	0x126
 1318 0356 C8020000 		.4byte	0x2c8
 1319 035a 02       		.byte	0x2
 1320 035b 23       		.byte	0x23
 1321 035c 1C       		.uleb128 0x1c
 1322 035d 0D       		.uleb128 0xd
 1323 035e 6C7200   		.ascii	"lr\000"
 1324 0361 08       		.byte	0x8
 1325 0362 2701     		.2byte	0x127
 1326 0364 C8020000 		.4byte	0x2c8
 1327 0368 02       		.byte	0x2
 1328 0369 23       		.byte	0x23
 1329 036a 20       		.uleb128 0x20
 1330 036b 00       		.byte	0x0
 1331 036c 0C       		.uleb128 0xc
 1332 036d AA050000 		.4byte	.LASF52
 1333 0371 04       		.byte	0x4
 1334 0372 08       		.byte	0x8
 1335 0373 3101     		.2byte	0x131
 1336 0375 89030000 		.4byte	0x389
 1337 0379 0D       		.uleb128 0xd
 1338 037a 72313300 		.ascii	"r13\000"
 1339 037e 08       		.byte	0x8
 1340 037f 3201     		.2byte	0x132
 1341 0381 89030000 		.4byte	0x389
 1342 0385 02       		.byte	0x2
 1343 0386 23       		.byte	0x23
ARM GAS  C:\Users\DNIEL~1\AppData\Local\Temp\ccGM5WUW.s 			page 26


 1344 0387 00       		.uleb128 0x0
 1345 0388 00       		.byte	0x0
 1346 0389 06       		.uleb128 0x6
 1347 038a 04       		.byte	0x4
 1348 038b DE020000 		.4byte	0x2de
 1349 038f 0E       		.uleb128 0xe
 1350 0390 B5000000 		.4byte	0xb5
 1351 0394 0E       		.uleb128 0xe
 1352 0395 2A010000 		.4byte	0x12a
 1353 0399 0B       		.uleb128 0xb
 1354 039a 1C       		.byte	0x1c
 1355 039b 09       		.byte	0x9
 1356 039c 5E       		.byte	0x5e
 1357 039d F6030000 		.4byte	0x3f6
 1358 03a1 09       		.uleb128 0x9
 1359 03a2 2E050000 		.4byte	.LASF53
 1360 03a6 09       		.byte	0x9
 1361 03a7 5F       		.byte	0x5f
 1362 03a8 9B020000 		.4byte	0x29b
 1363 03ac 02       		.byte	0x2
 1364 03ad 23       		.byte	0x23
 1365 03ae 00       		.uleb128 0x0
 1366 03af 09       		.uleb128 0x9
 1367 03b0 B4040000 		.4byte	.LASF54
 1368 03b4 09       		.byte	0x9
 1369 03b5 60       		.byte	0x60
 1370 03b6 FE000000 		.4byte	0xfe
 1371 03ba 02       		.byte	0x2
 1372 03bb 23       		.byte	0x23
 1373 03bc 08       		.uleb128 0x8
 1374 03bd 09       		.uleb128 0x9
 1375 03be 70030000 		.4byte	.LASF55
 1376 03c2 09       		.byte	0x9
 1377 03c3 62       		.byte	0x62
 1378 03c4 6C030000 		.4byte	0x36c
 1379 03c8 02       		.byte	0x2
 1380 03c9 23       		.byte	0x23
 1381 03ca 0C       		.uleb128 0xc
 1382 03cb 09       		.uleb128 0x9
 1383 03cc C4010000 		.4byte	.LASF56
 1384 03d0 09       		.byte	0x9
 1385 03d1 65       		.byte	0x65
 1386 03d2 95020000 		.4byte	0x295
 1387 03d6 02       		.byte	0x2
 1388 03d7 23       		.byte	0x23
 1389 03d8 10       		.uleb128 0x10
 1390 03d9 09       		.uleb128 0x9
 1391 03da 92030000 		.4byte	.LASF57
 1392 03de 09       		.byte	0x9
 1393 03df 66       		.byte	0x66
 1394 03e0 95020000 		.4byte	0x295
 1395 03e4 02       		.byte	0x2
 1396 03e5 23       		.byte	0x23
 1397 03e6 14       		.uleb128 0x14
 1398 03e7 09       		.uleb128 0x9
 1399 03e8 88030000 		.4byte	.LASF58
 1400 03ec 09       		.byte	0x9
ARM GAS  C:\Users\DNIEL~1\AppData\Local\Temp\ccGM5WUW.s 			page 27


 1401 03ed 69       		.byte	0x69
 1402 03ee 95020000 		.4byte	0x295
 1403 03f2 02       		.byte	0x2
 1404 03f3 23       		.byte	0x23
 1405 03f4 18       		.uleb128 0x18
 1406 03f5 00       		.byte	0x0
 1407 03f6 02       		.uleb128 0x2
 1408 03f7 FE050000 		.4byte	.LASF59
 1409 03fb 09       		.byte	0x9
 1410 03fc 6B       		.byte	0x6b
 1411 03fd 99030000 		.4byte	0x399
 1412 0401 08       		.uleb128 0x8
 1413 0402 CD050000 		.4byte	.LASF60
 1414 0406 0C       		.byte	0xc
 1415 0407 0A       		.byte	0xa
 1416 0408 2C       		.byte	0x2c
 1417 0409 2A040000 		.4byte	0x42a
 1418 040d 09       		.uleb128 0x9
 1419 040e A0010000 		.4byte	.LASF61
 1420 0412 0A       		.byte	0xa
 1421 0413 2D       		.byte	0x2d
 1422 0414 9B020000 		.4byte	0x29b
 1423 0418 02       		.byte	0x2
 1424 0419 23       		.byte	0x23
 1425 041a 00       		.uleb128 0x0
 1426 041b 09       		.uleb128 0x9
 1427 041c 64020000 		.4byte	.LASF62
 1428 0420 0A       		.byte	0xa
 1429 0421 2F       		.byte	0x2f
 1430 0422 35010000 		.4byte	0x135
 1431 0426 02       		.byte	0x2
 1432 0427 23       		.byte	0x23
 1433 0428 08       		.uleb128 0x8
 1434 0429 00       		.byte	0x0
 1435 042a 02       		.uleb128 0x2
 1436 042b CD050000 		.4byte	.LASF60
 1437 042f 0A       		.byte	0xa
 1438 0430 30       		.byte	0x30
 1439 0431 01040000 		.4byte	0x401
 1440 0435 08       		.uleb128 0x8
 1441 0436 E2020000 		.4byte	.LASF63
 1442 043a 10       		.byte	0x10
 1443 043b 0B       		.byte	0xb
 1444 043c 2C       		.byte	0x2c
 1445 043d 6C040000 		.4byte	0x46c
 1446 0441 09       		.uleb128 0x9
 1447 0442 57040000 		.4byte	.LASF64
 1448 0446 0B       		.byte	0xb
 1449 0447 2D       		.byte	0x2d
 1450 0448 9B020000 		.4byte	0x29b
 1451 044c 02       		.byte	0x2
 1452 044d 23       		.byte	0x23
 1453 044e 00       		.uleb128 0x0
 1454 044f 09       		.uleb128 0x9
 1455 0450 9D060000 		.4byte	.LASF65
 1456 0454 0B       		.byte	0xb
 1457 0455 2F       		.byte	0x2f
ARM GAS  C:\Users\DNIEL~1\AppData\Local\Temp\ccGM5WUW.s 			page 28


 1458 0456 95020000 		.4byte	0x295
 1459 045a 02       		.byte	0x2
 1460 045b 23       		.byte	0x23
 1461 045c 08       		.uleb128 0x8
 1462 045d 09       		.uleb128 0x9
 1463 045e 76050000 		.4byte	.LASF66
 1464 0462 0B       		.byte	0xb
 1465 0463 31       		.byte	0x31
 1466 0464 6C040000 		.4byte	0x46c
 1467 0468 02       		.byte	0x2
 1468 0469 23       		.byte	0x23
 1469 046a 0C       		.uleb128 0xc
 1470 046b 00       		.byte	0x0
 1471 046c 06       		.uleb128 0x6
 1472 046d 04       		.byte	0x4
 1473 046e 35040000 		.4byte	0x435
 1474 0472 02       		.uleb128 0x2
 1475 0473 E2020000 		.4byte	.LASF63
 1476 0477 0B       		.byte	0xb
 1477 0478 33       		.byte	0x33
 1478 0479 35040000 		.4byte	0x435
 1479 047d 02       		.uleb128 0x2
 1480 047e 44060000 		.4byte	.LASF67
 1481 0482 0C       		.byte	0xc
 1482 0483 2C       		.byte	0x2c
 1483 0484 88040000 		.4byte	0x488
 1484 0488 08       		.uleb128 0x8
 1485 0489 44060000 		.4byte	.LASF67
 1486 048d 10       		.byte	0x10
 1487 048e 0C       		.byte	0xc
 1488 048f 31       		.byte	0x31
 1489 0490 CD040000 		.4byte	0x4cd
 1490 0494 09       		.uleb128 0x9
 1491 0495 A3020000 		.4byte	.LASF68
 1492 0499 0C       		.byte	0xc
 1493 049a 32       		.byte	0x32
 1494 049b CD040000 		.4byte	0x4cd
 1495 049f 02       		.byte	0x2
 1496 04a0 23       		.byte	0x23
 1497 04a1 00       		.uleb128 0x0
 1498 04a2 09       		.uleb128 0x9
 1499 04a3 6C040000 		.4byte	.LASF69
 1500 04a7 0C       		.byte	0xc
 1501 04a8 35       		.byte	0x35
 1502 04a9 95020000 		.4byte	0x295
 1503 04ad 02       		.byte	0x2
 1504 04ae 23       		.byte	0x23
 1505 04af 04       		.uleb128 0x4
 1506 04b0 09       		.uleb128 0x9
 1507 04b1 9A030000 		.4byte	.LASF70
 1508 04b5 0C       		.byte	0xc
 1509 04b6 37       		.byte	0x37
 1510 04b7 14010000 		.4byte	0x114
 1511 04bb 02       		.byte	0x2
 1512 04bc 23       		.byte	0x23
 1513 04bd 08       		.uleb128 0x8
 1514 04be 09       		.uleb128 0x9
ARM GAS  C:\Users\DNIEL~1\AppData\Local\Temp\ccGM5WUW.s 			page 29


 1515 04bf 85040000 		.4byte	.LASF71
 1516 04c3 0C       		.byte	0xc
 1517 04c4 3A       		.byte	0x3a
 1518 04c5 1F010000 		.4byte	0x11f
 1519 04c9 02       		.byte	0x2
 1520 04ca 23       		.byte	0x23
 1521 04cb 0C       		.uleb128 0xc
 1522 04cc 00       		.byte	0x0
 1523 04cd 06       		.uleb128 0x6
 1524 04ce 04       		.byte	0x4
 1525 04cf 7D040000 		.4byte	0x47d
 1526 04d3 08       		.uleb128 0x8
 1527 04d4 EC010000 		.4byte	.LASF72
 1528 04d8 04       		.byte	0x4
 1529 04d9 0C       		.byte	0xc
 1530 04da 41       		.byte	0x41
 1531 04db EE040000 		.4byte	0x4ee
 1532 04df 09       		.uleb128 0x9
 1533 04e0 F6050000 		.4byte	.LASF73
 1534 04e4 0C       		.byte	0xc
 1535 04e5 42       		.byte	0x42
 1536 04e6 CD040000 		.4byte	0x4cd
 1537 04ea 02       		.byte	0x2
 1538 04eb 23       		.byte	0x23
 1539 04ec 00       		.uleb128 0x0
 1540 04ed 00       		.byte	0x0
 1541 04ee 02       		.uleb128 0x2
 1542 04ef EC010000 		.4byte	.LASF72
 1543 04f3 0C       		.byte	0xc
 1544 04f4 45       		.byte	0x45
 1545 04f5 D3040000 		.4byte	0x4d3
 1546 04f9 0F       		.uleb128 0xf
 1547 04fa 04       		.byte	0x4
 1548 04fb 07       		.byte	0x7
 1549 04fc 96       		.byte	0x96
 1550 04fd 2E050000 		.4byte	0x52e
 1551 0501 10       		.uleb128 0x10
 1552 0502 2B000000 		.4byte	.LASF74
 1553 0506 07       		.byte	0x7
 1554 0507 9D       		.byte	0x9d
 1555 0508 09010000 		.4byte	0x109
 1556 050c 10       		.uleb128 0x10
 1557 050d 95000000 		.4byte	.LASF75
 1558 0511 07       		.byte	0x7
 1559 0512 A4       		.byte	0xa4
 1560 0513 09010000 		.4byte	0x109
 1561 0517 10       		.uleb128 0x10
 1562 0518 52060000 		.4byte	.LASF76
 1563 051c 07       		.byte	0x7
 1564 051d AB       		.byte	0xab
 1565 051e 73000000 		.4byte	0x73
 1566 0522 10       		.uleb128 0x10
 1567 0523 BB040000 		.4byte	.LASF77
 1568 0527 07       		.byte	0x7
 1569 0528 B2       		.byte	0xb2
 1570 0529 14010000 		.4byte	0x114
 1571 052d 00       		.byte	0x0
ARM GAS  C:\Users\DNIEL~1\AppData\Local\Temp\ccGM5WUW.s 			page 30


 1572 052e 06       		.uleb128 0x6
 1573 052f 04       		.byte	0x4
 1574 0530 72040000 		.4byte	0x472
 1575 0534 06       		.uleb128 0x6
 1576 0535 04       		.byte	0x4
 1577 0536 3A050000 		.4byte	0x53a
 1578 053a 11       		.uleb128 0x11
 1579 053b 01       		.byte	0x1
 1580 053c 09010000 		.4byte	0x109
 1581 0540 4A050000 		.4byte	0x54a
 1582 0544 12       		.uleb128 0x12
 1583 0545 73000000 		.4byte	0x73
 1584 0549 00       		.byte	0x0
 1585 054a 06       		.uleb128 0x6
 1586 054b 04       		.byte	0x4
 1587 054c 94000000 		.4byte	0x94
 1588 0550 08       		.uleb128 0x8
 1589 0551 C9040000 		.4byte	.LASF78
 1590 0555 10       		.byte	0x10
 1591 0556 0D       		.byte	0xd
 1592 0557 48       		.byte	0x48
 1593 0558 95050000 		.4byte	0x595
 1594 055c 09       		.uleb128 0x9
 1595 055d 04030000 		.4byte	.LASF79
 1596 0561 0D       		.byte	0xd
 1597 0562 49       		.byte	0x49
 1598 0563 BA050000 		.4byte	0x5ba
 1599 0567 02       		.byte	0x2
 1600 0568 23       		.byte	0x23
 1601 0569 00       		.uleb128 0x0
 1602 056a 09       		.uleb128 0x9
 1603 056b 56050000 		.4byte	.LASF80
 1604 056f 0D       		.byte	0xd
 1605 0570 49       		.byte	0x49
 1606 0571 DA050000 		.4byte	0x5da
 1607 0575 02       		.byte	0x2
 1608 0576 23       		.byte	0x23
 1609 0577 04       		.uleb128 0x4
 1610 0578 0A       		.uleb128 0xa
 1611 0579 70757400 		.ascii	"put\000"
 1612 057d 0D       		.byte	0xd
 1613 057e 49       		.byte	0x49
 1614 057f F5050000 		.4byte	0x5f5
 1615 0583 02       		.byte	0x2
 1616 0584 23       		.byte	0x23
 1617 0585 08       		.uleb128 0x8
 1618 0586 0A       		.uleb128 0xa
 1619 0587 67657400 		.ascii	"get\000"
 1620 058b 0D       		.byte	0xd
 1621 058c 49       		.byte	0x49
 1622 058d 34050000 		.4byte	0x534
 1623 0591 02       		.byte	0x2
 1624 0592 23       		.byte	0x23
 1625 0593 0C       		.uleb128 0xc
 1626 0594 00       		.byte	0x0
 1627 0595 11       		.uleb128 0x11
 1628 0596 01       		.byte	0x1
ARM GAS  C:\Users\DNIEL~1\AppData\Local\Temp\ccGM5WUW.s 			page 31


 1629 0597 29000000 		.4byte	0x29
 1630 059b AF050000 		.4byte	0x5af
 1631 059f 12       		.uleb128 0x12
 1632 05a0 73000000 		.4byte	0x73
 1633 05a4 12       		.uleb128 0x12
 1634 05a5 AF050000 		.4byte	0x5af
 1635 05a9 12       		.uleb128 0x12
 1636 05aa 29000000 		.4byte	0x29
 1637 05ae 00       		.byte	0x0
 1638 05af 06       		.uleb128 0x6
 1639 05b0 04       		.byte	0x4
 1640 05b1 B5050000 		.4byte	0x5b5
 1641 05b5 07       		.uleb128 0x7
 1642 05b6 94000000 		.4byte	0x94
 1643 05ba 06       		.uleb128 0x6
 1644 05bb 04       		.byte	0x4
 1645 05bc 95050000 		.4byte	0x595
 1646 05c0 11       		.uleb128 0x11
 1647 05c1 01       		.byte	0x1
 1648 05c2 29000000 		.4byte	0x29
 1649 05c6 DA050000 		.4byte	0x5da
 1650 05ca 12       		.uleb128 0x12
 1651 05cb 73000000 		.4byte	0x73
 1652 05cf 12       		.uleb128 0x12
 1653 05d0 4A050000 		.4byte	0x54a
 1654 05d4 12       		.uleb128 0x12
 1655 05d5 29000000 		.4byte	0x29
 1656 05d9 00       		.byte	0x0
 1657 05da 06       		.uleb128 0x6
 1658 05db 04       		.byte	0x4
 1659 05dc C0050000 		.4byte	0x5c0
 1660 05e0 11       		.uleb128 0x11
 1661 05e1 01       		.byte	0x1
 1662 05e2 09010000 		.4byte	0x109
 1663 05e6 F5050000 		.4byte	0x5f5
 1664 05ea 12       		.uleb128 0x12
 1665 05eb 73000000 		.4byte	0x73
 1666 05ef 12       		.uleb128 0x12
 1667 05f0 94000000 		.4byte	0x94
 1668 05f4 00       		.byte	0x0
 1669 05f5 06       		.uleb128 0x6
 1670 05f6 04       		.byte	0x4
 1671 05f7 E0050000 		.4byte	0x5e0
 1672 05fb 0B       		.uleb128 0xb
 1673 05fc 04       		.byte	0x4
 1674 05fd 0D       		.byte	0xd
 1675 05fe 51       		.byte	0x51
 1676 05ff 12060000 		.4byte	0x612
 1677 0603 0A       		.uleb128 0xa
 1678 0604 766D7400 		.ascii	"vmt\000"
 1679 0608 0D       		.byte	0xd
 1680 0609 53       		.byte	0x53
 1681 060a 12060000 		.4byte	0x612
 1682 060e 02       		.byte	0x2
 1683 060f 23       		.byte	0x23
 1684 0610 00       		.uleb128 0x0
 1685 0611 00       		.byte	0x0
ARM GAS  C:\Users\DNIEL~1\AppData\Local\Temp\ccGM5WUW.s 			page 32


 1686 0612 06       		.uleb128 0x6
 1687 0613 04       		.byte	0x4
 1688 0614 18060000 		.4byte	0x618
 1689 0618 07       		.uleb128 0x7
 1690 0619 50050000 		.4byte	0x550
 1691 061d 02       		.uleb128 0x2
 1692 061e F8010000 		.4byte	.LASF81
 1693 0622 0D       		.byte	0xd
 1694 0623 55       		.byte	0x55
 1695 0624 FB050000 		.4byte	0x5fb
 1696 0628 13       		.uleb128 0x13
 1697 0629 B5000000 		.4byte	0xb5
 1698 062d 38060000 		.4byte	0x638
 1699 0631 14       		.uleb128 0x14
 1700 0632 34000000 		.4byte	0x34
 1701 0636 07       		.byte	0x7
 1702 0637 00       		.byte	0x0
 1703 0638 13       		.uleb128 0x13
 1704 0639 B5000000 		.4byte	0xb5
 1705 063d 48060000 		.4byte	0x648
 1706 0641 14       		.uleb128 0x14
 1707 0642 34000000 		.4byte	0x34
 1708 0646 01       		.byte	0x1
 1709 0647 00       		.byte	0x0
 1710 0648 0E       		.uleb128 0xe
 1711 0649 AA000000 		.4byte	0xaa
 1712 064d 15       		.uleb128 0x15
 1713 064e 10       		.byte	0x10
 1714 064f 0E       		.byte	0xe
 1715 0650 2F02     		.2byte	0x22f
 1716 0652 93060000 		.4byte	0x693
 1717 0656 0D       		.uleb128 0xd
 1718 0657 54495200 		.ascii	"TIR\000"
 1719 065b 0E       		.byte	0xe
 1720 065c 3102     		.2byte	0x231
 1721 065e 8F030000 		.4byte	0x38f
 1722 0662 02       		.byte	0x2
 1723 0663 23       		.byte	0x23
 1724 0664 00       		.uleb128 0x0
 1725 0665 16       		.uleb128 0x16
 1726 0666 E7010000 		.4byte	.LASF82
 1727 066a 0E       		.byte	0xe
 1728 066b 3202     		.2byte	0x232
 1729 066d 8F030000 		.4byte	0x38f
 1730 0671 02       		.byte	0x2
 1731 0672 23       		.byte	0x23
 1732 0673 04       		.uleb128 0x4
 1733 0674 16       		.uleb128 0x16
 1734 0675 2E010000 		.4byte	.LASF83
 1735 0679 0E       		.byte	0xe
 1736 067a 3302     		.2byte	0x233
 1737 067c 8F030000 		.4byte	0x38f
 1738 0680 02       		.byte	0x2
 1739 0681 23       		.byte	0x23
 1740 0682 08       		.uleb128 0x8
 1741 0683 16       		.uleb128 0x16
 1742 0684 83030000 		.4byte	.LASF84
ARM GAS  C:\Users\DNIEL~1\AppData\Local\Temp\ccGM5WUW.s 			page 33


 1743 0688 0E       		.byte	0xe
 1744 0689 3402     		.2byte	0x234
 1745 068b 8F030000 		.4byte	0x38f
 1746 068f 02       		.byte	0x2
 1747 0690 23       		.byte	0x23
 1748 0691 0C       		.uleb128 0xc
 1749 0692 00       		.byte	0x0
 1750 0693 17       		.uleb128 0x17
 1751 0694 45010000 		.4byte	.LASF85
 1752 0698 0E       		.byte	0xe
 1753 0699 3502     		.2byte	0x235
 1754 069b 4D060000 		.4byte	0x64d
 1755 069f 15       		.uleb128 0x15
 1756 06a0 10       		.byte	0x10
 1757 06a1 0E       		.byte	0xe
 1758 06a2 3B02     		.2byte	0x23b
 1759 06a4 E5060000 		.4byte	0x6e5
 1760 06a8 0D       		.uleb128 0xd
 1761 06a9 52495200 		.ascii	"RIR\000"
 1762 06ad 0E       		.byte	0xe
 1763 06ae 3D02     		.2byte	0x23d
 1764 06b0 8F030000 		.4byte	0x38f
 1765 06b4 02       		.byte	0x2
 1766 06b5 23       		.byte	0x23
 1767 06b6 00       		.uleb128 0x0
 1768 06b7 16       		.uleb128 0x16
 1769 06b8 64000000 		.4byte	.LASF86
 1770 06bc 0E       		.byte	0xe
 1771 06bd 3E02     		.2byte	0x23e
 1772 06bf 8F030000 		.4byte	0x38f
 1773 06c3 02       		.byte	0x2
 1774 06c4 23       		.byte	0x23
 1775 06c5 04       		.uleb128 0x4
 1776 06c6 16       		.uleb128 0x16
 1777 06c7 93060000 		.4byte	.LASF87
 1778 06cb 0E       		.byte	0xe
 1779 06cc 3F02     		.2byte	0x23f
 1780 06ce 8F030000 		.4byte	0x38f
 1781 06d2 02       		.byte	0x2
 1782 06d3 23       		.byte	0x23
 1783 06d4 08       		.uleb128 0x8
 1784 06d5 16       		.uleb128 0x16
 1785 06d6 71050000 		.4byte	.LASF88
 1786 06da 0E       		.byte	0xe
 1787 06db 4002     		.2byte	0x240
 1788 06dd 8F030000 		.4byte	0x38f
 1789 06e1 02       		.byte	0x2
 1790 06e2 23       		.byte	0x23
 1791 06e3 0C       		.uleb128 0xc
 1792 06e4 00       		.byte	0x0
 1793 06e5 17       		.uleb128 0x17
 1794 06e6 08060000 		.4byte	.LASF89
 1795 06ea 0E       		.byte	0xe
 1796 06eb 4102     		.2byte	0x241
 1797 06ed 9F060000 		.4byte	0x69f
 1798 06f1 15       		.uleb128 0x15
 1799 06f2 08       		.byte	0x8
ARM GAS  C:\Users\DNIEL~1\AppData\Local\Temp\ccGM5WUW.s 			page 34


 1800 06f3 0E       		.byte	0xe
 1801 06f4 4702     		.2byte	0x247
 1802 06f6 19070000 		.4byte	0x719
 1803 06fa 0D       		.uleb128 0xd
 1804 06fb 46523100 		.ascii	"FR1\000"
 1805 06ff 0E       		.byte	0xe
 1806 0700 4902     		.2byte	0x249
 1807 0702 8F030000 		.4byte	0x38f
 1808 0706 02       		.byte	0x2
 1809 0707 23       		.byte	0x23
 1810 0708 00       		.uleb128 0x0
 1811 0709 0D       		.uleb128 0xd
 1812 070a 46523200 		.ascii	"FR2\000"
 1813 070e 0E       		.byte	0xe
 1814 070f 4A02     		.2byte	0x24a
 1815 0711 8F030000 		.4byte	0x38f
 1816 0715 02       		.byte	0x2
 1817 0716 23       		.byte	0x23
 1818 0717 04       		.uleb128 0x4
 1819 0718 00       		.byte	0x0
 1820 0719 17       		.uleb128 0x17
 1821 071a 82020000 		.4byte	.LASF90
 1822 071e 0E       		.byte	0xe
 1823 071f 4B02     		.2byte	0x24b
 1824 0721 F1060000 		.4byte	0x6f1
 1825 0725 18       		.uleb128 0x18
 1826 0726 2003     		.2byte	0x320
 1827 0728 0E       		.byte	0xe
 1828 0729 5102     		.2byte	0x251
 1829 072b 87080000 		.4byte	0x887
 1830 072f 0D       		.uleb128 0xd
 1831 0730 4D435200 		.ascii	"MCR\000"
 1832 0734 0E       		.byte	0xe
 1833 0735 5302     		.2byte	0x253
 1834 0737 8F030000 		.4byte	0x38f
 1835 073b 02       		.byte	0x2
 1836 073c 23       		.byte	0x23
 1837 073d 00       		.uleb128 0x0
 1838 073e 0D       		.uleb128 0xd
 1839 073f 4D535200 		.ascii	"MSR\000"
 1840 0743 0E       		.byte	0xe
 1841 0744 5402     		.2byte	0x254
 1842 0746 8F030000 		.4byte	0x38f
 1843 074a 02       		.byte	0x2
 1844 074b 23       		.byte	0x23
 1845 074c 04       		.uleb128 0x4
 1846 074d 0D       		.uleb128 0xd
 1847 074e 54535200 		.ascii	"TSR\000"
 1848 0752 0E       		.byte	0xe
 1849 0753 5502     		.2byte	0x255
 1850 0755 8F030000 		.4byte	0x38f
 1851 0759 02       		.byte	0x2
 1852 075a 23       		.byte	0x23
 1853 075b 08       		.uleb128 0x8
 1854 075c 16       		.uleb128 0x16
 1855 075d B2010000 		.4byte	.LASF91
 1856 0761 0E       		.byte	0xe
ARM GAS  C:\Users\DNIEL~1\AppData\Local\Temp\ccGM5WUW.s 			page 35


 1857 0762 5602     		.2byte	0x256
 1858 0764 8F030000 		.4byte	0x38f
 1859 0768 02       		.byte	0x2
 1860 0769 23       		.byte	0x23
 1861 076a 0C       		.uleb128 0xc
 1862 076b 16       		.uleb128 0x16
 1863 076c 7D020000 		.4byte	.LASF92
 1864 0770 0E       		.byte	0xe
 1865 0771 5702     		.2byte	0x257
 1866 0773 8F030000 		.4byte	0x38f
 1867 0777 02       		.byte	0x2
 1868 0778 23       		.byte	0x23
 1869 0779 10       		.uleb128 0x10
 1870 077a 0D       		.uleb128 0xd
 1871 077b 49455200 		.ascii	"IER\000"
 1872 077f 0E       		.byte	0xe
 1873 0780 5802     		.2byte	0x258
 1874 0782 8F030000 		.4byte	0x38f
 1875 0786 02       		.byte	0x2
 1876 0787 23       		.byte	0x23
 1877 0788 14       		.uleb128 0x14
 1878 0789 0D       		.uleb128 0xd
 1879 078a 45535200 		.ascii	"ESR\000"
 1880 078e 0E       		.byte	0xe
 1881 078f 5902     		.2byte	0x259
 1882 0791 8F030000 		.4byte	0x38f
 1883 0795 02       		.byte	0x2
 1884 0796 23       		.byte	0x23
 1885 0797 18       		.uleb128 0x18
 1886 0798 0D       		.uleb128 0xd
 1887 0799 42545200 		.ascii	"BTR\000"
 1888 079d 0E       		.byte	0xe
 1889 079e 5A02     		.2byte	0x25a
 1890 07a0 8F030000 		.4byte	0x38f
 1891 07a4 02       		.byte	0x2
 1892 07a5 23       		.byte	0x23
 1893 07a6 1C       		.uleb128 0x1c
 1894 07a7 16       		.uleb128 0x16
 1895 07a8 EF030000 		.4byte	.LASF93
 1896 07ac 0E       		.byte	0xe
 1897 07ad 5B02     		.2byte	0x25b
 1898 07af 87080000 		.4byte	0x887
 1899 07b3 02       		.byte	0x2
 1900 07b4 23       		.byte	0x23
 1901 07b5 20       		.uleb128 0x20
 1902 07b6 16       		.uleb128 0x16
 1903 07b7 26020000 		.4byte	.LASF94
 1904 07bb 0E       		.byte	0xe
 1905 07bc 5C02     		.2byte	0x25c
 1906 07be 97080000 		.4byte	0x897
 1907 07c2 03       		.byte	0x3
 1908 07c3 23       		.byte	0x23
 1909 07c4 8003     		.uleb128 0x180
 1910 07c6 16       		.uleb128 0x16
 1911 07c7 98050000 		.4byte	.LASF95
 1912 07cb 0E       		.byte	0xe
 1913 07cc 5D02     		.2byte	0x25d
ARM GAS  C:\Users\DNIEL~1\AppData\Local\Temp\ccGM5WUW.s 			page 36


 1914 07ce A7080000 		.4byte	0x8a7
 1915 07d2 03       		.byte	0x3
 1916 07d3 23       		.byte	0x23
 1917 07d4 B003     		.uleb128 0x1b0
 1918 07d6 16       		.uleb128 0x16
 1919 07d7 F9030000 		.4byte	.LASF96
 1920 07db 0E       		.byte	0xe
 1921 07dc 5E02     		.2byte	0x25e
 1922 07de B7080000 		.4byte	0x8b7
 1923 07e2 03       		.byte	0x3
 1924 07e3 23       		.byte	0x23
 1925 07e4 D003     		.uleb128 0x1d0
 1926 07e6 0D       		.uleb128 0xd
 1927 07e7 464D5200 		.ascii	"FMR\000"
 1928 07eb 0E       		.byte	0xe
 1929 07ec 5F02     		.2byte	0x25f
 1930 07ee 8F030000 		.4byte	0x38f
 1931 07f2 03       		.byte	0x3
 1932 07f3 23       		.byte	0x23
 1933 07f4 8004     		.uleb128 0x200
 1934 07f6 16       		.uleb128 0x16
 1935 07f7 B2050000 		.4byte	.LASF97
 1936 07fb 0E       		.byte	0xe
 1937 07fc 6002     		.2byte	0x260
 1938 07fe 8F030000 		.4byte	0x38f
 1939 0802 03       		.byte	0x3
 1940 0803 23       		.byte	0x23
 1941 0804 8404     		.uleb128 0x204
 1942 0806 16       		.uleb128 0x16
 1943 0807 03040000 		.4byte	.LASF98
 1944 080b 0E       		.byte	0xe
 1945 080c 6102     		.2byte	0x261
 1946 080e B5000000 		.4byte	0xb5
 1947 0812 03       		.byte	0x3
 1948 0813 23       		.byte	0x23
 1949 0814 8804     		.uleb128 0x208
 1950 0816 16       		.uleb128 0x16
 1951 0817 EA050000 		.4byte	.LASF99
 1952 081b 0E       		.byte	0xe
 1953 081c 6202     		.2byte	0x262
 1954 081e 8F030000 		.4byte	0x38f
 1955 0822 03       		.byte	0x3
 1956 0823 23       		.byte	0x23
 1957 0824 8C04     		.uleb128 0x20c
 1958 0826 16       		.uleb128 0x16
 1959 0827 0D040000 		.4byte	.LASF100
 1960 082b 0E       		.byte	0xe
 1961 082c 6302     		.2byte	0x263
 1962 082e B5000000 		.4byte	0xb5
 1963 0832 03       		.byte	0x3
 1964 0833 23       		.byte	0x23
 1965 0834 9004     		.uleb128 0x210
 1966 0836 16       		.uleb128 0x16
 1967 0837 C2030000 		.4byte	.LASF101
 1968 083b 0E       		.byte	0xe
 1969 083c 6402     		.2byte	0x264
 1970 083e 8F030000 		.4byte	0x38f
ARM GAS  C:\Users\DNIEL~1\AppData\Local\Temp\ccGM5WUW.s 			page 37


 1971 0842 03       		.byte	0x3
 1972 0843 23       		.byte	0x23
 1973 0844 9404     		.uleb128 0x214
 1974 0846 16       		.uleb128 0x16
 1975 0847 17040000 		.4byte	.LASF102
 1976 084b 0E       		.byte	0xe
 1977 084c 6502     		.2byte	0x265
 1978 084e B5000000 		.4byte	0xb5
 1979 0852 03       		.byte	0x3
 1980 0853 23       		.byte	0x23
 1981 0854 9804     		.uleb128 0x218
 1982 0856 16       		.uleb128 0x16
 1983 0857 1F030000 		.4byte	.LASF103
 1984 085b 0E       		.byte	0xe
 1985 085c 6602     		.2byte	0x266
 1986 085e 8F030000 		.4byte	0x38f
 1987 0862 03       		.byte	0x3
 1988 0863 23       		.byte	0x23
 1989 0864 9C04     		.uleb128 0x21c
 1990 0866 16       		.uleb128 0x16
 1991 0867 1B050000 		.4byte	.LASF104
 1992 086b 0E       		.byte	0xe
 1993 086c 6702     		.2byte	0x267
 1994 086e 28060000 		.4byte	0x628
 1995 0872 03       		.byte	0x3
 1996 0873 23       		.byte	0x23
 1997 0874 A004     		.uleb128 0x220
 1998 0876 16       		.uleb128 0x16
 1999 0877 C6020000 		.4byte	.LASF105
 2000 087b 0E       		.byte	0xe
 2001 087c 6802     		.2byte	0x268
 2002 087e C7080000 		.4byte	0x8c7
 2003 0882 03       		.byte	0x3
 2004 0883 23       		.byte	0x23
 2005 0884 C004     		.uleb128 0x240
 2006 0886 00       		.byte	0x0
 2007 0887 13       		.uleb128 0x13
 2008 0888 B5000000 		.4byte	0xb5
 2009 088c 97080000 		.4byte	0x897
 2010 0890 14       		.uleb128 0x14
 2011 0891 34000000 		.4byte	0x34
 2012 0895 57       		.byte	0x57
 2013 0896 00       		.byte	0x0
 2014 0897 13       		.uleb128 0x13
 2015 0898 93060000 		.4byte	0x693
 2016 089c A7080000 		.4byte	0x8a7
 2017 08a0 14       		.uleb128 0x14
 2018 08a1 34000000 		.4byte	0x34
 2019 08a5 02       		.byte	0x2
 2020 08a6 00       		.byte	0x0
 2021 08a7 13       		.uleb128 0x13
 2022 08a8 E5060000 		.4byte	0x6e5
 2023 08ac B7080000 		.4byte	0x8b7
 2024 08b0 14       		.uleb128 0x14
 2025 08b1 34000000 		.4byte	0x34
 2026 08b5 01       		.byte	0x1
 2027 08b6 00       		.byte	0x0
ARM GAS  C:\Users\DNIEL~1\AppData\Local\Temp\ccGM5WUW.s 			page 38


 2028 08b7 13       		.uleb128 0x13
 2029 08b8 B5000000 		.4byte	0xb5
 2030 08bc C7080000 		.4byte	0x8c7
 2031 08c0 14       		.uleb128 0x14
 2032 08c1 34000000 		.4byte	0x34
 2033 08c5 0B       		.byte	0xb
 2034 08c6 00       		.byte	0x0
 2035 08c7 13       		.uleb128 0x13
 2036 08c8 19070000 		.4byte	0x719
 2037 08cc D7080000 		.4byte	0x8d7
 2038 08d0 14       		.uleb128 0x14
 2039 08d1 34000000 		.4byte	0x34
 2040 08d5 1B       		.byte	0x1b
 2041 08d6 00       		.byte	0x0
 2042 08d7 17       		.uleb128 0x17
 2043 08d8 58000000 		.4byte	.LASF106
 2044 08dc 0E       		.byte	0xe
 2045 08dd 6902     		.2byte	0x269
 2046 08df 25070000 		.4byte	0x725
 2047 08e3 08       		.uleb128 0x8
 2048 08e4 86000000 		.4byte	.LASF107
 2049 08e8 20       		.byte	0x20
 2050 08e9 0F       		.byte	0xf
 2051 08ea 4E       		.byte	0x4e
 2052 08eb 60090000 		.4byte	0x960
 2053 08ef 09       		.uleb128 0x9
 2054 08f0 04030000 		.4byte	.LASF79
 2055 08f4 0F       		.byte	0xf
 2056 08f5 4F       		.byte	0x4f
 2057 08f6 BA050000 		.4byte	0x5ba
 2058 08fa 02       		.byte	0x2
 2059 08fb 23       		.byte	0x23
 2060 08fc 00       		.uleb128 0x0
 2061 08fd 09       		.uleb128 0x9
 2062 08fe 56050000 		.4byte	.LASF80
 2063 0902 0F       		.byte	0xf
 2064 0903 4F       		.byte	0x4f
 2065 0904 DA050000 		.4byte	0x5da
 2066 0908 02       		.byte	0x2
 2067 0909 23       		.byte	0x23
 2068 090a 04       		.uleb128 0x4
 2069 090b 0A       		.uleb128 0xa
 2070 090c 70757400 		.ascii	"put\000"
 2071 0910 0F       		.byte	0xf
 2072 0911 4F       		.byte	0x4f
 2073 0912 F5050000 		.4byte	0x5f5
 2074 0916 02       		.byte	0x2
 2075 0917 23       		.byte	0x23
 2076 0918 08       		.uleb128 0x8
 2077 0919 0A       		.uleb128 0xa
 2078 091a 67657400 		.ascii	"get\000"
 2079 091e 0F       		.byte	0xf
 2080 091f 4F       		.byte	0x4f
 2081 0920 34050000 		.4byte	0x534
 2082 0924 02       		.byte	0x2
 2083 0925 23       		.byte	0x23
 2084 0926 0C       		.uleb128 0xc
ARM GAS  C:\Users\DNIEL~1\AppData\Local\Temp\ccGM5WUW.s 			page 39


 2085 0927 09       		.uleb128 0x9
 2086 0928 0A030000 		.4byte	.LASF108
 2087 092c 0F       		.byte	0xf
 2088 092d 4F       		.byte	0x4f
 2089 092e 7A090000 		.4byte	0x97a
 2090 0932 02       		.byte	0x2
 2091 0933 23       		.byte	0x23
 2092 0934 10       		.uleb128 0x10
 2093 0935 09       		.uleb128 0x9
 2094 0936 5F020000 		.4byte	.LASF109
 2095 093a 0F       		.byte	0xf
 2096 093b 4F       		.byte	0x4f
 2097 093c 95090000 		.4byte	0x995
 2098 0940 02       		.byte	0x2
 2099 0941 23       		.byte	0x23
 2100 0942 14       		.uleb128 0x14
 2101 0943 09       		.uleb128 0x9
 2102 0944 AB020000 		.4byte	.LASF110
 2103 0948 0F       		.byte	0xf
 2104 0949 4F       		.byte	0x4f
 2105 094a BA090000 		.4byte	0x9ba
 2106 094e 02       		.byte	0x2
 2107 094f 23       		.byte	0x23
 2108 0950 18       		.uleb128 0x18
 2109 0951 09       		.uleb128 0x9
 2110 0952 AC000000 		.4byte	.LASF111
 2111 0956 0F       		.byte	0xf
 2112 0957 4F       		.byte	0x4f
 2113 0958 DF090000 		.4byte	0x9df
 2114 095c 02       		.byte	0x2
 2115 095d 23       		.byte	0x23
 2116 095e 1C       		.uleb128 0x1c
 2117 095f 00       		.byte	0x0
 2118 0960 11       		.uleb128 0x11
 2119 0961 01       		.byte	0x1
 2120 0962 09010000 		.4byte	0x109
 2121 0966 7A090000 		.4byte	0x97a
 2122 096a 12       		.uleb128 0x12
 2123 096b 73000000 		.4byte	0x73
 2124 096f 12       		.uleb128 0x12
 2125 0970 94000000 		.4byte	0x94
 2126 0974 12       		.uleb128 0x12
 2127 0975 2A010000 		.4byte	0x12a
 2128 0979 00       		.byte	0x0
 2129 097a 06       		.uleb128 0x6
 2130 097b 04       		.byte	0x4
 2131 097c 60090000 		.4byte	0x960
 2132 0980 11       		.uleb128 0x11
 2133 0981 01       		.byte	0x1
 2134 0982 09010000 		.4byte	0x109
 2135 0986 95090000 		.4byte	0x995
 2136 098a 12       		.uleb128 0x12
 2137 098b 73000000 		.4byte	0x73
 2138 098f 12       		.uleb128 0x12
 2139 0990 2A010000 		.4byte	0x12a
 2140 0994 00       		.byte	0x0
 2141 0995 06       		.uleb128 0x6
ARM GAS  C:\Users\DNIEL~1\AppData\Local\Temp\ccGM5WUW.s 			page 40


 2142 0996 04       		.byte	0x4
 2143 0997 80090000 		.4byte	0x980
 2144 099b 11       		.uleb128 0x11
 2145 099c 01       		.byte	0x1
 2146 099d 29000000 		.4byte	0x29
 2147 09a1 BA090000 		.4byte	0x9ba
 2148 09a5 12       		.uleb128 0x12
 2149 09a6 73000000 		.4byte	0x73
 2150 09aa 12       		.uleb128 0x12
 2151 09ab AF050000 		.4byte	0x5af
 2152 09af 12       		.uleb128 0x12
 2153 09b0 29000000 		.4byte	0x29
 2154 09b4 12       		.uleb128 0x12
 2155 09b5 2A010000 		.4byte	0x12a
 2156 09b9 00       		.byte	0x0
 2157 09ba 06       		.uleb128 0x6
 2158 09bb 04       		.byte	0x4
 2159 09bc 9B090000 		.4byte	0x99b
 2160 09c0 11       		.uleb128 0x11
 2161 09c1 01       		.byte	0x1
 2162 09c2 29000000 		.4byte	0x29
 2163 09c6 DF090000 		.4byte	0x9df
 2164 09ca 12       		.uleb128 0x12
 2165 09cb 73000000 		.4byte	0x73
 2166 09cf 12       		.uleb128 0x12
 2167 09d0 4A050000 		.4byte	0x54a
 2168 09d4 12       		.uleb128 0x12
 2169 09d5 29000000 		.4byte	0x29
 2170 09d9 12       		.uleb128 0x12
 2171 09da 2A010000 		.4byte	0x12a
 2172 09de 00       		.byte	0x0
 2173 09df 06       		.uleb128 0x6
 2174 09e0 04       		.byte	0x4
 2175 09e1 C0090000 		.4byte	0x9c0
 2176 09e5 0B       		.uleb128 0xb
 2177 09e6 04       		.byte	0x4
 2178 09e7 0F       		.byte	0xf
 2179 09e8 59       		.byte	0x59
 2180 09e9 FC090000 		.4byte	0x9fc
 2181 09ed 0A       		.uleb128 0xa
 2182 09ee 766D7400 		.ascii	"vmt\000"
 2183 09f2 0F       		.byte	0xf
 2184 09f3 5B       		.byte	0x5b
 2185 09f4 FC090000 		.4byte	0x9fc
 2186 09f8 02       		.byte	0x2
 2187 09f9 23       		.byte	0x23
 2188 09fa 00       		.uleb128 0x0
 2189 09fb 00       		.byte	0x0
 2190 09fc 06       		.uleb128 0x6
 2191 09fd 04       		.byte	0x4
 2192 09fe 020A0000 		.4byte	0xa02
 2193 0a02 07       		.uleb128 0x7
 2194 0a03 E3080000 		.4byte	0x8e3
 2195 0a07 02       		.uleb128 0x2
 2196 0a08 87060000 		.4byte	.LASF112
 2197 0a0c 0F       		.byte	0xf
 2198 0a0d 5D       		.byte	0x5d
ARM GAS  C:\Users\DNIEL~1\AppData\Local\Temp\ccGM5WUW.s 			page 41


 2199 0a0e E5090000 		.4byte	0x9e5
 2200 0a12 19       		.uleb128 0x19
 2201 0a13 01       		.byte	0x1
 2202 0a14 10       		.byte	0x10
 2203 0a15 6E       		.byte	0x6e
 2204 0a16 390A0000 		.4byte	0xa39
 2205 0a1a 1A       		.uleb128 0x1a
 2206 0a1b 30040000 		.4byte	.LASF113
 2207 0a1f 00       		.sleb128 0
 2208 0a20 1A       		.uleb128 0x1a
 2209 0a21 B9030000 		.4byte	.LASF114
 2210 0a25 01       		.sleb128 1
 2211 0a26 1A       		.uleb128 0x1a
 2212 0a27 74060000 		.4byte	.LASF115
 2213 0a2b 02       		.sleb128 2
 2214 0a2c 1A       		.uleb128 0x1a
 2215 0a2d A8010000 		.4byte	.LASF116
 2216 0a31 03       		.sleb128 3
 2217 0a32 1A       		.uleb128 0x1a
 2218 0a33 30030000 		.4byte	.LASF117
 2219 0a37 04       		.sleb128 4
 2220 0a38 00       		.byte	0x0
 2221 0a39 02       		.uleb128 0x2
 2222 0a3a AE030000 		.4byte	.LASF118
 2223 0a3e 10       		.byte	0x10
 2224 0a3f 74       		.byte	0x74
 2225 0a40 120A0000 		.4byte	0xa12
 2226 0a44 0B       		.uleb128 0xb
 2227 0a45 01       		.byte	0x1
 2228 0a46 11       		.byte	0x11
 2229 0a47 9A       		.byte	0x9a
 2230 0a48 800A0000 		.4byte	0xa80
 2231 0a4c 1B       		.uleb128 0x1b
 2232 0a4d 444C4300 		.ascii	"DLC\000"
 2233 0a51 11       		.byte	0x11
 2234 0a52 9B       		.byte	0x9b
 2235 0a53 94000000 		.4byte	0x94
 2236 0a57 01       		.byte	0x1
 2237 0a58 04       		.byte	0x4
 2238 0a59 04       		.byte	0x4
 2239 0a5a 02       		.byte	0x2
 2240 0a5b 23       		.byte	0x23
 2241 0a5c 00       		.uleb128 0x0
 2242 0a5d 1B       		.uleb128 0x1b
 2243 0a5e 52545200 		.ascii	"RTR\000"
 2244 0a62 11       		.byte	0x11
 2245 0a63 9C       		.byte	0x9c
 2246 0a64 94000000 		.4byte	0x94
 2247 0a68 01       		.byte	0x1
 2248 0a69 01       		.byte	0x1
 2249 0a6a 03       		.byte	0x3
 2250 0a6b 02       		.byte	0x2
 2251 0a6c 23       		.byte	0x23
 2252 0a6d 00       		.uleb128 0x0
 2253 0a6e 1B       		.uleb128 0x1b
 2254 0a6f 49444500 		.ascii	"IDE\000"
 2255 0a73 11       		.byte	0x11
ARM GAS  C:\Users\DNIEL~1\AppData\Local\Temp\ccGM5WUW.s 			page 42


 2256 0a74 9D       		.byte	0x9d
 2257 0a75 94000000 		.4byte	0x94
 2258 0a79 01       		.byte	0x1
 2259 0a7a 01       		.byte	0x1
 2260 0a7b 02       		.byte	0x2
 2261 0a7c 02       		.byte	0x2
 2262 0a7d 23       		.byte	0x23
 2263 0a7e 00       		.uleb128 0x0
 2264 0a7f 00       		.byte	0x0
 2265 0a80 0B       		.uleb128 0xb
 2266 0a81 04       		.byte	0x4
 2267 0a82 11       		.byte	0x11
 2268 0a83 A0       		.byte	0xa0
 2269 0a84 9A0A0000 		.4byte	0xa9a
 2270 0a88 1B       		.uleb128 0x1b
 2271 0a89 53494400 		.ascii	"SID\000"
 2272 0a8d 11       		.byte	0x11
 2273 0a8e A1       		.byte	0xa1
 2274 0a8f B5000000 		.4byte	0xb5
 2275 0a93 04       		.byte	0x4
 2276 0a94 0B       		.byte	0xb
 2277 0a95 15       		.byte	0x15
 2278 0a96 02       		.byte	0x2
 2279 0a97 23       		.byte	0x23
 2280 0a98 00       		.uleb128 0x0
 2281 0a99 00       		.byte	0x0
 2282 0a9a 0B       		.uleb128 0xb
 2283 0a9b 04       		.byte	0x4
 2284 0a9c 11       		.byte	0x11
 2285 0a9d A3       		.byte	0xa3
 2286 0a9e B40A0000 		.4byte	0xab4
 2287 0aa2 1B       		.uleb128 0x1b
 2288 0aa3 45494400 		.ascii	"EID\000"
 2289 0aa7 11       		.byte	0x11
 2290 0aa8 A4       		.byte	0xa4
 2291 0aa9 B5000000 		.4byte	0xb5
 2292 0aad 04       		.byte	0x4
 2293 0aae 1D       		.byte	0x1d
 2294 0aaf 03       		.byte	0x3
 2295 0ab0 02       		.byte	0x2
 2296 0ab1 23       		.byte	0x23
 2297 0ab2 00       		.uleb128 0x0
 2298 0ab3 00       		.byte	0x0
 2299 0ab4 0F       		.uleb128 0xf
 2300 0ab5 04       		.byte	0x4
 2301 0ab6 11       		.byte	0x11
 2302 0ab7 9F       		.byte	0x9f
 2303 0ab8 C70A0000 		.4byte	0xac7
 2304 0abc 1C       		.uleb128 0x1c
 2305 0abd 800A0000 		.4byte	0xa80
 2306 0ac1 1C       		.uleb128 0x1c
 2307 0ac2 9A0A0000 		.4byte	0xa9a
 2308 0ac6 00       		.byte	0x0
 2309 0ac7 0F       		.uleb128 0xf
 2310 0ac8 08       		.byte	0x8
 2311 0ac9 11       		.byte	0x11
 2312 0aca A7       		.byte	0xa7
ARM GAS  C:\Users\DNIEL~1\AppData\Local\Temp\ccGM5WUW.s 			page 43


 2313 0acb F10A0000 		.4byte	0xaf1
 2314 0acf 10       		.uleb128 0x10
 2315 0ad0 92050000 		.4byte	.LASF119
 2316 0ad4 11       		.byte	0x11
 2317 0ad5 A8       		.byte	0xa8
 2318 0ad6 F10A0000 		.4byte	0xaf1
 2319 0ada 10       		.uleb128 0x10
 2320 0adb E3050000 		.4byte	.LASF120
 2321 0adf 11       		.byte	0x11
 2322 0ae0 A9       		.byte	0xa9
 2323 0ae1 010B0000 		.4byte	0xb01
 2324 0ae5 10       		.uleb128 0x10
 2325 0ae6 9E000000 		.4byte	.LASF121
 2326 0aea 11       		.byte	0x11
 2327 0aeb AA       		.byte	0xaa
 2328 0aec 38060000 		.4byte	0x638
 2329 0af0 00       		.byte	0x0
 2330 0af1 13       		.uleb128 0x13
 2331 0af2 94000000 		.4byte	0x94
 2332 0af6 010B0000 		.4byte	0xb01
 2333 0afa 14       		.uleb128 0x14
 2334 0afb 34000000 		.4byte	0x34
 2335 0aff 07       		.byte	0x7
 2336 0b00 00       		.byte	0x0
 2337 0b01 13       		.uleb128 0x13
 2338 0b02 9F000000 		.4byte	0x9f
 2339 0b06 110B0000 		.4byte	0xb11
 2340 0b0a 14       		.uleb128 0x14
 2341 0b0b 34000000 		.4byte	0x34
 2342 0b0f 03       		.byte	0x3
 2343 0b10 00       		.byte	0x0
 2344 0b11 0B       		.uleb128 0xb
 2345 0b12 10       		.byte	0x10
 2346 0b13 11       		.byte	0x11
 2347 0b14 99       		.byte	0x99
 2348 0b15 320B0000 		.4byte	0xb32
 2349 0b19 1D       		.uleb128 0x1d
 2350 0b1a 440A0000 		.4byte	0xa44
 2351 0b1e 02       		.byte	0x2
 2352 0b1f 23       		.byte	0x23
 2353 0b20 00       		.uleb128 0x0
 2354 0b21 1D       		.uleb128 0x1d
 2355 0b22 B40A0000 		.4byte	0xab4
 2356 0b26 02       		.byte	0x2
 2357 0b27 23       		.byte	0x23
 2358 0b28 04       		.uleb128 0x4
 2359 0b29 1D       		.uleb128 0x1d
 2360 0b2a C70A0000 		.4byte	0xac7
 2361 0b2e 02       		.byte	0x2
 2362 0b2f 23       		.byte	0x23
 2363 0b30 08       		.uleb128 0x8
 2364 0b31 00       		.byte	0x0
 2365 0b32 02       		.uleb128 0x2
 2366 0b33 54020000 		.4byte	.LASF122
 2367 0b37 11       		.byte	0x11
 2368 0b38 AC       		.byte	0xac
 2369 0b39 110B0000 		.4byte	0xb11
ARM GAS  C:\Users\DNIEL~1\AppData\Local\Temp\ccGM5WUW.s 			page 44


 2370 0b3d 0B       		.uleb128 0xb
 2371 0b3e 04       		.byte	0x4
 2372 0b3f 11       		.byte	0x11
 2373 0b40 B4       		.byte	0xb4
 2374 0b41 620B0000 		.4byte	0xb62
 2375 0b45 0A       		.uleb128 0xa
 2376 0b46 464D4900 		.ascii	"FMI\000"
 2377 0b4a 11       		.byte	0x11
 2378 0b4b B5       		.byte	0xb5
 2379 0b4c 94000000 		.4byte	0x94
 2380 0b50 02       		.byte	0x2
 2381 0b51 23       		.byte	0x23
 2382 0b52 00       		.uleb128 0x0
 2383 0b53 09       		.uleb128 0x9
 2384 0b54 D5010000 		.4byte	.LASF123
 2385 0b58 11       		.byte	0x11
 2386 0b59 B6       		.byte	0xb6
 2387 0b5a 9F000000 		.4byte	0x9f
 2388 0b5e 02       		.byte	0x2
 2389 0b5f 23       		.byte	0x23
 2390 0b60 02       		.uleb128 0x2
 2391 0b61 00       		.byte	0x0
 2392 0b62 0B       		.uleb128 0xb
 2393 0b63 01       		.byte	0x1
 2394 0b64 11       		.byte	0x11
 2395 0b65 B8       		.byte	0xb8
 2396 0b66 9E0B0000 		.4byte	0xb9e
 2397 0b6a 1B       		.uleb128 0x1b
 2398 0b6b 444C4300 		.ascii	"DLC\000"
 2399 0b6f 11       		.byte	0x11
 2400 0b70 B9       		.byte	0xb9
 2401 0b71 94000000 		.4byte	0x94
 2402 0b75 01       		.byte	0x1
 2403 0b76 04       		.byte	0x4
 2404 0b77 04       		.byte	0x4
 2405 0b78 02       		.byte	0x2
 2406 0b79 23       		.byte	0x23
 2407 0b7a 00       		.uleb128 0x0
 2408 0b7b 1B       		.uleb128 0x1b
 2409 0b7c 52545200 		.ascii	"RTR\000"
 2410 0b80 11       		.byte	0x11
 2411 0b81 BA       		.byte	0xba
 2412 0b82 94000000 		.4byte	0x94
 2413 0b86 01       		.byte	0x1
 2414 0b87 01       		.byte	0x1
 2415 0b88 03       		.byte	0x3
 2416 0b89 02       		.byte	0x2
 2417 0b8a 23       		.byte	0x23
 2418 0b8b 00       		.uleb128 0x0
 2419 0b8c 1B       		.uleb128 0x1b
 2420 0b8d 49444500 		.ascii	"IDE\000"
 2421 0b91 11       		.byte	0x11
 2422 0b92 BB       		.byte	0xbb
 2423 0b93 94000000 		.4byte	0x94
 2424 0b97 01       		.byte	0x1
 2425 0b98 01       		.byte	0x1
 2426 0b99 02       		.byte	0x2
ARM GAS  C:\Users\DNIEL~1\AppData\Local\Temp\ccGM5WUW.s 			page 45


 2427 0b9a 02       		.byte	0x2
 2428 0b9b 23       		.byte	0x23
 2429 0b9c 00       		.uleb128 0x0
 2430 0b9d 00       		.byte	0x0
 2431 0b9e 0B       		.uleb128 0xb
 2432 0b9f 04       		.byte	0x4
 2433 0ba0 11       		.byte	0x11
 2434 0ba1 BE       		.byte	0xbe
 2435 0ba2 B80B0000 		.4byte	0xbb8
 2436 0ba6 1B       		.uleb128 0x1b
 2437 0ba7 53494400 		.ascii	"SID\000"
 2438 0bab 11       		.byte	0x11
 2439 0bac BF       		.byte	0xbf
 2440 0bad B5000000 		.4byte	0xb5
 2441 0bb1 04       		.byte	0x4
 2442 0bb2 0B       		.byte	0xb
 2443 0bb3 15       		.byte	0x15
 2444 0bb4 02       		.byte	0x2
 2445 0bb5 23       		.byte	0x23
 2446 0bb6 00       		.uleb128 0x0
 2447 0bb7 00       		.byte	0x0
 2448 0bb8 0B       		.uleb128 0xb
 2449 0bb9 04       		.byte	0x4
 2450 0bba 11       		.byte	0x11
 2451 0bbb C1       		.byte	0xc1
 2452 0bbc D20B0000 		.4byte	0xbd2
 2453 0bc0 1B       		.uleb128 0x1b
 2454 0bc1 45494400 		.ascii	"EID\000"
 2455 0bc5 11       		.byte	0x11
 2456 0bc6 C2       		.byte	0xc2
 2457 0bc7 B5000000 		.4byte	0xb5
 2458 0bcb 04       		.byte	0x4
 2459 0bcc 1D       		.byte	0x1d
 2460 0bcd 03       		.byte	0x3
 2461 0bce 02       		.byte	0x2
 2462 0bcf 23       		.byte	0x23
 2463 0bd0 00       		.uleb128 0x0
 2464 0bd1 00       		.byte	0x0
 2465 0bd2 0F       		.uleb128 0xf
 2466 0bd3 04       		.byte	0x4
 2467 0bd4 11       		.byte	0x11
 2468 0bd5 BD       		.byte	0xbd
 2469 0bd6 E50B0000 		.4byte	0xbe5
 2470 0bda 1C       		.uleb128 0x1c
 2471 0bdb 9E0B0000 		.4byte	0xb9e
 2472 0bdf 1C       		.uleb128 0x1c
 2473 0be0 B80B0000 		.4byte	0xbb8
 2474 0be4 00       		.byte	0x0
 2475 0be5 0F       		.uleb128 0xf
 2476 0be6 08       		.byte	0x8
 2477 0be7 11       		.byte	0x11
 2478 0be8 C5       		.byte	0xc5
 2479 0be9 0F0C0000 		.4byte	0xc0f
 2480 0bed 10       		.uleb128 0x10
 2481 0bee 92050000 		.4byte	.LASF119
 2482 0bf2 11       		.byte	0x11
 2483 0bf3 C6       		.byte	0xc6
ARM GAS  C:\Users\DNIEL~1\AppData\Local\Temp\ccGM5WUW.s 			page 46


 2484 0bf4 F10A0000 		.4byte	0xaf1
 2485 0bf8 10       		.uleb128 0x10
 2486 0bf9 E3050000 		.4byte	.LASF120
 2487 0bfd 11       		.byte	0x11
 2488 0bfe C7       		.byte	0xc7
 2489 0bff 010B0000 		.4byte	0xb01
 2490 0c03 10       		.uleb128 0x10
 2491 0c04 9E000000 		.4byte	.LASF121
 2492 0c08 11       		.byte	0x11
 2493 0c09 C8       		.byte	0xc8
 2494 0c0a 38060000 		.4byte	0x638
 2495 0c0e 00       		.byte	0x0
 2496 0c0f 0B       		.uleb128 0xb
 2497 0c10 14       		.byte	0x14
 2498 0c11 11       		.byte	0x11
 2499 0c12 B3       		.byte	0xb3
 2500 0c13 380C0000 		.4byte	0xc38
 2501 0c17 1D       		.uleb128 0x1d
 2502 0c18 3D0B0000 		.4byte	0xb3d
 2503 0c1c 02       		.byte	0x2
 2504 0c1d 23       		.byte	0x23
 2505 0c1e 00       		.uleb128 0x0
 2506 0c1f 1D       		.uleb128 0x1d
 2507 0c20 620B0000 		.4byte	0xb62
 2508 0c24 02       		.byte	0x2
 2509 0c25 23       		.byte	0x23
 2510 0c26 04       		.uleb128 0x4
 2511 0c27 1D       		.uleb128 0x1d
 2512 0c28 D20B0000 		.4byte	0xbd2
 2513 0c2c 02       		.byte	0x2
 2514 0c2d 23       		.byte	0x23
 2515 0c2e 08       		.uleb128 0x8
 2516 0c2f 1D       		.uleb128 0x1d
 2517 0c30 E50B0000 		.4byte	0xbe5
 2518 0c34 02       		.byte	0x2
 2519 0c35 23       		.byte	0x23
 2520 0c36 0C       		.uleb128 0xc
 2521 0c37 00       		.byte	0x0
 2522 0c38 02       		.uleb128 0x2
 2523 0c39 20000000 		.4byte	.LASF124
 2524 0c3d 11       		.byte	0x11
 2525 0c3e CA       		.byte	0xca
 2526 0c3f 0F0C0000 		.4byte	0xc0f
 2527 0c43 0B       		.uleb128 0xb
 2528 0c44 08       		.byte	0x8
 2529 0c45 11       		.byte	0x11
 2530 0c46 F4       		.byte	0xf4
 2531 0c47 690C0000 		.4byte	0xc69
 2532 0c4b 0A       		.uleb128 0xa
 2533 0c4c 6D637200 		.ascii	"mcr\000"
 2534 0c50 11       		.byte	0x11
 2535 0c51 FA       		.byte	0xfa
 2536 0c52 B5000000 		.4byte	0xb5
 2537 0c56 02       		.byte	0x2
 2538 0c57 23       		.byte	0x23
 2539 0c58 00       		.uleb128 0x0
 2540 0c59 0D       		.uleb128 0xd
ARM GAS  C:\Users\DNIEL~1\AppData\Local\Temp\ccGM5WUW.s 			page 47


 2541 0c5a 62747200 		.ascii	"btr\000"
 2542 0c5e 11       		.byte	0x11
 2543 0c5f 0001     		.2byte	0x100
 2544 0c61 B5000000 		.4byte	0xb5
 2545 0c65 02       		.byte	0x2
 2546 0c66 23       		.byte	0x23
 2547 0c67 04       		.uleb128 0x4
 2548 0c68 00       		.byte	0x0
 2549 0c69 17       		.uleb128 0x17
 2550 0c6a 4E000000 		.4byte	.LASF125
 2551 0c6e 11       		.byte	0x11
 2552 0c6f 0101     		.2byte	0x101
 2553 0c71 430C0000 		.4byte	0xc43
 2554 0c75 15       		.uleb128 0x15
 2555 0c76 38       		.byte	0x38
 2556 0c77 11       		.byte	0x11
 2557 0c78 0601     		.2byte	0x106
 2558 0c7a 150D0000 		.4byte	0xd15
 2559 0c7e 16       		.uleb128 0x16
 2560 0c7f 28010000 		.4byte	.LASF126
 2561 0c83 11       		.byte	0x11
 2562 0c84 0A01     		.2byte	0x10a
 2563 0c86 390A0000 		.4byte	0xa39
 2564 0c8a 02       		.byte	0x2
 2565 0c8b 23       		.byte	0x23
 2566 0c8c 00       		.uleb128 0x0
 2567 0c8d 16       		.uleb128 0x16
 2568 0c8e 6A050000 		.4byte	.LASF127
 2569 0c92 11       		.byte	0x11
 2570 0c93 0E01     		.2byte	0x10e
 2571 0c95 150D0000 		.4byte	0xd15
 2572 0c99 02       		.byte	0x2
 2573 0c9a 23       		.byte	0x23
 2574 0c9b 04       		.uleb128 0x4
 2575 0c9c 16       		.uleb128 0x16
 2576 0c9d 18010000 		.4byte	.LASF128
 2577 0ca1 11       		.byte	0x11
 2578 0ca2 1201     		.2byte	0x112
 2579 0ca4 2A040000 		.4byte	0x42a
 2580 0ca8 02       		.byte	0x2
 2581 0ca9 23       		.byte	0x23
 2582 0caa 08       		.uleb128 0x8
 2583 0cab 16       		.uleb128 0x16
 2584 0cac 34060000 		.4byte	.LASF129
 2585 0cb0 11       		.byte	0x11
 2586 0cb1 1601     		.2byte	0x116
 2587 0cb3 2A040000 		.4byte	0x42a
 2588 0cb7 02       		.byte	0x2
 2589 0cb8 23       		.byte	0x23
 2590 0cb9 14       		.uleb128 0x14
 2591 0cba 16       		.uleb128 0x16
 2592 0cbb B7010000 		.4byte	.LASF130
 2593 0cbf 11       		.byte	0x11
 2594 0cc0 2301     		.2byte	0x123
 2595 0cc2 EE040000 		.4byte	0x4ee
 2596 0cc6 02       		.byte	0x2
 2597 0cc7 23       		.byte	0x23
ARM GAS  C:\Users\DNIEL~1\AppData\Local\Temp\ccGM5WUW.s 			page 48


 2598 0cc8 20       		.uleb128 0x20
 2599 0cc9 16       		.uleb128 0x16
 2600 0cca 36050000 		.4byte	.LASF131
 2601 0cce 11       		.byte	0x11
 2602 0ccf 2A01     		.2byte	0x12a
 2603 0cd1 EE040000 		.4byte	0x4ee
 2604 0cd5 02       		.byte	0x2
 2605 0cd6 23       		.byte	0x23
 2606 0cd7 24       		.uleb128 0x24
 2607 0cd8 16       		.uleb128 0x16
 2608 0cd9 C8030000 		.4byte	.LASF132
 2609 0cdd 11       		.byte	0x11
 2610 0cde 3001     		.2byte	0x130
 2611 0ce0 EE040000 		.4byte	0x4ee
 2612 0ce4 02       		.byte	0x2
 2613 0ce5 23       		.byte	0x23
 2614 0ce6 28       		.uleb128 0x28
 2615 0ce7 16       		.uleb128 0x16
 2616 0ce8 A2030000 		.4byte	.LASF133
 2617 0cec 11       		.byte	0x11
 2618 0ced 3501     		.2byte	0x135
 2619 0cef EE040000 		.4byte	0x4ee
 2620 0cf3 02       		.byte	0x2
 2621 0cf4 23       		.byte	0x23
 2622 0cf5 2C       		.uleb128 0x2c
 2623 0cf6 16       		.uleb128 0x16
 2624 0cf7 5F040000 		.4byte	.LASF134
 2625 0cfb 11       		.byte	0x11
 2626 0cfc 3901     		.2byte	0x139
 2627 0cfe EE040000 		.4byte	0x4ee
 2628 0d02 02       		.byte	0x2
 2629 0d03 23       		.byte	0x23
 2630 0d04 30       		.uleb128 0x30
 2631 0d05 0D       		.uleb128 0xd
 2632 0d06 63616E00 		.ascii	"can\000"
 2633 0d0a 11       		.byte	0x11
 2634 0d0b 3F01     		.2byte	0x13f
 2635 0d0d 200D0000 		.4byte	0xd20
 2636 0d11 02       		.byte	0x2
 2637 0d12 23       		.byte	0x23
 2638 0d13 34       		.uleb128 0x34
 2639 0d14 00       		.byte	0x0
 2640 0d15 06       		.uleb128 0x6
 2641 0d16 04       		.byte	0x4
 2642 0d17 1B0D0000 		.4byte	0xd1b
 2643 0d1b 07       		.uleb128 0x7
 2644 0d1c 690C0000 		.4byte	0xc69
 2645 0d20 06       		.uleb128 0x6
 2646 0d21 04       		.byte	0x4
 2647 0d22 D7080000 		.4byte	0x8d7
 2648 0d26 17       		.uleb128 0x17
 2649 0d27 5E030000 		.4byte	.LASF135
 2650 0d2b 11       		.byte	0x11
 2651 0d2c 4001     		.2byte	0x140
 2652 0d2e 750C0000 		.4byte	0xc75
 2653 0d32 02       		.uleb128 0x2
 2654 0d33 4F030000 		.4byte	.LASF136
ARM GAS  C:\Users\DNIEL~1\AppData\Local\Temp\ccGM5WUW.s 			page 49


 2655 0d37 12       		.byte	0x12
 2656 0d38 28       		.byte	0x28
 2657 0d39 3D0D0000 		.4byte	0xd3d
 2658 0d3d 08       		.uleb128 0x8
 2659 0d3e 5B010000 		.4byte	.LASF137
 2660 0d42 04       		.byte	0x4
 2661 0d43 13       		.byte	0x13
 2662 0d44 00       		.byte	0x0
 2663 0d45 570D0000 		.4byte	0xd57
 2664 0d49 1E       		.uleb128 0x1e
 2665 0d4a A5050000 		.4byte	.LASF138
 2666 0d4e 73000000 		.4byte	0x73
 2667 0d52 02       		.byte	0x2
 2668 0d53 23       		.byte	0x23
 2669 0d54 00       		.uleb128 0x0
 2670 0d55 01       		.byte	0x1
 2671 0d56 00       		.byte	0x0
 2672 0d57 02       		.uleb128 0x2
 2673 0d58 46000000 		.4byte	.LASF139
 2674 0d5c 12       		.byte	0x12
 2675 0d5d 66       		.byte	0x66
 2676 0d5e 320D0000 		.4byte	0xd32
 2677 0d62 03       		.uleb128 0x3
 2678 0d63 08       		.byte	0x8
 2679 0d64 04       		.byte	0x4
 2680 0d65 91010000 		.4byte	.LASF140
 2681 0d69 03       		.uleb128 0x3
 2682 0d6a 04       		.byte	0x4
 2683 0d6b 04       		.byte	0x4
 2684 0d6c D4030000 		.4byte	.LASF141
 2685 0d70 03       		.uleb128 0x3
 2686 0d71 08       		.byte	0x8
 2687 0d72 04       		.byte	0x4
 2688 0d73 24030000 		.4byte	.LASF142
 2689 0d77 1F       		.uleb128 0x1f
 2690 0d78 20060000 		.4byte	.LASF149
 2691 0d7c 01       		.byte	0x1
 2692 0d7d 02       		.byte	0x2
 2693 0d7e 28       		.byte	0x28
 2694 0d7f A80D0000 		.4byte	0xda8
 2695 0d83 1A       		.uleb128 0x1a
 2696 0d84 E9040000 		.4byte	.LASF143
 2697 0d88 00       		.sleb128 0
 2698 0d89 1A       		.uleb128 0x1a
 2699 0d8a 3A060000 		.4byte	.LASF144
 2700 0d8e 01       		.sleb128 1
 2701 0d8f 1A       		.uleb128 0x1a
 2702 0d90 3B000000 		.4byte	.LASF145
 2703 0d94 02       		.sleb128 2
 2704 0d95 1A       		.uleb128 0x1a
 2705 0d96 60050000 		.4byte	.LASF146
 2706 0d9a 03       		.sleb128 3
 2707 0d9b 1A       		.uleb128 0x1a
 2708 0d9c 48020000 		.4byte	.LASF147
 2709 0da0 04       		.sleb128 4
 2710 0da1 1A       		.uleb128 0x1a
 2711 0da2 41030000 		.4byte	.LASF148
ARM GAS  C:\Users\DNIEL~1\AppData\Local\Temp\ccGM5WUW.s 			page 50


 2712 0da6 05       		.sleb128 5
 2713 0da7 00       		.byte	0x0
 2714 0da8 1F       		.uleb128 0x1f
 2715 0da9 75010000 		.4byte	.LASF150
 2716 0dad 01       		.byte	0x1
 2717 0dae 02       		.byte	0x2
 2718 0daf 32       		.byte	0x32
 2719 0db0 C10D0000 		.4byte	0xdc1
 2720 0db4 1A       		.uleb128 0x1a
 2721 0db5 0F030000 		.4byte	.LASF151
 2722 0db9 00       		.sleb128 0
 2723 0dba 1A       		.uleb128 0x1a
 2724 0dbb 02010000 		.4byte	.LASF152
 2725 0dbf 01       		.sleb128 1
 2726 0dc0 00       		.byte	0x0
 2727 0dc1 20       		.uleb128 0x20
 2728 0dc2 B5060000 		.4byte	.LASF172
 2729 0dc6 01       		.byte	0x1
 2730 0dc7 45       		.byte	0x45
 2731 0dc8 01       		.byte	0x1
 2732 0dc9 00000000 		.4byte	.LFB118
 2733 0dcd 1E000000 		.4byte	.LFE118
 2734 0dd1 00000000 		.4byte	.LLST0
 2735 0dd5 050E0000 		.4byte	0xe05
 2736 0dd9 21       		.uleb128 0x21
 2737 0dda 63687000 		.ascii	"chp\000"
 2738 0dde 01       		.byte	0x1
 2739 0ddf 45       		.byte	0x45
 2740 0de0 050E0000 		.4byte	0xe05
 2741 0de4 38000000 		.4byte	.LLST1
 2742 0de8 22       		.uleb128 0x22
 2743 0de9 666D7400 		.ascii	"fmt\000"
 2744 0ded 01       		.byte	0x1
 2745 0dee 45       		.byte	0x45
 2746 0def 89000000 		.4byte	0x89
 2747 0df3 02       		.byte	0x2
 2748 0df4 91       		.byte	0x91
 2749 0df5 74       		.sleb128 -12
 2750 0df6 23       		.uleb128 0x23
 2751 0df7 24       		.uleb128 0x24
 2752 0df8 617000   		.ascii	"ap\000"
 2753 0dfb 01       		.byte	0x1
 2754 0dfc 46       		.byte	0x46
 2755 0dfd 570D0000 		.4byte	0xd57
 2756 0e01 02       		.byte	0x2
 2757 0e02 91       		.byte	0x91
 2758 0e03 6C       		.sleb128 -20
 2759 0e04 00       		.byte	0x0
 2760 0e05 06       		.uleb128 0x6
 2761 0e06 04       		.byte	0x4
 2762 0e07 1D060000 		.4byte	0x61d
 2763 0e0b 25       		.uleb128 0x25
 2764 0e0c E8020000 		.4byte	.LASF153
 2765 0e10 02       		.byte	0x2
 2766 0e11 45       		.byte	0x45
 2767 0e12 01       		.byte	0x1
 2768 0e13 09010000 		.4byte	0x109
ARM GAS  C:\Users\DNIEL~1\AppData\Local\Temp\ccGM5WUW.s 			page 51


 2769 0e17 00000000 		.4byte	.LFB119
 2770 0e1b E4000000 		.4byte	.LFE119
 2771 0e1f 4B000000 		.4byte	.LLST2
 2772 0e23 420E0000 		.4byte	0xe42
 2773 0e27 21       		.uleb128 0x21
 2774 0e28 7000     		.ascii	"p\000"
 2775 0e2a 02       		.byte	0x2
 2776 0e2b 45       		.byte	0x45
 2777 0e2c 73000000 		.4byte	0x73
 2778 0e30 77000000 		.4byte	.LLST3
 2779 0e34 24       		.uleb128 0x24
 2780 0e35 656C00   		.ascii	"el\000"
 2781 0e38 02       		.byte	0x2
 2782 0e39 46       		.byte	0x46
 2783 0e3a 7D040000 		.4byte	0x47d
 2784 0e3e 02       		.byte	0x2
 2785 0e3f 91       		.byte	0x91
 2786 0e40 50       		.sleb128 -48
 2787 0e41 00       		.byte	0x0
 2788 0e42 25       		.uleb128 0x25
 2789 0e43 FF040000 		.4byte	.LASF154
 2790 0e47 02       		.byte	0x2
 2791 0e48 94       		.byte	0x94
 2792 0e49 01       		.byte	0x1
 2793 0e4a 09010000 		.4byte	0x109
 2794 0e4e 00000000 		.4byte	.LFB120
 2795 0e52 74000000 		.4byte	.LFE120
 2796 0e56 8A000000 		.4byte	.LLST4
 2797 0e5a 850E0000 		.4byte	0xe85
 2798 0e5e 21       		.uleb128 0x21
 2799 0e5f 7000     		.ascii	"p\000"
 2800 0e61 02       		.byte	0x2
 2801 0e62 94       		.byte	0x94
 2802 0e63 73000000 		.4byte	0x73
 2803 0e67 AA000000 		.4byte	.LLST5
 2804 0e6b 26       		.uleb128 0x26
 2805 0e6c 14000000 		.4byte	.LBB2
 2806 0e70 54000000 		.4byte	.LBE2
 2807 0e74 27       		.uleb128 0x27
 2808 0e75 6A060000 		.4byte	.LASF155
 2809 0e79 02       		.byte	0x2
 2810 0e7a 9A       		.byte	0x9a
 2811 0e7b 57000000 		.4byte	0x57
 2812 0e7f BD000000 		.4byte	.LLST6
 2813 0e83 00       		.byte	0x0
 2814 0e84 00       		.byte	0x0
 2815 0e85 28       		.uleb128 0x28
 2816 0e86 01       		.byte	0x1
 2817 0e87 DA030000 		.4byte	.LASF173
 2818 0e8b 02       		.byte	0x2
 2819 0e8c B4       		.byte	0xb4
 2820 0e8d 01       		.byte	0x1
 2821 0e8e 00000000 		.4byte	.LFB121
 2822 0e92 70000000 		.4byte	.LFE121
 2823 0e96 DD000000 		.4byte	.LLST7
 2824 0e9a 29       		.uleb128 0x29
 2825 0e9b 01       		.byte	0x1
ARM GAS  C:\Users\DNIEL~1\AppData\Local\Temp\ccGM5WUW.s 			page 52


 2826 0e9c 06000000 		.4byte	.LASF174
 2827 0ea0 02       		.byte	0x2
 2828 0ea1 C0       		.byte	0xc0
 2829 0ea2 01       		.byte	0x1
 2830 0ea3 00000000 		.4byte	.LFB122
 2831 0ea7 4C010000 		.4byte	.LFE122
 2832 0eab 09010000 		.4byte	.LLST8
 2833 0eaf E10E0000 		.4byte	0xee1
 2834 0eb3 21       		.uleb128 0x21
 2835 0eb4 63687000 		.ascii	"chp\000"
 2836 0eb8 02       		.byte	0x2
 2837 0eb9 C0       		.byte	0xc0
 2838 0eba 050E0000 		.4byte	0xe05
 2839 0ebe 29010000 		.4byte	.LLST9
 2840 0ec2 2A       		.uleb128 0x2a
 2841 0ec3 65060000 		.4byte	.LASF156
 2842 0ec7 02       		.byte	0x2
 2843 0ec8 C0       		.byte	0xc0
 2844 0ec9 57000000 		.4byte	0x57
 2845 0ecd 47010000 		.4byte	.LLST10
 2846 0ed1 2A       		.uleb128 0x2a
 2847 0ed2 98060000 		.4byte	.LASF157
 2848 0ed6 02       		.byte	0x2
 2849 0ed7 C0       		.byte	0xc0
 2850 0ed8 E10E0000 		.4byte	0xee1
 2851 0edc 5A010000 		.4byte	.LLST11
 2852 0ee0 00       		.byte	0x0
 2853 0ee1 06       		.uleb128 0x6
 2854 0ee2 04       		.byte	0x4
 2855 0ee3 7C000000 		.4byte	0x7c
 2856 0ee7 2B       		.uleb128 0x2b
 2857 0ee8 E1010000 		.4byte	.LASF158
 2858 0eec 09       		.byte	0x9
 2859 0eed 6F       		.byte	0x6f
 2860 0eee F6030000 		.4byte	0x3f6
 2861 0ef2 01       		.byte	0x1
 2862 0ef3 01       		.byte	0x1
 2863 0ef4 2C       		.uleb128 0x2c
 2864 0ef5 78040000 		.4byte	.LASF159
 2865 0ef9 14       		.byte	0x14
 2866 0efa 9806     		.2byte	0x698
 2867 0efc 48060000 		.4byte	0x648
 2868 0f00 01       		.byte	0x1
 2869 0f01 01       		.byte	0x1
 2870 0f02 2C       		.uleb128 0x2c
 2871 0f03 20020000 		.4byte	.LASF160
 2872 0f07 11       		.byte	0x11
 2873 0f08 4B01     		.2byte	0x14b
 2874 0f0a 260D0000 		.4byte	0xd26
 2875 0f0e 01       		.byte	0x1
 2876 0f0f 01       		.byte	0x1
 2877 0f10 2B       		.uleb128 0x2b
 2878 0f11 F3040000 		.4byte	.LASF161
 2879 0f15 02       		.byte	0x2
 2880 0f16 30       		.byte	0x30
 2881 0f17 770D0000 		.4byte	0xd77
 2882 0f1b 01       		.byte	0x1
ARM GAS  C:\Users\DNIEL~1\AppData\Local\Temp\ccGM5WUW.s 			page 53


 2883 0f1c 01       		.byte	0x1
 2884 0f1d 2D       		.uleb128 0x2d
 2885 0f1e 69000000 		.4byte	.LASF162
 2886 0f22 02       		.byte	0x2
 2887 0f23 38       		.byte	0x38
 2888 0f24 320B0000 		.4byte	0xb32
 2889 0f28 05       		.byte	0x5
 2890 0f29 03       		.byte	0x3
 2891 0f2a 00000000 		.4byte	txmsg
 2892 0f2e 2D       		.uleb128 0x2d
 2893 0f2f 00000000 		.4byte	.LASF163
 2894 0f33 02       		.byte	0x2
 2895 0f34 39       		.byte	0x39
 2896 0f35 380C0000 		.4byte	0xc38
 2897 0f39 05       		.byte	0x5
 2898 0f3a 03       		.byte	0x3
 2899 0f3b 00000000 		.4byte	rxmsg
 2900 0f3f 2D       		.uleb128 0x2d
 2901 0f40 3A030000 		.4byte	.LASF164
 2902 0f44 02       		.byte	0x2
 2903 0f45 3B       		.byte	0x3b
 2904 0f46 1B0D0000 		.4byte	0xd1b
 2905 0f4a 05       		.byte	0x5
 2906 0f4b 03       		.byte	0x3
 2907 0f4c 00000000 		.4byte	cancfg
 2908 0f50 24       		.uleb128 0x24
 2909 0f51 696400   		.ascii	"id\000"
 2910 0f54 02       		.byte	0x2
 2911 0f55 41       		.byte	0x41
 2912 0f56 9F000000 		.4byte	0x9f
 2913 0f5a 05       		.byte	0x5
 2914 0f5b 03       		.byte	0x3
 2915 0f5c 00000000 		.4byte	id
 2916 0f60 2D       		.uleb128 0x2d
 2917 0f61 6C010000 		.4byte	.LASF165
 2918 0f65 02       		.byte	0x2
 2919 0f66 42       		.byte	0x42
 2920 0f67 9F000000 		.4byte	0x9f
 2921 0f6b 05       		.byte	0x5
 2922 0f6c 03       		.byte	0x3
 2923 0f6d 00000000 		.4byte	messages
 2924 0f71 13       		.uleb128 0x13
 2925 0f72 D3020000 		.4byte	0x2d3
 2926 0f76 810F0000 		.4byte	0xf81
 2927 0f7a 14       		.uleb128 0x14
 2928 0f7b 34000000 		.4byte	0x34
 2929 0f7f 39       		.byte	0x39
 2930 0f80 00       		.byte	0x0
 2931 0f81 2D       		.uleb128 0x2d
 2932 0f82 EF020000 		.4byte	.LASF166
 2933 0f86 02       		.byte	0x2
 2934 0f87 44       		.byte	0x44
 2935 0f88 710F0000 		.4byte	0xf71
 2936 0f8c 05       		.byte	0x5
 2937 0f8d 03       		.byte	0x3
 2938 0f8e 00000000 		.4byte	can_rx_wa
 2939 0f92 2D       		.uleb128 0x2d
ARM GAS  C:\Users\DNIEL~1\AppData\Local\Temp\ccGM5WUW.s 			page 54


 2940 0f93 06050000 		.4byte	.LASF167
 2941 0f97 02       		.byte	0x2
 2942 0f98 93       		.byte	0x93
 2943 0f99 710F0000 		.4byte	0xf71
 2944 0f9d 05       		.byte	0x5
 2945 0f9e 03       		.byte	0x3
 2946 0f9f 00000000 		.4byte	can_tx_wa
 2947 0fa3 2B       		.uleb128 0x2b
 2948 0fa4 E1010000 		.4byte	.LASF158
 2949 0fa8 09       		.byte	0x9
 2950 0fa9 6F       		.byte	0x6f
 2951 0faa F6030000 		.4byte	0x3f6
 2952 0fae 01       		.byte	0x1
 2953 0faf 01       		.byte	0x1
 2954 0fb0 2C       		.uleb128 0x2c
 2955 0fb1 78040000 		.4byte	.LASF159
 2956 0fb5 14       		.byte	0x14
 2957 0fb6 9806     		.2byte	0x698
 2958 0fb8 48060000 		.4byte	0x648
 2959 0fbc 01       		.byte	0x1
 2960 0fbd 01       		.byte	0x1
 2961 0fbe 2C       		.uleb128 0x2c
 2962 0fbf 20020000 		.4byte	.LASF160
 2963 0fc3 11       		.byte	0x11
 2964 0fc4 4B01     		.2byte	0x14b
 2965 0fc6 260D0000 		.4byte	0xd26
 2966 0fca 01       		.byte	0x1
 2967 0fcb 01       		.byte	0x1
 2968 0fcc 2E       		.uleb128 0x2e
 2969 0fcd F3040000 		.4byte	.LASF161
 2970 0fd1 02       		.byte	0x2
 2971 0fd2 30       		.byte	0x30
 2972 0fd3 770D0000 		.4byte	0xd77
 2973 0fd7 01       		.byte	0x1
 2974 0fd8 05       		.byte	0x5
 2975 0fd9 03       		.byte	0x3
 2976 0fda 00000000 		.4byte	can_rxstate
 2977 0fde 2E       		.uleb128 0x2e
 2978 0fdf 31020000 		.4byte	.LASF168
 2979 0fe3 02       		.byte	0x2
 2980 0fe4 36       		.byte	0x36
 2981 0fe5 A80D0000 		.4byte	0xda8
 2982 0fe9 01       		.byte	0x1
 2983 0fea 05       		.byte	0x5
 2984 0feb 03       		.byte	0x3
 2985 0fec 00000000 		.4byte	can_txstate
 2986 0ff0 00       		.byte	0x0
 2987              		.section	.debug_abbrev
 2988 0000 01       		.uleb128 0x1
 2989 0001 11       		.uleb128 0x11
 2990 0002 01       		.byte	0x1
 2991 0003 25       		.uleb128 0x25
 2992 0004 0E       		.uleb128 0xe
 2993 0005 13       		.uleb128 0x13
 2994 0006 0B       		.uleb128 0xb
 2995 0007 03       		.uleb128 0x3
 2996 0008 0E       		.uleb128 0xe
ARM GAS  C:\Users\DNIEL~1\AppData\Local\Temp\ccGM5WUW.s 			page 55


 2997 0009 1B       		.uleb128 0x1b
 2998 000a 0E       		.uleb128 0xe
 2999 000b 11       		.uleb128 0x11
 3000 000c 01       		.uleb128 0x1
 3001 000d 52       		.uleb128 0x52
 3002 000e 01       		.uleb128 0x1
 3003 000f 55       		.uleb128 0x55
 3004 0010 06       		.uleb128 0x6
 3005 0011 10       		.uleb128 0x10
 3006 0012 06       		.uleb128 0x6
 3007 0013 00       		.byte	0x0
 3008 0014 00       		.byte	0x0
 3009 0015 02       		.uleb128 0x2
 3010 0016 16       		.uleb128 0x16
 3011 0017 00       		.byte	0x0
 3012 0018 03       		.uleb128 0x3
 3013 0019 0E       		.uleb128 0xe
 3014 001a 3A       		.uleb128 0x3a
 3015 001b 0B       		.uleb128 0xb
 3016 001c 3B       		.uleb128 0x3b
 3017 001d 0B       		.uleb128 0xb
 3018 001e 49       		.uleb128 0x49
 3019 001f 13       		.uleb128 0x13
 3020 0020 00       		.byte	0x0
 3021 0021 00       		.byte	0x0
 3022 0022 03       		.uleb128 0x3
 3023 0023 24       		.uleb128 0x24
 3024 0024 00       		.byte	0x0
 3025 0025 0B       		.uleb128 0xb
 3026 0026 0B       		.uleb128 0xb
 3027 0027 3E       		.uleb128 0x3e
 3028 0028 0B       		.uleb128 0xb
 3029 0029 03       		.uleb128 0x3
 3030 002a 0E       		.uleb128 0xe
 3031 002b 00       		.byte	0x0
 3032 002c 00       		.byte	0x0
 3033 002d 04       		.uleb128 0x4
 3034 002e 24       		.uleb128 0x24
 3035 002f 00       		.byte	0x0
 3036 0030 0B       		.uleb128 0xb
 3037 0031 0B       		.uleb128 0xb
 3038 0032 3E       		.uleb128 0x3e
 3039 0033 0B       		.uleb128 0xb
 3040 0034 03       		.uleb128 0x3
 3041 0035 08       		.uleb128 0x8
 3042 0036 00       		.byte	0x0
 3043 0037 00       		.byte	0x0
 3044 0038 05       		.uleb128 0x5
 3045 0039 0F       		.uleb128 0xf
 3046 003a 00       		.byte	0x0
 3047 003b 0B       		.uleb128 0xb
 3048 003c 0B       		.uleb128 0xb
 3049 003d 00       		.byte	0x0
 3050 003e 00       		.byte	0x0
 3051 003f 06       		.uleb128 0x6
 3052 0040 0F       		.uleb128 0xf
 3053 0041 00       		.byte	0x0
ARM GAS  C:\Users\DNIEL~1\AppData\Local\Temp\ccGM5WUW.s 			page 56


 3054 0042 0B       		.uleb128 0xb
 3055 0043 0B       		.uleb128 0xb
 3056 0044 49       		.uleb128 0x49
 3057 0045 13       		.uleb128 0x13
 3058 0046 00       		.byte	0x0
 3059 0047 00       		.byte	0x0
 3060 0048 07       		.uleb128 0x7
 3061 0049 26       		.uleb128 0x26
 3062 004a 00       		.byte	0x0
 3063 004b 49       		.uleb128 0x49
 3064 004c 13       		.uleb128 0x13
 3065 004d 00       		.byte	0x0
 3066 004e 00       		.byte	0x0
 3067 004f 08       		.uleb128 0x8
 3068 0050 13       		.uleb128 0x13
 3069 0051 01       		.byte	0x1
 3070 0052 03       		.uleb128 0x3
 3071 0053 0E       		.uleb128 0xe
 3072 0054 0B       		.uleb128 0xb
 3073 0055 0B       		.uleb128 0xb
 3074 0056 3A       		.uleb128 0x3a
 3075 0057 0B       		.uleb128 0xb
 3076 0058 3B       		.uleb128 0x3b
 3077 0059 0B       		.uleb128 0xb
 3078 005a 01       		.uleb128 0x1
 3079 005b 13       		.uleb128 0x13
 3080 005c 00       		.byte	0x0
 3081 005d 00       		.byte	0x0
 3082 005e 09       		.uleb128 0x9
 3083 005f 0D       		.uleb128 0xd
 3084 0060 00       		.byte	0x0
 3085 0061 03       		.uleb128 0x3
 3086 0062 0E       		.uleb128 0xe
 3087 0063 3A       		.uleb128 0x3a
 3088 0064 0B       		.uleb128 0xb
 3089 0065 3B       		.uleb128 0x3b
 3090 0066 0B       		.uleb128 0xb
 3091 0067 49       		.uleb128 0x49
 3092 0068 13       		.uleb128 0x13
 3093 0069 38       		.uleb128 0x38
 3094 006a 0A       		.uleb128 0xa
 3095 006b 00       		.byte	0x0
 3096 006c 00       		.byte	0x0
 3097 006d 0A       		.uleb128 0xa
 3098 006e 0D       		.uleb128 0xd
 3099 006f 00       		.byte	0x0
 3100 0070 03       		.uleb128 0x3
 3101 0071 08       		.uleb128 0x8
 3102 0072 3A       		.uleb128 0x3a
 3103 0073 0B       		.uleb128 0xb
 3104 0074 3B       		.uleb128 0x3b
 3105 0075 0B       		.uleb128 0xb
 3106 0076 49       		.uleb128 0x49
 3107 0077 13       		.uleb128 0x13
 3108 0078 38       		.uleb128 0x38
 3109 0079 0A       		.uleb128 0xa
 3110 007a 00       		.byte	0x0
ARM GAS  C:\Users\DNIEL~1\AppData\Local\Temp\ccGM5WUW.s 			page 57


 3111 007b 00       		.byte	0x0
 3112 007c 0B       		.uleb128 0xb
 3113 007d 13       		.uleb128 0x13
 3114 007e 01       		.byte	0x1
 3115 007f 0B       		.uleb128 0xb
 3116 0080 0B       		.uleb128 0xb
 3117 0081 3A       		.uleb128 0x3a
 3118 0082 0B       		.uleb128 0xb
 3119 0083 3B       		.uleb128 0x3b
 3120 0084 0B       		.uleb128 0xb
 3121 0085 01       		.uleb128 0x1
 3122 0086 13       		.uleb128 0x13
 3123 0087 00       		.byte	0x0
 3124 0088 00       		.byte	0x0
 3125 0089 0C       		.uleb128 0xc
 3126 008a 13       		.uleb128 0x13
 3127 008b 01       		.byte	0x1
 3128 008c 03       		.uleb128 0x3
 3129 008d 0E       		.uleb128 0xe
 3130 008e 0B       		.uleb128 0xb
 3131 008f 0B       		.uleb128 0xb
 3132 0090 3A       		.uleb128 0x3a
 3133 0091 0B       		.uleb128 0xb
 3134 0092 3B       		.uleb128 0x3b
 3135 0093 05       		.uleb128 0x5
 3136 0094 01       		.uleb128 0x1
 3137 0095 13       		.uleb128 0x13
 3138 0096 00       		.byte	0x0
 3139 0097 00       		.byte	0x0
 3140 0098 0D       		.uleb128 0xd
 3141 0099 0D       		.uleb128 0xd
 3142 009a 00       		.byte	0x0
 3143 009b 03       		.uleb128 0x3
 3144 009c 08       		.uleb128 0x8
 3145 009d 3A       		.uleb128 0x3a
 3146 009e 0B       		.uleb128 0xb
 3147 009f 3B       		.uleb128 0x3b
 3148 00a0 05       		.uleb128 0x5
 3149 00a1 49       		.uleb128 0x49
 3150 00a2 13       		.uleb128 0x13
 3151 00a3 38       		.uleb128 0x38
 3152 00a4 0A       		.uleb128 0xa
 3153 00a5 00       		.byte	0x0
 3154 00a6 00       		.byte	0x0
 3155 00a7 0E       		.uleb128 0xe
 3156 00a8 35       		.uleb128 0x35
 3157 00a9 00       		.byte	0x0
 3158 00aa 49       		.uleb128 0x49
 3159 00ab 13       		.uleb128 0x13
 3160 00ac 00       		.byte	0x0
 3161 00ad 00       		.byte	0x0
 3162 00ae 0F       		.uleb128 0xf
 3163 00af 17       		.uleb128 0x17
 3164 00b0 01       		.byte	0x1
 3165 00b1 0B       		.uleb128 0xb
 3166 00b2 0B       		.uleb128 0xb
 3167 00b3 3A       		.uleb128 0x3a
ARM GAS  C:\Users\DNIEL~1\AppData\Local\Temp\ccGM5WUW.s 			page 58


 3168 00b4 0B       		.uleb128 0xb
 3169 00b5 3B       		.uleb128 0x3b
 3170 00b6 0B       		.uleb128 0xb
 3171 00b7 01       		.uleb128 0x1
 3172 00b8 13       		.uleb128 0x13
 3173 00b9 00       		.byte	0x0
 3174 00ba 00       		.byte	0x0
 3175 00bb 10       		.uleb128 0x10
 3176 00bc 0D       		.uleb128 0xd
 3177 00bd 00       		.byte	0x0
 3178 00be 03       		.uleb128 0x3
 3179 00bf 0E       		.uleb128 0xe
 3180 00c0 3A       		.uleb128 0x3a
 3181 00c1 0B       		.uleb128 0xb
 3182 00c2 3B       		.uleb128 0x3b
 3183 00c3 0B       		.uleb128 0xb
 3184 00c4 49       		.uleb128 0x49
 3185 00c5 13       		.uleb128 0x13
 3186 00c6 00       		.byte	0x0
 3187 00c7 00       		.byte	0x0
 3188 00c8 11       		.uleb128 0x11
 3189 00c9 15       		.uleb128 0x15
 3190 00ca 01       		.byte	0x1
 3191 00cb 27       		.uleb128 0x27
 3192 00cc 0C       		.uleb128 0xc
 3193 00cd 49       		.uleb128 0x49
 3194 00ce 13       		.uleb128 0x13
 3195 00cf 01       		.uleb128 0x1
 3196 00d0 13       		.uleb128 0x13
 3197 00d1 00       		.byte	0x0
 3198 00d2 00       		.byte	0x0
 3199 00d3 12       		.uleb128 0x12
 3200 00d4 05       		.uleb128 0x5
 3201 00d5 00       		.byte	0x0
 3202 00d6 49       		.uleb128 0x49
 3203 00d7 13       		.uleb128 0x13
 3204 00d8 00       		.byte	0x0
 3205 00d9 00       		.byte	0x0
 3206 00da 13       		.uleb128 0x13
 3207 00db 01       		.uleb128 0x1
 3208 00dc 01       		.byte	0x1
 3209 00dd 49       		.uleb128 0x49
 3210 00de 13       		.uleb128 0x13
 3211 00df 01       		.uleb128 0x1
 3212 00e0 13       		.uleb128 0x13
 3213 00e1 00       		.byte	0x0
 3214 00e2 00       		.byte	0x0
 3215 00e3 14       		.uleb128 0x14
 3216 00e4 21       		.uleb128 0x21
 3217 00e5 00       		.byte	0x0
 3218 00e6 49       		.uleb128 0x49
 3219 00e7 13       		.uleb128 0x13
 3220 00e8 2F       		.uleb128 0x2f
 3221 00e9 0B       		.uleb128 0xb
 3222 00ea 00       		.byte	0x0
 3223 00eb 00       		.byte	0x0
 3224 00ec 15       		.uleb128 0x15
ARM GAS  C:\Users\DNIEL~1\AppData\Local\Temp\ccGM5WUW.s 			page 59


 3225 00ed 13       		.uleb128 0x13
 3226 00ee 01       		.byte	0x1
 3227 00ef 0B       		.uleb128 0xb
 3228 00f0 0B       		.uleb128 0xb
 3229 00f1 3A       		.uleb128 0x3a
 3230 00f2 0B       		.uleb128 0xb
 3231 00f3 3B       		.uleb128 0x3b
 3232 00f4 05       		.uleb128 0x5
 3233 00f5 01       		.uleb128 0x1
 3234 00f6 13       		.uleb128 0x13
 3235 00f7 00       		.byte	0x0
 3236 00f8 00       		.byte	0x0
 3237 00f9 16       		.uleb128 0x16
 3238 00fa 0D       		.uleb128 0xd
 3239 00fb 00       		.byte	0x0
 3240 00fc 03       		.uleb128 0x3
 3241 00fd 0E       		.uleb128 0xe
 3242 00fe 3A       		.uleb128 0x3a
 3243 00ff 0B       		.uleb128 0xb
 3244 0100 3B       		.uleb128 0x3b
 3245 0101 05       		.uleb128 0x5
 3246 0102 49       		.uleb128 0x49
 3247 0103 13       		.uleb128 0x13
 3248 0104 38       		.uleb128 0x38
 3249 0105 0A       		.uleb128 0xa
 3250 0106 00       		.byte	0x0
 3251 0107 00       		.byte	0x0
 3252 0108 17       		.uleb128 0x17
 3253 0109 16       		.uleb128 0x16
 3254 010a 00       		.byte	0x0
 3255 010b 03       		.uleb128 0x3
 3256 010c 0E       		.uleb128 0xe
 3257 010d 3A       		.uleb128 0x3a
 3258 010e 0B       		.uleb128 0xb
 3259 010f 3B       		.uleb128 0x3b
 3260 0110 05       		.uleb128 0x5
 3261 0111 49       		.uleb128 0x49
 3262 0112 13       		.uleb128 0x13
 3263 0113 00       		.byte	0x0
 3264 0114 00       		.byte	0x0
 3265 0115 18       		.uleb128 0x18
 3266 0116 13       		.uleb128 0x13
 3267 0117 01       		.byte	0x1
 3268 0118 0B       		.uleb128 0xb
 3269 0119 05       		.uleb128 0x5
 3270 011a 3A       		.uleb128 0x3a
 3271 011b 0B       		.uleb128 0xb
 3272 011c 3B       		.uleb128 0x3b
 3273 011d 05       		.uleb128 0x5
 3274 011e 01       		.uleb128 0x1
 3275 011f 13       		.uleb128 0x13
 3276 0120 00       		.byte	0x0
 3277 0121 00       		.byte	0x0
 3278 0122 19       		.uleb128 0x19
 3279 0123 04       		.uleb128 0x4
 3280 0124 01       		.byte	0x1
 3281 0125 0B       		.uleb128 0xb
ARM GAS  C:\Users\DNIEL~1\AppData\Local\Temp\ccGM5WUW.s 			page 60


 3282 0126 0B       		.uleb128 0xb
 3283 0127 3A       		.uleb128 0x3a
 3284 0128 0B       		.uleb128 0xb
 3285 0129 3B       		.uleb128 0x3b
 3286 012a 0B       		.uleb128 0xb
 3287 012b 01       		.uleb128 0x1
 3288 012c 13       		.uleb128 0x13
 3289 012d 00       		.byte	0x0
 3290 012e 00       		.byte	0x0
 3291 012f 1A       		.uleb128 0x1a
 3292 0130 28       		.uleb128 0x28
 3293 0131 00       		.byte	0x0
 3294 0132 03       		.uleb128 0x3
 3295 0133 0E       		.uleb128 0xe
 3296 0134 1C       		.uleb128 0x1c
 3297 0135 0D       		.uleb128 0xd
 3298 0136 00       		.byte	0x0
 3299 0137 00       		.byte	0x0
 3300 0138 1B       		.uleb128 0x1b
 3301 0139 0D       		.uleb128 0xd
 3302 013a 00       		.byte	0x0
 3303 013b 03       		.uleb128 0x3
 3304 013c 08       		.uleb128 0x8
 3305 013d 3A       		.uleb128 0x3a
 3306 013e 0B       		.uleb128 0xb
 3307 013f 3B       		.uleb128 0x3b
 3308 0140 0B       		.uleb128 0xb
 3309 0141 49       		.uleb128 0x49
 3310 0142 13       		.uleb128 0x13
 3311 0143 0B       		.uleb128 0xb
 3312 0144 0B       		.uleb128 0xb
 3313 0145 0D       		.uleb128 0xd
 3314 0146 0B       		.uleb128 0xb
 3315 0147 0C       		.uleb128 0xc
 3316 0148 0B       		.uleb128 0xb
 3317 0149 38       		.uleb128 0x38
 3318 014a 0A       		.uleb128 0xa
 3319 014b 00       		.byte	0x0
 3320 014c 00       		.byte	0x0
 3321 014d 1C       		.uleb128 0x1c
 3322 014e 0D       		.uleb128 0xd
 3323 014f 00       		.byte	0x0
 3324 0150 49       		.uleb128 0x49
 3325 0151 13       		.uleb128 0x13
 3326 0152 00       		.byte	0x0
 3327 0153 00       		.byte	0x0
 3328 0154 1D       		.uleb128 0x1d
 3329 0155 0D       		.uleb128 0xd
 3330 0156 00       		.byte	0x0
 3331 0157 49       		.uleb128 0x49
 3332 0158 13       		.uleb128 0x13
 3333 0159 38       		.uleb128 0x38
 3334 015a 0A       		.uleb128 0xa
 3335 015b 00       		.byte	0x0
 3336 015c 00       		.byte	0x0
 3337 015d 1E       		.uleb128 0x1e
 3338 015e 0D       		.uleb128 0xd
ARM GAS  C:\Users\DNIEL~1\AppData\Local\Temp\ccGM5WUW.s 			page 61


 3339 015f 00       		.byte	0x0
 3340 0160 03       		.uleb128 0x3
 3341 0161 0E       		.uleb128 0xe
 3342 0162 49       		.uleb128 0x49
 3343 0163 13       		.uleb128 0x13
 3344 0164 38       		.uleb128 0x38
 3345 0165 0A       		.uleb128 0xa
 3346 0166 34       		.uleb128 0x34
 3347 0167 0C       		.uleb128 0xc
 3348 0168 00       		.byte	0x0
 3349 0169 00       		.byte	0x0
 3350 016a 1F       		.uleb128 0x1f
 3351 016b 04       		.uleb128 0x4
 3352 016c 01       		.byte	0x1
 3353 016d 03       		.uleb128 0x3
 3354 016e 0E       		.uleb128 0xe
 3355 016f 0B       		.uleb128 0xb
 3356 0170 0B       		.uleb128 0xb
 3357 0171 3A       		.uleb128 0x3a
 3358 0172 0B       		.uleb128 0xb
 3359 0173 3B       		.uleb128 0x3b
 3360 0174 0B       		.uleb128 0xb
 3361 0175 01       		.uleb128 0x1
 3362 0176 13       		.uleb128 0x13
 3363 0177 00       		.byte	0x0
 3364 0178 00       		.byte	0x0
 3365 0179 20       		.uleb128 0x20
 3366 017a 2E       		.uleb128 0x2e
 3367 017b 01       		.byte	0x1
 3368 017c 03       		.uleb128 0x3
 3369 017d 0E       		.uleb128 0xe
 3370 017e 3A       		.uleb128 0x3a
 3371 017f 0B       		.uleb128 0xb
 3372 0180 3B       		.uleb128 0x3b
 3373 0181 0B       		.uleb128 0xb
 3374 0182 27       		.uleb128 0x27
 3375 0183 0C       		.uleb128 0xc
 3376 0184 11       		.uleb128 0x11
 3377 0185 01       		.uleb128 0x1
 3378 0186 12       		.uleb128 0x12
 3379 0187 01       		.uleb128 0x1
 3380 0188 40       		.uleb128 0x40
 3381 0189 06       		.uleb128 0x6
 3382 018a 01       		.uleb128 0x1
 3383 018b 13       		.uleb128 0x13
 3384 018c 00       		.byte	0x0
 3385 018d 00       		.byte	0x0
 3386 018e 21       		.uleb128 0x21
 3387 018f 05       		.uleb128 0x5
 3388 0190 00       		.byte	0x0
 3389 0191 03       		.uleb128 0x3
 3390 0192 08       		.uleb128 0x8
 3391 0193 3A       		.uleb128 0x3a
 3392 0194 0B       		.uleb128 0xb
 3393 0195 3B       		.uleb128 0x3b
 3394 0196 0B       		.uleb128 0xb
 3395 0197 49       		.uleb128 0x49
ARM GAS  C:\Users\DNIEL~1\AppData\Local\Temp\ccGM5WUW.s 			page 62


 3396 0198 13       		.uleb128 0x13
 3397 0199 02       		.uleb128 0x2
 3398 019a 06       		.uleb128 0x6
 3399 019b 00       		.byte	0x0
 3400 019c 00       		.byte	0x0
 3401 019d 22       		.uleb128 0x22
 3402 019e 05       		.uleb128 0x5
 3403 019f 00       		.byte	0x0
 3404 01a0 03       		.uleb128 0x3
 3405 01a1 08       		.uleb128 0x8
 3406 01a2 3A       		.uleb128 0x3a
 3407 01a3 0B       		.uleb128 0xb
 3408 01a4 3B       		.uleb128 0x3b
 3409 01a5 0B       		.uleb128 0xb
 3410 01a6 49       		.uleb128 0x49
 3411 01a7 13       		.uleb128 0x13
 3412 01a8 02       		.uleb128 0x2
 3413 01a9 0A       		.uleb128 0xa
 3414 01aa 00       		.byte	0x0
 3415 01ab 00       		.byte	0x0
 3416 01ac 23       		.uleb128 0x23
 3417 01ad 18       		.uleb128 0x18
 3418 01ae 00       		.byte	0x0
 3419 01af 00       		.byte	0x0
 3420 01b0 00       		.byte	0x0
 3421 01b1 24       		.uleb128 0x24
 3422 01b2 34       		.uleb128 0x34
 3423 01b3 00       		.byte	0x0
 3424 01b4 03       		.uleb128 0x3
 3425 01b5 08       		.uleb128 0x8
 3426 01b6 3A       		.uleb128 0x3a
 3427 01b7 0B       		.uleb128 0xb
 3428 01b8 3B       		.uleb128 0x3b
 3429 01b9 0B       		.uleb128 0xb
 3430 01ba 49       		.uleb128 0x49
 3431 01bb 13       		.uleb128 0x13
 3432 01bc 02       		.uleb128 0x2
 3433 01bd 0A       		.uleb128 0xa
 3434 01be 00       		.byte	0x0
 3435 01bf 00       		.byte	0x0
 3436 01c0 25       		.uleb128 0x25
 3437 01c1 2E       		.uleb128 0x2e
 3438 01c2 01       		.byte	0x1
 3439 01c3 03       		.uleb128 0x3
 3440 01c4 0E       		.uleb128 0xe
 3441 01c5 3A       		.uleb128 0x3a
 3442 01c6 0B       		.uleb128 0xb
 3443 01c7 3B       		.uleb128 0x3b
 3444 01c8 0B       		.uleb128 0xb
 3445 01c9 27       		.uleb128 0x27
 3446 01ca 0C       		.uleb128 0xc
 3447 01cb 49       		.uleb128 0x49
 3448 01cc 13       		.uleb128 0x13
 3449 01cd 11       		.uleb128 0x11
 3450 01ce 01       		.uleb128 0x1
 3451 01cf 12       		.uleb128 0x12
 3452 01d0 01       		.uleb128 0x1
ARM GAS  C:\Users\DNIEL~1\AppData\Local\Temp\ccGM5WUW.s 			page 63


 3453 01d1 40       		.uleb128 0x40
 3454 01d2 06       		.uleb128 0x6
 3455 01d3 01       		.uleb128 0x1
 3456 01d4 13       		.uleb128 0x13
 3457 01d5 00       		.byte	0x0
 3458 01d6 00       		.byte	0x0
 3459 01d7 26       		.uleb128 0x26
 3460 01d8 0B       		.uleb128 0xb
 3461 01d9 01       		.byte	0x1
 3462 01da 11       		.uleb128 0x11
 3463 01db 01       		.uleb128 0x1
 3464 01dc 12       		.uleb128 0x12
 3465 01dd 01       		.uleb128 0x1
 3466 01de 00       		.byte	0x0
 3467 01df 00       		.byte	0x0
 3468 01e0 27       		.uleb128 0x27
 3469 01e1 34       		.uleb128 0x34
 3470 01e2 00       		.byte	0x0
 3471 01e3 03       		.uleb128 0x3
 3472 01e4 0E       		.uleb128 0xe
 3473 01e5 3A       		.uleb128 0x3a
 3474 01e6 0B       		.uleb128 0xb
 3475 01e7 3B       		.uleb128 0x3b
 3476 01e8 0B       		.uleb128 0xb
 3477 01e9 49       		.uleb128 0x49
 3478 01ea 13       		.uleb128 0x13
 3479 01eb 02       		.uleb128 0x2
 3480 01ec 06       		.uleb128 0x6
 3481 01ed 00       		.byte	0x0
 3482 01ee 00       		.byte	0x0
 3483 01ef 28       		.uleb128 0x28
 3484 01f0 2E       		.uleb128 0x2e
 3485 01f1 00       		.byte	0x0
 3486 01f2 3F       		.uleb128 0x3f
 3487 01f3 0C       		.uleb128 0xc
 3488 01f4 03       		.uleb128 0x3
 3489 01f5 0E       		.uleb128 0xe
 3490 01f6 3A       		.uleb128 0x3a
 3491 01f7 0B       		.uleb128 0xb
 3492 01f8 3B       		.uleb128 0x3b
 3493 01f9 0B       		.uleb128 0xb
 3494 01fa 27       		.uleb128 0x27
 3495 01fb 0C       		.uleb128 0xc
 3496 01fc 11       		.uleb128 0x11
 3497 01fd 01       		.uleb128 0x1
 3498 01fe 12       		.uleb128 0x12
 3499 01ff 01       		.uleb128 0x1
 3500 0200 40       		.uleb128 0x40
 3501 0201 06       		.uleb128 0x6
 3502 0202 00       		.byte	0x0
 3503 0203 00       		.byte	0x0
 3504 0204 29       		.uleb128 0x29
 3505 0205 2E       		.uleb128 0x2e
 3506 0206 01       		.byte	0x1
 3507 0207 3F       		.uleb128 0x3f
 3508 0208 0C       		.uleb128 0xc
 3509 0209 03       		.uleb128 0x3
ARM GAS  C:\Users\DNIEL~1\AppData\Local\Temp\ccGM5WUW.s 			page 64


 3510 020a 0E       		.uleb128 0xe
 3511 020b 3A       		.uleb128 0x3a
 3512 020c 0B       		.uleb128 0xb
 3513 020d 3B       		.uleb128 0x3b
 3514 020e 0B       		.uleb128 0xb
 3515 020f 27       		.uleb128 0x27
 3516 0210 0C       		.uleb128 0xc
 3517 0211 11       		.uleb128 0x11
 3518 0212 01       		.uleb128 0x1
 3519 0213 12       		.uleb128 0x12
 3520 0214 01       		.uleb128 0x1
 3521 0215 40       		.uleb128 0x40
 3522 0216 06       		.uleb128 0x6
 3523 0217 01       		.uleb128 0x1
 3524 0218 13       		.uleb128 0x13
 3525 0219 00       		.byte	0x0
 3526 021a 00       		.byte	0x0
 3527 021b 2A       		.uleb128 0x2a
 3528 021c 05       		.uleb128 0x5
 3529 021d 00       		.byte	0x0
 3530 021e 03       		.uleb128 0x3
 3531 021f 0E       		.uleb128 0xe
 3532 0220 3A       		.uleb128 0x3a
 3533 0221 0B       		.uleb128 0xb
 3534 0222 3B       		.uleb128 0x3b
 3535 0223 0B       		.uleb128 0xb
 3536 0224 49       		.uleb128 0x49
 3537 0225 13       		.uleb128 0x13
 3538 0226 02       		.uleb128 0x2
 3539 0227 06       		.uleb128 0x6
 3540 0228 00       		.byte	0x0
 3541 0229 00       		.byte	0x0
 3542 022a 2B       		.uleb128 0x2b
 3543 022b 34       		.uleb128 0x34
 3544 022c 00       		.byte	0x0
 3545 022d 03       		.uleb128 0x3
 3546 022e 0E       		.uleb128 0xe
 3547 022f 3A       		.uleb128 0x3a
 3548 0230 0B       		.uleb128 0xb
 3549 0231 3B       		.uleb128 0x3b
 3550 0232 0B       		.uleb128 0xb
 3551 0233 49       		.uleb128 0x49
 3552 0234 13       		.uleb128 0x13
 3553 0235 3F       		.uleb128 0x3f
 3554 0236 0C       		.uleb128 0xc
 3555 0237 3C       		.uleb128 0x3c
 3556 0238 0C       		.uleb128 0xc
 3557 0239 00       		.byte	0x0
 3558 023a 00       		.byte	0x0
 3559 023b 2C       		.uleb128 0x2c
 3560 023c 34       		.uleb128 0x34
 3561 023d 00       		.byte	0x0
 3562 023e 03       		.uleb128 0x3
 3563 023f 0E       		.uleb128 0xe
 3564 0240 3A       		.uleb128 0x3a
 3565 0241 0B       		.uleb128 0xb
 3566 0242 3B       		.uleb128 0x3b
ARM GAS  C:\Users\DNIEL~1\AppData\Local\Temp\ccGM5WUW.s 			page 65


 3567 0243 05       		.uleb128 0x5
 3568 0244 49       		.uleb128 0x49
 3569 0245 13       		.uleb128 0x13
 3570 0246 3F       		.uleb128 0x3f
 3571 0247 0C       		.uleb128 0xc
 3572 0248 3C       		.uleb128 0x3c
 3573 0249 0C       		.uleb128 0xc
 3574 024a 00       		.byte	0x0
 3575 024b 00       		.byte	0x0
 3576 024c 2D       		.uleb128 0x2d
 3577 024d 34       		.uleb128 0x34
 3578 024e 00       		.byte	0x0
 3579 024f 03       		.uleb128 0x3
 3580 0250 0E       		.uleb128 0xe
 3581 0251 3A       		.uleb128 0x3a
 3582 0252 0B       		.uleb128 0xb
 3583 0253 3B       		.uleb128 0x3b
 3584 0254 0B       		.uleb128 0xb
 3585 0255 49       		.uleb128 0x49
 3586 0256 13       		.uleb128 0x13
 3587 0257 02       		.uleb128 0x2
 3588 0258 0A       		.uleb128 0xa
 3589 0259 00       		.byte	0x0
 3590 025a 00       		.byte	0x0
 3591 025b 2E       		.uleb128 0x2e
 3592 025c 34       		.uleb128 0x34
 3593 025d 00       		.byte	0x0
 3594 025e 03       		.uleb128 0x3
 3595 025f 0E       		.uleb128 0xe
 3596 0260 3A       		.uleb128 0x3a
 3597 0261 0B       		.uleb128 0xb
 3598 0262 3B       		.uleb128 0x3b
 3599 0263 0B       		.uleb128 0xb
 3600 0264 49       		.uleb128 0x49
 3601 0265 13       		.uleb128 0x13
 3602 0266 3F       		.uleb128 0x3f
 3603 0267 0C       		.uleb128 0xc
 3604 0268 02       		.uleb128 0x2
 3605 0269 0A       		.uleb128 0xa
 3606 026a 00       		.byte	0x0
 3607 026b 00       		.byte	0x0
 3608 026c 00       		.byte	0x0
 3609              		.section	.debug_pubnames,"",%progbits
 3610 0000 56000000 		.4byte	0x56
 3611 0004 0200     		.2byte	0x2
 3612 0006 00000000 		.4byte	.Ldebug_info0
 3613 000a F10F0000 		.4byte	0xff1
 3614 000e 850E0000 		.4byte	0xe85
 3615 0012 63616E5F 		.ascii	"can_commInit\000"
 3615      636F6D6D 
 3615      496E6974 
 3615      00
 3616 001f 9A0E0000 		.4byte	0xe9a
 3617 0023 636D645F 		.ascii	"cmd_can_commvalues\000"
 3617      63616E5F 
 3617      636F6D6D 
 3617      76616C75 
ARM GAS  C:\Users\DNIEL~1\AppData\Local\Temp\ccGM5WUW.s 			page 66


 3617      657300
 3618 0036 CC0F0000 		.4byte	0xfcc
 3619 003a 63616E5F 		.ascii	"can_rxstate\000"
 3619      72787374 
 3619      61746500 
 3620 0046 DE0F0000 		.4byte	0xfde
 3621 004a 63616E5F 		.ascii	"can_txstate\000"
 3621      74787374 
 3621      61746500 
 3622 0056 00000000 		.4byte	0x0
 3623              		.section	.debug_pubtypes,"",%progbits
 3624 0000 18030000 		.4byte	0x318
 3625 0004 0200     		.2byte	0x2
 3626 0006 00000000 		.4byte	.Ldebug_info0
 3627 000a F10F0000 		.4byte	0xff1
 3628 000e 29000000 		.4byte	0x29
 3629 0012 73697A65 		.ascii	"size_t\000"
 3629      5F7400
 3630 0019 94000000 		.4byte	0x94
 3631 001d 75696E74 		.ascii	"uint8_t\000"
 3631      385F7400 
 3632 0025 9F000000 		.4byte	0x9f
 3633 0029 75696E74 		.ascii	"uint16_t\000"
 3633      31365F74 
 3633      00
 3634 0032 AA000000 		.4byte	0xaa
 3635 0036 696E7433 		.ascii	"int32_t\000"
 3635      325F7400 
 3636 003e B5000000 		.4byte	0xb5
 3637 0042 75696E74 		.ascii	"uint32_t\000"
 3637      33325F74 
 3637      00
 3638 004b C0000000 		.4byte	0xc0
 3639 004f 75696E74 		.ascii	"uint64_t\000"
 3639      36345F74 
 3639      00
 3640 0058 D2000000 		.4byte	0xd2
 3641 005c 746D6F64 		.ascii	"tmode_t\000"
 3641      655F7400 
 3642 0064 DD000000 		.4byte	0xdd
 3643 0068 74737461 		.ascii	"tstate_t\000"
 3643      74655F74 
 3643      00
 3644 0071 E8000000 		.4byte	0xe8
 3645 0075 74726566 		.ascii	"trefs_t\000"
 3645      735F7400 
 3646 007d F3000000 		.4byte	0xf3
 3647 0081 74736C69 		.ascii	"tslices_t\000"
 3647      6365735F 
 3647      7400
 3648 008b FE000000 		.4byte	0xfe
 3649 008f 74707269 		.ascii	"tprio_t\000"
 3649      6F5F7400 
 3650 0097 09010000 		.4byte	0x109
 3651 009b 6D73675F 		.ascii	"msg_t\000"
 3651      7400
 3652 00a1 14010000 		.4byte	0x114
ARM GAS  C:\Users\DNIEL~1\AppData\Local\Temp\ccGM5WUW.s 			page 67


 3653 00a5 6576656E 		.ascii	"eventmask_t\000"
 3653      746D6173 
 3653      6B5F7400 
 3654 00b1 1F010000 		.4byte	0x11f
 3655 00b5 666C6167 		.ascii	"flagsmask_t\000"
 3655      736D6173 
 3655      6B5F7400 
 3656 00c1 2A010000 		.4byte	0x12a
 3657 00c5 73797374 		.ascii	"systime_t\000"
 3657      696D655F 
 3657      7400
 3658 00cf 35010000 		.4byte	0x135
 3659 00d3 636E745F 		.ascii	"cnt_t\000"
 3659      7400
 3660 00d9 40010000 		.4byte	0x140
 3661 00dd 54687265 		.ascii	"Thread\000"
 3661      616400
 3662 00e4 9B020000 		.4byte	0x29b
 3663 00e8 54687265 		.ascii	"ThreadsQueue\000"
 3663      61647351 
 3663      75657565 
 3663      00
 3664 00f5 BD020000 		.4byte	0x2bd
 3665 00f9 54687265 		.ascii	"ThreadsList\000"
 3665      6164734C 
 3665      69737400 
 3666 0105 C8020000 		.4byte	0x2c8
 3667 0109 72656761 		.ascii	"regarm_t\000"
 3667      726D5F74 
 3667      00
 3668 0112 D3020000 		.4byte	0x2d3
 3669 0116 73746B61 		.ascii	"stkalign_t\000"
 3669      6C69676E 
 3669      5F7400
 3670 0121 DE020000 		.4byte	0x2de
 3671 0125 696E7463 		.ascii	"intctx\000"
 3671      747800
 3672 012c 6C030000 		.4byte	0x36c
 3673 0130 636F6E74 		.ascii	"context\000"
 3673      65787400 
 3674 0138 F6030000 		.4byte	0x3f6
 3675 013c 52656164 		.ascii	"ReadyList\000"
 3675      794C6973 
 3675      7400
 3676 0146 01040000 		.4byte	0x401
 3677 014a 53656D61 		.ascii	"Semaphore\000"
 3677      70686F72 
 3677      6500
 3678 0154 2A040000 		.4byte	0x42a
 3679 0158 53656D61 		.ascii	"Semaphore\000"
 3679      70686F72 
 3679      6500
 3680 0162 35040000 		.4byte	0x435
 3681 0166 4D757465 		.ascii	"Mutex\000"
 3681      7800
 3682 016c 72040000 		.4byte	0x472
 3683 0170 4D757465 		.ascii	"Mutex\000"
ARM GAS  C:\Users\DNIEL~1\AppData\Local\Temp\ccGM5WUW.s 			page 68


 3683      7800
 3684 0176 7D040000 		.4byte	0x47d
 3685 017a 4576656E 		.ascii	"EventListener\000"
 3685      744C6973 
 3685      74656E65 
 3685      7200
 3686 0188 88040000 		.4byte	0x488
 3687 018c 4576656E 		.ascii	"EventListener\000"
 3687      744C6973 
 3687      74656E65 
 3687      7200
 3688 019a D3040000 		.4byte	0x4d3
 3689 019e 4576656E 		.ascii	"EventSource\000"
 3689      74536F75 
 3689      72636500 
 3690 01aa EE040000 		.4byte	0x4ee
 3691 01ae 4576656E 		.ascii	"EventSource\000"
 3691      74536F75 
 3691      72636500 
 3692 01ba 4B010000 		.4byte	0x14b
 3693 01be 54687265 		.ascii	"Thread\000"
 3693      616400
 3694 01c5 50050000 		.4byte	0x550
 3695 01c9 42617365 		.ascii	"BaseSequentialStreamVMT\000"
 3695      53657175 
 3695      656E7469 
 3695      616C5374 
 3695      7265616D 
 3696 01e1 1D060000 		.4byte	0x61d
 3697 01e5 42617365 		.ascii	"BaseSequentialStream\000"
 3697      53657175 
 3697      656E7469 
 3697      616C5374 
 3697      7265616D 
 3698 01fa 93060000 		.4byte	0x693
 3699 01fe 43414E5F 		.ascii	"CAN_TxMailBox_TypeDef\000"
 3699      54784D61 
 3699      696C426F 
 3699      785F5479 
 3699      70654465 
 3700 0214 E5060000 		.4byte	0x6e5
 3701 0218 43414E5F 		.ascii	"CAN_FIFOMailBox_TypeDef\000"
 3701      4649464F 
 3701      4D61696C 
 3701      426F785F 
 3701      54797065 
 3702 0230 19070000 		.4byte	0x719
 3703 0234 43414E5F 		.ascii	"CAN_FilterRegister_TypeDef\000"
 3703      46696C74 
 3703      65725265 
 3703      67697374 
 3703      65725F54 
 3704 024f D7080000 		.4byte	0x8d7
 3705 0253 43414E5F 		.ascii	"CAN_TypeDef\000"
 3705      54797065 
 3705      44656600 
 3706 025f E3080000 		.4byte	0x8e3
ARM GAS  C:\Users\DNIEL~1\AppData\Local\Temp\ccGM5WUW.s 			page 69


 3707 0263 42617365 		.ascii	"BaseChannelVMT\000"
 3707      4368616E 
 3707      6E656C56 
 3707      4D5400
 3708 0272 070A0000 		.4byte	0xa07
 3709 0276 42617365 		.ascii	"BaseChannel\000"
 3709      4368616E 
 3709      6E656C00 
 3710 0282 390A0000 		.4byte	0xa39
 3711 0286 63616E73 		.ascii	"canstate_t\000"
 3711      74617465 
 3711      5F7400
 3712 0291 320B0000 		.4byte	0xb32
 3713 0295 43414E54 		.ascii	"CANTxFrame\000"
 3713      78467261 
 3713      6D6500
 3714 02a0 380C0000 		.4byte	0xc38
 3715 02a4 43414E52 		.ascii	"CANRxFrame\000"
 3715      78467261 
 3715      6D6500
 3716 02af 690C0000 		.4byte	0xc69
 3717 02b3 43414E43 		.ascii	"CANConfig\000"
 3717      6F6E6669 
 3717      6700
 3718 02bd 260D0000 		.4byte	0xd26
 3719 02c1 43414E44 		.ascii	"CANDriver\000"
 3719      72697665 
 3719      7200
 3720 02cb 3D0D0000 		.4byte	0xd3d
 3721 02cf 5F5F7661 		.ascii	"__va_list\000"
 3721      5F6C6973 
 3721      7400
 3722 02d9 320D0000 		.4byte	0xd32
 3723 02dd 5F5F676E 		.ascii	"__gnuc_va_list\000"
 3723      75635F76 
 3723      615F6C69 
 3723      737400
 3724 02ec 570D0000 		.4byte	0xd57
 3725 02f0 76615F6C 		.ascii	"va_list\000"
 3725      69737400 
 3726 02f8 770D0000 		.4byte	0xd77
 3727 02fc 63616E5F 		.ascii	"can_rxState\000"
 3727      72785374 
 3727      61746500 
 3728 0308 A80D0000 		.4byte	0xda8
 3729 030c 63616E5F 		.ascii	"can_txState\000"
 3729      74785374 
 3729      61746500 
 3730 0318 00000000 		.4byte	0x0
 3731              		.section	.debug_aranges,"",%progbits
 3732 0000 3C000000 		.4byte	0x3c
 3733 0004 0200     		.2byte	0x2
 3734 0006 00000000 		.4byte	.Ldebug_info0
 3735 000a 04       		.byte	0x4
 3736 000b 00       		.byte	0x0
 3737 000c 0000     		.2byte	0x0
 3738 000e 0000     		.2byte	0x0
ARM GAS  C:\Users\DNIEL~1\AppData\Local\Temp\ccGM5WUW.s 			page 70


 3739 0010 00000000 		.4byte	.LFB118
 3740 0014 1E000000 		.4byte	.LFE118-.LFB118
 3741 0018 00000000 		.4byte	.LFB119
 3742 001c E4000000 		.4byte	.LFE119-.LFB119
 3743 0020 00000000 		.4byte	.LFB120
 3744 0024 74000000 		.4byte	.LFE120-.LFB120
 3745 0028 00000000 		.4byte	.LFB121
 3746 002c 70000000 		.4byte	.LFE121-.LFB121
 3747 0030 00000000 		.4byte	.LFB122
 3748 0034 4C010000 		.4byte	.LFE122-.LFB122
 3749 0038 00000000 		.4byte	0x0
 3750 003c 00000000 		.4byte	0x0
 3751              		.section	.debug_ranges,"",%progbits
 3752              	.Ldebug_ranges0:
 3753 0000 00000000 		.4byte	.LFB118
 3754 0004 1E000000 		.4byte	.LFE118
 3755 0008 00000000 		.4byte	.LFB119
 3756 000c E4000000 		.4byte	.LFE119
 3757 0010 00000000 		.4byte	.LFB120
 3758 0014 74000000 		.4byte	.LFE120
 3759 0018 00000000 		.4byte	.LFB121
 3760 001c 70000000 		.4byte	.LFE121
 3761 0020 00000000 		.4byte	.LFB122
 3762 0024 4C010000 		.4byte	.LFE122
 3763 0028 00000000 		.4byte	0x0
 3764 002c 00000000 		.4byte	0x0
 3765              		.section	.debug_str,"MS",%progbits,1
 3766              	.LASF163:
 3767 0000 72786D73 		.ascii	"rxmsg\000"
 3767      6700
 3768              	.LASF174:
 3769 0006 636D645F 		.ascii	"cmd_can_commvalues\000"
 3769      63616E5F 
 3769      636F6D6D 
 3769      76616C75 
 3769      657300
 3770              	.LASF10:
 3771 0019 73697A65 		.ascii	"size_t\000"
 3771      5F7400
 3772              	.LASF124:
 3773 0020 43414E52 		.ascii	"CANRxFrame\000"
 3773      78467261 
 3773      6D6500
 3774              	.LASF74:
 3775 002b 7264796D 		.ascii	"rdymsg\000"
 3775      736700
 3776              	.LASF15:
 3777 0032 75696E74 		.ascii	"uint64_t\000"
 3777      36345F74 
 3777      00
 3778              	.LASF145:
 3779 003b 43414E5F 		.ascii	"CAN_RX_RPY\000"
 3779      52585F52 
 3779      505900
 3780              	.LASF139:
 3781 0046 76615F6C 		.ascii	"va_list\000"
 3781      69737400 
ARM GAS  C:\Users\DNIEL~1\AppData\Local\Temp\ccGM5WUW.s 			page 71


 3782              	.LASF125:
 3783 004e 43414E43 		.ascii	"CANConfig\000"
 3783      6F6E6669 
 3783      6700
 3784              	.LASF106:
 3785 0058 43414E5F 		.ascii	"CAN_TypeDef\000"
 3785      54797065 
 3785      44656600 
 3786              	.LASF86:
 3787 0064 52445452 		.ascii	"RDTR\000"
 3787      00
 3788              	.LASF162:
 3789 0069 74786D73 		.ascii	"txmsg\000"
 3789      6700
 3790              	.LASF6:
 3791 006f 6C6F6E67 		.ascii	"long long unsigned int\000"
 3791      206C6F6E 
 3791      6720756E 
 3791      7369676E 
 3791      65642069 
 3792              	.LASF107:
 3793 0086 42617365 		.ascii	"BaseChannelVMT\000"
 3793      4368616E 
 3793      6E656C56 
 3793      4D5400
 3794              	.LASF75:
 3795 0095 65786974 		.ascii	"exitcode\000"
 3795      636F6465 
 3795      00
 3796              	.LASF121:
 3797 009e 64617461 		.ascii	"data32\000"
 3797      333200
 3798              	.LASF30:
 3799 00a5 705F7072 		.ascii	"p_prio\000"
 3799      696F00
 3800              	.LASF111:
 3801 00ac 72656164 		.ascii	"readt\000"
 3801      7400
 3802              	.LASF5:
 3803 00b2 6C6F6E67 		.ascii	"long long int\000"
 3803      206C6F6E 
 3803      6720696E 
 3803      7400
 3804              	.LASF1:
 3805 00c0 7369676E 		.ascii	"signed char\000"
 3805      65642063 
 3805      68617200 
 3806              	.LASF171:
 3807 00cc 433A5C44 		.ascii	"C:\\Dani\\MegaLux\\Repo\\Modulux\\Modulux\\modulux\\"
 3807      616E695C 
 3807      4D656761 
 3807      4C75785C 
 3807      5265706F 
 3808 00f9 6669726D 		.ascii	"firmware\000"
 3808      77617265 
 3808      00
 3809              	.LASF152:
ARM GAS  C:\Users\DNIEL~1\AppData\Local\Temp\ccGM5WUW.s 			page 72


 3810 0102 43414E5F 		.ascii	"CAN_TX_NUM_CH\000"
 3810      54585F4E 
 3810      554D5F43 
 3810      4800
 3811              	.LASF46:
 3812 0110 705F6D70 		.ascii	"p_mpool\000"
 3812      6F6F6C00 
 3813              	.LASF128:
 3814 0118 74787365 		.ascii	"txsem\000"
 3814      6D00
 3815              	.LASF20:
 3816 011e 74736C69 		.ascii	"tslices_t\000"
 3816      6365735F 
 3816      7400
 3817              	.LASF126:
 3818 0128 73746174 		.ascii	"state\000"
 3818      6500
 3819              	.LASF83:
 3820 012e 54444C52 		.ascii	"TDLR\000"
 3820      00
 3821              	.LASF7:
 3822 0133 6C6F6E67 		.ascii	"long int\000"
 3822      20696E74 
 3822      00
 3823              	.LASF18:
 3824 013c 74737461 		.ascii	"tstate_t\000"
 3824      74655F74 
 3824      00
 3825              	.LASF85:
 3826 0145 43414E5F 		.ascii	"CAN_TxMailBox_TypeDef\000"
 3826      54784D61 
 3826      696C426F 
 3826      785F5479 
 3826      70654465 
 3827              	.LASF137:
 3828 015b 5F5F7661 		.ascii	"__va_list\000"
 3828      5F6C6973 
 3828      7400
 3829              	.LASF37:
 3830 0165 705F7265 		.ascii	"p_refs\000"
 3830      667300
 3831              	.LASF165:
 3832 016c 6D657373 		.ascii	"messages\000"
 3832      61676573 
 3832      00
 3833              	.LASF150:
 3834 0175 63616E5F 		.ascii	"can_txState\000"
 3834      74785374 
 3834      61746500 
 3835              	.LASF12:
 3836 0181 75696E74 		.ascii	"uint16_t\000"
 3836      31365F74 
 3836      00
 3837              	.LASF39:
 3838 018a 705F7469 		.ascii	"p_time\000"
 3838      6D6500
 3839              	.LASF140:
ARM GAS  C:\Users\DNIEL~1\AppData\Local\Temp\ccGM5WUW.s 			page 73


 3840 0191 646F7562 		.ascii	"double\000"
 3840      6C6500
 3841              	.LASF32:
 3842 0198 705F6E65 		.ascii	"p_newer\000"
 3842      77657200 
 3843              	.LASF61:
 3844 01a0 735F7175 		.ascii	"s_queue\000"
 3844      65756500 
 3845              	.LASF116:
 3846 01a8 43414E5F 		.ascii	"CAN_READY\000"
 3846      52454144 
 3846      5900
 3847              	.LASF91:
 3848 01b2 52463052 		.ascii	"RF0R\000"
 3848      00
 3849              	.LASF130:
 3850 01b7 72786675 		.ascii	"rxfull_event\000"
 3850      6C6C5F65 
 3850      76656E74 
 3850      00
 3851              	.LASF56:
 3852 01c4 725F6E65 		.ascii	"r_newer\000"
 3852      77657200 
 3853              	.LASF49:
 3854 01cc 72656761 		.ascii	"regarm_t\000"
 3854      726D5F74 
 3854      00
 3855              	.LASF123:
 3856 01d5 54494D45 		.ascii	"TIME\000"
 3856      00
 3857              	.LASF27:
 3858 01da 54687265 		.ascii	"Thread\000"
 3858      616400
 3859              	.LASF158:
 3860 01e1 726C6973 		.ascii	"rlist\000"
 3860      7400
 3861              	.LASF82:
 3862 01e7 54445452 		.ascii	"TDTR\000"
 3862      00
 3863              	.LASF72:
 3864 01ec 4576656E 		.ascii	"EventSource\000"
 3864      74536F75 
 3864      72636500 
 3865              	.LASF81:
 3866 01f8 42617365 		.ascii	"BaseSequentialStream\000"
 3866      53657175 
 3866      656E7469 
 3866      616C5374 
 3866      7265616D 
 3867              	.LASF26:
 3868 020d 636E745F 		.ascii	"cnt_t\000"
 3868      7400
 3869              	.LASF0:
 3870 0213 756E7369 		.ascii	"unsigned int\000"
 3870      676E6564 
 3870      20696E74 
 3870      00
ARM GAS  C:\Users\DNIEL~1\AppData\Local\Temp\ccGM5WUW.s 			page 74


 3871              	.LASF160:
 3872 0220 43414E44 		.ascii	"CAND1\000"
 3872      3100
 3873              	.LASF94:
 3874 0226 7354784D 		.ascii	"sTxMailBox\000"
 3874      61696C42 
 3874      6F7800
 3875              	.LASF168:
 3876 0231 63616E5F 		.ascii	"can_txstate\000"
 3876      74787374 
 3876      61746500 
 3877              	.LASF41:
 3878 023d 705F6D73 		.ascii	"p_msgqueue\000"
 3878      67717565 
 3878      756500
 3879              	.LASF147:
 3880 0248 43414E5F 		.ascii	"CAN_RX_WAIT\000"
 3880      52585F57 
 3880      41495400 
 3881              	.LASF122:
 3882 0254 43414E54 		.ascii	"CANTxFrame\000"
 3882      78467261 
 3882      6D6500
 3883              	.LASF109:
 3884 025f 67657474 		.ascii	"gett\000"
 3884      00
 3885              	.LASF62:
 3886 0264 735F636E 		.ascii	"s_cnt\000"
 3886      7400
 3887              	.LASF4:
 3888 026a 73686F72 		.ascii	"short unsigned int\000"
 3888      7420756E 
 3888      7369676E 
 3888      65642069 
 3888      6E7400
 3889              	.LASF92:
 3890 027d 52463152 		.ascii	"RF1R\000"
 3890      00
 3891              	.LASF90:
 3892 0282 43414E5F 		.ascii	"CAN_FilterRegister_TypeDef\000"
 3892      46696C74 
 3892      65725265 
 3892      67697374 
 3892      65725F54 
 3893              	.LASF22:
 3894 029d 6D73675F 		.ascii	"msg_t\000"
 3894      7400
 3895              	.LASF68:
 3896 02a3 656C5F6E 		.ascii	"el_next\000"
 3896      65787400 
 3897              	.LASF110:
 3898 02ab 77726974 		.ascii	"writet\000"
 3898      657400
 3899              	.LASF17:
 3900 02b2 746D6F64 		.ascii	"tmode_t\000"
 3900      655F7400 
 3901              	.LASF48:
ARM GAS  C:\Users\DNIEL~1\AppData\Local\Temp\ccGM5WUW.s 			page 75


 3902 02ba 54687265 		.ascii	"ThreadsList\000"
 3902      6164734C 
 3902      69737400 
 3903              	.LASF105:
 3904 02c6 7346696C 		.ascii	"sFilterRegister\000"
 3904      74657252 
 3904      65676973 
 3904      74657200 
 3905              	.LASF23:
 3906 02d6 6576656E 		.ascii	"eventmask_t\000"
 3906      746D6173 
 3906      6B5F7400 
 3907              	.LASF63:
 3908 02e2 4D757465 		.ascii	"Mutex\000"
 3908      7800
 3909              	.LASF153:
 3910 02e8 63616E5F 		.ascii	"can_rx\000"
 3910      727800
 3911              	.LASF166:
 3912 02ef 63616E5F 		.ascii	"can_rx_wa\000"
 3912      72785F77 
 3912      6100
 3913              	.LASF50:
 3914 02f9 73746B61 		.ascii	"stkalign_t\000"
 3914      6C69676E 
 3914      5F7400
 3915              	.LASF79:
 3916 0304 77726974 		.ascii	"write\000"
 3916      6500
 3917              	.LASF108:
 3918 030a 70757474 		.ascii	"putt\000"
 3918      00
 3919              	.LASF151:
 3920 030f 43414E5F 		.ascii	"CAN_TX_ONE_VIRE\000"
 3920      54585F4F 
 3920      4E455F56 
 3920      49524500 
 3921              	.LASF103:
 3922 031f 46413152 		.ascii	"FA1R\000"
 3922      00
 3923              	.LASF142:
 3924 0324 6C6F6E67 		.ascii	"long double\000"
 3924      20646F75 
 3924      626C6500 
 3925              	.LASF117:
 3926 0330 43414E5F 		.ascii	"CAN_SLEEP\000"
 3926      534C4545 
 3926      5000
 3927              	.LASF164:
 3928 033a 63616E63 		.ascii	"cancfg\000"
 3928      666700
 3929              	.LASF148:
 3930 0341 43414E5F 		.ascii	"CAN_RX_NUM_CH\000"
 3930      52585F4E 
 3930      554D5F43 
 3930      4800
 3931              	.LASF136:
ARM GAS  C:\Users\DNIEL~1\AppData\Local\Temp\ccGM5WUW.s 			page 76


 3932 034f 5F5F676E 		.ascii	"__gnuc_va_list\000"
 3932      75635F76 
 3932      615F6C69 
 3932      737400
 3933              	.LASF135:
 3934 035e 43414E44 		.ascii	"CANDriver\000"
 3934      72697665 
 3934      7200
 3935              	.LASF33:
 3936 0368 705F6F6C 		.ascii	"p_older\000"
 3936      64657200 
 3937              	.LASF55:
 3938 0370 725F6374 		.ascii	"r_ctx\000"
 3938      7800
 3939              	.LASF47:
 3940 0376 54687265 		.ascii	"ThreadsQueue\000"
 3940      61647351 
 3940      75657565 
 3940      00
 3941              	.LASF84:
 3942 0383 54444852 		.ascii	"TDHR\000"
 3942      00
 3943              	.LASF58:
 3944 0388 725F6375 		.ascii	"r_current\000"
 3944      7272656E 
 3944      7400
 3945              	.LASF57:
 3946 0392 725F6F6C 		.ascii	"r_older\000"
 3946      64657200 
 3947              	.LASF70:
 3948 039a 656C5F6D 		.ascii	"el_mask\000"
 3948      61736B00 
 3949              	.LASF133:
 3950 03a2 736C6565 		.ascii	"sleep_event\000"
 3950      705F6576 
 3950      656E7400 
 3951              	.LASF118:
 3952 03ae 63616E73 		.ascii	"canstate_t\000"
 3952      74617465 
 3952      5F7400
 3953              	.LASF114:
 3954 03b9 43414E5F 		.ascii	"CAN_STOP\000"
 3954      53544F50 
 3954      00
 3955              	.LASF101:
 3956 03c2 46464131 		.ascii	"FFA1R\000"
 3956      5200
 3957              	.LASF132:
 3958 03c8 6572726F 		.ascii	"error_event\000"
 3958      725F6576 
 3958      656E7400 
 3959              	.LASF141:
 3960 03d4 666C6F61 		.ascii	"float\000"
 3960      7400
 3961              	.LASF173:
 3962 03da 63616E5F 		.ascii	"can_commInit\000"
 3962      636F6D6D 
ARM GAS  C:\Users\DNIEL~1\AppData\Local\Temp\ccGM5WUW.s 			page 77


 3962      496E6974 
 3962      00
 3963              	.LASF19:
 3964 03e7 74726566 		.ascii	"trefs_t\000"
 3964      735F7400 
 3965              	.LASF93:
 3966 03ef 52455345 		.ascii	"RESERVED0\000"
 3966      52564544 
 3966      3000
 3967              	.LASF96:
 3968 03f9 52455345 		.ascii	"RESERVED1\000"
 3968      52564544 
 3968      3100
 3969              	.LASF98:
 3970 0403 52455345 		.ascii	"RESERVED2\000"
 3970      52564544 
 3970      3200
 3971              	.LASF100:
 3972 040d 52455345 		.ascii	"RESERVED3\000"
 3972      52564544 
 3972      3300
 3973              	.LASF102:
 3974 0417 52455345 		.ascii	"RESERVED4\000"
 3974      52564544 
 3974      3400
 3975              	.LASF29:
 3976 0421 705F7072 		.ascii	"p_prev\000"
 3976      657600
 3977              	.LASF21:
 3978 0428 74707269 		.ascii	"tprio_t\000"
 3978      6F5F7400 
 3979              	.LASF113:
 3980 0430 43414E5F 		.ascii	"CAN_UNINIT\000"
 3980      554E494E 
 3980      495400
 3981              	.LASF16:
 3982 043b 5F426F6F 		.ascii	"_Bool\000"
 3982      6C00
 3983              	.LASF13:
 3984 0441 696E7433 		.ascii	"int32_t\000"
 3984      325F7400 
 3985              	.LASF2:
 3986 0449 756E7369 		.ascii	"unsigned char\000"
 3986      676E6564 
 3986      20636861 
 3986      7200
 3987              	.LASF64:
 3988 0457 6D5F7175 		.ascii	"m_queue\000"
 3988      65756500 
 3989              	.LASF134:
 3990 045f 77616B65 		.ascii	"wakeup_event\000"
 3990      75705F65 
 3990      76656E74 
 3990      00
 3991              	.LASF69:
 3992 046c 656C5F6C 		.ascii	"el_listener\000"
 3992      69737465 
ARM GAS  C:\Users\DNIEL~1\AppData\Local\Temp\ccGM5WUW.s 			page 78


 3992      6E657200 
 3993              	.LASF159:
 3994 0478 49544D5F 		.ascii	"ITM_RxBuffer\000"
 3994      52784275 
 3994      66666572 
 3994      00
 3995              	.LASF71:
 3996 0485 656C5F66 		.ascii	"el_flags\000"
 3996      6C616773 
 3996      00
 3997              	.LASF44:
 3998 048e 705F6D74 		.ascii	"p_mtxlist\000"
 3998      786C6973 
 3998      7400
 3999              	.LASF3:
 4000 0498 73686F72 		.ascii	"short int\000"
 4000      7420696E 
 4000      7400
 4001              	.LASF35:
 4002 04a2 705F7374 		.ascii	"p_state\000"
 4002      61746500 
 4003              	.LASF38:
 4004 04aa 705F7072 		.ascii	"p_preempt\000"
 4004      65656D70 
 4004      7400
 4005              	.LASF54:
 4006 04b4 725F7072 		.ascii	"r_prio\000"
 4006      696F00
 4007              	.LASF77:
 4008 04bb 65776D61 		.ascii	"ewmask\000"
 4008      736B00
 4009              	.LASF28:
 4010 04c2 705F6E65 		.ascii	"p_next\000"
 4010      787400
 4011              	.LASF78:
 4012 04c9 42617365 		.ascii	"BaseSequentialStreamVMT\000"
 4012      53657175 
 4012      656E7469 
 4012      616C5374 
 4012      7265616D 
 4013              	.LASF36:
 4014 04e1 705F666C 		.ascii	"p_flags\000"
 4014      61677300 
 4015              	.LASF143:
 4016 04e9 43414E5F 		.ascii	"CAN_RX_SM\000"
 4016      52585F53 
 4016      4D00
 4017              	.LASF161:
 4018 04f3 63616E5F 		.ascii	"can_rxstate\000"
 4018      72787374 
 4018      61746500 
 4019              	.LASF154:
 4020 04ff 63616E5F 		.ascii	"can_tx\000"
 4020      747800
 4021              	.LASF167:
 4022 0506 63616E5F 		.ascii	"can_tx_wa\000"
 4022      74785F77 
ARM GAS  C:\Users\DNIEL~1\AppData\Local\Temp\ccGM5WUW.s 			page 79


 4022      6100
 4023              	.LASF43:
 4024 0510 705F6570 		.ascii	"p_epending\000"
 4024      656E6469 
 4024      6E6700
 4025              	.LASF104:
 4026 051b 52455345 		.ascii	"RESERVED5\000"
 4026      52564544 
 4026      3500
 4027              	.LASF14:
 4028 0525 75696E74 		.ascii	"uint32_t\000"
 4028      33325F74 
 4028      00
 4029              	.LASF53:
 4030 052e 725F7175 		.ascii	"r_queue\000"
 4030      65756500 
 4031              	.LASF131:
 4032 0536 7478656D 		.ascii	"txempty_event\000"
 4032      7074795F 
 4032      6576656E 
 4032      7400
 4033              	.LASF8:
 4034 0544 6C6F6E67 		.ascii	"long unsigned int\000"
 4034      20756E73 
 4034      69676E65 
 4034      6420696E 
 4034      7400
 4035              	.LASF80:
 4036 0556 72656164 		.ascii	"read\000"
 4036      00
 4037              	.LASF9:
 4038 055b 63686172 		.ascii	"char\000"
 4038      00
 4039              	.LASF146:
 4040 0560 43414E5F 		.ascii	"CAN_RX_LC\000"
 4040      52585F4C 
 4040      4300
 4041              	.LASF127:
 4042 056a 636F6E66 		.ascii	"config\000"
 4042      696700
 4043              	.LASF88:
 4044 0571 52444852 		.ascii	"RDHR\000"
 4044      00
 4045              	.LASF66:
 4046 0576 6D5F6E65 		.ascii	"m_next\000"
 4046      787400
 4047              	.LASF25:
 4048 057d 73797374 		.ascii	"systime_t\000"
 4048      696D655F 
 4048      7400
 4049              	.LASF45:
 4050 0587 705F7265 		.ascii	"p_realprio\000"
 4050      616C7072 
 4050      696F00
 4051              	.LASF119:
 4052 0592 64617461 		.ascii	"data8\000"
 4052      3800
ARM GAS  C:\Users\DNIEL~1\AppData\Local\Temp\ccGM5WUW.s 			page 80


 4053              	.LASF95:
 4054 0598 73464946 		.ascii	"sFIFOMailBox\000"
 4054      4F4D6169 
 4054      6C426F78 
 4054      00
 4055              	.LASF138:
 4056 05a5 5F5F6170 		.ascii	"__ap\000"
 4056      00
 4057              	.LASF52:
 4058 05aa 636F6E74 		.ascii	"context\000"
 4058      65787400 
 4059              	.LASF97:
 4060 05b2 464D3152 		.ascii	"FM1R\000"
 4060      00
 4061              	.LASF51:
 4062 05b7 696E7463 		.ascii	"intctx\000"
 4062      747800
 4063              	.LASF170:
 4064 05be 7372632F 		.ascii	"src/can_comm.c\000"
 4064      63616E5F 
 4064      636F6D6D 
 4064      2E6300
 4065              	.LASF60:
 4066 05cd 53656D61 		.ascii	"Semaphore\000"
 4066      70686F72 
 4066      6500
 4067              	.LASF24:
 4068 05d7 666C6167 		.ascii	"flagsmask_t\000"
 4068      736D6173 
 4068      6B5F7400 
 4069              	.LASF120:
 4070 05e3 64617461 		.ascii	"data16\000"
 4070      313600
 4071              	.LASF99:
 4072 05ea 46533152 		.ascii	"FS1R\000"
 4072      00
 4073              	.LASF34:
 4074 05ef 705F6E61 		.ascii	"p_name\000"
 4074      6D6500
 4075              	.LASF73:
 4076 05f6 65735F6E 		.ascii	"es_next\000"
 4076      65787400 
 4077              	.LASF59:
 4078 05fe 52656164 		.ascii	"ReadyList\000"
 4078      794C6973 
 4078      7400
 4079              	.LASF89:
 4080 0608 43414E5F 		.ascii	"CAN_FIFOMailBox_TypeDef\000"
 4080      4649464F 
 4080      4D61696C 
 4080      426F785F 
 4080      54797065 
 4081              	.LASF149:
 4082 0620 63616E5F 		.ascii	"can_rxState\000"
 4082      72785374 
 4082      61746500 
 4083              	.LASF11:
ARM GAS  C:\Users\DNIEL~1\AppData\Local\Temp\ccGM5WUW.s 			page 81


 4084 062c 75696E74 		.ascii	"uint8_t\000"
 4084      385F7400 
 4085              	.LASF129:
 4086 0634 72787365 		.ascii	"rxsem\000"
 4086      6D00
 4087              	.LASF144:
 4088 063a 43414E5F 		.ascii	"CAN_RX_ML\000"
 4088      52585F4D 
 4088      4C00
 4089              	.LASF67:
 4090 0644 4576656E 		.ascii	"EventListener\000"
 4090      744C6973 
 4090      74656E65 
 4090      7200
 4091              	.LASF76:
 4092 0652 77746F62 		.ascii	"wtobjp\000"
 4092      6A7000
 4093              	.LASF169:
 4094 0659 474E5520 		.ascii	"GNU C 4.5.2\000"
 4094      4320342E 
 4094      352E3200 
 4095              	.LASF156:
 4096 0665 61726763 		.ascii	"argc\000"
 4096      00
 4097              	.LASF155:
 4098 066a 74785F73 		.ascii	"tx_status\000"
 4098      74617475 
 4098      7300
 4099              	.LASF115:
 4100 0674 43414E5F 		.ascii	"CAN_STARTING\000"
 4100      53544152 
 4100      54494E47 
 4100      00
 4101              	.LASF42:
 4102 0681 705F6D73 		.ascii	"p_msg\000"
 4102      6700
 4103              	.LASF112:
 4104 0687 42617365 		.ascii	"BaseChannel\000"
 4104      4368616E 
 4104      6E656C00 
 4105              	.LASF87:
 4106 0693 52444C52 		.ascii	"RDLR\000"
 4106      00
 4107              	.LASF157:
 4108 0698 61726776 		.ascii	"argv\000"
 4108      00
 4109              	.LASF65:
 4110 069d 6D5F6F77 		.ascii	"m_owner\000"
 4110      6E657200 
 4111              	.LASF31:
 4112 06a5 705F6374 		.ascii	"p_ctx\000"
 4112      7800
 4113              	.LASF40:
 4114 06ab 705F7761 		.ascii	"p_waiting\000"
 4114      6974696E 
 4114      6700
 4115              	.LASF172:
ARM GAS  C:\Users\DNIEL~1\AppData\Local\Temp\ccGM5WUW.s 			page 82


 4116 06b5 63687072 		.ascii	"chprintf\000"
 4116      696E7466 
 4116      00
 4117              		.ident	"GCC: (Sourcery G++ Lite 2011.03-42) 4.5.2"
ARM GAS  C:\Users\DNIEL~1\AppData\Local\Temp\ccGM5WUW.s 			page 83


DEFINED SYMBOLS
                            *ABS*:00000000 can_comm.c
C:\Users\DNIEL~1\AppData\Local\Temp\ccGM5WUW.s:24     .text.chprintf:00000000 $t
C:\Users\DNIEL~1\AppData\Local\Temp\ccGM5WUW.s:29     .text.chprintf:00000000 chprintf
C:\Users\DNIEL~1\AppData\Local\Temp\ccGM5WUW.s:69     .text.can_rx:00000000 $t
C:\Users\DNIEL~1\AppData\Local\Temp\ccGM5WUW.s:74     .text.can_rx:00000000 can_rx
C:\Users\DNIEL~1\AppData\Local\Temp\ccGM5WUW.s:220    .text.can_rx:000000c4 $d
C:\Users\DNIEL~1\AppData\Local\Temp\ccGM5WUW.s:232    .text.can_tx:00000000 $t
C:\Users\DNIEL~1\AppData\Local\Temp\ccGM5WUW.s:237    .text.can_tx:00000000 can_tx
C:\Users\DNIEL~1\AppData\Local\Temp\ccGM5WUW.s:316    .text.can_tx:00000064 $d
C:\Users\DNIEL~1\AppData\Local\Temp\ccGM5WUW.s:324    .text.can_commInit:00000000 $t
C:\Users\DNIEL~1\AppData\Local\Temp\ccGM5WUW.s:330    .text.can_commInit:00000000 can_commInit
C:\Users\DNIEL~1\AppData\Local\Temp\ccGM5WUW.s:394    .text.can_commInit:00000054 $d
C:\Users\DNIEL~1\AppData\Local\Temp\ccGM5WUW.s:405    .text.cmd_can_commvalues:00000000 $t
C:\Users\DNIEL~1\AppData\Local\Temp\ccGM5WUW.s:411    .text.cmd_can_commvalues:00000000 cmd_can_commvalues
C:\Users\DNIEL~1\AppData\Local\Temp\ccGM5WUW.s:556    .text.cmd_can_commvalues:000000f4 $d
C:\Users\DNIEL~1\AppData\Local\Temp\ccGM5WUW.s:587    .bss.can_rxstate:00000000 can_rxstate
C:\Users\DNIEL~1\AppData\Local\Temp\ccGM5WUW.s:606    .bss.can_txstate:00000000 can_txstate
C:\Users\DNIEL~1\AppData\Local\Temp\ccGM5WUW.s:588    .bss.can_rxstate:00000000 $d
C:\Users\DNIEL~1\AppData\Local\Temp\ccGM5WUW.s:590    .bss.id:00000000 $d
C:\Users\DNIEL~1\AppData\Local\Temp\ccGM5WUW.s:594    .bss.id:00000000 id
C:\Users\DNIEL~1\AppData\Local\Temp\ccGM5WUW.s:597    .bss.txmsg:00000000 $d
C:\Users\DNIEL~1\AppData\Local\Temp\ccGM5WUW.s:601    .bss.txmsg:00000000 txmsg
C:\Users\DNIEL~1\AppData\Local\Temp\ccGM5WUW.s:607    .bss.can_txstate:00000000 $d
C:\Users\DNIEL~1\AppData\Local\Temp\ccGM5WUW.s:609    .bss.can_tx_wa:00000000 $d
C:\Users\DNIEL~1\AppData\Local\Temp\ccGM5WUW.s:613    .bss.can_tx_wa:00000000 can_tx_wa
C:\Users\DNIEL~1\AppData\Local\Temp\ccGM5WUW.s:616    .rodata.str1.4:00000000 $d
C:\Users\DNIEL~1\AppData\Local\Temp\ccGM5WUW.s:675    .bss.messages:00000000 $d
C:\Users\DNIEL~1\AppData\Local\Temp\ccGM5WUW.s:679    .bss.messages:00000000 messages
C:\Users\DNIEL~1\AppData\Local\Temp\ccGM5WUW.s:682    .bss.rxmsg:00000000 $d
C:\Users\DNIEL~1\AppData\Local\Temp\ccGM5WUW.s:686    .bss.rxmsg:00000000 rxmsg
C:\Users\DNIEL~1\AppData\Local\Temp\ccGM5WUW.s:689    .bss.can_rx_wa:00000000 $d
C:\Users\DNIEL~1\AppData\Local\Temp\ccGM5WUW.s:693    .bss.can_rx_wa:00000000 can_rx_wa
C:\Users\DNIEL~1\AppData\Local\Temp\ccGM5WUW.s:696    .rodata.cancfg:00000000 $d
C:\Users\DNIEL~1\AppData\Local\Temp\ccGM5WUW.s:700    .rodata.cancfg:00000000 cancfg
                     .debug_frame:00000010 $d
C:\Users\DNIEL~1\AppData\Local\Temp\ccGM5WUW.s:231    .text.can_rx:000000e4 $t
C:\Users\DNIEL~1\AppData\Local\Temp\ccGM5WUW.s:323    .text.can_tx:00000074 $t
C:\Users\DNIEL~1\AppData\Local\Temp\ccGM5WUW.s:583    .text.cmd_can_commvalues:0000014c $t

UNDEFINED SYMBOLS
chvprintf
chEvtRegisterMask
chEvtWaitAnyTimeout
canReceive
lightWarning
lightLeft
lightRight
chEvtUnregister
rlist
CAND1
one_vireGetValue
canTransmit
chThdSleep
canStart
chThdCreateStatic
