ARM GAS  C:\Users\DNIEL~1\AppData\Local\Temp\ccs7G6af.s 			page 1


   1              		.syntax unified
   2              		.cpu cortex-m4
   3              		.fpu softvfp
   4              		.eabi_attribute 20, 1
   5              		.eabi_attribute 21, 1
   6              		.eabi_attribute 23, 3
   7              		.eabi_attribute 24, 1
   8              		.eabi_attribute 25, 1
   9              		.eabi_attribute 26, 1
  10              		.eabi_attribute 30, 2
  11              		.eabi_attribute 18, 4
  12              		.thumb
  13              		.file	"can_comm.c"
  14              		.section	.debug_abbrev,"",%progbits
  15              	.Ldebug_abbrev0:
  16              		.section	.debug_info,"",%progbits
  17              	.Ldebug_info0:
  18              		.section	.debug_line,"",%progbits
  19              	.Ldebug_line0:
  20 0000 71040000 		.text
  20      02000A03 
  20      00000201 
  20      FB0E0D00 
  20      01010101 
  21              	.Ltext0:
  22              		.cfi_sections	.debug_frame
  23              		.section	.text.chprintf,"ax",%progbits
  24              		.align	2
  25              		.p2align 4,,15
  26              		.thumb
  27              		.thumb_func
  28              		.type	chprintf, %function
  29              	chprintf:
  30              	.LFB118:
  31              		.file 1 "../../../Chibios/os/various/chprintf.h"
  32              		.loc 1 69 0
  33              		.cfi_startproc
  34              		@ args = 4, pretend = 12, frame = 8
  35              		@ frame_needed = 0, uses_anonymous_args = 1
  36              	.LVL0:
  37 0000 0EB4     		push	{r1, r2, r3}
  38              	.LCFI0:
  39              		.cfi_def_cfa_offset 12
  40 0002 00B5     		push	{lr}
  41              	.LCFI1:
  42              		.cfi_def_cfa_offset 16
  43 0004 82B0     		sub	sp, sp, #8
  44              	.LCFI2:
  45              		.cfi_def_cfa_offset 24
  46              		.loc 1 69 0
  47 0006 03AB     		add	r3, sp, #12
  48              		.cfi_offset 14, -16
  49              		.cfi_offset 3, -4
  50              		.cfi_offset 2, -8
  51              		.cfi_offset 1, -12
  52 0008 53F8041B 		ldr	r1, [r3], #4
  53              		.loc 1 73 0
ARM GAS  C:\Users\DNIEL~1\AppData\Local\Temp\ccs7G6af.s 			page 2


  54 000c 1A46     		mov	r2, r3
  55              		.loc 1 72 0
  56 000e 0193     		str	r3, [sp, #4]
  57              		.loc 1 73 0
  58 0010 FFF7FEFF 		bl	chvprintf
  59              	.LVL1:
  60              		.loc 1 75 0
  61 0014 02B0     		add	sp, sp, #8
  62 0016 5DF804EB 		pop	{lr}
  63 001a 03B0     		add	sp, sp, #12
  64 001c 7047     		bx	lr
  65              		.cfi_endproc
  66              	.LFE118:
  67              		.size	chprintf, .-chprintf
  68 001e 00BF     		.section	.text.can_rx,"ax",%progbits
  69              		.align	2
  70              		.p2align 4,,15
  71              		.thumb
  72              		.thumb_func
  73              		.type	can_rx, %function
  74              	can_rx:
  75              	.LFB119:
  76              		.file 2 "src/can_comm.c"
  77              		.loc 2 85 0
  78              		.cfi_startproc
  79              		@ args = 0, pretend = 0, frame = 24
  80              		@ frame_needed = 0, uses_anonymous_args = 0
  81              	.LVL2:
  82 0000 2DE9F041 		push	{r4, r5, r6, r7, r8, lr}
  83              	.LCFI3:
  84              		.cfi_def_cfa_offset 24
  85              		.loc 2 91 0
  86 0004 DFF88481 		ldr	r8, .L37+28
  87              		.cfi_offset 14, -4
  88              		.cfi_offset 8, -8
  89              		.cfi_offset 7, -12
  90              		.cfi_offset 6, -16
  91              		.cfi_offset 5, -20
  92              		.cfi_offset 4, -24
  93 0008 594A     		ldr	r2, .L37
  94 000a D8F81830 		ldr	r3, [r8, #24]
  95              		.loc 2 92 0
  96 000e 5948     		ldr	r0, .L37+4
  97              	.LVL3:
  98              		.loc 2 91 0
  99 0010 9A61     		str	r2, [r3, #24]
 100              		.loc 2 85 0
 101 0012 86B0     		sub	sp, sp, #24
 102              	.LCFI4:
 103              		.cfi_def_cfa_offset 48
 104              		.loc 2 92 0
 105 0014 02A9     		add	r1, sp, #8
 106 0016 0122     		movs	r2, #1
 107 0018 FFF7FEFF 		bl	chEvtRegisterMask
 108              		.loc 2 96 0
 109 001c 564F     		ldr	r7, .L37+8
 110              		.loc 2 99 0
ARM GAS  C:\Users\DNIEL~1\AppData\Local\Temp\ccs7G6af.s 			page 3


 111 001e 574E     		ldr	r6, .L37+12
 112              		.loc 2 100 0
 113 0020 574D     		ldr	r5, .L37+16
 114              		.loc 2 123 0
 115 0022 584C     		ldr	r4, .L37+20
 116              	.L24:
 117              		.loc 2 93 0 discriminator 1
 118 0024 D8F81830 		ldr	r3, [r8, #24]
 119 0028 93F81DE0 		ldrb	lr, [r3, #29]	@ zero_extendqisi2
 120 002c 1EF0040F 		tst	lr, #4
 121 0030 3FD1     		bne	.L29
 122              	.L21:
 123              		.loc 2 94 0
 124 0032 4FF0FF30 		mov	r0, #-1
 125 0036 6421     		movs	r1, #100
 126 0038 FFF7FEFF 		bl	chEvtWaitAnyTimeout
 127 003c 0028     		cmp	r0, #0
 128 003e F1D0     		beq	.L24
 129              		.loc 2 96 0 discriminator 1
 130 0040 0021     		movs	r1, #0
 131 0042 0B46     		mov	r3, r1
 132 0044 5048     		ldr	r0, .L37+24
 133 0046 4C4A     		ldr	r2, .L37+8
 134 0048 FFF7FEFF 		bl	canReceive
 135 004c 0146     		mov	r1, r0
 136 004e 0028     		cmp	r0, #0
 137 0050 E8D1     		bne	.L24
 138              	.L20:
 139              		.loc 2 99 0
 140 0052 BA68     		ldr	r2, [r7, #8]
 141 0054 C2F31C0E 		ubfx	lr, r2, #0, #29
 142 0058 CEF30F23 		ubfx	r3, lr, #8, #16
 143              		.loc 2 109 0
 144 005c A3F1100C 		sub	ip, r3, #16
 145 0060 1FFA8CF0 		uxth	r0, ip
 146              		.loc 2 100 0
 147 0064 5FFA8EF2 		uxtb	r2, lr
 148              		.loc 2 109 0
 149 0068 0F28     		cmp	r0, #15
 150              		.loc 2 99 0
 151 006a 3380     		strh	r3, [r6, #0]	@ movhi
 152              		.loc 2 100 0
 153 006c 2A80     		strh	r2, [r5, #0]	@ movhi
 154              	.LVL4:
 155              		.loc 2 109 0
 156 006e 0ED8     		bhi	.L14
 157              		.loc 2 129 0
 158 0070 012A     		cmp	r2, #1
 159              		.loc 2 110 0
 160 0072 2170     		strb	r1, [r4, #0]
 161              		.loc 2 129 0
 162 0074 25D0     		beq	.L30
 163              		.loc 2 132 0
 164 0076 022A     		cmp	r2, #2
 165 0078 26D0     		beq	.L31
 166              		.loc 2 135 0
 167 007a 032A     		cmp	r2, #3
ARM GAS  C:\Users\DNIEL~1\AppData\Local\Temp\ccs7G6af.s 			page 4


 168 007c 27D0     		beq	.L32
 169              		.loc 2 138 0
 170 007e 042A     		cmp	r2, #4
 171 0080 28D0     		beq	.L33
 172              		.loc 2 152 0
 173 0082 052A     		cmp	r2, #5
 174 0084 44D0     		beq	.L34
 175              		.loc 2 166 0
 176 0086 062A     		cmp	r2, #6
 177 0088 52D0     		beq	.L35
 178              		.loc 2 180 0
 179 008a 072A     		cmp	r2, #7
 180 008c 60D0     		beq	.L36
 181              	.LVL5:
 182              	.L14:
 183              		.loc 2 96 0
 184 008e 0021     		movs	r1, #0
 185              		.loc 2 194 0
 186 0090 0420     		movs	r0, #4
 187 0092 2070     		strb	r0, [r4, #0]
 188              		.loc 2 96 0
 189 0094 0B46     		mov	r3, r1
 190 0096 3C48     		ldr	r0, .L37+24
 191 0098 374A     		ldr	r2, .L37+8
 192 009a FFF7FEFF 		bl	canReceive
 193 009e 0146     		mov	r1, r0
 194 00a0 0028     		cmp	r0, #0
 195 00a2 D6D0     		beq	.L20
 196              		.loc 2 93 0
 197 00a4 D8F81830 		ldr	r3, [r8, #24]
 198 00a8 93F81DE0 		ldrb	lr, [r3, #29]	@ zero_extendqisi2
 199 00ac 1EF0040F 		tst	lr, #4
 200 00b0 BFD0     		beq	.L21
 201              	.L29:
 202              		.loc 2 217 0
 203 00b2 3048     		ldr	r0, .L37+4
 204 00b4 02A9     		add	r1, sp, #8
 205 00b6 FFF7FEFF 		bl	chEvtUnregister
 206              		.loc 2 220 0
 207 00ba 0020     		movs	r0, #0
 208 00bc 06B0     		add	sp, sp, #24
 209 00be BDE8F081 		pop	{r4, r5, r6, r7, r8, pc}
 210              	.LVL6:
 211              	.L30:
 212              		.loc 2 130 0
 213 00c2 FFF7FEFF 		bl	lightRight
 214 00c6 E2E7     		b	.L14
 215              	.L31:
 216              		.loc 2 133 0
 217 00c8 FFF7FEFF 		bl	lightLeft
 218 00cc DFE7     		b	.L14
 219              	.L32:
 220              		.loc 2 136 0
 221 00ce FFF7FEFF 		bl	lightWarning
 222 00d2 DCE7     		b	.L14
 223              	.L33:
 224              		.loc 2 139 0
ARM GAS  C:\Users\DNIEL~1\AppData\Local\Temp\ccs7G6af.s 			page 5


 225 00d4 0191     		str	r1, [sp, #4]
 226 00d6 FFF7FEFF 		bl	lightBrakeON
 227              	.LVL7:
 228              		.loc 2 141 0
 229 00da 0199     		ldr	r1, [sp, #4]
 230 00dc 0028     		cmp	r0, #0
 231 00de D6D0     		beq	.L14
 232              		.loc 2 143 0
 233 00e0 DFF8ACE0 		ldr	lr, .L37+32
 234              		.loc 2 149 0
 235 00e4 2848     		ldr	r0, .L37+24
 236              	.LVL8:
 237              		.loc 2 143 0
 238 00e6 DEF804C0 		ldr	ip, [lr, #4]
 239 00ea 42F20202 		movw	r2, #8194
 240 00ee 62F31C0C 		bfi	ip, r2, #0, #29
 241              	.L27:
 242              		.loc 2 185 0
 243 00f2 CEF804C0 		str	ip, [lr, #4]
 244              		.loc 2 188 0
 245 00f6 4FF0553C 		mov	ip, #1431655765
 246 00fa CEF808C0 		str	ip, [lr, #8]
 247              		.loc 2 189 0
 248 00fe 4FF0AA3C 		mov	ip, #-1431655766
 249              		.loc 2 191 0
 250 0102 7246     		mov	r2, lr
 251 0104 6423     		movs	r3, #100
 252              		.loc 2 189 0
 253 0106 CEF80CC0 		str	ip, [lr, #12]
 254              		.loc 2 191 0
 255 010a FFF7FEFF 		bl	canTransmit
 256 010e BEE7     		b	.L14
 257              	.LVL9:
 258              	.L34:
 259              		.loc 2 153 0
 260 0110 0191     		str	r1, [sp, #4]
 261 0112 FFF7FEFF 		bl	lightBrakeOFF
 262              	.LVL10:
 263              		.loc 2 155 0
 264 0116 0199     		ldr	r1, [sp, #4]
 265 0118 0028     		cmp	r0, #0
 266 011a B8D0     		beq	.L14
 267              		.loc 2 157 0
 268 011c DFF870E0 		ldr	lr, .L37+32
 269              		.loc 2 163 0
 270 0120 1948     		ldr	r0, .L37+24
 271              	.LVL11:
 272              		.loc 2 157 0
 273 0122 DEF804C0 		ldr	ip, [lr, #4]
 274 0126 42F20303 		movw	r3, #8195
 275 012a 63F31C0C 		bfi	ip, r3, #0, #29
 276 012e E0E7     		b	.L27
 277              	.LVL12:
 278              	.L35:
 279              		.loc 2 167 0
 280 0130 0191     		str	r1, [sp, #4]
 281 0132 FFF7FEFF 		bl	lightPosLampON
ARM GAS  C:\Users\DNIEL~1\AppData\Local\Temp\ccs7G6af.s 			page 6


 282              	.LVL13:
 283              		.loc 2 169 0
 284 0136 0199     		ldr	r1, [sp, #4]
 285 0138 0028     		cmp	r0, #0
 286 013a A8D0     		beq	.L14
 287              		.loc 2 171 0
 288 013c DFF850E0 		ldr	lr, .L37+32
 289              		.loc 2 177 0
 290 0140 1148     		ldr	r0, .L37+24
 291              	.LVL14:
 292              		.loc 2 171 0
 293 0142 DEF804C0 		ldr	ip, [lr, #4]
 294 0146 42F20402 		movw	r2, #8196
 295 014a 62F31C0C 		bfi	ip, r2, #0, #29
 296 014e D0E7     		b	.L27
 297              	.LVL15:
 298              	.L36:
 299              		.loc 2 181 0
 300 0150 FFF7FEFF 		bl	lightPosLampOFF
 301              	.LVL16:
 302              		.loc 2 183 0
 303 0154 0028     		cmp	r0, #0
 304 0156 9AD0     		beq	.L14
 305              		.loc 2 185 0
 306 0158 DFF834E0 		ldr	lr, .L37+32
 307              		.loc 2 191 0
 308 015c 0A48     		ldr	r0, .L37+24
 309              	.LVL17:
 310              		.loc 2 185 0
 311 015e DEF804C0 		ldr	ip, [lr, #4]
 312 0162 42F20501 		movw	r1, #8197
 313 0166 61F31C0C 		bfi	ip, r1, #0, #29
 314              		.loc 2 191 0
 315 016a 0021     		movs	r1, #0
 316 016c C1E7     		b	.L27
 317              	.L38:
 318 016e 00BF     		.align	2
 319              	.L37:
 320 0170 00000000 		.word	.LC0
 321 0174 20000000 		.word	CAND1+32
 322 0178 00000000 		.word	.LANCHOR0
 323 017c 00000000 		.word	.LANCHOR1
 324 0180 00000000 		.word	.LANCHOR2
 325 0184 00000000 		.word	.LANCHOR3
 326 0188 00000000 		.word	CAND1
 327 018c 00000000 		.word	rlist
 328 0190 00000000 		.word	.LANCHOR4
 329              		.cfi_endproc
 330              	.LFE119:
 331              		.size	can_rx, .-can_rx
 332 0194 AFF30080 		.section	.text.can_tx,"ax",%progbits
 332      AFF30080 
 332      AFF30080 
 333              		.align	2
 334              		.p2align 4,,15
 335              		.thumb
 336              		.thumb_func
ARM GAS  C:\Users\DNIEL~1\AppData\Local\Temp\ccs7G6af.s 			page 7


 337              		.type	can_tx, %function
 338              	can_tx:
 339              	.LFB120:
 340              		.loc 2 223 0
 341              		.cfi_startproc
 342              		@ args = 0, pretend = 0, frame = 0
 343              		@ frame_needed = 0, uses_anonymous_args = 0
 344              	.LVL18:
 345 0000 70B5     		push	{r4, r5, r6, lr}
 346              	.LCFI5:
 347              		.cfi_def_cfa_offset 16
 348              		.loc 2 226 0
 349 0002 184D     		ldr	r5, .L43
 350              		.cfi_offset 14, -4
 351              		.cfi_offset 6, -8
 352              		.cfi_offset 5, -12
 353              		.cfi_offset 4, -16
 354 0004 1849     		ldr	r1, .L43+4
 355 0006 AB69     		ldr	r3, [r5, #24]
 356              		.loc 2 230 0
 357 0008 5A7F     		ldrb	r2, [r3, #29]	@ zero_extendqisi2
 358              		.loc 2 226 0
 359 000a 9961     		str	r1, [r3, #24]
 360              		.loc 2 230 0
 361 000c 12F0040F 		tst	r2, #4
 362 0010 25D1     		bne	.L40
 363 0012 164C     		ldr	r4, .L43+8
 364              		.loc 2 235 0
 365 0014 42F20106 		movw	r6, #8193
 366              	.LVL19:
 367              	.L41:
 368              		.loc 2 235 0 is_stmt 0 discriminator 1
 369 0018 6168     		ldr	r1, [r4, #4]
 370              		.loc 2 237 0 is_stmt 1 discriminator 1
 371 001a 0020     		movs	r0, #0
 372              		.loc 2 235 0 discriminator 1
 373 001c 66F31C01 		bfi	r1, r6, #0, #29
 374 0020 6160     		str	r1, [r4, #4]
 375              		.loc 2 237 0 discriminator 1
 376 0022 FFF7FEFF 		bl	one_vireGetValue
 377 0026 2081     		strh	r0, [r4, #8]	@ movhi
 378              		.loc 2 238 0 discriminator 1
 379 0028 0120     		movs	r0, #1
 380 002a FFF7FEFF 		bl	one_vireGetValue
 381 002e 6081     		strh	r0, [r4, #10]	@ movhi
 382              		.loc 2 239 0 discriminator 1
 383 0030 0220     		movs	r0, #2
 384 0032 FFF7FEFF 		bl	one_vireGetValue
 385 0036 A081     		strh	r0, [r4, #12]	@ movhi
 386              		.loc 2 240 0 discriminator 1
 387 0038 0320     		movs	r0, #3
 388 003a FFF7FEFF 		bl	one_vireGetValue
 389              		.loc 2 242 0 discriminator 1
 390 003e 0021     		movs	r1, #0
 391 0040 0A4A     		ldr	r2, .L43+8
 392              		.loc 2 240 0 discriminator 1
 393 0042 E081     		strh	r0, [r4, #14]	@ movhi
ARM GAS  C:\Users\DNIEL~1\AppData\Local\Temp\ccs7G6af.s 			page 8


 394              		.loc 2 242 0 discriminator 1
 395 0044 6423     		movs	r3, #100
 396 0046 0A48     		ldr	r0, .L43+12
 397 0048 FFF7FEFF 		bl	canTransmit
 398              	.LVL20:
 399              		.loc 2 249 0 discriminator 1
 400 004c 4FF47A70 		mov	r0, #1000
 401 0050 FFF7FEFF 		bl	chThdSleep
 402              		.loc 2 230 0 discriminator 1
 403 0054 AA69     		ldr	r2, [r5, #24]
 404 0056 507F     		ldrb	r0, [r2, #29]	@ zero_extendqisi2
 405 0058 10F0040F 		tst	r0, #4
 406 005c DCD0     		beq	.L41
 407              	.LVL21:
 408              	.L40:
 409              		.loc 2 252 0
 410 005e 0020     		movs	r0, #0
 411 0060 70BD     		pop	{r4, r5, r6, pc}
 412              	.L44:
 413 0062 00BF     		.align	2
 414              	.L43:
 415 0064 00000000 		.word	rlist
 416 0068 0C000000 		.word	.LC1
 417 006c 00000000 		.word	.LANCHOR4
 418 0070 00000000 		.word	CAND1
 419              		.cfi_endproc
 420              	.LFE120:
 421              		.size	can_tx, .-can_tx
 422 0074 AFF30080 		.section	.text.can_commInit,"ax",%progbits
 422      AFF30080 
 422      AFF30080 
 423              		.align	2
 424              		.p2align 4,,15
 425              		.global	can_commInit
 426              		.thumb
 427              		.thumb_func
 428              		.type	can_commInit, %function
 429              	can_commInit:
 430              	.LFB121:
 431              		.loc 2 254 0
 432              		.cfi_startproc
 433              		@ args = 0, pretend = 0, frame = 0
 434              		@ frame_needed = 0, uses_anonymous_args = 0
 435 0000 10B5     		push	{r4, lr}
 436              	.LCFI6:
 437              		.cfi_def_cfa_offset 8
 438              		.loc 2 255 0
 439 0002 114B     		ldr	r3, .L46
 440              		.loc 2 259 0
 441 0004 1148     		ldr	r0, .L46+4
 442              		.loc 2 255 0
 443 0006 93F800E0 		ldrb	lr, [r3, #0]	@ zero_extendqisi2
 444              		.cfi_offset 14, -4
 445              		.cfi_offset 4, -8
 446              		.loc 2 259 0
 447 000a 1149     		ldr	r1, .L46+8
 448              		.loc 2 256 0
ARM GAS  C:\Users\DNIEL~1\AppData\Local\Temp\ccs7G6af.s 			page 9


 449 000c 4EF0200C 		orr	ip, lr, #32
 450              		.loc 2 257 0
 451 0010 0CF0EF02 		and	r2, ip, #239
 452 0014 0824     		movs	r4, #8
 453 0016 64F30302 		bfi	r2, r4, #0, #4
 454              		.loc 2 254 0
 455 001a 82B0     		sub	sp, sp, #8
 456              	.LCFI7:
 457              		.cfi_def_cfa_offset 16
 458              		.loc 2 257 0
 459 001c 1A70     		strb	r2, [r3, #0]
 460              		.loc 2 259 0
 461 001e FFF7FEFF 		bl	canStart
 462              		.loc 2 261 0
 463 0022 0024     		movs	r4, #0
 464 0024 4722     		movs	r2, #71
 465 0026 4FF4E871 		mov	r1, #464
 466 002a 0A4B     		ldr	r3, .L46+12
 467 002c 0A48     		ldr	r0, .L46+16
 468 002e 0094     		str	r4, [sp, #0]
 469 0030 FFF7FEFF 		bl	chThdCreateStatic
 470              		.loc 2 262 0
 471 0034 094B     		ldr	r3, .L46+20
 472 0036 0A48     		ldr	r0, .L46+24
 473 0038 0094     		str	r4, [sp, #0]
 474 003a 4FF4E871 		mov	r1, #464
 475 003e 4022     		movs	r2, #64
 476 0040 FFF7FEFF 		bl	chThdCreateStatic
 477              		.loc 2 263 0
 478 0044 02B0     		add	sp, sp, #8
 479 0046 10BD     		pop	{r4, pc}
 480              	.L47:
 481              		.align	2
 482              	.L46:
 483 0048 00000000 		.word	.LANCHOR4
 484 004c 00000000 		.word	CAND1
 485 0050 00000000 		.word	.LANCHOR5
 486 0054 00000000 		.word	can_tx
 487 0058 00000000 		.word	.LANCHOR6
 488 005c 00000000 		.word	can_rx
 489 0060 00000000 		.word	.LANCHOR7
 490              		.cfi_endproc
 491              	.LFE121:
 492              		.size	can_commInit, .-can_commInit
 493 0064 AFF30080 		.section	.text.cmd_can_commvalues,"ax",%progbits
 493      AFF30080 
 493      AFF30080 
 494              		.align	2
 495              		.p2align 4,,15
 496              		.global	cmd_can_commvalues
 497              		.thumb
 498              		.thumb_func
 499              		.type	cmd_can_commvalues, %function
 500              	cmd_can_commvalues:
 501              	.LFB122:
 502              		.loc 2 265 0
 503              		.cfi_startproc
ARM GAS  C:\Users\DNIEL~1\AppData\Local\Temp\ccs7G6af.s 			page 10


 504              		@ args = 0, pretend = 0, frame = 0
 505              		@ frame_needed = 0, uses_anonymous_args = 0
 506              	.LVL22:
 507 0000 2DE9F041 		push	{r4, r5, r6, r7, r8, lr}
 508              	.LCFI8:
 509              		.cfi_def_cfa_offset 24
 510              		.loc 2 269 0
 511 0004 3B49     		ldr	r1, .L51
 512              	.LVL23:
 513              		.loc 2 274 0
 514 0006 3C4E     		ldr	r6, .L51+4
 515              		.cfi_offset 14, -4
 516              		.cfi_offset 8, -8
 517              		.cfi_offset 7, -12
 518              		.cfi_offset 6, -16
 519              		.cfi_offset 5, -20
 520              		.cfi_offset 4, -24
 521              		.loc 2 275 0
 522 0008 3C4F     		ldr	r7, .L51+8
 523              		.loc 2 276 0
 524 000a DFF83C81 		ldr	r8, .L51+84
 525              		.loc 2 265 0
 526 000e 0446     		mov	r4, r0
 527              		.loc 2 269 0
 528 0010 FFF7FEFF 		bl	chprintf
 529              	.LVL24:
 530              		.loc 2 270 0
 531 0014 2046     		mov	r0, r4
 532 0016 3A49     		ldr	r1, .L51+12
 533 0018 FFF7FEFF 		bl	chprintf
 534              		.loc 2 271 0
 535 001c 5FE0     		b	.L49
 536              	.L50:
 537              		.loc 2 272 0
 538 001e 0022     		movs	r2, #0
 539 0020 1346     		mov	r3, r2
 540 0022 3849     		ldr	r1, .L51+16
 541              		.loc 2 284 0
 542 0024 384D     		ldr	r5, .L51+20
 543              		.loc 2 272 0
 544 0026 2046     		mov	r0, r4
 545 0028 FFF7FEFF 		bl	chprintf
 546              		.loc 2 273 0
 547 002c 2046     		mov	r0, r4
 548 002e 3749     		ldr	r1, .L51+24
 549 0030 FFF7FEFF 		bl	chprintf
 550              		.loc 2 274 0
 551 0034 B068     		ldr	r0, [r6, #8]
 552 0036 3649     		ldr	r1, .L51+28
 553 0038 20F06042 		bic	r2, r0, #-536870912
 554 003c 2046     		mov	r0, r4
 555 003e FFF7FEFF 		bl	chprintf
 556              		.loc 2 275 0
 557 0042 2046     		mov	r0, r4
 558 0044 3349     		ldr	r1, .L51+32
 559 0046 3A88     		ldrh	r2, [r7, #0]
 560 0048 FFF7FEFF 		bl	chprintf
ARM GAS  C:\Users\DNIEL~1\AppData\Local\Temp\ccs7G6af.s 			page 11


 561              		.loc 2 276 0
 562 004c B8F80020 		ldrh	r2, [r8, #0]
 563 0050 3149     		ldr	r1, .L51+36
 564 0052 2046     		mov	r0, r4
 565 0054 FFF7FEFF 		bl	chprintf
 566              		.loc 2 277 0
 567 0058 2046     		mov	r0, r4
 568 005a 3049     		ldr	r1, .L51+40
 569 005c FFF7FEFF 		bl	chprintf
 570              		.loc 2 278 0
 571 0060 2046     		mov	r0, r4
 572 0062 2F49     		ldr	r1, .L51+44
 573 0064 B289     		ldrh	r2, [r6, #12]
 574 0066 FFF7FEFF 		bl	chprintf
 575              		.loc 2 279 0
 576 006a 2046     		mov	r0, r4
 577 006c 2D49     		ldr	r1, .L51+48
 578 006e F289     		ldrh	r2, [r6, #14]
 579 0070 FFF7FEFF 		bl	chprintf
 580              		.loc 2 280 0
 581 0074 2046     		mov	r0, r4
 582 0076 2C49     		ldr	r1, .L51+52
 583 0078 328A     		ldrh	r2, [r6, #16]
 584 007a FFF7FEFF 		bl	chprintf
 585              		.loc 2 281 0
 586 007e 728A     		ldrh	r2, [r6, #18]
 587 0080 2A49     		ldr	r1, .L51+56
 588 0082 2046     		mov	r0, r4
 589 0084 FFF7FEFF 		bl	chprintf
 590              		.loc 2 282 0
 591 0088 2046     		mov	r0, r4
 592 008a 2449     		ldr	r1, .L51+40
 593 008c FFF7FEFF 		bl	chprintf
 594              		.loc 2 283 0
 595 0090 2046     		mov	r0, r4
 596 0092 2749     		ldr	r1, .L51+60
 597 0094 FFF7FEFF 		bl	chprintf
 598              		.loc 2 284 0
 599 0098 6A68     		ldr	r2, [r5, #4]
 600 009a 2649     		ldr	r1, .L51+64
 601 009c 22F06042 		bic	r2, r2, #-536870912
 602 00a0 2046     		mov	r0, r4
 603 00a2 FFF7FEFF 		bl	chprintf
 604              		.loc 2 285 0
 605 00a6 2046     		mov	r0, r4
 606 00a8 1C49     		ldr	r1, .L51+40
 607 00aa FFF7FEFF 		bl	chprintf
 608              		.loc 2 286 0
 609 00ae 2046     		mov	r0, r4
 610 00b0 2149     		ldr	r1, .L51+68
 611 00b2 2A89     		ldrh	r2, [r5, #8]
 612 00b4 FFF7FEFF 		bl	chprintf
 613              		.loc 2 287 0
 614 00b8 2046     		mov	r0, r4
 615 00ba 2049     		ldr	r1, .L51+72
 616 00bc 6A89     		ldrh	r2, [r5, #10]
 617 00be FFF7FEFF 		bl	chprintf
ARM GAS  C:\Users\DNIEL~1\AppData\Local\Temp\ccs7G6af.s 			page 12


 618              		.loc 2 288 0
 619 00c2 2046     		mov	r0, r4
 620 00c4 1E49     		ldr	r1, .L51+76
 621 00c6 AA89     		ldrh	r2, [r5, #12]
 622 00c8 FFF7FEFF 		bl	chprintf
 623              		.loc 2 289 0
 624 00cc 2046     		mov	r0, r4
 625 00ce 1D49     		ldr	r1, .L51+80
 626 00d0 EA89     		ldrh	r2, [r5, #14]
 627 00d2 FFF7FEFF 		bl	chprintf
 628              		.loc 2 291 0
 629 00d6 4FF47A70 		mov	r0, #1000
 630 00da FFF7FEFF 		bl	chThdSleep
 631              	.L49:
 632              		.loc 2 271 0 discriminator 1
 633 00de 2168     		ldr	r1, [r4, #0]
 634 00e0 2046     		mov	r0, r4
 635 00e2 4B69     		ldr	r3, [r1, #20]
 636 00e4 0021     		movs	r1, #0
 637 00e6 9847     		blx	r3
 638 00e8 B0F1FF3F 		cmp	r0, #-1
 639 00ec 97D0     		beq	.L50
 640              		.loc 2 293 0
 641 00ee BDE8F081 		pop	{r4, r5, r6, r7, r8, pc}
 642              	.L52:
 643 00f2 00BF     		.align	2
 644              	.L51:
 645 00f4 18000000 		.word	.LC2
 646 00f8 00000000 		.word	.LANCHOR0
 647 00fc 00000000 		.word	.LANCHOR1
 648 0100 1C000000 		.word	.LC3
 649 0104 24000000 		.word	.LC4
 650 0108 00000000 		.word	.LANCHOR4
 651 010c 30000000 		.word	.LC5
 652 0110 54000000 		.word	.LC6
 653 0114 64000000 		.word	.LC7
 654 0118 70000000 		.word	.LC8
 655 011c 84000000 		.word	.LC9
 656 0120 88000000 		.word	.LC10
 657 0124 9C000000 		.word	.LC11
 658 0128 B0000000 		.word	.LC12
 659 012c C4000000 		.word	.LC13
 660 0130 D8000000 		.word	.LC14
 661 0134 00010000 		.word	.LC15
 662 0138 10010000 		.word	.LC16
 663 013c 24010000 		.word	.LC17
 664 0140 38010000 		.word	.LC18
 665 0144 4C010000 		.word	.LC19
 666 0148 00000000 		.word	.LANCHOR2
 667              		.cfi_endproc
 668              	.LFE122:
 669              		.size	cmd_can_commvalues, .-cmd_can_commvalues
 670              		.global	can_rxstate
 671              		.global	can_txstate
 672 014c AFF30080 		.section	.bss.can_rxstate,"aw",%nobits
 673              		.set	.LANCHOR3,. + 0
 674              		.type	can_rxstate, %object
ARM GAS  C:\Users\DNIEL~1\AppData\Local\Temp\ccs7G6af.s 			page 13


 675              		.size	can_rxstate, 1
 676              	can_rxstate:
 677 0000 00       		.space	1
 678              		.section	.bss.id,"aw",%nobits
 679              		.align	1
 680              		.set	.LANCHOR1,. + 0
 681              		.type	id, %object
 682              		.size	id, 2
 683              	id:
 684 0000 0000     		.space	2
 685              		.section	.bss.txmsg,"aw",%nobits
 686              		.align	2
 687              		.set	.LANCHOR4,. + 0
 688              		.type	txmsg, %object
 689              		.size	txmsg, 16
 690              	txmsg:
 691 0000 00000000 		.space	16
 691      00000000 
 691      00000000 
 691      00000000 
 692              		.section	.bss.can_txstate,"aw",%nobits
 693              		.type	can_txstate, %object
 694              		.size	can_txstate, 1
 695              	can_txstate:
 696 0000 00       		.space	1
 697              		.section	.bss.can_tx_wa,"aw",%nobits
 698              		.align	3
 699              		.set	.LANCHOR6,. + 0
 700              		.type	can_tx_wa, %object
 701              		.size	can_tx_wa, 464
 702              	can_tx_wa:
 703 0000 00000000 		.space	464
 703      00000000 
 703      00000000 
 703      00000000 
 703      00000000 
 704              		.section	.rodata.str1.4,"aMS",%progbits,1
 705              		.align	2
 706              	.LC0:
 707 0000 72656365 		.ascii	"receiver\000"
 707      69766572 
 707      00
 708 0009 000000   		.space	3
 709              	.LC1:
 710 000c 7472616E 		.ascii	"transmitter\000"
 710      736D6974 
 710      74657200 
 711              	.LC2:
 712 0018 1B6300   		.ascii	"\033c\000"
 713 001b 00       		.space	1
 714              	.LC3:
 715 001c 1B5B324A 		.ascii	"\033[2J\000"
 715      00
 716 0021 000000   		.space	3
 717              	.LC4:
 718 0024 1B5B2564 		.ascii	"\033[%d;%dH\000"
 718      3B256448 
ARM GAS  C:\Users\DNIEL~1\AppData\Local\Temp\ccs7G6af.s 			page 14


 718      00
 719 002d 000000   		.space	3
 720              	.LC5:
 721 0030 2D2D2D2D 		.ascii	"-------- CAN BUS Receive --------\015\012\000"
 721      2D2D2D2D 
 721      2043414E 
 721      20425553 
 721      20526563 
 722              	.LC6:
 723 0054 52582E45 		.ascii	"RX.EID : %x \015\012\000"
 723      4944203A 
 723      20257820 
 723      0D0A00
 724 0063 00       		.space	1
 725              	.LC7:
 726 0064 6964203A 		.ascii	"id : %x \015\012\000"
 726      20257820 
 726      0D0A00
 727 006f 00       		.space	1
 728              	.LC8:
 729 0070 6D657373 		.ascii	"messages : %x \015\012\000"
 729      61676573 
 729      203A2025 
 729      78200D0A 
 729      00
 730 0081 000000   		.space	3
 731              	.LC9:
 732 0084 0D0A00   		.ascii	"\015\012\000"
 733 0087 00       		.space	1
 734              	.LC10:
 735 0088 52582E44 		.ascii	"RX.DATA1 : %d \015\012\000"
 735      41544131 
 735      203A2025 
 735      64200D0A 
 735      00
 736 0099 000000   		.space	3
 737              	.LC11:
 738 009c 52582E44 		.ascii	"RX.DATA2 : %d \015\012\000"
 738      41544132 
 738      203A2025 
 738      64200D0A 
 738      00
 739 00ad 000000   		.space	3
 740              	.LC12:
 741 00b0 52582E44 		.ascii	"RX.DATA3 : %d \015\012\000"
 741      41544133 
 741      203A2025 
 741      64200D0A 
 741      00
 742 00c1 000000   		.space	3
 743              	.LC13:
 744 00c4 52582E44 		.ascii	"RX.DATA4 : %d \015\012\000"
 744      41544134 
 744      203A2025 
 744      64200D0A 
 744      00
 745 00d5 000000   		.space	3
ARM GAS  C:\Users\DNIEL~1\AppData\Local\Temp\ccs7G6af.s 			page 15


 746              	.LC14:
 747 00d8 2D2D2D2D 		.ascii	"-------- CAN BUS Transmit --------\015\012\000"
 747      2D2D2D2D 
 747      2043414E 
 747      20425553 
 747      20547261 
 748 00fd 000000   		.space	3
 749              	.LC15:
 750 0100 54582E45 		.ascii	"TX.EID : %x \015\012\000"
 750      4944203A 
 750      20257820 
 750      0D0A00
 751 010f 00       		.space	1
 752              	.LC16:
 753 0110 54582E44 		.ascii	"TX.DATA1 : %d \015\012\000"
 753      41544131 
 753      203A2025 
 753      64200D0A 
 753      00
 754 0121 000000   		.space	3
 755              	.LC17:
 756 0124 54582E44 		.ascii	"TX.DATA2 : %d \015\012\000"
 756      41544132 
 756      203A2025 
 756      64200D0A 
 756      00
 757 0135 000000   		.space	3
 758              	.LC18:
 759 0138 54582E44 		.ascii	"TX.DATA3 : %d \015\012\000"
 759      41544133 
 759      203A2025 
 759      64200D0A 
 759      00
 760 0149 000000   		.space	3
 761              	.LC19:
 762 014c 54582E44 		.ascii	"TX.DATA4 : %d \015\012\000"
 762      41544134 
 762      203A2025 
 762      64200D0A 
 762      00
 763 015d 000000   		.section	.bss.messages,"aw",%nobits
 764              		.align	1
 765              		.set	.LANCHOR2,. + 0
 766              		.type	messages, %object
 767              		.size	messages, 2
 768              	messages:
 769 0000 0000     		.space	2
 770              		.section	.bss.rxmsg,"aw",%nobits
 771              		.align	2
 772              		.set	.LANCHOR0,. + 0
 773              		.type	rxmsg, %object
 774              		.size	rxmsg, 20
 775              	rxmsg:
 776 0000 00000000 		.space	20
 776      00000000 
 776      00000000 
 776      00000000 
ARM GAS  C:\Users\DNIEL~1\AppData\Local\Temp\ccs7G6af.s 			page 16


 776      00000000 
 777              		.section	.bss.can_rx_wa,"aw",%nobits
 778              		.align	3
 779              		.set	.LANCHOR7,. + 0
 780              		.type	can_rx_wa, %object
 781              		.size	can_rx_wa, 464
 782              	can_rx_wa:
 783 0000 00000000 		.space	464
 783      00000000 
 783      00000000 
 783      00000000 
 783      00000000 
 784              		.section	.rodata.cancfg,"a",%progbits
 785              		.align	2
 786              		.set	.LANCHOR5,. + 0
 787              		.type	cancfg, %object
 788              		.size	cancfg, 8
 789              	cancfg:
 790 0000 40000000 		.word	64
 791 0004 06001800 		.word	1572870
 792              		.text
 793              	.Letext0:
 794              		.section	.debug_loc,"",%progbits
 795              	.Ldebug_loc0:
 796              	.LLST0:
 797 0000 00000000 		.4byte	.LFB118
 798 0004 02000000 		.4byte	.LCFI0
 799 0008 0200     		.2byte	0x2
 800 000a 7D       		.byte	0x7d
 801 000b 00       		.sleb128 0
 802 000c 02000000 		.4byte	.LCFI0
 803 0010 04000000 		.4byte	.LCFI1
 804 0014 0200     		.2byte	0x2
 805 0016 7D       		.byte	0x7d
 806 0017 0C       		.sleb128 12
 807 0018 04000000 		.4byte	.LCFI1
 808 001c 06000000 		.4byte	.LCFI2
 809 0020 0200     		.2byte	0x2
 810 0022 7D       		.byte	0x7d
 811 0023 10       		.sleb128 16
 812 0024 06000000 		.4byte	.LCFI2
 813 0028 1E000000 		.4byte	.LFE118
 814 002c 0200     		.2byte	0x2
 815 002e 7D       		.byte	0x7d
 816 002f 18       		.sleb128 24
 817 0030 00000000 		.4byte	0x0
 818 0034 00000000 		.4byte	0x0
 819              	.LLST1:
 820 0038 00000000 		.4byte	.LVL0
 821 003c 13000000 		.4byte	.LVL1-1
 822 0040 0100     		.2byte	0x1
 823 0042 50       		.byte	0x50
 824 0043 00000000 		.4byte	0x0
 825 0047 00000000 		.4byte	0x0
 826              	.LLST2:
 827 004b 00000000 		.4byte	.LFB119
 828 004f 04000000 		.4byte	.LCFI3
ARM GAS  C:\Users\DNIEL~1\AppData\Local\Temp\ccs7G6af.s 			page 17


 829 0053 0200     		.2byte	0x2
 830 0055 7D       		.byte	0x7d
 831 0056 00       		.sleb128 0
 832 0057 04000000 		.4byte	.LCFI3
 833 005b 14000000 		.4byte	.LCFI4
 834 005f 0200     		.2byte	0x2
 835 0061 7D       		.byte	0x7d
 836 0062 18       		.sleb128 24
 837 0063 14000000 		.4byte	.LCFI4
 838 0067 94010000 		.4byte	.LFE119
 839 006b 0200     		.2byte	0x2
 840 006d 7D       		.byte	0x7d
 841 006e 30       		.sleb128 48
 842 006f 00000000 		.4byte	0x0
 843 0073 00000000 		.4byte	0x0
 844              	.LLST3:
 845 0077 00000000 		.4byte	.LVL2
 846 007b 10000000 		.4byte	.LVL3
 847 007f 0100     		.2byte	0x1
 848 0081 50       		.byte	0x50
 849 0082 00000000 		.4byte	0x0
 850 0086 00000000 		.4byte	0x0
 851              	.LLST4:
 852 008a 6E000000 		.4byte	.LVL4
 853 008e 8E000000 		.4byte	.LVL5
 854 0092 0200     		.2byte	0x2
 855 0094 30       		.byte	0x30
 856 0095 9F       		.byte	0x9f
 857 0096 C2000000 		.4byte	.LVL6
 858 009a DA000000 		.4byte	.LVL7
 859 009e 0200     		.2byte	0x2
 860 00a0 30       		.byte	0x30
 861 00a1 9F       		.byte	0x9f
 862 00a2 DA000000 		.4byte	.LVL7
 863 00a6 E6000000 		.4byte	.LVL8
 864 00aa 0100     		.2byte	0x1
 865 00ac 50       		.byte	0x50
 866 00ad 10010000 		.4byte	.LVL9
 867 00b1 16010000 		.4byte	.LVL10
 868 00b5 0200     		.2byte	0x2
 869 00b7 30       		.byte	0x30
 870 00b8 9F       		.byte	0x9f
 871 00b9 16010000 		.4byte	.LVL10
 872 00bd 22010000 		.4byte	.LVL11
 873 00c1 0100     		.2byte	0x1
 874 00c3 50       		.byte	0x50
 875 00c4 30010000 		.4byte	.LVL12
 876 00c8 36010000 		.4byte	.LVL13
 877 00cc 0200     		.2byte	0x2
 878 00ce 30       		.byte	0x30
 879 00cf 9F       		.byte	0x9f
 880 00d0 36010000 		.4byte	.LVL13
 881 00d4 42010000 		.4byte	.LVL14
 882 00d8 0100     		.2byte	0x1
 883 00da 50       		.byte	0x50
 884 00db 50010000 		.4byte	.LVL15
 885 00df 54010000 		.4byte	.LVL16
ARM GAS  C:\Users\DNIEL~1\AppData\Local\Temp\ccs7G6af.s 			page 18


 886 00e3 0200     		.2byte	0x2
 887 00e5 30       		.byte	0x30
 888 00e6 9F       		.byte	0x9f
 889 00e7 54010000 		.4byte	.LVL16
 890 00eb 5E010000 		.4byte	.LVL17
 891 00ef 0100     		.2byte	0x1
 892 00f1 50       		.byte	0x50
 893 00f2 00000000 		.4byte	0x0
 894 00f6 00000000 		.4byte	0x0
 895              	.LLST5:
 896 00fa 00000000 		.4byte	.LFB120
 897 00fe 02000000 		.4byte	.LCFI5
 898 0102 0200     		.2byte	0x2
 899 0104 7D       		.byte	0x7d
 900 0105 00       		.sleb128 0
 901 0106 02000000 		.4byte	.LCFI5
 902 010a 74000000 		.4byte	.LFE120
 903 010e 0200     		.2byte	0x2
 904 0110 7D       		.byte	0x7d
 905 0111 10       		.sleb128 16
 906 0112 00000000 		.4byte	0x0
 907 0116 00000000 		.4byte	0x0
 908              	.LLST6:
 909 011a 00000000 		.4byte	.LVL18
 910 011e 18000000 		.4byte	.LVL19
 911 0122 0100     		.2byte	0x1
 912 0124 50       		.byte	0x50
 913 0125 00000000 		.4byte	0x0
 914 0129 00000000 		.4byte	0x0
 915              	.LLST7:
 916 012d 18000000 		.4byte	.LVL19
 917 0131 4C000000 		.4byte	.LVL20
 918 0135 0200     		.2byte	0x2
 919 0137 30       		.byte	0x30
 920 0138 9F       		.byte	0x9f
 921 0139 4C000000 		.4byte	.LVL20
 922 013d 5E000000 		.4byte	.LVL21
 923 0141 0200     		.2byte	0x2
 924 0143 31       		.byte	0x31
 925 0144 9F       		.byte	0x9f
 926 0145 00000000 		.4byte	0x0
 927 0149 00000000 		.4byte	0x0
 928              	.LLST8:
 929 014d 00000000 		.4byte	.LFB121
 930 0151 02000000 		.4byte	.LCFI6
 931 0155 0200     		.2byte	0x2
 932 0157 7D       		.byte	0x7d
 933 0158 00       		.sleb128 0
 934 0159 02000000 		.4byte	.LCFI6
 935 015d 1C000000 		.4byte	.LCFI7
 936 0161 0200     		.2byte	0x2
 937 0163 7D       		.byte	0x7d
 938 0164 08       		.sleb128 8
 939 0165 1C000000 		.4byte	.LCFI7
 940 0169 64000000 		.4byte	.LFE121
 941 016d 0200     		.2byte	0x2
 942 016f 7D       		.byte	0x7d
ARM GAS  C:\Users\DNIEL~1\AppData\Local\Temp\ccs7G6af.s 			page 19


 943 0170 10       		.sleb128 16
 944 0171 00000000 		.4byte	0x0
 945 0175 00000000 		.4byte	0x0
 946              	.LLST9:
 947 0179 00000000 		.4byte	.LFB122
 948 017d 04000000 		.4byte	.LCFI8
 949 0181 0200     		.2byte	0x2
 950 0183 7D       		.byte	0x7d
 951 0184 00       		.sleb128 0
 952 0185 04000000 		.4byte	.LCFI8
 953 0189 4C010000 		.4byte	.LFE122
 954 018d 0200     		.2byte	0x2
 955 018f 7D       		.byte	0x7d
 956 0190 18       		.sleb128 24
 957 0191 00000000 		.4byte	0x0
 958 0195 00000000 		.4byte	0x0
 959              	.LLST10:
 960 0199 00000000 		.4byte	.LVL22
 961 019d 13000000 		.4byte	.LVL24-1
 962 01a1 0100     		.2byte	0x1
 963 01a3 50       		.byte	0x50
 964 01a4 13000000 		.4byte	.LVL24-1
 965 01a8 4C010000 		.4byte	.LFE122
 966 01ac 0100     		.2byte	0x1
 967 01ae 54       		.byte	0x54
 968 01af 00000000 		.4byte	0x0
 969 01b3 00000000 		.4byte	0x0
 970              	.LLST11:
 971 01b7 00000000 		.4byte	.LVL22
 972 01bb 06000000 		.4byte	.LVL23
 973 01bf 0100     		.2byte	0x1
 974 01c1 51       		.byte	0x51
 975 01c2 00000000 		.4byte	0x0
 976 01c6 00000000 		.4byte	0x0
 977              	.LLST12:
 978 01ca 00000000 		.4byte	.LVL22
 979 01ce 13000000 		.4byte	.LVL24-1
 980 01d2 0100     		.2byte	0x1
 981 01d4 52       		.byte	0x52
 982 01d5 00000000 		.4byte	0x0
 983 01d9 00000000 		.4byte	0x0
 984              		.file 3 "c:\\program files (x86)\\codesourcery\\sourcery g++ lite\\bin\\../lib/gcc/arm-none-eabi/4
 985              		.file 4 "c:\\program files (x86)\\codesourcery\\sourcery g++ lite\\bin\\../lib/gcc/arm-none-eabi/4
 986              		.file 5 "../../../Chibios/os/ports/GCC/ARMCMx/chtypes.h"
 987              		.file 6 "../../../Chibios/os/kernel/include/chlists.h"
 988              		.file 7 "../../../Chibios/os/kernel/include/chthreads.h"
 989              		.file 8 "../../../Chibios/os/ports/GCC/ARMCMx/chcore_v7m.h"
 990              		.file 9 "../../../Chibios/os/kernel/include/chschd.h"
 991              		.file 10 "../../../Chibios/os/kernel/include/chsem.h"
 992              		.file 11 "../../../Chibios/os/kernel/include/chmtx.h"
 993              		.file 12 "../../../Chibios/os/kernel/include/chevents.h"
 994              		.file 13 "../../../Chibios/os/kernel/include/chstreams.h"
 995              		.file 14 "../../../Chibios/os/hal/platforms/STM32F4xx/stm32f4xx.h"
 996              		.file 15 "../../../Chibios/os/hal/include/io_channel.h"
 997              		.file 16 "../../../Chibios/os/hal/include/can.h"
 998              		.file 17 "../../../Chibios/os/hal/platforms/STM32/can_lld.h"
 999              		.file 18 "c:\\program files (x86)\\codesourcery\\sourcery g++ lite\\bin\\../lib/gcc/arm-none-eabi/
ARM GAS  C:\Users\DNIEL~1\AppData\Local\Temp\ccs7G6af.s 			page 20


 1000              		.file 19 "<built-in>"
 1001              		.file 20 "../../../Chibios/os/ports/common/ARMCMx/CMSIS/include/core_cm4.h"
 1002              		.section	.debug_info
 1003 0000 0C100000 		.4byte	0x100c
 1004 0004 0200     		.2byte	0x2
 1005 0006 00000000 		.4byte	.Ldebug_abbrev0
 1006 000a 04       		.byte	0x4
 1007 000b 01       		.uleb128 0x1
 1008 000c 70060000 		.4byte	.LASF172
 1009 0010 01       		.byte	0x1
 1010 0011 CB050000 		.4byte	.LASF173
 1011 0015 D2000000 		.4byte	.LASF174
 1012 0019 00000000 		.4byte	0x0
 1013 001d 00000000 		.4byte	0x0
 1014 0021 00000000 		.4byte	.Ldebug_ranges0+0x0
 1015 0025 00000000 		.4byte	.Ldebug_line0
 1016 0029 02       		.uleb128 0x2
 1017 002a 19000000 		.4byte	.LASF10
 1018 002e 03       		.byte	0x3
 1019 002f D3       		.byte	0xd3
 1020 0030 34000000 		.4byte	0x34
 1021 0034 03       		.uleb128 0x3
 1022 0035 04       		.byte	0x4
 1023 0036 07       		.byte	0x7
 1024 0037 20020000 		.4byte	.LASF0
 1025 003b 03       		.uleb128 0x3
 1026 003c 01       		.byte	0x1
 1027 003d 06       		.byte	0x6
 1028 003e C6000000 		.4byte	.LASF1
 1029 0042 03       		.uleb128 0x3
 1030 0043 01       		.byte	0x1
 1031 0044 08       		.byte	0x8
 1032 0045 56040000 		.4byte	.LASF2
 1033 0049 03       		.uleb128 0x3
 1034 004a 02       		.byte	0x2
 1035 004b 05       		.byte	0x5
 1036 004c A5040000 		.4byte	.LASF3
 1037 0050 03       		.uleb128 0x3
 1038 0051 02       		.byte	0x2
 1039 0052 07       		.byte	0x7
 1040 0053 77020000 		.4byte	.LASF4
 1041 0057 04       		.uleb128 0x4
 1042 0058 04       		.byte	0x4
 1043 0059 05       		.byte	0x5
 1044 005a 696E7400 		.ascii	"int\000"
 1045 005e 03       		.uleb128 0x3
 1046 005f 08       		.byte	0x8
 1047 0060 05       		.byte	0x5
 1048 0061 B8000000 		.4byte	.LASF5
 1049 0065 03       		.uleb128 0x3
 1050 0066 08       		.byte	0x8
 1051 0067 07       		.byte	0x7
 1052 0068 6F000000 		.4byte	.LASF6
 1053 006c 03       		.uleb128 0x3
 1054 006d 04       		.byte	0x4
 1055 006e 05       		.byte	0x5
 1056 006f 39010000 		.4byte	.LASF7
ARM GAS  C:\Users\DNIEL~1\AppData\Local\Temp\ccs7G6af.s 			page 21


 1057 0073 05       		.uleb128 0x5
 1058 0074 04       		.byte	0x4
 1059 0075 03       		.uleb128 0x3
 1060 0076 04       		.byte	0x4
 1061 0077 07       		.byte	0x7
 1062 0078 51050000 		.4byte	.LASF8
 1063 007c 06       		.uleb128 0x6
 1064 007d 04       		.byte	0x4
 1065 007e 82000000 		.4byte	0x82
 1066 0082 03       		.uleb128 0x3
 1067 0083 01       		.byte	0x1
 1068 0084 08       		.byte	0x8
 1069 0085 68050000 		.4byte	.LASF9
 1070 0089 06       		.uleb128 0x6
 1071 008a 04       		.byte	0x4
 1072 008b 8F000000 		.4byte	0x8f
 1073 008f 07       		.uleb128 0x7
 1074 0090 82000000 		.4byte	0x82
 1075 0094 02       		.uleb128 0x2
 1076 0095 39060000 		.4byte	.LASF11
 1077 0099 04       		.byte	0x4
 1078 009a 2A       		.byte	0x2a
 1079 009b 42000000 		.4byte	0x42
 1080 009f 02       		.uleb128 0x2
 1081 00a0 87010000 		.4byte	.LASF12
 1082 00a4 04       		.byte	0x4
 1083 00a5 36       		.byte	0x36
 1084 00a6 50000000 		.4byte	0x50
 1085 00aa 02       		.uleb128 0x2
 1086 00ab 4E040000 		.4byte	.LASF13
 1087 00af 04       		.byte	0x4
 1088 00b0 4F       		.byte	0x4f
 1089 00b1 6C000000 		.4byte	0x6c
 1090 00b5 02       		.uleb128 0x2
 1091 00b6 32050000 		.4byte	.LASF14
 1092 00ba 04       		.byte	0x4
 1093 00bb 50       		.byte	0x50
 1094 00bc 75000000 		.4byte	0x75
 1095 00c0 02       		.uleb128 0x2
 1096 00c1 32000000 		.4byte	.LASF15
 1097 00c5 04       		.byte	0x4
 1098 00c6 78       		.byte	0x78
 1099 00c7 65000000 		.4byte	0x65
 1100 00cb 03       		.uleb128 0x3
 1101 00cc 01       		.byte	0x1
 1102 00cd 02       		.byte	0x2
 1103 00ce 48040000 		.4byte	.LASF16
 1104 00d2 02       		.uleb128 0x2
 1105 00d3 BF020000 		.4byte	.LASF17
 1106 00d7 05       		.byte	0x5
 1107 00d8 2C       		.byte	0x2c
 1108 00d9 94000000 		.4byte	0x94
 1109 00dd 02       		.uleb128 0x2
 1110 00de 42010000 		.4byte	.LASF18
 1111 00e2 05       		.byte	0x5
 1112 00e3 2D       		.byte	0x2d
 1113 00e4 94000000 		.4byte	0x94
ARM GAS  C:\Users\DNIEL~1\AppData\Local\Temp\ccs7G6af.s 			page 22


 1114 00e8 02       		.uleb128 0x2
 1115 00e9 F4030000 		.4byte	.LASF19
 1116 00ed 05       		.byte	0x5
 1117 00ee 2E       		.byte	0x2e
 1118 00ef 94000000 		.4byte	0x94
 1119 00f3 02       		.uleb128 0x2
 1120 00f4 24010000 		.4byte	.LASF20
 1121 00f8 05       		.byte	0x5
 1122 00f9 2F       		.byte	0x2f
 1123 00fa 94000000 		.4byte	0x94
 1124 00fe 02       		.uleb128 0x2
 1125 00ff 35040000 		.4byte	.LASF21
 1126 0103 05       		.byte	0x5
 1127 0104 30       		.byte	0x30
 1128 0105 B5000000 		.4byte	0xb5
 1129 0109 02       		.uleb128 0x2
 1130 010a AA020000 		.4byte	.LASF22
 1131 010e 05       		.byte	0x5
 1132 010f 31       		.byte	0x31
 1133 0110 AA000000 		.4byte	0xaa
 1134 0114 02       		.uleb128 0x2
 1135 0115 E3020000 		.4byte	.LASF23
 1136 0119 05       		.byte	0x5
 1137 011a 33       		.byte	0x33
 1138 011b B5000000 		.4byte	0xb5
 1139 011f 02       		.uleb128 0x2
 1140 0120 E4050000 		.4byte	.LASF24
 1141 0124 05       		.byte	0x5
 1142 0125 34       		.byte	0x34
 1143 0126 B5000000 		.4byte	0xb5
 1144 012a 02       		.uleb128 0x2
 1145 012b 8A050000 		.4byte	.LASF25
 1146 012f 05       		.byte	0x5
 1147 0130 35       		.byte	0x35
 1148 0131 B5000000 		.4byte	0xb5
 1149 0135 02       		.uleb128 0x2
 1150 0136 1A020000 		.4byte	.LASF26
 1151 013a 05       		.byte	0x5
 1152 013b 36       		.byte	0x36
 1153 013c AA000000 		.4byte	0xaa
 1154 0140 02       		.uleb128 0x2
 1155 0141 E7010000 		.4byte	.LASF27
 1156 0145 06       		.byte	0x6
 1157 0146 2A       		.byte	0x2a
 1158 0147 4B010000 		.4byte	0x14b
 1159 014b 08       		.uleb128 0x8
 1160 014c E7010000 		.4byte	.LASF27
 1161 0150 48       		.byte	0x48
 1162 0151 07       		.byte	0x7
 1163 0152 5E       		.byte	0x5e
 1164 0153 70020000 		.4byte	0x270
 1165 0157 09       		.uleb128 0x9
 1166 0158 CF040000 		.4byte	.LASF28
 1167 015c 07       		.byte	0x7
 1168 015d 5F       		.byte	0x5f
 1169 015e 95020000 		.4byte	0x295
 1170 0162 02       		.byte	0x2
ARM GAS  C:\Users\DNIEL~1\AppData\Local\Temp\ccs7G6af.s 			page 23


 1171 0163 23       		.byte	0x23
 1172 0164 00       		.uleb128 0x0
 1173 0165 09       		.uleb128 0x9
 1174 0166 2E040000 		.4byte	.LASF29
 1175 016a 07       		.byte	0x7
 1176 016b 61       		.byte	0x61
 1177 016c 95020000 		.4byte	0x295
 1178 0170 02       		.byte	0x2
 1179 0171 23       		.byte	0x23
 1180 0172 04       		.uleb128 0x4
 1181 0173 09       		.uleb128 0x9
 1182 0174 A5000000 		.4byte	.LASF30
 1183 0178 07       		.byte	0x7
 1184 0179 63       		.byte	0x63
 1185 017a FE000000 		.4byte	0xfe
 1186 017e 02       		.byte	0x2
 1187 017f 23       		.byte	0x23
 1188 0180 08       		.uleb128 0x8
 1189 0181 09       		.uleb128 0x9
 1190 0182 BC060000 		.4byte	.LASF31
 1191 0186 07       		.byte	0x7
 1192 0187 64       		.byte	0x64
 1193 0188 6C030000 		.4byte	0x36c
 1194 018c 02       		.byte	0x2
 1195 018d 23       		.byte	0x23
 1196 018e 0C       		.uleb128 0xc
 1197 018f 09       		.uleb128 0x9
 1198 0190 A5010000 		.4byte	.LASF32
 1199 0194 07       		.byte	0x7
 1200 0195 66       		.byte	0x66
 1201 0196 95020000 		.4byte	0x295
 1202 019a 02       		.byte	0x2
 1203 019b 23       		.byte	0x23
 1204 019c 10       		.uleb128 0x10
 1205 019d 09       		.uleb128 0x9
 1206 019e 75030000 		.4byte	.LASF33
 1207 01a2 07       		.byte	0x7
 1208 01a3 67       		.byte	0x67
 1209 01a4 95020000 		.4byte	0x295
 1210 01a8 02       		.byte	0x2
 1211 01a9 23       		.byte	0x23
 1212 01aa 14       		.uleb128 0x14
 1213 01ab 09       		.uleb128 0x9
 1214 01ac FC050000 		.4byte	.LASF34
 1215 01b0 07       		.byte	0x7
 1216 01b1 6E       		.byte	0x6e
 1217 01b2 89000000 		.4byte	0x89
 1218 01b6 02       		.byte	0x2
 1219 01b7 23       		.byte	0x23
 1220 01b8 18       		.uleb128 0x18
 1221 01b9 09       		.uleb128 0x9
 1222 01ba AF040000 		.4byte	.LASF35
 1223 01be 07       		.byte	0x7
 1224 01bf 79       		.byte	0x79
 1225 01c0 DD000000 		.4byte	0xdd
 1226 01c4 02       		.byte	0x2
 1227 01c5 23       		.byte	0x23
ARM GAS  C:\Users\DNIEL~1\AppData\Local\Temp\ccs7G6af.s 			page 24


 1228 01c6 1C       		.uleb128 0x1c
 1229 01c7 09       		.uleb128 0x9
 1230 01c8 EE040000 		.4byte	.LASF36
 1231 01cc 07       		.byte	0x7
 1232 01cd 7D       		.byte	0x7d
 1233 01ce D2000000 		.4byte	0xd2
 1234 01d2 02       		.byte	0x2
 1235 01d3 23       		.byte	0x23
 1236 01d4 1D       		.uleb128 0x1d
 1237 01d5 09       		.uleb128 0x9
 1238 01d6 6B010000 		.4byte	.LASF37
 1239 01da 07       		.byte	0x7
 1240 01db 82       		.byte	0x82
 1241 01dc E8000000 		.4byte	0xe8
 1242 01e0 02       		.byte	0x2
 1243 01e1 23       		.byte	0x23
 1244 01e2 1E       		.uleb128 0x1e
 1245 01e3 09       		.uleb128 0x9
 1246 01e4 B7040000 		.4byte	.LASF38
 1247 01e8 07       		.byte	0x7
 1248 01e9 88       		.byte	0x88
 1249 01ea F3000000 		.4byte	0xf3
 1250 01ee 02       		.byte	0x2
 1251 01ef 23       		.byte	0x23
 1252 01f0 1F       		.uleb128 0x1f
 1253 01f1 09       		.uleb128 0x9
 1254 01f2 90010000 		.4byte	.LASF39
 1255 01f6 07       		.byte	0x7
 1256 01f7 8F       		.byte	0x8f
 1257 01f8 94030000 		.4byte	0x394
 1258 01fc 02       		.byte	0x2
 1259 01fd 23       		.byte	0x23
 1260 01fe 20       		.uleb128 0x20
 1261 01ff 0A       		.uleb128 0xa
 1262 0200 705F7500 		.ascii	"p_u\000"
 1263 0204 07       		.byte	0x7
 1264 0205 B4       		.byte	0xb4
 1265 0206 F9040000 		.4byte	0x4f9
 1266 020a 02       		.byte	0x2
 1267 020b 23       		.byte	0x23
 1268 020c 24       		.uleb128 0x24
 1269 020d 09       		.uleb128 0x9
 1270 020e C2060000 		.4byte	.LASF40
 1271 0212 07       		.byte	0x7
 1272 0213 B9       		.byte	0xb9
 1273 0214 BD020000 		.4byte	0x2bd
 1274 0218 02       		.byte	0x2
 1275 0219 23       		.byte	0x23
 1276 021a 28       		.uleb128 0x28
 1277 021b 09       		.uleb128 0x9
 1278 021c 4A020000 		.4byte	.LASF41
 1279 0220 07       		.byte	0x7
 1280 0221 BF       		.byte	0xbf
 1281 0222 9B020000 		.4byte	0x29b
 1282 0226 02       		.byte	0x2
 1283 0227 23       		.byte	0x23
 1284 0228 2C       		.uleb128 0x2c
ARM GAS  C:\Users\DNIEL~1\AppData\Local\Temp\ccs7G6af.s 			page 25


 1285 0229 09       		.uleb128 0x9
 1286 022a 98060000 		.4byte	.LASF42
 1287 022e 07       		.byte	0x7
 1288 022f C3       		.byte	0xc3
 1289 0230 09010000 		.4byte	0x109
 1290 0234 02       		.byte	0x2
 1291 0235 23       		.byte	0x23
 1292 0236 34       		.uleb128 0x34
 1293 0237 09       		.uleb128 0x9
 1294 0238 1D050000 		.4byte	.LASF43
 1295 023c 07       		.byte	0x7
 1296 023d C9       		.byte	0xc9
 1297 023e 14010000 		.4byte	0x114
 1298 0242 02       		.byte	0x2
 1299 0243 23       		.byte	0x23
 1300 0244 38       		.uleb128 0x38
 1301 0245 09       		.uleb128 0x9
 1302 0246 9B040000 		.4byte	.LASF44
 1303 024a 07       		.byte	0x7
 1304 024b D0       		.byte	0xd0
 1305 024c 2E050000 		.4byte	0x52e
 1306 0250 02       		.byte	0x2
 1307 0251 23       		.byte	0x23
 1308 0252 3C       		.uleb128 0x3c
 1309 0253 09       		.uleb128 0x9
 1310 0254 94050000 		.4byte	.LASF45
 1311 0258 07       		.byte	0x7
 1312 0259 D4       		.byte	0xd4
 1313 025a FE000000 		.4byte	0xfe
 1314 025e 02       		.byte	0x2
 1315 025f 23       		.byte	0x23
 1316 0260 40       		.uleb128 0x40
 1317 0261 09       		.uleb128 0x9
 1318 0262 16010000 		.4byte	.LASF46
 1319 0266 07       		.byte	0x7
 1320 0267 DA       		.byte	0xda
 1321 0268 73000000 		.4byte	0x73
 1322 026c 02       		.byte	0x2
 1323 026d 23       		.byte	0x23
 1324 026e 44       		.uleb128 0x44
 1325 026f 00       		.byte	0x0
 1326 0270 0B       		.uleb128 0xb
 1327 0271 08       		.byte	0x8
 1328 0272 06       		.byte	0x6
 1329 0273 61       		.byte	0x61
 1330 0274 95020000 		.4byte	0x295
 1331 0278 09       		.uleb128 0x9
 1332 0279 CF040000 		.4byte	.LASF28
 1333 027d 06       		.byte	0x6
 1334 027e 62       		.byte	0x62
 1335 027f 95020000 		.4byte	0x295
 1336 0283 02       		.byte	0x2
 1337 0284 23       		.byte	0x23
 1338 0285 00       		.uleb128 0x0
 1339 0286 09       		.uleb128 0x9
 1340 0287 2E040000 		.4byte	.LASF29
 1341 028b 06       		.byte	0x6
ARM GAS  C:\Users\DNIEL~1\AppData\Local\Temp\ccs7G6af.s 			page 26


 1342 028c 64       		.byte	0x64
 1343 028d 95020000 		.4byte	0x295
 1344 0291 02       		.byte	0x2
 1345 0292 23       		.byte	0x23
 1346 0293 04       		.uleb128 0x4
 1347 0294 00       		.byte	0x0
 1348 0295 06       		.uleb128 0x6
 1349 0296 04       		.byte	0x4
 1350 0297 40010000 		.4byte	0x140
 1351 029b 02       		.uleb128 0x2
 1352 029c 83030000 		.4byte	.LASF47
 1353 02a0 06       		.byte	0x6
 1354 02a1 66       		.byte	0x66
 1355 02a2 70020000 		.4byte	0x270
 1356 02a6 0B       		.uleb128 0xb
 1357 02a7 04       		.byte	0x4
 1358 02a8 06       		.byte	0x6
 1359 02a9 6B       		.byte	0x6b
 1360 02aa BD020000 		.4byte	0x2bd
 1361 02ae 09       		.uleb128 0x9
 1362 02af CF040000 		.4byte	.LASF28
 1363 02b3 06       		.byte	0x6
 1364 02b4 6D       		.byte	0x6d
 1365 02b5 95020000 		.4byte	0x295
 1366 02b9 02       		.byte	0x2
 1367 02ba 23       		.byte	0x23
 1368 02bb 00       		.uleb128 0x0
 1369 02bc 00       		.byte	0x0
 1370 02bd 02       		.uleb128 0x2
 1371 02be C7020000 		.4byte	.LASF48
 1372 02c2 06       		.byte	0x6
 1373 02c3 70       		.byte	0x70
 1374 02c4 A6020000 		.4byte	0x2a6
 1375 02c8 02       		.uleb128 0x2
 1376 02c9 D9010000 		.4byte	.LASF49
 1377 02cd 08       		.byte	0x8
 1378 02ce E5       		.byte	0xe5
 1379 02cf 73000000 		.4byte	0x73
 1380 02d3 02       		.uleb128 0x2
 1381 02d4 06030000 		.4byte	.LASF50
 1382 02d8 08       		.byte	0x8
 1383 02d9 EB       		.byte	0xeb
 1384 02da C0000000 		.4byte	0xc0
 1385 02de 0C       		.uleb128 0xc
 1386 02df C4050000 		.4byte	.LASF51
 1387 02e3 24       		.byte	0x24
 1388 02e4 08       		.byte	0x8
 1389 02e5 0C01     		.2byte	0x10c
 1390 02e7 6C030000 		.4byte	0x36c
 1391 02eb 0D       		.uleb128 0xd
 1392 02ec 723400   		.ascii	"r4\000"
 1393 02ef 08       		.byte	0x8
 1394 02f0 1F01     		.2byte	0x11f
 1395 02f2 C8020000 		.4byte	0x2c8
 1396 02f6 02       		.byte	0x2
 1397 02f7 23       		.byte	0x23
 1398 02f8 00       		.uleb128 0x0
ARM GAS  C:\Users\DNIEL~1\AppData\Local\Temp\ccs7G6af.s 			page 27


 1399 02f9 0D       		.uleb128 0xd
 1400 02fa 723500   		.ascii	"r5\000"
 1401 02fd 08       		.byte	0x8
 1402 02fe 2001     		.2byte	0x120
 1403 0300 C8020000 		.4byte	0x2c8
 1404 0304 02       		.byte	0x2
 1405 0305 23       		.byte	0x23
 1406 0306 04       		.uleb128 0x4
 1407 0307 0D       		.uleb128 0xd
 1408 0308 723600   		.ascii	"r6\000"
 1409 030b 08       		.byte	0x8
 1410 030c 2101     		.2byte	0x121
 1411 030e C8020000 		.4byte	0x2c8
 1412 0312 02       		.byte	0x2
 1413 0313 23       		.byte	0x23
 1414 0314 08       		.uleb128 0x8
 1415 0315 0D       		.uleb128 0xd
 1416 0316 723700   		.ascii	"r7\000"
 1417 0319 08       		.byte	0x8
 1418 031a 2201     		.2byte	0x122
 1419 031c C8020000 		.4byte	0x2c8
 1420 0320 02       		.byte	0x2
 1421 0321 23       		.byte	0x23
 1422 0322 0C       		.uleb128 0xc
 1423 0323 0D       		.uleb128 0xd
 1424 0324 723800   		.ascii	"r8\000"
 1425 0327 08       		.byte	0x8
 1426 0328 2301     		.2byte	0x123
 1427 032a C8020000 		.4byte	0x2c8
 1428 032e 02       		.byte	0x2
 1429 032f 23       		.byte	0x23
 1430 0330 10       		.uleb128 0x10
 1431 0331 0D       		.uleb128 0xd
 1432 0332 723900   		.ascii	"r9\000"
 1433 0335 08       		.byte	0x8
 1434 0336 2401     		.2byte	0x124
 1435 0338 C8020000 		.4byte	0x2c8
 1436 033c 02       		.byte	0x2
 1437 033d 23       		.byte	0x23
 1438 033e 14       		.uleb128 0x14
 1439 033f 0D       		.uleb128 0xd
 1440 0340 72313000 		.ascii	"r10\000"
 1441 0344 08       		.byte	0x8
 1442 0345 2501     		.2byte	0x125
 1443 0347 C8020000 		.4byte	0x2c8
 1444 034b 02       		.byte	0x2
 1445 034c 23       		.byte	0x23
 1446 034d 18       		.uleb128 0x18
 1447 034e 0D       		.uleb128 0xd
 1448 034f 72313100 		.ascii	"r11\000"
 1449 0353 08       		.byte	0x8
 1450 0354 2601     		.2byte	0x126
 1451 0356 C8020000 		.4byte	0x2c8
 1452 035a 02       		.byte	0x2
 1453 035b 23       		.byte	0x23
 1454 035c 1C       		.uleb128 0x1c
 1455 035d 0D       		.uleb128 0xd
ARM GAS  C:\Users\DNIEL~1\AppData\Local\Temp\ccs7G6af.s 			page 28


 1456 035e 6C7200   		.ascii	"lr\000"
 1457 0361 08       		.byte	0x8
 1458 0362 2701     		.2byte	0x127
 1459 0364 C8020000 		.4byte	0x2c8
 1460 0368 02       		.byte	0x2
 1461 0369 23       		.byte	0x23
 1462 036a 20       		.uleb128 0x20
 1463 036b 00       		.byte	0x0
 1464 036c 0C       		.uleb128 0xc
 1465 036d B7050000 		.4byte	.LASF52
 1466 0371 04       		.byte	0x4
 1467 0372 08       		.byte	0x8
 1468 0373 3101     		.2byte	0x131
 1469 0375 89030000 		.4byte	0x389
 1470 0379 0D       		.uleb128 0xd
 1471 037a 72313300 		.ascii	"r13\000"
 1472 037e 08       		.byte	0x8
 1473 037f 3201     		.2byte	0x132
 1474 0381 89030000 		.4byte	0x389
 1475 0385 02       		.byte	0x2
 1476 0386 23       		.byte	0x23
 1477 0387 00       		.uleb128 0x0
 1478 0388 00       		.byte	0x0
 1479 0389 06       		.uleb128 0x6
 1480 038a 04       		.byte	0x4
 1481 038b DE020000 		.4byte	0x2de
 1482 038f 0E       		.uleb128 0xe
 1483 0390 B5000000 		.4byte	0xb5
 1484 0394 0E       		.uleb128 0xe
 1485 0395 2A010000 		.4byte	0x12a
 1486 0399 0B       		.uleb128 0xb
 1487 039a 1C       		.byte	0x1c
 1488 039b 09       		.byte	0x9
 1489 039c 5E       		.byte	0x5e
 1490 039d F6030000 		.4byte	0x3f6
 1491 03a1 09       		.uleb128 0x9
 1492 03a2 3B050000 		.4byte	.LASF53
 1493 03a6 09       		.byte	0x9
 1494 03a7 5F       		.byte	0x5f
 1495 03a8 9B020000 		.4byte	0x29b
 1496 03ac 02       		.byte	0x2
 1497 03ad 23       		.byte	0x23
 1498 03ae 00       		.uleb128 0x0
 1499 03af 09       		.uleb128 0x9
 1500 03b0 C1040000 		.4byte	.LASF54
 1501 03b4 09       		.byte	0x9
 1502 03b5 60       		.byte	0x60
 1503 03b6 FE000000 		.4byte	0xfe
 1504 03ba 02       		.byte	0x2
 1505 03bb 23       		.byte	0x23
 1506 03bc 08       		.uleb128 0x8
 1507 03bd 09       		.uleb128 0x9
 1508 03be 7D030000 		.4byte	.LASF55
 1509 03c2 09       		.byte	0x9
 1510 03c3 62       		.byte	0x62
 1511 03c4 6C030000 		.4byte	0x36c
 1512 03c8 02       		.byte	0x2
ARM GAS  C:\Users\DNIEL~1\AppData\Local\Temp\ccs7G6af.s 			page 29


 1513 03c9 23       		.byte	0x23
 1514 03ca 0C       		.uleb128 0xc
 1515 03cb 09       		.uleb128 0x9
 1516 03cc D1010000 		.4byte	.LASF56
 1517 03d0 09       		.byte	0x9
 1518 03d1 65       		.byte	0x65
 1519 03d2 95020000 		.4byte	0x295
 1520 03d6 02       		.byte	0x2
 1521 03d7 23       		.byte	0x23
 1522 03d8 10       		.uleb128 0x10
 1523 03d9 09       		.uleb128 0x9
 1524 03da 9F030000 		.4byte	.LASF57
 1525 03de 09       		.byte	0x9
 1526 03df 66       		.byte	0x66
 1527 03e0 95020000 		.4byte	0x295
 1528 03e4 02       		.byte	0x2
 1529 03e5 23       		.byte	0x23
 1530 03e6 14       		.uleb128 0x14
 1531 03e7 09       		.uleb128 0x9
 1532 03e8 95030000 		.4byte	.LASF58
 1533 03ec 09       		.byte	0x9
 1534 03ed 69       		.byte	0x69
 1535 03ee 95020000 		.4byte	0x295
 1536 03f2 02       		.byte	0x2
 1537 03f3 23       		.byte	0x23
 1538 03f4 18       		.uleb128 0x18
 1539 03f5 00       		.byte	0x0
 1540 03f6 02       		.uleb128 0x2
 1541 03f7 0B060000 		.4byte	.LASF59
 1542 03fb 09       		.byte	0x9
 1543 03fc 6B       		.byte	0x6b
 1544 03fd 99030000 		.4byte	0x399
 1545 0401 08       		.uleb128 0x8
 1546 0402 DA050000 		.4byte	.LASF60
 1547 0406 0C       		.byte	0xc
 1548 0407 0A       		.byte	0xa
 1549 0408 2C       		.byte	0x2c
 1550 0409 2A040000 		.4byte	0x42a
 1551 040d 09       		.uleb128 0x9
 1552 040e AD010000 		.4byte	.LASF61
 1553 0412 0A       		.byte	0xa
 1554 0413 2D       		.byte	0x2d
 1555 0414 9B020000 		.4byte	0x29b
 1556 0418 02       		.byte	0x2
 1557 0419 23       		.byte	0x23
 1558 041a 00       		.uleb128 0x0
 1559 041b 09       		.uleb128 0x9
 1560 041c 71020000 		.4byte	.LASF62
 1561 0420 0A       		.byte	0xa
 1562 0421 2F       		.byte	0x2f
 1563 0422 35010000 		.4byte	0x135
 1564 0426 02       		.byte	0x2
 1565 0427 23       		.byte	0x23
 1566 0428 08       		.uleb128 0x8
 1567 0429 00       		.byte	0x0
 1568 042a 02       		.uleb128 0x2
 1569 042b DA050000 		.4byte	.LASF60
ARM GAS  C:\Users\DNIEL~1\AppData\Local\Temp\ccs7G6af.s 			page 30


 1570 042f 0A       		.byte	0xa
 1571 0430 30       		.byte	0x30
 1572 0431 01040000 		.4byte	0x401
 1573 0435 08       		.uleb128 0x8
 1574 0436 EF020000 		.4byte	.LASF63
 1575 043a 10       		.byte	0x10
 1576 043b 0B       		.byte	0xb
 1577 043c 2C       		.byte	0x2c
 1578 043d 6C040000 		.4byte	0x46c
 1579 0441 09       		.uleb128 0x9
 1580 0442 64040000 		.4byte	.LASF64
 1581 0446 0B       		.byte	0xb
 1582 0447 2D       		.byte	0x2d
 1583 0448 9B020000 		.4byte	0x29b
 1584 044c 02       		.byte	0x2
 1585 044d 23       		.byte	0x23
 1586 044e 00       		.uleb128 0x0
 1587 044f 09       		.uleb128 0x9
 1588 0450 B4060000 		.4byte	.LASF65
 1589 0454 0B       		.byte	0xb
 1590 0455 2F       		.byte	0x2f
 1591 0456 95020000 		.4byte	0x295
 1592 045a 02       		.byte	0x2
 1593 045b 23       		.byte	0x23
 1594 045c 08       		.uleb128 0x8
 1595 045d 09       		.uleb128 0x9
 1596 045e 83050000 		.4byte	.LASF66
 1597 0462 0B       		.byte	0xb
 1598 0463 31       		.byte	0x31
 1599 0464 6C040000 		.4byte	0x46c
 1600 0468 02       		.byte	0x2
 1601 0469 23       		.byte	0x23
 1602 046a 0C       		.uleb128 0xc
 1603 046b 00       		.byte	0x0
 1604 046c 06       		.uleb128 0x6
 1605 046d 04       		.byte	0x4
 1606 046e 35040000 		.4byte	0x435
 1607 0472 02       		.uleb128 0x2
 1608 0473 EF020000 		.4byte	.LASF63
 1609 0477 0B       		.byte	0xb
 1610 0478 33       		.byte	0x33
 1611 0479 35040000 		.4byte	0x435
 1612 047d 02       		.uleb128 0x2
 1613 047e 5B060000 		.4byte	.LASF67
 1614 0482 0C       		.byte	0xc
 1615 0483 2C       		.byte	0x2c
 1616 0484 88040000 		.4byte	0x488
 1617 0488 08       		.uleb128 0x8
 1618 0489 5B060000 		.4byte	.LASF67
 1619 048d 10       		.byte	0x10
 1620 048e 0C       		.byte	0xc
 1621 048f 31       		.byte	0x31
 1622 0490 CD040000 		.4byte	0x4cd
 1623 0494 09       		.uleb128 0x9
 1624 0495 B0020000 		.4byte	.LASF68
 1625 0499 0C       		.byte	0xc
 1626 049a 32       		.byte	0x32
ARM GAS  C:\Users\DNIEL~1\AppData\Local\Temp\ccs7G6af.s 			page 31


 1627 049b CD040000 		.4byte	0x4cd
 1628 049f 02       		.byte	0x2
 1629 04a0 23       		.byte	0x23
 1630 04a1 00       		.uleb128 0x0
 1631 04a2 09       		.uleb128 0x9
 1632 04a3 79040000 		.4byte	.LASF69
 1633 04a7 0C       		.byte	0xc
 1634 04a8 35       		.byte	0x35
 1635 04a9 95020000 		.4byte	0x295
 1636 04ad 02       		.byte	0x2
 1637 04ae 23       		.byte	0x23
 1638 04af 04       		.uleb128 0x4
 1639 04b0 09       		.uleb128 0x9
 1640 04b1 A7030000 		.4byte	.LASF70
 1641 04b5 0C       		.byte	0xc
 1642 04b6 37       		.byte	0x37
 1643 04b7 14010000 		.4byte	0x114
 1644 04bb 02       		.byte	0x2
 1645 04bc 23       		.byte	0x23
 1646 04bd 08       		.uleb128 0x8
 1647 04be 09       		.uleb128 0x9
 1648 04bf 92040000 		.4byte	.LASF71
 1649 04c3 0C       		.byte	0xc
 1650 04c4 3A       		.byte	0x3a
 1651 04c5 1F010000 		.4byte	0x11f
 1652 04c9 02       		.byte	0x2
 1653 04ca 23       		.byte	0x23
 1654 04cb 0C       		.uleb128 0xc
 1655 04cc 00       		.byte	0x0
 1656 04cd 06       		.uleb128 0x6
 1657 04ce 04       		.byte	0x4
 1658 04cf 7D040000 		.4byte	0x47d
 1659 04d3 08       		.uleb128 0x8
 1660 04d4 F9010000 		.4byte	.LASF72
 1661 04d8 04       		.byte	0x4
 1662 04d9 0C       		.byte	0xc
 1663 04da 41       		.byte	0x41
 1664 04db EE040000 		.4byte	0x4ee
 1665 04df 09       		.uleb128 0x9
 1666 04e0 03060000 		.4byte	.LASF73
 1667 04e4 0C       		.byte	0xc
 1668 04e5 42       		.byte	0x42
 1669 04e6 CD040000 		.4byte	0x4cd
 1670 04ea 02       		.byte	0x2
 1671 04eb 23       		.byte	0x23
 1672 04ec 00       		.uleb128 0x0
 1673 04ed 00       		.byte	0x0
 1674 04ee 02       		.uleb128 0x2
 1675 04ef F9010000 		.4byte	.LASF72
 1676 04f3 0C       		.byte	0xc
 1677 04f4 45       		.byte	0x45
 1678 04f5 D3040000 		.4byte	0x4d3
 1679 04f9 0F       		.uleb128 0xf
 1680 04fa 04       		.byte	0x4
 1681 04fb 07       		.byte	0x7
 1682 04fc 96       		.byte	0x96
 1683 04fd 2E050000 		.4byte	0x52e
ARM GAS  C:\Users\DNIEL~1\AppData\Local\Temp\ccs7G6af.s 			page 32


 1684 0501 10       		.uleb128 0x10
 1685 0502 2B000000 		.4byte	.LASF74
 1686 0506 07       		.byte	0x7
 1687 0507 9D       		.byte	0x9d
 1688 0508 09010000 		.4byte	0x109
 1689 050c 10       		.uleb128 0x10
 1690 050d 95000000 		.4byte	.LASF75
 1691 0511 07       		.byte	0x7
 1692 0512 A4       		.byte	0xa4
 1693 0513 09010000 		.4byte	0x109
 1694 0517 10       		.uleb128 0x10
 1695 0518 69060000 		.4byte	.LASF76
 1696 051c 07       		.byte	0x7
 1697 051d AB       		.byte	0xab
 1698 051e 73000000 		.4byte	0x73
 1699 0522 10       		.uleb128 0x10
 1700 0523 C8040000 		.4byte	.LASF77
 1701 0527 07       		.byte	0x7
 1702 0528 B2       		.byte	0xb2
 1703 0529 14010000 		.4byte	0x114
 1704 052d 00       		.byte	0x0
 1705 052e 06       		.uleb128 0x6
 1706 052f 04       		.byte	0x4
 1707 0530 72040000 		.4byte	0x472
 1708 0534 06       		.uleb128 0x6
 1709 0535 04       		.byte	0x4
 1710 0536 3A050000 		.4byte	0x53a
 1711 053a 11       		.uleb128 0x11
 1712 053b 01       		.byte	0x1
 1713 053c 09010000 		.4byte	0x109
 1714 0540 4A050000 		.4byte	0x54a
 1715 0544 12       		.uleb128 0x12
 1716 0545 73000000 		.4byte	0x73
 1717 0549 00       		.byte	0x0
 1718 054a 06       		.uleb128 0x6
 1719 054b 04       		.byte	0x4
 1720 054c 94000000 		.4byte	0x94
 1721 0550 08       		.uleb128 0x8
 1722 0551 D6040000 		.4byte	.LASF78
 1723 0555 10       		.byte	0x10
 1724 0556 0D       		.byte	0xd
 1725 0557 48       		.byte	0x48
 1726 0558 95050000 		.4byte	0x595
 1727 055c 09       		.uleb128 0x9
 1728 055d 11030000 		.4byte	.LASF79
 1729 0561 0D       		.byte	0xd
 1730 0562 49       		.byte	0x49
 1731 0563 BA050000 		.4byte	0x5ba
 1732 0567 02       		.byte	0x2
 1733 0568 23       		.byte	0x23
 1734 0569 00       		.uleb128 0x0
 1735 056a 09       		.uleb128 0x9
 1736 056b 63050000 		.4byte	.LASF80
 1737 056f 0D       		.byte	0xd
 1738 0570 49       		.byte	0x49
 1739 0571 DA050000 		.4byte	0x5da
 1740 0575 02       		.byte	0x2
ARM GAS  C:\Users\DNIEL~1\AppData\Local\Temp\ccs7G6af.s 			page 33


 1741 0576 23       		.byte	0x23
 1742 0577 04       		.uleb128 0x4
 1743 0578 0A       		.uleb128 0xa
 1744 0579 70757400 		.ascii	"put\000"
 1745 057d 0D       		.byte	0xd
 1746 057e 49       		.byte	0x49
 1747 057f F5050000 		.4byte	0x5f5
 1748 0583 02       		.byte	0x2
 1749 0584 23       		.byte	0x23
 1750 0585 08       		.uleb128 0x8
 1751 0586 0A       		.uleb128 0xa
 1752 0587 67657400 		.ascii	"get\000"
 1753 058b 0D       		.byte	0xd
 1754 058c 49       		.byte	0x49
 1755 058d 34050000 		.4byte	0x534
 1756 0591 02       		.byte	0x2
 1757 0592 23       		.byte	0x23
 1758 0593 0C       		.uleb128 0xc
 1759 0594 00       		.byte	0x0
 1760 0595 11       		.uleb128 0x11
 1761 0596 01       		.byte	0x1
 1762 0597 29000000 		.4byte	0x29
 1763 059b AF050000 		.4byte	0x5af
 1764 059f 12       		.uleb128 0x12
 1765 05a0 73000000 		.4byte	0x73
 1766 05a4 12       		.uleb128 0x12
 1767 05a5 AF050000 		.4byte	0x5af
 1768 05a9 12       		.uleb128 0x12
 1769 05aa 29000000 		.4byte	0x29
 1770 05ae 00       		.byte	0x0
 1771 05af 06       		.uleb128 0x6
 1772 05b0 04       		.byte	0x4
 1773 05b1 B5050000 		.4byte	0x5b5
 1774 05b5 07       		.uleb128 0x7
 1775 05b6 94000000 		.4byte	0x94
 1776 05ba 06       		.uleb128 0x6
 1777 05bb 04       		.byte	0x4
 1778 05bc 95050000 		.4byte	0x595
 1779 05c0 11       		.uleb128 0x11
 1780 05c1 01       		.byte	0x1
 1781 05c2 29000000 		.4byte	0x29
 1782 05c6 DA050000 		.4byte	0x5da
 1783 05ca 12       		.uleb128 0x12
 1784 05cb 73000000 		.4byte	0x73
 1785 05cf 12       		.uleb128 0x12
 1786 05d0 4A050000 		.4byte	0x54a
 1787 05d4 12       		.uleb128 0x12
 1788 05d5 29000000 		.4byte	0x29
 1789 05d9 00       		.byte	0x0
 1790 05da 06       		.uleb128 0x6
 1791 05db 04       		.byte	0x4
 1792 05dc C0050000 		.4byte	0x5c0
 1793 05e0 11       		.uleb128 0x11
 1794 05e1 01       		.byte	0x1
 1795 05e2 09010000 		.4byte	0x109
 1796 05e6 F5050000 		.4byte	0x5f5
 1797 05ea 12       		.uleb128 0x12
ARM GAS  C:\Users\DNIEL~1\AppData\Local\Temp\ccs7G6af.s 			page 34


 1798 05eb 73000000 		.4byte	0x73
 1799 05ef 12       		.uleb128 0x12
 1800 05f0 94000000 		.4byte	0x94
 1801 05f4 00       		.byte	0x0
 1802 05f5 06       		.uleb128 0x6
 1803 05f6 04       		.byte	0x4
 1804 05f7 E0050000 		.4byte	0x5e0
 1805 05fb 0B       		.uleb128 0xb
 1806 05fc 04       		.byte	0x4
 1807 05fd 0D       		.byte	0xd
 1808 05fe 51       		.byte	0x51
 1809 05ff 12060000 		.4byte	0x612
 1810 0603 0A       		.uleb128 0xa
 1811 0604 766D7400 		.ascii	"vmt\000"
 1812 0608 0D       		.byte	0xd
 1813 0609 53       		.byte	0x53
 1814 060a 12060000 		.4byte	0x612
 1815 060e 02       		.byte	0x2
 1816 060f 23       		.byte	0x23
 1817 0610 00       		.uleb128 0x0
 1818 0611 00       		.byte	0x0
 1819 0612 06       		.uleb128 0x6
 1820 0613 04       		.byte	0x4
 1821 0614 18060000 		.4byte	0x618
 1822 0618 07       		.uleb128 0x7
 1823 0619 50050000 		.4byte	0x550
 1824 061d 02       		.uleb128 0x2
 1825 061e 05020000 		.4byte	.LASF81
 1826 0622 0D       		.byte	0xd
 1827 0623 55       		.byte	0x55
 1828 0624 FB050000 		.4byte	0x5fb
 1829 0628 13       		.uleb128 0x13
 1830 0629 B5000000 		.4byte	0xb5
 1831 062d 38060000 		.4byte	0x638
 1832 0631 14       		.uleb128 0x14
 1833 0632 34000000 		.4byte	0x34
 1834 0636 07       		.byte	0x7
 1835 0637 00       		.byte	0x0
 1836 0638 13       		.uleb128 0x13
 1837 0639 B5000000 		.4byte	0xb5
 1838 063d 48060000 		.4byte	0x648
 1839 0641 14       		.uleb128 0x14
 1840 0642 34000000 		.4byte	0x34
 1841 0646 01       		.byte	0x1
 1842 0647 00       		.byte	0x0
 1843 0648 0E       		.uleb128 0xe
 1844 0649 AA000000 		.4byte	0xaa
 1845 064d 15       		.uleb128 0x15
 1846 064e 10       		.byte	0x10
 1847 064f 0E       		.byte	0xe
 1848 0650 2F02     		.2byte	0x22f
 1849 0652 93060000 		.4byte	0x693
 1850 0656 0D       		.uleb128 0xd
 1851 0657 54495200 		.ascii	"TIR\000"
 1852 065b 0E       		.byte	0xe
 1853 065c 3102     		.2byte	0x231
 1854 065e 8F030000 		.4byte	0x38f
ARM GAS  C:\Users\DNIEL~1\AppData\Local\Temp\ccs7G6af.s 			page 35


 1855 0662 02       		.byte	0x2
 1856 0663 23       		.byte	0x23
 1857 0664 00       		.uleb128 0x0
 1858 0665 16       		.uleb128 0x16
 1859 0666 F4010000 		.4byte	.LASF82
 1860 066a 0E       		.byte	0xe
 1861 066b 3202     		.2byte	0x232
 1862 066d 8F030000 		.4byte	0x38f
 1863 0671 02       		.byte	0x2
 1864 0672 23       		.byte	0x23
 1865 0673 04       		.uleb128 0x4
 1866 0674 16       		.uleb128 0x16
 1867 0675 34010000 		.4byte	.LASF83
 1868 0679 0E       		.byte	0xe
 1869 067a 3302     		.2byte	0x233
 1870 067c 8F030000 		.4byte	0x38f
 1871 0680 02       		.byte	0x2
 1872 0681 23       		.byte	0x23
 1873 0682 08       		.uleb128 0x8
 1874 0683 16       		.uleb128 0x16
 1875 0684 90030000 		.4byte	.LASF84
 1876 0688 0E       		.byte	0xe
 1877 0689 3402     		.2byte	0x234
 1878 068b 8F030000 		.4byte	0x38f
 1879 068f 02       		.byte	0x2
 1880 0690 23       		.byte	0x23
 1881 0691 0C       		.uleb128 0xc
 1882 0692 00       		.byte	0x0
 1883 0693 17       		.uleb128 0x17
 1884 0694 4B010000 		.4byte	.LASF85
 1885 0698 0E       		.byte	0xe
 1886 0699 3502     		.2byte	0x235
 1887 069b 4D060000 		.4byte	0x64d
 1888 069f 15       		.uleb128 0x15
 1889 06a0 10       		.byte	0x10
 1890 06a1 0E       		.byte	0xe
 1891 06a2 3B02     		.2byte	0x23b
 1892 06a4 E5060000 		.4byte	0x6e5
 1893 06a8 0D       		.uleb128 0xd
 1894 06a9 52495200 		.ascii	"RIR\000"
 1895 06ad 0E       		.byte	0xe
 1896 06ae 3D02     		.2byte	0x23d
 1897 06b0 8F030000 		.4byte	0x38f
 1898 06b4 02       		.byte	0x2
 1899 06b5 23       		.byte	0x23
 1900 06b6 00       		.uleb128 0x0
 1901 06b7 16       		.uleb128 0x16
 1902 06b8 64000000 		.4byte	.LASF86
 1903 06bc 0E       		.byte	0xe
 1904 06bd 3E02     		.2byte	0x23e
 1905 06bf 8F030000 		.4byte	0x38f
 1906 06c3 02       		.byte	0x2
 1907 06c4 23       		.byte	0x23
 1908 06c5 04       		.uleb128 0x4
 1909 06c6 16       		.uleb128 0x16
 1910 06c7 AA060000 		.4byte	.LASF87
 1911 06cb 0E       		.byte	0xe
ARM GAS  C:\Users\DNIEL~1\AppData\Local\Temp\ccs7G6af.s 			page 36


 1912 06cc 3F02     		.2byte	0x23f
 1913 06ce 8F030000 		.4byte	0x38f
 1914 06d2 02       		.byte	0x2
 1915 06d3 23       		.byte	0x23
 1916 06d4 08       		.uleb128 0x8
 1917 06d5 16       		.uleb128 0x16
 1918 06d6 7E050000 		.4byte	.LASF88
 1919 06da 0E       		.byte	0xe
 1920 06db 4002     		.2byte	0x240
 1921 06dd 8F030000 		.4byte	0x38f
 1922 06e1 02       		.byte	0x2
 1923 06e2 23       		.byte	0x23
 1924 06e3 0C       		.uleb128 0xc
 1925 06e4 00       		.byte	0x0
 1926 06e5 17       		.uleb128 0x17
 1927 06e6 15060000 		.4byte	.LASF89
 1928 06ea 0E       		.byte	0xe
 1929 06eb 4102     		.2byte	0x241
 1930 06ed 9F060000 		.4byte	0x69f
 1931 06f1 15       		.uleb128 0x15
 1932 06f2 08       		.byte	0x8
 1933 06f3 0E       		.byte	0xe
 1934 06f4 4702     		.2byte	0x247
 1935 06f6 19070000 		.4byte	0x719
 1936 06fa 0D       		.uleb128 0xd
 1937 06fb 46523100 		.ascii	"FR1\000"
 1938 06ff 0E       		.byte	0xe
 1939 0700 4902     		.2byte	0x249
 1940 0702 8F030000 		.4byte	0x38f
 1941 0706 02       		.byte	0x2
 1942 0707 23       		.byte	0x23
 1943 0708 00       		.uleb128 0x0
 1944 0709 0D       		.uleb128 0xd
 1945 070a 46523200 		.ascii	"FR2\000"
 1946 070e 0E       		.byte	0xe
 1947 070f 4A02     		.2byte	0x24a
 1948 0711 8F030000 		.4byte	0x38f
 1949 0715 02       		.byte	0x2
 1950 0716 23       		.byte	0x23
 1951 0717 04       		.uleb128 0x4
 1952 0718 00       		.byte	0x0
 1953 0719 17       		.uleb128 0x17
 1954 071a 8F020000 		.4byte	.LASF90
 1955 071e 0E       		.byte	0xe
 1956 071f 4B02     		.2byte	0x24b
 1957 0721 F1060000 		.4byte	0x6f1
 1958 0725 18       		.uleb128 0x18
 1959 0726 2003     		.2byte	0x320
 1960 0728 0E       		.byte	0xe
 1961 0729 5102     		.2byte	0x251
 1962 072b 87080000 		.4byte	0x887
 1963 072f 0D       		.uleb128 0xd
 1964 0730 4D435200 		.ascii	"MCR\000"
 1965 0734 0E       		.byte	0xe
 1966 0735 5302     		.2byte	0x253
 1967 0737 8F030000 		.4byte	0x38f
 1968 073b 02       		.byte	0x2
ARM GAS  C:\Users\DNIEL~1\AppData\Local\Temp\ccs7G6af.s 			page 37


 1969 073c 23       		.byte	0x23
 1970 073d 00       		.uleb128 0x0
 1971 073e 0D       		.uleb128 0xd
 1972 073f 4D535200 		.ascii	"MSR\000"
 1973 0743 0E       		.byte	0xe
 1974 0744 5402     		.2byte	0x254
 1975 0746 8F030000 		.4byte	0x38f
 1976 074a 02       		.byte	0x2
 1977 074b 23       		.byte	0x23
 1978 074c 04       		.uleb128 0x4
 1979 074d 0D       		.uleb128 0xd
 1980 074e 54535200 		.ascii	"TSR\000"
 1981 0752 0E       		.byte	0xe
 1982 0753 5502     		.2byte	0x255
 1983 0755 8F030000 		.4byte	0x38f
 1984 0759 02       		.byte	0x2
 1985 075a 23       		.byte	0x23
 1986 075b 08       		.uleb128 0x8
 1987 075c 16       		.uleb128 0x16
 1988 075d BF010000 		.4byte	.LASF91
 1989 0761 0E       		.byte	0xe
 1990 0762 5602     		.2byte	0x256
 1991 0764 8F030000 		.4byte	0x38f
 1992 0768 02       		.byte	0x2
 1993 0769 23       		.byte	0x23
 1994 076a 0C       		.uleb128 0xc
 1995 076b 16       		.uleb128 0x16
 1996 076c 8A020000 		.4byte	.LASF92
 1997 0770 0E       		.byte	0xe
 1998 0771 5702     		.2byte	0x257
 1999 0773 8F030000 		.4byte	0x38f
 2000 0777 02       		.byte	0x2
 2001 0778 23       		.byte	0x23
 2002 0779 10       		.uleb128 0x10
 2003 077a 0D       		.uleb128 0xd
 2004 077b 49455200 		.ascii	"IER\000"
 2005 077f 0E       		.byte	0xe
 2006 0780 5802     		.2byte	0x258
 2007 0782 8F030000 		.4byte	0x38f
 2008 0786 02       		.byte	0x2
 2009 0787 23       		.byte	0x23
 2010 0788 14       		.uleb128 0x14
 2011 0789 0D       		.uleb128 0xd
 2012 078a 45535200 		.ascii	"ESR\000"
 2013 078e 0E       		.byte	0xe
 2014 078f 5902     		.2byte	0x259
 2015 0791 8F030000 		.4byte	0x38f
 2016 0795 02       		.byte	0x2
 2017 0796 23       		.byte	0x23
 2018 0797 18       		.uleb128 0x18
 2019 0798 0D       		.uleb128 0xd
 2020 0799 42545200 		.ascii	"BTR\000"
 2021 079d 0E       		.byte	0xe
 2022 079e 5A02     		.2byte	0x25a
 2023 07a0 8F030000 		.4byte	0x38f
 2024 07a4 02       		.byte	0x2
 2025 07a5 23       		.byte	0x23
ARM GAS  C:\Users\DNIEL~1\AppData\Local\Temp\ccs7G6af.s 			page 38


 2026 07a6 1C       		.uleb128 0x1c
 2027 07a7 16       		.uleb128 0x16
 2028 07a8 FC030000 		.4byte	.LASF93
 2029 07ac 0E       		.byte	0xe
 2030 07ad 5B02     		.2byte	0x25b
 2031 07af 87080000 		.4byte	0x887
 2032 07b3 02       		.byte	0x2
 2033 07b4 23       		.byte	0x23
 2034 07b5 20       		.uleb128 0x20
 2035 07b6 16       		.uleb128 0x16
 2036 07b7 33020000 		.4byte	.LASF94
 2037 07bb 0E       		.byte	0xe
 2038 07bc 5C02     		.2byte	0x25c
 2039 07be 97080000 		.4byte	0x897
 2040 07c2 03       		.byte	0x3
 2041 07c3 23       		.byte	0x23
 2042 07c4 8003     		.uleb128 0x180
 2043 07c6 16       		.uleb128 0x16
 2044 07c7 A5050000 		.4byte	.LASF95
 2045 07cb 0E       		.byte	0xe
 2046 07cc 5D02     		.2byte	0x25d
 2047 07ce A7080000 		.4byte	0x8a7
 2048 07d2 03       		.byte	0x3
 2049 07d3 23       		.byte	0x23
 2050 07d4 B003     		.uleb128 0x1b0
 2051 07d6 16       		.uleb128 0x16
 2052 07d7 06040000 		.4byte	.LASF96
 2053 07db 0E       		.byte	0xe
 2054 07dc 5E02     		.2byte	0x25e
 2055 07de B7080000 		.4byte	0x8b7
 2056 07e2 03       		.byte	0x3
 2057 07e3 23       		.byte	0x23
 2058 07e4 D003     		.uleb128 0x1d0
 2059 07e6 0D       		.uleb128 0xd
 2060 07e7 464D5200 		.ascii	"FMR\000"
 2061 07eb 0E       		.byte	0xe
 2062 07ec 5F02     		.2byte	0x25f
 2063 07ee 8F030000 		.4byte	0x38f
 2064 07f2 03       		.byte	0x3
 2065 07f3 23       		.byte	0x23
 2066 07f4 8004     		.uleb128 0x200
 2067 07f6 16       		.uleb128 0x16
 2068 07f7 BF050000 		.4byte	.LASF97
 2069 07fb 0E       		.byte	0xe
 2070 07fc 6002     		.2byte	0x260
 2071 07fe 8F030000 		.4byte	0x38f
 2072 0802 03       		.byte	0x3
 2073 0803 23       		.byte	0x23
 2074 0804 8404     		.uleb128 0x204
 2075 0806 16       		.uleb128 0x16
 2076 0807 10040000 		.4byte	.LASF98
 2077 080b 0E       		.byte	0xe
 2078 080c 6102     		.2byte	0x261
 2079 080e B5000000 		.4byte	0xb5
 2080 0812 03       		.byte	0x3
 2081 0813 23       		.byte	0x23
 2082 0814 8804     		.uleb128 0x208
ARM GAS  C:\Users\DNIEL~1\AppData\Local\Temp\ccs7G6af.s 			page 39


 2083 0816 16       		.uleb128 0x16
 2084 0817 F7050000 		.4byte	.LASF99
 2085 081b 0E       		.byte	0xe
 2086 081c 6202     		.2byte	0x262
 2087 081e 8F030000 		.4byte	0x38f
 2088 0822 03       		.byte	0x3
 2089 0823 23       		.byte	0x23
 2090 0824 8C04     		.uleb128 0x20c
 2091 0826 16       		.uleb128 0x16
 2092 0827 1A040000 		.4byte	.LASF100
 2093 082b 0E       		.byte	0xe
 2094 082c 6302     		.2byte	0x263
 2095 082e B5000000 		.4byte	0xb5
 2096 0832 03       		.byte	0x3
 2097 0833 23       		.byte	0x23
 2098 0834 9004     		.uleb128 0x210
 2099 0836 16       		.uleb128 0x16
 2100 0837 CF030000 		.4byte	.LASF101
 2101 083b 0E       		.byte	0xe
 2102 083c 6402     		.2byte	0x264
 2103 083e 8F030000 		.4byte	0x38f
 2104 0842 03       		.byte	0x3
 2105 0843 23       		.byte	0x23
 2106 0844 9404     		.uleb128 0x214
 2107 0846 16       		.uleb128 0x16
 2108 0847 24040000 		.4byte	.LASF102
 2109 084b 0E       		.byte	0xe
 2110 084c 6502     		.2byte	0x265
 2111 084e B5000000 		.4byte	0xb5
 2112 0852 03       		.byte	0x3
 2113 0853 23       		.byte	0x23
 2114 0854 9804     		.uleb128 0x218
 2115 0856 16       		.uleb128 0x16
 2116 0857 2C030000 		.4byte	.LASF103
 2117 085b 0E       		.byte	0xe
 2118 085c 6602     		.2byte	0x266
 2119 085e 8F030000 		.4byte	0x38f
 2120 0862 03       		.byte	0x3
 2121 0863 23       		.byte	0x23
 2122 0864 9C04     		.uleb128 0x21c
 2123 0866 16       		.uleb128 0x16
 2124 0867 28050000 		.4byte	.LASF104
 2125 086b 0E       		.byte	0xe
 2126 086c 6702     		.2byte	0x267
 2127 086e 28060000 		.4byte	0x628
 2128 0872 03       		.byte	0x3
 2129 0873 23       		.byte	0x23
 2130 0874 A004     		.uleb128 0x220
 2131 0876 16       		.uleb128 0x16
 2132 0877 D3020000 		.4byte	.LASF105
 2133 087b 0E       		.byte	0xe
 2134 087c 6802     		.2byte	0x268
 2135 087e C7080000 		.4byte	0x8c7
 2136 0882 03       		.byte	0x3
 2137 0883 23       		.byte	0x23
 2138 0884 C004     		.uleb128 0x240
 2139 0886 00       		.byte	0x0
ARM GAS  C:\Users\DNIEL~1\AppData\Local\Temp\ccs7G6af.s 			page 40


 2140 0887 13       		.uleb128 0x13
 2141 0888 B5000000 		.4byte	0xb5
 2142 088c 97080000 		.4byte	0x897
 2143 0890 14       		.uleb128 0x14
 2144 0891 34000000 		.4byte	0x34
 2145 0895 57       		.byte	0x57
 2146 0896 00       		.byte	0x0
 2147 0897 13       		.uleb128 0x13
 2148 0898 93060000 		.4byte	0x693
 2149 089c A7080000 		.4byte	0x8a7
 2150 08a0 14       		.uleb128 0x14
 2151 08a1 34000000 		.4byte	0x34
 2152 08a5 02       		.byte	0x2
 2153 08a6 00       		.byte	0x0
 2154 08a7 13       		.uleb128 0x13
 2155 08a8 E5060000 		.4byte	0x6e5
 2156 08ac B7080000 		.4byte	0x8b7
 2157 08b0 14       		.uleb128 0x14
 2158 08b1 34000000 		.4byte	0x34
 2159 08b5 01       		.byte	0x1
 2160 08b6 00       		.byte	0x0
 2161 08b7 13       		.uleb128 0x13
 2162 08b8 B5000000 		.4byte	0xb5
 2163 08bc C7080000 		.4byte	0x8c7
 2164 08c0 14       		.uleb128 0x14
 2165 08c1 34000000 		.4byte	0x34
 2166 08c5 0B       		.byte	0xb
 2167 08c6 00       		.byte	0x0
 2168 08c7 13       		.uleb128 0x13
 2169 08c8 19070000 		.4byte	0x719
 2170 08cc D7080000 		.4byte	0x8d7
 2171 08d0 14       		.uleb128 0x14
 2172 08d1 34000000 		.4byte	0x34
 2173 08d5 1B       		.byte	0x1b
 2174 08d6 00       		.byte	0x0
 2175 08d7 17       		.uleb128 0x17
 2176 08d8 58000000 		.4byte	.LASF106
 2177 08dc 0E       		.byte	0xe
 2178 08dd 6902     		.2byte	0x269
 2179 08df 25070000 		.4byte	0x725
 2180 08e3 08       		.uleb128 0x8
 2181 08e4 86000000 		.4byte	.LASF107
 2182 08e8 20       		.byte	0x20
 2183 08e9 0F       		.byte	0xf
 2184 08ea 4E       		.byte	0x4e
 2185 08eb 60090000 		.4byte	0x960
 2186 08ef 09       		.uleb128 0x9
 2187 08f0 11030000 		.4byte	.LASF79
 2188 08f4 0F       		.byte	0xf
 2189 08f5 4F       		.byte	0x4f
 2190 08f6 BA050000 		.4byte	0x5ba
 2191 08fa 02       		.byte	0x2
 2192 08fb 23       		.byte	0x23
 2193 08fc 00       		.uleb128 0x0
 2194 08fd 09       		.uleb128 0x9
 2195 08fe 63050000 		.4byte	.LASF80
 2196 0902 0F       		.byte	0xf
ARM GAS  C:\Users\DNIEL~1\AppData\Local\Temp\ccs7G6af.s 			page 41


 2197 0903 4F       		.byte	0x4f
 2198 0904 DA050000 		.4byte	0x5da
 2199 0908 02       		.byte	0x2
 2200 0909 23       		.byte	0x23
 2201 090a 04       		.uleb128 0x4
 2202 090b 0A       		.uleb128 0xa
 2203 090c 70757400 		.ascii	"put\000"
 2204 0910 0F       		.byte	0xf
 2205 0911 4F       		.byte	0x4f
 2206 0912 F5050000 		.4byte	0x5f5
 2207 0916 02       		.byte	0x2
 2208 0917 23       		.byte	0x23
 2209 0918 08       		.uleb128 0x8
 2210 0919 0A       		.uleb128 0xa
 2211 091a 67657400 		.ascii	"get\000"
 2212 091e 0F       		.byte	0xf
 2213 091f 4F       		.byte	0x4f
 2214 0920 34050000 		.4byte	0x534
 2215 0924 02       		.byte	0x2
 2216 0925 23       		.byte	0x23
 2217 0926 0C       		.uleb128 0xc
 2218 0927 09       		.uleb128 0x9
 2219 0928 17030000 		.4byte	.LASF108
 2220 092c 0F       		.byte	0xf
 2221 092d 4F       		.byte	0x4f
 2222 092e 7A090000 		.4byte	0x97a
 2223 0932 02       		.byte	0x2
 2224 0933 23       		.byte	0x23
 2225 0934 10       		.uleb128 0x10
 2226 0935 09       		.uleb128 0x9
 2227 0936 6C020000 		.4byte	.LASF109
 2228 093a 0F       		.byte	0xf
 2229 093b 4F       		.byte	0x4f
 2230 093c 95090000 		.4byte	0x995
 2231 0940 02       		.byte	0x2
 2232 0941 23       		.byte	0x23
 2233 0942 14       		.uleb128 0x14
 2234 0943 09       		.uleb128 0x9
 2235 0944 B8020000 		.4byte	.LASF110
 2236 0948 0F       		.byte	0xf
 2237 0949 4F       		.byte	0x4f
 2238 094a BA090000 		.4byte	0x9ba
 2239 094e 02       		.byte	0x2
 2240 094f 23       		.byte	0x23
 2241 0950 18       		.uleb128 0x18
 2242 0951 09       		.uleb128 0x9
 2243 0952 B2000000 		.4byte	.LASF111
 2244 0956 0F       		.byte	0xf
 2245 0957 4F       		.byte	0x4f
 2246 0958 DF090000 		.4byte	0x9df
 2247 095c 02       		.byte	0x2
 2248 095d 23       		.byte	0x23
 2249 095e 1C       		.uleb128 0x1c
 2250 095f 00       		.byte	0x0
 2251 0960 11       		.uleb128 0x11
 2252 0961 01       		.byte	0x1
 2253 0962 09010000 		.4byte	0x109
ARM GAS  C:\Users\DNIEL~1\AppData\Local\Temp\ccs7G6af.s 			page 42


 2254 0966 7A090000 		.4byte	0x97a
 2255 096a 12       		.uleb128 0x12
 2256 096b 73000000 		.4byte	0x73
 2257 096f 12       		.uleb128 0x12
 2258 0970 94000000 		.4byte	0x94
 2259 0974 12       		.uleb128 0x12
 2260 0975 2A010000 		.4byte	0x12a
 2261 0979 00       		.byte	0x0
 2262 097a 06       		.uleb128 0x6
 2263 097b 04       		.byte	0x4
 2264 097c 60090000 		.4byte	0x960
 2265 0980 11       		.uleb128 0x11
 2266 0981 01       		.byte	0x1
 2267 0982 09010000 		.4byte	0x109
 2268 0986 95090000 		.4byte	0x995
 2269 098a 12       		.uleb128 0x12
 2270 098b 73000000 		.4byte	0x73
 2271 098f 12       		.uleb128 0x12
 2272 0990 2A010000 		.4byte	0x12a
 2273 0994 00       		.byte	0x0
 2274 0995 06       		.uleb128 0x6
 2275 0996 04       		.byte	0x4
 2276 0997 80090000 		.4byte	0x980
 2277 099b 11       		.uleb128 0x11
 2278 099c 01       		.byte	0x1
 2279 099d 29000000 		.4byte	0x29
 2280 09a1 BA090000 		.4byte	0x9ba
 2281 09a5 12       		.uleb128 0x12
 2282 09a6 73000000 		.4byte	0x73
 2283 09aa 12       		.uleb128 0x12
 2284 09ab AF050000 		.4byte	0x5af
 2285 09af 12       		.uleb128 0x12
 2286 09b0 29000000 		.4byte	0x29
 2287 09b4 12       		.uleb128 0x12
 2288 09b5 2A010000 		.4byte	0x12a
 2289 09b9 00       		.byte	0x0
 2290 09ba 06       		.uleb128 0x6
 2291 09bb 04       		.byte	0x4
 2292 09bc 9B090000 		.4byte	0x99b
 2293 09c0 11       		.uleb128 0x11
 2294 09c1 01       		.byte	0x1
 2295 09c2 29000000 		.4byte	0x29
 2296 09c6 DF090000 		.4byte	0x9df
 2297 09ca 12       		.uleb128 0x12
 2298 09cb 73000000 		.4byte	0x73
 2299 09cf 12       		.uleb128 0x12
 2300 09d0 4A050000 		.4byte	0x54a
 2301 09d4 12       		.uleb128 0x12
 2302 09d5 29000000 		.4byte	0x29
 2303 09d9 12       		.uleb128 0x12
 2304 09da 2A010000 		.4byte	0x12a
 2305 09de 00       		.byte	0x0
 2306 09df 06       		.uleb128 0x6
 2307 09e0 04       		.byte	0x4
 2308 09e1 C0090000 		.4byte	0x9c0
 2309 09e5 0B       		.uleb128 0xb
 2310 09e6 04       		.byte	0x4
ARM GAS  C:\Users\DNIEL~1\AppData\Local\Temp\ccs7G6af.s 			page 43


 2311 09e7 0F       		.byte	0xf
 2312 09e8 59       		.byte	0x59
 2313 09e9 FC090000 		.4byte	0x9fc
 2314 09ed 0A       		.uleb128 0xa
 2315 09ee 766D7400 		.ascii	"vmt\000"
 2316 09f2 0F       		.byte	0xf
 2317 09f3 5B       		.byte	0x5b
 2318 09f4 FC090000 		.4byte	0x9fc
 2319 09f8 02       		.byte	0x2
 2320 09f9 23       		.byte	0x23
 2321 09fa 00       		.uleb128 0x0
 2322 09fb 00       		.byte	0x0
 2323 09fc 06       		.uleb128 0x6
 2324 09fd 04       		.byte	0x4
 2325 09fe 020A0000 		.4byte	0xa02
 2326 0a02 07       		.uleb128 0x7
 2327 0a03 E3080000 		.4byte	0x8e3
 2328 0a07 02       		.uleb128 0x2
 2329 0a08 9E060000 		.4byte	.LASF112
 2330 0a0c 0F       		.byte	0xf
 2331 0a0d 5D       		.byte	0x5d
 2332 0a0e E5090000 		.4byte	0x9e5
 2333 0a12 19       		.uleb128 0x19
 2334 0a13 01       		.byte	0x1
 2335 0a14 10       		.byte	0x10
 2336 0a15 6E       		.byte	0x6e
 2337 0a16 390A0000 		.4byte	0xa39
 2338 0a1a 1A       		.uleb128 0x1a
 2339 0a1b 3D040000 		.4byte	.LASF113
 2340 0a1f 00       		.sleb128 0
 2341 0a20 1A       		.uleb128 0x1a
 2342 0a21 C6030000 		.4byte	.LASF114
 2343 0a25 01       		.sleb128 1
 2344 0a26 1A       		.uleb128 0x1a
 2345 0a27 8B060000 		.4byte	.LASF115
 2346 0a2b 02       		.sleb128 2
 2347 0a2c 1A       		.uleb128 0x1a
 2348 0a2d B5010000 		.4byte	.LASF116
 2349 0a31 03       		.sleb128 3
 2350 0a32 1A       		.uleb128 0x1a
 2351 0a33 3D030000 		.4byte	.LASF117
 2352 0a37 04       		.sleb128 4
 2353 0a38 00       		.byte	0x0
 2354 0a39 02       		.uleb128 0x2
 2355 0a3a BB030000 		.4byte	.LASF118
 2356 0a3e 10       		.byte	0x10
 2357 0a3f 74       		.byte	0x74
 2358 0a40 120A0000 		.4byte	0xa12
 2359 0a44 0B       		.uleb128 0xb
 2360 0a45 01       		.byte	0x1
 2361 0a46 11       		.byte	0x11
 2362 0a47 9A       		.byte	0x9a
 2363 0a48 800A0000 		.4byte	0xa80
 2364 0a4c 1B       		.uleb128 0x1b
 2365 0a4d 444C4300 		.ascii	"DLC\000"
 2366 0a51 11       		.byte	0x11
 2367 0a52 9B       		.byte	0x9b
ARM GAS  C:\Users\DNIEL~1\AppData\Local\Temp\ccs7G6af.s 			page 44


 2368 0a53 94000000 		.4byte	0x94
 2369 0a57 01       		.byte	0x1
 2370 0a58 04       		.byte	0x4
 2371 0a59 04       		.byte	0x4
 2372 0a5a 02       		.byte	0x2
 2373 0a5b 23       		.byte	0x23
 2374 0a5c 00       		.uleb128 0x0
 2375 0a5d 1B       		.uleb128 0x1b
 2376 0a5e 52545200 		.ascii	"RTR\000"
 2377 0a62 11       		.byte	0x11
 2378 0a63 9C       		.byte	0x9c
 2379 0a64 94000000 		.4byte	0x94
 2380 0a68 01       		.byte	0x1
 2381 0a69 01       		.byte	0x1
 2382 0a6a 03       		.byte	0x3
 2383 0a6b 02       		.byte	0x2
 2384 0a6c 23       		.byte	0x23
 2385 0a6d 00       		.uleb128 0x0
 2386 0a6e 1B       		.uleb128 0x1b
 2387 0a6f 49444500 		.ascii	"IDE\000"
 2388 0a73 11       		.byte	0x11
 2389 0a74 9D       		.byte	0x9d
 2390 0a75 94000000 		.4byte	0x94
 2391 0a79 01       		.byte	0x1
 2392 0a7a 01       		.byte	0x1
 2393 0a7b 02       		.byte	0x2
 2394 0a7c 02       		.byte	0x2
 2395 0a7d 23       		.byte	0x23
 2396 0a7e 00       		.uleb128 0x0
 2397 0a7f 00       		.byte	0x0
 2398 0a80 0B       		.uleb128 0xb
 2399 0a81 04       		.byte	0x4
 2400 0a82 11       		.byte	0x11
 2401 0a83 A0       		.byte	0xa0
 2402 0a84 9A0A0000 		.4byte	0xa9a
 2403 0a88 1B       		.uleb128 0x1b
 2404 0a89 53494400 		.ascii	"SID\000"
 2405 0a8d 11       		.byte	0x11
 2406 0a8e A1       		.byte	0xa1
 2407 0a8f B5000000 		.4byte	0xb5
 2408 0a93 04       		.byte	0x4
 2409 0a94 0B       		.byte	0xb
 2410 0a95 15       		.byte	0x15
 2411 0a96 02       		.byte	0x2
 2412 0a97 23       		.byte	0x23
 2413 0a98 00       		.uleb128 0x0
 2414 0a99 00       		.byte	0x0
 2415 0a9a 0B       		.uleb128 0xb
 2416 0a9b 04       		.byte	0x4
 2417 0a9c 11       		.byte	0x11
 2418 0a9d A3       		.byte	0xa3
 2419 0a9e B40A0000 		.4byte	0xab4
 2420 0aa2 1B       		.uleb128 0x1b
 2421 0aa3 45494400 		.ascii	"EID\000"
 2422 0aa7 11       		.byte	0x11
 2423 0aa8 A4       		.byte	0xa4
 2424 0aa9 B5000000 		.4byte	0xb5
ARM GAS  C:\Users\DNIEL~1\AppData\Local\Temp\ccs7G6af.s 			page 45


 2425 0aad 04       		.byte	0x4
 2426 0aae 1D       		.byte	0x1d
 2427 0aaf 03       		.byte	0x3
 2428 0ab0 02       		.byte	0x2
 2429 0ab1 23       		.byte	0x23
 2430 0ab2 00       		.uleb128 0x0
 2431 0ab3 00       		.byte	0x0
 2432 0ab4 0F       		.uleb128 0xf
 2433 0ab5 04       		.byte	0x4
 2434 0ab6 11       		.byte	0x11
 2435 0ab7 9F       		.byte	0x9f
 2436 0ab8 C70A0000 		.4byte	0xac7
 2437 0abc 1C       		.uleb128 0x1c
 2438 0abd 800A0000 		.4byte	0xa80
 2439 0ac1 1C       		.uleb128 0x1c
 2440 0ac2 9A0A0000 		.4byte	0xa9a
 2441 0ac6 00       		.byte	0x0
 2442 0ac7 0F       		.uleb128 0xf
 2443 0ac8 08       		.byte	0x8
 2444 0ac9 11       		.byte	0x11
 2445 0aca A7       		.byte	0xa7
 2446 0acb F10A0000 		.4byte	0xaf1
 2447 0acf 10       		.uleb128 0x10
 2448 0ad0 9F050000 		.4byte	.LASF119
 2449 0ad4 11       		.byte	0x11
 2450 0ad5 A8       		.byte	0xa8
 2451 0ad6 F10A0000 		.4byte	0xaf1
 2452 0ada 10       		.uleb128 0x10
 2453 0adb F0050000 		.4byte	.LASF120
 2454 0adf 11       		.byte	0x11
 2455 0ae0 A9       		.byte	0xa9
 2456 0ae1 010B0000 		.4byte	0xb01
 2457 0ae5 10       		.uleb128 0x10
 2458 0ae6 9E000000 		.4byte	.LASF121
 2459 0aea 11       		.byte	0x11
 2460 0aeb AA       		.byte	0xaa
 2461 0aec 38060000 		.4byte	0x638
 2462 0af0 00       		.byte	0x0
 2463 0af1 13       		.uleb128 0x13
 2464 0af2 94000000 		.4byte	0x94
 2465 0af6 010B0000 		.4byte	0xb01
 2466 0afa 14       		.uleb128 0x14
 2467 0afb 34000000 		.4byte	0x34
 2468 0aff 07       		.byte	0x7
 2469 0b00 00       		.byte	0x0
 2470 0b01 13       		.uleb128 0x13
 2471 0b02 9F000000 		.4byte	0x9f
 2472 0b06 110B0000 		.4byte	0xb11
 2473 0b0a 14       		.uleb128 0x14
 2474 0b0b 34000000 		.4byte	0x34
 2475 0b0f 03       		.byte	0x3
 2476 0b10 00       		.byte	0x0
 2477 0b11 0B       		.uleb128 0xb
 2478 0b12 10       		.byte	0x10
 2479 0b13 11       		.byte	0x11
 2480 0b14 99       		.byte	0x99
 2481 0b15 320B0000 		.4byte	0xb32
ARM GAS  C:\Users\DNIEL~1\AppData\Local\Temp\ccs7G6af.s 			page 46


 2482 0b19 1D       		.uleb128 0x1d
 2483 0b1a 440A0000 		.4byte	0xa44
 2484 0b1e 02       		.byte	0x2
 2485 0b1f 23       		.byte	0x23
 2486 0b20 00       		.uleb128 0x0
 2487 0b21 1D       		.uleb128 0x1d
 2488 0b22 B40A0000 		.4byte	0xab4
 2489 0b26 02       		.byte	0x2
 2490 0b27 23       		.byte	0x23
 2491 0b28 04       		.uleb128 0x4
 2492 0b29 1D       		.uleb128 0x1d
 2493 0b2a C70A0000 		.4byte	0xac7
 2494 0b2e 02       		.byte	0x2
 2495 0b2f 23       		.byte	0x23
 2496 0b30 08       		.uleb128 0x8
 2497 0b31 00       		.byte	0x0
 2498 0b32 02       		.uleb128 0x2
 2499 0b33 61020000 		.4byte	.LASF122
 2500 0b37 11       		.byte	0x11
 2501 0b38 AC       		.byte	0xac
 2502 0b39 110B0000 		.4byte	0xb11
 2503 0b3d 0B       		.uleb128 0xb
 2504 0b3e 04       		.byte	0x4
 2505 0b3f 11       		.byte	0x11
 2506 0b40 B4       		.byte	0xb4
 2507 0b41 620B0000 		.4byte	0xb62
 2508 0b45 0A       		.uleb128 0xa
 2509 0b46 464D4900 		.ascii	"FMI\000"
 2510 0b4a 11       		.byte	0x11
 2511 0b4b B5       		.byte	0xb5
 2512 0b4c 94000000 		.4byte	0x94
 2513 0b50 02       		.byte	0x2
 2514 0b51 23       		.byte	0x23
 2515 0b52 00       		.uleb128 0x0
 2516 0b53 09       		.uleb128 0x9
 2517 0b54 E2010000 		.4byte	.LASF123
 2518 0b58 11       		.byte	0x11
 2519 0b59 B6       		.byte	0xb6
 2520 0b5a 9F000000 		.4byte	0x9f
 2521 0b5e 02       		.byte	0x2
 2522 0b5f 23       		.byte	0x23
 2523 0b60 02       		.uleb128 0x2
 2524 0b61 00       		.byte	0x0
 2525 0b62 0B       		.uleb128 0xb
 2526 0b63 01       		.byte	0x1
 2527 0b64 11       		.byte	0x11
 2528 0b65 B8       		.byte	0xb8
 2529 0b66 9E0B0000 		.4byte	0xb9e
 2530 0b6a 1B       		.uleb128 0x1b
 2531 0b6b 444C4300 		.ascii	"DLC\000"
 2532 0b6f 11       		.byte	0x11
 2533 0b70 B9       		.byte	0xb9
 2534 0b71 94000000 		.4byte	0x94
 2535 0b75 01       		.byte	0x1
 2536 0b76 04       		.byte	0x4
 2537 0b77 04       		.byte	0x4
 2538 0b78 02       		.byte	0x2
ARM GAS  C:\Users\DNIEL~1\AppData\Local\Temp\ccs7G6af.s 			page 47


 2539 0b79 23       		.byte	0x23
 2540 0b7a 00       		.uleb128 0x0
 2541 0b7b 1B       		.uleb128 0x1b
 2542 0b7c 52545200 		.ascii	"RTR\000"
 2543 0b80 11       		.byte	0x11
 2544 0b81 BA       		.byte	0xba
 2545 0b82 94000000 		.4byte	0x94
 2546 0b86 01       		.byte	0x1
 2547 0b87 01       		.byte	0x1
 2548 0b88 03       		.byte	0x3
 2549 0b89 02       		.byte	0x2
 2550 0b8a 23       		.byte	0x23
 2551 0b8b 00       		.uleb128 0x0
 2552 0b8c 1B       		.uleb128 0x1b
 2553 0b8d 49444500 		.ascii	"IDE\000"
 2554 0b91 11       		.byte	0x11
 2555 0b92 BB       		.byte	0xbb
 2556 0b93 94000000 		.4byte	0x94
 2557 0b97 01       		.byte	0x1
 2558 0b98 01       		.byte	0x1
 2559 0b99 02       		.byte	0x2
 2560 0b9a 02       		.byte	0x2
 2561 0b9b 23       		.byte	0x23
 2562 0b9c 00       		.uleb128 0x0
 2563 0b9d 00       		.byte	0x0
 2564 0b9e 0B       		.uleb128 0xb
 2565 0b9f 04       		.byte	0x4
 2566 0ba0 11       		.byte	0x11
 2567 0ba1 BE       		.byte	0xbe
 2568 0ba2 B80B0000 		.4byte	0xbb8
 2569 0ba6 1B       		.uleb128 0x1b
 2570 0ba7 53494400 		.ascii	"SID\000"
 2571 0bab 11       		.byte	0x11
 2572 0bac BF       		.byte	0xbf
 2573 0bad B5000000 		.4byte	0xb5
 2574 0bb1 04       		.byte	0x4
 2575 0bb2 0B       		.byte	0xb
 2576 0bb3 15       		.byte	0x15
 2577 0bb4 02       		.byte	0x2
 2578 0bb5 23       		.byte	0x23
 2579 0bb6 00       		.uleb128 0x0
 2580 0bb7 00       		.byte	0x0
 2581 0bb8 0B       		.uleb128 0xb
 2582 0bb9 04       		.byte	0x4
 2583 0bba 11       		.byte	0x11
 2584 0bbb C1       		.byte	0xc1
 2585 0bbc D20B0000 		.4byte	0xbd2
 2586 0bc0 1B       		.uleb128 0x1b
 2587 0bc1 45494400 		.ascii	"EID\000"
 2588 0bc5 11       		.byte	0x11
 2589 0bc6 C2       		.byte	0xc2
 2590 0bc7 B5000000 		.4byte	0xb5
 2591 0bcb 04       		.byte	0x4
 2592 0bcc 1D       		.byte	0x1d
 2593 0bcd 03       		.byte	0x3
 2594 0bce 02       		.byte	0x2
 2595 0bcf 23       		.byte	0x23
ARM GAS  C:\Users\DNIEL~1\AppData\Local\Temp\ccs7G6af.s 			page 48


 2596 0bd0 00       		.uleb128 0x0
 2597 0bd1 00       		.byte	0x0
 2598 0bd2 0F       		.uleb128 0xf
 2599 0bd3 04       		.byte	0x4
 2600 0bd4 11       		.byte	0x11
 2601 0bd5 BD       		.byte	0xbd
 2602 0bd6 E50B0000 		.4byte	0xbe5
 2603 0bda 1C       		.uleb128 0x1c
 2604 0bdb 9E0B0000 		.4byte	0xb9e
 2605 0bdf 1C       		.uleb128 0x1c
 2606 0be0 B80B0000 		.4byte	0xbb8
 2607 0be4 00       		.byte	0x0
 2608 0be5 0F       		.uleb128 0xf
 2609 0be6 08       		.byte	0x8
 2610 0be7 11       		.byte	0x11
 2611 0be8 C5       		.byte	0xc5
 2612 0be9 0F0C0000 		.4byte	0xc0f
 2613 0bed 10       		.uleb128 0x10
 2614 0bee 9F050000 		.4byte	.LASF119
 2615 0bf2 11       		.byte	0x11
 2616 0bf3 C6       		.byte	0xc6
 2617 0bf4 F10A0000 		.4byte	0xaf1
 2618 0bf8 10       		.uleb128 0x10
 2619 0bf9 F0050000 		.4byte	.LASF120
 2620 0bfd 11       		.byte	0x11
 2621 0bfe C7       		.byte	0xc7
 2622 0bff 010B0000 		.4byte	0xb01
 2623 0c03 10       		.uleb128 0x10
 2624 0c04 9E000000 		.4byte	.LASF121
 2625 0c08 11       		.byte	0x11
 2626 0c09 C8       		.byte	0xc8
 2627 0c0a 38060000 		.4byte	0x638
 2628 0c0e 00       		.byte	0x0
 2629 0c0f 0B       		.uleb128 0xb
 2630 0c10 14       		.byte	0x14
 2631 0c11 11       		.byte	0x11
 2632 0c12 B3       		.byte	0xb3
 2633 0c13 380C0000 		.4byte	0xc38
 2634 0c17 1D       		.uleb128 0x1d
 2635 0c18 3D0B0000 		.4byte	0xb3d
 2636 0c1c 02       		.byte	0x2
 2637 0c1d 23       		.byte	0x23
 2638 0c1e 00       		.uleb128 0x0
 2639 0c1f 1D       		.uleb128 0x1d
 2640 0c20 620B0000 		.4byte	0xb62
 2641 0c24 02       		.byte	0x2
 2642 0c25 23       		.byte	0x23
 2643 0c26 04       		.uleb128 0x4
 2644 0c27 1D       		.uleb128 0x1d
 2645 0c28 D20B0000 		.4byte	0xbd2
 2646 0c2c 02       		.byte	0x2
 2647 0c2d 23       		.byte	0x23
 2648 0c2e 08       		.uleb128 0x8
 2649 0c2f 1D       		.uleb128 0x1d
 2650 0c30 E50B0000 		.4byte	0xbe5
 2651 0c34 02       		.byte	0x2
 2652 0c35 23       		.byte	0x23
ARM GAS  C:\Users\DNIEL~1\AppData\Local\Temp\ccs7G6af.s 			page 49


 2653 0c36 0C       		.uleb128 0xc
 2654 0c37 00       		.byte	0x0
 2655 0c38 02       		.uleb128 0x2
 2656 0c39 20000000 		.4byte	.LASF124
 2657 0c3d 11       		.byte	0x11
 2658 0c3e CA       		.byte	0xca
 2659 0c3f 0F0C0000 		.4byte	0xc0f
 2660 0c43 0B       		.uleb128 0xb
 2661 0c44 08       		.byte	0x8
 2662 0c45 11       		.byte	0x11
 2663 0c46 F4       		.byte	0xf4
 2664 0c47 690C0000 		.4byte	0xc69
 2665 0c4b 0A       		.uleb128 0xa
 2666 0c4c 6D637200 		.ascii	"mcr\000"
 2667 0c50 11       		.byte	0x11
 2668 0c51 FA       		.byte	0xfa
 2669 0c52 B5000000 		.4byte	0xb5
 2670 0c56 02       		.byte	0x2
 2671 0c57 23       		.byte	0x23
 2672 0c58 00       		.uleb128 0x0
 2673 0c59 0D       		.uleb128 0xd
 2674 0c5a 62747200 		.ascii	"btr\000"
 2675 0c5e 11       		.byte	0x11
 2676 0c5f 0001     		.2byte	0x100
 2677 0c61 B5000000 		.4byte	0xb5
 2678 0c65 02       		.byte	0x2
 2679 0c66 23       		.byte	0x23
 2680 0c67 04       		.uleb128 0x4
 2681 0c68 00       		.byte	0x0
 2682 0c69 17       		.uleb128 0x17
 2683 0c6a 4E000000 		.4byte	.LASF125
 2684 0c6e 11       		.byte	0x11
 2685 0c6f 0101     		.2byte	0x101
 2686 0c71 430C0000 		.4byte	0xc43
 2687 0c75 15       		.uleb128 0x15
 2688 0c76 38       		.byte	0x38
 2689 0c77 11       		.byte	0x11
 2690 0c78 0601     		.2byte	0x106
 2691 0c7a 150D0000 		.4byte	0xd15
 2692 0c7e 16       		.uleb128 0x16
 2693 0c7f 2E010000 		.4byte	.LASF126
 2694 0c83 11       		.byte	0x11
 2695 0c84 0A01     		.2byte	0x10a
 2696 0c86 390A0000 		.4byte	0xa39
 2697 0c8a 02       		.byte	0x2
 2698 0c8b 23       		.byte	0x23
 2699 0c8c 00       		.uleb128 0x0
 2700 0c8d 16       		.uleb128 0x16
 2701 0c8e 77050000 		.4byte	.LASF127
 2702 0c92 11       		.byte	0x11
 2703 0c93 0E01     		.2byte	0x10e
 2704 0c95 150D0000 		.4byte	0xd15
 2705 0c99 02       		.byte	0x2
 2706 0c9a 23       		.byte	0x23
 2707 0c9b 04       		.uleb128 0x4
 2708 0c9c 16       		.uleb128 0x16
 2709 0c9d 1E010000 		.4byte	.LASF128
ARM GAS  C:\Users\DNIEL~1\AppData\Local\Temp\ccs7G6af.s 			page 50


 2710 0ca1 11       		.byte	0x11
 2711 0ca2 1201     		.2byte	0x112
 2712 0ca4 2A040000 		.4byte	0x42a
 2713 0ca8 02       		.byte	0x2
 2714 0ca9 23       		.byte	0x23
 2715 0caa 08       		.uleb128 0x8
 2716 0cab 16       		.uleb128 0x16
 2717 0cac 4B060000 		.4byte	.LASF129
 2718 0cb0 11       		.byte	0x11
 2719 0cb1 1601     		.2byte	0x116
 2720 0cb3 2A040000 		.4byte	0x42a
 2721 0cb7 02       		.byte	0x2
 2722 0cb8 23       		.byte	0x23
 2723 0cb9 14       		.uleb128 0x14
 2724 0cba 16       		.uleb128 0x16
 2725 0cbb C4010000 		.4byte	.LASF130
 2726 0cbf 11       		.byte	0x11
 2727 0cc0 2301     		.2byte	0x123
 2728 0cc2 EE040000 		.4byte	0x4ee
 2729 0cc6 02       		.byte	0x2
 2730 0cc7 23       		.byte	0x23
 2731 0cc8 20       		.uleb128 0x20
 2732 0cc9 16       		.uleb128 0x16
 2733 0cca 43050000 		.4byte	.LASF131
 2734 0cce 11       		.byte	0x11
 2735 0ccf 2A01     		.2byte	0x12a
 2736 0cd1 EE040000 		.4byte	0x4ee
 2737 0cd5 02       		.byte	0x2
 2738 0cd6 23       		.byte	0x23
 2739 0cd7 24       		.uleb128 0x24
 2740 0cd8 16       		.uleb128 0x16
 2741 0cd9 D5030000 		.4byte	.LASF132
 2742 0cdd 11       		.byte	0x11
 2743 0cde 3001     		.2byte	0x130
 2744 0ce0 EE040000 		.4byte	0x4ee
 2745 0ce4 02       		.byte	0x2
 2746 0ce5 23       		.byte	0x23
 2747 0ce6 28       		.uleb128 0x28
 2748 0ce7 16       		.uleb128 0x16
 2749 0ce8 AF030000 		.4byte	.LASF133
 2750 0cec 11       		.byte	0x11
 2751 0ced 3501     		.2byte	0x135
 2752 0cef EE040000 		.4byte	0x4ee
 2753 0cf3 02       		.byte	0x2
 2754 0cf4 23       		.byte	0x23
 2755 0cf5 2C       		.uleb128 0x2c
 2756 0cf6 16       		.uleb128 0x16
 2757 0cf7 6C040000 		.4byte	.LASF134
 2758 0cfb 11       		.byte	0x11
 2759 0cfc 3901     		.2byte	0x139
 2760 0cfe EE040000 		.4byte	0x4ee
 2761 0d02 02       		.byte	0x2
 2762 0d03 23       		.byte	0x23
 2763 0d04 30       		.uleb128 0x30
 2764 0d05 0D       		.uleb128 0xd
 2765 0d06 63616E00 		.ascii	"can\000"
 2766 0d0a 11       		.byte	0x11
ARM GAS  C:\Users\DNIEL~1\AppData\Local\Temp\ccs7G6af.s 			page 51


 2767 0d0b 3F01     		.2byte	0x13f
 2768 0d0d 200D0000 		.4byte	0xd20
 2769 0d11 02       		.byte	0x2
 2770 0d12 23       		.byte	0x23
 2771 0d13 34       		.uleb128 0x34
 2772 0d14 00       		.byte	0x0
 2773 0d15 06       		.uleb128 0x6
 2774 0d16 04       		.byte	0x4
 2775 0d17 1B0D0000 		.4byte	0xd1b
 2776 0d1b 07       		.uleb128 0x7
 2777 0d1c 690C0000 		.4byte	0xc69
 2778 0d20 06       		.uleb128 0x6
 2779 0d21 04       		.byte	0x4
 2780 0d22 D7080000 		.4byte	0x8d7
 2781 0d26 17       		.uleb128 0x17
 2782 0d27 6B030000 		.4byte	.LASF135
 2783 0d2b 11       		.byte	0x11
 2784 0d2c 4001     		.2byte	0x140
 2785 0d2e 750C0000 		.4byte	0xc75
 2786 0d32 02       		.uleb128 0x2
 2787 0d33 5C030000 		.4byte	.LASF136
 2788 0d37 12       		.byte	0x12
 2789 0d38 28       		.byte	0x28
 2790 0d39 3D0D0000 		.4byte	0xd3d
 2791 0d3d 08       		.uleb128 0x8
 2792 0d3e 61010000 		.4byte	.LASF137
 2793 0d42 04       		.byte	0x4
 2794 0d43 13       		.byte	0x13
 2795 0d44 00       		.byte	0x0
 2796 0d45 570D0000 		.4byte	0xd57
 2797 0d49 1E       		.uleb128 0x1e
 2798 0d4a B2050000 		.4byte	.LASF138
 2799 0d4e 73000000 		.4byte	0x73
 2800 0d52 02       		.byte	0x2
 2801 0d53 23       		.byte	0x23
 2802 0d54 00       		.uleb128 0x0
 2803 0d55 01       		.byte	0x1
 2804 0d56 00       		.byte	0x0
 2805 0d57 02       		.uleb128 0x2
 2806 0d58 46000000 		.4byte	.LASF139
 2807 0d5c 12       		.byte	0x12
 2808 0d5d 66       		.byte	0x66
 2809 0d5e 320D0000 		.4byte	0xd32
 2810 0d62 03       		.uleb128 0x3
 2811 0d63 08       		.byte	0x8
 2812 0d64 04       		.byte	0x4
 2813 0d65 97010000 		.4byte	.LASF140
 2814 0d69 03       		.uleb128 0x3
 2815 0d6a 04       		.byte	0x4
 2816 0d6b 04       		.byte	0x4
 2817 0d6c E1030000 		.4byte	.LASF141
 2818 0d70 03       		.uleb128 0x3
 2819 0d71 08       		.byte	0x8
 2820 0d72 04       		.byte	0x4
 2821 0d73 31030000 		.4byte	.LASF142
 2822 0d77 1F       		.uleb128 0x1f
 2823 0d78 2D060000 		.4byte	.LASF149
ARM GAS  C:\Users\DNIEL~1\AppData\Local\Temp\ccs7G6af.s 			page 52


 2824 0d7c 01       		.byte	0x1
 2825 0d7d 02       		.byte	0x2
 2826 0d7e 36       		.byte	0x36
 2827 0d7f A80D0000 		.4byte	0xda8
 2828 0d83 1A       		.uleb128 0x1a
 2829 0d84 F6040000 		.4byte	.LASF143
 2830 0d88 00       		.sleb128 0
 2831 0d89 1A       		.uleb128 0x1a
 2832 0d8a 51060000 		.4byte	.LASF144
 2833 0d8e 01       		.sleb128 1
 2834 0d8f 1A       		.uleb128 0x1a
 2835 0d90 3B000000 		.4byte	.LASF145
 2836 0d94 02       		.sleb128 2
 2837 0d95 1A       		.uleb128 0x1a
 2838 0d96 6D050000 		.4byte	.LASF146
 2839 0d9a 03       		.sleb128 3
 2840 0d9b 1A       		.uleb128 0x1a
 2841 0d9c 55020000 		.4byte	.LASF147
 2842 0da0 04       		.sleb128 4
 2843 0da1 1A       		.uleb128 0x1a
 2844 0da2 4E030000 		.4byte	.LASF148
 2845 0da6 05       		.sleb128 5
 2846 0da7 00       		.byte	0x0
 2847 0da8 1F       		.uleb128 0x1f
 2848 0da9 7B010000 		.4byte	.LASF150
 2849 0dad 01       		.byte	0x1
 2850 0dae 02       		.byte	0x2
 2851 0daf 40       		.byte	0x40
 2852 0db0 C10D0000 		.4byte	0xdc1
 2853 0db4 1A       		.uleb128 0x1a
 2854 0db5 1C030000 		.4byte	.LASF151
 2855 0db9 00       		.sleb128 0
 2856 0dba 1A       		.uleb128 0x1a
 2857 0dbb 08010000 		.4byte	.LASF152
 2858 0dbf 01       		.sleb128 1
 2859 0dc0 00       		.byte	0x0
 2860 0dc1 20       		.uleb128 0x20
 2861 0dc2 CC060000 		.4byte	.LASF175
 2862 0dc6 01       		.byte	0x1
 2863 0dc7 45       		.byte	0x45
 2864 0dc8 01       		.byte	0x1
 2865 0dc9 00000000 		.4byte	.LFB118
 2866 0dcd 1E000000 		.4byte	.LFE118
 2867 0dd1 00000000 		.4byte	.LLST0
 2868 0dd5 050E0000 		.4byte	0xe05
 2869 0dd9 21       		.uleb128 0x21
 2870 0dda 63687000 		.ascii	"chp\000"
 2871 0dde 01       		.byte	0x1
 2872 0ddf 45       		.byte	0x45
 2873 0de0 050E0000 		.4byte	0xe05
 2874 0de4 38000000 		.4byte	.LLST1
 2875 0de8 22       		.uleb128 0x22
 2876 0de9 666D7400 		.ascii	"fmt\000"
 2877 0ded 01       		.byte	0x1
 2878 0dee 45       		.byte	0x45
 2879 0def 89000000 		.4byte	0x89
 2880 0df3 02       		.byte	0x2
ARM GAS  C:\Users\DNIEL~1\AppData\Local\Temp\ccs7G6af.s 			page 53


 2881 0df4 91       		.byte	0x91
 2882 0df5 74       		.sleb128 -12
 2883 0df6 23       		.uleb128 0x23
 2884 0df7 24       		.uleb128 0x24
 2885 0df8 617000   		.ascii	"ap\000"
 2886 0dfb 01       		.byte	0x1
 2887 0dfc 46       		.byte	0x46
 2888 0dfd 570D0000 		.4byte	0xd57
 2889 0e01 02       		.byte	0x2
 2890 0e02 91       		.byte	0x91
 2891 0e03 6C       		.sleb128 -20
 2892 0e04 00       		.byte	0x0
 2893 0e05 06       		.uleb128 0x6
 2894 0e06 04       		.byte	0x4
 2895 0e07 1D060000 		.4byte	0x61d
 2896 0e0b 25       		.uleb128 0x25
 2897 0e0c F5020000 		.4byte	.LASF154
 2898 0e10 02       		.byte	0x2
 2899 0e11 55       		.byte	0x55
 2900 0e12 01       		.byte	0x1
 2901 0e13 09010000 		.4byte	0x109
 2902 0e17 00000000 		.4byte	.LFB119
 2903 0e1b 94010000 		.4byte	.LFE119
 2904 0e1f 4B000000 		.4byte	.LLST2
 2905 0e23 510E0000 		.4byte	0xe51
 2906 0e27 21       		.uleb128 0x21
 2907 0e28 7000     		.ascii	"p\000"
 2908 0e2a 02       		.byte	0x2
 2909 0e2b 55       		.byte	0x55
 2910 0e2c 73000000 		.4byte	0x73
 2911 0e30 77000000 		.4byte	.LLST3
 2912 0e34 24       		.uleb128 0x24
 2913 0e35 656C00   		.ascii	"el\000"
 2914 0e38 02       		.byte	0x2
 2915 0e39 56       		.byte	0x56
 2916 0e3a 7D040000 		.4byte	0x47d
 2917 0e3e 02       		.byte	0x2
 2918 0e3f 91       		.byte	0x91
 2919 0e40 58       		.sleb128 -40
 2920 0e41 26       		.uleb128 0x26
 2921 0e42 AC000000 		.4byte	.LASF153
 2922 0e46 02       		.byte	0x2
 2923 0e47 58       		.byte	0x58
 2924 0e48 57000000 		.4byte	0x57
 2925 0e4c 8A000000 		.4byte	.LLST4
 2926 0e50 00       		.byte	0x0
 2927 0e51 25       		.uleb128 0x25
 2928 0e52 0C050000 		.4byte	.LASF155
 2929 0e56 02       		.byte	0x2
 2930 0e57 DF       		.byte	0xdf
 2931 0e58 01       		.byte	0x1
 2932 0e59 09010000 		.4byte	0x109
 2933 0e5d 00000000 		.4byte	.LFB120
 2934 0e61 74000000 		.4byte	.LFE120
 2935 0e65 FA000000 		.4byte	.LLST5
 2936 0e69 8A0E0000 		.4byte	0xe8a
 2937 0e6d 21       		.uleb128 0x21
ARM GAS  C:\Users\DNIEL~1\AppData\Local\Temp\ccs7G6af.s 			page 54


 2938 0e6e 7000     		.ascii	"p\000"
 2939 0e70 02       		.byte	0x2
 2940 0e71 DF       		.byte	0xdf
 2941 0e72 73000000 		.4byte	0x73
 2942 0e76 1A010000 		.4byte	.LLST6
 2943 0e7a 26       		.uleb128 0x26
 2944 0e7b 81060000 		.4byte	.LASF156
 2945 0e7f 02       		.byte	0x2
 2946 0e80 E4       		.byte	0xe4
 2947 0e81 57000000 		.4byte	0x57
 2948 0e85 2D010000 		.4byte	.LLST7
 2949 0e89 00       		.byte	0x0
 2950 0e8a 27       		.uleb128 0x27
 2951 0e8b 01       		.byte	0x1
 2952 0e8c E7030000 		.4byte	.LASF176
 2953 0e90 02       		.byte	0x2
 2954 0e91 FE       		.byte	0xfe
 2955 0e92 01       		.byte	0x1
 2956 0e93 00000000 		.4byte	.LFB121
 2957 0e97 64000000 		.4byte	.LFE121
 2958 0e9b 4D010000 		.4byte	.LLST8
 2959 0e9f 28       		.uleb128 0x28
 2960 0ea0 01       		.byte	0x1
 2961 0ea1 06000000 		.4byte	.LASF177
 2962 0ea5 02       		.byte	0x2
 2963 0ea6 0901     		.2byte	0x109
 2964 0ea8 01       		.byte	0x1
 2965 0ea9 00000000 		.4byte	.LFB122
 2966 0ead 4C010000 		.4byte	.LFE122
 2967 0eb1 79010000 		.4byte	.LLST9
 2968 0eb5 EA0E0000 		.4byte	0xeea
 2969 0eb9 29       		.uleb128 0x29
 2970 0eba 63687000 		.ascii	"chp\000"
 2971 0ebe 02       		.byte	0x2
 2972 0ebf 0901     		.2byte	0x109
 2973 0ec1 050E0000 		.4byte	0xe05
 2974 0ec5 99010000 		.4byte	.LLST10
 2975 0ec9 2A       		.uleb128 0x2a
 2976 0eca 7C060000 		.4byte	.LASF157
 2977 0ece 02       		.byte	0x2
 2978 0ecf 0901     		.2byte	0x109
 2979 0ed1 57000000 		.4byte	0x57
 2980 0ed5 B7010000 		.4byte	.LLST11
 2981 0ed9 2A       		.uleb128 0x2a
 2982 0eda AF060000 		.4byte	.LASF158
 2983 0ede 02       		.byte	0x2
 2984 0edf 0901     		.2byte	0x109
 2985 0ee1 EA0E0000 		.4byte	0xeea
 2986 0ee5 CA010000 		.4byte	.LLST12
 2987 0ee9 00       		.byte	0x0
 2988 0eea 06       		.uleb128 0x6
 2989 0eeb 04       		.byte	0x4
 2990 0eec 7C000000 		.4byte	0x7c
 2991 0ef0 2B       		.uleb128 0x2b
 2992 0ef1 EE010000 		.4byte	.LASF159
 2993 0ef5 09       		.byte	0x9
 2994 0ef6 6F       		.byte	0x6f
ARM GAS  C:\Users\DNIEL~1\AppData\Local\Temp\ccs7G6af.s 			page 55


 2995 0ef7 F6030000 		.4byte	0x3f6
 2996 0efb 01       		.byte	0x1
 2997 0efc 01       		.byte	0x1
 2998 0efd 2C       		.uleb128 0x2c
 2999 0efe 85040000 		.4byte	.LASF160
 3000 0f02 14       		.byte	0x14
 3001 0f03 9806     		.2byte	0x698
 3002 0f05 48060000 		.4byte	0x648
 3003 0f09 01       		.byte	0x1
 3004 0f0a 01       		.byte	0x1
 3005 0f0b 2C       		.uleb128 0x2c
 3006 0f0c 2D020000 		.4byte	.LASF161
 3007 0f10 11       		.byte	0x11
 3008 0f11 4B01     		.2byte	0x14b
 3009 0f13 260D0000 		.4byte	0xd26
 3010 0f17 01       		.byte	0x1
 3011 0f18 01       		.byte	0x1
 3012 0f19 2B       		.uleb128 0x2b
 3013 0f1a 00050000 		.4byte	.LASF162
 3014 0f1e 02       		.byte	0x2
 3015 0f1f 3E       		.byte	0x3e
 3016 0f20 770D0000 		.4byte	0xd77
 3017 0f24 01       		.byte	0x1
 3018 0f25 01       		.byte	0x1
 3019 0f26 2D       		.uleb128 0x2d
 3020 0f27 69000000 		.4byte	.LASF163
 3021 0f2b 02       		.byte	0x2
 3022 0f2c 46       		.byte	0x46
 3023 0f2d 320B0000 		.4byte	0xb32
 3024 0f31 05       		.byte	0x5
 3025 0f32 03       		.byte	0x3
 3026 0f33 00000000 		.4byte	txmsg
 3027 0f37 2D       		.uleb128 0x2d
 3028 0f38 00000000 		.4byte	.LASF164
 3029 0f3c 02       		.byte	0x2
 3030 0f3d 47       		.byte	0x47
 3031 0f3e 380C0000 		.4byte	0xc38
 3032 0f42 05       		.byte	0x5
 3033 0f43 03       		.byte	0x3
 3034 0f44 00000000 		.4byte	rxmsg
 3035 0f48 2D       		.uleb128 0x2d
 3036 0f49 47030000 		.4byte	.LASF165
 3037 0f4d 02       		.byte	0x2
 3038 0f4e 49       		.byte	0x49
 3039 0f4f 1B0D0000 		.4byte	0xd1b
 3040 0f53 05       		.byte	0x5
 3041 0f54 03       		.byte	0x3
 3042 0f55 00000000 		.4byte	cancfg
 3043 0f59 24       		.uleb128 0x24
 3044 0f5a 696400   		.ascii	"id\000"
 3045 0f5d 02       		.byte	0x2
 3046 0f5e 4F       		.byte	0x4f
 3047 0f5f 9F000000 		.4byte	0x9f
 3048 0f63 05       		.byte	0x5
 3049 0f64 03       		.byte	0x3
 3050 0f65 00000000 		.4byte	id
 3051 0f69 2D       		.uleb128 0x2d
ARM GAS  C:\Users\DNIEL~1\AppData\Local\Temp\ccs7G6af.s 			page 56


 3052 0f6a 72010000 		.4byte	.LASF166
 3053 0f6e 02       		.byte	0x2
 3054 0f6f 50       		.byte	0x50
 3055 0f70 9F000000 		.4byte	0x9f
 3056 0f74 05       		.byte	0x5
 3057 0f75 03       		.byte	0x3
 3058 0f76 00000000 		.4byte	messages
 3059 0f7a 2E       		.uleb128 0x2e
 3060 0f7b 41060000 		.4byte	.LASF167
 3061 0f7f 02       		.byte	0x2
 3062 0f80 51       		.byte	0x51
 3063 0f81 9F000000 		.4byte	0x9f
 3064 0f85 2E       		.uleb128 0x2e
 3065 0f86 9E010000 		.4byte	.LASF168
 3066 0f8a 02       		.byte	0x2
 3067 0f8b 52       		.byte	0x52
 3068 0f8c 9F000000 		.4byte	0x9f
 3069 0f90 13       		.uleb128 0x13
 3070 0f91 D3020000 		.4byte	0x2d3
 3071 0f95 A00F0000 		.4byte	0xfa0
 3072 0f99 14       		.uleb128 0x14
 3073 0f9a 34000000 		.4byte	0x34
 3074 0f9e 39       		.byte	0x39
 3075 0f9f 00       		.byte	0x0
 3076 0fa0 2D       		.uleb128 0x2d
 3077 0fa1 FC020000 		.4byte	.LASF169
 3078 0fa5 02       		.byte	0x2
 3079 0fa6 54       		.byte	0x54
 3080 0fa7 900F0000 		.4byte	0xf90
 3081 0fab 05       		.byte	0x5
 3082 0fac 03       		.byte	0x3
 3083 0fad 00000000 		.4byte	can_rx_wa
 3084 0fb1 2D       		.uleb128 0x2d
 3085 0fb2 13050000 		.4byte	.LASF170
 3086 0fb6 02       		.byte	0x2
 3087 0fb7 DE       		.byte	0xde
 3088 0fb8 900F0000 		.4byte	0xf90
 3089 0fbc 05       		.byte	0x5
 3090 0fbd 03       		.byte	0x3
 3091 0fbe 00000000 		.4byte	can_tx_wa
 3092 0fc2 2B       		.uleb128 0x2b
 3093 0fc3 EE010000 		.4byte	.LASF159
 3094 0fc7 09       		.byte	0x9
 3095 0fc8 6F       		.byte	0x6f
 3096 0fc9 F6030000 		.4byte	0x3f6
 3097 0fcd 01       		.byte	0x1
 3098 0fce 01       		.byte	0x1
 3099 0fcf 2C       		.uleb128 0x2c
 3100 0fd0 85040000 		.4byte	.LASF160
 3101 0fd4 14       		.byte	0x14
 3102 0fd5 9806     		.2byte	0x698
 3103 0fd7 48060000 		.4byte	0x648
 3104 0fdb 01       		.byte	0x1
 3105 0fdc 01       		.byte	0x1
 3106 0fdd 2C       		.uleb128 0x2c
 3107 0fde 2D020000 		.4byte	.LASF161
 3108 0fe2 11       		.byte	0x11
ARM GAS  C:\Users\DNIEL~1\AppData\Local\Temp\ccs7G6af.s 			page 57


 3109 0fe3 4B01     		.2byte	0x14b
 3110 0fe5 260D0000 		.4byte	0xd26
 3111 0fe9 01       		.byte	0x1
 3112 0fea 01       		.byte	0x1
 3113 0feb 2F       		.uleb128 0x2f
 3114 0fec 00050000 		.4byte	.LASF162
 3115 0ff0 02       		.byte	0x2
 3116 0ff1 3E       		.byte	0x3e
 3117 0ff2 770D0000 		.4byte	0xd77
 3118 0ff6 01       		.byte	0x1
 3119 0ff7 05       		.byte	0x5
 3120 0ff8 03       		.byte	0x3
 3121 0ff9 00000000 		.4byte	can_rxstate
 3122 0ffd 2F       		.uleb128 0x2f
 3123 0ffe 3E020000 		.4byte	.LASF171
 3124 1002 02       		.byte	0x2
 3125 1003 44       		.byte	0x44
 3126 1004 A80D0000 		.4byte	0xda8
 3127 1008 01       		.byte	0x1
 3128 1009 05       		.byte	0x5
 3129 100a 03       		.byte	0x3
 3130 100b 00000000 		.4byte	can_txstate
 3131 100f 00       		.byte	0x0
 3132              		.section	.debug_abbrev
 3133 0000 01       		.uleb128 0x1
 3134 0001 11       		.uleb128 0x11
 3135 0002 01       		.byte	0x1
 3136 0003 25       		.uleb128 0x25
 3137 0004 0E       		.uleb128 0xe
 3138 0005 13       		.uleb128 0x13
 3139 0006 0B       		.uleb128 0xb
 3140 0007 03       		.uleb128 0x3
 3141 0008 0E       		.uleb128 0xe
 3142 0009 1B       		.uleb128 0x1b
 3143 000a 0E       		.uleb128 0xe
 3144 000b 11       		.uleb128 0x11
 3145 000c 01       		.uleb128 0x1
 3146 000d 52       		.uleb128 0x52
 3147 000e 01       		.uleb128 0x1
 3148 000f 55       		.uleb128 0x55
 3149 0010 06       		.uleb128 0x6
 3150 0011 10       		.uleb128 0x10
 3151 0012 06       		.uleb128 0x6
 3152 0013 00       		.byte	0x0
 3153 0014 00       		.byte	0x0
 3154 0015 02       		.uleb128 0x2
 3155 0016 16       		.uleb128 0x16
 3156 0017 00       		.byte	0x0
 3157 0018 03       		.uleb128 0x3
 3158 0019 0E       		.uleb128 0xe
 3159 001a 3A       		.uleb128 0x3a
 3160 001b 0B       		.uleb128 0xb
 3161 001c 3B       		.uleb128 0x3b
 3162 001d 0B       		.uleb128 0xb
 3163 001e 49       		.uleb128 0x49
 3164 001f 13       		.uleb128 0x13
 3165 0020 00       		.byte	0x0
ARM GAS  C:\Users\DNIEL~1\AppData\Local\Temp\ccs7G6af.s 			page 58


 3166 0021 00       		.byte	0x0
 3167 0022 03       		.uleb128 0x3
 3168 0023 24       		.uleb128 0x24
 3169 0024 00       		.byte	0x0
 3170 0025 0B       		.uleb128 0xb
 3171 0026 0B       		.uleb128 0xb
 3172 0027 3E       		.uleb128 0x3e
 3173 0028 0B       		.uleb128 0xb
 3174 0029 03       		.uleb128 0x3
 3175 002a 0E       		.uleb128 0xe
 3176 002b 00       		.byte	0x0
 3177 002c 00       		.byte	0x0
 3178 002d 04       		.uleb128 0x4
 3179 002e 24       		.uleb128 0x24
 3180 002f 00       		.byte	0x0
 3181 0030 0B       		.uleb128 0xb
 3182 0031 0B       		.uleb128 0xb
 3183 0032 3E       		.uleb128 0x3e
 3184 0033 0B       		.uleb128 0xb
 3185 0034 03       		.uleb128 0x3
 3186 0035 08       		.uleb128 0x8
 3187 0036 00       		.byte	0x0
 3188 0037 00       		.byte	0x0
 3189 0038 05       		.uleb128 0x5
 3190 0039 0F       		.uleb128 0xf
 3191 003a 00       		.byte	0x0
 3192 003b 0B       		.uleb128 0xb
 3193 003c 0B       		.uleb128 0xb
 3194 003d 00       		.byte	0x0
 3195 003e 00       		.byte	0x0
 3196 003f 06       		.uleb128 0x6
 3197 0040 0F       		.uleb128 0xf
 3198 0041 00       		.byte	0x0
 3199 0042 0B       		.uleb128 0xb
 3200 0043 0B       		.uleb128 0xb
 3201 0044 49       		.uleb128 0x49
 3202 0045 13       		.uleb128 0x13
 3203 0046 00       		.byte	0x0
 3204 0047 00       		.byte	0x0
 3205 0048 07       		.uleb128 0x7
 3206 0049 26       		.uleb128 0x26
 3207 004a 00       		.byte	0x0
 3208 004b 49       		.uleb128 0x49
 3209 004c 13       		.uleb128 0x13
 3210 004d 00       		.byte	0x0
 3211 004e 00       		.byte	0x0
 3212 004f 08       		.uleb128 0x8
 3213 0050 13       		.uleb128 0x13
 3214 0051 01       		.byte	0x1
 3215 0052 03       		.uleb128 0x3
 3216 0053 0E       		.uleb128 0xe
 3217 0054 0B       		.uleb128 0xb
 3218 0055 0B       		.uleb128 0xb
 3219 0056 3A       		.uleb128 0x3a
 3220 0057 0B       		.uleb128 0xb
 3221 0058 3B       		.uleb128 0x3b
 3222 0059 0B       		.uleb128 0xb
ARM GAS  C:\Users\DNIEL~1\AppData\Local\Temp\ccs7G6af.s 			page 59


 3223 005a 01       		.uleb128 0x1
 3224 005b 13       		.uleb128 0x13
 3225 005c 00       		.byte	0x0
 3226 005d 00       		.byte	0x0
 3227 005e 09       		.uleb128 0x9
 3228 005f 0D       		.uleb128 0xd
 3229 0060 00       		.byte	0x0
 3230 0061 03       		.uleb128 0x3
 3231 0062 0E       		.uleb128 0xe
 3232 0063 3A       		.uleb128 0x3a
 3233 0064 0B       		.uleb128 0xb
 3234 0065 3B       		.uleb128 0x3b
 3235 0066 0B       		.uleb128 0xb
 3236 0067 49       		.uleb128 0x49
 3237 0068 13       		.uleb128 0x13
 3238 0069 38       		.uleb128 0x38
 3239 006a 0A       		.uleb128 0xa
 3240 006b 00       		.byte	0x0
 3241 006c 00       		.byte	0x0
 3242 006d 0A       		.uleb128 0xa
 3243 006e 0D       		.uleb128 0xd
 3244 006f 00       		.byte	0x0
 3245 0070 03       		.uleb128 0x3
 3246 0071 08       		.uleb128 0x8
 3247 0072 3A       		.uleb128 0x3a
 3248 0073 0B       		.uleb128 0xb
 3249 0074 3B       		.uleb128 0x3b
 3250 0075 0B       		.uleb128 0xb
 3251 0076 49       		.uleb128 0x49
 3252 0077 13       		.uleb128 0x13
 3253 0078 38       		.uleb128 0x38
 3254 0079 0A       		.uleb128 0xa
 3255 007a 00       		.byte	0x0
 3256 007b 00       		.byte	0x0
 3257 007c 0B       		.uleb128 0xb
 3258 007d 13       		.uleb128 0x13
 3259 007e 01       		.byte	0x1
 3260 007f 0B       		.uleb128 0xb
 3261 0080 0B       		.uleb128 0xb
 3262 0081 3A       		.uleb128 0x3a
 3263 0082 0B       		.uleb128 0xb
 3264 0083 3B       		.uleb128 0x3b
 3265 0084 0B       		.uleb128 0xb
 3266 0085 01       		.uleb128 0x1
 3267 0086 13       		.uleb128 0x13
 3268 0087 00       		.byte	0x0
 3269 0088 00       		.byte	0x0
 3270 0089 0C       		.uleb128 0xc
 3271 008a 13       		.uleb128 0x13
 3272 008b 01       		.byte	0x1
 3273 008c 03       		.uleb128 0x3
 3274 008d 0E       		.uleb128 0xe
 3275 008e 0B       		.uleb128 0xb
 3276 008f 0B       		.uleb128 0xb
 3277 0090 3A       		.uleb128 0x3a
 3278 0091 0B       		.uleb128 0xb
 3279 0092 3B       		.uleb128 0x3b
ARM GAS  C:\Users\DNIEL~1\AppData\Local\Temp\ccs7G6af.s 			page 60


 3280 0093 05       		.uleb128 0x5
 3281 0094 01       		.uleb128 0x1
 3282 0095 13       		.uleb128 0x13
 3283 0096 00       		.byte	0x0
 3284 0097 00       		.byte	0x0
 3285 0098 0D       		.uleb128 0xd
 3286 0099 0D       		.uleb128 0xd
 3287 009a 00       		.byte	0x0
 3288 009b 03       		.uleb128 0x3
 3289 009c 08       		.uleb128 0x8
 3290 009d 3A       		.uleb128 0x3a
 3291 009e 0B       		.uleb128 0xb
 3292 009f 3B       		.uleb128 0x3b
 3293 00a0 05       		.uleb128 0x5
 3294 00a1 49       		.uleb128 0x49
 3295 00a2 13       		.uleb128 0x13
 3296 00a3 38       		.uleb128 0x38
 3297 00a4 0A       		.uleb128 0xa
 3298 00a5 00       		.byte	0x0
 3299 00a6 00       		.byte	0x0
 3300 00a7 0E       		.uleb128 0xe
 3301 00a8 35       		.uleb128 0x35
 3302 00a9 00       		.byte	0x0
 3303 00aa 49       		.uleb128 0x49
 3304 00ab 13       		.uleb128 0x13
 3305 00ac 00       		.byte	0x0
 3306 00ad 00       		.byte	0x0
 3307 00ae 0F       		.uleb128 0xf
 3308 00af 17       		.uleb128 0x17
 3309 00b0 01       		.byte	0x1
 3310 00b1 0B       		.uleb128 0xb
 3311 00b2 0B       		.uleb128 0xb
 3312 00b3 3A       		.uleb128 0x3a
 3313 00b4 0B       		.uleb128 0xb
 3314 00b5 3B       		.uleb128 0x3b
 3315 00b6 0B       		.uleb128 0xb
 3316 00b7 01       		.uleb128 0x1
 3317 00b8 13       		.uleb128 0x13
 3318 00b9 00       		.byte	0x0
 3319 00ba 00       		.byte	0x0
 3320 00bb 10       		.uleb128 0x10
 3321 00bc 0D       		.uleb128 0xd
 3322 00bd 00       		.byte	0x0
 3323 00be 03       		.uleb128 0x3
 3324 00bf 0E       		.uleb128 0xe
 3325 00c0 3A       		.uleb128 0x3a
 3326 00c1 0B       		.uleb128 0xb
 3327 00c2 3B       		.uleb128 0x3b
 3328 00c3 0B       		.uleb128 0xb
 3329 00c4 49       		.uleb128 0x49
 3330 00c5 13       		.uleb128 0x13
 3331 00c6 00       		.byte	0x0
 3332 00c7 00       		.byte	0x0
 3333 00c8 11       		.uleb128 0x11
 3334 00c9 15       		.uleb128 0x15
 3335 00ca 01       		.byte	0x1
 3336 00cb 27       		.uleb128 0x27
ARM GAS  C:\Users\DNIEL~1\AppData\Local\Temp\ccs7G6af.s 			page 61


 3337 00cc 0C       		.uleb128 0xc
 3338 00cd 49       		.uleb128 0x49
 3339 00ce 13       		.uleb128 0x13
 3340 00cf 01       		.uleb128 0x1
 3341 00d0 13       		.uleb128 0x13
 3342 00d1 00       		.byte	0x0
 3343 00d2 00       		.byte	0x0
 3344 00d3 12       		.uleb128 0x12
 3345 00d4 05       		.uleb128 0x5
 3346 00d5 00       		.byte	0x0
 3347 00d6 49       		.uleb128 0x49
 3348 00d7 13       		.uleb128 0x13
 3349 00d8 00       		.byte	0x0
 3350 00d9 00       		.byte	0x0
 3351 00da 13       		.uleb128 0x13
 3352 00db 01       		.uleb128 0x1
 3353 00dc 01       		.byte	0x1
 3354 00dd 49       		.uleb128 0x49
 3355 00de 13       		.uleb128 0x13
 3356 00df 01       		.uleb128 0x1
 3357 00e0 13       		.uleb128 0x13
 3358 00e1 00       		.byte	0x0
 3359 00e2 00       		.byte	0x0
 3360 00e3 14       		.uleb128 0x14
 3361 00e4 21       		.uleb128 0x21
 3362 00e5 00       		.byte	0x0
 3363 00e6 49       		.uleb128 0x49
 3364 00e7 13       		.uleb128 0x13
 3365 00e8 2F       		.uleb128 0x2f
 3366 00e9 0B       		.uleb128 0xb
 3367 00ea 00       		.byte	0x0
 3368 00eb 00       		.byte	0x0
 3369 00ec 15       		.uleb128 0x15
 3370 00ed 13       		.uleb128 0x13
 3371 00ee 01       		.byte	0x1
 3372 00ef 0B       		.uleb128 0xb
 3373 00f0 0B       		.uleb128 0xb
 3374 00f1 3A       		.uleb128 0x3a
 3375 00f2 0B       		.uleb128 0xb
 3376 00f3 3B       		.uleb128 0x3b
 3377 00f4 05       		.uleb128 0x5
 3378 00f5 01       		.uleb128 0x1
 3379 00f6 13       		.uleb128 0x13
 3380 00f7 00       		.byte	0x0
 3381 00f8 00       		.byte	0x0
 3382 00f9 16       		.uleb128 0x16
 3383 00fa 0D       		.uleb128 0xd
 3384 00fb 00       		.byte	0x0
 3385 00fc 03       		.uleb128 0x3
 3386 00fd 0E       		.uleb128 0xe
 3387 00fe 3A       		.uleb128 0x3a
 3388 00ff 0B       		.uleb128 0xb
 3389 0100 3B       		.uleb128 0x3b
 3390 0101 05       		.uleb128 0x5
 3391 0102 49       		.uleb128 0x49
 3392 0103 13       		.uleb128 0x13
 3393 0104 38       		.uleb128 0x38
ARM GAS  C:\Users\DNIEL~1\AppData\Local\Temp\ccs7G6af.s 			page 62


 3394 0105 0A       		.uleb128 0xa
 3395 0106 00       		.byte	0x0
 3396 0107 00       		.byte	0x0
 3397 0108 17       		.uleb128 0x17
 3398 0109 16       		.uleb128 0x16
 3399 010a 00       		.byte	0x0
 3400 010b 03       		.uleb128 0x3
 3401 010c 0E       		.uleb128 0xe
 3402 010d 3A       		.uleb128 0x3a
 3403 010e 0B       		.uleb128 0xb
 3404 010f 3B       		.uleb128 0x3b
 3405 0110 05       		.uleb128 0x5
 3406 0111 49       		.uleb128 0x49
 3407 0112 13       		.uleb128 0x13
 3408 0113 00       		.byte	0x0
 3409 0114 00       		.byte	0x0
 3410 0115 18       		.uleb128 0x18
 3411 0116 13       		.uleb128 0x13
 3412 0117 01       		.byte	0x1
 3413 0118 0B       		.uleb128 0xb
 3414 0119 05       		.uleb128 0x5
 3415 011a 3A       		.uleb128 0x3a
 3416 011b 0B       		.uleb128 0xb
 3417 011c 3B       		.uleb128 0x3b
 3418 011d 05       		.uleb128 0x5
 3419 011e 01       		.uleb128 0x1
 3420 011f 13       		.uleb128 0x13
 3421 0120 00       		.byte	0x0
 3422 0121 00       		.byte	0x0
 3423 0122 19       		.uleb128 0x19
 3424 0123 04       		.uleb128 0x4
 3425 0124 01       		.byte	0x1
 3426 0125 0B       		.uleb128 0xb
 3427 0126 0B       		.uleb128 0xb
 3428 0127 3A       		.uleb128 0x3a
 3429 0128 0B       		.uleb128 0xb
 3430 0129 3B       		.uleb128 0x3b
 3431 012a 0B       		.uleb128 0xb
 3432 012b 01       		.uleb128 0x1
 3433 012c 13       		.uleb128 0x13
 3434 012d 00       		.byte	0x0
 3435 012e 00       		.byte	0x0
 3436 012f 1A       		.uleb128 0x1a
 3437 0130 28       		.uleb128 0x28
 3438 0131 00       		.byte	0x0
 3439 0132 03       		.uleb128 0x3
 3440 0133 0E       		.uleb128 0xe
 3441 0134 1C       		.uleb128 0x1c
 3442 0135 0D       		.uleb128 0xd
 3443 0136 00       		.byte	0x0
 3444 0137 00       		.byte	0x0
 3445 0138 1B       		.uleb128 0x1b
 3446 0139 0D       		.uleb128 0xd
 3447 013a 00       		.byte	0x0
 3448 013b 03       		.uleb128 0x3
 3449 013c 08       		.uleb128 0x8
 3450 013d 3A       		.uleb128 0x3a
ARM GAS  C:\Users\DNIEL~1\AppData\Local\Temp\ccs7G6af.s 			page 63


 3451 013e 0B       		.uleb128 0xb
 3452 013f 3B       		.uleb128 0x3b
 3453 0140 0B       		.uleb128 0xb
 3454 0141 49       		.uleb128 0x49
 3455 0142 13       		.uleb128 0x13
 3456 0143 0B       		.uleb128 0xb
 3457 0144 0B       		.uleb128 0xb
 3458 0145 0D       		.uleb128 0xd
 3459 0146 0B       		.uleb128 0xb
 3460 0147 0C       		.uleb128 0xc
 3461 0148 0B       		.uleb128 0xb
 3462 0149 38       		.uleb128 0x38
 3463 014a 0A       		.uleb128 0xa
 3464 014b 00       		.byte	0x0
 3465 014c 00       		.byte	0x0
 3466 014d 1C       		.uleb128 0x1c
 3467 014e 0D       		.uleb128 0xd
 3468 014f 00       		.byte	0x0
 3469 0150 49       		.uleb128 0x49
 3470 0151 13       		.uleb128 0x13
 3471 0152 00       		.byte	0x0
 3472 0153 00       		.byte	0x0
 3473 0154 1D       		.uleb128 0x1d
 3474 0155 0D       		.uleb128 0xd
 3475 0156 00       		.byte	0x0
 3476 0157 49       		.uleb128 0x49
 3477 0158 13       		.uleb128 0x13
 3478 0159 38       		.uleb128 0x38
 3479 015a 0A       		.uleb128 0xa
 3480 015b 00       		.byte	0x0
 3481 015c 00       		.byte	0x0
 3482 015d 1E       		.uleb128 0x1e
 3483 015e 0D       		.uleb128 0xd
 3484 015f 00       		.byte	0x0
 3485 0160 03       		.uleb128 0x3
 3486 0161 0E       		.uleb128 0xe
 3487 0162 49       		.uleb128 0x49
 3488 0163 13       		.uleb128 0x13
 3489 0164 38       		.uleb128 0x38
 3490 0165 0A       		.uleb128 0xa
 3491 0166 34       		.uleb128 0x34
 3492 0167 0C       		.uleb128 0xc
 3493 0168 00       		.byte	0x0
 3494 0169 00       		.byte	0x0
 3495 016a 1F       		.uleb128 0x1f
 3496 016b 04       		.uleb128 0x4
 3497 016c 01       		.byte	0x1
 3498 016d 03       		.uleb128 0x3
 3499 016e 0E       		.uleb128 0xe
 3500 016f 0B       		.uleb128 0xb
 3501 0170 0B       		.uleb128 0xb
 3502 0171 3A       		.uleb128 0x3a
 3503 0172 0B       		.uleb128 0xb
 3504 0173 3B       		.uleb128 0x3b
 3505 0174 0B       		.uleb128 0xb
 3506 0175 01       		.uleb128 0x1
 3507 0176 13       		.uleb128 0x13
ARM GAS  C:\Users\DNIEL~1\AppData\Local\Temp\ccs7G6af.s 			page 64


 3508 0177 00       		.byte	0x0
 3509 0178 00       		.byte	0x0
 3510 0179 20       		.uleb128 0x20
 3511 017a 2E       		.uleb128 0x2e
 3512 017b 01       		.byte	0x1
 3513 017c 03       		.uleb128 0x3
 3514 017d 0E       		.uleb128 0xe
 3515 017e 3A       		.uleb128 0x3a
 3516 017f 0B       		.uleb128 0xb
 3517 0180 3B       		.uleb128 0x3b
 3518 0181 0B       		.uleb128 0xb
 3519 0182 27       		.uleb128 0x27
 3520 0183 0C       		.uleb128 0xc
 3521 0184 11       		.uleb128 0x11
 3522 0185 01       		.uleb128 0x1
 3523 0186 12       		.uleb128 0x12
 3524 0187 01       		.uleb128 0x1
 3525 0188 40       		.uleb128 0x40
 3526 0189 06       		.uleb128 0x6
 3527 018a 01       		.uleb128 0x1
 3528 018b 13       		.uleb128 0x13
 3529 018c 00       		.byte	0x0
 3530 018d 00       		.byte	0x0
 3531 018e 21       		.uleb128 0x21
 3532 018f 05       		.uleb128 0x5
 3533 0190 00       		.byte	0x0
 3534 0191 03       		.uleb128 0x3
 3535 0192 08       		.uleb128 0x8
 3536 0193 3A       		.uleb128 0x3a
 3537 0194 0B       		.uleb128 0xb
 3538 0195 3B       		.uleb128 0x3b
 3539 0196 0B       		.uleb128 0xb
 3540 0197 49       		.uleb128 0x49
 3541 0198 13       		.uleb128 0x13
 3542 0199 02       		.uleb128 0x2
 3543 019a 06       		.uleb128 0x6
 3544 019b 00       		.byte	0x0
 3545 019c 00       		.byte	0x0
 3546 019d 22       		.uleb128 0x22
 3547 019e 05       		.uleb128 0x5
 3548 019f 00       		.byte	0x0
 3549 01a0 03       		.uleb128 0x3
 3550 01a1 08       		.uleb128 0x8
 3551 01a2 3A       		.uleb128 0x3a
 3552 01a3 0B       		.uleb128 0xb
 3553 01a4 3B       		.uleb128 0x3b
 3554 01a5 0B       		.uleb128 0xb
 3555 01a6 49       		.uleb128 0x49
 3556 01a7 13       		.uleb128 0x13
 3557 01a8 02       		.uleb128 0x2
 3558 01a9 0A       		.uleb128 0xa
 3559 01aa 00       		.byte	0x0
 3560 01ab 00       		.byte	0x0
 3561 01ac 23       		.uleb128 0x23
 3562 01ad 18       		.uleb128 0x18
 3563 01ae 00       		.byte	0x0
 3564 01af 00       		.byte	0x0
ARM GAS  C:\Users\DNIEL~1\AppData\Local\Temp\ccs7G6af.s 			page 65


 3565 01b0 00       		.byte	0x0
 3566 01b1 24       		.uleb128 0x24
 3567 01b2 34       		.uleb128 0x34
 3568 01b3 00       		.byte	0x0
 3569 01b4 03       		.uleb128 0x3
 3570 01b5 08       		.uleb128 0x8
 3571 01b6 3A       		.uleb128 0x3a
 3572 01b7 0B       		.uleb128 0xb
 3573 01b8 3B       		.uleb128 0x3b
 3574 01b9 0B       		.uleb128 0xb
 3575 01ba 49       		.uleb128 0x49
 3576 01bb 13       		.uleb128 0x13
 3577 01bc 02       		.uleb128 0x2
 3578 01bd 0A       		.uleb128 0xa
 3579 01be 00       		.byte	0x0
 3580 01bf 00       		.byte	0x0
 3581 01c0 25       		.uleb128 0x25
 3582 01c1 2E       		.uleb128 0x2e
 3583 01c2 01       		.byte	0x1
 3584 01c3 03       		.uleb128 0x3
 3585 01c4 0E       		.uleb128 0xe
 3586 01c5 3A       		.uleb128 0x3a
 3587 01c6 0B       		.uleb128 0xb
 3588 01c7 3B       		.uleb128 0x3b
 3589 01c8 0B       		.uleb128 0xb
 3590 01c9 27       		.uleb128 0x27
 3591 01ca 0C       		.uleb128 0xc
 3592 01cb 49       		.uleb128 0x49
 3593 01cc 13       		.uleb128 0x13
 3594 01cd 11       		.uleb128 0x11
 3595 01ce 01       		.uleb128 0x1
 3596 01cf 12       		.uleb128 0x12
 3597 01d0 01       		.uleb128 0x1
 3598 01d1 40       		.uleb128 0x40
 3599 01d2 06       		.uleb128 0x6
 3600 01d3 01       		.uleb128 0x1
 3601 01d4 13       		.uleb128 0x13
 3602 01d5 00       		.byte	0x0
 3603 01d6 00       		.byte	0x0
 3604 01d7 26       		.uleb128 0x26
 3605 01d8 34       		.uleb128 0x34
 3606 01d9 00       		.byte	0x0
 3607 01da 03       		.uleb128 0x3
 3608 01db 0E       		.uleb128 0xe
 3609 01dc 3A       		.uleb128 0x3a
 3610 01dd 0B       		.uleb128 0xb
 3611 01de 3B       		.uleb128 0x3b
 3612 01df 0B       		.uleb128 0xb
 3613 01e0 49       		.uleb128 0x49
 3614 01e1 13       		.uleb128 0x13
 3615 01e2 02       		.uleb128 0x2
 3616 01e3 06       		.uleb128 0x6
 3617 01e4 00       		.byte	0x0
 3618 01e5 00       		.byte	0x0
 3619 01e6 27       		.uleb128 0x27
 3620 01e7 2E       		.uleb128 0x2e
 3621 01e8 00       		.byte	0x0
ARM GAS  C:\Users\DNIEL~1\AppData\Local\Temp\ccs7G6af.s 			page 66


 3622 01e9 3F       		.uleb128 0x3f
 3623 01ea 0C       		.uleb128 0xc
 3624 01eb 03       		.uleb128 0x3
 3625 01ec 0E       		.uleb128 0xe
 3626 01ed 3A       		.uleb128 0x3a
 3627 01ee 0B       		.uleb128 0xb
 3628 01ef 3B       		.uleb128 0x3b
 3629 01f0 0B       		.uleb128 0xb
 3630 01f1 27       		.uleb128 0x27
 3631 01f2 0C       		.uleb128 0xc
 3632 01f3 11       		.uleb128 0x11
 3633 01f4 01       		.uleb128 0x1
 3634 01f5 12       		.uleb128 0x12
 3635 01f6 01       		.uleb128 0x1
 3636 01f7 40       		.uleb128 0x40
 3637 01f8 06       		.uleb128 0x6
 3638 01f9 00       		.byte	0x0
 3639 01fa 00       		.byte	0x0
 3640 01fb 28       		.uleb128 0x28
 3641 01fc 2E       		.uleb128 0x2e
 3642 01fd 01       		.byte	0x1
 3643 01fe 3F       		.uleb128 0x3f
 3644 01ff 0C       		.uleb128 0xc
 3645 0200 03       		.uleb128 0x3
 3646 0201 0E       		.uleb128 0xe
 3647 0202 3A       		.uleb128 0x3a
 3648 0203 0B       		.uleb128 0xb
 3649 0204 3B       		.uleb128 0x3b
 3650 0205 05       		.uleb128 0x5
 3651 0206 27       		.uleb128 0x27
 3652 0207 0C       		.uleb128 0xc
 3653 0208 11       		.uleb128 0x11
 3654 0209 01       		.uleb128 0x1
 3655 020a 12       		.uleb128 0x12
 3656 020b 01       		.uleb128 0x1
 3657 020c 40       		.uleb128 0x40
 3658 020d 06       		.uleb128 0x6
 3659 020e 01       		.uleb128 0x1
 3660 020f 13       		.uleb128 0x13
 3661 0210 00       		.byte	0x0
 3662 0211 00       		.byte	0x0
 3663 0212 29       		.uleb128 0x29
 3664 0213 05       		.uleb128 0x5
 3665 0214 00       		.byte	0x0
 3666 0215 03       		.uleb128 0x3
 3667 0216 08       		.uleb128 0x8
 3668 0217 3A       		.uleb128 0x3a
 3669 0218 0B       		.uleb128 0xb
 3670 0219 3B       		.uleb128 0x3b
 3671 021a 05       		.uleb128 0x5
 3672 021b 49       		.uleb128 0x49
 3673 021c 13       		.uleb128 0x13
 3674 021d 02       		.uleb128 0x2
 3675 021e 06       		.uleb128 0x6
 3676 021f 00       		.byte	0x0
 3677 0220 00       		.byte	0x0
 3678 0221 2A       		.uleb128 0x2a
ARM GAS  C:\Users\DNIEL~1\AppData\Local\Temp\ccs7G6af.s 			page 67


 3679 0222 05       		.uleb128 0x5
 3680 0223 00       		.byte	0x0
 3681 0224 03       		.uleb128 0x3
 3682 0225 0E       		.uleb128 0xe
 3683 0226 3A       		.uleb128 0x3a
 3684 0227 0B       		.uleb128 0xb
 3685 0228 3B       		.uleb128 0x3b
 3686 0229 05       		.uleb128 0x5
 3687 022a 49       		.uleb128 0x49
 3688 022b 13       		.uleb128 0x13
 3689 022c 02       		.uleb128 0x2
 3690 022d 06       		.uleb128 0x6
 3691 022e 00       		.byte	0x0
 3692 022f 00       		.byte	0x0
 3693 0230 2B       		.uleb128 0x2b
 3694 0231 34       		.uleb128 0x34
 3695 0232 00       		.byte	0x0
 3696 0233 03       		.uleb128 0x3
 3697 0234 0E       		.uleb128 0xe
 3698 0235 3A       		.uleb128 0x3a
 3699 0236 0B       		.uleb128 0xb
 3700 0237 3B       		.uleb128 0x3b
 3701 0238 0B       		.uleb128 0xb
 3702 0239 49       		.uleb128 0x49
 3703 023a 13       		.uleb128 0x13
 3704 023b 3F       		.uleb128 0x3f
 3705 023c 0C       		.uleb128 0xc
 3706 023d 3C       		.uleb128 0x3c
 3707 023e 0C       		.uleb128 0xc
 3708 023f 00       		.byte	0x0
 3709 0240 00       		.byte	0x0
 3710 0241 2C       		.uleb128 0x2c
 3711 0242 34       		.uleb128 0x34
 3712 0243 00       		.byte	0x0
 3713 0244 03       		.uleb128 0x3
 3714 0245 0E       		.uleb128 0xe
 3715 0246 3A       		.uleb128 0x3a
 3716 0247 0B       		.uleb128 0xb
 3717 0248 3B       		.uleb128 0x3b
 3718 0249 05       		.uleb128 0x5
 3719 024a 49       		.uleb128 0x49
 3720 024b 13       		.uleb128 0x13
 3721 024c 3F       		.uleb128 0x3f
 3722 024d 0C       		.uleb128 0xc
 3723 024e 3C       		.uleb128 0x3c
 3724 024f 0C       		.uleb128 0xc
 3725 0250 00       		.byte	0x0
 3726 0251 00       		.byte	0x0
 3727 0252 2D       		.uleb128 0x2d
 3728 0253 34       		.uleb128 0x34
 3729 0254 00       		.byte	0x0
 3730 0255 03       		.uleb128 0x3
 3731 0256 0E       		.uleb128 0xe
 3732 0257 3A       		.uleb128 0x3a
 3733 0258 0B       		.uleb128 0xb
 3734 0259 3B       		.uleb128 0x3b
 3735 025a 0B       		.uleb128 0xb
ARM GAS  C:\Users\DNIEL~1\AppData\Local\Temp\ccs7G6af.s 			page 68


 3736 025b 49       		.uleb128 0x49
 3737 025c 13       		.uleb128 0x13
 3738 025d 02       		.uleb128 0x2
 3739 025e 0A       		.uleb128 0xa
 3740 025f 00       		.byte	0x0
 3741 0260 00       		.byte	0x0
 3742 0261 2E       		.uleb128 0x2e
 3743 0262 34       		.uleb128 0x34
 3744 0263 00       		.byte	0x0
 3745 0264 03       		.uleb128 0x3
 3746 0265 0E       		.uleb128 0xe
 3747 0266 3A       		.uleb128 0x3a
 3748 0267 0B       		.uleb128 0xb
 3749 0268 3B       		.uleb128 0x3b
 3750 0269 0B       		.uleb128 0xb
 3751 026a 49       		.uleb128 0x49
 3752 026b 13       		.uleb128 0x13
 3753 026c 00       		.byte	0x0
 3754 026d 00       		.byte	0x0
 3755 026e 2F       		.uleb128 0x2f
 3756 026f 34       		.uleb128 0x34
 3757 0270 00       		.byte	0x0
 3758 0271 03       		.uleb128 0x3
 3759 0272 0E       		.uleb128 0xe
 3760 0273 3A       		.uleb128 0x3a
 3761 0274 0B       		.uleb128 0xb
 3762 0275 3B       		.uleb128 0x3b
 3763 0276 0B       		.uleb128 0xb
 3764 0277 49       		.uleb128 0x49
 3765 0278 13       		.uleb128 0x13
 3766 0279 3F       		.uleb128 0x3f
 3767 027a 0C       		.uleb128 0xc
 3768 027b 02       		.uleb128 0x2
 3769 027c 0A       		.uleb128 0xa
 3770 027d 00       		.byte	0x0
 3771 027e 00       		.byte	0x0
 3772 027f 00       		.byte	0x0
 3773              		.section	.debug_pubnames,"",%progbits
 3774 0000 56000000 		.4byte	0x56
 3775 0004 0200     		.2byte	0x2
 3776 0006 00000000 		.4byte	.Ldebug_info0
 3777 000a 10100000 		.4byte	0x1010
 3778 000e 8A0E0000 		.4byte	0xe8a
 3779 0012 63616E5F 		.ascii	"can_commInit\000"
 3779      636F6D6D 
 3779      496E6974 
 3779      00
 3780 001f 9F0E0000 		.4byte	0xe9f
 3781 0023 636D645F 		.ascii	"cmd_can_commvalues\000"
 3781      63616E5F 
 3781      636F6D6D 
 3781      76616C75 
 3781      657300
 3782 0036 EB0F0000 		.4byte	0xfeb
 3783 003a 63616E5F 		.ascii	"can_rxstate\000"
 3783      72787374 
 3783      61746500 
ARM GAS  C:\Users\DNIEL~1\AppData\Local\Temp\ccs7G6af.s 			page 69


 3784 0046 FD0F0000 		.4byte	0xffd
 3785 004a 63616E5F 		.ascii	"can_txstate\000"
 3785      74787374 
 3785      61746500 
 3786 0056 00000000 		.4byte	0x0
 3787              		.section	.debug_pubtypes,"",%progbits
 3788 0000 18030000 		.4byte	0x318
 3789 0004 0200     		.2byte	0x2
 3790 0006 00000000 		.4byte	.Ldebug_info0
 3791 000a 10100000 		.4byte	0x1010
 3792 000e 29000000 		.4byte	0x29
 3793 0012 73697A65 		.ascii	"size_t\000"
 3793      5F7400
 3794 0019 94000000 		.4byte	0x94
 3795 001d 75696E74 		.ascii	"uint8_t\000"
 3795      385F7400 
 3796 0025 9F000000 		.4byte	0x9f
 3797 0029 75696E74 		.ascii	"uint16_t\000"
 3797      31365F74 
 3797      00
 3798 0032 AA000000 		.4byte	0xaa
 3799 0036 696E7433 		.ascii	"int32_t\000"
 3799      325F7400 
 3800 003e B5000000 		.4byte	0xb5
 3801 0042 75696E74 		.ascii	"uint32_t\000"
 3801      33325F74 
 3801      00
 3802 004b C0000000 		.4byte	0xc0
 3803 004f 75696E74 		.ascii	"uint64_t\000"
 3803      36345F74 
 3803      00
 3804 0058 D2000000 		.4byte	0xd2
 3805 005c 746D6F64 		.ascii	"tmode_t\000"
 3805      655F7400 
 3806 0064 DD000000 		.4byte	0xdd
 3807 0068 74737461 		.ascii	"tstate_t\000"
 3807      74655F74 
 3807      00
 3808 0071 E8000000 		.4byte	0xe8
 3809 0075 74726566 		.ascii	"trefs_t\000"
 3809      735F7400 
 3810 007d F3000000 		.4byte	0xf3
 3811 0081 74736C69 		.ascii	"tslices_t\000"
 3811      6365735F 
 3811      7400
 3812 008b FE000000 		.4byte	0xfe
 3813 008f 74707269 		.ascii	"tprio_t\000"
 3813      6F5F7400 
 3814 0097 09010000 		.4byte	0x109
 3815 009b 6D73675F 		.ascii	"msg_t\000"
 3815      7400
 3816 00a1 14010000 		.4byte	0x114
 3817 00a5 6576656E 		.ascii	"eventmask_t\000"
 3817      746D6173 
 3817      6B5F7400 
 3818 00b1 1F010000 		.4byte	0x11f
 3819 00b5 666C6167 		.ascii	"flagsmask_t\000"
ARM GAS  C:\Users\DNIEL~1\AppData\Local\Temp\ccs7G6af.s 			page 70


 3819      736D6173 
 3819      6B5F7400 
 3820 00c1 2A010000 		.4byte	0x12a
 3821 00c5 73797374 		.ascii	"systime_t\000"
 3821      696D655F 
 3821      7400
 3822 00cf 35010000 		.4byte	0x135
 3823 00d3 636E745F 		.ascii	"cnt_t\000"
 3823      7400
 3824 00d9 40010000 		.4byte	0x140
 3825 00dd 54687265 		.ascii	"Thread\000"
 3825      616400
 3826 00e4 9B020000 		.4byte	0x29b
 3827 00e8 54687265 		.ascii	"ThreadsQueue\000"
 3827      61647351 
 3827      75657565 
 3827      00
 3828 00f5 BD020000 		.4byte	0x2bd
 3829 00f9 54687265 		.ascii	"ThreadsList\000"
 3829      6164734C 
 3829      69737400 
 3830 0105 C8020000 		.4byte	0x2c8
 3831 0109 72656761 		.ascii	"regarm_t\000"
 3831      726D5F74 
 3831      00
 3832 0112 D3020000 		.4byte	0x2d3
 3833 0116 73746B61 		.ascii	"stkalign_t\000"
 3833      6C69676E 
 3833      5F7400
 3834 0121 DE020000 		.4byte	0x2de
 3835 0125 696E7463 		.ascii	"intctx\000"
 3835      747800
 3836 012c 6C030000 		.4byte	0x36c
 3837 0130 636F6E74 		.ascii	"context\000"
 3837      65787400 
 3838 0138 F6030000 		.4byte	0x3f6
 3839 013c 52656164 		.ascii	"ReadyList\000"
 3839      794C6973 
 3839      7400
 3840 0146 01040000 		.4byte	0x401
 3841 014a 53656D61 		.ascii	"Semaphore\000"
 3841      70686F72 
 3841      6500
 3842 0154 2A040000 		.4byte	0x42a
 3843 0158 53656D61 		.ascii	"Semaphore\000"
 3843      70686F72 
 3843      6500
 3844 0162 35040000 		.4byte	0x435
 3845 0166 4D757465 		.ascii	"Mutex\000"
 3845      7800
 3846 016c 72040000 		.4byte	0x472
 3847 0170 4D757465 		.ascii	"Mutex\000"
 3847      7800
 3848 0176 7D040000 		.4byte	0x47d
 3849 017a 4576656E 		.ascii	"EventListener\000"
 3849      744C6973 
 3849      74656E65 
ARM GAS  C:\Users\DNIEL~1\AppData\Local\Temp\ccs7G6af.s 			page 71


 3849      7200
 3850 0188 88040000 		.4byte	0x488
 3851 018c 4576656E 		.ascii	"EventListener\000"
 3851      744C6973 
 3851      74656E65 
 3851      7200
 3852 019a D3040000 		.4byte	0x4d3
 3853 019e 4576656E 		.ascii	"EventSource\000"
 3853      74536F75 
 3853      72636500 
 3854 01aa EE040000 		.4byte	0x4ee
 3855 01ae 4576656E 		.ascii	"EventSource\000"
 3855      74536F75 
 3855      72636500 
 3856 01ba 4B010000 		.4byte	0x14b
 3857 01be 54687265 		.ascii	"Thread\000"
 3857      616400
 3858 01c5 50050000 		.4byte	0x550
 3859 01c9 42617365 		.ascii	"BaseSequentialStreamVMT\000"
 3859      53657175 
 3859      656E7469 
 3859      616C5374 
 3859      7265616D 
 3860 01e1 1D060000 		.4byte	0x61d
 3861 01e5 42617365 		.ascii	"BaseSequentialStream\000"
 3861      53657175 
 3861      656E7469 
 3861      616C5374 
 3861      7265616D 
 3862 01fa 93060000 		.4byte	0x693
 3863 01fe 43414E5F 		.ascii	"CAN_TxMailBox_TypeDef\000"
 3863      54784D61 
 3863      696C426F 
 3863      785F5479 
 3863      70654465 
 3864 0214 E5060000 		.4byte	0x6e5
 3865 0218 43414E5F 		.ascii	"CAN_FIFOMailBox_TypeDef\000"
 3865      4649464F 
 3865      4D61696C 
 3865      426F785F 
 3865      54797065 
 3866 0230 19070000 		.4byte	0x719
 3867 0234 43414E5F 		.ascii	"CAN_FilterRegister_TypeDef\000"
 3867      46696C74 
 3867      65725265 
 3867      67697374 
 3867      65725F54 
 3868 024f D7080000 		.4byte	0x8d7
 3869 0253 43414E5F 		.ascii	"CAN_TypeDef\000"
 3869      54797065 
 3869      44656600 
 3870 025f E3080000 		.4byte	0x8e3
 3871 0263 42617365 		.ascii	"BaseChannelVMT\000"
 3871      4368616E 
 3871      6E656C56 
 3871      4D5400
 3872 0272 070A0000 		.4byte	0xa07
ARM GAS  C:\Users\DNIEL~1\AppData\Local\Temp\ccs7G6af.s 			page 72


 3873 0276 42617365 		.ascii	"BaseChannel\000"
 3873      4368616E 
 3873      6E656C00 
 3874 0282 390A0000 		.4byte	0xa39
 3875 0286 63616E73 		.ascii	"canstate_t\000"
 3875      74617465 
 3875      5F7400
 3876 0291 320B0000 		.4byte	0xb32
 3877 0295 43414E54 		.ascii	"CANTxFrame\000"
 3877      78467261 
 3877      6D6500
 3878 02a0 380C0000 		.4byte	0xc38
 3879 02a4 43414E52 		.ascii	"CANRxFrame\000"
 3879      78467261 
 3879      6D6500
 3880 02af 690C0000 		.4byte	0xc69
 3881 02b3 43414E43 		.ascii	"CANConfig\000"
 3881      6F6E6669 
 3881      6700
 3882 02bd 260D0000 		.4byte	0xd26
 3883 02c1 43414E44 		.ascii	"CANDriver\000"
 3883      72697665 
 3883      7200
 3884 02cb 3D0D0000 		.4byte	0xd3d
 3885 02cf 5F5F7661 		.ascii	"__va_list\000"
 3885      5F6C6973 
 3885      7400
 3886 02d9 320D0000 		.4byte	0xd32
 3887 02dd 5F5F676E 		.ascii	"__gnuc_va_list\000"
 3887      75635F76 
 3887      615F6C69 
 3887      737400
 3888 02ec 570D0000 		.4byte	0xd57
 3889 02f0 76615F6C 		.ascii	"va_list\000"
 3889      69737400 
 3890 02f8 770D0000 		.4byte	0xd77
 3891 02fc 63616E5F 		.ascii	"can_rxState\000"
 3891      72785374 
 3891      61746500 
 3892 0308 A80D0000 		.4byte	0xda8
 3893 030c 63616E5F 		.ascii	"can_txState\000"
 3893      74785374 
 3893      61746500 
 3894 0318 00000000 		.4byte	0x0
 3895              		.section	.debug_aranges,"",%progbits
 3896 0000 3C000000 		.4byte	0x3c
 3897 0004 0200     		.2byte	0x2
 3898 0006 00000000 		.4byte	.Ldebug_info0
 3899 000a 04       		.byte	0x4
 3900 000b 00       		.byte	0x0
 3901 000c 0000     		.2byte	0x0
 3902 000e 0000     		.2byte	0x0
 3903 0010 00000000 		.4byte	.LFB118
 3904 0014 1E000000 		.4byte	.LFE118-.LFB118
 3905 0018 00000000 		.4byte	.LFB119
 3906 001c 94010000 		.4byte	.LFE119-.LFB119
 3907 0020 00000000 		.4byte	.LFB120
ARM GAS  C:\Users\DNIEL~1\AppData\Local\Temp\ccs7G6af.s 			page 73


 3908 0024 74000000 		.4byte	.LFE120-.LFB120
 3909 0028 00000000 		.4byte	.LFB121
 3910 002c 64000000 		.4byte	.LFE121-.LFB121
 3911 0030 00000000 		.4byte	.LFB122
 3912 0034 4C010000 		.4byte	.LFE122-.LFB122
 3913 0038 00000000 		.4byte	0x0
 3914 003c 00000000 		.4byte	0x0
 3915              		.section	.debug_ranges,"",%progbits
 3916              	.Ldebug_ranges0:
 3917 0000 00000000 		.4byte	.LFB118
 3918 0004 1E000000 		.4byte	.LFE118
 3919 0008 00000000 		.4byte	.LFB119
 3920 000c 94010000 		.4byte	.LFE119
 3921 0010 00000000 		.4byte	.LFB120
 3922 0014 74000000 		.4byte	.LFE120
 3923 0018 00000000 		.4byte	.LFB121
 3924 001c 64000000 		.4byte	.LFE121
 3925 0020 00000000 		.4byte	.LFB122
 3926 0024 4C010000 		.4byte	.LFE122
 3927 0028 00000000 		.4byte	0x0
 3928 002c 00000000 		.4byte	0x0
 3929              		.section	.debug_str,"MS",%progbits,1
 3930              	.LASF164:
 3931 0000 72786D73 		.ascii	"rxmsg\000"
 3931      6700
 3932              	.LASF177:
 3933 0006 636D645F 		.ascii	"cmd_can_commvalues\000"
 3933      63616E5F 
 3933      636F6D6D 
 3933      76616C75 
 3933      657300
 3934              	.LASF10:
 3935 0019 73697A65 		.ascii	"size_t\000"
 3935      5F7400
 3936              	.LASF124:
 3937 0020 43414E52 		.ascii	"CANRxFrame\000"
 3937      78467261 
 3937      6D6500
 3938              	.LASF74:
 3939 002b 7264796D 		.ascii	"rdymsg\000"
 3939      736700
 3940              	.LASF15:
 3941 0032 75696E74 		.ascii	"uint64_t\000"
 3941      36345F74 
 3941      00
 3942              	.LASF145:
 3943 003b 43414E5F 		.ascii	"CAN_RX_RPY\000"
 3943      52585F52 
 3943      505900
 3944              	.LASF139:
 3945 0046 76615F6C 		.ascii	"va_list\000"
 3945      69737400 
 3946              	.LASF125:
 3947 004e 43414E43 		.ascii	"CANConfig\000"
 3947      6F6E6669 
 3947      6700
 3948              	.LASF106:
ARM GAS  C:\Users\DNIEL~1\AppData\Local\Temp\ccs7G6af.s 			page 74


 3949 0058 43414E5F 		.ascii	"CAN_TypeDef\000"
 3949      54797065 
 3949      44656600 
 3950              	.LASF86:
 3951 0064 52445452 		.ascii	"RDTR\000"
 3951      00
 3952              	.LASF163:
 3953 0069 74786D73 		.ascii	"txmsg\000"
 3953      6700
 3954              	.LASF6:
 3955 006f 6C6F6E67 		.ascii	"long long unsigned int\000"
 3955      206C6F6E 
 3955      6720756E 
 3955      7369676E 
 3955      65642069 
 3956              	.LASF107:
 3957 0086 42617365 		.ascii	"BaseChannelVMT\000"
 3957      4368616E 
 3957      6E656C56 
 3957      4D5400
 3958              	.LASF75:
 3959 0095 65786974 		.ascii	"exitcode\000"
 3959      636F6465 
 3959      00
 3960              	.LASF121:
 3961 009e 64617461 		.ascii	"data32\000"
 3961      333200
 3962              	.LASF30:
 3963 00a5 705F7072 		.ascii	"p_prio\000"
 3963      696F00
 3964              	.LASF153:
 3965 00ac 61736973 		.ascii	"asist\000"
 3965      7400
 3966              	.LASF111:
 3967 00b2 72656164 		.ascii	"readt\000"
 3967      7400
 3968              	.LASF5:
 3969 00b8 6C6F6E67 		.ascii	"long long int\000"
 3969      206C6F6E 
 3969      6720696E 
 3969      7400
 3970              	.LASF1:
 3971 00c6 7369676E 		.ascii	"signed char\000"
 3971      65642063 
 3971      68617200 
 3972              	.LASF174:
 3973 00d2 433A5C44 		.ascii	"C:\\Dani\\MegaLux\\Repo\\Modulux\\Modulux\\modulux\\"
 3973      616E695C 
 3973      4D656761 
 3973      4C75785C 
 3973      5265706F 
 3974 00ff 6669726D 		.ascii	"firmware\000"
 3974      77617265 
 3974      00
 3975              	.LASF152:
 3976 0108 43414E5F 		.ascii	"CAN_TX_NUM_CH\000"
 3976      54585F4E 
ARM GAS  C:\Users\DNIEL~1\AppData\Local\Temp\ccs7G6af.s 			page 75


 3976      554D5F43 
 3976      4800
 3977              	.LASF46:
 3978 0116 705F6D70 		.ascii	"p_mpool\000"
 3978      6F6F6C00 
 3979              	.LASF128:
 3980 011e 74787365 		.ascii	"txsem\000"
 3980      6D00
 3981              	.LASF20:
 3982 0124 74736C69 		.ascii	"tslices_t\000"
 3982      6365735F 
 3982      7400
 3983              	.LASF126:
 3984 012e 73746174 		.ascii	"state\000"
 3984      6500
 3985              	.LASF83:
 3986 0134 54444C52 		.ascii	"TDLR\000"
 3986      00
 3987              	.LASF7:
 3988 0139 6C6F6E67 		.ascii	"long int\000"
 3988      20696E74 
 3988      00
 3989              	.LASF18:
 3990 0142 74737461 		.ascii	"tstate_t\000"
 3990      74655F74 
 3990      00
 3991              	.LASF85:
 3992 014b 43414E5F 		.ascii	"CAN_TxMailBox_TypeDef\000"
 3992      54784D61 
 3992      696C426F 
 3992      785F5479 
 3992      70654465 
 3993              	.LASF137:
 3994 0161 5F5F7661 		.ascii	"__va_list\000"
 3994      5F6C6973 
 3994      7400
 3995              	.LASF37:
 3996 016b 705F7265 		.ascii	"p_refs\000"
 3996      667300
 3997              	.LASF166:
 3998 0172 6D657373 		.ascii	"messages\000"
 3998      61676573 
 3998      00
 3999              	.LASF150:
 4000 017b 63616E5F 		.ascii	"can_txState\000"
 4000      74785374 
 4000      61746500 
 4001              	.LASF12:
 4002 0187 75696E74 		.ascii	"uint16_t\000"
 4002      31365F74 
 4002      00
 4003              	.LASF39:
 4004 0190 705F7469 		.ascii	"p_time\000"
 4004      6D6500
 4005              	.LASF140:
 4006 0197 646F7562 		.ascii	"double\000"
 4006      6C6500
ARM GAS  C:\Users\DNIEL~1\AppData\Local\Temp\ccs7G6af.s 			page 76


 4007              	.LASF168:
 4008 019e 74785F61 		.ascii	"tx_ans\000"
 4008      6E7300
 4009              	.LASF32:
 4010 01a5 705F6E65 		.ascii	"p_newer\000"
 4010      77657200 
 4011              	.LASF61:
 4012 01ad 735F7175 		.ascii	"s_queue\000"
 4012      65756500 
 4013              	.LASF116:
 4014 01b5 43414E5F 		.ascii	"CAN_READY\000"
 4014      52454144 
 4014      5900
 4015              	.LASF91:
 4016 01bf 52463052 		.ascii	"RF0R\000"
 4016      00
 4017              	.LASF130:
 4018 01c4 72786675 		.ascii	"rxfull_event\000"
 4018      6C6C5F65 
 4018      76656E74 
 4018      00
 4019              	.LASF56:
 4020 01d1 725F6E65 		.ascii	"r_newer\000"
 4020      77657200 
 4021              	.LASF49:
 4022 01d9 72656761 		.ascii	"regarm_t\000"
 4022      726D5F74 
 4022      00
 4023              	.LASF123:
 4024 01e2 54494D45 		.ascii	"TIME\000"
 4024      00
 4025              	.LASF27:
 4026 01e7 54687265 		.ascii	"Thread\000"
 4026      616400
 4027              	.LASF159:
 4028 01ee 726C6973 		.ascii	"rlist\000"
 4028      7400
 4029              	.LASF82:
 4030 01f4 54445452 		.ascii	"TDTR\000"
 4030      00
 4031              	.LASF72:
 4032 01f9 4576656E 		.ascii	"EventSource\000"
 4032      74536F75 
 4032      72636500 
 4033              	.LASF81:
 4034 0205 42617365 		.ascii	"BaseSequentialStream\000"
 4034      53657175 
 4034      656E7469 
 4034      616C5374 
 4034      7265616D 
 4035              	.LASF26:
 4036 021a 636E745F 		.ascii	"cnt_t\000"
 4036      7400
 4037              	.LASF0:
 4038 0220 756E7369 		.ascii	"unsigned int\000"
 4038      676E6564 
 4038      20696E74 
ARM GAS  C:\Users\DNIEL~1\AppData\Local\Temp\ccs7G6af.s 			page 77


 4038      00
 4039              	.LASF161:
 4040 022d 43414E44 		.ascii	"CAND1\000"
 4040      3100
 4041              	.LASF94:
 4042 0233 7354784D 		.ascii	"sTxMailBox\000"
 4042      61696C42 
 4042      6F7800
 4043              	.LASF171:
 4044 023e 63616E5F 		.ascii	"can_txstate\000"
 4044      74787374 
 4044      61746500 
 4045              	.LASF41:
 4046 024a 705F6D73 		.ascii	"p_msgqueue\000"
 4046      67717565 
 4046      756500
 4047              	.LASF147:
 4048 0255 43414E5F 		.ascii	"CAN_RX_WAIT\000"
 4048      52585F57 
 4048      41495400 
 4049              	.LASF122:
 4050 0261 43414E54 		.ascii	"CANTxFrame\000"
 4050      78467261 
 4050      6D6500
 4051              	.LASF109:
 4052 026c 67657474 		.ascii	"gett\000"
 4052      00
 4053              	.LASF62:
 4054 0271 735F636E 		.ascii	"s_cnt\000"
 4054      7400
 4055              	.LASF4:
 4056 0277 73686F72 		.ascii	"short unsigned int\000"
 4056      7420756E 
 4056      7369676E 
 4056      65642069 
 4056      6E7400
 4057              	.LASF92:
 4058 028a 52463152 		.ascii	"RF1R\000"
 4058      00
 4059              	.LASF90:
 4060 028f 43414E5F 		.ascii	"CAN_FilterRegister_TypeDef\000"
 4060      46696C74 
 4060      65725265 
 4060      67697374 
 4060      65725F54 
 4061              	.LASF22:
 4062 02aa 6D73675F 		.ascii	"msg_t\000"
 4062      7400
 4063              	.LASF68:
 4064 02b0 656C5F6E 		.ascii	"el_next\000"
 4064      65787400 
 4065              	.LASF110:
 4066 02b8 77726974 		.ascii	"writet\000"
 4066      657400
 4067              	.LASF17:
 4068 02bf 746D6F64 		.ascii	"tmode_t\000"
 4068      655F7400 
ARM GAS  C:\Users\DNIEL~1\AppData\Local\Temp\ccs7G6af.s 			page 78


 4069              	.LASF48:
 4070 02c7 54687265 		.ascii	"ThreadsList\000"
 4070      6164734C 
 4070      69737400 
 4071              	.LASF105:
 4072 02d3 7346696C 		.ascii	"sFilterRegister\000"
 4072      74657252 
 4072      65676973 
 4072      74657200 
 4073              	.LASF23:
 4074 02e3 6576656E 		.ascii	"eventmask_t\000"
 4074      746D6173 
 4074      6B5F7400 
 4075              	.LASF63:
 4076 02ef 4D757465 		.ascii	"Mutex\000"
 4076      7800
 4077              	.LASF154:
 4078 02f5 63616E5F 		.ascii	"can_rx\000"
 4078      727800
 4079              	.LASF169:
 4080 02fc 63616E5F 		.ascii	"can_rx_wa\000"
 4080      72785F77 
 4080      6100
 4081              	.LASF50:
 4082 0306 73746B61 		.ascii	"stkalign_t\000"
 4082      6C69676E 
 4082      5F7400
 4083              	.LASF79:
 4084 0311 77726974 		.ascii	"write\000"
 4084      6500
 4085              	.LASF108:
 4086 0317 70757474 		.ascii	"putt\000"
 4086      00
 4087              	.LASF151:
 4088 031c 43414E5F 		.ascii	"CAN_TX_ONE_VIRE\000"
 4088      54585F4F 
 4088      4E455F56 
 4088      49524500 
 4089              	.LASF103:
 4090 032c 46413152 		.ascii	"FA1R\000"
 4090      00
 4091              	.LASF142:
 4092 0331 6C6F6E67 		.ascii	"long double\000"
 4092      20646F75 
 4092      626C6500 
 4093              	.LASF117:
 4094 033d 43414E5F 		.ascii	"CAN_SLEEP\000"
 4094      534C4545 
 4094      5000
 4095              	.LASF165:
 4096 0347 63616E63 		.ascii	"cancfg\000"
 4096      666700
 4097              	.LASF148:
 4098 034e 43414E5F 		.ascii	"CAN_RX_NUM_CH\000"
 4098      52585F4E 
 4098      554D5F43 
 4098      4800
ARM GAS  C:\Users\DNIEL~1\AppData\Local\Temp\ccs7G6af.s 			page 79


 4099              	.LASF136:
 4100 035c 5F5F676E 		.ascii	"__gnuc_va_list\000"
 4100      75635F76 
 4100      615F6C69 
 4100      737400
 4101              	.LASF135:
 4102 036b 43414E44 		.ascii	"CANDriver\000"
 4102      72697665 
 4102      7200
 4103              	.LASF33:
 4104 0375 705F6F6C 		.ascii	"p_older\000"
 4104      64657200 
 4105              	.LASF55:
 4106 037d 725F6374 		.ascii	"r_ctx\000"
 4106      7800
 4107              	.LASF47:
 4108 0383 54687265 		.ascii	"ThreadsQueue\000"
 4108      61647351 
 4108      75657565 
 4108      00
 4109              	.LASF84:
 4110 0390 54444852 		.ascii	"TDHR\000"
 4110      00
 4111              	.LASF58:
 4112 0395 725F6375 		.ascii	"r_current\000"
 4112      7272656E 
 4112      7400
 4113              	.LASF57:
 4114 039f 725F6F6C 		.ascii	"r_older\000"
 4114      64657200 
 4115              	.LASF70:
 4116 03a7 656C5F6D 		.ascii	"el_mask\000"
 4116      61736B00 
 4117              	.LASF133:
 4118 03af 736C6565 		.ascii	"sleep_event\000"
 4118      705F6576 
 4118      656E7400 
 4119              	.LASF118:
 4120 03bb 63616E73 		.ascii	"canstate_t\000"
 4120      74617465 
 4120      5F7400
 4121              	.LASF114:
 4122 03c6 43414E5F 		.ascii	"CAN_STOP\000"
 4122      53544F50 
 4122      00
 4123              	.LASF101:
 4124 03cf 46464131 		.ascii	"FFA1R\000"
 4124      5200
 4125              	.LASF132:
 4126 03d5 6572726F 		.ascii	"error_event\000"
 4126      725F6576 
 4126      656E7400 
 4127              	.LASF141:
 4128 03e1 666C6F61 		.ascii	"float\000"
 4128      7400
 4129              	.LASF176:
 4130 03e7 63616E5F 		.ascii	"can_commInit\000"
ARM GAS  C:\Users\DNIEL~1\AppData\Local\Temp\ccs7G6af.s 			page 80


 4130      636F6D6D 
 4130      496E6974 
 4130      00
 4131              	.LASF19:
 4132 03f4 74726566 		.ascii	"trefs_t\000"
 4132      735F7400 
 4133              	.LASF93:
 4134 03fc 52455345 		.ascii	"RESERVED0\000"
 4134      52564544 
 4134      3000
 4135              	.LASF96:
 4136 0406 52455345 		.ascii	"RESERVED1\000"
 4136      52564544 
 4136      3100
 4137              	.LASF98:
 4138 0410 52455345 		.ascii	"RESERVED2\000"
 4138      52564544 
 4138      3200
 4139              	.LASF100:
 4140 041a 52455345 		.ascii	"RESERVED3\000"
 4140      52564544 
 4140      3300
 4141              	.LASF102:
 4142 0424 52455345 		.ascii	"RESERVED4\000"
 4142      52564544 
 4142      3400
 4143              	.LASF29:
 4144 042e 705F7072 		.ascii	"p_prev\000"
 4144      657600
 4145              	.LASF21:
 4146 0435 74707269 		.ascii	"tprio_t\000"
 4146      6F5F7400 
 4147              	.LASF113:
 4148 043d 43414E5F 		.ascii	"CAN_UNINIT\000"
 4148      554E494E 
 4148      495400
 4149              	.LASF16:
 4150 0448 5F426F6F 		.ascii	"_Bool\000"
 4150      6C00
 4151              	.LASF13:
 4152 044e 696E7433 		.ascii	"int32_t\000"
 4152      325F7400 
 4153              	.LASF2:
 4154 0456 756E7369 		.ascii	"unsigned char\000"
 4154      676E6564 
 4154      20636861 
 4154      7200
 4155              	.LASF64:
 4156 0464 6D5F7175 		.ascii	"m_queue\000"
 4156      65756500 
 4157              	.LASF134:
 4158 046c 77616B65 		.ascii	"wakeup_event\000"
 4158      75705F65 
 4158      76656E74 
 4158      00
 4159              	.LASF69:
 4160 0479 656C5F6C 		.ascii	"el_listener\000"
ARM GAS  C:\Users\DNIEL~1\AppData\Local\Temp\ccs7G6af.s 			page 81


 4160      69737465 
 4160      6E657200 
 4161              	.LASF160:
 4162 0485 49544D5F 		.ascii	"ITM_RxBuffer\000"
 4162      52784275 
 4162      66666572 
 4162      00
 4163              	.LASF71:
 4164 0492 656C5F66 		.ascii	"el_flags\000"
 4164      6C616773 
 4164      00
 4165              	.LASF44:
 4166 049b 705F6D74 		.ascii	"p_mtxlist\000"
 4166      786C6973 
 4166      7400
 4167              	.LASF3:
 4168 04a5 73686F72 		.ascii	"short int\000"
 4168      7420696E 
 4168      7400
 4169              	.LASF35:
 4170 04af 705F7374 		.ascii	"p_state\000"
 4170      61746500 
 4171              	.LASF38:
 4172 04b7 705F7072 		.ascii	"p_preempt\000"
 4172      65656D70 
 4172      7400
 4173              	.LASF54:
 4174 04c1 725F7072 		.ascii	"r_prio\000"
 4174      696F00
 4175              	.LASF77:
 4176 04c8 65776D61 		.ascii	"ewmask\000"
 4176      736B00
 4177              	.LASF28:
 4178 04cf 705F6E65 		.ascii	"p_next\000"
 4178      787400
 4179              	.LASF78:
 4180 04d6 42617365 		.ascii	"BaseSequentialStreamVMT\000"
 4180      53657175 
 4180      656E7469 
 4180      616C5374 
 4180      7265616D 
 4181              	.LASF36:
 4182 04ee 705F666C 		.ascii	"p_flags\000"
 4182      61677300 
 4183              	.LASF143:
 4184 04f6 43414E5F 		.ascii	"CAN_RX_SM\000"
 4184      52585F53 
 4184      4D00
 4185              	.LASF162:
 4186 0500 63616E5F 		.ascii	"can_rxstate\000"
 4186      72787374 
 4186      61746500 
 4187              	.LASF155:
 4188 050c 63616E5F 		.ascii	"can_tx\000"
 4188      747800
 4189              	.LASF170:
 4190 0513 63616E5F 		.ascii	"can_tx_wa\000"
ARM GAS  C:\Users\DNIEL~1\AppData\Local\Temp\ccs7G6af.s 			page 82


 4190      74785F77 
 4190      6100
 4191              	.LASF43:
 4192 051d 705F6570 		.ascii	"p_epending\000"
 4192      656E6469 
 4192      6E6700
 4193              	.LASF104:
 4194 0528 52455345 		.ascii	"RESERVED5\000"
 4194      52564544 
 4194      3500
 4195              	.LASF14:
 4196 0532 75696E74 		.ascii	"uint32_t\000"
 4196      33325F74 
 4196      00
 4197              	.LASF53:
 4198 053b 725F7175 		.ascii	"r_queue\000"
 4198      65756500 
 4199              	.LASF131:
 4200 0543 7478656D 		.ascii	"txempty_event\000"
 4200      7074795F 
 4200      6576656E 
 4200      7400
 4201              	.LASF8:
 4202 0551 6C6F6E67 		.ascii	"long unsigned int\000"
 4202      20756E73 
 4202      69676E65 
 4202      6420696E 
 4202      7400
 4203              	.LASF80:
 4204 0563 72656164 		.ascii	"read\000"
 4204      00
 4205              	.LASF9:
 4206 0568 63686172 		.ascii	"char\000"
 4206      00
 4207              	.LASF146:
 4208 056d 43414E5F 		.ascii	"CAN_RX_LC\000"
 4208      52585F4C 
 4208      4300
 4209              	.LASF127:
 4210 0577 636F6E66 		.ascii	"config\000"
 4210      696700
 4211              	.LASF88:
 4212 057e 52444852 		.ascii	"RDHR\000"
 4212      00
 4213              	.LASF66:
 4214 0583 6D5F6E65 		.ascii	"m_next\000"
 4214      787400
 4215              	.LASF25:
 4216 058a 73797374 		.ascii	"systime_t\000"
 4216      696D655F 
 4216      7400
 4217              	.LASF45:
 4218 0594 705F7265 		.ascii	"p_realprio\000"
 4218      616C7072 
 4218      696F00
 4219              	.LASF119:
 4220 059f 64617461 		.ascii	"data8\000"
ARM GAS  C:\Users\DNIEL~1\AppData\Local\Temp\ccs7G6af.s 			page 83


 4220      3800
 4221              	.LASF95:
 4222 05a5 73464946 		.ascii	"sFIFOMailBox\000"
 4222      4F4D6169 
 4222      6C426F78 
 4222      00
 4223              	.LASF138:
 4224 05b2 5F5F6170 		.ascii	"__ap\000"
 4224      00
 4225              	.LASF52:
 4226 05b7 636F6E74 		.ascii	"context\000"
 4226      65787400 
 4227              	.LASF97:
 4228 05bf 464D3152 		.ascii	"FM1R\000"
 4228      00
 4229              	.LASF51:
 4230 05c4 696E7463 		.ascii	"intctx\000"
 4230      747800
 4231              	.LASF173:
 4232 05cb 7372632F 		.ascii	"src/can_comm.c\000"
 4232      63616E5F 
 4232      636F6D6D 
 4232      2E6300
 4233              	.LASF60:
 4234 05da 53656D61 		.ascii	"Semaphore\000"
 4234      70686F72 
 4234      6500
 4235              	.LASF24:
 4236 05e4 666C6167 		.ascii	"flagsmask_t\000"
 4236      736D6173 
 4236      6B5F7400 
 4237              	.LASF120:
 4238 05f0 64617461 		.ascii	"data16\000"
 4238      313600
 4239              	.LASF99:
 4240 05f7 46533152 		.ascii	"FS1R\000"
 4240      00
 4241              	.LASF34:
 4242 05fc 705F6E61 		.ascii	"p_name\000"
 4242      6D6500
 4243              	.LASF73:
 4244 0603 65735F6E 		.ascii	"es_next\000"
 4244      65787400 
 4245              	.LASF59:
 4246 060b 52656164 		.ascii	"ReadyList\000"
 4246      794C6973 
 4246      7400
 4247              	.LASF89:
 4248 0615 43414E5F 		.ascii	"CAN_FIFOMailBox_TypeDef\000"
 4248      4649464F 
 4248      4D61696C 
 4248      426F785F 
 4248      54797065 
 4249              	.LASF149:
 4250 062d 63616E5F 		.ascii	"can_rxState\000"
 4250      72785374 
 4250      61746500 
ARM GAS  C:\Users\DNIEL~1\AppData\Local\Temp\ccs7G6af.s 			page 84


 4251              	.LASF11:
 4252 0639 75696E74 		.ascii	"uint8_t\000"
 4252      385F7400 
 4253              	.LASF167:
 4254 0641 74785F63 		.ascii	"tx_chanel\000"
 4254      68616E65 
 4254      6C00
 4255              	.LASF129:
 4256 064b 72787365 		.ascii	"rxsem\000"
 4256      6D00
 4257              	.LASF144:
 4258 0651 43414E5F 		.ascii	"CAN_RX_ML\000"
 4258      52585F4D 
 4258      4C00
 4259              	.LASF67:
 4260 065b 4576656E 		.ascii	"EventListener\000"
 4260      744C6973 
 4260      74656E65 
 4260      7200
 4261              	.LASF76:
 4262 0669 77746F62 		.ascii	"wtobjp\000"
 4262      6A7000
 4263              	.LASF172:
 4264 0670 474E5520 		.ascii	"GNU C 4.5.2\000"
 4264      4320342E 
 4264      352E3200 
 4265              	.LASF157:
 4266 067c 61726763 		.ascii	"argc\000"
 4266      00
 4267              	.LASF156:
 4268 0681 74785F73 		.ascii	"tx_status\000"
 4268      74617475 
 4268      7300
 4269              	.LASF115:
 4270 068b 43414E5F 		.ascii	"CAN_STARTING\000"
 4270      53544152 
 4270      54494E47 
 4270      00
 4271              	.LASF42:
 4272 0698 705F6D73 		.ascii	"p_msg\000"
 4272      6700
 4273              	.LASF112:
 4274 069e 42617365 		.ascii	"BaseChannel\000"
 4274      4368616E 
 4274      6E656C00 
 4275              	.LASF87:
 4276 06aa 52444C52 		.ascii	"RDLR\000"
 4276      00
 4277              	.LASF158:
 4278 06af 61726776 		.ascii	"argv\000"
 4278      00
 4279              	.LASF65:
 4280 06b4 6D5F6F77 		.ascii	"m_owner\000"
 4280      6E657200 
 4281              	.LASF31:
 4282 06bc 705F6374 		.ascii	"p_ctx\000"
 4282      7800
ARM GAS  C:\Users\DNIEL~1\AppData\Local\Temp\ccs7G6af.s 			page 85


 4283              	.LASF40:
 4284 06c2 705F7761 		.ascii	"p_waiting\000"
 4284      6974696E 
 4284      6700
 4285              	.LASF175:
 4286 06cc 63687072 		.ascii	"chprintf\000"
 4286      696E7466 
 4286      00
 4287              		.ident	"GCC: (Sourcery G++ Lite 2011.03-42) 4.5.2"
ARM GAS  C:\Users\DNIEL~1\AppData\Local\Temp\ccs7G6af.s 			page 86


DEFINED SYMBOLS
                            *ABS*:00000000 can_comm.c
C:\Users\DNIEL~1\AppData\Local\Temp\ccs7G6af.s:24     .text.chprintf:00000000 $t
C:\Users\DNIEL~1\AppData\Local\Temp\ccs7G6af.s:29     .text.chprintf:00000000 chprintf
C:\Users\DNIEL~1\AppData\Local\Temp\ccs7G6af.s:69     .text.can_rx:00000000 $t
C:\Users\DNIEL~1\AppData\Local\Temp\ccs7G6af.s:74     .text.can_rx:00000000 can_rx
C:\Users\DNIEL~1\AppData\Local\Temp\ccs7G6af.s:320    .text.can_rx:00000170 $d
C:\Users\DNIEL~1\AppData\Local\Temp\ccs7G6af.s:333    .text.can_tx:00000000 $t
C:\Users\DNIEL~1\AppData\Local\Temp\ccs7G6af.s:338    .text.can_tx:00000000 can_tx
C:\Users\DNIEL~1\AppData\Local\Temp\ccs7G6af.s:415    .text.can_tx:00000064 $d
C:\Users\DNIEL~1\AppData\Local\Temp\ccs7G6af.s:423    .text.can_commInit:00000000 $t
C:\Users\DNIEL~1\AppData\Local\Temp\ccs7G6af.s:429    .text.can_commInit:00000000 can_commInit
C:\Users\DNIEL~1\AppData\Local\Temp\ccs7G6af.s:483    .text.can_commInit:00000048 $d
C:\Users\DNIEL~1\AppData\Local\Temp\ccs7G6af.s:494    .text.cmd_can_commvalues:00000000 $t
C:\Users\DNIEL~1\AppData\Local\Temp\ccs7G6af.s:500    .text.cmd_can_commvalues:00000000 cmd_can_commvalues
C:\Users\DNIEL~1\AppData\Local\Temp\ccs7G6af.s:645    .text.cmd_can_commvalues:000000f4 $d
C:\Users\DNIEL~1\AppData\Local\Temp\ccs7G6af.s:676    .bss.can_rxstate:00000000 can_rxstate
C:\Users\DNIEL~1\AppData\Local\Temp\ccs7G6af.s:695    .bss.can_txstate:00000000 can_txstate
C:\Users\DNIEL~1\AppData\Local\Temp\ccs7G6af.s:677    .bss.can_rxstate:00000000 $d
C:\Users\DNIEL~1\AppData\Local\Temp\ccs7G6af.s:679    .bss.id:00000000 $d
C:\Users\DNIEL~1\AppData\Local\Temp\ccs7G6af.s:683    .bss.id:00000000 id
C:\Users\DNIEL~1\AppData\Local\Temp\ccs7G6af.s:686    .bss.txmsg:00000000 $d
C:\Users\DNIEL~1\AppData\Local\Temp\ccs7G6af.s:690    .bss.txmsg:00000000 txmsg
C:\Users\DNIEL~1\AppData\Local\Temp\ccs7G6af.s:696    .bss.can_txstate:00000000 $d
C:\Users\DNIEL~1\AppData\Local\Temp\ccs7G6af.s:698    .bss.can_tx_wa:00000000 $d
C:\Users\DNIEL~1\AppData\Local\Temp\ccs7G6af.s:702    .bss.can_tx_wa:00000000 can_tx_wa
C:\Users\DNIEL~1\AppData\Local\Temp\ccs7G6af.s:705    .rodata.str1.4:00000000 $d
C:\Users\DNIEL~1\AppData\Local\Temp\ccs7G6af.s:764    .bss.messages:00000000 $d
C:\Users\DNIEL~1\AppData\Local\Temp\ccs7G6af.s:768    .bss.messages:00000000 messages
C:\Users\DNIEL~1\AppData\Local\Temp\ccs7G6af.s:771    .bss.rxmsg:00000000 $d
C:\Users\DNIEL~1\AppData\Local\Temp\ccs7G6af.s:775    .bss.rxmsg:00000000 rxmsg
C:\Users\DNIEL~1\AppData\Local\Temp\ccs7G6af.s:778    .bss.can_rx_wa:00000000 $d
C:\Users\DNIEL~1\AppData\Local\Temp\ccs7G6af.s:782    .bss.can_rx_wa:00000000 can_rx_wa
C:\Users\DNIEL~1\AppData\Local\Temp\ccs7G6af.s:785    .rodata.cancfg:00000000 $d
C:\Users\DNIEL~1\AppData\Local\Temp\ccs7G6af.s:789    .rodata.cancfg:00000000 cancfg
                     .debug_frame:00000010 $d
C:\Users\DNIEL~1\AppData\Local\Temp\ccs7G6af.s:332    .text.can_rx:00000194 $t
C:\Users\DNIEL~1\AppData\Local\Temp\ccs7G6af.s:422    .text.can_tx:00000074 $t
C:\Users\DNIEL~1\AppData\Local\Temp\ccs7G6af.s:493    .text.can_commInit:00000064 $t
C:\Users\DNIEL~1\AppData\Local\Temp\ccs7G6af.s:672    .text.cmd_can_commvalues:0000014c $t

UNDEFINED SYMBOLS
chvprintf
chEvtRegisterMask
chEvtWaitAnyTimeout
canReceive
chEvtUnregister
lightRight
lightLeft
lightWarning
lightBrakeON
canTransmit
lightBrakeOFF
lightPosLampON
lightPosLampOFF
CAND1
rlist
ARM GAS  C:\Users\DNIEL~1\AppData\Local\Temp\ccs7G6af.s 			page 87


one_vireGetValue
chThdSleep
canStart
chThdCreateStatic
