ARM GAS  C:\Users\DNIEL~1\AppData\Local\Temp\cc7q1ApJ.s 			page 1


   1              		.syntax unified
   2              		.cpu cortex-m4
   3              		.fpu softvfp
   4              		.eabi_attribute 20, 1
   5              		.eabi_attribute 21, 1
   6              		.eabi_attribute 23, 3
   7              		.eabi_attribute 24, 1
   8              		.eabi_attribute 25, 1
   9              		.eabi_attribute 26, 1
  10              		.eabi_attribute 30, 2
  11              		.eabi_attribute 34, 1
  12              		.eabi_attribute 18, 4
  13              		.thumb
  14              		.file	"can_comm.c"
  15              		.text
  16              	.Ltext0:
  17              		.cfi_sections	.debug_frame
  18              		.section	.text.can_rx,"ax",%progbits
  19              		.align	2
  20              		.p2align 4,,15
  21              		.thumb
  22              		.thumb_func
  23              		.type	can_rx, %function
  24              	can_rx:
  25              	.LFB119:
  26              		.file 1 "src/can_comm.c"
  27              		.loc 1 62 0
  28              		.cfi_startproc
  29              		@ args = 0, pretend = 0, frame = 16
  30              		@ frame_needed = 0, uses_anonymous_args = 0
  31              	.LVL0:
  32 0000 30B5     		push	{r4, r5, lr}
  33              	.LCFI0:
  34              		.cfi_def_cfa_offset 12
  35              		.cfi_offset 4, -12
  36              		.cfi_offset 5, -8
  37              		.cfi_offset 14, -4
  38              		.loc 1 68 0
  39 0002 174D     		ldr	r5, .L16
  40 0004 174A     		ldr	r2, .L16+4
  41 0006 AB69     		ldr	r3, [r5, #24]
  42              		.loc 1 69 0
  43 0008 1748     		ldr	r0, .L16+8
  44              	.LVL1:
  45              		.loc 1 68 0
  46 000a 9A61     		str	r2, [r3, #24]
  47              		.loc 1 62 0
  48 000c 85B0     		sub	sp, sp, #20
  49              	.LCFI1:
  50              		.cfi_def_cfa_offset 32
  51              		.loc 1 69 0
  52 000e 6946     		mov	r1, sp
  53 0010 0122     		movs	r2, #1
  54 0012 FFF7FEFF 		bl	chEvtRegisterMask
  55              	.LVL2:
  56              		.loc 1 73 0
  57 0016 154C     		ldr	r4, .L16+12
ARM GAS  C:\Users\DNIEL~1\AppData\Local\Temp\cc7q1ApJ.s 			page 2


  58              	.L12:
  59              		.loc 1 70 0 discriminator 1
  60 0018 A869     		ldr	r0, [r5, #24]
  61 001a 417F     		ldrb	r1, [r0, #29]	@ zero_extendqisi2
  62 001c 01F00403 		and	r3, r1, #4
  63 0020 DAB2     		uxtb	r2, r3
  64 0022 AAB9     		cbnz	r2, .L15
  65              		.loc 1 71 0
  66 0024 4FF0FF30 		mov	r0, #-1
  67 0028 6421     		movs	r1, #100
  68 002a FFF7FEFF 		bl	chEvtWaitAnyTimeout
  69              	.LVL3:
  70 002e 0028     		cmp	r0, #0
  71 0030 F2D0     		beq	.L12
  72 0032 04E0     		b	.L13
  73              	.L5:
  74              		.loc 1 76 0
  75 0034 A068     		ldr	r0, [r4, #8]
  76 0036 20F06040 		bic	r0, r0, #-536870912
  77 003a FFF7FEFF 		bl	Light_state
  78              	.LVL4:
  79              	.L13:
  80              		.loc 1 73 0 discriminator 1
  81 003e 0021     		movs	r1, #0
  82 0040 0A4A     		ldr	r2, .L16+12
  83 0042 0B48     		ldr	r0, .L16+16
  84 0044 0B46     		mov	r3, r1
  85 0046 FFF7FEFF 		bl	canReceive
  86              	.LVL5:
  87 004a 0028     		cmp	r0, #0
  88 004c F2D0     		beq	.L5
  89 004e E3E7     		b	.L12
  90              	.L15:
  91              		.loc 1 80 0
  92 0050 0548     		ldr	r0, .L16+8
  93 0052 6946     		mov	r1, sp
  94 0054 FFF7FEFF 		bl	chEvtUnregister
  95              	.LVL6:
  96              		.loc 1 83 0
  97 0058 0020     		movs	r0, #0
  98 005a 05B0     		add	sp, sp, #20
  99 005c 30BD     		pop	{r4, r5, pc}
 100              	.L17:
 101 005e 00BF     		.align	2
 102              	.L16:
 103 0060 00000000 		.word	rlist
 104 0064 00000000 		.word	.LC0
 105 0068 20000000 		.word	CAND1+32
 106 006c 00000000 		.word	.LANCHOR0
 107 0070 00000000 		.word	CAND1
 108              		.cfi_endproc
 109              	.LFE119:
 110              		.size	can_rx, .-can_rx
 111 0074 AFF30080 		.section	.text.can_commInit,"ax",%progbits
 111      AFF30080 
 111      AFF30080 
 112              		.align	2
ARM GAS  C:\Users\DNIEL~1\AppData\Local\Temp\cc7q1ApJ.s 			page 3


 113              		.p2align 4,,15
 114              		.global	can_commInit
 115              		.thumb
 116              		.thumb_func
 117              		.type	can_commInit, %function
 118              	can_commInit:
 119              	.LFB121:
 120              		.loc 1 108 0
 121              		.cfi_startproc
 122              		@ args = 0, pretend = 0, frame = 0
 123              		@ frame_needed = 0, uses_anonymous_args = 0
 124 0000 00B5     		push	{lr}
 125              	.LCFI2:
 126              		.cfi_def_cfa_offset 4
 127              		.cfi_offset 14, -4
 128              		.loc 1 109 0
 129 0002 40F20000 		movw	r0, #:lower16:CAND1
 130 0006 40F20001 		movw	r1, #:lower16:.LANCHOR1
 131              		.loc 1 108 0
 132 000a 83B0     		sub	sp, sp, #12
 133              	.LCFI3:
 134              		.cfi_def_cfa_offset 16
 135              		.loc 1 109 0
 136 000c C0F20000 		movt	r0, #:upper16:CAND1
 137 0010 C0F20001 		movt	r1, #:upper16:.LANCHOR1
 138 0014 FFF7FEFF 		bl	canStart
 139              	.LVL7:
 140              		.loc 1 111 0
 141 0018 0023     		movs	r3, #0
 142 001a 0093     		str	r3, [sp, #0]
 143 001c 40F20000 		movw	r0, #:lower16:.LANCHOR2
 144 0020 40F20003 		movw	r3, #:lower16:can_rx
 145 0024 4FF4E871 		mov	r1, #464
 146 0028 4022     		movs	r2, #64
 147 002a C0F20003 		movt	r3, #:upper16:can_rx
 148 002e C0F20000 		movt	r0, #:upper16:.LANCHOR2
 149 0032 FFF7FEFF 		bl	chThdCreateStatic
 150              	.LVL8:
 151              		.loc 1 112 0
 152 0036 03B0     		add	sp, sp, #12
 153 0038 00BD     		pop	{pc}
 154              		.cfi_endproc
 155              	.LFE121:
 156              		.size	can_commInit, .-can_commInit
 157              		.global	canuzenet
 158              		.global	canstate
 159 003a 00BFAFF3 		.section	.rodata.cancfg,"a",%progbits
 159      0080
 160              		.align	2
 161              		.set	.LANCHOR1,. + 0
 162              		.type	cancfg, %object
 163              		.size	cancfg, 8
 164              	cancfg:
 165 0000 40000000 		.word	64
 166 0004 06001800 		.word	1572870
 167              		.section	.bss.canuzenet,"aw",%nobits
 168              		.align	2
ARM GAS  C:\Users\DNIEL~1\AppData\Local\Temp\cc7q1ApJ.s 			page 4


 169              		.type	canuzenet, %object
 170              		.size	canuzenet, 4
 171              	canuzenet:
 172 0000 00000000 		.space	4
 173              		.section	.rodata.str1.4,"aMS",%progbits,1
 174              		.align	2
 175              	.LC0:
 176 0000 72656365 		.ascii	"receiver\000"
 176      69766572 
 176      00
 177 0009 000000   		.section	.bss.canstate,"aw",%nobits
 178              		.type	canstate, %object
 179              		.size	canstate, 1
 180              	canstate:
 181 0000 00       		.space	1
 182              		.section	.bss.rxmsg,"aw",%nobits
 183              		.align	2
 184              		.set	.LANCHOR0,. + 0
 185              		.type	rxmsg, %object
 186              		.size	rxmsg, 20
 187              	rxmsg:
 188 0000 00000000 		.space	20
 188      00000000 
 188      00000000 
 188      00000000 
 188      00000000 
 189              		.section	.bss.can_rx_wa,"aw",%nobits
 190              		.align	3
 191              		.set	.LANCHOR2,. + 0
 192              		.type	can_rx_wa, %object
 193              		.size	can_rx_wa, 464
 194              	can_rx_wa:
 195 0000 00000000 		.space	464
 195      00000000 
 195      00000000 
 195      00000000 
 195      00000000 
 196              		.text
 197              	.Letext0:
 198              		.file 2 "c:\\chibistudio\\tools\\gnu tools arm embedded\\4.7 2014q2\\bin\\../lib/gcc/arm-none-eabi
 199              		.file 3 "c:\\chibistudio\\tools\\gnu tools arm embedded\\4.7 2014q2\\bin\\../lib/gcc/arm-none-eabi
 200              		.file 4 "../../../Chibios/os/ports/GCC/ARMCMx/chtypes.h"
 201              		.file 5 "../../../Chibios/os/kernel/include/chlists.h"
 202              		.file 6 "../../../Chibios/os/kernel/include/chthreads.h"
 203              		.file 7 "../../../Chibios/os/ports/GCC/ARMCMx/chcore_v7m.h"
 204              		.file 8 "../../../Chibios/os/kernel/include/chschd.h"
 205              		.file 9 "../../../Chibios/os/kernel/include/chsem.h"
 206              		.file 10 "../../../Chibios/os/kernel/include/chmtx.h"
 207              		.file 11 "../../../Chibios/os/kernel/include/chevents.h"
 208              		.file 12 "../../../Chibios/os/hal/platforms/STM32F4xx/stm32f4xx.h"
 209              		.file 13 "../../../Chibios/os/hal/include/can.h"
 210              		.file 14 "../../../Chibios/os/hal/platforms/STM32/can_lld.h"
 211              		.file 15 "../../../Chibios/os/hal/include/pwm.h"
 212              		.file 16 "../../../Chibios/os/hal/platforms/STM32/TIMv1/pwm_lld.h"
 213              		.file 17 "../../../Chibios/os/hal/platforms/STM32/TIMv1/stm32_tim.h"
 214              		.file 18 "include/light.h"
 215              		.file 19 "../../../Chibios/os/ports/common/ARMCMx/CMSIS/include/core_cm4.h"
ARM GAS  C:\Users\DNIEL~1\AppData\Local\Temp\cc7q1ApJ.s 			page 5


 216              		.section	.debug_info,"",%progbits
 217              	.Ldebug_info0:
 218 0000 68110000 		.4byte	0x1168
 219 0004 0200     		.2byte	0x2
 220 0006 00000000 		.4byte	.Ldebug_abbrev0
 221 000a 04       		.byte	0x4
 222 000b 01       		.uleb128 0x1
 223 000c BB030000 		.4byte	.LASF191
 224 0010 01       		.byte	0x1
 225 0011 6E060000 		.4byte	.LASF192
 226 0015 63010000 		.4byte	.LASF193
 227 0019 00000000 		.4byte	.Ldebug_ranges0+0
 228 001d 00000000 		.4byte	0
 229 0021 00000000 		.4byte	0
 230 0025 00000000 		.4byte	.Ldebug_line0
 231 0029 02       		.uleb128 0x2
 232 002a 13000000 		.4byte	.LASF11
 233 002e 02       		.byte	0x2
 234 002f D5       		.byte	0xd5
 235 0030 34000000 		.4byte	0x34
 236 0034 03       		.uleb128 0x3
 237 0035 04       		.byte	0x4
 238 0036 07       		.byte	0x7
 239 0037 44020000 		.4byte	.LASF0
 240 003b 03       		.uleb128 0x3
 241 003c 01       		.byte	0x1
 242 003d 06       		.byte	0x6
 243 003e D5000000 		.4byte	.LASF1
 244 0042 03       		.uleb128 0x3
 245 0043 01       		.byte	0x1
 246 0044 08       		.byte	0x8
 247 0045 F3040000 		.4byte	.LASF2
 248 0049 03       		.uleb128 0x3
 249 004a 02       		.byte	0x2
 250 004b 05       		.byte	0x5
 251 004c 4D050000 		.4byte	.LASF3
 252 0050 03       		.uleb128 0x3
 253 0051 02       		.byte	0x2
 254 0052 07       		.byte	0x7
 255 0053 D7010000 		.4byte	.LASF4
 256 0057 04       		.uleb128 0x4
 257 0058 04       		.byte	0x4
 258 0059 05       		.byte	0x5
 259 005a 696E7400 		.ascii	"int\000"
 260 005e 03       		.uleb128 0x3
 261 005f 08       		.byte	0x8
 262 0060 05       		.byte	0x5
 263 0061 55010000 		.4byte	.LASF5
 264 0065 03       		.uleb128 0x3
 265 0066 08       		.byte	0x8
 266 0067 07       		.byte	0x7
 267 0068 63000000 		.4byte	.LASF6
 268 006c 03       		.uleb128 0x3
 269 006d 04       		.byte	0x4
 270 006e 05       		.byte	0x5
 271 006f 1D010000 		.4byte	.LASF7
 272 0073 03       		.uleb128 0x3
ARM GAS  C:\Users\DNIEL~1\AppData\Local\Temp\cc7q1ApJ.s 			page 6


 273 0074 04       		.byte	0x4
 274 0075 07       		.byte	0x7
 275 0076 75030000 		.4byte	.LASF8
 276 007a 05       		.uleb128 0x5
 277 007b 04       		.byte	0x4
 278 007c 03       		.uleb128 0x3
 279 007d 04       		.byte	0x4
 280 007e 07       		.byte	0x7
 281 007f DA050000 		.4byte	.LASF9
 282 0083 03       		.uleb128 0x3
 283 0084 01       		.byte	0x1
 284 0085 08       		.byte	0x8
 285 0086 F5050000 		.4byte	.LASF10
 286 008a 06       		.uleb128 0x6
 287 008b 04       		.byte	0x4
 288 008c 90000000 		.4byte	0x90
 289 0090 07       		.uleb128 0x7
 290 0091 83000000 		.4byte	0x83
 291 0095 02       		.uleb128 0x2
 292 0096 D8060000 		.4byte	.LASF12
 293 009a 03       		.byte	0x3
 294 009b 2A       		.byte	0x2a
 295 009c 42000000 		.4byte	0x42
 296 00a0 02       		.uleb128 0x2
 297 00a1 90010000 		.4byte	.LASF13
 298 00a5 03       		.byte	0x3
 299 00a6 36       		.byte	0x36
 300 00a7 50000000 		.4byte	0x50
 301 00ab 02       		.uleb128 0x2
 302 00ac EB040000 		.4byte	.LASF14
 303 00b0 03       		.byte	0x3
 304 00b1 4F       		.byte	0x4f
 305 00b2 6C000000 		.4byte	0x6c
 306 00b6 02       		.uleb128 0x2
 307 00b7 B1050000 		.4byte	.LASF15
 308 00bb 03       		.byte	0x3
 309 00bc 50       		.byte	0x50
 310 00bd 7C000000 		.4byte	0x7c
 311 00c1 02       		.uleb128 0x2
 312 00c2 37000000 		.4byte	.LASF16
 313 00c6 03       		.byte	0x3
 314 00c7 78       		.byte	0x78
 315 00c8 65000000 		.4byte	0x65
 316 00cc 03       		.uleb128 0x3
 317 00cd 01       		.byte	0x1
 318 00ce 02       		.byte	0x2
 319 00cf E5040000 		.4byte	.LASF17
 320 00d3 02       		.uleb128 0x2
 321 00d4 3E070000 		.4byte	.LASF18
 322 00d8 04       		.byte	0x4
 323 00d9 2C       		.byte	0x2c
 324 00da 95000000 		.4byte	0x95
 325 00de 02       		.uleb128 0x2
 326 00df 26010000 		.4byte	.LASF19
 327 00e3 04       		.byte	0x4
 328 00e4 2D       		.byte	0x2d
 329 00e5 95000000 		.4byte	0x95
ARM GAS  C:\Users\DNIEL~1\AppData\Local\Temp\cc7q1ApJ.s 			page 7


 330 00e9 02       		.uleb128 0x2
 331 00ea 91040000 		.4byte	.LASF20
 332 00ee 04       		.byte	0x4
 333 00ef 2E       		.byte	0x2e
 334 00f0 95000000 		.4byte	0x95
 335 00f4 02       		.uleb128 0x2
 336 00f5 04010000 		.4byte	.LASF21
 337 00f9 04       		.byte	0x4
 338 00fa 2F       		.byte	0x2f
 339 00fb 95000000 		.4byte	0x95
 340 00ff 02       		.uleb128 0x2
 341 0100 D2040000 		.4byte	.LASF22
 342 0104 04       		.byte	0x4
 343 0105 30       		.byte	0x30
 344 0106 B6000000 		.4byte	0xb6
 345 010a 02       		.uleb128 0x2
 346 010b CC020000 		.4byte	.LASF23
 347 010f 04       		.byte	0x4
 348 0110 31       		.byte	0x31
 349 0111 AB000000 		.4byte	0xab
 350 0115 02       		.uleb128 0x2
 351 0116 25030000 		.4byte	.LASF24
 352 011a 04       		.byte	0x4
 353 011b 33       		.byte	0x33
 354 011c B6000000 		.4byte	0xb6
 355 0120 02       		.uleb128 0x2
 356 0121 87060000 		.4byte	.LASF25
 357 0125 04       		.byte	0x4
 358 0126 34       		.byte	0x34
 359 0127 B6000000 		.4byte	0xb6
 360 012b 02       		.uleb128 0x2
 361 012c 20060000 		.4byte	.LASF26
 362 0130 04       		.byte	0x4
 363 0131 35       		.byte	0x35
 364 0132 B6000000 		.4byte	0xb6
 365 0136 02       		.uleb128 0x2
 366 0137 3E020000 		.4byte	.LASF27
 367 013b 04       		.byte	0x4
 368 013c 36       		.byte	0x36
 369 013d AB000000 		.4byte	0xab
 370 0141 02       		.uleb128 0x2
 371 0142 8B050000 		.4byte	.LASF28
 372 0146 05       		.byte	0x5
 373 0147 2A       		.byte	0x2a
 374 0148 4C010000 		.4byte	0x14c
 375 014c 08       		.uleb128 0x8
 376 014d 8B050000 		.4byte	.LASF28
 377 0151 48       		.byte	0x48
 378 0152 06       		.byte	0x6
 379 0153 5E       		.byte	0x5e
 380 0154 71020000 		.4byte	0x271
 381 0158 09       		.uleb128 0x9
 382 0159 77050000 		.4byte	.LASF29
 383 015d 06       		.byte	0x6
 384 015e 5F       		.byte	0x5f
 385 015f 96020000 		.4byte	0x296
 386 0163 02       		.byte	0x2
ARM GAS  C:\Users\DNIEL~1\AppData\Local\Temp\cc7q1ApJ.s 			page 8


 387 0164 23       		.byte	0x23
 388 0165 00       		.uleb128 0
 389 0166 09       		.uleb128 0x9
 390 0167 CB040000 		.4byte	.LASF30
 391 016b 06       		.byte	0x6
 392 016c 61       		.byte	0x61
 393 016d 96020000 		.4byte	0x296
 394 0171 02       		.byte	0x2
 395 0172 23       		.byte	0x23
 396 0173 04       		.uleb128 0x4
 397 0174 09       		.uleb128 0x9
 398 0175 A1030000 		.4byte	.LASF31
 399 0179 06       		.byte	0x6
 400 017a 63       		.byte	0x63
 401 017b FF000000 		.4byte	0xff
 402 017f 02       		.byte	0x2
 403 0180 23       		.byte	0x23
 404 0181 08       		.uleb128 0x8
 405 0182 09       		.uleb128 0x9
 406 0183 74070000 		.4byte	.LASF32
 407 0187 06       		.byte	0x6
 408 0188 64       		.byte	0x64
 409 0189 6D030000 		.4byte	0x36d
 410 018d 02       		.byte	0x2
 411 018e 23       		.byte	0x23
 412 018f 0C       		.uleb128 0xc
 413 0190 09       		.uleb128 0x9
 414 0191 B2010000 		.4byte	.LASF33
 415 0195 06       		.byte	0x6
 416 0196 66       		.byte	0x66
 417 0197 96020000 		.4byte	0x296
 418 019b 02       		.byte	0x2
 419 019c 23       		.byte	0x23
 420 019d 10       		.uleb128 0x10
 421 019e 09       		.uleb128 0x9
 422 019f 04040000 		.4byte	.LASF34
 423 01a3 06       		.byte	0x6
 424 01a4 67       		.byte	0x67
 425 01a5 96020000 		.4byte	0x296
 426 01a9 02       		.byte	0x2
 427 01aa 23       		.byte	0x23
 428 01ab 14       		.uleb128 0x14
 429 01ac 09       		.uleb128 0x9
 430 01ad 9F060000 		.4byte	.LASF35
 431 01b1 06       		.byte	0x6
 432 01b2 6E       		.byte	0x6e
 433 01b3 8A000000 		.4byte	0x8a
 434 01b7 02       		.byte	0x2
 435 01b8 23       		.byte	0x23
 436 01b9 18       		.uleb128 0x18
 437 01ba 09       		.uleb128 0x9
 438 01bb 57050000 		.4byte	.LASF36
 439 01bf 06       		.byte	0x6
 440 01c0 79       		.byte	0x79
 441 01c1 DE000000 		.4byte	0xde
 442 01c5 02       		.byte	0x2
 443 01c6 23       		.byte	0x23
ARM GAS  C:\Users\DNIEL~1\AppData\Local\Temp\cc7q1ApJ.s 			page 9


 444 01c7 1C       		.uleb128 0x1c
 445 01c8 09       		.uleb128 0x9
 446 01c9 7E050000 		.4byte	.LASF37
 447 01cd 06       		.byte	0x6
 448 01ce 7D       		.byte	0x7d
 449 01cf D3000000 		.4byte	0xd3
 450 01d3 02       		.byte	0x2
 451 01d4 23       		.byte	0x23
 452 01d5 1D       		.uleb128 0x1d
 453 01d6 09       		.uleb128 0x9
 454 01d7 4E010000 		.4byte	.LASF38
 455 01db 06       		.byte	0x6
 456 01dc 82       		.byte	0x82
 457 01dd E9000000 		.4byte	0xe9
 458 01e1 02       		.byte	0x2
 459 01e2 23       		.byte	0x23
 460 01e3 1E       		.uleb128 0x1e
 461 01e4 09       		.uleb128 0x9
 462 01e5 5F050000 		.4byte	.LASF39
 463 01e9 06       		.byte	0x6
 464 01ea 88       		.byte	0x88
 465 01eb F4000000 		.4byte	0xf4
 466 01ef 02       		.byte	0x2
 467 01f0 23       		.byte	0x23
 468 01f1 1F       		.uleb128 0x1f
 469 01f2 09       		.uleb128 0x9
 470 01f3 99010000 		.4byte	.LASF40
 471 01f7 06       		.byte	0x6
 472 01f8 8F       		.byte	0x8f
 473 01f9 95030000 		.4byte	0x395
 474 01fd 02       		.byte	0x2
 475 01fe 23       		.byte	0x23
 476 01ff 20       		.uleb128 0x20
 477 0200 0A       		.uleb128 0xa
 478 0201 705F7500 		.ascii	"p_u\000"
 479 0205 06       		.byte	0x6
 480 0206 B4       		.byte	0xb4
 481 0207 FA040000 		.4byte	0x4fa
 482 020b 02       		.byte	0x2
 483 020c 23       		.byte	0x23
 484 020d 24       		.uleb128 0x24
 485 020e 09       		.uleb128 0x9
 486 020f 7A070000 		.4byte	.LASF41
 487 0213 06       		.byte	0x6
 488 0214 B9       		.byte	0xb9
 489 0215 BE020000 		.4byte	0x2be
 490 0219 02       		.byte	0x2
 491 021a 23       		.byte	0x23
 492 021b 28       		.uleb128 0x28
 493 021c 09       		.uleb128 0x9
 494 021d 6D020000 		.4byte	.LASF42
 495 0221 06       		.byte	0x6
 496 0222 BF       		.byte	0xbf
 497 0223 9C020000 		.4byte	0x29c
 498 0227 02       		.byte	0x2
 499 0228 23       		.byte	0x23
 500 0229 2C       		.uleb128 0x2c
ARM GAS  C:\Users\DNIEL~1\AppData\Local\Temp\cc7q1ApJ.s 			page 10


 501 022a 09       		.uleb128 0x9
 502 022b 4C070000 		.4byte	.LASF43
 503 022f 06       		.byte	0x6
 504 0230 C3       		.byte	0xc3
 505 0231 0A010000 		.4byte	0x10a
 506 0235 02       		.byte	0x2
 507 0236 23       		.byte	0x23
 508 0237 34       		.uleb128 0x34
 509 0238 09       		.uleb128 0x9
 510 0239 9C050000 		.4byte	.LASF44
 511 023d 06       		.byte	0x6
 512 023e C9       		.byte	0xc9
 513 023f 15010000 		.4byte	0x115
 514 0243 02       		.byte	0x2
 515 0244 23       		.byte	0x23
 516 0245 38       		.uleb128 0x38
 517 0246 09       		.uleb128 0x9
 518 0247 43050000 		.4byte	.LASF45
 519 024b 06       		.byte	0x6
 520 024c D0       		.byte	0xd0
 521 024d 2F050000 		.4byte	0x52f
 522 0251 02       		.byte	0x2
 523 0252 23       		.byte	0x23
 524 0253 3C       		.uleb128 0x3c
 525 0254 09       		.uleb128 0x9
 526 0255 2A060000 		.4byte	.LASF46
 527 0259 06       		.byte	0x6
 528 025a D4       		.byte	0xd4
 529 025b FF000000 		.4byte	0xff
 530 025f 02       		.byte	0x2
 531 0260 23       		.byte	0x23
 532 0261 40       		.uleb128 0x40
 533 0262 09       		.uleb128 0x9
 534 0263 08020000 		.4byte	.LASF47
 535 0267 06       		.byte	0x6
 536 0268 DA       		.byte	0xda
 537 0269 7A000000 		.4byte	0x7a
 538 026d 02       		.byte	0x2
 539 026e 23       		.byte	0x23
 540 026f 44       		.uleb128 0x44
 541 0270 00       		.byte	0
 542 0271 0B       		.uleb128 0xb
 543 0272 08       		.byte	0x8
 544 0273 05       		.byte	0x5
 545 0274 61       		.byte	0x61
 546 0275 96020000 		.4byte	0x296
 547 0279 09       		.uleb128 0x9
 548 027a 77050000 		.4byte	.LASF29
 549 027e 05       		.byte	0x5
 550 027f 62       		.byte	0x62
 551 0280 96020000 		.4byte	0x296
 552 0284 02       		.byte	0x2
 553 0285 23       		.byte	0x23
 554 0286 00       		.uleb128 0
 555 0287 09       		.uleb128 0x9
 556 0288 CB040000 		.4byte	.LASF30
 557 028c 05       		.byte	0x5
ARM GAS  C:\Users\DNIEL~1\AppData\Local\Temp\cc7q1ApJ.s 			page 11


 558 028d 64       		.byte	0x64
 559 028e 96020000 		.4byte	0x296
 560 0292 02       		.byte	0x2
 561 0293 23       		.byte	0x23
 562 0294 04       		.uleb128 0x4
 563 0295 00       		.byte	0
 564 0296 06       		.uleb128 0x6
 565 0297 04       		.byte	0x4
 566 0298 41010000 		.4byte	0x141
 567 029c 02       		.uleb128 0x2
 568 029d 12040000 		.4byte	.LASF48
 569 02a1 05       		.byte	0x5
 570 02a2 66       		.byte	0x66
 571 02a3 71020000 		.4byte	0x271
 572 02a7 0B       		.uleb128 0xb
 573 02a8 04       		.byte	0x4
 574 02a9 05       		.byte	0x5
 575 02aa 6B       		.byte	0x6b
 576 02ab BE020000 		.4byte	0x2be
 577 02af 09       		.uleb128 0x9
 578 02b0 77050000 		.4byte	.LASF29
 579 02b4 05       		.byte	0x5
 580 02b5 6D       		.byte	0x6d
 581 02b6 96020000 		.4byte	0x296
 582 02ba 02       		.byte	0x2
 583 02bb 23       		.byte	0x23
 584 02bc 00       		.uleb128 0
 585 02bd 00       		.byte	0
 586 02be 02       		.uleb128 0x2
 587 02bf 09030000 		.4byte	.LASF49
 588 02c3 05       		.byte	0x5
 589 02c4 70       		.byte	0x70
 590 02c5 A7020000 		.4byte	0x2a7
 591 02c9 02       		.uleb128 0x2
 592 02ca 10020000 		.4byte	.LASF50
 593 02ce 07       		.byte	0x7
 594 02cf E5       		.byte	0xe5
 595 02d0 7A000000 		.4byte	0x7a
 596 02d4 02       		.uleb128 0x2
 597 02d5 3E030000 		.4byte	.LASF51
 598 02d9 07       		.byte	0x7
 599 02da EB       		.byte	0xeb
 600 02db C1000000 		.4byte	0xc1
 601 02df 0C       		.uleb128 0xc
 602 02e0 67060000 		.4byte	.LASF52
 603 02e4 24       		.byte	0x24
 604 02e5 07       		.byte	0x7
 605 02e6 0C01     		.2byte	0x10c
 606 02e8 6D030000 		.4byte	0x36d
 607 02ec 0D       		.uleb128 0xd
 608 02ed 723400   		.ascii	"r4\000"
 609 02f0 07       		.byte	0x7
 610 02f1 1F01     		.2byte	0x11f
 611 02f3 C9020000 		.4byte	0x2c9
 612 02f7 02       		.byte	0x2
 613 02f8 23       		.byte	0x23
 614 02f9 00       		.uleb128 0
ARM GAS  C:\Users\DNIEL~1\AppData\Local\Temp\cc7q1ApJ.s 			page 12


 615 02fa 0D       		.uleb128 0xd
 616 02fb 723500   		.ascii	"r5\000"
 617 02fe 07       		.byte	0x7
 618 02ff 2001     		.2byte	0x120
 619 0301 C9020000 		.4byte	0x2c9
 620 0305 02       		.byte	0x2
 621 0306 23       		.byte	0x23
 622 0307 04       		.uleb128 0x4
 623 0308 0D       		.uleb128 0xd
 624 0309 723600   		.ascii	"r6\000"
 625 030c 07       		.byte	0x7
 626 030d 2101     		.2byte	0x121
 627 030f C9020000 		.4byte	0x2c9
 628 0313 02       		.byte	0x2
 629 0314 23       		.byte	0x23
 630 0315 08       		.uleb128 0x8
 631 0316 0D       		.uleb128 0xd
 632 0317 723700   		.ascii	"r7\000"
 633 031a 07       		.byte	0x7
 634 031b 2201     		.2byte	0x122
 635 031d C9020000 		.4byte	0x2c9
 636 0321 02       		.byte	0x2
 637 0322 23       		.byte	0x23
 638 0323 0C       		.uleb128 0xc
 639 0324 0D       		.uleb128 0xd
 640 0325 723800   		.ascii	"r8\000"
 641 0328 07       		.byte	0x7
 642 0329 2301     		.2byte	0x123
 643 032b C9020000 		.4byte	0x2c9
 644 032f 02       		.byte	0x2
 645 0330 23       		.byte	0x23
 646 0331 10       		.uleb128 0x10
 647 0332 0D       		.uleb128 0xd
 648 0333 723900   		.ascii	"r9\000"
 649 0336 07       		.byte	0x7
 650 0337 2401     		.2byte	0x124
 651 0339 C9020000 		.4byte	0x2c9
 652 033d 02       		.byte	0x2
 653 033e 23       		.byte	0x23
 654 033f 14       		.uleb128 0x14
 655 0340 0D       		.uleb128 0xd
 656 0341 72313000 		.ascii	"r10\000"
 657 0345 07       		.byte	0x7
 658 0346 2501     		.2byte	0x125
 659 0348 C9020000 		.4byte	0x2c9
 660 034c 02       		.byte	0x2
 661 034d 23       		.byte	0x23
 662 034e 18       		.uleb128 0x18
 663 034f 0D       		.uleb128 0xd
 664 0350 72313100 		.ascii	"r11\000"
 665 0354 07       		.byte	0x7
 666 0355 2601     		.2byte	0x126
 667 0357 C9020000 		.4byte	0x2c9
 668 035b 02       		.byte	0x2
 669 035c 23       		.byte	0x23
 670 035d 1C       		.uleb128 0x1c
 671 035e 0D       		.uleb128 0xd
ARM GAS  C:\Users\DNIEL~1\AppData\Local\Temp\cc7q1ApJ.s 			page 13


 672 035f 6C7200   		.ascii	"lr\000"
 673 0362 07       		.byte	0x7
 674 0363 2701     		.2byte	0x127
 675 0365 C9020000 		.4byte	0x2c9
 676 0369 02       		.byte	0x2
 677 036a 23       		.byte	0x23
 678 036b 20       		.uleb128 0x20
 679 036c 00       		.byte	0
 680 036d 0C       		.uleb128 0xc
 681 036e 4E060000 		.4byte	.LASF53
 682 0372 04       		.byte	0x4
 683 0373 07       		.byte	0x7
 684 0374 3101     		.2byte	0x131
 685 0376 8A030000 		.4byte	0x38a
 686 037a 0D       		.uleb128 0xd
 687 037b 72313300 		.ascii	"r13\000"
 688 037f 07       		.byte	0x7
 689 0380 3201     		.2byte	0x132
 690 0382 8A030000 		.4byte	0x38a
 691 0386 02       		.byte	0x2
 692 0387 23       		.byte	0x23
 693 0388 00       		.uleb128 0
 694 0389 00       		.byte	0
 695 038a 06       		.uleb128 0x6
 696 038b 04       		.byte	0x4
 697 038c DF020000 		.4byte	0x2df
 698 0390 0E       		.uleb128 0xe
 699 0391 B6000000 		.4byte	0xb6
 700 0395 0E       		.uleb128 0xe
 701 0396 2B010000 		.4byte	0x12b
 702 039a 0B       		.uleb128 0xb
 703 039b 1C       		.byte	0x1c
 704 039c 08       		.byte	0x8
 705 039d 5E       		.byte	0x5e
 706 039e F7030000 		.4byte	0x3f7
 707 03a2 09       		.uleb128 0x9
 708 03a3 BA050000 		.4byte	.LASF54
 709 03a7 08       		.byte	0x8
 710 03a8 5F       		.byte	0x5f
 711 03a9 9C020000 		.4byte	0x29c
 712 03ad 02       		.byte	0x2
 713 03ae 23       		.byte	0x23
 714 03af 00       		.uleb128 0
 715 03b0 09       		.uleb128 0x9
 716 03b1 69050000 		.4byte	.LASF55
 717 03b5 08       		.byte	0x8
 718 03b6 60       		.byte	0x60
 719 03b7 FF000000 		.4byte	0xff
 720 03bb 02       		.byte	0x2
 721 03bc 23       		.byte	0x23
 722 03bd 08       		.uleb128 0x8
 723 03be 09       		.uleb128 0x9
 724 03bf 0C040000 		.4byte	.LASF56
 725 03c3 08       		.byte	0x8
 726 03c4 62       		.byte	0x62
 727 03c5 6D030000 		.4byte	0x36d
 728 03c9 02       		.byte	0x2
ARM GAS  C:\Users\DNIEL~1\AppData\Local\Temp\cc7q1ApJ.s 			page 14


 729 03ca 23       		.byte	0x23
 730 03cb 0C       		.uleb128 0xc
 731 03cc 09       		.uleb128 0x9
 732 03cd 00020000 		.4byte	.LASF57
 733 03d1 08       		.byte	0x8
 734 03d2 65       		.byte	0x65
 735 03d3 96020000 		.4byte	0x296
 736 03d7 02       		.byte	0x2
 737 03d8 23       		.byte	0x23
 738 03d9 10       		.uleb128 0x10
 739 03da 09       		.uleb128 0x9
 740 03db 2E040000 		.4byte	.LASF58
 741 03df 08       		.byte	0x8
 742 03e0 66       		.byte	0x66
 743 03e1 96020000 		.4byte	0x296
 744 03e5 02       		.byte	0x2
 745 03e6 23       		.byte	0x23
 746 03e7 14       		.uleb128 0x14
 747 03e8 09       		.uleb128 0x9
 748 03e9 24040000 		.4byte	.LASF59
 749 03ed 08       		.byte	0x8
 750 03ee 69       		.byte	0x69
 751 03ef 96020000 		.4byte	0x296
 752 03f3 02       		.byte	0x2
 753 03f4 23       		.byte	0x23
 754 03f5 18       		.uleb128 0x18
 755 03f6 00       		.byte	0
 756 03f7 02       		.uleb128 0x2
 757 03f8 B0060000 		.4byte	.LASF60
 758 03fc 08       		.byte	0x8
 759 03fd 6B       		.byte	0x6b
 760 03fe 9A030000 		.4byte	0x39a
 761 0402 08       		.uleb128 0x8
 762 0403 7D060000 		.4byte	.LASF61
 763 0407 0C       		.byte	0xc
 764 0408 09       		.byte	0x9
 765 0409 2C       		.byte	0x2c
 766 040a 2B040000 		.4byte	0x42b
 767 040e 09       		.uleb128 0x9
 768 040f BA010000 		.4byte	.LASF62
 769 0413 09       		.byte	0x9
 770 0414 2D       		.byte	0x2d
 771 0415 9C020000 		.4byte	0x29c
 772 0419 02       		.byte	0x2
 773 041a 23       		.byte	0x23
 774 041b 00       		.uleb128 0
 775 041c 09       		.uleb128 0x9
 776 041d 88020000 		.4byte	.LASF63
 777 0421 09       		.byte	0x9
 778 0422 2F       		.byte	0x2f
 779 0423 36010000 		.4byte	0x136
 780 0427 02       		.byte	0x2
 781 0428 23       		.byte	0x23
 782 0429 08       		.uleb128 0x8
 783 042a 00       		.byte	0
 784 042b 02       		.uleb128 0x2
 785 042c 7D060000 		.4byte	.LASF61
ARM GAS  C:\Users\DNIEL~1\AppData\Local\Temp\cc7q1ApJ.s 			page 15


 786 0430 09       		.byte	0x9
 787 0431 30       		.byte	0x30
 788 0432 02040000 		.4byte	0x402
 789 0436 08       		.uleb128 0x8
 790 0437 31030000 		.4byte	.LASF64
 791 043b 10       		.byte	0x10
 792 043c 0A       		.byte	0xa
 793 043d 2C       		.byte	0x2c
 794 043e 6D040000 		.4byte	0x46d
 795 0442 09       		.uleb128 0x9
 796 0443 01050000 		.4byte	.LASF65
 797 0447 0A       		.byte	0xa
 798 0448 2D       		.byte	0x2d
 799 0449 9C020000 		.4byte	0x29c
 800 044d 02       		.byte	0x2
 801 044e 23       		.byte	0x23
 802 044f 00       		.uleb128 0
 803 0450 09       		.uleb128 0x9
 804 0451 61070000 		.4byte	.LASF66
 805 0455 0A       		.byte	0xa
 806 0456 2F       		.byte	0x2f
 807 0457 96020000 		.4byte	0x296
 808 045b 02       		.byte	0x2
 809 045c 23       		.byte	0x23
 810 045d 08       		.uleb128 0x8
 811 045e 09       		.uleb128 0x9
 812 045f 19060000 		.4byte	.LASF67
 813 0463 0A       		.byte	0xa
 814 0464 31       		.byte	0x31
 815 0465 6D040000 		.4byte	0x46d
 816 0469 02       		.byte	0x2
 817 046a 23       		.byte	0x23
 818 046b 0C       		.uleb128 0xc
 819 046c 00       		.byte	0
 820 046d 06       		.uleb128 0x6
 821 046e 04       		.byte	0x4
 822 046f 36040000 		.4byte	0x436
 823 0473 02       		.uleb128 0x2
 824 0474 31030000 		.4byte	.LASF64
 825 0478 0A       		.byte	0xa
 826 0479 33       		.byte	0x33
 827 047a 36040000 		.4byte	0x436
 828 047e 02       		.uleb128 0x2
 829 047f 13070000 		.4byte	.LASF68
 830 0483 0B       		.byte	0xb
 831 0484 2C       		.byte	0x2c
 832 0485 89040000 		.4byte	0x489
 833 0489 08       		.uleb128 0x8
 834 048a 13070000 		.4byte	.LASF68
 835 048e 10       		.byte	0x10
 836 048f 0B       		.byte	0xb
 837 0490 31       		.byte	0x31
 838 0491 CE040000 		.4byte	0x4ce
 839 0495 09       		.uleb128 0x9
 840 0496 DC020000 		.4byte	.LASF69
 841 049a 0B       		.byte	0xb
 842 049b 32       		.byte	0x32
ARM GAS  C:\Users\DNIEL~1\AppData\Local\Temp\cc7q1ApJ.s 			page 16


 843 049c CE040000 		.4byte	0x4ce
 844 04a0 02       		.byte	0x2
 845 04a1 23       		.byte	0x23
 846 04a2 00       		.uleb128 0
 847 04a3 09       		.uleb128 0x9
 848 04a4 21050000 		.4byte	.LASF70
 849 04a8 0B       		.byte	0xb
 850 04a9 35       		.byte	0x35
 851 04aa 96020000 		.4byte	0x296
 852 04ae 02       		.byte	0x2
 853 04af 23       		.byte	0x23
 854 04b0 04       		.uleb128 0x4
 855 04b1 09       		.uleb128 0x9
 856 04b2 36040000 		.4byte	.LASF71
 857 04b6 0B       		.byte	0xb
 858 04b7 37       		.byte	0x37
 859 04b8 15010000 		.4byte	0x115
 860 04bc 02       		.byte	0x2
 861 04bd 23       		.byte	0x23
 862 04be 08       		.uleb128 0x8
 863 04bf 09       		.uleb128 0x9
 864 04c0 3A050000 		.4byte	.LASF72
 865 04c4 0B       		.byte	0xb
 866 04c5 3A       		.byte	0x3a
 867 04c6 20010000 		.4byte	0x120
 868 04ca 02       		.byte	0x2
 869 04cb 23       		.byte	0x23
 870 04cc 0C       		.uleb128 0xc
 871 04cd 00       		.byte	0
 872 04ce 06       		.uleb128 0x6
 873 04cf 04       		.byte	0x4
 874 04d0 7E040000 		.4byte	0x47e
 875 04d4 08       		.uleb128 0x8
 876 04d5 28020000 		.4byte	.LASF73
 877 04d9 04       		.byte	0x4
 878 04da 0B       		.byte	0xb
 879 04db 41       		.byte	0x41
 880 04dc EF040000 		.4byte	0x4ef
 881 04e0 09       		.uleb128 0x9
 882 04e1 36070000 		.4byte	.LASF74
 883 04e5 0B       		.byte	0xb
 884 04e6 42       		.byte	0x42
 885 04e7 CE040000 		.4byte	0x4ce
 886 04eb 02       		.byte	0x2
 887 04ec 23       		.byte	0x23
 888 04ed 00       		.uleb128 0
 889 04ee 00       		.byte	0
 890 04ef 02       		.uleb128 0x2
 891 04f0 28020000 		.4byte	.LASF73
 892 04f4 0B       		.byte	0xb
 893 04f5 45       		.byte	0x45
 894 04f6 D4040000 		.4byte	0x4d4
 895 04fa 0F       		.uleb128 0xf
 896 04fb 04       		.byte	0x4
 897 04fc 06       		.byte	0x6
 898 04fd 96       		.byte	0x96
 899 04fe 2F050000 		.4byte	0x52f
ARM GAS  C:\Users\DNIEL~1\AppData\Local\Temp\cc7q1ApJ.s 			page 17


 900 0502 10       		.uleb128 0x10
 901 0503 30000000 		.4byte	.LASF75
 902 0507 06       		.byte	0x6
 903 0508 9D       		.byte	0x9d
 904 0509 0A010000 		.4byte	0x10a
 905 050d 10       		.uleb128 0x10
 906 050e 7A000000 		.4byte	.LASF76
 907 0512 06       		.byte	0x6
 908 0513 A4       		.byte	0xa4
 909 0514 0A010000 		.4byte	0x10a
 910 0518 10       		.uleb128 0x10
 911 0519 21070000 		.4byte	.LASF77
 912 051d 06       		.byte	0x6
 913 051e AB       		.byte	0xab
 914 051f 7A000000 		.4byte	0x7a
 915 0523 10       		.uleb128 0x10
 916 0524 70050000 		.4byte	.LASF78
 917 0528 06       		.byte	0x6
 918 0529 B2       		.byte	0xb2
 919 052a 15010000 		.4byte	0x115
 920 052e 00       		.byte	0
 921 052f 06       		.uleb128 0x6
 922 0530 04       		.byte	0x4
 923 0531 73040000 		.4byte	0x473
 924 0535 02       		.uleb128 0x2
 925 0536 06000000 		.4byte	.LASF79
 926 053a 06       		.byte	0x6
 927 053b E5       		.byte	0xe5
 928 053c 40050000 		.4byte	0x540
 929 0540 06       		.uleb128 0x6
 930 0541 04       		.byte	0x4
 931 0542 46050000 		.4byte	0x546
 932 0546 11       		.uleb128 0x11
 933 0547 01       		.byte	0x1
 934 0548 0A010000 		.4byte	0x10a
 935 054c 56050000 		.4byte	0x556
 936 0550 12       		.uleb128 0x12
 937 0551 7A000000 		.4byte	0x7a
 938 0555 00       		.byte	0
 939 0556 13       		.uleb128 0x13
 940 0557 B6000000 		.4byte	0xb6
 941 055b 66050000 		.4byte	0x566
 942 055f 14       		.uleb128 0x14
 943 0560 73000000 		.4byte	0x73
 944 0564 07       		.byte	0x7
 945 0565 00       		.byte	0
 946 0566 13       		.uleb128 0x13
 947 0567 B6000000 		.4byte	0xb6
 948 056b 76050000 		.4byte	0x576
 949 056f 14       		.uleb128 0x14
 950 0570 73000000 		.4byte	0x73
 951 0574 01       		.byte	0x1
 952 0575 00       		.byte	0
 953 0576 13       		.uleb128 0x13
 954 0577 B6000000 		.4byte	0xb6
 955 057b 86050000 		.4byte	0x586
 956 057f 14       		.uleb128 0x14
ARM GAS  C:\Users\DNIEL~1\AppData\Local\Temp\cc7q1ApJ.s 			page 18


 957 0580 73000000 		.4byte	0x73
 958 0584 03       		.byte	0x3
 959 0585 00       		.byte	0
 960 0586 0E       		.uleb128 0xe
 961 0587 AB000000 		.4byte	0xab
 962 058b 15       		.uleb128 0x15
 963 058c 10       		.byte	0x10
 964 058d 0C       		.byte	0xc
 965 058e 2F02     		.2byte	0x22f
 966 0590 D1050000 		.4byte	0x5d1
 967 0594 0D       		.uleb128 0xd
 968 0595 54495200 		.ascii	"TIR\000"
 969 0599 0C       		.byte	0xc
 970 059a 3102     		.2byte	0x231
 971 059c 90030000 		.4byte	0x390
 972 05a0 02       		.byte	0x2
 973 05a1 23       		.byte	0x23
 974 05a2 00       		.uleb128 0
 975 05a3 16       		.uleb128 0x16
 976 05a4 23020000 		.4byte	.LASF80
 977 05a8 0C       		.byte	0xc
 978 05a9 3202     		.2byte	0x232
 979 05ab 90030000 		.4byte	0x390
 980 05af 02       		.byte	0x2
 981 05b0 23       		.byte	0x23
 982 05b1 04       		.uleb128 0x4
 983 05b2 16       		.uleb128 0x16
 984 05b3 1E020000 		.4byte	.LASF81
 985 05b7 0C       		.byte	0xc
 986 05b8 3302     		.2byte	0x233
 987 05ba 90030000 		.4byte	0x390
 988 05be 02       		.byte	0x2
 989 05bf 23       		.byte	0x23
 990 05c0 08       		.uleb128 0x8
 991 05c1 16       		.uleb128 0x16
 992 05c2 1F040000 		.4byte	.LASF82
 993 05c6 0C       		.byte	0xc
 994 05c7 3402     		.2byte	0x234
 995 05c9 90030000 		.4byte	0x390
 996 05cd 02       		.byte	0x2
 997 05ce 23       		.byte	0x23
 998 05cf 0C       		.uleb128 0xc
 999 05d0 00       		.byte	0
 1000 05d1 17       		.uleb128 0x17
 1001 05d2 2F010000 		.4byte	.LASF83
 1002 05d6 0C       		.byte	0xc
 1003 05d7 3502     		.2byte	0x235
 1004 05d9 8B050000 		.4byte	0x58b
 1005 05dd 15       		.uleb128 0x15
 1006 05de 10       		.byte	0x10
 1007 05df 0C       		.byte	0xc
 1008 05e0 3B02     		.2byte	0x23b
 1009 05e2 23060000 		.4byte	0x623
 1010 05e6 0D       		.uleb128 0xd
 1011 05e7 52495200 		.ascii	"RIR\000"
 1012 05eb 0C       		.byte	0xc
 1013 05ec 3D02     		.2byte	0x23d
ARM GAS  C:\Users\DNIEL~1\AppData\Local\Temp\cc7q1ApJ.s 			page 19


 1014 05ee 90030000 		.4byte	0x390
 1015 05f2 02       		.byte	0x2
 1016 05f3 23       		.byte	0x23
 1017 05f4 00       		.uleb128 0
 1018 05f5 16       		.uleb128 0x16
 1019 05f6 78020000 		.4byte	.LASF84
 1020 05fa 0C       		.byte	0xc
 1021 05fb 3E02     		.2byte	0x23e
 1022 05fd 90030000 		.4byte	0x390
 1023 0601 02       		.byte	0x2
 1024 0602 23       		.byte	0x23
 1025 0603 04       		.uleb128 0x4
 1026 0604 16       		.uleb128 0x16
 1027 0605 5C070000 		.4byte	.LASF85
 1028 0609 0C       		.byte	0xc
 1029 060a 3F02     		.2byte	0x23f
 1030 060c 90030000 		.4byte	0x390
 1031 0610 02       		.byte	0x2
 1032 0611 23       		.byte	0x23
 1033 0612 08       		.uleb128 0x8
 1034 0613 16       		.uleb128 0x16
 1035 0614 0B060000 		.4byte	.LASF86
 1036 0618 0C       		.byte	0xc
 1037 0619 4002     		.2byte	0x240
 1038 061b 90030000 		.4byte	0x390
 1039 061f 02       		.byte	0x2
 1040 0620 23       		.byte	0x23
 1041 0621 0C       		.uleb128 0xc
 1042 0622 00       		.byte	0
 1043 0623 17       		.uleb128 0x17
 1044 0624 BA060000 		.4byte	.LASF87
 1045 0628 0C       		.byte	0xc
 1046 0629 4102     		.2byte	0x241
 1047 062b DD050000 		.4byte	0x5dd
 1048 062f 15       		.uleb128 0x15
 1049 0630 08       		.byte	0x8
 1050 0631 0C       		.byte	0xc
 1051 0632 4702     		.2byte	0x247
 1052 0634 57060000 		.4byte	0x657
 1053 0638 0D       		.uleb128 0xd
 1054 0639 46523100 		.ascii	"FR1\000"
 1055 063d 0C       		.byte	0xc
 1056 063e 4902     		.2byte	0x249
 1057 0640 90030000 		.4byte	0x390
 1058 0644 02       		.byte	0x2
 1059 0645 23       		.byte	0x23
 1060 0646 00       		.uleb128 0
 1061 0647 0D       		.uleb128 0xd
 1062 0648 46523200 		.ascii	"FR2\000"
 1063 064c 0C       		.byte	0xc
 1064 064d 4A02     		.2byte	0x24a
 1065 064f 90030000 		.4byte	0x390
 1066 0653 02       		.byte	0x2
 1067 0654 23       		.byte	0x23
 1068 0655 04       		.uleb128 0x4
 1069 0656 00       		.byte	0
 1070 0657 17       		.uleb128 0x17
ARM GAS  C:\Users\DNIEL~1\AppData\Local\Temp\cc7q1ApJ.s 			page 20


 1071 0658 9F020000 		.4byte	.LASF88
 1072 065c 0C       		.byte	0xc
 1073 065d 4B02     		.2byte	0x24b
 1074 065f 2F060000 		.4byte	0x62f
 1075 0663 18       		.uleb128 0x18
 1076 0664 2003     		.2byte	0x320
 1077 0666 0C       		.byte	0xc
 1078 0667 5102     		.2byte	0x251
 1079 0669 C5070000 		.4byte	0x7c5
 1080 066d 0D       		.uleb128 0xd
 1081 066e 4D435200 		.ascii	"MCR\000"
 1082 0672 0C       		.byte	0xc
 1083 0673 5302     		.2byte	0x253
 1084 0675 90030000 		.4byte	0x390
 1085 0679 02       		.byte	0x2
 1086 067a 23       		.byte	0x23
 1087 067b 00       		.uleb128 0
 1088 067c 0D       		.uleb128 0xd
 1089 067d 4D535200 		.ascii	"MSR\000"
 1090 0681 0C       		.byte	0xc
 1091 0682 5402     		.2byte	0x254
 1092 0684 90030000 		.4byte	0x390
 1093 0688 02       		.byte	0x2
 1094 0689 23       		.byte	0x23
 1095 068a 04       		.uleb128 0x4
 1096 068b 0D       		.uleb128 0xd
 1097 068c 54535200 		.ascii	"TSR\000"
 1098 0690 0C       		.byte	0xc
 1099 0691 5502     		.2byte	0x255
 1100 0693 90030000 		.4byte	0x390
 1101 0697 02       		.byte	0x2
 1102 0698 23       		.byte	0x23
 1103 0699 08       		.uleb128 0x8
 1104 069a 16       		.uleb128 0x16
 1105 069b 28070000 		.4byte	.LASF89
 1106 069f 0C       		.byte	0xc
 1107 06a0 5602     		.2byte	0x256
 1108 06a2 90030000 		.4byte	0x390
 1109 06a6 02       		.byte	0x2
 1110 06a7 23       		.byte	0x23
 1111 06a8 0C       		.uleb128 0xc
 1112 06a9 16       		.uleb128 0x16
 1113 06aa 93020000 		.4byte	.LASF90
 1114 06ae 0C       		.byte	0xc
 1115 06af 5702     		.2byte	0x257
 1116 06b1 90030000 		.4byte	0x390
 1117 06b5 02       		.byte	0x2
 1118 06b6 23       		.byte	0x23
 1119 06b7 10       		.uleb128 0x10
 1120 06b8 0D       		.uleb128 0xd
 1121 06b9 49455200 		.ascii	"IER\000"
 1122 06bd 0C       		.byte	0xc
 1123 06be 5802     		.2byte	0x258
 1124 06c0 90030000 		.4byte	0x390
 1125 06c4 02       		.byte	0x2
 1126 06c5 23       		.byte	0x23
 1127 06c6 14       		.uleb128 0x14
ARM GAS  C:\Users\DNIEL~1\AppData\Local\Temp\cc7q1ApJ.s 			page 21


 1128 06c7 0D       		.uleb128 0xd
 1129 06c8 45535200 		.ascii	"ESR\000"
 1130 06cc 0C       		.byte	0xc
 1131 06cd 5902     		.2byte	0x259
 1132 06cf 90030000 		.4byte	0x390
 1133 06d3 02       		.byte	0x2
 1134 06d4 23       		.byte	0x23
 1135 06d5 18       		.uleb128 0x18
 1136 06d6 0D       		.uleb128 0xd
 1137 06d7 42545200 		.ascii	"BTR\000"
 1138 06db 0C       		.byte	0xc
 1139 06dc 5A02     		.2byte	0x25a
 1140 06de 90030000 		.4byte	0x390
 1141 06e2 02       		.byte	0x2
 1142 06e3 23       		.byte	0x23
 1143 06e4 1C       		.uleb128 0x1c
 1144 06e5 16       		.uleb128 0x16
 1145 06e6 99040000 		.4byte	.LASF91
 1146 06ea 0C       		.byte	0xc
 1147 06eb 5B02     		.2byte	0x25b
 1148 06ed C5070000 		.4byte	0x7c5
 1149 06f1 02       		.byte	0x2
 1150 06f2 23       		.byte	0x23
 1151 06f3 20       		.uleb128 0x20
 1152 06f4 16       		.uleb128 0x16
 1153 06f5 09050000 		.4byte	.LASF92
 1154 06f9 0C       		.byte	0xc
 1155 06fa 5C02     		.2byte	0x25c
 1156 06fc D5070000 		.4byte	0x7d5
 1157 0700 03       		.byte	0x3
 1158 0701 23       		.byte	0x23
 1159 0702 8003     		.uleb128 0x180
 1160 0704 16       		.uleb128 0x16
 1161 0705 35060000 		.4byte	.LASF93
 1162 0709 0C       		.byte	0xc
 1163 070a 5D02     		.2byte	0x25d
 1164 070c E5070000 		.4byte	0x7e5
 1165 0710 03       		.byte	0x3
 1166 0711 23       		.byte	0x23
 1167 0712 B003     		.uleb128 0x1b0
 1168 0714 16       		.uleb128 0x16
 1169 0715 A3040000 		.4byte	.LASF94
 1170 0719 0C       		.byte	0xc
 1171 071a 5E02     		.2byte	0x25e
 1172 071c F5070000 		.4byte	0x7f5
 1173 0720 03       		.byte	0x3
 1174 0721 23       		.byte	0x23
 1175 0722 D003     		.uleb128 0x1d0
 1176 0724 0D       		.uleb128 0xd
 1177 0725 464D5200 		.ascii	"FMR\000"
 1178 0729 0C       		.byte	0xc
 1179 072a 5F02     		.2byte	0x25f
 1180 072c 90030000 		.4byte	0x390
 1181 0730 03       		.byte	0x3
 1182 0731 23       		.byte	0x23
 1183 0732 8004     		.uleb128 0x200
 1184 0734 16       		.uleb128 0x16
ARM GAS  C:\Users\DNIEL~1\AppData\Local\Temp\cc7q1ApJ.s 			page 22


 1185 0735 86050000 		.4byte	.LASF95
 1186 0739 0C       		.byte	0xc
 1187 073a 6002     		.2byte	0x260
 1188 073c 90030000 		.4byte	0x390
 1189 0740 03       		.byte	0x3
 1190 0741 23       		.byte	0x23
 1191 0742 8404     		.uleb128 0x204
 1192 0744 16       		.uleb128 0x16
 1193 0745 AD040000 		.4byte	.LASF96
 1194 0749 0C       		.byte	0xc
 1195 074a 6102     		.2byte	0x261
 1196 074c B6000000 		.4byte	0xb6
 1197 0750 03       		.byte	0x3
 1198 0751 23       		.byte	0x23
 1199 0752 8804     		.uleb128 0x208
 1200 0754 16       		.uleb128 0x16
 1201 0755 9A060000 		.4byte	.LASF97
 1202 0759 0C       		.byte	0xc
 1203 075a 6202     		.2byte	0x262
 1204 075c 90030000 		.4byte	0x390
 1205 0760 03       		.byte	0x3
 1206 0761 23       		.byte	0x23
 1207 0762 8C04     		.uleb128 0x20c
 1208 0764 16       		.uleb128 0x16
 1209 0765 B7040000 		.4byte	.LASF98
 1210 0769 0C       		.byte	0xc
 1211 076a 6302     		.2byte	0x263
 1212 076c B6000000 		.4byte	0xb6
 1213 0770 03       		.byte	0x3
 1214 0771 23       		.byte	0x23
 1215 0772 9004     		.uleb128 0x210
 1216 0774 16       		.uleb128 0x16
 1217 0775 5E040000 		.4byte	.LASF99
 1218 0779 0C       		.byte	0xc
 1219 077a 6402     		.2byte	0x264
 1220 077c 90030000 		.4byte	0x390
 1221 0780 03       		.byte	0x3
 1222 0781 23       		.byte	0x23
 1223 0782 9404     		.uleb128 0x214
 1224 0784 16       		.uleb128 0x16
 1225 0785 C1040000 		.4byte	.LASF100
 1226 0789 0C       		.byte	0xc
 1227 078a 6502     		.2byte	0x265
 1228 078c B6000000 		.4byte	0xb6
 1229 0790 03       		.byte	0x3
 1230 0791 23       		.byte	0x23
 1231 0792 9804     		.uleb128 0x218
 1232 0794 16       		.uleb128 0x16
 1233 0795 60030000 		.4byte	.LASF101
 1234 0799 0C       		.byte	0xc
 1235 079a 6602     		.2byte	0x266
 1236 079c 90030000 		.4byte	0x390
 1237 07a0 03       		.byte	0x3
 1238 07a1 23       		.byte	0x23
 1239 07a2 9C04     		.uleb128 0x21c
 1240 07a4 16       		.uleb128 0x16
 1241 07a5 A7050000 		.4byte	.LASF102
ARM GAS  C:\Users\DNIEL~1\AppData\Local\Temp\cc7q1ApJ.s 			page 23


 1242 07a9 0C       		.byte	0xc
 1243 07aa 6702     		.2byte	0x267
 1244 07ac 56050000 		.4byte	0x556
 1245 07b0 03       		.byte	0x3
 1246 07b1 23       		.byte	0x23
 1247 07b2 A004     		.uleb128 0x220
 1248 07b4 16       		.uleb128 0x16
 1249 07b5 15030000 		.4byte	.LASF103
 1250 07b9 0C       		.byte	0xc
 1251 07ba 6802     		.2byte	0x268
 1252 07bc 05080000 		.4byte	0x805
 1253 07c0 03       		.byte	0x3
 1254 07c1 23       		.byte	0x23
 1255 07c2 C004     		.uleb128 0x240
 1256 07c4 00       		.byte	0
 1257 07c5 13       		.uleb128 0x13
 1258 07c6 B6000000 		.4byte	0xb6
 1259 07ca D5070000 		.4byte	0x7d5
 1260 07ce 14       		.uleb128 0x14
 1261 07cf 73000000 		.4byte	0x73
 1262 07d3 57       		.byte	0x57
 1263 07d4 00       		.byte	0
 1264 07d5 13       		.uleb128 0x13
 1265 07d6 D1050000 		.4byte	0x5d1
 1266 07da E5070000 		.4byte	0x7e5
 1267 07de 14       		.uleb128 0x14
 1268 07df 73000000 		.4byte	0x73
 1269 07e3 02       		.byte	0x2
 1270 07e4 00       		.byte	0
 1271 07e5 13       		.uleb128 0x13
 1272 07e6 23060000 		.4byte	0x623
 1273 07ea F5070000 		.4byte	0x7f5
 1274 07ee 14       		.uleb128 0x14
 1275 07ef 73000000 		.4byte	0x73
 1276 07f3 01       		.byte	0x1
 1277 07f4 00       		.byte	0
 1278 07f5 13       		.uleb128 0x13
 1279 07f6 B6000000 		.4byte	0xb6
 1280 07fa 05080000 		.4byte	0x805
 1281 07fe 14       		.uleb128 0x14
 1282 07ff 73000000 		.4byte	0x73
 1283 0803 0B       		.byte	0xb
 1284 0804 00       		.byte	0
 1285 0805 13       		.uleb128 0x13
 1286 0806 57060000 		.4byte	0x657
 1287 080a 15080000 		.4byte	0x815
 1288 080e 14       		.uleb128 0x14
 1289 080f 73000000 		.4byte	0x73
 1290 0813 1B       		.byte	0x1b
 1291 0814 00       		.byte	0
 1292 0815 17       		.uleb128 0x17
 1293 0816 4A000000 		.4byte	.LASF104
 1294 081a 0C       		.byte	0xc
 1295 081b 6902     		.2byte	0x269
 1296 081d 63060000 		.4byte	0x663
 1297 0821 19       		.uleb128 0x19
 1298 0822 01       		.byte	0x1
ARM GAS  C:\Users\DNIEL~1\AppData\Local\Temp\cc7q1ApJ.s 			page 24


 1299 0823 0D       		.byte	0xd
 1300 0824 6E       		.byte	0x6e
 1301 0825 48080000 		.4byte	0x848
 1302 0829 1A       		.uleb128 0x1a
 1303 082a DA040000 		.4byte	.LASF105
 1304 082e 00       		.sleb128 0
 1305 082f 1A       		.uleb128 0x1a
 1306 0830 55040000 		.4byte	.LASF106
 1307 0834 01       		.sleb128 1
 1308 0835 1A       		.uleb128 0x1a
 1309 0836 E1000000 		.4byte	.LASF107
 1310 083a 02       		.sleb128 2
 1311 083b 1A       		.uleb128 0x1a
 1312 083c CD010000 		.4byte	.LASF108
 1313 0840 03       		.sleb128 3
 1314 0841 1A       		.uleb128 0x1a
 1315 0842 8A030000 		.4byte	.LASF109
 1316 0846 04       		.sleb128 4
 1317 0847 00       		.byte	0
 1318 0848 02       		.uleb128 0x2
 1319 0849 4A040000 		.4byte	.LASF110
 1320 084d 0D       		.byte	0xd
 1321 084e 74       		.byte	0x74
 1322 084f 21080000 		.4byte	0x821
 1323 0853 02       		.uleb128 0x2
 1324 0854 2D070000 		.4byte	.LASF111
 1325 0858 0E       		.byte	0xe
 1326 0859 92       		.byte	0x92
 1327 085a B6000000 		.4byte	0xb6
 1328 085e 0B       		.uleb128 0xb
 1329 085f 01       		.byte	0x1
 1330 0860 0E       		.byte	0xe
 1331 0861 9A       		.byte	0x9a
 1332 0862 9A080000 		.4byte	0x89a
 1333 0866 1B       		.uleb128 0x1b
 1334 0867 444C4300 		.ascii	"DLC\000"
 1335 086b 0E       		.byte	0xe
 1336 086c 9B       		.byte	0x9b
 1337 086d 95000000 		.4byte	0x95
 1338 0871 01       		.byte	0x1
 1339 0872 04       		.byte	0x4
 1340 0873 04       		.byte	0x4
 1341 0874 02       		.byte	0x2
 1342 0875 23       		.byte	0x23
 1343 0876 00       		.uleb128 0
 1344 0877 1B       		.uleb128 0x1b
 1345 0878 52545200 		.ascii	"RTR\000"
 1346 087c 0E       		.byte	0xe
 1347 087d 9C       		.byte	0x9c
 1348 087e 95000000 		.4byte	0x95
 1349 0882 01       		.byte	0x1
 1350 0883 01       		.byte	0x1
 1351 0884 03       		.byte	0x3
 1352 0885 02       		.byte	0x2
 1353 0886 23       		.byte	0x23
 1354 0887 00       		.uleb128 0
 1355 0888 1B       		.uleb128 0x1b
ARM GAS  C:\Users\DNIEL~1\AppData\Local\Temp\cc7q1ApJ.s 			page 25


 1356 0889 49444500 		.ascii	"IDE\000"
 1357 088d 0E       		.byte	0xe
 1358 088e 9D       		.byte	0x9d
 1359 088f 95000000 		.4byte	0x95
 1360 0893 01       		.byte	0x1
 1361 0894 01       		.byte	0x1
 1362 0895 02       		.byte	0x2
 1363 0896 02       		.byte	0x2
 1364 0897 23       		.byte	0x23
 1365 0898 00       		.uleb128 0
 1366 0899 00       		.byte	0
 1367 089a 0B       		.uleb128 0xb
 1368 089b 04       		.byte	0x4
 1369 089c 0E       		.byte	0xe
 1370 089d A0       		.byte	0xa0
 1371 089e B4080000 		.4byte	0x8b4
 1372 08a2 1B       		.uleb128 0x1b
 1373 08a3 53494400 		.ascii	"SID\000"
 1374 08a7 0E       		.byte	0xe
 1375 08a8 A1       		.byte	0xa1
 1376 08a9 B6000000 		.4byte	0xb6
 1377 08ad 04       		.byte	0x4
 1378 08ae 0B       		.byte	0xb
 1379 08af 15       		.byte	0x15
 1380 08b0 02       		.byte	0x2
 1381 08b1 23       		.byte	0x23
 1382 08b2 00       		.uleb128 0
 1383 08b3 00       		.byte	0
 1384 08b4 0B       		.uleb128 0xb
 1385 08b5 04       		.byte	0x4
 1386 08b6 0E       		.byte	0xe
 1387 08b7 A3       		.byte	0xa3
 1388 08b8 CE080000 		.4byte	0x8ce
 1389 08bc 1B       		.uleb128 0x1b
 1390 08bd 45494400 		.ascii	"EID\000"
 1391 08c1 0E       		.byte	0xe
 1392 08c2 A4       		.byte	0xa4
 1393 08c3 B6000000 		.4byte	0xb6
 1394 08c7 04       		.byte	0x4
 1395 08c8 1D       		.byte	0x1d
 1396 08c9 03       		.byte	0x3
 1397 08ca 02       		.byte	0x2
 1398 08cb 23       		.byte	0x23
 1399 08cc 00       		.uleb128 0
 1400 08cd 00       		.byte	0
 1401 08ce 0F       		.uleb128 0xf
 1402 08cf 04       		.byte	0x4
 1403 08d0 0E       		.byte	0xe
 1404 08d1 9F       		.byte	0x9f
 1405 08d2 E1080000 		.4byte	0x8e1
 1406 08d6 1C       		.uleb128 0x1c
 1407 08d7 9A080000 		.4byte	0x89a
 1408 08db 1C       		.uleb128 0x1c
 1409 08dc B4080000 		.4byte	0x8b4
 1410 08e0 00       		.byte	0
 1411 08e1 0F       		.uleb128 0xf
 1412 08e2 08       		.byte	0x8
ARM GAS  C:\Users\DNIEL~1\AppData\Local\Temp\cc7q1ApJ.s 			page 26


 1413 08e3 0E       		.byte	0xe
 1414 08e4 A7       		.byte	0xa7
 1415 08e5 0B090000 		.4byte	0x90b
 1416 08e9 10       		.uleb128 0x10
 1417 08ea 9B030000 		.4byte	.LASF112
 1418 08ee 0E       		.byte	0xe
 1419 08ef A8       		.byte	0xa8
 1420 08f0 0B090000 		.4byte	0x90b
 1421 08f4 10       		.uleb128 0x10
 1422 08f5 93060000 		.4byte	.LASF113
 1423 08f9 0E       		.byte	0xe
 1424 08fa A9       		.byte	0xa9
 1425 08fb 1B090000 		.4byte	0x91b
 1426 08ff 10       		.uleb128 0x10
 1427 0900 8E000000 		.4byte	.LASF114
 1428 0904 0E       		.byte	0xe
 1429 0905 AA       		.byte	0xaa
 1430 0906 66050000 		.4byte	0x566
 1431 090a 00       		.byte	0
 1432 090b 13       		.uleb128 0x13
 1433 090c 95000000 		.4byte	0x95
 1434 0910 1B090000 		.4byte	0x91b
 1435 0914 14       		.uleb128 0x14
 1436 0915 73000000 		.4byte	0x73
 1437 0919 07       		.byte	0x7
 1438 091a 00       		.byte	0
 1439 091b 13       		.uleb128 0x13
 1440 091c A0000000 		.4byte	0xa0
 1441 0920 2B090000 		.4byte	0x92b
 1442 0924 14       		.uleb128 0x14
 1443 0925 73000000 		.4byte	0x73
 1444 0929 03       		.byte	0x3
 1445 092a 00       		.byte	0
 1446 092b 0B       		.uleb128 0xb
 1447 092c 10       		.byte	0x10
 1448 092d 0E       		.byte	0xe
 1449 092e 99       		.byte	0x99
 1450 092f 4C090000 		.4byte	0x94c
 1451 0933 1D       		.uleb128 0x1d
 1452 0934 5E080000 		.4byte	0x85e
 1453 0938 02       		.byte	0x2
 1454 0939 23       		.byte	0x23
 1455 093a 00       		.uleb128 0
 1456 093b 1D       		.uleb128 0x1d
 1457 093c CE080000 		.4byte	0x8ce
 1458 0940 02       		.byte	0x2
 1459 0941 23       		.byte	0x23
 1460 0942 04       		.uleb128 0x4
 1461 0943 1D       		.uleb128 0x1d
 1462 0944 E1080000 		.4byte	0x8e1
 1463 0948 02       		.byte	0x2
 1464 0949 23       		.byte	0x23
 1465 094a 08       		.uleb128 0x8
 1466 094b 00       		.byte	0
 1467 094c 02       		.uleb128 0x2
 1468 094d 7D020000 		.4byte	.LASF115
 1469 0951 0E       		.byte	0xe
ARM GAS  C:\Users\DNIEL~1\AppData\Local\Temp\cc7q1ApJ.s 			page 27


 1470 0952 AC       		.byte	0xac
 1471 0953 2B090000 		.4byte	0x92b
 1472 0957 0B       		.uleb128 0xb
 1473 0958 04       		.byte	0x4
 1474 0959 0E       		.byte	0xe
 1475 095a B4       		.byte	0xb4
 1476 095b 7C090000 		.4byte	0x97c
 1477 095f 0A       		.uleb128 0xa
 1478 0960 464D4900 		.ascii	"FMI\000"
 1479 0964 0E       		.byte	0xe
 1480 0965 B5       		.byte	0xb5
 1481 0966 95000000 		.4byte	0x95
 1482 096a 02       		.byte	0x2
 1483 096b 23       		.byte	0x23
 1484 096c 00       		.uleb128 0
 1485 096d 09       		.uleb128 0x9
 1486 096e 19020000 		.4byte	.LASF116
 1487 0972 0E       		.byte	0xe
 1488 0973 B6       		.byte	0xb6
 1489 0974 A0000000 		.4byte	0xa0
 1490 0978 02       		.byte	0x2
 1491 0979 23       		.byte	0x23
 1492 097a 02       		.uleb128 0x2
 1493 097b 00       		.byte	0
 1494 097c 0B       		.uleb128 0xb
 1495 097d 01       		.byte	0x1
 1496 097e 0E       		.byte	0xe
 1497 097f B8       		.byte	0xb8
 1498 0980 B8090000 		.4byte	0x9b8
 1499 0984 1B       		.uleb128 0x1b
 1500 0985 444C4300 		.ascii	"DLC\000"
 1501 0989 0E       		.byte	0xe
 1502 098a B9       		.byte	0xb9
 1503 098b 95000000 		.4byte	0x95
 1504 098f 01       		.byte	0x1
 1505 0990 04       		.byte	0x4
 1506 0991 04       		.byte	0x4
 1507 0992 02       		.byte	0x2
 1508 0993 23       		.byte	0x23
 1509 0994 00       		.uleb128 0
 1510 0995 1B       		.uleb128 0x1b
 1511 0996 52545200 		.ascii	"RTR\000"
 1512 099a 0E       		.byte	0xe
 1513 099b BA       		.byte	0xba
 1514 099c 95000000 		.4byte	0x95
 1515 09a0 01       		.byte	0x1
 1516 09a1 01       		.byte	0x1
 1517 09a2 03       		.byte	0x3
 1518 09a3 02       		.byte	0x2
 1519 09a4 23       		.byte	0x23
 1520 09a5 00       		.uleb128 0
 1521 09a6 1B       		.uleb128 0x1b
 1522 09a7 49444500 		.ascii	"IDE\000"
 1523 09ab 0E       		.byte	0xe
 1524 09ac BB       		.byte	0xbb
 1525 09ad 95000000 		.4byte	0x95
 1526 09b1 01       		.byte	0x1
ARM GAS  C:\Users\DNIEL~1\AppData\Local\Temp\cc7q1ApJ.s 			page 28


 1527 09b2 01       		.byte	0x1
 1528 09b3 02       		.byte	0x2
 1529 09b4 02       		.byte	0x2
 1530 09b5 23       		.byte	0x23
 1531 09b6 00       		.uleb128 0
 1532 09b7 00       		.byte	0
 1533 09b8 0B       		.uleb128 0xb
 1534 09b9 04       		.byte	0x4
 1535 09ba 0E       		.byte	0xe
 1536 09bb BE       		.byte	0xbe
 1537 09bc D2090000 		.4byte	0x9d2
 1538 09c0 1B       		.uleb128 0x1b
 1539 09c1 53494400 		.ascii	"SID\000"
 1540 09c5 0E       		.byte	0xe
 1541 09c6 BF       		.byte	0xbf
 1542 09c7 B6000000 		.4byte	0xb6
 1543 09cb 04       		.byte	0x4
 1544 09cc 0B       		.byte	0xb
 1545 09cd 15       		.byte	0x15
 1546 09ce 02       		.byte	0x2
 1547 09cf 23       		.byte	0x23
 1548 09d0 00       		.uleb128 0
 1549 09d1 00       		.byte	0
 1550 09d2 0B       		.uleb128 0xb
 1551 09d3 04       		.byte	0x4
 1552 09d4 0E       		.byte	0xe
 1553 09d5 C1       		.byte	0xc1
 1554 09d6 EC090000 		.4byte	0x9ec
 1555 09da 1B       		.uleb128 0x1b
 1556 09db 45494400 		.ascii	"EID\000"
 1557 09df 0E       		.byte	0xe
 1558 09e0 C2       		.byte	0xc2
 1559 09e1 B6000000 		.4byte	0xb6
 1560 09e5 04       		.byte	0x4
 1561 09e6 1D       		.byte	0x1d
 1562 09e7 03       		.byte	0x3
 1563 09e8 02       		.byte	0x2
 1564 09e9 23       		.byte	0x23
 1565 09ea 00       		.uleb128 0
 1566 09eb 00       		.byte	0
 1567 09ec 0F       		.uleb128 0xf
 1568 09ed 04       		.byte	0x4
 1569 09ee 0E       		.byte	0xe
 1570 09ef BD       		.byte	0xbd
 1571 09f0 FF090000 		.4byte	0x9ff
 1572 09f4 1C       		.uleb128 0x1c
 1573 09f5 B8090000 		.4byte	0x9b8
 1574 09f9 1C       		.uleb128 0x1c
 1575 09fa D2090000 		.4byte	0x9d2
 1576 09fe 00       		.byte	0
 1577 09ff 0F       		.uleb128 0xf
 1578 0a00 08       		.byte	0x8
 1579 0a01 0E       		.byte	0xe
 1580 0a02 C5       		.byte	0xc5
 1581 0a03 290A0000 		.4byte	0xa29
 1582 0a07 10       		.uleb128 0x10
 1583 0a08 9B030000 		.4byte	.LASF112
ARM GAS  C:\Users\DNIEL~1\AppData\Local\Temp\cc7q1ApJ.s 			page 29


 1584 0a0c 0E       		.byte	0xe
 1585 0a0d C6       		.byte	0xc6
 1586 0a0e 0B090000 		.4byte	0x90b
 1587 0a12 10       		.uleb128 0x10
 1588 0a13 93060000 		.4byte	.LASF113
 1589 0a17 0E       		.byte	0xe
 1590 0a18 C7       		.byte	0xc7
 1591 0a19 1B090000 		.4byte	0x91b
 1592 0a1d 10       		.uleb128 0x10
 1593 0a1e 8E000000 		.4byte	.LASF114
 1594 0a22 0E       		.byte	0xe
 1595 0a23 C8       		.byte	0xc8
 1596 0a24 66050000 		.4byte	0x566
 1597 0a28 00       		.byte	0
 1598 0a29 0B       		.uleb128 0xb
 1599 0a2a 14       		.byte	0x14
 1600 0a2b 0E       		.byte	0xe
 1601 0a2c B3       		.byte	0xb3
 1602 0a2d 520A0000 		.4byte	0xa52
 1603 0a31 1D       		.uleb128 0x1d
 1604 0a32 57090000 		.4byte	0x957
 1605 0a36 02       		.byte	0x2
 1606 0a37 23       		.byte	0x23
 1607 0a38 00       		.uleb128 0
 1608 0a39 1D       		.uleb128 0x1d
 1609 0a3a 7C090000 		.4byte	0x97c
 1610 0a3e 02       		.byte	0x2
 1611 0a3f 23       		.byte	0x23
 1612 0a40 04       		.uleb128 0x4
 1613 0a41 1D       		.uleb128 0x1d
 1614 0a42 EC090000 		.4byte	0x9ec
 1615 0a46 02       		.byte	0x2
 1616 0a47 23       		.byte	0x23
 1617 0a48 08       		.uleb128 0x8
 1618 0a49 1D       		.uleb128 0x1d
 1619 0a4a FF090000 		.4byte	0x9ff
 1620 0a4e 02       		.byte	0x2
 1621 0a4f 23       		.byte	0x23
 1622 0a50 0C       		.uleb128 0xc
 1623 0a51 00       		.byte	0
 1624 0a52 02       		.uleb128 0x2
 1625 0a53 25000000 		.4byte	.LASF117
 1626 0a57 0E       		.byte	0xe
 1627 0a58 CA       		.byte	0xca
 1628 0a59 290A0000 		.4byte	0xa29
 1629 0a5d 0B       		.uleb128 0xb
 1630 0a5e 08       		.byte	0x8
 1631 0a5f 0E       		.byte	0xe
 1632 0a60 F4       		.byte	0xf4
 1633 0a61 830A0000 		.4byte	0xa83
 1634 0a65 0A       		.uleb128 0xa
 1635 0a66 6D637200 		.ascii	"mcr\000"
 1636 0a6a 0E       		.byte	0xe
 1637 0a6b FA       		.byte	0xfa
 1638 0a6c B6000000 		.4byte	0xb6
 1639 0a70 02       		.byte	0x2
 1640 0a71 23       		.byte	0x23
ARM GAS  C:\Users\DNIEL~1\AppData\Local\Temp\cc7q1ApJ.s 			page 30


 1641 0a72 00       		.uleb128 0
 1642 0a73 0D       		.uleb128 0xd
 1643 0a74 62747200 		.ascii	"btr\000"
 1644 0a78 0E       		.byte	0xe
 1645 0a79 0001     		.2byte	0x100
 1646 0a7b B6000000 		.4byte	0xb6
 1647 0a7f 02       		.byte	0x2
 1648 0a80 23       		.byte	0x23
 1649 0a81 04       		.uleb128 0x4
 1650 0a82 00       		.byte	0
 1651 0a83 17       		.uleb128 0x17
 1652 0a84 40000000 		.4byte	.LASF118
 1653 0a88 0E       		.byte	0xe
 1654 0a89 0101     		.2byte	0x101
 1655 0a8b 5D0A0000 		.4byte	0xa5d
 1656 0a8f 15       		.uleb128 0x15
 1657 0a90 38       		.byte	0x38
 1658 0a91 0E       		.byte	0xe
 1659 0a92 0601     		.2byte	0x106
 1660 0a94 2F0B0000 		.4byte	0xb2f
 1661 0a98 16       		.uleb128 0x16
 1662 0a99 0E010000 		.4byte	.LASF119
 1663 0a9d 0E       		.byte	0xe
 1664 0a9e 0A01     		.2byte	0x10a
 1665 0aa0 48080000 		.4byte	0x848
 1666 0aa4 02       		.byte	0x2
 1667 0aa5 23       		.byte	0x23
 1668 0aa6 00       		.uleb128 0
 1669 0aa7 16       		.uleb128 0x16
 1670 0aa8 FF050000 		.4byte	.LASF120
 1671 0aac 0E       		.byte	0xe
 1672 0aad 0E01     		.2byte	0x10e
 1673 0aaf 2F0B0000 		.4byte	0xb2f
 1674 0ab3 02       		.byte	0x2
 1675 0ab4 23       		.byte	0x23
 1676 0ab5 04       		.uleb128 0x4
 1677 0ab6 16       		.uleb128 0x16
 1678 0ab7 F8000000 		.4byte	.LASF121
 1679 0abb 0E       		.byte	0xe
 1680 0abc 1201     		.2byte	0x112
 1681 0abe 2B040000 		.4byte	0x42b
 1682 0ac2 02       		.byte	0x2
 1683 0ac3 23       		.byte	0x23
 1684 0ac4 08       		.uleb128 0x8
 1685 0ac5 16       		.uleb128 0x16
 1686 0ac6 EA060000 		.4byte	.LASF122
 1687 0aca 0E       		.byte	0xe
 1688 0acb 1601     		.2byte	0x116
 1689 0acd 2B040000 		.4byte	0x42b
 1690 0ad1 02       		.byte	0x2
 1691 0ad2 23       		.byte	0x23
 1692 0ad3 14       		.uleb128 0x14
 1693 0ad4 16       		.uleb128 0x16
 1694 0ad5 F3010000 		.4byte	.LASF123
 1695 0ad9 0E       		.byte	0xe
 1696 0ada 2301     		.2byte	0x123
 1697 0adc EF040000 		.4byte	0x4ef
ARM GAS  C:\Users\DNIEL~1\AppData\Local\Temp\cc7q1ApJ.s 			page 31


 1698 0ae0 02       		.byte	0x2
 1699 0ae1 23       		.byte	0x23
 1700 0ae2 20       		.uleb128 0x20
 1701 0ae3 16       		.uleb128 0x16
 1702 0ae4 C2050000 		.4byte	.LASF124
 1703 0ae8 0E       		.byte	0xe
 1704 0ae9 2A01     		.2byte	0x12a
 1705 0aeb EF040000 		.4byte	0x4ef
 1706 0aef 02       		.byte	0x2
 1707 0af0 23       		.byte	0x23
 1708 0af1 24       		.uleb128 0x24
 1709 0af2 16       		.uleb128 0x16
 1710 0af3 64040000 		.4byte	.LASF125
 1711 0af7 0E       		.byte	0xe
 1712 0af8 3001     		.2byte	0x130
 1713 0afa EF040000 		.4byte	0x4ef
 1714 0afe 02       		.byte	0x2
 1715 0aff 23       		.byte	0x23
 1716 0b00 28       		.uleb128 0x28
 1717 0b01 16       		.uleb128 0x16
 1718 0b02 3E040000 		.4byte	.LASF126
 1719 0b06 0E       		.byte	0xe
 1720 0b07 3501     		.2byte	0x135
 1721 0b09 EF040000 		.4byte	0x4ef
 1722 0b0d 02       		.byte	0x2
 1723 0b0e 23       		.byte	0x23
 1724 0b0f 2C       		.uleb128 0x2c
 1725 0b10 16       		.uleb128 0x16
 1726 0b11 14050000 		.4byte	.LASF127
 1727 0b15 0E       		.byte	0xe
 1728 0b16 3901     		.2byte	0x139
 1729 0b18 EF040000 		.4byte	0x4ef
 1730 0b1c 02       		.byte	0x2
 1731 0b1d 23       		.byte	0x23
 1732 0b1e 30       		.uleb128 0x30
 1733 0b1f 0D       		.uleb128 0xd
 1734 0b20 63616E00 		.ascii	"can\000"
 1735 0b24 0E       		.byte	0xe
 1736 0b25 3F01     		.2byte	0x13f
 1737 0b27 3A0B0000 		.4byte	0xb3a
 1738 0b2b 02       		.byte	0x2
 1739 0b2c 23       		.byte	0x23
 1740 0b2d 34       		.uleb128 0x34
 1741 0b2e 00       		.byte	0
 1742 0b2f 06       		.uleb128 0x6
 1743 0b30 04       		.byte	0x4
 1744 0b31 350B0000 		.4byte	0xb35
 1745 0b35 07       		.uleb128 0x7
 1746 0b36 830A0000 		.4byte	0xa83
 1747 0b3a 06       		.uleb128 0x6
 1748 0b3b 04       		.byte	0x4
 1749 0b3c 15080000 		.4byte	0x815
 1750 0b40 17       		.uleb128 0x17
 1751 0b41 A8030000 		.4byte	.LASF128
 1752 0b45 0E       		.byte	0xe
 1753 0b46 4001     		.2byte	0x140
 1754 0b48 8F0A0000 		.4byte	0xa8f
ARM GAS  C:\Users\DNIEL~1\AppData\Local\Temp\cc7q1ApJ.s 			page 32


 1755 0b4c 19       		.uleb128 0x19
 1756 0b4d 01       		.byte	0x1
 1757 0b4e 0F       		.byte	0xf
 1758 0b4f 55       		.byte	0x55
 1759 0b50 670B0000 		.4byte	0xb67
 1760 0b54 1A       		.uleb128 0x1a
 1761 0b55 1A000000 		.4byte	.LASF129
 1762 0b59 00       		.sleb128 0
 1763 0b5a 1A       		.uleb128 0x1a
 1764 0b5b EC050000 		.4byte	.LASF130
 1765 0b5f 01       		.sleb128 1
 1766 0b60 1A       		.uleb128 0x1a
 1767 0b61 B9000000 		.4byte	.LASF131
 1768 0b65 02       		.sleb128 2
 1769 0b66 00       		.byte	0
 1770 0b67 02       		.uleb128 0x2
 1771 0b68 F7060000 		.4byte	.LASF132
 1772 0b6c 0F       		.byte	0xf
 1773 0b6d 59       		.byte	0x59
 1774 0b6e 4C0B0000 		.4byte	0xb4c
 1775 0b72 02       		.uleb128 0x2
 1776 0b73 E0060000 		.4byte	.LASF133
 1777 0b77 0F       		.byte	0xf
 1778 0b78 5E       		.byte	0x5e
 1779 0b79 7D0B0000 		.4byte	0xb7d
 1780 0b7d 0C       		.uleb128 0xc
 1781 0b7e E0060000 		.4byte	.LASF133
 1782 0b82 14       		.byte	0x14
 1783 0b83 10       		.byte	0x10
 1784 0b84 6F01     		.2byte	0x16f
 1785 0b86 D60B0000 		.4byte	0xbd6
 1786 0b8a 16       		.uleb128 0x16
 1787 0b8b 0E010000 		.4byte	.LASF119
 1788 0b8f 10       		.byte	0x10
 1789 0b90 7301     		.2byte	0x173
 1790 0b92 670B0000 		.4byte	0xb67
 1791 0b96 02       		.byte	0x2
 1792 0b97 23       		.byte	0x23
 1793 0b98 00       		.uleb128 0
 1794 0b99 16       		.uleb128 0x16
 1795 0b9a FF050000 		.4byte	.LASF120
 1796 0b9e 10       		.byte	0x10
 1797 0b9f 7701     		.2byte	0x177
 1798 0ba1 190E0000 		.4byte	0xe19
 1799 0ba5 02       		.byte	0x2
 1800 0ba6 23       		.byte	0x23
 1801 0ba7 04       		.uleb128 0x4
 1802 0ba8 16       		.uleb128 0x16
 1803 0ba9 56000000 		.4byte	.LASF134
 1804 0bad 10       		.byte	0x10
 1805 0bae 7B01     		.2byte	0x17b
 1806 0bb0 590D0000 		.4byte	0xd59
 1807 0bb4 02       		.byte	0x2
 1808 0bb5 23       		.byte	0x23
 1809 0bb6 08       		.uleb128 0x8
 1810 0bb7 16       		.uleb128 0x16
 1811 0bb8 46070000 		.4byte	.LASF135
ARM GAS  C:\Users\DNIEL~1\AppData\Local\Temp\cc7q1ApJ.s 			page 33


 1812 0bbc 10       		.byte	0x10
 1813 0bbd 8301     		.2byte	0x183
 1814 0bbf B6000000 		.4byte	0xb6
 1815 0bc3 02       		.byte	0x2
 1816 0bc4 23       		.byte	0x23
 1817 0bc5 0C       		.uleb128 0xc
 1818 0bc6 0D       		.uleb128 0xd
 1819 0bc7 74696D00 		.ascii	"tim\000"
 1820 0bcb 10       		.byte	0x10
 1821 0bcc 8701     		.2byte	0x187
 1822 0bce 240E0000 		.4byte	0xe24
 1823 0bd2 02       		.byte	0x2
 1824 0bd3 23       		.byte	0x23
 1825 0bd4 10       		.uleb128 0x10
 1826 0bd5 00       		.byte	0
 1827 0bd6 02       		.uleb128 0x2
 1828 0bd7 76040000 		.4byte	.LASF136
 1829 0bdb 0F       		.byte	0xf
 1830 0bdc 65       		.byte	0x65
 1831 0bdd E10B0000 		.4byte	0xbe1
 1832 0be1 06       		.uleb128 0x6
 1833 0be2 04       		.byte	0x4
 1834 0be3 E70B0000 		.4byte	0xbe7
 1835 0be7 1E       		.uleb128 0x1e
 1836 0be8 01       		.byte	0x1
 1837 0be9 F30B0000 		.4byte	0xbf3
 1838 0bed 12       		.uleb128 0x12
 1839 0bee F30B0000 		.4byte	0xbf3
 1840 0bf2 00       		.byte	0
 1841 0bf3 06       		.uleb128 0x6
 1842 0bf4 04       		.byte	0x4
 1843 0bf5 720B0000 		.4byte	0xb72
 1844 0bf9 15       		.uleb128 0x15
 1845 0bfa 60       		.byte	0x60
 1846 0bfb 11       		.byte	0x11
 1847 0bfc 9E01     		.2byte	0x19e
 1848 0bfe 3C0D0000 		.4byte	0xd3c
 1849 0c02 0D       		.uleb128 0xd
 1850 0c03 43523100 		.ascii	"CR1\000"
 1851 0c07 11       		.byte	0x11
 1852 0c08 9F01     		.2byte	0x19f
 1853 0c0a 90030000 		.4byte	0x390
 1854 0c0e 02       		.byte	0x2
 1855 0c0f 23       		.byte	0x23
 1856 0c10 00       		.uleb128 0
 1857 0c11 0D       		.uleb128 0xd
 1858 0c12 43523200 		.ascii	"CR2\000"
 1859 0c16 11       		.byte	0x11
 1860 0c17 A001     		.2byte	0x1a0
 1861 0c19 90030000 		.4byte	0x390
 1862 0c1d 02       		.byte	0x2
 1863 0c1e 23       		.byte	0x23
 1864 0c1f 04       		.uleb128 0x4
 1865 0c20 16       		.uleb128 0x16
 1866 0c21 8E020000 		.4byte	.LASF137
 1867 0c25 11       		.byte	0x11
 1868 0c26 A101     		.2byte	0x1a1
ARM GAS  C:\Users\DNIEL~1\AppData\Local\Temp\cc7q1ApJ.s 			page 34


 1869 0c28 90030000 		.4byte	0x390
 1870 0c2c 02       		.byte	0x2
 1871 0c2d 23       		.byte	0x23
 1872 0c2e 08       		.uleb128 0x8
 1873 0c2f 16       		.uleb128 0x16
 1874 0c30 0E000000 		.4byte	.LASF138
 1875 0c34 11       		.byte	0x11
 1876 0c35 A201     		.2byte	0x1a2
 1877 0c37 90030000 		.4byte	0x390
 1878 0c3b 02       		.byte	0x2
 1879 0c3c 23       		.byte	0x23
 1880 0c3d 0C       		.uleb128 0xc
 1881 0c3e 0D       		.uleb128 0xd
 1882 0c3f 535200   		.ascii	"SR\000"
 1883 0c42 11       		.byte	0x11
 1884 0c43 A301     		.2byte	0x1a3
 1885 0c45 90030000 		.4byte	0x390
 1886 0c49 02       		.byte	0x2
 1887 0c4a 23       		.byte	0x23
 1888 0c4b 10       		.uleb128 0x10
 1889 0c4c 0D       		.uleb128 0xd
 1890 0c4d 45475200 		.ascii	"EGR\000"
 1891 0c51 11       		.byte	0x11
 1892 0c52 A401     		.2byte	0x1a4
 1893 0c54 90030000 		.4byte	0x390
 1894 0c58 02       		.byte	0x2
 1895 0c59 23       		.byte	0x23
 1896 0c5a 14       		.uleb128 0x14
 1897 0c5b 16       		.uleb128 0x16
 1898 0c5c C3000000 		.4byte	.LASF139
 1899 0c60 11       		.byte	0x11
 1900 0c61 A501     		.2byte	0x1a5
 1901 0c63 90030000 		.4byte	0x390
 1902 0c67 02       		.byte	0x2
 1903 0c68 23       		.byte	0x23
 1904 0c69 18       		.uleb128 0x18
 1905 0c6a 16       		.uleb128 0x16
 1906 0c6b C9000000 		.4byte	.LASF140
 1907 0c6f 11       		.byte	0x11
 1908 0c70 A601     		.2byte	0x1a6
 1909 0c72 90030000 		.4byte	0x390
 1910 0c76 02       		.byte	0x2
 1911 0c77 23       		.byte	0x23
 1912 0c78 1C       		.uleb128 0x1c
 1913 0c79 16       		.uleb128 0x16
 1914 0c7a 5B030000 		.4byte	.LASF141
 1915 0c7e 11       		.byte	0x11
 1916 0c7f A701     		.2byte	0x1a7
 1917 0c81 90030000 		.4byte	0x390
 1918 0c85 02       		.byte	0x2
 1919 0c86 23       		.byte	0x23
 1920 0c87 20       		.uleb128 0x20
 1921 0c88 0D       		.uleb128 0xd
 1922 0c89 434E5400 		.ascii	"CNT\000"
 1923 0c8d 11       		.byte	0x11
 1924 0c8e A801     		.2byte	0x1a8
 1925 0c90 90030000 		.4byte	0x390
ARM GAS  C:\Users\DNIEL~1\AppData\Local\Temp\cc7q1ApJ.s 			page 35


 1926 0c94 02       		.byte	0x2
 1927 0c95 23       		.byte	0x23
 1928 0c96 24       		.uleb128 0x24
 1929 0c97 0D       		.uleb128 0xd
 1930 0c98 50534300 		.ascii	"PSC\000"
 1931 0c9c 11       		.byte	0x11
 1932 0c9d A901     		.2byte	0x1a9
 1933 0c9f 90030000 		.4byte	0x390
 1934 0ca3 02       		.byte	0x2
 1935 0ca4 23       		.byte	0x23
 1936 0ca5 28       		.uleb128 0x28
 1937 0ca6 0D       		.uleb128 0xd
 1938 0ca7 41525200 		.ascii	"ARR\000"
 1939 0cab 11       		.byte	0x11
 1940 0cac AA01     		.2byte	0x1aa
 1941 0cae 90030000 		.4byte	0x390
 1942 0cb2 02       		.byte	0x2
 1943 0cb3 23       		.byte	0x23
 1944 0cb4 2C       		.uleb128 0x2c
 1945 0cb5 0D       		.uleb128 0xd
 1946 0cb6 52435200 		.ascii	"RCR\000"
 1947 0cba 11       		.byte	0x11
 1948 0cbb AB01     		.2byte	0x1ab
 1949 0cbd 90030000 		.4byte	0x390
 1950 0cc1 02       		.byte	0x2
 1951 0cc2 23       		.byte	0x23
 1952 0cc3 30       		.uleb128 0x30
 1953 0cc4 0D       		.uleb128 0xd
 1954 0cc5 43435200 		.ascii	"CCR\000"
 1955 0cc9 11       		.byte	0x11
 1956 0cca AC01     		.2byte	0x1ac
 1957 0ccc 3C0D0000 		.4byte	0xd3c
 1958 0cd0 02       		.byte	0x2
 1959 0cd1 23       		.byte	0x23
 1960 0cd2 34       		.uleb128 0x34
 1961 0cd3 16       		.uleb128 0x16
 1962 0cd4 95000000 		.4byte	.LASF142
 1963 0cd8 11       		.byte	0x11
 1964 0cd9 AD01     		.2byte	0x1ad
 1965 0cdb 90030000 		.4byte	0x390
 1966 0cdf 02       		.byte	0x2
 1967 0ce0 23       		.byte	0x23
 1968 0ce1 44       		.uleb128 0x44
 1969 0ce2 0D       		.uleb128 0xd
 1970 0ce3 44435200 		.ascii	"DCR\000"
 1971 0ce7 11       		.byte	0x11
 1972 0ce8 AE01     		.2byte	0x1ae
 1973 0cea 90030000 		.4byte	0x390
 1974 0cee 02       		.byte	0x2
 1975 0cef 23       		.byte	0x23
 1976 0cf0 48       		.uleb128 0x48
 1977 0cf1 16       		.uleb128 0x16
 1978 0cf2 06060000 		.4byte	.LASF143
 1979 0cf6 11       		.byte	0x11
 1980 0cf7 AF01     		.2byte	0x1af
 1981 0cf9 90030000 		.4byte	0x390
 1982 0cfd 02       		.byte	0x2
ARM GAS  C:\Users\DNIEL~1\AppData\Local\Temp\cc7q1ApJ.s 			page 36


 1983 0cfe 23       		.byte	0x23
 1984 0cff 4C       		.uleb128 0x4c
 1985 0d00 0D       		.uleb128 0xd
 1986 0d01 4F5200   		.ascii	"OR\000"
 1987 0d04 11       		.byte	0x11
 1988 0d05 B001     		.2byte	0x1b0
 1989 0d07 90030000 		.4byte	0x390
 1990 0d0b 02       		.byte	0x2
 1991 0d0c 23       		.byte	0x23
 1992 0d0d 50       		.uleb128 0x50
 1993 0d0e 16       		.uleb128 0x16
 1994 0d0f CF000000 		.4byte	.LASF144
 1995 0d13 11       		.byte	0x11
 1996 0d14 B101     		.2byte	0x1b1
 1997 0d16 90030000 		.4byte	0x390
 1998 0d1a 02       		.byte	0x2
 1999 0d1b 23       		.byte	0x23
 2000 0d1c 54       		.uleb128 0x54
 2001 0d1d 16       		.uleb128 0x16
 2002 0d1e A6060000 		.4byte	.LASF145
 2003 0d22 11       		.byte	0x11
 2004 0d23 B201     		.2byte	0x1b2
 2005 0d25 90030000 		.4byte	0x390
 2006 0d29 02       		.byte	0x2
 2007 0d2a 23       		.byte	0x23
 2008 0d2b 58       		.uleb128 0x58
 2009 0d2c 16       		.uleb128 0x16
 2010 0d2d AB060000 		.4byte	.LASF146
 2011 0d31 11       		.byte	0x11
 2012 0d32 B301     		.2byte	0x1b3
 2013 0d34 90030000 		.4byte	0x390
 2014 0d38 02       		.byte	0x2
 2015 0d39 23       		.byte	0x23
 2016 0d3a 5C       		.uleb128 0x5c
 2017 0d3b 00       		.byte	0
 2018 0d3c 0E       		.uleb128 0xe
 2019 0d3d 76050000 		.4byte	0x576
 2020 0d41 17       		.uleb128 0x17
 2021 0d42 FD020000 		.4byte	.LASF147
 2022 0d46 11       		.byte	0x11
 2023 0d47 B401     		.2byte	0x1b4
 2024 0d49 F90B0000 		.4byte	0xbf9
 2025 0d4d 17       		.uleb128 0x17
 2026 0d4e EE000000 		.4byte	.LASF148
 2027 0d52 10       		.byte	0x10
 2028 0d53 2001     		.2byte	0x120
 2029 0d55 B6000000 		.4byte	0xb6
 2030 0d59 17       		.uleb128 0x17
 2031 0d5a 0A070000 		.4byte	.LASF149
 2032 0d5e 10       		.byte	0x10
 2033 0d5f 2A01     		.2byte	0x12a
 2034 0d61 A0000000 		.4byte	0xa0
 2035 0d65 15       		.uleb128 0x15
 2036 0d66 08       		.byte	0x8
 2037 0d67 10       		.byte	0x10
 2038 0d68 2F01     		.2byte	0x12f
 2039 0d6a 8D0D0000 		.4byte	0xd8d
ARM GAS  C:\Users\DNIEL~1\AppData\Local\Temp\cc7q1ApJ.s 			page 37


 2040 0d6e 16       		.uleb128 0x16
 2041 0d6f FA050000 		.4byte	.LASF150
 2042 0d73 10       		.byte	0x10
 2043 0d74 3301     		.2byte	0x133
 2044 0d76 4D0D0000 		.4byte	0xd4d
 2045 0d7a 02       		.byte	0x2
 2046 0d7b 23       		.byte	0x23
 2047 0d7c 00       		.uleb128 0
 2048 0d7d 16       		.uleb128 0x16
 2049 0d7e F4020000 		.4byte	.LASF151
 2050 0d82 10       		.byte	0x10
 2051 0d83 3901     		.2byte	0x139
 2052 0d85 D60B0000 		.4byte	0xbd6
 2053 0d89 02       		.byte	0x2
 2054 0d8a 23       		.byte	0x23
 2055 0d8b 04       		.uleb128 0x4
 2056 0d8c 00       		.byte	0
 2057 0d8d 17       		.uleb128 0x17
 2058 0d8e 56060000 		.4byte	.LASF152
 2059 0d92 10       		.byte	0x10
 2060 0d93 3B01     		.2byte	0x13b
 2061 0d95 650D0000 		.4byte	0xd65
 2062 0d99 15       		.uleb128 0x15
 2063 0d9a 34       		.byte	0x34
 2064 0d9b 10       		.byte	0x10
 2065 0d9c 4001     		.2byte	0x140
 2066 0d9e FD0D0000 		.4byte	0xdfd
 2067 0da2 16       		.uleb128 0x16
 2068 0da3 D2020000 		.4byte	.LASF153
 2069 0da7 10       		.byte	0x10
 2070 0da8 4601     		.2byte	0x146
 2071 0daa B6000000 		.4byte	0xb6
 2072 0dae 02       		.byte	0x2
 2073 0daf 23       		.byte	0x23
 2074 0db0 00       		.uleb128 0
 2075 0db1 16       		.uleb128 0x16
 2076 0db2 56000000 		.4byte	.LASF134
 2077 0db6 10       		.byte	0x10
 2078 0db7 4C01     		.2byte	0x14c
 2079 0db9 590D0000 		.4byte	0xd59
 2080 0dbd 02       		.byte	0x2
 2081 0dbe 23       		.byte	0x23
 2082 0dbf 04       		.uleb128 0x4
 2083 0dc0 16       		.uleb128 0x16
 2084 0dc1 F4020000 		.4byte	.LASF151
 2085 0dc5 10       		.byte	0x10
 2086 0dc6 5201     		.2byte	0x152
 2087 0dc8 D60B0000 		.4byte	0xbd6
 2088 0dcc 02       		.byte	0x2
 2089 0dcd 23       		.byte	0x23
 2090 0dce 08       		.uleb128 0x8
 2091 0dcf 16       		.uleb128 0x16
 2092 0dd0 14010000 		.4byte	.LASF154
 2093 0dd4 10       		.byte	0x10
 2094 0dd5 5601     		.2byte	0x156
 2095 0dd7 FD0D0000 		.4byte	0xdfd
 2096 0ddb 02       		.byte	0x2
ARM GAS  C:\Users\DNIEL~1\AppData\Local\Temp\cc7q1ApJ.s 			page 38


 2097 0ddc 23       		.byte	0x23
 2098 0ddd 0C       		.uleb128 0xc
 2099 0dde 0D       		.uleb128 0xd
 2100 0ddf 63723200 		.ascii	"cr2\000"
 2101 0de3 10       		.byte	0x10
 2102 0de4 5C01     		.2byte	0x15c
 2103 0de6 B6000000 		.4byte	0xb6
 2104 0dea 02       		.byte	0x2
 2105 0deb 23       		.byte	0x23
 2106 0dec 2C       		.uleb128 0x2c
 2107 0ded 16       		.uleb128 0x16
 2108 0dee 84070000 		.4byte	.LASF155
 2109 0df2 10       		.byte	0x10
 2110 0df3 6901     		.2byte	0x169
 2111 0df5 B6000000 		.4byte	0xb6
 2112 0df9 02       		.byte	0x2
 2113 0dfa 23       		.byte	0x23
 2114 0dfb 30       		.uleb128 0x30
 2115 0dfc 00       		.byte	0
 2116 0dfd 13       		.uleb128 0x13
 2117 0dfe 8D0D0000 		.4byte	0xd8d
 2118 0e02 0D0E0000 		.4byte	0xe0d
 2119 0e06 14       		.uleb128 0x14
 2120 0e07 73000000 		.4byte	0x73
 2121 0e0b 03       		.byte	0x3
 2122 0e0c 00       		.byte	0
 2123 0e0d 17       		.uleb128 0x17
 2124 0e0e D0050000 		.4byte	.LASF156
 2125 0e12 10       		.byte	0x10
 2126 0e13 6A01     		.2byte	0x16a
 2127 0e15 990D0000 		.4byte	0xd99
 2128 0e19 06       		.uleb128 0x6
 2129 0e1a 04       		.byte	0x4
 2130 0e1b 1F0E0000 		.4byte	0xe1f
 2131 0e1f 07       		.uleb128 0x7
 2132 0e20 0D0E0000 		.4byte	0xe0d
 2133 0e24 06       		.uleb128 0x6
 2134 0e25 04       		.byte	0x4
 2135 0e26 410D0000 		.4byte	0xd41
 2136 0e2a 03       		.uleb128 0x3
 2137 0e2b 08       		.byte	0x8
 2138 0e2c 04       		.byte	0x4
 2139 0e2d A0010000 		.4byte	.LASF157
 2140 0e31 03       		.uleb128 0x3
 2141 0e32 04       		.byte	0x4
 2142 0e33 04       		.byte	0x4
 2143 0e34 70040000 		.4byte	.LASF158
 2144 0e38 03       		.uleb128 0x3
 2145 0e39 08       		.byte	0x8
 2146 0e3a 04       		.byte	0x4
 2147 0e3b 7E030000 		.4byte	.LASF159
 2148 0e3f 1F       		.uleb128 0x1f
 2149 0e40 65030000 		.4byte	.LASF166
 2150 0e44 01       		.byte	0x1
 2151 0e45 01       		.byte	0x1
 2152 0e46 0E       		.byte	0xe
 2153 0e47 700E0000 		.4byte	0xe70
ARM GAS  C:\Users\DNIEL~1\AppData\Local\Temp\cc7q1ApJ.s 			page 39


 2154 0e4b 1A       		.uleb128 0x1a
 2155 0e4c 6E030000 		.4byte	.LASF160
 2156 0e50 00       		.sleb128 0
 2157 0e51 1A       		.uleb128 0x1a
 2158 0e52 F0060000 		.4byte	.LASF161
 2159 0e56 01       		.sleb128 1
 2160 0e57 1A       		.uleb128 0x1a
 2161 0e58 02070000 		.4byte	.LASF162
 2162 0e5c 02       		.sleb128 2
 2163 0e5d 1A       		.uleb128 0x1a
 2164 0e5e 98020000 		.4byte	.LASF163
 2165 0e62 03       		.sleb128 3
 2166 0e63 1A       		.uleb128 0x1a
 2167 0e64 B2030000 		.4byte	.LASF164
 2168 0e68 04       		.sleb128 4
 2169 0e69 1A       		.uleb128 0x1a
 2170 0e6a C2010000 		.4byte	.LASF165
 2171 0e6e 05       		.sleb128 5
 2172 0e6f 00       		.byte	0
 2173 0e70 1F       		.uleb128 0x1f
 2174 0e71 A7010000 		.4byte	.LASF167
 2175 0e75 04       		.byte	0x4
 2176 0e76 01       		.byte	0x1
 2177 0e77 18       		.byte	0x18
 2178 0e78 980E0000 		.4byte	0xe98
 2179 0e7c 1A       		.uleb128 0x1a
 2180 0e7d 69070000 		.4byte	.LASF168
 2181 0e81 E78A8D09 		.sleb128 19088743
 2182 0e85 1A       		.uleb128 0x1a
 2183 0e86 83000000 		.4byte	.LASF169
 2184 0e8a 91A2C408 		.sleb128 17895697
 2185 0e8e 1A       		.uleb128 0x1a
 2186 0e8f 42060000 		.4byte	.LASF170
 2187 0e93 92A2C408 		.sleb128 17895698
 2188 0e97 00       		.byte	0
 2189 0e98 06       		.uleb128 0x6
 2190 0e99 04       		.byte	0x4
 2191 0e9a 400B0000 		.4byte	0xb40
 2192 0e9e 20       		.uleb128 0x20
 2193 0e9f 37030000 		.4byte	.LASF194
 2194 0ea3 01       		.byte	0x1
 2195 0ea4 3E       		.byte	0x3e
 2196 0ea5 01       		.byte	0x1
 2197 0ea6 0A010000 		.4byte	0x10a
 2198 0eaa 00000000 		.4byte	.LFB119
 2199 0eae 74000000 		.4byte	.LFE119
 2200 0eb2 00000000 		.4byte	.LLST0
 2201 0eb6 01       		.byte	0x1
 2202 0eb7 520F0000 		.4byte	0xf52
 2203 0ebb 21       		.uleb128 0x21
 2204 0ebc 7000     		.ascii	"p\000"
 2205 0ebe 01       		.byte	0x1
 2206 0ebf 3E       		.byte	0x3e
 2207 0ec0 7A000000 		.4byte	0x7a
 2208 0ec4 2C000000 		.4byte	.LLST1
 2209 0ec8 22       		.uleb128 0x22
 2210 0ec9 656C00   		.ascii	"el\000"
ARM GAS  C:\Users\DNIEL~1\AppData\Local\Temp\cc7q1ApJ.s 			page 40


 2211 0ecc 01       		.byte	0x1
 2212 0ecd 3F       		.byte	0x3f
 2213 0ece 7E040000 		.4byte	0x47e
 2214 0ed2 02       		.byte	0x2
 2215 0ed3 91       		.byte	0x91
 2216 0ed4 60       		.sleb128 -32
 2217 0ed5 23       		.uleb128 0x23
 2218 0ed6 6900     		.ascii	"i\000"
 2219 0ed8 01       		.byte	0x1
 2220 0ed9 40       		.byte	0x40
 2221 0eda 57000000 		.4byte	0x57
 2222 0ede 23       		.uleb128 0x23
 2223 0edf 7A00     		.ascii	"z\000"
 2224 0ee1 01       		.byte	0x1
 2225 0ee2 41       		.byte	0x41
 2226 0ee3 57000000 		.4byte	0x57
 2227 0ee7 24       		.uleb128 0x24
 2228 0ee8 16000000 		.4byte	.LVL2
 2229 0eec 8E100000 		.4byte	0x108e
 2230 0ef0 000F0000 		.4byte	0xf00
 2231 0ef4 25       		.uleb128 0x25
 2232 0ef5 01       		.byte	0x1
 2233 0ef6 52       		.byte	0x52
 2234 0ef7 01       		.byte	0x1
 2235 0ef8 31       		.byte	0x31
 2236 0ef9 25       		.uleb128 0x25
 2237 0efa 01       		.byte	0x1
 2238 0efb 51       		.byte	0x51
 2239 0efc 02       		.byte	0x2
 2240 0efd 7D       		.byte	0x7d
 2241 0efe 00       		.sleb128 0
 2242 0eff 00       		.byte	0
 2243 0f00 24       		.uleb128 0x24
 2244 0f01 2E000000 		.4byte	.LVL3
 2245 0f05 B2100000 		.4byte	0x10b2
 2246 0f09 1A0F0000 		.4byte	0xf1a
 2247 0f0d 25       		.uleb128 0x25
 2248 0f0e 01       		.byte	0x1
 2249 0f0f 51       		.byte	0x51
 2250 0f10 02       		.byte	0x2
 2251 0f11 08       		.byte	0x8
 2252 0f12 64       		.byte	0x64
 2253 0f13 25       		.uleb128 0x25
 2254 0f14 01       		.byte	0x1
 2255 0f15 50       		.byte	0x50
 2256 0f16 02       		.byte	0x2
 2257 0f17 09       		.byte	0x9
 2258 0f18 FF       		.byte	0xff
 2259 0f19 00       		.byte	0
 2260 0f1a 26       		.uleb128 0x26
 2261 0f1b 3E000000 		.4byte	.LVL4
 2262 0f1f CF100000 		.4byte	0x10cf
 2263 0f23 24       		.uleb128 0x24
 2264 0f24 4A000000 		.4byte	.LVL5
 2265 0f28 E3100000 		.4byte	0x10e3
 2266 0f2c 410F0000 		.4byte	0xf41
 2267 0f30 25       		.uleb128 0x25
ARM GAS  C:\Users\DNIEL~1\AppData\Local\Temp\cc7q1ApJ.s 			page 41


 2268 0f31 01       		.byte	0x1
 2269 0f32 53       		.byte	0x53
 2270 0f33 01       		.byte	0x1
 2271 0f34 30       		.byte	0x30
 2272 0f35 25       		.uleb128 0x25
 2273 0f36 01       		.byte	0x1
 2274 0f37 52       		.byte	0x52
 2275 0f38 02       		.byte	0x2
 2276 0f39 74       		.byte	0x74
 2277 0f3a 00       		.sleb128 0
 2278 0f3b 25       		.uleb128 0x25
 2279 0f3c 01       		.byte	0x1
 2280 0f3d 51       		.byte	0x51
 2281 0f3e 01       		.byte	0x1
 2282 0f3f 30       		.byte	0x30
 2283 0f40 00       		.byte	0
 2284 0f41 27       		.uleb128 0x27
 2285 0f42 58000000 		.4byte	.LVL6
 2286 0f46 10110000 		.4byte	0x1110
 2287 0f4a 25       		.uleb128 0x25
 2288 0f4b 01       		.byte	0x1
 2289 0f4c 51       		.byte	0x51
 2290 0f4d 02       		.byte	0x2
 2291 0f4e 7D       		.byte	0x7d
 2292 0f4f 00       		.sleb128 0
 2293 0f50 00       		.byte	0
 2294 0f51 00       		.byte	0
 2295 0f52 28       		.uleb128 0x28
 2296 0f53 01       		.byte	0x1
 2297 0f54 84040000 		.4byte	.LASF195
 2298 0f58 01       		.byte	0x1
 2299 0f59 6C       		.byte	0x6c
 2300 0f5a 01       		.byte	0x1
 2301 0f5b 00000000 		.4byte	.LFB121
 2302 0f5f 3A000000 		.4byte	.LFE121
 2303 0f63 4D000000 		.4byte	.LLST2
 2304 0f67 01       		.byte	0x1
 2305 0f68 B30F0000 		.4byte	0xfb3
 2306 0f6c 24       		.uleb128 0x24
 2307 0f6d 18000000 		.4byte	.LVL7
 2308 0f71 29110000 		.4byte	0x1129
 2309 0f75 830F0000 		.4byte	0xf83
 2310 0f79 25       		.uleb128 0x25
 2311 0f7a 01       		.byte	0x1
 2312 0f7b 51       		.byte	0x51
 2313 0f7c 05       		.byte	0x5
 2314 0f7d 03       		.byte	0x3
 2315 0f7e 00000000 		.4byte	.LANCHOR1
 2316 0f82 00       		.byte	0
 2317 0f83 27       		.uleb128 0x27
 2318 0f84 36000000 		.4byte	.LVL8
 2319 0f88 42110000 		.4byte	0x1142
 2320 0f8c 25       		.uleb128 0x25
 2321 0f8d 01       		.byte	0x1
 2322 0f8e 53       		.byte	0x53
 2323 0f8f 05       		.byte	0x5
 2324 0f90 03       		.byte	0x3
ARM GAS  C:\Users\DNIEL~1\AppData\Local\Temp\cc7q1ApJ.s 			page 42


 2325 0f91 00000000 		.4byte	can_rx
 2326 0f95 25       		.uleb128 0x25
 2327 0f96 01       		.byte	0x1
 2328 0f97 52       		.byte	0x52
 2329 0f98 02       		.byte	0x2
 2330 0f99 08       		.byte	0x8
 2331 0f9a 40       		.byte	0x40
 2332 0f9b 25       		.uleb128 0x25
 2333 0f9c 01       		.byte	0x1
 2334 0f9d 51       		.byte	0x51
 2335 0f9e 03       		.byte	0x3
 2336 0f9f 0A       		.byte	0xa
 2337 0fa0 D001     		.2byte	0x1d0
 2338 0fa2 25       		.uleb128 0x25
 2339 0fa3 01       		.byte	0x1
 2340 0fa4 50       		.byte	0x50
 2341 0fa5 05       		.byte	0x5
 2342 0fa6 03       		.byte	0x3
 2343 0fa7 00000000 		.4byte	.LANCHOR2
 2344 0fab 25       		.uleb128 0x25
 2345 0fac 02       		.byte	0x2
 2346 0fad 7D       		.byte	0x7d
 2347 0fae 00       		.sleb128 0
 2348 0faf 01       		.byte	0x1
 2349 0fb0 30       		.byte	0x30
 2350 0fb1 00       		.byte	0
 2351 0fb2 00       		.byte	0
 2352 0fb3 29       		.uleb128 0x29
 2353 0fb4 52070000 		.4byte	.LASF171
 2354 0fb8 12       		.byte	0x12
 2355 0fb9 11       		.byte	0x11
 2356 0fba 57000000 		.4byte	0x57
 2357 0fbe 00       		.byte	0
 2358 0fbf 2A       		.uleb128 0x2a
 2359 0fc0 5D000000 		.4byte	.LASF172
 2360 0fc4 01       		.byte	0x1
 2361 0fc5 1F       		.byte	0x1f
 2362 0fc6 4C090000 		.4byte	0x94c
 2363 0fca 2B       		.uleb128 0x2b
 2364 0fcb 00000000 		.4byte	.LASF173
 2365 0fcf 01       		.byte	0x1
 2366 0fd0 20       		.byte	0x20
 2367 0fd1 520A0000 		.4byte	0xa52
 2368 0fd5 05       		.byte	0x5
 2369 0fd6 03       		.byte	0x3
 2370 0fd7 00000000 		.4byte	rxmsg
 2371 0fdb 2B       		.uleb128 0x2b
 2372 0fdc 94030000 		.4byte	.LASF174
 2373 0fe0 01       		.byte	0x1
 2374 0fe1 22       		.byte	0x22
 2375 0fe2 350B0000 		.4byte	0xb35
 2376 0fe6 05       		.byte	0x5
 2377 0fe7 03       		.byte	0x3
 2378 0fe8 00000000 		.4byte	cancfg
 2379 0fec 13       		.uleb128 0x13
 2380 0fed D4020000 		.4byte	0x2d4
 2381 0ff1 FC0F0000 		.4byte	0xffc
ARM GAS  C:\Users\DNIEL~1\AppData\Local\Temp\cc7q1ApJ.s 			page 43


 2382 0ff5 14       		.uleb128 0x14
 2383 0ff6 73000000 		.4byte	0x73
 2384 0ffa 29       		.byte	0x29
 2385 0ffb 00       		.byte	0
 2386 0ffc 2A       		.uleb128 0x2a
 2387 0ffd 45010000 		.4byte	.LASF175
 2388 1001 01       		.byte	0x1
 2389 1002 32       		.byte	0x32
 2390 1003 EC0F0000 		.4byte	0xfec
 2391 1007 13       		.uleb128 0x13
 2392 1008 D4020000 		.4byte	0x2d4
 2393 100c 17100000 		.4byte	0x1017
 2394 1010 14       		.uleb128 0x14
 2395 1011 73000000 		.4byte	0x73
 2396 1015 39       		.byte	0x39
 2397 1016 00       		.byte	0
 2398 1017 2B       		.uleb128 0x2b
 2399 1018 34020000 		.4byte	.LASF176
 2400 101c 01       		.byte	0x1
 2401 101d 3D       		.byte	0x3d
 2402 101e 07100000 		.4byte	0x1007
 2403 1022 05       		.byte	0x5
 2404 1023 03       		.byte	0x3
 2405 1024 00000000 		.4byte	can_rx_wa
 2406 1028 2A       		.uleb128 0x2a
 2407 1029 92050000 		.4byte	.LASF177
 2408 102d 01       		.byte	0x1
 2409 102e 57       		.byte	0x57
 2410 102f 07100000 		.4byte	0x1007
 2411 1033 2C       		.uleb128 0x2c
 2412 1034 D2060000 		.4byte	.LASF178
 2413 1038 08       		.byte	0x8
 2414 1039 6F       		.byte	0x6f
 2415 103a F7030000 		.4byte	0x3f7
 2416 103e 01       		.byte	0x1
 2417 103f 01       		.byte	0x1
 2418 1040 2D       		.uleb128 0x2d
 2419 1041 2D050000 		.4byte	.LASF179
 2420 1045 13       		.byte	0x13
 2421 1046 9806     		.2byte	0x698
 2422 1048 86050000 		.4byte	0x586
 2423 104c 01       		.byte	0x1
 2424 104d 01       		.byte	0x1
 2425 104e 2D       		.uleb128 0x2d
 2426 104f 51020000 		.4byte	.LASF180
 2427 1053 0E       		.byte	0xe
 2428 1054 4B01     		.2byte	0x14b
 2429 1056 400B0000 		.4byte	0xb40
 2430 105a 01       		.byte	0x1
 2431 105b 01       		.byte	0x1
 2432 105c 2D       		.uleb128 0x2d
 2433 105d FE000000 		.4byte	.LASF181
 2434 1061 10       		.byte	0x10
 2435 1062 B301     		.2byte	0x1b3
 2436 1064 720B0000 		.4byte	0xb72
 2437 1068 01       		.byte	0x1
 2438 1069 01       		.byte	0x1
ARM GAS  C:\Users\DNIEL~1\AppData\Local\Temp\cc7q1ApJ.s 			page 44


 2439 106a 2E       		.uleb128 0x2e
 2440 106b 10060000 		.4byte	.LASF182
 2441 106f 01       		.byte	0x1
 2442 1070 16       		.byte	0x16
 2443 1071 3F0E0000 		.4byte	0xe3f
 2444 1075 01       		.byte	0x1
 2445 1076 05       		.byte	0x5
 2446 1077 03       		.byte	0x3
 2447 1078 00000000 		.4byte	canstate
 2448 107c 2E       		.uleb128 0x2e
 2449 107d 57020000 		.4byte	.LASF183
 2450 1081 01       		.byte	0x1
 2451 1082 1D       		.byte	0x1d
 2452 1083 700E0000 		.4byte	0xe70
 2453 1087 01       		.byte	0x1
 2454 1088 05       		.byte	0x5
 2455 1089 03       		.byte	0x3
 2456 108a 00000000 		.4byte	canuzenet
 2457 108e 2F       		.uleb128 0x2f
 2458 108f 01       		.byte	0x1
 2459 1090 BA020000 		.4byte	.LASF184
 2460 1094 0B       		.byte	0xb
 2461 1095 AF       		.byte	0xaf
 2462 1096 01       		.byte	0x1
 2463 1097 01       		.byte	0x1
 2464 1098 AC100000 		.4byte	0x10ac
 2465 109c 12       		.uleb128 0x12
 2466 109d AC100000 		.4byte	0x10ac
 2467 10a1 12       		.uleb128 0x12
 2468 10a2 CE040000 		.4byte	0x4ce
 2469 10a6 12       		.uleb128 0x12
 2470 10a7 15010000 		.4byte	0x115
 2471 10ab 00       		.byte	0
 2472 10ac 06       		.uleb128 0x6
 2473 10ad 04       		.byte	0x4
 2474 10ae EF040000 		.4byte	0x4ef
 2475 10b2 30       		.uleb128 0x30
 2476 10b3 01       		.byte	0x1
 2477 10b4 9A000000 		.4byte	.LASF186
 2478 10b8 0B       		.byte	0xb
 2479 10b9 C3       		.byte	0xc3
 2480 10ba 01       		.byte	0x1
 2481 10bb 15010000 		.4byte	0x115
 2482 10bf 01       		.byte	0x1
 2483 10c0 CF100000 		.4byte	0x10cf
 2484 10c4 12       		.uleb128 0x12
 2485 10c5 15010000 		.4byte	0x115
 2486 10c9 12       		.uleb128 0x12
 2487 10ca 2B010000 		.4byte	0x12b
 2488 10ce 00       		.byte	0
 2489 10cf 2F       		.uleb128 0x2f
 2490 10d0 01       		.byte	0x1
 2491 10d1 61020000 		.4byte	.LASF185
 2492 10d5 12       		.byte	0x12
 2493 10d6 10       		.byte	0x10
 2494 10d7 01       		.byte	0x1
 2495 10d8 01       		.byte	0x1
ARM GAS  C:\Users\DNIEL~1\AppData\Local\Temp\cc7q1ApJ.s 			page 45


 2496 10d9 E3100000 		.4byte	0x10e3
 2497 10dd 12       		.uleb128 0x12
 2498 10de B6000000 		.4byte	0xb6
 2499 10e2 00       		.byte	0
 2500 10e3 30       		.uleb128 0x30
 2501 10e4 01       		.byte	0x1
 2502 10e5 AE000000 		.4byte	.LASF187
 2503 10e9 0D       		.byte	0xd
 2504 10ea 95       		.byte	0x95
 2505 10eb 01       		.byte	0x1
 2506 10ec 0A010000 		.4byte	0x10a
 2507 10f0 01       		.byte	0x1
 2508 10f1 0A110000 		.4byte	0x110a
 2509 10f5 12       		.uleb128 0x12
 2510 10f6 980E0000 		.4byte	0xe98
 2511 10fa 12       		.uleb128 0x12
 2512 10fb 53080000 		.4byte	0x853
 2513 10ff 12       		.uleb128 0x12
 2514 1100 0A110000 		.4byte	0x110a
 2515 1104 12       		.uleb128 0x12
 2516 1105 2B010000 		.4byte	0x12b
 2517 1109 00       		.byte	0
 2518 110a 06       		.uleb128 0x6
 2519 110b 04       		.byte	0x4
 2520 110c 520A0000 		.4byte	0xa52
 2521 1110 2F       		.uleb128 0x2f
 2522 1111 01       		.byte	0x1
 2523 1112 E4020000 		.4byte	.LASF188
 2524 1116 0B       		.byte	0xb
 2525 1117 B2       		.byte	0xb2
 2526 1118 01       		.byte	0x1
 2527 1119 01       		.byte	0x1
 2528 111a 29110000 		.4byte	0x1129
 2529 111e 12       		.uleb128 0x12
 2530 111f AC100000 		.4byte	0x10ac
 2531 1123 12       		.uleb128 0x12
 2532 1124 CE040000 		.4byte	0x4ce
 2533 1128 00       		.byte	0
 2534 1129 2F       		.uleb128 0x2f
 2535 112a 01       		.byte	0x1
 2536 112b EA010000 		.4byte	.LASF189
 2537 112f 0D       		.byte	0xd
 2538 1130 8F       		.byte	0x8f
 2539 1131 01       		.byte	0x1
 2540 1132 01       		.byte	0x1
 2541 1133 42110000 		.4byte	0x1142
 2542 1137 12       		.uleb128 0x12
 2543 1138 980E0000 		.4byte	0xe98
 2544 113c 12       		.uleb128 0x12
 2545 113d 2F0B0000 		.4byte	0xb2f
 2546 1141 00       		.byte	0
 2547 1142 31       		.uleb128 0x31
 2548 1143 01       		.byte	0x1
 2549 1144 49030000 		.4byte	.LASF190
 2550 1148 06       		.byte	0x6
 2551 1149 7001     		.2byte	0x170
 2552 114b 01       		.byte	0x1
ARM GAS  C:\Users\DNIEL~1\AppData\Local\Temp\cc7q1ApJ.s 			page 46


 2553 114c 96020000 		.4byte	0x296
 2554 1150 01       		.byte	0x1
 2555 1151 12       		.uleb128 0x12
 2556 1152 7A000000 		.4byte	0x7a
 2557 1156 12       		.uleb128 0x12
 2558 1157 29000000 		.4byte	0x29
 2559 115b 12       		.uleb128 0x12
 2560 115c FF000000 		.4byte	0xff
 2561 1160 12       		.uleb128 0x12
 2562 1161 35050000 		.4byte	0x535
 2563 1165 12       		.uleb128 0x12
 2564 1166 7A000000 		.4byte	0x7a
 2565 116a 00       		.byte	0
 2566 116b 00       		.byte	0
 2567              		.section	.debug_abbrev,"",%progbits
 2568              	.Ldebug_abbrev0:
 2569 0000 01       		.uleb128 0x1
 2570 0001 11       		.uleb128 0x11
 2571 0002 01       		.byte	0x1
 2572 0003 25       		.uleb128 0x25
 2573 0004 0E       		.uleb128 0xe
 2574 0005 13       		.uleb128 0x13
 2575 0006 0B       		.uleb128 0xb
 2576 0007 03       		.uleb128 0x3
 2577 0008 0E       		.uleb128 0xe
 2578 0009 1B       		.uleb128 0x1b
 2579 000a 0E       		.uleb128 0xe
 2580 000b 55       		.uleb128 0x55
 2581 000c 06       		.uleb128 0x6
 2582 000d 11       		.uleb128 0x11
 2583 000e 01       		.uleb128 0x1
 2584 000f 52       		.uleb128 0x52
 2585 0010 01       		.uleb128 0x1
 2586 0011 10       		.uleb128 0x10
 2587 0012 06       		.uleb128 0x6
 2588 0013 00       		.byte	0
 2589 0014 00       		.byte	0
 2590 0015 02       		.uleb128 0x2
 2591 0016 16       		.uleb128 0x16
 2592 0017 00       		.byte	0
 2593 0018 03       		.uleb128 0x3
 2594 0019 0E       		.uleb128 0xe
 2595 001a 3A       		.uleb128 0x3a
 2596 001b 0B       		.uleb128 0xb
 2597 001c 3B       		.uleb128 0x3b
 2598 001d 0B       		.uleb128 0xb
 2599 001e 49       		.uleb128 0x49
 2600 001f 13       		.uleb128 0x13
 2601 0020 00       		.byte	0
 2602 0021 00       		.byte	0
 2603 0022 03       		.uleb128 0x3
 2604 0023 24       		.uleb128 0x24
 2605 0024 00       		.byte	0
 2606 0025 0B       		.uleb128 0xb
 2607 0026 0B       		.uleb128 0xb
 2608 0027 3E       		.uleb128 0x3e
 2609 0028 0B       		.uleb128 0xb
ARM GAS  C:\Users\DNIEL~1\AppData\Local\Temp\cc7q1ApJ.s 			page 47


 2610 0029 03       		.uleb128 0x3
 2611 002a 0E       		.uleb128 0xe
 2612 002b 00       		.byte	0
 2613 002c 00       		.byte	0
 2614 002d 04       		.uleb128 0x4
 2615 002e 24       		.uleb128 0x24
 2616 002f 00       		.byte	0
 2617 0030 0B       		.uleb128 0xb
 2618 0031 0B       		.uleb128 0xb
 2619 0032 3E       		.uleb128 0x3e
 2620 0033 0B       		.uleb128 0xb
 2621 0034 03       		.uleb128 0x3
 2622 0035 08       		.uleb128 0x8
 2623 0036 00       		.byte	0
 2624 0037 00       		.byte	0
 2625 0038 05       		.uleb128 0x5
 2626 0039 0F       		.uleb128 0xf
 2627 003a 00       		.byte	0
 2628 003b 0B       		.uleb128 0xb
 2629 003c 0B       		.uleb128 0xb
 2630 003d 00       		.byte	0
 2631 003e 00       		.byte	0
 2632 003f 06       		.uleb128 0x6
 2633 0040 0F       		.uleb128 0xf
 2634 0041 00       		.byte	0
 2635 0042 0B       		.uleb128 0xb
 2636 0043 0B       		.uleb128 0xb
 2637 0044 49       		.uleb128 0x49
 2638 0045 13       		.uleb128 0x13
 2639 0046 00       		.byte	0
 2640 0047 00       		.byte	0
 2641 0048 07       		.uleb128 0x7
 2642 0049 26       		.uleb128 0x26
 2643 004a 00       		.byte	0
 2644 004b 49       		.uleb128 0x49
 2645 004c 13       		.uleb128 0x13
 2646 004d 00       		.byte	0
 2647 004e 00       		.byte	0
 2648 004f 08       		.uleb128 0x8
 2649 0050 13       		.uleb128 0x13
 2650 0051 01       		.byte	0x1
 2651 0052 03       		.uleb128 0x3
 2652 0053 0E       		.uleb128 0xe
 2653 0054 0B       		.uleb128 0xb
 2654 0055 0B       		.uleb128 0xb
 2655 0056 3A       		.uleb128 0x3a
 2656 0057 0B       		.uleb128 0xb
 2657 0058 3B       		.uleb128 0x3b
 2658 0059 0B       		.uleb128 0xb
 2659 005a 01       		.uleb128 0x1
 2660 005b 13       		.uleb128 0x13
 2661 005c 00       		.byte	0
 2662 005d 00       		.byte	0
 2663 005e 09       		.uleb128 0x9
 2664 005f 0D       		.uleb128 0xd
 2665 0060 00       		.byte	0
 2666 0061 03       		.uleb128 0x3
ARM GAS  C:\Users\DNIEL~1\AppData\Local\Temp\cc7q1ApJ.s 			page 48


 2667 0062 0E       		.uleb128 0xe
 2668 0063 3A       		.uleb128 0x3a
 2669 0064 0B       		.uleb128 0xb
 2670 0065 3B       		.uleb128 0x3b
 2671 0066 0B       		.uleb128 0xb
 2672 0067 49       		.uleb128 0x49
 2673 0068 13       		.uleb128 0x13
 2674 0069 38       		.uleb128 0x38
 2675 006a 0A       		.uleb128 0xa
 2676 006b 00       		.byte	0
 2677 006c 00       		.byte	0
 2678 006d 0A       		.uleb128 0xa
 2679 006e 0D       		.uleb128 0xd
 2680 006f 00       		.byte	0
 2681 0070 03       		.uleb128 0x3
 2682 0071 08       		.uleb128 0x8
 2683 0072 3A       		.uleb128 0x3a
 2684 0073 0B       		.uleb128 0xb
 2685 0074 3B       		.uleb128 0x3b
 2686 0075 0B       		.uleb128 0xb
 2687 0076 49       		.uleb128 0x49
 2688 0077 13       		.uleb128 0x13
 2689 0078 38       		.uleb128 0x38
 2690 0079 0A       		.uleb128 0xa
 2691 007a 00       		.byte	0
 2692 007b 00       		.byte	0
 2693 007c 0B       		.uleb128 0xb
 2694 007d 13       		.uleb128 0x13
 2695 007e 01       		.byte	0x1
 2696 007f 0B       		.uleb128 0xb
 2697 0080 0B       		.uleb128 0xb
 2698 0081 3A       		.uleb128 0x3a
 2699 0082 0B       		.uleb128 0xb
 2700 0083 3B       		.uleb128 0x3b
 2701 0084 0B       		.uleb128 0xb
 2702 0085 01       		.uleb128 0x1
 2703 0086 13       		.uleb128 0x13
 2704 0087 00       		.byte	0
 2705 0088 00       		.byte	0
 2706 0089 0C       		.uleb128 0xc
 2707 008a 13       		.uleb128 0x13
 2708 008b 01       		.byte	0x1
 2709 008c 03       		.uleb128 0x3
 2710 008d 0E       		.uleb128 0xe
 2711 008e 0B       		.uleb128 0xb
 2712 008f 0B       		.uleb128 0xb
 2713 0090 3A       		.uleb128 0x3a
 2714 0091 0B       		.uleb128 0xb
 2715 0092 3B       		.uleb128 0x3b
 2716 0093 05       		.uleb128 0x5
 2717 0094 01       		.uleb128 0x1
 2718 0095 13       		.uleb128 0x13
 2719 0096 00       		.byte	0
 2720 0097 00       		.byte	0
 2721 0098 0D       		.uleb128 0xd
 2722 0099 0D       		.uleb128 0xd
 2723 009a 00       		.byte	0
ARM GAS  C:\Users\DNIEL~1\AppData\Local\Temp\cc7q1ApJ.s 			page 49


 2724 009b 03       		.uleb128 0x3
 2725 009c 08       		.uleb128 0x8
 2726 009d 3A       		.uleb128 0x3a
 2727 009e 0B       		.uleb128 0xb
 2728 009f 3B       		.uleb128 0x3b
 2729 00a0 05       		.uleb128 0x5
 2730 00a1 49       		.uleb128 0x49
 2731 00a2 13       		.uleb128 0x13
 2732 00a3 38       		.uleb128 0x38
 2733 00a4 0A       		.uleb128 0xa
 2734 00a5 00       		.byte	0
 2735 00a6 00       		.byte	0
 2736 00a7 0E       		.uleb128 0xe
 2737 00a8 35       		.uleb128 0x35
 2738 00a9 00       		.byte	0
 2739 00aa 49       		.uleb128 0x49
 2740 00ab 13       		.uleb128 0x13
 2741 00ac 00       		.byte	0
 2742 00ad 00       		.byte	0
 2743 00ae 0F       		.uleb128 0xf
 2744 00af 17       		.uleb128 0x17
 2745 00b0 01       		.byte	0x1
 2746 00b1 0B       		.uleb128 0xb
 2747 00b2 0B       		.uleb128 0xb
 2748 00b3 3A       		.uleb128 0x3a
 2749 00b4 0B       		.uleb128 0xb
 2750 00b5 3B       		.uleb128 0x3b
 2751 00b6 0B       		.uleb128 0xb
 2752 00b7 01       		.uleb128 0x1
 2753 00b8 13       		.uleb128 0x13
 2754 00b9 00       		.byte	0
 2755 00ba 00       		.byte	0
 2756 00bb 10       		.uleb128 0x10
 2757 00bc 0D       		.uleb128 0xd
 2758 00bd 00       		.byte	0
 2759 00be 03       		.uleb128 0x3
 2760 00bf 0E       		.uleb128 0xe
 2761 00c0 3A       		.uleb128 0x3a
 2762 00c1 0B       		.uleb128 0xb
 2763 00c2 3B       		.uleb128 0x3b
 2764 00c3 0B       		.uleb128 0xb
 2765 00c4 49       		.uleb128 0x49
 2766 00c5 13       		.uleb128 0x13
 2767 00c6 00       		.byte	0
 2768 00c7 00       		.byte	0
 2769 00c8 11       		.uleb128 0x11
 2770 00c9 15       		.uleb128 0x15
 2771 00ca 01       		.byte	0x1
 2772 00cb 27       		.uleb128 0x27
 2773 00cc 0C       		.uleb128 0xc
 2774 00cd 49       		.uleb128 0x49
 2775 00ce 13       		.uleb128 0x13
 2776 00cf 01       		.uleb128 0x1
 2777 00d0 13       		.uleb128 0x13
 2778 00d1 00       		.byte	0
 2779 00d2 00       		.byte	0
 2780 00d3 12       		.uleb128 0x12
ARM GAS  C:\Users\DNIEL~1\AppData\Local\Temp\cc7q1ApJ.s 			page 50


 2781 00d4 05       		.uleb128 0x5
 2782 00d5 00       		.byte	0
 2783 00d6 49       		.uleb128 0x49
 2784 00d7 13       		.uleb128 0x13
 2785 00d8 00       		.byte	0
 2786 00d9 00       		.byte	0
 2787 00da 13       		.uleb128 0x13
 2788 00db 01       		.uleb128 0x1
 2789 00dc 01       		.byte	0x1
 2790 00dd 49       		.uleb128 0x49
 2791 00de 13       		.uleb128 0x13
 2792 00df 01       		.uleb128 0x1
 2793 00e0 13       		.uleb128 0x13
 2794 00e1 00       		.byte	0
 2795 00e2 00       		.byte	0
 2796 00e3 14       		.uleb128 0x14
 2797 00e4 21       		.uleb128 0x21
 2798 00e5 00       		.byte	0
 2799 00e6 49       		.uleb128 0x49
 2800 00e7 13       		.uleb128 0x13
 2801 00e8 2F       		.uleb128 0x2f
 2802 00e9 0B       		.uleb128 0xb
 2803 00ea 00       		.byte	0
 2804 00eb 00       		.byte	0
 2805 00ec 15       		.uleb128 0x15
 2806 00ed 13       		.uleb128 0x13
 2807 00ee 01       		.byte	0x1
 2808 00ef 0B       		.uleb128 0xb
 2809 00f0 0B       		.uleb128 0xb
 2810 00f1 3A       		.uleb128 0x3a
 2811 00f2 0B       		.uleb128 0xb
 2812 00f3 3B       		.uleb128 0x3b
 2813 00f4 05       		.uleb128 0x5
 2814 00f5 01       		.uleb128 0x1
 2815 00f6 13       		.uleb128 0x13
 2816 00f7 00       		.byte	0
 2817 00f8 00       		.byte	0
 2818 00f9 16       		.uleb128 0x16
 2819 00fa 0D       		.uleb128 0xd
 2820 00fb 00       		.byte	0
 2821 00fc 03       		.uleb128 0x3
 2822 00fd 0E       		.uleb128 0xe
 2823 00fe 3A       		.uleb128 0x3a
 2824 00ff 0B       		.uleb128 0xb
 2825 0100 3B       		.uleb128 0x3b
 2826 0101 05       		.uleb128 0x5
 2827 0102 49       		.uleb128 0x49
 2828 0103 13       		.uleb128 0x13
 2829 0104 38       		.uleb128 0x38
 2830 0105 0A       		.uleb128 0xa
 2831 0106 00       		.byte	0
 2832 0107 00       		.byte	0
 2833 0108 17       		.uleb128 0x17
 2834 0109 16       		.uleb128 0x16
 2835 010a 00       		.byte	0
 2836 010b 03       		.uleb128 0x3
 2837 010c 0E       		.uleb128 0xe
ARM GAS  C:\Users\DNIEL~1\AppData\Local\Temp\cc7q1ApJ.s 			page 51


 2838 010d 3A       		.uleb128 0x3a
 2839 010e 0B       		.uleb128 0xb
 2840 010f 3B       		.uleb128 0x3b
 2841 0110 05       		.uleb128 0x5
 2842 0111 49       		.uleb128 0x49
 2843 0112 13       		.uleb128 0x13
 2844 0113 00       		.byte	0
 2845 0114 00       		.byte	0
 2846 0115 18       		.uleb128 0x18
 2847 0116 13       		.uleb128 0x13
 2848 0117 01       		.byte	0x1
 2849 0118 0B       		.uleb128 0xb
 2850 0119 05       		.uleb128 0x5
 2851 011a 3A       		.uleb128 0x3a
 2852 011b 0B       		.uleb128 0xb
 2853 011c 3B       		.uleb128 0x3b
 2854 011d 05       		.uleb128 0x5
 2855 011e 01       		.uleb128 0x1
 2856 011f 13       		.uleb128 0x13
 2857 0120 00       		.byte	0
 2858 0121 00       		.byte	0
 2859 0122 19       		.uleb128 0x19
 2860 0123 04       		.uleb128 0x4
 2861 0124 01       		.byte	0x1
 2862 0125 0B       		.uleb128 0xb
 2863 0126 0B       		.uleb128 0xb
 2864 0127 3A       		.uleb128 0x3a
 2865 0128 0B       		.uleb128 0xb
 2866 0129 3B       		.uleb128 0x3b
 2867 012a 0B       		.uleb128 0xb
 2868 012b 01       		.uleb128 0x1
 2869 012c 13       		.uleb128 0x13
 2870 012d 00       		.byte	0
 2871 012e 00       		.byte	0
 2872 012f 1A       		.uleb128 0x1a
 2873 0130 28       		.uleb128 0x28
 2874 0131 00       		.byte	0
 2875 0132 03       		.uleb128 0x3
 2876 0133 0E       		.uleb128 0xe
 2877 0134 1C       		.uleb128 0x1c
 2878 0135 0D       		.uleb128 0xd
 2879 0136 00       		.byte	0
 2880 0137 00       		.byte	0
 2881 0138 1B       		.uleb128 0x1b
 2882 0139 0D       		.uleb128 0xd
 2883 013a 00       		.byte	0
 2884 013b 03       		.uleb128 0x3
 2885 013c 08       		.uleb128 0x8
 2886 013d 3A       		.uleb128 0x3a
 2887 013e 0B       		.uleb128 0xb
 2888 013f 3B       		.uleb128 0x3b
 2889 0140 0B       		.uleb128 0xb
 2890 0141 49       		.uleb128 0x49
 2891 0142 13       		.uleb128 0x13
 2892 0143 0B       		.uleb128 0xb
 2893 0144 0B       		.uleb128 0xb
 2894 0145 0D       		.uleb128 0xd
ARM GAS  C:\Users\DNIEL~1\AppData\Local\Temp\cc7q1ApJ.s 			page 52


 2895 0146 0B       		.uleb128 0xb
 2896 0147 0C       		.uleb128 0xc
 2897 0148 0B       		.uleb128 0xb
 2898 0149 38       		.uleb128 0x38
 2899 014a 0A       		.uleb128 0xa
 2900 014b 00       		.byte	0
 2901 014c 00       		.byte	0
 2902 014d 1C       		.uleb128 0x1c
 2903 014e 0D       		.uleb128 0xd
 2904 014f 00       		.byte	0
 2905 0150 49       		.uleb128 0x49
 2906 0151 13       		.uleb128 0x13
 2907 0152 00       		.byte	0
 2908 0153 00       		.byte	0
 2909 0154 1D       		.uleb128 0x1d
 2910 0155 0D       		.uleb128 0xd
 2911 0156 00       		.byte	0
 2912 0157 49       		.uleb128 0x49
 2913 0158 13       		.uleb128 0x13
 2914 0159 38       		.uleb128 0x38
 2915 015a 0A       		.uleb128 0xa
 2916 015b 00       		.byte	0
 2917 015c 00       		.byte	0
 2918 015d 1E       		.uleb128 0x1e
 2919 015e 15       		.uleb128 0x15
 2920 015f 01       		.byte	0x1
 2921 0160 27       		.uleb128 0x27
 2922 0161 0C       		.uleb128 0xc
 2923 0162 01       		.uleb128 0x1
 2924 0163 13       		.uleb128 0x13
 2925 0164 00       		.byte	0
 2926 0165 00       		.byte	0
 2927 0166 1F       		.uleb128 0x1f
 2928 0167 04       		.uleb128 0x4
 2929 0168 01       		.byte	0x1
 2930 0169 03       		.uleb128 0x3
 2931 016a 0E       		.uleb128 0xe
 2932 016b 0B       		.uleb128 0xb
 2933 016c 0B       		.uleb128 0xb
 2934 016d 3A       		.uleb128 0x3a
 2935 016e 0B       		.uleb128 0xb
 2936 016f 3B       		.uleb128 0x3b
 2937 0170 0B       		.uleb128 0xb
 2938 0171 01       		.uleb128 0x1
 2939 0172 13       		.uleb128 0x13
 2940 0173 00       		.byte	0
 2941 0174 00       		.byte	0
 2942 0175 20       		.uleb128 0x20
 2943 0176 2E       		.uleb128 0x2e
 2944 0177 01       		.byte	0x1
 2945 0178 03       		.uleb128 0x3
 2946 0179 0E       		.uleb128 0xe
 2947 017a 3A       		.uleb128 0x3a
 2948 017b 0B       		.uleb128 0xb
 2949 017c 3B       		.uleb128 0x3b
 2950 017d 0B       		.uleb128 0xb
 2951 017e 27       		.uleb128 0x27
ARM GAS  C:\Users\DNIEL~1\AppData\Local\Temp\cc7q1ApJ.s 			page 53


 2952 017f 0C       		.uleb128 0xc
 2953 0180 49       		.uleb128 0x49
 2954 0181 13       		.uleb128 0x13
 2955 0182 11       		.uleb128 0x11
 2956 0183 01       		.uleb128 0x1
 2957 0184 12       		.uleb128 0x12
 2958 0185 01       		.uleb128 0x1
 2959 0186 40       		.uleb128 0x40
 2960 0187 06       		.uleb128 0x6
 2961 0188 9742     		.uleb128 0x2117
 2962 018a 0C       		.uleb128 0xc
 2963 018b 01       		.uleb128 0x1
 2964 018c 13       		.uleb128 0x13
 2965 018d 00       		.byte	0
 2966 018e 00       		.byte	0
 2967 018f 21       		.uleb128 0x21
 2968 0190 05       		.uleb128 0x5
 2969 0191 00       		.byte	0
 2970 0192 03       		.uleb128 0x3
 2971 0193 08       		.uleb128 0x8
 2972 0194 3A       		.uleb128 0x3a
 2973 0195 0B       		.uleb128 0xb
 2974 0196 3B       		.uleb128 0x3b
 2975 0197 0B       		.uleb128 0xb
 2976 0198 49       		.uleb128 0x49
 2977 0199 13       		.uleb128 0x13
 2978 019a 02       		.uleb128 0x2
 2979 019b 06       		.uleb128 0x6
 2980 019c 00       		.byte	0
 2981 019d 00       		.byte	0
 2982 019e 22       		.uleb128 0x22
 2983 019f 34       		.uleb128 0x34
 2984 01a0 00       		.byte	0
 2985 01a1 03       		.uleb128 0x3
 2986 01a2 08       		.uleb128 0x8
 2987 01a3 3A       		.uleb128 0x3a
 2988 01a4 0B       		.uleb128 0xb
 2989 01a5 3B       		.uleb128 0x3b
 2990 01a6 0B       		.uleb128 0xb
 2991 01a7 49       		.uleb128 0x49
 2992 01a8 13       		.uleb128 0x13
 2993 01a9 02       		.uleb128 0x2
 2994 01aa 0A       		.uleb128 0xa
 2995 01ab 00       		.byte	0
 2996 01ac 00       		.byte	0
 2997 01ad 23       		.uleb128 0x23
 2998 01ae 34       		.uleb128 0x34
 2999 01af 00       		.byte	0
 3000 01b0 03       		.uleb128 0x3
 3001 01b1 08       		.uleb128 0x8
 3002 01b2 3A       		.uleb128 0x3a
 3003 01b3 0B       		.uleb128 0xb
 3004 01b4 3B       		.uleb128 0x3b
 3005 01b5 0B       		.uleb128 0xb
 3006 01b6 49       		.uleb128 0x49
 3007 01b7 13       		.uleb128 0x13
 3008 01b8 00       		.byte	0
ARM GAS  C:\Users\DNIEL~1\AppData\Local\Temp\cc7q1ApJ.s 			page 54


 3009 01b9 00       		.byte	0
 3010 01ba 24       		.uleb128 0x24
 3011 01bb 898201   		.uleb128 0x4109
 3012 01be 01       		.byte	0x1
 3013 01bf 11       		.uleb128 0x11
 3014 01c0 01       		.uleb128 0x1
 3015 01c1 31       		.uleb128 0x31
 3016 01c2 13       		.uleb128 0x13
 3017 01c3 01       		.uleb128 0x1
 3018 01c4 13       		.uleb128 0x13
 3019 01c5 00       		.byte	0
 3020 01c6 00       		.byte	0
 3021 01c7 25       		.uleb128 0x25
 3022 01c8 8A8201   		.uleb128 0x410a
 3023 01cb 00       		.byte	0
 3024 01cc 02       		.uleb128 0x2
 3025 01cd 0A       		.uleb128 0xa
 3026 01ce 9142     		.uleb128 0x2111
 3027 01d0 0A       		.uleb128 0xa
 3028 01d1 00       		.byte	0
 3029 01d2 00       		.byte	0
 3030 01d3 26       		.uleb128 0x26
 3031 01d4 898201   		.uleb128 0x4109
 3032 01d7 00       		.byte	0
 3033 01d8 11       		.uleb128 0x11
 3034 01d9 01       		.uleb128 0x1
 3035 01da 31       		.uleb128 0x31
 3036 01db 13       		.uleb128 0x13
 3037 01dc 00       		.byte	0
 3038 01dd 00       		.byte	0
 3039 01de 27       		.uleb128 0x27
 3040 01df 898201   		.uleb128 0x4109
 3041 01e2 01       		.byte	0x1
 3042 01e3 11       		.uleb128 0x11
 3043 01e4 01       		.uleb128 0x1
 3044 01e5 31       		.uleb128 0x31
 3045 01e6 13       		.uleb128 0x13
 3046 01e7 00       		.byte	0
 3047 01e8 00       		.byte	0
 3048 01e9 28       		.uleb128 0x28
 3049 01ea 2E       		.uleb128 0x2e
 3050 01eb 01       		.byte	0x1
 3051 01ec 3F       		.uleb128 0x3f
 3052 01ed 0C       		.uleb128 0xc
 3053 01ee 03       		.uleb128 0x3
 3054 01ef 0E       		.uleb128 0xe
 3055 01f0 3A       		.uleb128 0x3a
 3056 01f1 0B       		.uleb128 0xb
 3057 01f2 3B       		.uleb128 0x3b
 3058 01f3 0B       		.uleb128 0xb
 3059 01f4 27       		.uleb128 0x27
 3060 01f5 0C       		.uleb128 0xc
 3061 01f6 11       		.uleb128 0x11
 3062 01f7 01       		.uleb128 0x1
 3063 01f8 12       		.uleb128 0x12
 3064 01f9 01       		.uleb128 0x1
 3065 01fa 40       		.uleb128 0x40
ARM GAS  C:\Users\DNIEL~1\AppData\Local\Temp\cc7q1ApJ.s 			page 55


 3066 01fb 06       		.uleb128 0x6
 3067 01fc 9742     		.uleb128 0x2117
 3068 01fe 0C       		.uleb128 0xc
 3069 01ff 01       		.uleb128 0x1
 3070 0200 13       		.uleb128 0x13
 3071 0201 00       		.byte	0
 3072 0202 00       		.byte	0
 3073 0203 29       		.uleb128 0x29
 3074 0204 34       		.uleb128 0x34
 3075 0205 00       		.byte	0
 3076 0206 03       		.uleb128 0x3
 3077 0207 0E       		.uleb128 0xe
 3078 0208 3A       		.uleb128 0x3a
 3079 0209 0B       		.uleb128 0xb
 3080 020a 3B       		.uleb128 0x3b
 3081 020b 0B       		.uleb128 0xb
 3082 020c 49       		.uleb128 0x49
 3083 020d 13       		.uleb128 0x13
 3084 020e 1C       		.uleb128 0x1c
 3085 020f 0B       		.uleb128 0xb
 3086 0210 00       		.byte	0
 3087 0211 00       		.byte	0
 3088 0212 2A       		.uleb128 0x2a
 3089 0213 34       		.uleb128 0x34
 3090 0214 00       		.byte	0
 3091 0215 03       		.uleb128 0x3
 3092 0216 0E       		.uleb128 0xe
 3093 0217 3A       		.uleb128 0x3a
 3094 0218 0B       		.uleb128 0xb
 3095 0219 3B       		.uleb128 0x3b
 3096 021a 0B       		.uleb128 0xb
 3097 021b 49       		.uleb128 0x49
 3098 021c 13       		.uleb128 0x13
 3099 021d 00       		.byte	0
 3100 021e 00       		.byte	0
 3101 021f 2B       		.uleb128 0x2b
 3102 0220 34       		.uleb128 0x34
 3103 0221 00       		.byte	0
 3104 0222 03       		.uleb128 0x3
 3105 0223 0E       		.uleb128 0xe
 3106 0224 3A       		.uleb128 0x3a
 3107 0225 0B       		.uleb128 0xb
 3108 0226 3B       		.uleb128 0x3b
 3109 0227 0B       		.uleb128 0xb
 3110 0228 49       		.uleb128 0x49
 3111 0229 13       		.uleb128 0x13
 3112 022a 02       		.uleb128 0x2
 3113 022b 0A       		.uleb128 0xa
 3114 022c 00       		.byte	0
 3115 022d 00       		.byte	0
 3116 022e 2C       		.uleb128 0x2c
 3117 022f 34       		.uleb128 0x34
 3118 0230 00       		.byte	0
 3119 0231 03       		.uleb128 0x3
 3120 0232 0E       		.uleb128 0xe
 3121 0233 3A       		.uleb128 0x3a
 3122 0234 0B       		.uleb128 0xb
ARM GAS  C:\Users\DNIEL~1\AppData\Local\Temp\cc7q1ApJ.s 			page 56


 3123 0235 3B       		.uleb128 0x3b
 3124 0236 0B       		.uleb128 0xb
 3125 0237 49       		.uleb128 0x49
 3126 0238 13       		.uleb128 0x13
 3127 0239 3F       		.uleb128 0x3f
 3128 023a 0C       		.uleb128 0xc
 3129 023b 3C       		.uleb128 0x3c
 3130 023c 0C       		.uleb128 0xc
 3131 023d 00       		.byte	0
 3132 023e 00       		.byte	0
 3133 023f 2D       		.uleb128 0x2d
 3134 0240 34       		.uleb128 0x34
 3135 0241 00       		.byte	0
 3136 0242 03       		.uleb128 0x3
 3137 0243 0E       		.uleb128 0xe
 3138 0244 3A       		.uleb128 0x3a
 3139 0245 0B       		.uleb128 0xb
 3140 0246 3B       		.uleb128 0x3b
 3141 0247 05       		.uleb128 0x5
 3142 0248 49       		.uleb128 0x49
 3143 0249 13       		.uleb128 0x13
 3144 024a 3F       		.uleb128 0x3f
 3145 024b 0C       		.uleb128 0xc
 3146 024c 3C       		.uleb128 0x3c
 3147 024d 0C       		.uleb128 0xc
 3148 024e 00       		.byte	0
 3149 024f 00       		.byte	0
 3150 0250 2E       		.uleb128 0x2e
 3151 0251 34       		.uleb128 0x34
 3152 0252 00       		.byte	0
 3153 0253 03       		.uleb128 0x3
 3154 0254 0E       		.uleb128 0xe
 3155 0255 3A       		.uleb128 0x3a
 3156 0256 0B       		.uleb128 0xb
 3157 0257 3B       		.uleb128 0x3b
 3158 0258 0B       		.uleb128 0xb
 3159 0259 49       		.uleb128 0x49
 3160 025a 13       		.uleb128 0x13
 3161 025b 3F       		.uleb128 0x3f
 3162 025c 0C       		.uleb128 0xc
 3163 025d 02       		.uleb128 0x2
 3164 025e 0A       		.uleb128 0xa
 3165 025f 00       		.byte	0
 3166 0260 00       		.byte	0
 3167 0261 2F       		.uleb128 0x2f
 3168 0262 2E       		.uleb128 0x2e
 3169 0263 01       		.byte	0x1
 3170 0264 3F       		.uleb128 0x3f
 3171 0265 0C       		.uleb128 0xc
 3172 0266 03       		.uleb128 0x3
 3173 0267 0E       		.uleb128 0xe
 3174 0268 3A       		.uleb128 0x3a
 3175 0269 0B       		.uleb128 0xb
 3176 026a 3B       		.uleb128 0x3b
 3177 026b 0B       		.uleb128 0xb
 3178 026c 27       		.uleb128 0x27
 3179 026d 0C       		.uleb128 0xc
ARM GAS  C:\Users\DNIEL~1\AppData\Local\Temp\cc7q1ApJ.s 			page 57


 3180 026e 3C       		.uleb128 0x3c
 3181 026f 0C       		.uleb128 0xc
 3182 0270 01       		.uleb128 0x1
 3183 0271 13       		.uleb128 0x13
 3184 0272 00       		.byte	0
 3185 0273 00       		.byte	0
 3186 0274 30       		.uleb128 0x30
 3187 0275 2E       		.uleb128 0x2e
 3188 0276 01       		.byte	0x1
 3189 0277 3F       		.uleb128 0x3f
 3190 0278 0C       		.uleb128 0xc
 3191 0279 03       		.uleb128 0x3
 3192 027a 0E       		.uleb128 0xe
 3193 027b 3A       		.uleb128 0x3a
 3194 027c 0B       		.uleb128 0xb
 3195 027d 3B       		.uleb128 0x3b
 3196 027e 0B       		.uleb128 0xb
 3197 027f 27       		.uleb128 0x27
 3198 0280 0C       		.uleb128 0xc
 3199 0281 49       		.uleb128 0x49
 3200 0282 13       		.uleb128 0x13
 3201 0283 3C       		.uleb128 0x3c
 3202 0284 0C       		.uleb128 0xc
 3203 0285 01       		.uleb128 0x1
 3204 0286 13       		.uleb128 0x13
 3205 0287 00       		.byte	0
 3206 0288 00       		.byte	0
 3207 0289 31       		.uleb128 0x31
 3208 028a 2E       		.uleb128 0x2e
 3209 028b 01       		.byte	0x1
 3210 028c 3F       		.uleb128 0x3f
 3211 028d 0C       		.uleb128 0xc
 3212 028e 03       		.uleb128 0x3
 3213 028f 0E       		.uleb128 0xe
 3214 0290 3A       		.uleb128 0x3a
 3215 0291 0B       		.uleb128 0xb
 3216 0292 3B       		.uleb128 0x3b
 3217 0293 05       		.uleb128 0x5
 3218 0294 27       		.uleb128 0x27
 3219 0295 0C       		.uleb128 0xc
 3220 0296 49       		.uleb128 0x49
 3221 0297 13       		.uleb128 0x13
 3222 0298 3C       		.uleb128 0x3c
 3223 0299 0C       		.uleb128 0xc
 3224 029a 00       		.byte	0
 3225 029b 00       		.byte	0
 3226 029c 00       		.byte	0
 3227              		.section	.debug_loc,"",%progbits
 3228              	.Ldebug_loc0:
 3229              	.LLST0:
 3230 0000 00000000 		.4byte	.LFB119
 3231 0004 02000000 		.4byte	.LCFI0
 3232 0008 0200     		.2byte	0x2
 3233 000a 7D       		.byte	0x7d
 3234 000b 00       		.sleb128 0
 3235 000c 02000000 		.4byte	.LCFI0
 3236 0010 0E000000 		.4byte	.LCFI1
ARM GAS  C:\Users\DNIEL~1\AppData\Local\Temp\cc7q1ApJ.s 			page 58


 3237 0014 0200     		.2byte	0x2
 3238 0016 7D       		.byte	0x7d
 3239 0017 0C       		.sleb128 12
 3240 0018 0E000000 		.4byte	.LCFI1
 3241 001c 74000000 		.4byte	.LFE119
 3242 0020 0200     		.2byte	0x2
 3243 0022 7D       		.byte	0x7d
 3244 0023 20       		.sleb128 32
 3245 0024 00000000 		.4byte	0
 3246 0028 00000000 		.4byte	0
 3247              	.LLST1:
 3248 002c 00000000 		.4byte	.LVL0
 3249 0030 0A000000 		.4byte	.LVL1
 3250 0034 0100     		.2byte	0x1
 3251 0036 50       		.byte	0x50
 3252 0037 0A000000 		.4byte	.LVL1
 3253 003b 74000000 		.4byte	.LFE119
 3254 003f 0400     		.2byte	0x4
 3255 0041 F3       		.byte	0xf3
 3256 0042 01       		.uleb128 0x1
 3257 0043 50       		.byte	0x50
 3258 0044 9F       		.byte	0x9f
 3259 0045 00000000 		.4byte	0
 3260 0049 00000000 		.4byte	0
 3261              	.LLST2:
 3262 004d 00000000 		.4byte	.LFB121
 3263 0051 02000000 		.4byte	.LCFI2
 3264 0055 0200     		.2byte	0x2
 3265 0057 7D       		.byte	0x7d
 3266 0058 00       		.sleb128 0
 3267 0059 02000000 		.4byte	.LCFI2
 3268 005d 0C000000 		.4byte	.LCFI3
 3269 0061 0200     		.2byte	0x2
 3270 0063 7D       		.byte	0x7d
 3271 0064 04       		.sleb128 4
 3272 0065 0C000000 		.4byte	.LCFI3
 3273 0069 3A000000 		.4byte	.LFE121
 3274 006d 0200     		.2byte	0x2
 3275 006f 7D       		.byte	0x7d
 3276 0070 10       		.sleb128 16
 3277 0071 00000000 		.4byte	0
 3278 0075 00000000 		.4byte	0
 3279              		.section	.debug_aranges,"",%progbits
 3280 0000 24000000 		.4byte	0x24
 3281 0004 0200     		.2byte	0x2
 3282 0006 00000000 		.4byte	.Ldebug_info0
 3283 000a 04       		.byte	0x4
 3284 000b 00       		.byte	0
 3285 000c 0000     		.2byte	0
 3286 000e 0000     		.2byte	0
 3287 0010 00000000 		.4byte	.LFB119
 3288 0014 74000000 		.4byte	.LFE119-.LFB119
 3289 0018 00000000 		.4byte	.LFB121
 3290 001c 3A000000 		.4byte	.LFE121-.LFB121
 3291 0020 00000000 		.4byte	0
 3292 0024 00000000 		.4byte	0
 3293              		.section	.debug_ranges,"",%progbits
ARM GAS  C:\Users\DNIEL~1\AppData\Local\Temp\cc7q1ApJ.s 			page 59


 3294              	.Ldebug_ranges0:
 3295 0000 00000000 		.4byte	.LFB119
 3296 0004 74000000 		.4byte	.LFE119
 3297 0008 00000000 		.4byte	.LFB121
 3298 000c 3A000000 		.4byte	.LFE121
 3299 0010 00000000 		.4byte	0
 3300 0014 00000000 		.4byte	0
 3301              		.section	.debug_line,"",%progbits
 3302              	.Ldebug_line0:
 3303 0000 4F030000 		.section	.debug_str,"MS",%progbits,1
 3303      02000F03 
 3303      00000201 
 3303      FB0E0D00 
 3303      01010101 
 3304              	.LASF173:
 3305 0000 72786D73 		.ascii	"rxmsg\000"
 3305      6700
 3306              	.LASF79:
 3307 0006 7466756E 		.ascii	"tfunc_t\000"
 3307      635F7400 
 3308              	.LASF138:
 3309 000e 44494552 		.ascii	"DIER\000"
 3309      00
 3310              	.LASF11:
 3311 0013 73697A65 		.ascii	"size_t\000"
 3311      5F7400
 3312              	.LASF129:
 3313 001a 50574D5F 		.ascii	"PWM_UNINIT\000"
 3313      554E494E 
 3313      495400
 3314              	.LASF117:
 3315 0025 43414E52 		.ascii	"CANRxFrame\000"
 3315      78467261 
 3315      6D6500
 3316              	.LASF75:
 3317 0030 7264796D 		.ascii	"rdymsg\000"
 3317      736700
 3318              	.LASF16:
 3319 0037 75696E74 		.ascii	"uint64_t\000"
 3319      36345F74 
 3319      00
 3320              	.LASF118:
 3321 0040 43414E43 		.ascii	"CANConfig\000"
 3321      6F6E6669 
 3321      6700
 3322              	.LASF104:
 3323 004a 43414E5F 		.ascii	"CAN_TypeDef\000"
 3323      54797065 
 3323      44656600 
 3324              	.LASF134:
 3325 0056 70657269 		.ascii	"period\000"
 3325      6F6400
 3326              	.LASF172:
 3327 005d 74786D73 		.ascii	"txmsg\000"
 3327      6700
 3328              	.LASF6:
 3329 0063 6C6F6E67 		.ascii	"long long unsigned int\000"
ARM GAS  C:\Users\DNIEL~1\AppData\Local\Temp\cc7q1ApJ.s 			page 60


 3329      206C6F6E 
 3329      6720756E 
 3329      7369676E 
 3329      65642069 
 3330              	.LASF76:
 3331 007a 65786974 		.ascii	"exitcode\000"
 3331      636F6465 
 3331      00
 3332              	.LASF169:
 3333 0083 43414E5F 		.ascii	"CAN_BINDEX\000"
 3333      42494E44 
 3333      455800
 3334              	.LASF114:
 3335 008e 64617461 		.ascii	"data32\000"
 3335      333200
 3336              	.LASF142:
 3337 0095 42445452 		.ascii	"BDTR\000"
 3337      00
 3338              	.LASF186:
 3339 009a 63684576 		.ascii	"chEvtWaitAnyTimeout\000"
 3339      74576169 
 3339      74416E79 
 3339      54696D65 
 3339      6F757400 
 3340              	.LASF187:
 3341 00ae 63616E52 		.ascii	"canReceive\000"
 3341      65636569 
 3341      766500
 3342              	.LASF131:
 3343 00b9 50574D5F 		.ascii	"PWM_READY\000"
 3343      52454144 
 3343      5900
 3344              	.LASF139:
 3345 00c3 43434D52 		.ascii	"CCMR1\000"
 3345      3100
 3346              	.LASF140:
 3347 00c9 43434D52 		.ascii	"CCMR2\000"
 3347      3200
 3348              	.LASF144:
 3349 00cf 43434D52 		.ascii	"CCMR3\000"
 3349      3300
 3350              	.LASF1:
 3351 00d5 7369676E 		.ascii	"signed char\000"
 3351      65642063 
 3351      68617200 
 3352              	.LASF107:
 3353 00e1 43414E5F 		.ascii	"CAN_STARTING\000"
 3353      53544152 
 3353      54494E47 
 3353      00
 3354              	.LASF148:
 3355 00ee 70776D6D 		.ascii	"pwmmode_t\000"
 3355      6F64655F 
 3355      7400
 3356              	.LASF121:
 3357 00f8 74787365 		.ascii	"txsem\000"
 3357      6D00
ARM GAS  C:\Users\DNIEL~1\AppData\Local\Temp\cc7q1ApJ.s 			page 61


 3358              	.LASF181:
 3359 00fe 50574D44 		.ascii	"PWMD1\000"
 3359      3100
 3360              	.LASF21:
 3361 0104 74736C69 		.ascii	"tslices_t\000"
 3361      6365735F 
 3361      7400
 3362              	.LASF119:
 3363 010e 73746174 		.ascii	"state\000"
 3363      6500
 3364              	.LASF154:
 3365 0114 6368616E 		.ascii	"channels\000"
 3365      6E656C73 
 3365      00
 3366              	.LASF7:
 3367 011d 6C6F6E67 		.ascii	"long int\000"
 3367      20696E74 
 3367      00
 3368              	.LASF19:
 3369 0126 74737461 		.ascii	"tstate_t\000"
 3369      74655F74 
 3369      00
 3370              	.LASF83:
 3371 012f 43414E5F 		.ascii	"CAN_TxMailBox_TypeDef\000"
 3371      54784D61 
 3371      696C426F 
 3371      785F5479 
 3371      70654465 
 3372              	.LASF175:
 3373 0145 77615F69 		.ascii	"wa_index\000"
 3373      6E646578 
 3373      00
 3374              	.LASF38:
 3375 014e 705F7265 		.ascii	"p_refs\000"
 3375      667300
 3376              	.LASF5:
 3377 0155 6C6F6E67 		.ascii	"long long int\000"
 3377      206C6F6E 
 3377      6720696E 
 3377      7400
 3378              	.LASF193:
 3379 0163 433A5C55 		.ascii	"C:\\Users\\D\341niel\\git\\Modulux\\modulux\\firmwa"
 3379      73657273 
 3379      5C44E16E 
 3379      69656C5C 
 3379      6769745C 
 3380 018d 726500   		.ascii	"re\000"
 3381              	.LASF13:
 3382 0190 75696E74 		.ascii	"uint16_t\000"
 3382      31365F74 
 3382      00
 3383              	.LASF40:
 3384 0199 705F7469 		.ascii	"p_time\000"
 3384      6D6500
 3385              	.LASF157:
 3386 01a0 646F7562 		.ascii	"double\000"
 3386      6C6500
ARM GAS  C:\Users\DNIEL~1\AppData\Local\Temp\cc7q1ApJ.s 			page 62


 3387              	.LASF167:
 3388 01a7 63616E4D 		.ascii	"canMessage\000"
 3388      65737361 
 3388      676500
 3389              	.LASF33:
 3390 01b2 705F6E65 		.ascii	"p_newer\000"
 3390      77657200 
 3391              	.LASF62:
 3392 01ba 735F7175 		.ascii	"s_queue\000"
 3392      65756500 
 3393              	.LASF165:
 3394 01c2 43414E5F 		.ascii	"CAN_NUM_CH\000"
 3394      4E554D5F 
 3394      434800
 3395              	.LASF108:
 3396 01cd 43414E5F 		.ascii	"CAN_READY\000"
 3396      52454144 
 3396      5900
 3397              	.LASF4:
 3398 01d7 73686F72 		.ascii	"short unsigned int\000"
 3398      7420756E 
 3398      7369676E 
 3398      65642069 
 3398      6E7400
 3399              	.LASF189:
 3400 01ea 63616E53 		.ascii	"canStart\000"
 3400      74617274 
 3400      00
 3401              	.LASF123:
 3402 01f3 72786675 		.ascii	"rxfull_event\000"
 3402      6C6C5F65 
 3402      76656E74 
 3402      00
 3403              	.LASF57:
 3404 0200 725F6E65 		.ascii	"r_newer\000"
 3404      77657200 
 3405              	.LASF47:
 3406 0208 705F6D70 		.ascii	"p_mpool\000"
 3406      6F6F6C00 
 3407              	.LASF50:
 3408 0210 72656761 		.ascii	"regarm_t\000"
 3408      726D5F74 
 3408      00
 3409              	.LASF116:
 3410 0219 54494D45 		.ascii	"TIME\000"
 3410      00
 3411              	.LASF81:
 3412 021e 54444C52 		.ascii	"TDLR\000"
 3412      00
 3413              	.LASF80:
 3414 0223 54445452 		.ascii	"TDTR\000"
 3414      00
 3415              	.LASF73:
 3416 0228 4576656E 		.ascii	"EventSource\000"
 3416      74536F75 
 3416      72636500 
 3417              	.LASF176:
ARM GAS  C:\Users\DNIEL~1\AppData\Local\Temp\cc7q1ApJ.s 			page 63


 3418 0234 63616E5F 		.ascii	"can_rx_wa\000"
 3418      72785F77 
 3418      6100
 3419              	.LASF27:
 3420 023e 636E745F 		.ascii	"cnt_t\000"
 3420      7400
 3421              	.LASF0:
 3422 0244 756E7369 		.ascii	"unsigned int\000"
 3422      676E6564 
 3422      20696E74 
 3422      00
 3423              	.LASF180:
 3424 0251 43414E44 		.ascii	"CAND1\000"
 3424      3100
 3425              	.LASF183:
 3426 0257 63616E75 		.ascii	"canuzenet\000"
 3426      7A656E65 
 3426      7400
 3427              	.LASF185:
 3428 0261 4C696768 		.ascii	"Light_state\000"
 3428      745F7374 
 3428      61746500 
 3429              	.LASF42:
 3430 026d 705F6D73 		.ascii	"p_msgqueue\000"
 3430      67717565 
 3430      756500
 3431              	.LASF84:
 3432 0278 52445452 		.ascii	"RDTR\000"
 3432      00
 3433              	.LASF115:
 3434 027d 43414E54 		.ascii	"CANTxFrame\000"
 3434      78467261 
 3434      6D6500
 3435              	.LASF63:
 3436 0288 735F636E 		.ascii	"s_cnt\000"
 3436      7400
 3437              	.LASF137:
 3438 028e 534D4352 		.ascii	"SMCR\000"
 3438      00
 3439              	.LASF90:
 3440 0293 52463152 		.ascii	"RF1R\000"
 3440      00
 3441              	.LASF163:
 3442 0298 43414E5F 		.ascii	"CAN_LC\000"
 3442      4C4300
 3443              	.LASF88:
 3444 029f 43414E5F 		.ascii	"CAN_FilterRegister_TypeDef\000"
 3444      46696C74 
 3444      65725265 
 3444      67697374 
 3444      65725F54 
 3445              	.LASF184:
 3446 02ba 63684576 		.ascii	"chEvtRegisterMask\000"
 3446      74526567 
 3446      69737465 
 3446      724D6173 
 3446      6B00
ARM GAS  C:\Users\DNIEL~1\AppData\Local\Temp\cc7q1ApJ.s 			page 64


 3447              	.LASF23:
 3448 02cc 6D73675F 		.ascii	"msg_t\000"
 3448      7400
 3449              	.LASF153:
 3450 02d2 66726571 		.ascii	"frequency\000"
 3450      75656E63 
 3450      7900
 3451              	.LASF69:
 3452 02dc 656C5F6E 		.ascii	"el_next\000"
 3452      65787400 
 3453              	.LASF188:
 3454 02e4 63684576 		.ascii	"chEvtUnregister\000"
 3454      74556E72 
 3454      65676973 
 3454      74657200 
 3455              	.LASF151:
 3456 02f4 63616C6C 		.ascii	"callback\000"
 3456      6261636B 
 3456      00
 3457              	.LASF147:
 3458 02fd 73746D33 		.ascii	"stm32_tim_t\000"
 3458      325F7469 
 3458      6D5F7400 
 3459              	.LASF49:
 3460 0309 54687265 		.ascii	"ThreadsList\000"
 3460      6164734C 
 3460      69737400 
 3461              	.LASF103:
 3462 0315 7346696C 		.ascii	"sFilterRegister\000"
 3462      74657252 
 3462      65676973 
 3462      74657200 
 3463              	.LASF24:
 3464 0325 6576656E 		.ascii	"eventmask_t\000"
 3464      746D6173 
 3464      6B5F7400 
 3465              	.LASF64:
 3466 0331 4D757465 		.ascii	"Mutex\000"
 3466      7800
 3467              	.LASF194:
 3468 0337 63616E5F 		.ascii	"can_rx\000"
 3468      727800
 3469              	.LASF51:
 3470 033e 73746B61 		.ascii	"stkalign_t\000"
 3470      6C69676E 
 3470      5F7400
 3471              	.LASF190:
 3472 0349 63685468 		.ascii	"chThdCreateStatic\000"
 3472      64437265 
 3472      61746553 
 3472      74617469 
 3472      6300
 3473              	.LASF141:
 3474 035b 43434552 		.ascii	"CCER\000"
 3474      00
 3475              	.LASF101:
 3476 0360 46413152 		.ascii	"FA1R\000"
ARM GAS  C:\Users\DNIEL~1\AppData\Local\Temp\cc7q1ApJ.s 			page 65


 3476      00
 3477              	.LASF166:
 3478 0365 63616E53 		.ascii	"canState\000"
 3478      74617465 
 3478      00
 3479              	.LASF160:
 3480 036e 43414E5F 		.ascii	"CAN_SM\000"
 3480      534D00
 3481              	.LASF8:
 3482 0375 73697A65 		.ascii	"sizetype\000"
 3482      74797065 
 3482      00
 3483              	.LASF159:
 3484 037e 6C6F6E67 		.ascii	"long double\000"
 3484      20646F75 
 3484      626C6500 
 3485              	.LASF109:
 3486 038a 43414E5F 		.ascii	"CAN_SLEEP\000"
 3486      534C4545 
 3486      5000
 3487              	.LASF174:
 3488 0394 63616E63 		.ascii	"cancfg\000"
 3488      666700
 3489              	.LASF112:
 3490 039b 64617461 		.ascii	"data8\000"
 3490      3800
 3491              	.LASF31:
 3492 03a1 705F7072 		.ascii	"p_prio\000"
 3492      696F00
 3493              	.LASF128:
 3494 03a8 43414E44 		.ascii	"CANDriver\000"
 3494      72697665 
 3494      7200
 3495              	.LASF164:
 3496 03b2 43414E5F 		.ascii	"CAN_WAIT\000"
 3496      57414954 
 3496      00
 3497              	.LASF191:
 3498 03bb 474E5520 		.ascii	"GNU C 4.7.4 20140401 (release) [ARM/embedded-4_7-br"
 3498      4320342E 
 3498      372E3420 
 3498      32303134 
 3498      30343031 
 3499 03ee 616E6368 		.ascii	"anch revision 209195]\000"
 3499      20726576 
 3499      6973696F 
 3499      6E203230 
 3499      39313935 
 3500              	.LASF34:
 3501 0404 705F6F6C 		.ascii	"p_older\000"
 3501      64657200 
 3502              	.LASF56:
 3503 040c 725F6374 		.ascii	"r_ctx\000"
 3503      7800
 3504              	.LASF48:
 3505 0412 54687265 		.ascii	"ThreadsQueue\000"
 3505      61647351 
ARM GAS  C:\Users\DNIEL~1\AppData\Local\Temp\cc7q1ApJ.s 			page 66


 3505      75657565 
 3505      00
 3506              	.LASF82:
 3507 041f 54444852 		.ascii	"TDHR\000"
 3507      00
 3508              	.LASF59:
 3509 0424 725F6375 		.ascii	"r_current\000"
 3509      7272656E 
 3509      7400
 3510              	.LASF58:
 3511 042e 725F6F6C 		.ascii	"r_older\000"
 3511      64657200 
 3512              	.LASF71:
 3513 0436 656C5F6D 		.ascii	"el_mask\000"
 3513      61736B00 
 3514              	.LASF126:
 3515 043e 736C6565 		.ascii	"sleep_event\000"
 3515      705F6576 
 3515      656E7400 
 3516              	.LASF110:
 3517 044a 63616E73 		.ascii	"canstate_t\000"
 3517      74617465 
 3517      5F7400
 3518              	.LASF106:
 3519 0455 43414E5F 		.ascii	"CAN_STOP\000"
 3519      53544F50 
 3519      00
 3520              	.LASF99:
 3521 045e 46464131 		.ascii	"FFA1R\000"
 3521      5200
 3522              	.LASF125:
 3523 0464 6572726F 		.ascii	"error_event\000"
 3523      725F6576 
 3523      656E7400 
 3524              	.LASF158:
 3525 0470 666C6F61 		.ascii	"float\000"
 3525      7400
 3526              	.LASF136:
 3527 0476 70776D63 		.ascii	"pwmcallback_t\000"
 3527      616C6C62 
 3527      61636B5F 
 3527      7400
 3528              	.LASF195:
 3529 0484 63616E5F 		.ascii	"can_commInit\000"
 3529      636F6D6D 
 3529      496E6974 
 3529      00
 3530              	.LASF20:
 3531 0491 74726566 		.ascii	"trefs_t\000"
 3531      735F7400 
 3532              	.LASF91:
 3533 0499 52455345 		.ascii	"RESERVED0\000"
 3533      52564544 
 3533      3000
 3534              	.LASF94:
 3535 04a3 52455345 		.ascii	"RESERVED1\000"
 3535      52564544 
ARM GAS  C:\Users\DNIEL~1\AppData\Local\Temp\cc7q1ApJ.s 			page 67


 3535      3100
 3536              	.LASF96:
 3537 04ad 52455345 		.ascii	"RESERVED2\000"
 3537      52564544 
 3537      3200
 3538              	.LASF98:
 3539 04b7 52455345 		.ascii	"RESERVED3\000"
 3539      52564544 
 3539      3300
 3540              	.LASF100:
 3541 04c1 52455345 		.ascii	"RESERVED4\000"
 3541      52564544 
 3541      3400
 3542              	.LASF30:
 3543 04cb 705F7072 		.ascii	"p_prev\000"
 3543      657600
 3544              	.LASF22:
 3545 04d2 74707269 		.ascii	"tprio_t\000"
 3545      6F5F7400 
 3546              	.LASF105:
 3547 04da 43414E5F 		.ascii	"CAN_UNINIT\000"
 3547      554E494E 
 3547      495400
 3548              	.LASF17:
 3549 04e5 5F426F6F 		.ascii	"_Bool\000"
 3549      6C00
 3550              	.LASF14:
 3551 04eb 696E7433 		.ascii	"int32_t\000"
 3551      325F7400 
 3552              	.LASF2:
 3553 04f3 756E7369 		.ascii	"unsigned char\000"
 3553      676E6564 
 3553      20636861 
 3553      7200
 3554              	.LASF65:
 3555 0501 6D5F7175 		.ascii	"m_queue\000"
 3555      65756500 
 3556              	.LASF92:
 3557 0509 7354784D 		.ascii	"sTxMailBox\000"
 3557      61696C42 
 3557      6F7800
 3558              	.LASF127:
 3559 0514 77616B65 		.ascii	"wakeup_event\000"
 3559      75705F65 
 3559      76656E74 
 3559      00
 3560              	.LASF70:
 3561 0521 656C5F6C 		.ascii	"el_listener\000"
 3561      69737465 
 3561      6E657200 
 3562              	.LASF179:
 3563 052d 49544D5F 		.ascii	"ITM_RxBuffer\000"
 3563      52784275 
 3563      66666572 
 3563      00
 3564              	.LASF72:
 3565 053a 656C5F66 		.ascii	"el_flags\000"
ARM GAS  C:\Users\DNIEL~1\AppData\Local\Temp\cc7q1ApJ.s 			page 68


 3565      6C616773 
 3565      00
 3566              	.LASF45:
 3567 0543 705F6D74 		.ascii	"p_mtxlist\000"
 3567      786C6973 
 3567      7400
 3568              	.LASF3:
 3569 054d 73686F72 		.ascii	"short int\000"
 3569      7420696E 
 3569      7400
 3570              	.LASF36:
 3571 0557 705F7374 		.ascii	"p_state\000"
 3571      61746500 
 3572              	.LASF39:
 3573 055f 705F7072 		.ascii	"p_preempt\000"
 3573      65656D70 
 3573      7400
 3574              	.LASF55:
 3575 0569 725F7072 		.ascii	"r_prio\000"
 3575      696F00
 3576              	.LASF78:
 3577 0570 65776D61 		.ascii	"ewmask\000"
 3577      736B00
 3578              	.LASF29:
 3579 0577 705F6E65 		.ascii	"p_next\000"
 3579      787400
 3580              	.LASF37:
 3581 057e 705F666C 		.ascii	"p_flags\000"
 3581      61677300 
 3582              	.LASF95:
 3583 0586 464D3152 		.ascii	"FM1R\000"
 3583      00
 3584              	.LASF28:
 3585 058b 54687265 		.ascii	"Thread\000"
 3585      616400
 3586              	.LASF177:
 3587 0592 63616E5F 		.ascii	"can_tx_wa\000"
 3587      74785F77 
 3587      6100
 3588              	.LASF44:
 3589 059c 705F6570 		.ascii	"p_epending\000"
 3589      656E6469 
 3589      6E6700
 3590              	.LASF102:
 3591 05a7 52455345 		.ascii	"RESERVED5\000"
 3591      52564544 
 3591      3500
 3592              	.LASF15:
 3593 05b1 75696E74 		.ascii	"uint32_t\000"
 3593      33325F74 
 3593      00
 3594              	.LASF54:
 3595 05ba 725F7175 		.ascii	"r_queue\000"
 3595      65756500 
 3596              	.LASF124:
 3597 05c2 7478656D 		.ascii	"txempty_event\000"
 3597      7074795F 
ARM GAS  C:\Users\DNIEL~1\AppData\Local\Temp\cc7q1ApJ.s 			page 69


 3597      6576656E 
 3597      7400
 3598              	.LASF156:
 3599 05d0 50574D43 		.ascii	"PWMConfig\000"
 3599      6F6E6669 
 3599      6700
 3600              	.LASF9:
 3601 05da 6C6F6E67 		.ascii	"long unsigned int\000"
 3601      20756E73 
 3601      69676E65 
 3601      6420696E 
 3601      7400
 3602              	.LASF130:
 3603 05ec 50574D5F 		.ascii	"PWM_STOP\000"
 3603      53544F50 
 3603      00
 3604              	.LASF10:
 3605 05f5 63686172 		.ascii	"char\000"
 3605      00
 3606              	.LASF150:
 3607 05fa 6D6F6465 		.ascii	"mode\000"
 3607      00
 3608              	.LASF120:
 3609 05ff 636F6E66 		.ascii	"config\000"
 3609      696700
 3610              	.LASF143:
 3611 0606 444D4152 		.ascii	"DMAR\000"
 3611      00
 3612              	.LASF86:
 3613 060b 52444852 		.ascii	"RDHR\000"
 3613      00
 3614              	.LASF182:
 3615 0610 63616E73 		.ascii	"canstate\000"
 3615      74617465 
 3615      00
 3616              	.LASF67:
 3617 0619 6D5F6E65 		.ascii	"m_next\000"
 3617      787400
 3618              	.LASF26:
 3619 0620 73797374 		.ascii	"systime_t\000"
 3619      696D655F 
 3619      7400
 3620              	.LASF46:
 3621 062a 705F7265 		.ascii	"p_realprio\000"
 3621      616C7072 
 3621      696F00
 3622              	.LASF93:
 3623 0635 73464946 		.ascii	"sFIFOMailBox\000"
 3623      4F4D6169 
 3623      6C426F78 
 3623      00
 3624              	.LASF170:
 3625 0642 43414E5F 		.ascii	"CAN_MSG_NUM\000"
 3625      4D53475F 
 3625      4E554D00 
 3626              	.LASF53:
 3627 064e 636F6E74 		.ascii	"context\000"
ARM GAS  C:\Users\DNIEL~1\AppData\Local\Temp\cc7q1ApJ.s 			page 70


 3627      65787400 
 3628              	.LASF152:
 3629 0656 50574D43 		.ascii	"PWMChannelConfig\000"
 3629      68616E6E 
 3629      656C436F 
 3629      6E666967 
 3629      00
 3630              	.LASF52:
 3631 0667 696E7463 		.ascii	"intctx\000"
 3631      747800
 3632              	.LASF192:
 3633 066e 7372632F 		.ascii	"src/can_comm.c\000"
 3633      63616E5F 
 3633      636F6D6D 
 3633      2E6300
 3634              	.LASF61:
 3635 067d 53656D61 		.ascii	"Semaphore\000"
 3635      70686F72 
 3635      6500
 3636              	.LASF25:
 3637 0687 666C6167 		.ascii	"flagsmask_t\000"
 3637      736D6173 
 3637      6B5F7400 
 3638              	.LASF113:
 3639 0693 64617461 		.ascii	"data16\000"
 3639      313600
 3640              	.LASF97:
 3641 069a 46533152 		.ascii	"FS1R\000"
 3641      00
 3642              	.LASF35:
 3643 069f 705F6E61 		.ascii	"p_name\000"
 3643      6D6500
 3644              	.LASF145:
 3645 06a6 43435235 		.ascii	"CCR5\000"
 3645      00
 3646              	.LASF146:
 3647 06ab 43435236 		.ascii	"CCR6\000"
 3647      00
 3648              	.LASF60:
 3649 06b0 52656164 		.ascii	"ReadyList\000"
 3649      794C6973 
 3649      7400
 3650              	.LASF87:
 3651 06ba 43414E5F 		.ascii	"CAN_FIFOMailBox_TypeDef\000"
 3651      4649464F 
 3651      4D61696C 
 3651      426F785F 
 3651      54797065 
 3652              	.LASF178:
 3653 06d2 726C6973 		.ascii	"rlist\000"
 3653      7400
 3654              	.LASF12:
 3655 06d8 75696E74 		.ascii	"uint8_t\000"
 3655      385F7400 
 3656              	.LASF133:
 3657 06e0 50574D44 		.ascii	"PWMDriver\000"
 3657      72697665 
ARM GAS  C:\Users\DNIEL~1\AppData\Local\Temp\cc7q1ApJ.s 			page 71


 3657      7200
 3658              	.LASF122:
 3659 06ea 72787365 		.ascii	"rxsem\000"
 3659      6D00
 3660              	.LASF161:
 3661 06f0 43414E5F 		.ascii	"CAN_ML\000"
 3661      4D4C00
 3662              	.LASF132:
 3663 06f7 70776D73 		.ascii	"pwmstate_t\000"
 3663      74617465 
 3663      5F7400
 3664              	.LASF162:
 3665 0702 43414E5F 		.ascii	"CAN_RPY\000"
 3665      52505900 
 3666              	.LASF149:
 3667 070a 70776D63 		.ascii	"pwmcnt_t\000"
 3667      6E745F74 
 3667      00
 3668              	.LASF68:
 3669 0713 4576656E 		.ascii	"EventListener\000"
 3669      744C6973 
 3669      74656E65 
 3669      7200
 3670              	.LASF77:
 3671 0721 77746F62 		.ascii	"wtobjp\000"
 3671      6A7000
 3672              	.LASF89:
 3673 0728 52463052 		.ascii	"RF0R\000"
 3673      00
 3674              	.LASF111:
 3675 072d 63616E6D 		.ascii	"canmbx_t\000"
 3675      62785F74 
 3675      00
 3676              	.LASF74:
 3677 0736 65735F6E 		.ascii	"es_next\000"
 3677      65787400 
 3678              	.LASF18:
 3679 073e 746D6F64 		.ascii	"tmode_t\000"
 3679      655F7400 
 3680              	.LASF135:
 3681 0746 636C6F63 		.ascii	"clock\000"
 3681      6B00
 3682              	.LASF43:
 3683 074c 705F6D73 		.ascii	"p_msg\000"
 3683      6700
 3684              	.LASF171:
 3685 0752 696E6465 		.ascii	"indexTrue\000"
 3685      78547275 
 3685      6500
 3686              	.LASF85:
 3687 075c 52444C52 		.ascii	"RDLR\000"
 3687      00
 3688              	.LASF66:
 3689 0761 6D5F6F77 		.ascii	"m_owner\000"
 3689      6E657200 
 3690              	.LASF168:
 3691 0769 43414E5F 		.ascii	"CAN_JINDEX\000"
ARM GAS  C:\Users\DNIEL~1\AppData\Local\Temp\cc7q1ApJ.s 			page 72


 3691      4A494E44 
 3691      455800
 3692              	.LASF32:
 3693 0774 705F6374 		.ascii	"p_ctx\000"
 3693      7800
 3694              	.LASF41:
 3695 077a 705F7761 		.ascii	"p_waiting\000"
 3695      6974696E 
 3695      6700
 3696              	.LASF155:
 3697 0784 64696572 		.ascii	"dier\000"
 3697      00
 3698              		.ident	"GCC: (GNU Tools for ARM Embedded Processors) 4.7.4 20140401 (release) [ARM/embedded-4_7-br
ARM GAS  C:\Users\DNIEL~1\AppData\Local\Temp\cc7q1ApJ.s 			page 73


DEFINED SYMBOLS
                            *ABS*:00000000 can_comm.c
C:\Users\DNIEL~1\AppData\Local\Temp\cc7q1ApJ.s:19     .text.can_rx:00000000 $t
C:\Users\DNIEL~1\AppData\Local\Temp\cc7q1ApJ.s:24     .text.can_rx:00000000 can_rx
C:\Users\DNIEL~1\AppData\Local\Temp\cc7q1ApJ.s:103    .text.can_rx:00000060 $d
C:\Users\DNIEL~1\AppData\Local\Temp\cc7q1ApJ.s:112    .text.can_commInit:00000000 $t
C:\Users\DNIEL~1\AppData\Local\Temp\cc7q1ApJ.s:118    .text.can_commInit:00000000 can_commInit
C:\Users\DNIEL~1\AppData\Local\Temp\cc7q1ApJ.s:161    .rodata.cancfg:00000000 .LANCHOR1
C:\Users\DNIEL~1\AppData\Local\Temp\cc7q1ApJ.s:191    .bss.can_rx_wa:00000000 .LANCHOR2
C:\Users\DNIEL~1\AppData\Local\Temp\cc7q1ApJ.s:171    .bss.canuzenet:00000000 canuzenet
C:\Users\DNIEL~1\AppData\Local\Temp\cc7q1ApJ.s:180    .bss.canstate:00000000 canstate
C:\Users\DNIEL~1\AppData\Local\Temp\cc7q1ApJ.s:160    .rodata.cancfg:00000000 $d
C:\Users\DNIEL~1\AppData\Local\Temp\cc7q1ApJ.s:164    .rodata.cancfg:00000000 cancfg
C:\Users\DNIEL~1\AppData\Local\Temp\cc7q1ApJ.s:168    .bss.canuzenet:00000000 $d
C:\Users\DNIEL~1\AppData\Local\Temp\cc7q1ApJ.s:174    .rodata.str1.4:00000000 $d
C:\Users\DNIEL~1\AppData\Local\Temp\cc7q1ApJ.s:181    .bss.canstate:00000000 $d
C:\Users\DNIEL~1\AppData\Local\Temp\cc7q1ApJ.s:183    .bss.rxmsg:00000000 $d
C:\Users\DNIEL~1\AppData\Local\Temp\cc7q1ApJ.s:187    .bss.rxmsg:00000000 rxmsg
C:\Users\DNIEL~1\AppData\Local\Temp\cc7q1ApJ.s:190    .bss.can_rx_wa:00000000 $d
C:\Users\DNIEL~1\AppData\Local\Temp\cc7q1ApJ.s:194    .bss.can_rx_wa:00000000 can_rx_wa
                     .debug_frame:00000010 $d
C:\Users\DNIEL~1\AppData\Local\Temp\cc7q1ApJ.s:111    .text.can_rx:00000074 $t

UNDEFINED SYMBOLS
chEvtRegisterMask
chEvtWaitAnyTimeout
Light_state
canReceive
chEvtUnregister
rlist
CAND1
canStart
chThdCreateStatic
