ARM GAS  C:\Users\srich\AppData\Local\Temp\ccLRow4q.s 			page 1


   1              		.syntax unified
   2              		.cpu cortex-m4
   3              		.fpu softvfp
   4              		.eabi_attribute 20, 1
   5              		.eabi_attribute 21, 1
   6              		.eabi_attribute 23, 3
   7              		.eabi_attribute 24, 1
   8              		.eabi_attribute 25, 1
   9              		.eabi_attribute 26, 1
  10              		.eabi_attribute 30, 2
  11              		.eabi_attribute 34, 1
  12              		.eabi_attribute 18, 4
  13              		.thumb
  14              		.file	"chcond.c"
  15              		.text
  16              	.Ltext0:
  17              		.cfi_sections	.debug_frame
  18              		.section	.text.chCondInit,"ax",%progbits
  19              		.align	2
  20              		.p2align 4,,15
  21              		.global	chCondInit
  22              		.thumb
  23              		.thumb_func
  24              		.type	chCondInit, %function
  25              	chCondInit:
  26              	.LFB7:
  27              		.file 1 "c:\\ChibiStudio\\chibios/os/kernel/src/chcond.c"
  28              		.loc 1 59 0
  29              		.cfi_startproc
  30              		@ args = 0, pretend = 0, frame = 0
  31              		@ frame_needed = 0, uses_anonymous_args = 0
  32              		@ link register save eliminated.
  33              	.LVL0:
  34              		.loc 1 63 0
  35 0000 4060     		str	r0, [r0, #4]
  36 0002 0060     		str	r0, [r0, #0]
  37 0004 7047     		bx	lr
  38              		.cfi_endproc
  39              	.LFE7:
  40              		.size	chCondInit, .-chCondInit
  41 0006 00BFAFF3 		.section	.text.chCondSignal,"ax",%progbits
  41      0080AFF3 
  41      0080
  42              		.align	2
  43              		.p2align 4,,15
  44              		.global	chCondSignal
  45              		.thumb
  46              		.thumb_func
  47              		.type	chCondSignal, %function
  48              	chCondSignal:
  49              	.LFB8:
  50              		.loc 1 73 0
  51              		.cfi_startproc
  52              		@ args = 0, pretend = 0, frame = 0
  53              		@ frame_needed = 0, uses_anonymous_args = 0
  54              	.LVL1:
  55 0000 08B5     		push	{r3, lr}
ARM GAS  C:\Users\srich\AppData\Local\Temp\ccLRow4q.s 			page 2


  56              	.LCFI0:
  57              		.cfi_def_cfa_offset 8
  58              		.cfi_offset 3, -8
  59              		.cfi_offset 14, -4
  60              		.loc 1 73 0
  61 0002 0246     		mov	r2, r0
  62              	.LBB14:
  63              		.loc 1 77 0
  64 0004 2023     		movs	r3, #32
  65              	.LVL2:
  66              	@ 77 "c:\ChibiStudio\chibios/os/kernel/src/chcond.c" 1
  67 0006 83F31188 		msr     BASEPRI, r3
  68              	@ 0 "" 2
  69              	.LVL3:
  70              		.thumb
  71              	.LBE14:
  72              		.loc 1 78 0
  73 000a 0068     		ldr	r0, [r0, #0]
  74              	.LVL4:
  75 000c 9042     		cmp	r0, r2
  76 000e 05D0     		beq	.L3
  77              	.LVL5:
  78              	.LBB15:
  79              	.LBB16:
  80              		.file 2 "c:\\ChibiStudio\\chibios/os/kernel/include/chinline.h"
  81              		.loc 2 62 0
  82 0010 0368     		ldr	r3, [r0, #0]
  83              	.LVL6:
  84              	.LBE16:
  85              	.LBE15:
  86              		.loc 1 79 0
  87 0012 0021     		movs	r1, #0
  88              	.LBB18:
  89              	.LBB17:
  90              		.loc 2 62 0
  91 0014 1360     		str	r3, [r2, #0]
  92 0016 5A60     		str	r2, [r3, #4]
  93              	.LBE17:
  94              	.LBE18:
  95              		.loc 1 79 0
  96 0018 FFF7FEFF 		bl	chSchWakeupS
  97              	.LVL7:
  98              	.L3:
  99              	.LBB19:
 100              		.loc 1 80 0
 101 001c 0023     		movs	r3, #0
 102              	.LVL8:
 103              	@ 80 "c:\ChibiStudio\chibios/os/kernel/src/chcond.c" 1
 104 001e 83F31188 		msr     BASEPRI, r3
 105              	@ 0 "" 2
 106              	.LVL9:
 107              		.thumb
 108 0022 08BD     		pop	{r3, pc}
 109              	.LBE19:
 110              		.cfi_endproc
 111              	.LFE8:
 112              		.size	chCondSignal, .-chCondSignal
ARM GAS  C:\Users\srich\AppData\Local\Temp\ccLRow4q.s 			page 3


 113 0024 AFF30080 		.section	.text.chCondSignalI,"ax",%progbits
 113      AFF30080 
 113      AFF30080 
 114              		.align	2
 115              		.p2align 4,,15
 116              		.global	chCondSignalI
 117              		.thumb
 118              		.thumb_func
 119              		.type	chCondSignalI, %function
 120              	chCondSignalI:
 121              	.LFB9:
 122              		.loc 1 94 0
 123              		.cfi_startproc
 124              		@ args = 0, pretend = 0, frame = 0
 125              		@ frame_needed = 0, uses_anonymous_args = 0
 126              	.LVL10:
 127 0000 08B5     		push	{r3, lr}
 128              	.LCFI1:
 129              		.cfi_def_cfa_offset 8
 130              		.cfi_offset 3, -8
 131              		.cfi_offset 14, -4
 132              		.loc 1 94 0
 133 0002 0346     		mov	r3, r0
 134              		.loc 1 99 0
 135 0004 0068     		ldr	r0, [r0, #0]
 136              	.LVL11:
 137 0006 9842     		cmp	r0, r3
 138 0008 06D0     		beq	.L5
 139              	.LVL12:
 140              	.LBB20:
 141              	.LBB21:
 142              		.loc 2 62 0
 143 000a 0268     		ldr	r2, [r0, #0]
 144 000c 1A60     		str	r2, [r3, #0]
 145 000e 5360     		str	r3, [r2, #4]
 146              	.LBE21:
 147              	.LBE20:
 148              		.loc 1 100 0
 149 0010 FFF7FEFF 		bl	chSchReadyI
 150              	.LVL13:
 151 0014 0021     		movs	r1, #0
 152 0016 4162     		str	r1, [r0, #36]
 153              	.LVL14:
 154              	.L5:
 155 0018 08BD     		pop	{r3, pc}
 156              		.cfi_endproc
 157              	.LFE9:
 158              		.size	chCondSignalI, .-chCondSignalI
 159 001a 00BFAFF3 		.section	.text.chCondBroadcastI,"ax",%progbits
 159      0080
 160              		.align	2
 161              		.p2align 4,,15
 162              		.global	chCondBroadcastI
 163              		.thumb
 164              		.thumb_func
 165              		.type	chCondBroadcastI, %function
 166              	chCondBroadcastI:
ARM GAS  C:\Users\srich\AppData\Local\Temp\ccLRow4q.s 			page 4


 167              	.LFB11:
 168              		.loc 1 129 0
 169              		.cfi_startproc
 170              		@ args = 0, pretend = 0, frame = 0
 171              		@ frame_needed = 0, uses_anonymous_args = 0
 172              	.LVL15:
 173 0000 38B5     		push	{r3, r4, r5, lr}
 174              	.LCFI2:
 175              		.cfi_def_cfa_offset 16
 176              		.cfi_offset 3, -16
 177              		.cfi_offset 4, -12
 178              		.cfi_offset 5, -8
 179              		.cfi_offset 14, -4
 180              		.loc 1 129 0
 181 0002 0446     		mov	r4, r0
 182              		.loc 1 137 0
 183 0004 0068     		ldr	r0, [r0, #0]
 184              	.LVL16:
 185 0006 A042     		cmp	r0, r4
 186 0008 0AD0     		beq	.L7
 187              		.loc 1 138 0
 188 000a 6FF00105 		mvn	r5, #1
 189              	.L11:
 190              	.LVL17:
 191              	.LBB22:
 192              	.LBB23:
 193              		.loc 2 62 0
 194 000e 0368     		ldr	r3, [r0, #0]
 195 0010 2360     		str	r3, [r4, #0]
 196 0012 5C60     		str	r4, [r3, #4]
 197              	.LBE23:
 198              	.LBE22:
 199              		.loc 1 138 0
 200 0014 FFF7FEFF 		bl	chSchReadyI
 201              	.LVL18:
 202 0018 4562     		str	r5, [r0, #36]
 203              		.loc 1 137 0
 204 001a 2068     		ldr	r0, [r4, #0]
 205 001c A042     		cmp	r0, r4
 206 001e F6D1     		bne	.L11
 207              	.LVL19:
 208              	.L7:
 209 0020 38BD     		pop	{r3, r4, r5, pc}
 210              		.cfi_endproc
 211              	.LFE11:
 212              		.size	chCondBroadcastI, .-chCondBroadcastI
 213 0022 00BFAFF3 		.section	.text.chCondBroadcast,"ax",%progbits
 213      0080AFF3 
 213      0080AFF3 
 213      0080
 214              		.align	2
 215              		.p2align 4,,15
 216              		.global	chCondBroadcast
 217              		.thumb
 218              		.thumb_func
 219              		.type	chCondBroadcast, %function
 220              	chCondBroadcast:
ARM GAS  C:\Users\srich\AppData\Local\Temp\ccLRow4q.s 			page 5


 221              	.LFB10:
 222              		.loc 1 110 0
 223              		.cfi_startproc
 224              		@ args = 0, pretend = 0, frame = 0
 225              		@ frame_needed = 0, uses_anonymous_args = 0
 226              	.LVL20:
 227 0000 08B5     		push	{r3, lr}
 228              	.LCFI3:
 229              		.cfi_def_cfa_offset 8
 230              		.cfi_offset 3, -8
 231              		.cfi_offset 14, -4
 232              	.LBB24:
 233              		.loc 1 112 0
 234 0002 2023     		movs	r3, #32
 235              	.LVL21:
 236              	@ 112 "c:\ChibiStudio\chibios/os/kernel/src/chcond.c" 1
 237 0004 83F31188 		msr     BASEPRI, r3
 238              	@ 0 "" 2
 239              	.LVL22:
 240              		.thumb
 241              	.LBE24:
 242              		.loc 1 113 0
 243 0008 FFF7FEFF 		bl	chCondBroadcastI
 244              	.LVL23:
 245              		.loc 1 114 0
 246 000c FFF7FEFF 		bl	chSchRescheduleS
 247              	.LVL24:
 248              	.LBB25:
 249              		.loc 1 115 0
 250 0010 0023     		movs	r3, #0
 251              	.LVL25:
 252              	@ 115 "c:\ChibiStudio\chibios/os/kernel/src/chcond.c" 1
 253 0012 83F31188 		msr     BASEPRI, r3
 254              	@ 0 "" 2
 255              	.LVL26:
 256              		.thumb
 257 0016 08BD     		pop	{r3, pc}
 258              	.LBE25:
 259              		.cfi_endproc
 260              	.LFE10:
 261              		.size	chCondBroadcast, .-chCondBroadcast
 262 0018 AFF30080 		.section	.text.chCondWaitS,"ax",%progbits
 262      AFF30080 
 263              		.align	2
 264              		.p2align 4,,15
 265              		.global	chCondWaitS
 266              		.thumb
 267              		.thumb_func
 268              		.type	chCondWaitS, %function
 269              	chCondWaitS:
 270              	.LFB13:
 271              		.loc 1 184 0
 272              		.cfi_startproc
 273              		@ args = 0, pretend = 0, frame = 0
 274              		@ frame_needed = 0, uses_anonymous_args = 0
 275              	.LVL27:
 276 0000 F8B5     		push	{r3, r4, r5, r6, r7, lr}
ARM GAS  C:\Users\srich\AppData\Local\Temp\ccLRow4q.s 			page 6


 277              	.LCFI4:
 278              		.cfi_def_cfa_offset 24
 279              		.cfi_offset 3, -24
 280              		.cfi_offset 4, -20
 281              		.cfi_offset 5, -16
 282              		.cfi_offset 6, -12
 283              		.cfi_offset 7, -8
 284              		.cfi_offset 14, -4
 285              		.loc 1 185 0
 286 0002 104B     		ldr	r3, .L22
 287              		.loc 1 184 0
 288 0004 0546     		mov	r5, r0
 289              		.loc 1 185 0
 290 0006 9C69     		ldr	r4, [r3, #24]
 291              	.LVL28:
 292              		.loc 1 195 0
 293 0008 FFF7FEFF 		bl	chMtxUnlockS
 294              	.LVL29:
 295              		.loc 1 197 0
 296 000c 2E46     		mov	r6, r5
 297              		.loc 1 195 0
 298 000e 0746     		mov	r7, r0
 299              	.LVL30:
 300              		.loc 1 196 0
 301 0010 6562     		str	r5, [r4, #36]
 302              		.loc 2 43 0
 303 0012 2846     		mov	r0, r5
 304              	.LVL31:
 305 0014 03E0     		b	.L16
 306              	.LVL32:
 307              	.L21:
 308              	.LBB26:
 309              	.LBB27:
 310              		.loc 2 46 0
 311 0016 8168     		ldr	r1, [r0, #8]
 312 0018 A268     		ldr	r2, [r4, #8]
 313 001a 9142     		cmp	r1, r2
 314 001c 10D3     		bcc	.L20
 315              	.L16:
 316              		.loc 2 45 0
 317 001e 0068     		ldr	r0, [r0, #0]
 318              	.LVL33:
 319              		.loc 2 46 0
 320 0020 8542     		cmp	r5, r0
 321 0022 F8D1     		bne	.L21
 322              	.L17:
 323              		.loc 2 48 0
 324 0024 7368     		ldr	r3, [r6, #4]
 325              		.loc 2 47 0
 326 0026 2660     		str	r6, [r4, #0]
 327              		.loc 2 48 0
 328 0028 6360     		str	r3, [r4, #4]
 329              		.loc 2 49 0
 330 002a 1C60     		str	r4, [r3, #0]
 331 002c 7460     		str	r4, [r6, #4]
 332              	.LBE27:
 333              	.LBE26:
ARM GAS  C:\Users\srich\AppData\Local\Temp\ccLRow4q.s 			page 7


 334              		.loc 1 198 0
 335 002e 0520     		movs	r0, #5
 336              	.LVL34:
 337 0030 FFF7FEFF 		bl	chSchGoSleepS
 338              	.LVL35:
 339              		.loc 1 199 0
 340 0034 646A     		ldr	r4, [r4, #36]
 341              	.LVL36:
 342              		.loc 1 200 0
 343 0036 3846     		mov	r0, r7
 344 0038 FFF7FEFF 		bl	chMtxLockS
 345              	.LVL37:
 346              		.loc 1 202 0
 347 003c 2046     		mov	r0, r4
 348 003e F8BD     		pop	{r3, r4, r5, r6, r7, pc}
 349              	.LVL38:
 350              	.L20:
 351              	.LBB29:
 352              	.LBB28:
 353              		.loc 2 46 0
 354 0040 0646     		mov	r6, r0
 355 0042 EFE7     		b	.L17
 356              	.L23:
 357              		.align	2
 358              	.L22:
 359 0044 00000000 		.word	rlist
 360              	.LBE28:
 361              	.LBE29:
 362              		.cfi_endproc
 363              	.LFE13:
 364              		.size	chCondWaitS, .-chCondWaitS
 365 0048 AFF30080 		.section	.text.chCondWait,"ax",%progbits
 365      AFF30080 
 366              		.align	2
 367              		.p2align 4,,15
 368              		.global	chCondWait
 369              		.thumb
 370              		.thumb_func
 371              		.type	chCondWait, %function
 372              	chCondWait:
 373              	.LFB12:
 374              		.loc 1 158 0
 375              		.cfi_startproc
 376              		@ args = 0, pretend = 0, frame = 0
 377              		@ frame_needed = 0, uses_anonymous_args = 0
 378              	.LVL39:
 379 0000 08B5     		push	{r3, lr}
 380              	.LCFI5:
 381              		.cfi_def_cfa_offset 8
 382              		.cfi_offset 3, -8
 383              		.cfi_offset 14, -4
 384              	.LBB30:
 385              		.loc 1 161 0
 386 0002 2023     		movs	r3, #32
 387              	.LVL40:
 388              	@ 161 "c:\ChibiStudio\chibios/os/kernel/src/chcond.c" 1
 389 0004 83F31188 		msr     BASEPRI, r3
ARM GAS  C:\Users\srich\AppData\Local\Temp\ccLRow4q.s 			page 8


 390              	@ 0 "" 2
 391              	.LVL41:
 392              		.thumb
 393              	.LBE30:
 394              		.loc 1 162 0
 395 0008 FFF7FEFF 		bl	chCondWaitS
 396              	.LVL42:
 397              	.LBB31:
 398              		.loc 1 163 0
 399 000c 0023     		movs	r3, #0
 400              	.LVL43:
 401              	@ 163 "c:\ChibiStudio\chibios/os/kernel/src/chcond.c" 1
 402 000e 83F31188 		msr     BASEPRI, r3
 403              	@ 0 "" 2
 404              	.LVL44:
 405              		.thumb
 406              	.LBE31:
 407              		.loc 1 165 0
 408 0012 08BD     		pop	{r3, pc}
 409              		.cfi_endproc
 410              	.LFE12:
 411              		.size	chCondWait, .-chCondWait
 412 0014 AFF30080 		.section	.text.chCondWaitTimeoutS,"ax",%progbits
 412      AFF30080 
 412      AFF30080 
 413              		.align	2
 414              		.p2align 4,,15
 415              		.global	chCondWaitTimeoutS
 416              		.thumb
 417              		.thumb_func
 418              		.type	chCondWaitTimeoutS, %function
 419              	chCondWaitTimeoutS:
 420              	.LFB15:
 421              		.loc 1 270 0
 422              		.cfi_startproc
 423              		@ args = 0, pretend = 0, frame = 0
 424              		@ frame_needed = 0, uses_anonymous_args = 0
 425              	.LVL45:
 426 0000 2DE9F041 		push	{r4, r5, r6, r7, r8, lr}
 427              	.LCFI6:
 428              		.cfi_def_cfa_offset 24
 429              		.cfi_offset 4, -24
 430              		.cfi_offset 5, -20
 431              		.cfi_offset 6, -16
 432              		.cfi_offset 7, -12
 433              		.cfi_offset 8, -8
 434              		.cfi_offset 14, -4
 435              		.loc 1 270 0
 436 0004 0646     		mov	r6, r0
 437 0006 8846     		mov	r8, r1
 438              		.loc 1 280 0
 439 0008 FFF7FEFF 		bl	chMtxUnlockS
 440              	.LVL46:
 441              		.loc 1 281 0
 442 000c 0E4B     		ldr	r3, .L32
 443 000e 9A69     		ldr	r2, [r3, #24]
 444              		.loc 1 280 0
ARM GAS  C:\Users\srich\AppData\Local\Temp\ccLRow4q.s 			page 9


 445 0010 0746     		mov	r7, r0
 446              	.LVL47:
 447              		.loc 2 43 0
 448 0012 3346     		mov	r3, r6
 449              		.loc 1 281 0
 450 0014 5662     		str	r6, [r2, #36]
 451              	.LVL48:
 452              	.L29:
 453              	.LBB32:
 454              	.LBB33:
 455              		.loc 2 45 0
 456 0016 1B68     		ldr	r3, [r3, #0]
 457              	.LVL49:
 458              		.loc 2 46 0
 459 0018 9E42     		cmp	r6, r3
 460 001a 03D0     		beq	.L30
 461 001c 9D68     		ldr	r5, [r3, #8]
 462 001e 9468     		ldr	r4, [r2, #8]
 463 0020 A542     		cmp	r5, r4
 464 0022 F8D2     		bcs	.L29
 465              	.L30:
 466              		.loc 2 48 0
 467 0024 5C68     		ldr	r4, [r3, #4]
 468              	.LBE33:
 469              	.LBE32:
 470              		.loc 1 283 0
 471 0026 0520     		movs	r0, #5
 472              	.LVL50:
 473              	.LBB36:
 474              	.LBB34:
 475              		.loc 2 48 0
 476 0028 82E81800 		stmia	r2, {r3, r4}
 477              	.LBE34:
 478              	.LBE36:
 479              		.loc 1 283 0
 480 002c 4146     		mov	r1, r8
 481              	.LBB37:
 482              	.LBB35:
 483              		.loc 2 49 0
 484 002e 2260     		str	r2, [r4, #0]
 485 0030 5A60     		str	r2, [r3, #4]
 486              	.LBE35:
 487              	.LBE37:
 488              		.loc 1 283 0
 489 0032 FFF7FEFF 		bl	chSchGoSleepTimeoutS
 490              	.LVL51:
 491              		.loc 1 284 0
 492 0036 431C     		adds	r3, r0, #1
 493              		.loc 1 283 0
 494 0038 0446     		mov	r4, r0
 495              	.LVL52:
 496              		.loc 1 284 0
 497 003a 02D0     		beq	.L28
 498              		.loc 1 285 0
 499 003c 3846     		mov	r0, r7
 500              	.LVL53:
 501 003e FFF7FEFF 		bl	chMtxLockS
ARM GAS  C:\Users\srich\AppData\Local\Temp\ccLRow4q.s 			page 10


 502              	.LVL54:
 503              	.L28:
 504              		.loc 1 287 0
 505 0042 2046     		mov	r0, r4
 506 0044 BDE8F081 		pop	{r4, r5, r6, r7, r8, pc}
 507              	.L33:
 508              		.align	2
 509              	.L32:
 510 0048 00000000 		.word	rlist
 511              		.cfi_endproc
 512              	.LFE15:
 513              		.size	chCondWaitTimeoutS, .-chCondWaitTimeoutS
 514 004c AFF30080 		.section	.text.chCondWaitTimeout,"ax",%progbits
 515              		.align	2
 516              		.p2align 4,,15
 517              		.global	chCondWaitTimeout
 518              		.thumb
 519              		.thumb_func
 520              		.type	chCondWaitTimeout, %function
 521              	chCondWaitTimeout:
 522              	.LFB14:
 523              		.loc 1 233 0
 524              		.cfi_startproc
 525              		@ args = 0, pretend = 0, frame = 0
 526              		@ frame_needed = 0, uses_anonymous_args = 0
 527              	.LVL55:
 528 0000 08B5     		push	{r3, lr}
 529              	.LCFI7:
 530              		.cfi_def_cfa_offset 8
 531              		.cfi_offset 3, -8
 532              		.cfi_offset 14, -4
 533              	.LBB38:
 534              		.loc 1 236 0
 535 0002 2023     		movs	r3, #32
 536              	.LVL56:
 537              	@ 236 "c:\ChibiStudio\chibios/os/kernel/src/chcond.c" 1
 538 0004 83F31188 		msr     BASEPRI, r3
 539              	@ 0 "" 2
 540              	.LVL57:
 541              		.thumb
 542              	.LBE38:
 543              		.loc 1 237 0
 544 0008 FFF7FEFF 		bl	chCondWaitTimeoutS
 545              	.LVL58:
 546              	.LBB39:
 547              		.loc 1 238 0
 548 000c 0023     		movs	r3, #0
 549              	.LVL59:
 550              	@ 238 "c:\ChibiStudio\chibios/os/kernel/src/chcond.c" 1
 551 000e 83F31188 		msr     BASEPRI, r3
 552              	@ 0 "" 2
 553              	.LVL60:
 554              		.thumb
 555              	.LBE39:
 556              		.loc 1 240 0
 557 0012 08BD     		pop	{r3, pc}
 558              		.cfi_endproc
ARM GAS  C:\Users\srich\AppData\Local\Temp\ccLRow4q.s 			page 11


 559              	.LFE14:
 560              		.size	chCondWaitTimeout, .-chCondWaitTimeout
 561 0014 AFF30080 		.text
 561      AFF30080 
 561      AFF30080 
 562              	.Letext0:
 563              		.file 3 "c:\\chibistudio\\tools\\gnu tools arm embedded\\4.7 2014q2\\bin\\../lib/gcc/arm-none-eabi
 564              		.file 4 "c:\\ChibiStudio\\chibios/os/ports/GCC/ARMCMx/chtypes.h"
 565              		.file 5 "c:\\ChibiStudio\\chibios/os/kernel/include/chlists.h"
 566              		.file 6 "c:\\ChibiStudio\\chibios/os/kernel/include/chthreads.h"
 567              		.file 7 "c:\\ChibiStudio\\chibios/os/ports/GCC/ARMCMx/chcore_v7m.h"
 568              		.file 8 "c:\\ChibiStudio\\chibios/os/kernel/include/chschd.h"
 569              		.file 9 "c:\\ChibiStudio\\chibios/os/kernel/include/chmtx.h"
 570              		.file 10 "c:\\ChibiStudio\\chibios/os/kernel/include/chcond.h"