ARM GAS  C:\Users\DNIEL~1\AppData\Local\Temp\cctwQT4l.s 			page 1


   1              		.syntax unified
   2              		.cpu cortex-m3
   3              		.fpu softvfp
   4              		.eabi_attribute 20, 1
   5              		.eabi_attribute 21, 1
   6              		.eabi_attribute 23, 3
   7              		.eabi_attribute 24, 1
   8              		.eabi_attribute 25, 1
   9              		.eabi_attribute 26, 1
  10              		.eabi_attribute 30, 2
  11              		.eabi_attribute 18, 4
  12              		.thumb
  13              		.file	"chdynamic.c"
  14              		.section	.debug_abbrev,"",%progbits
  15              	.Ldebug_abbrev0:
  16              		.section	.debug_info,"",%progbits
  17              	.Ldebug_info0:
  18              		.section	.debug_line,"",%progbits
  19              	.Ldebug_line0:
  20 0000 9B020000 		.text
  20      0200EC01 
  20      00000201 
  20      FB0E0D00 
  20      01010101 
  21              	.Ltext0:
  22              		.cfi_sections	.debug_frame
  23              		.section	.text.chThdAddRef,"ax",%progbits
  24              		.align	2
  25              		.p2align 4,,15
  26              		.global	chThdAddRef
  27              		.thumb
  28              		.thumb_func
  29              		.type	chThdAddRef, %function
  30              	chThdAddRef:
  31              	.LFB7:
  32              		.file 1 "../../../ChibiOS/os/kernel/src/chdynamic.c"
  33              		.loc 1 45 0
  34              		.cfi_startproc
  35              		@ args = 0, pretend = 0, frame = 0
  36              		@ frame_needed = 0, uses_anonymous_args = 0
  37              	.LVL0:
  38 0000 10B5     		push	{r4, lr}
  39              	.LCFI0:
  40              		.cfi_def_cfa_offset 8
  41              	.LBB2:
  42              		.loc 1 47 0
  43 0002 2023     		movs	r3, #32
  44              	.LVL1:
  45              	.LBE2:
  46              		.loc 1 45 0
  47 0004 0446     		mov	r4, r0
  48              		.cfi_offset 14, -4
  49              		.cfi_offset 4, -8
  50              	.LBB3:
  51              		.loc 1 47 0
  52              	@ 47 "../../../ChibiOS/os/kernel/src/chdynamic.c" 1
  53 0006 83F31188 		msr     BASEPRI, r3
ARM GAS  C:\Users\DNIEL~1\AppData\Local\Temp\cctwQT4l.s 			page 2


  54              	@ 0 "" 2
  55              	.LVL2:
  56              		.thumb
  57              	.LBE3:
  58 000a FFF7FEFF 		bl	dbg_check_lock
  59              	.LVL3:
  60              		.loc 1 48 0
  61 000e 94F82230 		ldrb	r3, [r4, #34]	@ zero_extendqisi2
  62 0012 FF2B     		cmp	r3, #255
  63 0014 09D0     		beq	.L4
  64              		.loc 1 49 0
  65 0016 0133     		adds	r3, r3, #1
  66 0018 84F82230 		strb	r3, [r4, #34]
  67              		.loc 1 50 0
  68 001c FFF7FEFF 		bl	dbg_check_unlock
  69              	.LBB4:
  70 0020 0023     		movs	r3, #0
  71              	.LVL4:
  72              	@ 50 "../../../ChibiOS/os/kernel/src/chdynamic.c" 1
  73 0022 83F31188 		msr     BASEPRI, r3
  74              	@ 0 "" 2
  75              	.LVL5:
  76              		.thumb
  77              	.LBE4:
  78              		.loc 1 52 0
  79 0026 2046     		mov	r0, r4
  80 0028 10BD     		pop	{r4, pc}
  81              	.LVL6:
  82              	.L4:
  83              		.loc 1 48 0 discriminator 1
  84 002a 0748     		ldr	r0, .L5
  85 002c FFF7FEFF 		bl	chDbgPanic
  86 0030 94F82230 		ldrb	r3, [r4, #34]	@ zero_extendqisi2
  87              		.loc 1 49 0 discriminator 1
  88 0034 0133     		adds	r3, r3, #1
  89 0036 84F82230 		strb	r3, [r4, #34]
  90              		.loc 1 50 0 discriminator 1
  91 003a FFF7FEFF 		bl	dbg_check_unlock
  92              	.LBB5:
  93 003e 0023     		movs	r3, #0
  94              	@ 50 "../../../ChibiOS/os/kernel/src/chdynamic.c" 1
  95 0040 83F31188 		msr     BASEPRI, r3
  96              	@ 0 "" 2
  97              	.LVL7:
  98              		.thumb
  99              	.LBE5:
 100              		.loc 1 52 0 discriminator 1
 101 0044 2046     		mov	r0, r4
 102 0046 10BD     		pop	{r4, pc}
 103              	.L6:
 104              		.align	2
 105              	.L5:
 106 0048 00000000 		.word	.LC0
 107              		.cfi_endproc
 108              	.LFE7:
 109              		.size	chThdAddRef, .-chThdAddRef
 110 004c AFF30080 		.section	.text.chThdRelease,"ax",%progbits
ARM GAS  C:\Users\DNIEL~1\AppData\Local\Temp\cctwQT4l.s 			page 3


 111              		.align	2
 112              		.p2align 4,,15
 113              		.global	chThdRelease
 114              		.thumb
 115              		.thumb_func
 116              		.type	chThdRelease, %function
 117              	chThdRelease:
 118              	.LFB8:
 119              		.loc 1 67 0
 120              		.cfi_startproc
 121              		@ args = 0, pretend = 0, frame = 0
 122              		@ frame_needed = 0, uses_anonymous_args = 0
 123              	.LVL8:
 124 0000 70B5     		push	{r4, r5, r6, lr}
 125              	.LCFI1:
 126              		.cfi_def_cfa_offset 16
 127              	.LBB6:
 128              		.loc 1 70 0
 129 0002 2023     		movs	r3, #32
 130              	.LVL9:
 131              	.LBE6:
 132              		.loc 1 67 0
 133 0004 0446     		mov	r4, r0
 134              		.cfi_offset 14, -4
 135              		.cfi_offset 6, -8
 136              		.cfi_offset 5, -12
 137              		.cfi_offset 4, -16
 138              	.LBB7:
 139              		.loc 1 70 0
 140              	@ 70 "../../../ChibiOS/os/kernel/src/chdynamic.c" 1
 141 0006 83F31188 		msr     BASEPRI, r3
 142              	@ 0 "" 2
 143              	.LVL10:
 144              		.thumb
 145              	.LBE7:
 146 000a FFF7FEFF 		bl	dbg_check_lock
 147              	.LVL11:
 148              		.loc 1 71 0
 149 000e 94F82250 		ldrb	r5, [r4, #34]	@ zero_extendqisi2
 150 0012 002D     		cmp	r5, #0
 151 0014 21D0     		beq	.L12
 152              	.L8:
 153              		.loc 1 72 0
 154 0016 013D     		subs	r5, r5, #1
 155 0018 EDB2     		uxtb	r5, r5
 156 001a 84F82250 		strb	r5, [r4, #34]
 157              	.LVL12:
 158              		.loc 1 73 0
 159 001e FFF7FEFF 		bl	dbg_check_unlock
 160              	.LBB8:
 161 0022 0023     		movs	r3, #0
 162              	.LVL13:
 163              	@ 73 "../../../ChibiOS/os/kernel/src/chdynamic.c" 1
 164 0024 83F31188 		msr     BASEPRI, r3
 165              	@ 0 "" 2
 166              	.LVL14:
 167              		.thumb
ARM GAS  C:\Users\DNIEL~1\AppData\Local\Temp\cctwQT4l.s 			page 4


 168              	.LBE8:
 169              		.loc 1 78 0
 170 0028 1DB9     		cbnz	r5, .L7
 171              		.loc 1 78 0 is_stmt 0 discriminator 1
 172 002a 94F82030 		ldrb	r3, [r4, #32]	@ zero_extendqisi2
 173              	.LVL15:
 174 002e 0E2B     		cmp	r3, #14
 175 0030 00D0     		beq	.L13
 176              	.LVL16:
 177              	.L7:
 178 0032 70BD     		pop	{r4, r5, r6, pc}
 179              	.LVL17:
 180              	.L13:
 181              		.loc 1 79 0 is_stmt 1
 182 0034 94F82100 		ldrb	r0, [r4, #33]	@ zero_extendqisi2
 183 0038 00F00303 		and	r3, r0, #3
 184 003c 012B     		cmp	r3, #1
 185 003e 12D0     		beq	.L10
 186 0040 022B     		cmp	r3, #2
 187 0042 F6D1     		bne	.L7
 188              		.loc 1 91 0
 189 0044 6369     		ldr	r3, [r4, #20]
 190 0046 2169     		ldr	r1, [r4, #16]
 191              		.loc 1 93 0
 192 0048 A06C     		ldr	r0, [r4, #72]
 193              		.loc 1 91 0
 194 004a 1961     		str	r1, [r3, #16]
 195 004c 2269     		ldr	r2, [r4, #16]
 196              		.loc 1 93 0
 197 004e 2146     		mov	r1, r4
 198              		.loc 1 91 0
 199 0050 5361     		str	r3, [r2, #20]
 200              		.loc 1 98 0
 201 0052 BDE87040 		pop	{r4, r5, r6, lr}
 202              		.loc 1 93 0
 203 0056 FFF7FEBF 		b	chPoolFree
 204              	.LVL18:
 205              	.L12:
 206              		.loc 1 71 0 discriminator 1
 207 005a 0848     		ldr	r0, .L14
 208 005c FFF7FEFF 		bl	chDbgPanic
 209 0060 94F82250 		ldrb	r5, [r4, #34]	@ zero_extendqisi2
 210 0064 D7E7     		b	.L8
 211              	.LVL19:
 212              	.L10:
 213              		.loc 1 83 0
 214 0066 6169     		ldr	r1, [r4, #20]
 215 0068 2369     		ldr	r3, [r4, #16]
 216              		.loc 1 85 0
 217 006a 2046     		mov	r0, r4
 218              		.loc 1 83 0
 219 006c 0B61     		str	r3, [r1, #16]
 220 006e 2269     		ldr	r2, [r4, #16]
 221 0070 5161     		str	r1, [r2, #20]
 222              		.loc 1 98 0
 223 0072 BDE87040 		pop	{r4, r5, r6, lr}
 224              		.loc 1 85 0
ARM GAS  C:\Users\DNIEL~1\AppData\Local\Temp\cctwQT4l.s 			page 5


 225 0076 FFF7FEBF 		b	chHeapFree
 226              	.L15:
 227 007a 00BF     		.align	2
 228              	.L14:
 229 007c 14000000 		.word	.LC1
 230              		.cfi_endproc
 231              	.LFE8:
 232              		.size	chThdRelease, .-chThdRelease
 233              		.section	.text.chThdCreateFromHeap,"ax",%progbits
 234              		.align	2
 235              		.p2align 4,,15
 236              		.global	chThdCreateFromHeap
 237              		.thumb
 238              		.thumb_func
 239              		.type	chThdCreateFromHeap, %function
 240              	chThdCreateFromHeap:
 241              	.LFB9:
 242              		.loc 1 124 0
 243              		.cfi_startproc
 244              		@ args = 4, pretend = 0, frame = 0
 245              		@ frame_needed = 0, uses_anonymous_args = 0
 246              	.LVL20:
 247 0000 2DE9F041 		push	{r4, r5, r6, r7, r8, lr}
 248              	.LCFI2:
 249              		.cfi_def_cfa_offset 24
 250 0004 82B0     		sub	sp, sp, #8
 251              	.LCFI3:
 252              		.cfi_def_cfa_offset 32
 253              		.loc 1 124 0
 254 0006 0D46     		mov	r5, r1
 255              		.cfi_offset 14, -4
 256              		.cfi_offset 8, -8
 257              		.cfi_offset 7, -12
 258              		.cfi_offset 6, -16
 259              		.cfi_offset 5, -20
 260              		.cfi_offset 4, -24
 261 0008 1646     		mov	r6, r2
 262 000a 1F46     		mov	r7, r3
 263              		.loc 1 128 0
 264 000c FFF7FEFF 		bl	chHeapAlloc
 265              	.LVL21:
 266              		.loc 1 129 0
 267 0010 0446     		mov	r4, r0
 268 0012 18B3     		cbz	r0, .L17
 269              		.loc 1 133 0
 270 0014 00F14C08 		add	r8, r0, #76
 271 0018 4146     		mov	r1, r8
 272 001a FF22     		movs	r2, #255
 273 001c FFF7FEFF 		bl	_thread_memfill
 274              	.LVL22:
 275              		.loc 1 136 0
 276 0020 4046     		mov	r0, r8
 277 0022 6119     		adds	r1, r4, r5
 278 0024 5522     		movs	r2, #85
 279 0026 FFF7FEFF 		bl	_thread_memfill
 280              	.LBB9:
 281              		.loc 1 141 0
ARM GAS  C:\Users\DNIEL~1\AppData\Local\Temp\cctwQT4l.s 			page 6


 282 002a 2023     		movs	r3, #32
 283              	.LVL23:
 284              	@ 141 "../../../ChibiOS/os/kernel/src/chdynamic.c" 1
 285 002c 83F31188 		msr     BASEPRI, r3
 286              	@ 0 "" 2
 287              	.LVL24:
 288              		.thumb
 289              	.LBE9:
 290 0030 FFF7FEFF 		bl	dbg_check_lock
 291              	.LVL25:
 292              		.loc 1 142 0
 293 0034 2046     		mov	r0, r4
 294 0036 089C     		ldr	r4, [sp, #32]
 295              	.LVL26:
 296 0038 3246     		mov	r2, r6
 297 003a 3B46     		mov	r3, r7
 298 003c 2946     		mov	r1, r5
 299 003e 0094     		str	r4, [sp, #0]
 300 0040 FFF7FEFF 		bl	chThdCreateI
 301              	.LVL27:
 302              		.loc 1 143 0
 303 0044 0123     		movs	r3, #1
 304 0046 80F82130 		strb	r3, [r0, #33]
 305              		.loc 1 144 0
 306 004a 0021     		movs	r1, #0
 307              		.loc 1 142 0
 308 004c 0446     		mov	r4, r0
 309              	.LVL28:
 310              		.loc 1 144 0
 311 004e FFF7FEFF 		bl	chSchWakeupS
 312              	.LVL29:
 313              		.loc 1 145 0
 314 0052 FFF7FEFF 		bl	dbg_check_unlock
 315              	.LBB10:
 316 0056 0023     		movs	r3, #0
 317              	.LVL30:
 318              	@ 145 "../../../ChibiOS/os/kernel/src/chdynamic.c" 1
 319 0058 83F31188 		msr     BASEPRI, r3
 320              	@ 0 "" 2
 321              	.LVL31:
 322              		.thumb
 323              	.L17:
 324              	.LBE10:
 325              		.loc 1 147 0
 326 005c 2046     		mov	r0, r4
 327 005e 02B0     		add	sp, sp, #8
 328 0060 BDE8F081 		pop	{r4, r5, r6, r7, r8, pc}
 329              		.cfi_endproc
 330              	.LFE9:
 331              		.size	chThdCreateFromHeap, .-chThdCreateFromHeap
 332 0064 AFF30080 		.section	.text.chThdCreateFromMemoryPool,"ax",%progbits
 332      AFF30080 
 332      AFF30080 
 333              		.align	2
 334              		.p2align 4,,15
 335              		.global	chThdCreateFromMemoryPool
 336              		.thumb
ARM GAS  C:\Users\DNIEL~1\AppData\Local\Temp\cctwQT4l.s 			page 7


 337              		.thumb_func
 338              		.type	chThdCreateFromMemoryPool, %function
 339              	chThdCreateFromMemoryPool:
 340              	.LFB10:
 341              		.loc 1 173 0
 342              		.cfi_startproc
 343              		@ args = 0, pretend = 0, frame = 0
 344              		@ frame_needed = 0, uses_anonymous_args = 0
 345              	.LVL32:
 346 0000 2DE9F043 		push	{r4, r5, r6, r7, r8, r9, lr}
 347              	.LCFI4:
 348              		.cfi_def_cfa_offset 28
 349              		.loc 1 177 0
 350 0004 0446     		mov	r4, r0
 351              		.cfi_offset 14, -4
 352              		.cfi_offset 9, -8
 353              		.cfi_offset 8, -12
 354              		.cfi_offset 7, -16
 355              		.cfi_offset 6, -20
 356              		.cfi_offset 5, -24
 357              		.cfi_offset 4, -28
 358              		.loc 1 173 0
 359 0006 83B0     		sub	sp, sp, #12
 360              	.LCFI5:
 361              		.cfi_def_cfa_offset 40
 362              		.loc 1 173 0
 363 0008 0E46     		mov	r6, r1
 364 000a 1746     		mov	r7, r2
 365 000c 9846     		mov	r8, r3
 366              		.loc 1 177 0
 367 000e 0028     		cmp	r0, #0
 368 0010 2ED0     		beq	.L23
 369              	.LVL33:
 370              	.L20:
 371              		.loc 1 179 0
 372 0012 2046     		mov	r0, r4
 373 0014 FFF7FEFF 		bl	chPoolAlloc
 374              	.LVL34:
 375              		.loc 1 180 0
 376 0018 0546     		mov	r5, r0
 377 001a 28B3     		cbz	r0, .L21
 378              		.loc 1 184 0
 379 001c 00F14C09 		add	r9, r0, #76
 380 0020 4946     		mov	r1, r9
 381 0022 FF22     		movs	r2, #255
 382 0024 FFF7FEFF 		bl	_thread_memfill
 383              	.LVL35:
 384              		.loc 1 187 0
 385 0028 6168     		ldr	r1, [r4, #4]
 386 002a 4846     		mov	r0, r9
 387 002c 6918     		adds	r1, r5, r1
 388 002e 5522     		movs	r2, #85
 389 0030 FFF7FEFF 		bl	_thread_memfill
 390              	.LBB11:
 391              		.loc 1 192 0
 392 0034 2023     		movs	r3, #32
 393              	.LVL36:
ARM GAS  C:\Users\DNIEL~1\AppData\Local\Temp\cctwQT4l.s 			page 8


 394              	@ 192 "../../../ChibiOS/os/kernel/src/chdynamic.c" 1
 395 0036 83F31188 		msr     BASEPRI, r3
 396              	@ 0 "" 2
 397              	.LVL37:
 398              		.thumb
 399              	.LBE11:
 400 003a FFF7FEFF 		bl	dbg_check_lock
 401              	.LVL38:
 402              		.loc 1 193 0
 403 003e 6168     		ldr	r1, [r4, #4]
 404 0040 3246     		mov	r2, r6
 405 0042 3B46     		mov	r3, r7
 406 0044 2846     		mov	r0, r5
 407 0046 CDF80080 		str	r8, [sp, #0]
 408 004a FFF7FEFF 		bl	chThdCreateI
 409              		.loc 1 194 0
 410 004e 0223     		movs	r3, #2
 411 0050 80F82130 		strb	r3, [r0, #33]
 412              		.loc 1 196 0
 413 0054 0021     		movs	r1, #0
 414              		.loc 1 195 0
 415 0056 8464     		str	r4, [r0, #72]
 416              		.loc 1 193 0
 417 0058 0546     		mov	r5, r0
 418              	.LVL39:
 419              		.loc 1 196 0
 420 005a FFF7FEFF 		bl	chSchWakeupS
 421              	.LVL40:
 422              		.loc 1 197 0
 423 005e FFF7FEFF 		bl	dbg_check_unlock
 424              	.LBB12:
 425 0062 0023     		movs	r3, #0
 426              	.LVL41:
 427              	@ 197 "../../../ChibiOS/os/kernel/src/chdynamic.c" 1
 428 0064 83F31188 		msr     BASEPRI, r3
 429              	@ 0 "" 2
 430              	.LVL42:
 431              		.thumb
 432              	.L21:
 433              	.LBE12:
 434              		.loc 1 199 0
 435 0068 2846     		mov	r0, r5
 436 006a 03B0     		add	sp, sp, #12
 437 006c BDE8F083 		pop	{r4, r5, r6, r7, r8, r9, pc}
 438              	.LVL43:
 439              	.L23:
 440              		.loc 1 177 0 discriminator 1
 441 0070 0148     		ldr	r0, .L24
 442 0072 FFF7FEFF 		bl	chDbgPanic
 443 0076 CCE7     		b	.L20
 444              	.L25:
 445              		.align	2
 446              	.L24:
 447 0078 28000000 		.word	.LC2
 448              		.cfi_endproc
 449              	.LFE10:
 450              		.size	chThdCreateFromMemoryPool, .-chThdCreateFromMemoryPool
ARM GAS  C:\Users\DNIEL~1\AppData\Local\Temp\cctwQT4l.s 			page 9


 451 007c AFF30080 		.section	.rodata.str1.4,"aMS",%progbits,1
 452              		.align	2
 453              	.LC0:
 454 0000 63685468 		.ascii	"chThdAddRef(), #1\000"
 454      64416464 
 454      52656628 
 454      292C2023 
 454      3100
 455 0012 0000     		.space	2
 456              	.LC1:
 457 0014 63685468 		.ascii	"chThdRelease(), #1\000"
 457      6452656C 
 457      65617365 
 457      28292C20 
 457      233100
 458 0027 00       		.space	1
 459              	.LC2:
 460 0028 22636854 		.ascii	"\"chThdCreateFromMemoryPool\"()\000"
 460      68644372 
 460      65617465 
 460      46726F6D 
 460      4D656D6F 
 461 0046 0000     		.text
 462              	.Letext0:
 463              		.section	.debug_loc,"",%progbits
 464              	.Ldebug_loc0:
 465              	.LLST0:
 466 0000 00000000 		.4byte	.LFB7
 467 0004 02000000 		.4byte	.LCFI0
 468 0008 0200     		.2byte	0x2
 469 000a 7D       		.byte	0x7d
 470 000b 00       		.sleb128 0
 471 000c 02000000 		.4byte	.LCFI0
 472 0010 4C000000 		.4byte	.LFE7
 473 0014 0200     		.2byte	0x2
 474 0016 7D       		.byte	0x7d
 475 0017 08       		.sleb128 8
 476 0018 00000000 		.4byte	0x0
 477 001c 00000000 		.4byte	0x0
 478              	.LLST1:
 479 0020 00000000 		.4byte	.LVL0
 480 0024 0D000000 		.4byte	.LVL3-1
 481 0028 0100     		.2byte	0x1
 482 002a 50       		.byte	0x50
 483 002b 0D000000 		.4byte	.LVL3-1
 484 002f 4C000000 		.4byte	.LFE7
 485 0033 0100     		.2byte	0x1
 486 0035 54       		.byte	0x54
 487 0036 00000000 		.4byte	0x0
 488 003a 00000000 		.4byte	0x0
 489              	.LLST2:
 490 003e 0A000000 		.4byte	.LVL2
 491 0042 0D000000 		.4byte	.LVL3-1
 492 0046 0100     		.2byte	0x1
 493 0048 53       		.byte	0x53
 494 0049 00000000 		.4byte	0x0
 495 004d 00000000 		.4byte	0x0
ARM GAS  C:\Users\DNIEL~1\AppData\Local\Temp\cctwQT4l.s 			page 10


 496              	.LLST3:
 497 0051 26000000 		.4byte	.LVL5
 498 0055 2A000000 		.4byte	.LVL6
 499 0059 0100     		.2byte	0x1
 500 005b 53       		.byte	0x53
 501 005c 44000000 		.4byte	.LVL7
 502 0060 4C000000 		.4byte	.LFE7
 503 0064 0100     		.2byte	0x1
 504 0066 53       		.byte	0x53
 505 0067 00000000 		.4byte	0x0
 506 006b 00000000 		.4byte	0x0
 507              	.LLST4:
 508 006f 00000000 		.4byte	.LFB8
 509 0073 02000000 		.4byte	.LCFI1
 510 0077 0200     		.2byte	0x2
 511 0079 7D       		.byte	0x7d
 512 007a 00       		.sleb128 0
 513 007b 02000000 		.4byte	.LCFI1
 514 007f 80000000 		.4byte	.LFE8
 515 0083 0200     		.2byte	0x2
 516 0085 7D       		.byte	0x7d
 517 0086 10       		.sleb128 16
 518 0087 00000000 		.4byte	0x0
 519 008b 00000000 		.4byte	0x0
 520              	.LLST5:
 521 008f 00000000 		.4byte	.LVL8
 522 0093 0D000000 		.4byte	.LVL11-1
 523 0097 0100     		.2byte	0x1
 524 0099 50       		.byte	0x50
 525 009a 0D000000 		.4byte	.LVL11-1
 526 009e 80000000 		.4byte	.LFE8
 527 00a2 0100     		.2byte	0x1
 528 00a4 54       		.byte	0x54
 529 00a5 00000000 		.4byte	0x0
 530 00a9 00000000 		.4byte	0x0
 531              	.LLST6:
 532 00ad 1E000000 		.4byte	.LVL12
 533 00b1 5A000000 		.4byte	.LVL18
 534 00b5 0100     		.2byte	0x1
 535 00b7 55       		.byte	0x55
 536 00b8 66000000 		.4byte	.LVL19
 537 00bc 80000000 		.4byte	.LFE8
 538 00c0 0100     		.2byte	0x1
 539 00c2 55       		.byte	0x55
 540 00c3 00000000 		.4byte	0x0
 541 00c7 00000000 		.4byte	0x0
 542              	.LLST7:
 543 00cb 0A000000 		.4byte	.LVL10
 544 00cf 0D000000 		.4byte	.LVL11-1
 545 00d3 0100     		.2byte	0x1
 546 00d5 53       		.byte	0x53
 547 00d6 00000000 		.4byte	0x0
 548 00da 00000000 		.4byte	0x0
 549              	.LLST8:
 550 00de 28000000 		.4byte	.LVL14
 551 00e2 2E000000 		.4byte	.LVL15
 552 00e6 0100     		.2byte	0x1
ARM GAS  C:\Users\DNIEL~1\AppData\Local\Temp\cctwQT4l.s 			page 11


 553 00e8 53       		.byte	0x53
 554 00e9 32000000 		.4byte	.LVL16
 555 00ed 34000000 		.4byte	.LVL17
 556 00f1 0100     		.2byte	0x1
 557 00f3 53       		.byte	0x53
 558 00f4 00000000 		.4byte	0x0
 559 00f8 00000000 		.4byte	0x0
 560              	.LLST9:
 561 00fc 00000000 		.4byte	.LFB9
 562 0100 04000000 		.4byte	.LCFI2
 563 0104 0200     		.2byte	0x2
 564 0106 7D       		.byte	0x7d
 565 0107 00       		.sleb128 0
 566 0108 04000000 		.4byte	.LCFI2
 567 010c 06000000 		.4byte	.LCFI3
 568 0110 0200     		.2byte	0x2
 569 0112 7D       		.byte	0x7d
 570 0113 18       		.sleb128 24
 571 0114 06000000 		.4byte	.LCFI3
 572 0118 64000000 		.4byte	.LFE9
 573 011c 0200     		.2byte	0x2
 574 011e 7D       		.byte	0x7d
 575 011f 20       		.sleb128 32
 576 0120 00000000 		.4byte	0x0
 577 0124 00000000 		.4byte	0x0
 578              	.LLST10:
 579 0128 00000000 		.4byte	.LVL20
 580 012c 0F000000 		.4byte	.LVL21-1
 581 0130 0100     		.2byte	0x1
 582 0132 50       		.byte	0x50
 583 0133 00000000 		.4byte	0x0
 584 0137 00000000 		.4byte	0x0
 585              	.LLST11:
 586 013b 00000000 		.4byte	.LVL20
 587 013f 0F000000 		.4byte	.LVL21-1
 588 0143 0100     		.2byte	0x1
 589 0145 51       		.byte	0x51
 590 0146 0F000000 		.4byte	.LVL21-1
 591 014a 64000000 		.4byte	.LFE9
 592 014e 0100     		.2byte	0x1
 593 0150 55       		.byte	0x55
 594 0151 00000000 		.4byte	0x0
 595 0155 00000000 		.4byte	0x0
 596              	.LLST12:
 597 0159 00000000 		.4byte	.LVL20
 598 015d 0F000000 		.4byte	.LVL21-1
 599 0161 0100     		.2byte	0x1
 600 0163 52       		.byte	0x52
 601 0164 0F000000 		.4byte	.LVL21-1
 602 0168 64000000 		.4byte	.LFE9
 603 016c 0100     		.2byte	0x1
 604 016e 56       		.byte	0x56
 605 016f 00000000 		.4byte	0x0
 606 0173 00000000 		.4byte	0x0
 607              	.LLST13:
 608 0177 00000000 		.4byte	.LVL20
 609 017b 0F000000 		.4byte	.LVL21-1
ARM GAS  C:\Users\DNIEL~1\AppData\Local\Temp\cctwQT4l.s 			page 12


 610 017f 0100     		.2byte	0x1
 611 0181 53       		.byte	0x53
 612 0182 0F000000 		.4byte	.LVL21-1
 613 0186 64000000 		.4byte	.LFE9
 614 018a 0100     		.2byte	0x1
 615 018c 57       		.byte	0x57
 616 018d 00000000 		.4byte	0x0
 617 0191 00000000 		.4byte	0x0
 618              	.LLST14:
 619 0195 10000000 		.4byte	.LVL21
 620 0199 1F000000 		.4byte	.LVL22-1
 621 019d 0100     		.2byte	0x1
 622 019f 50       		.byte	0x50
 623 01a0 1F000000 		.4byte	.LVL22-1
 624 01a4 38000000 		.4byte	.LVL26
 625 01a8 0100     		.2byte	0x1
 626 01aa 54       		.byte	0x54
 627 01ab 38000000 		.4byte	.LVL26
 628 01af 43000000 		.4byte	.LVL27-1
 629 01b3 0100     		.2byte	0x1
 630 01b5 50       		.byte	0x50
 631 01b6 43000000 		.4byte	.LVL27-1
 632 01ba 5C000000 		.4byte	.LVL31
 633 01be 0400     		.2byte	0x4
 634 01c0 78       		.byte	0x78
 635 01c1 B47F     		.sleb128 -76
 636 01c3 9F       		.byte	0x9f
 637 01c4 00000000 		.4byte	0x0
 638 01c8 00000000 		.4byte	0x0
 639              	.LLST15:
 640 01cc 4E000000 		.4byte	.LVL28
 641 01d0 51000000 		.4byte	.LVL29-1
 642 01d4 0100     		.2byte	0x1
 643 01d6 50       		.byte	0x50
 644 01d7 51000000 		.4byte	.LVL29-1
 645 01db 5C000000 		.4byte	.LVL31
 646 01df 0100     		.2byte	0x1
 647 01e1 54       		.byte	0x54
 648 01e2 00000000 		.4byte	0x0
 649 01e6 00000000 		.4byte	0x0
 650              	.LLST16:
 651 01ea 30000000 		.4byte	.LVL24
 652 01ee 33000000 		.4byte	.LVL25-1
 653 01f2 0100     		.2byte	0x1
 654 01f4 53       		.byte	0x53
 655 01f5 00000000 		.4byte	0x0
 656 01f9 00000000 		.4byte	0x0
 657              	.LLST17:
 658 01fd 5C000000 		.4byte	.LVL31
 659 0201 64000000 		.4byte	.LFE9
 660 0205 0100     		.2byte	0x1
 661 0207 53       		.byte	0x53
 662 0208 00000000 		.4byte	0x0
 663 020c 00000000 		.4byte	0x0
 664              	.LLST18:
 665 0210 00000000 		.4byte	.LFB10
 666 0214 04000000 		.4byte	.LCFI4
ARM GAS  C:\Users\DNIEL~1\AppData\Local\Temp\cctwQT4l.s 			page 13


 667 0218 0200     		.2byte	0x2
 668 021a 7D       		.byte	0x7d
 669 021b 00       		.sleb128 0
 670 021c 04000000 		.4byte	.LCFI4
 671 0220 08000000 		.4byte	.LCFI5
 672 0224 0200     		.2byte	0x2
 673 0226 7D       		.byte	0x7d
 674 0227 1C       		.sleb128 28
 675 0228 08000000 		.4byte	.LCFI5
 676 022c 7C000000 		.4byte	.LFE10
 677 0230 0200     		.2byte	0x2
 678 0232 7D       		.byte	0x7d
 679 0233 28       		.sleb128 40
 680 0234 00000000 		.4byte	0x0
 681 0238 00000000 		.4byte	0x0
 682              	.LLST19:
 683 023c 00000000 		.4byte	.LVL32
 684 0240 12000000 		.4byte	.LVL33
 685 0244 0100     		.2byte	0x1
 686 0246 50       		.byte	0x50
 687 0247 12000000 		.4byte	.LVL33
 688 024b 7C000000 		.4byte	.LFE10
 689 024f 0100     		.2byte	0x1
 690 0251 54       		.byte	0x54
 691 0252 00000000 		.4byte	0x0
 692 0256 00000000 		.4byte	0x0
 693              	.LLST20:
 694 025a 00000000 		.4byte	.LVL32
 695 025e 12000000 		.4byte	.LVL33
 696 0262 0100     		.2byte	0x1
 697 0264 51       		.byte	0x51
 698 0265 12000000 		.4byte	.LVL33
 699 0269 7C000000 		.4byte	.LFE10
 700 026d 0100     		.2byte	0x1
 701 026f 56       		.byte	0x56
 702 0270 00000000 		.4byte	0x0
 703 0274 00000000 		.4byte	0x0
 704              	.LLST21:
 705 0278 00000000 		.4byte	.LVL32
 706 027c 12000000 		.4byte	.LVL33
 707 0280 0100     		.2byte	0x1
 708 0282 52       		.byte	0x52
 709 0283 12000000 		.4byte	.LVL33
 710 0287 7C000000 		.4byte	.LFE10
 711 028b 0100     		.2byte	0x1
 712 028d 57       		.byte	0x57
 713 028e 00000000 		.4byte	0x0
 714 0292 00000000 		.4byte	0x0
 715              	.LLST22:
 716 0296 00000000 		.4byte	.LVL32
 717 029a 12000000 		.4byte	.LVL33
 718 029e 0100     		.2byte	0x1
 719 02a0 53       		.byte	0x53
 720 02a1 12000000 		.4byte	.LVL33
 721 02a5 7C000000 		.4byte	.LFE10
 722 02a9 0100     		.2byte	0x1
 723 02ab 58       		.byte	0x58
ARM GAS  C:\Users\DNIEL~1\AppData\Local\Temp\cctwQT4l.s 			page 14


 724 02ac 00000000 		.4byte	0x0
 725 02b0 00000000 		.4byte	0x0
 726              	.LLST23:
 727 02b4 18000000 		.4byte	.LVL34
 728 02b8 27000000 		.4byte	.LVL35-1
 729 02bc 0100     		.2byte	0x1
 730 02be 50       		.byte	0x50
 731 02bf 27000000 		.4byte	.LVL35-1
 732 02c3 5A000000 		.4byte	.LVL39
 733 02c7 0100     		.2byte	0x1
 734 02c9 55       		.byte	0x55
 735 02ca 5A000000 		.4byte	.LVL39
 736 02ce 68000000 		.4byte	.LVL42
 737 02d2 0400     		.2byte	0x4
 738 02d4 79       		.byte	0x79
 739 02d5 B47F     		.sleb128 -76
 740 02d7 9F       		.byte	0x9f
 741 02d8 00000000 		.4byte	0x0
 742 02dc 00000000 		.4byte	0x0
 743              	.LLST24:
 744 02e0 5A000000 		.4byte	.LVL39
 745 02e4 5D000000 		.4byte	.LVL40-1
 746 02e8 0100     		.2byte	0x1
 747 02ea 50       		.byte	0x50
 748 02eb 5D000000 		.4byte	.LVL40-1
 749 02ef 68000000 		.4byte	.LVL42
 750 02f3 0100     		.2byte	0x1
 751 02f5 55       		.byte	0x55
 752 02f6 00000000 		.4byte	0x0
 753 02fa 00000000 		.4byte	0x0
 754              	.LLST25:
 755 02fe 3A000000 		.4byte	.LVL37
 756 0302 3D000000 		.4byte	.LVL38-1
 757 0306 0100     		.2byte	0x1
 758 0308 53       		.byte	0x53
 759 0309 00000000 		.4byte	0x0
 760 030d 00000000 		.4byte	0x0
 761              	.LLST26:
 762 0311 68000000 		.4byte	.LVL42
 763 0315 70000000 		.4byte	.LVL43
 764 0319 0100     		.2byte	0x1
 765 031b 53       		.byte	0x53
 766 031c 00000000 		.4byte	0x0
 767 0320 00000000 		.4byte	0x0
 768              		.file 2 "c:\\program files (x86)\\codesourcery\\sourcery g++ lite\\bin\\../lib/gcc/arm-none-eabi/4
 769              		.file 3 "c:\\program files (x86)\\codesourcery\\sourcery g++ lite\\bin\\../lib/gcc/arm-none-eabi/4
 770              		.file 4 "../../../ChibiOS/os/ports/GCC/ARMCMx/chtypes.h"
 771              		.file 5 "../../../ChibiOS/os/kernel/include/chlists.h"
 772              		.file 6 "../../../ChibiOS/os/kernel/include/chthreads.h"
 773              		.file 7 "../../../ChibiOS/os/ports/GCC/ARMCMx/chcore_v7m.h"
 774              		.file 8 "../../../ChibiOS/os/kernel/include/chmtx.h"
 775              		.file 9 "../../../ChibiOS/os/kernel/include/chmemcore.h"
 776              		.file 10 "../../../ChibiOS/os/kernel/include/chheap.h"
 777              		.file 11 "../../../ChibiOS/os/kernel/include/chmempools.h"
 778              		.section	.debug_info
 779 0000 7A070000 		.4byte	0x77a
 780 0004 0200     		.2byte	0x2
ARM GAS  C:\Users\DNIEL~1\AppData\Local\Temp\cctwQT4l.s 			page 15


 781 0006 00000000 		.4byte	.Ldebug_abbrev0
 782 000a 04       		.byte	0x4
 783 000b 01       		.uleb128 0x1
 784 000c 6F030000 		.4byte	.LASF81
 785 0010 01       		.byte	0x1
 786 0011 25000000 		.4byte	.LASF82
 787 0015 0F020000 		.4byte	.LASF83
 788 0019 00000000 		.4byte	0x0
 789 001d 00000000 		.4byte	0x0
 790 0021 48000000 		.4byte	.Ldebug_ranges0+0x48
 791 0025 00000000 		.4byte	.Ldebug_line0
 792 0029 02       		.uleb128 0x2
 793 002a 04       		.byte	0x4
 794 002b 05       		.byte	0x5
 795 002c 696E7400 		.ascii	"int\000"
 796 0030 03       		.uleb128 0x3
 797 0031 0E000000 		.4byte	.LASF2
 798 0035 02       		.byte	0x2
 799 0036 D3       		.byte	0xd3
 800 0037 3B000000 		.4byte	0x3b
 801 003b 04       		.uleb128 0x4
 802 003c 04       		.byte	0x4
 803 003d 07       		.byte	0x7
 804 003e 51010000 		.4byte	.LASF0
 805 0042 04       		.uleb128 0x4
 806 0043 01       		.byte	0x1
 807 0044 06       		.byte	0x6
 808 0045 AF000000 		.4byte	.LASF1
 809 0049 03       		.uleb128 0x3
 810 004a 60030000 		.4byte	.LASF3
 811 004e 03       		.byte	0x3
 812 004f 2A       		.byte	0x2a
 813 0050 54000000 		.4byte	0x54
 814 0054 04       		.uleb128 0x4
 815 0055 01       		.byte	0x1
 816 0056 08       		.byte	0x8
 817 0057 85020000 		.4byte	.LASF4
 818 005b 04       		.uleb128 0x4
 819 005c 02       		.byte	0x2
 820 005d 05       		.byte	0x5
 821 005e A8020000 		.4byte	.LASF5
 822 0062 04       		.uleb128 0x4
 823 0063 02       		.byte	0x2
 824 0064 07       		.byte	0x7
 825 0065 7D010000 		.4byte	.LASF6
 826 0069 03       		.uleb128 0x3
 827 006a 7D020000 		.4byte	.LASF7
 828 006e 03       		.byte	0x3
 829 006f 4F       		.byte	0x4f
 830 0070 74000000 		.4byte	0x74
 831 0074 04       		.uleb128 0x4
 832 0075 04       		.byte	0x4
 833 0076 05       		.byte	0x5
 834 0077 DB000000 		.4byte	.LASF8
 835 007b 03       		.uleb128 0x3
 836 007c 05030000 		.4byte	.LASF9
 837 0080 03       		.byte	0x3
ARM GAS  C:\Users\DNIEL~1\AppData\Local\Temp\cctwQT4l.s 			page 16


 838 0081 50       		.byte	0x50
 839 0082 86000000 		.4byte	0x86
 840 0086 04       		.uleb128 0x4
 841 0087 04       		.byte	0x4
 842 0088 07       		.byte	0x7
 843 0089 5E010000 		.4byte	.LASF10
 844 008d 04       		.uleb128 0x4
 845 008e 08       		.byte	0x8
 846 008f 05       		.byte	0x5
 847 0090 A1000000 		.4byte	.LASF11
 848 0094 03       		.uleb128 0x3
 849 0095 1C000000 		.4byte	.LASF12
 850 0099 03       		.byte	0x3
 851 009a 78       		.byte	0x78
 852 009b 9F000000 		.4byte	0x9f
 853 009f 04       		.uleb128 0x4
 854 00a0 08       		.byte	0x8
 855 00a1 07       		.byte	0x7
 856 00a2 68000000 		.4byte	.LASF13
 857 00a6 03       		.uleb128 0x3
 858 00a7 96010000 		.4byte	.LASF14
 859 00ab 04       		.byte	0x4
 860 00ac 28       		.byte	0x28
 861 00ad 49000000 		.4byte	0x49
 862 00b1 03       		.uleb128 0x3
 863 00b2 F8000000 		.4byte	.LASF15
 864 00b6 04       		.byte	0x4
 865 00b7 29       		.byte	0x29
 866 00b8 49000000 		.4byte	0x49
 867 00bc 03       		.uleb128 0x3
 868 00bd 61020000 		.4byte	.LASF16
 869 00c1 04       		.byte	0x4
 870 00c2 2A       		.byte	0x2a
 871 00c3 49000000 		.4byte	0x49
 872 00c7 03       		.uleb128 0x3
 873 00c8 D1000000 		.4byte	.LASF17
 874 00cc 04       		.byte	0x4
 875 00cd 2B       		.byte	0x2b
 876 00ce 49000000 		.4byte	0x49
 877 00d2 03       		.uleb128 0x3
 878 00d3 75020000 		.4byte	.LASF18
 879 00d7 04       		.byte	0x4
 880 00d8 2C       		.byte	0x2c
 881 00d9 7B000000 		.4byte	0x7b
 882 00dd 03       		.uleb128 0x3
 883 00de 90010000 		.4byte	.LASF19
 884 00e2 04       		.byte	0x4
 885 00e3 2D       		.byte	0x2d
 886 00e4 69000000 		.4byte	0x69
 887 00e8 03       		.uleb128 0x3
 888 00e9 AA010000 		.4byte	.LASF20
 889 00ed 04       		.byte	0x4
 890 00ee 2F       		.byte	0x2f
 891 00ef 7B000000 		.4byte	0x7b
 892 00f3 03       		.uleb128 0x3
 893 00f4 1F030000 		.4byte	.LASF21
 894 00f8 04       		.byte	0x4
ARM GAS  C:\Users\DNIEL~1\AppData\Local\Temp\cctwQT4l.s 			page 17


 895 00f9 31       		.byte	0x31
 896 00fa 7B000000 		.4byte	0x7b
 897 00fe 03       		.uleb128 0x3
 898 00ff F3020000 		.4byte	.LASF22
 899 0103 05       		.byte	0x5
 900 0104 23       		.byte	0x23
 901 0105 09010000 		.4byte	0x109
 902 0109 05       		.uleb128 0x5
 903 010a F3020000 		.4byte	.LASF22
 904 010e 4C       		.byte	0x4c
 905 010f 06       		.byte	0x6
 906 0110 57       		.byte	0x57
 907 0111 3C020000 		.4byte	0x23c
 908 0115 06       		.uleb128 0x6
 909 0116 D7020000 		.4byte	.LASF23
 910 011a 06       		.byte	0x6
 911 011b 58       		.byte	0x58
 912 011c 61020000 		.4byte	0x261
 913 0120 02       		.byte	0x2
 914 0121 23       		.byte	0x23
 915 0122 00       		.uleb128 0x0
 916 0123 06       		.uleb128 0x6
 917 0124 6E020000 		.4byte	.LASF24
 918 0128 06       		.byte	0x6
 919 0129 5A       		.byte	0x5a
 920 012a 61020000 		.4byte	0x261
 921 012e 02       		.byte	0x2
 922 012f 23       		.byte	0x23
 923 0130 04       		.uleb128 0x4
 924 0131 06       		.uleb128 0x6
 925 0132 9A000000 		.4byte	.LASF25
 926 0136 06       		.byte	0x6
 927 0137 5C       		.byte	0x5c
 928 0138 D2000000 		.4byte	0xd2
 929 013c 02       		.byte	0x2
 930 013d 23       		.byte	0x23
 931 013e 08       		.uleb128 0x8
 932 013f 06       		.uleb128 0x6
 933 0140 8A030000 		.4byte	.LASF26
 934 0144 06       		.byte	0x6
 935 0145 5D       		.byte	0x5d
 936 0146 3A030000 		.4byte	0x33a
 937 014a 02       		.byte	0x2
 938 014b 23       		.byte	0x23
 939 014c 0C       		.uleb128 0xc
 940 014d 06       		.uleb128 0x6
 941 014e 09010000 		.4byte	.LASF27
 942 0152 06       		.byte	0x6
 943 0153 5F       		.byte	0x5f
 944 0154 61020000 		.4byte	0x261
 945 0158 02       		.byte	0x2
 946 0159 23       		.byte	0x23
 947 015a 10       		.uleb128 0x10
 948 015b 06       		.uleb128 0x6
 949 015c D3010000 		.4byte	.LASF28
 950 0160 06       		.byte	0x6
 951 0161 60       		.byte	0x60
ARM GAS  C:\Users\DNIEL~1\AppData\Local\Temp\cctwQT4l.s 			page 18


 952 0162 61020000 		.4byte	0x261
 953 0166 02       		.byte	0x2
 954 0167 23       		.byte	0x23
 955 0168 14       		.uleb128 0x14
 956 0169 06       		.uleb128 0x6
 957 016a 7B030000 		.4byte	.LASF29
 958 016e 06       		.byte	0x6
 959 016f 67       		.byte	0x67
 960 0170 10050000 		.4byte	0x510
 961 0174 02       		.byte	0x2
 962 0175 23       		.byte	0x23
 963 0176 18       		.uleb128 0x18
 964 0177 06       		.uleb128 0x6
 965 0178 46010000 		.4byte	.LASF30
 966 017c 06       		.byte	0x6
 967 017d 6D       		.byte	0x6d
 968 017e 22050000 		.4byte	0x522
 969 0182 02       		.byte	0x2
 970 0183 23       		.byte	0x23
 971 0184 1C       		.uleb128 0x1c
 972 0185 06       		.uleb128 0x6
 973 0186 B2020000 		.4byte	.LASF31
 974 018a 06       		.byte	0x6
 975 018b 72       		.byte	0x72
 976 018c B1000000 		.4byte	0xb1
 977 0190 02       		.byte	0x2
 978 0191 23       		.byte	0x23
 979 0192 20       		.uleb128 0x20
 980 0193 06       		.uleb128 0x6
 981 0194 DE020000 		.4byte	.LASF32
 982 0198 06       		.byte	0x6
 983 0199 76       		.byte	0x76
 984 019a A6000000 		.4byte	0xa6
 985 019e 02       		.byte	0x2
 986 019f 23       		.byte	0x23
 987 01a0 21       		.uleb128 0x21
 988 01a1 06       		.uleb128 0x6
 989 01a2 59030000 		.4byte	.LASF33
 990 01a6 06       		.byte	0x6
 991 01a7 7B       		.byte	0x7b
 992 01a8 BC000000 		.4byte	0xbc
 993 01ac 02       		.byte	0x2
 994 01ad 23       		.byte	0x23
 995 01ae 22       		.uleb128 0x22
 996 01af 06       		.uleb128 0x6
 997 01b0 BA020000 		.4byte	.LASF34
 998 01b4 06       		.byte	0x6
 999 01b5 81       		.byte	0x81
 1000 01b6 C7000000 		.4byte	0xc7
 1001 01ba 02       		.byte	0x2
 1002 01bb 23       		.byte	0x23
 1003 01bc 23       		.uleb128 0x23
 1004 01bd 06       		.uleb128 0x6
 1005 01be 34030000 		.4byte	.LASF35
 1006 01c2 06       		.byte	0x6
 1007 01c3 88       		.byte	0x88
 1008 01c4 5D030000 		.4byte	0x35d
ARM GAS  C:\Users\DNIEL~1\AppData\Local\Temp\cctwQT4l.s 			page 19


 1009 01c8 02       		.byte	0x2
 1010 01c9 23       		.byte	0x23
 1011 01ca 24       		.uleb128 0x24
 1012 01cb 07       		.uleb128 0x7
 1013 01cc 705F7500 		.ascii	"p_u\000"
 1014 01d0 06       		.byte	0x6
 1015 01d1 AD       		.byte	0xad
 1016 01d2 DB040000 		.4byte	0x4db
 1017 01d6 02       		.byte	0x2
 1018 01d7 23       		.byte	0x23
 1019 01d8 28       		.uleb128 0x28
 1020 01d9 06       		.uleb128 0x6
 1021 01da 90030000 		.4byte	.LASF36
 1022 01de 06       		.byte	0x6
 1023 01df B2       		.byte	0xb2
 1024 01e0 89020000 		.4byte	0x289
 1025 01e4 02       		.byte	0x2
 1026 01e5 23       		.byte	0x23
 1027 01e6 2C       		.uleb128 0x2c
 1028 01e7 06       		.uleb128 0x6
 1029 01e8 42030000 		.4byte	.LASF37
 1030 01ec 06       		.byte	0x6
 1031 01ed B8       		.byte	0xb8
 1032 01ee 67020000 		.4byte	0x267
 1033 01f2 02       		.byte	0x2
 1034 01f3 23       		.byte	0x23
 1035 01f4 30       		.uleb128 0x30
 1036 01f5 06       		.uleb128 0x6
 1037 01f6 08000000 		.4byte	.LASF38
 1038 01fa 06       		.byte	0x6
 1039 01fb BC       		.byte	0xbc
 1040 01fc DD000000 		.4byte	0xdd
 1041 0200 02       		.byte	0x2
 1042 0201 23       		.byte	0x23
 1043 0202 38       		.uleb128 0x38
 1044 0203 06       		.uleb128 0x6
 1045 0204 FA020000 		.4byte	.LASF39
 1046 0208 06       		.byte	0x6
 1047 0209 C2       		.byte	0xc2
 1048 020a E8000000 		.4byte	0xe8
 1049 020e 02       		.byte	0x2
 1050 020f 23       		.byte	0x23
 1051 0210 3C       		.uleb128 0x3c
 1052 0211 06       		.uleb128 0x6
 1053 0212 9E020000 		.4byte	.LASF40
 1054 0216 06       		.byte	0x6
 1055 0217 C9       		.byte	0xc9
 1056 0218 28050000 		.4byte	0x528
 1057 021c 02       		.byte	0x2
 1058 021d 23       		.byte	0x23
 1059 021e 40       		.uleb128 0x40
 1060 021f 06       		.uleb128 0x6
 1061 0220 29030000 		.4byte	.LASF41
 1062 0224 06       		.byte	0x6
 1063 0225 CD       		.byte	0xcd
 1064 0226 D2000000 		.4byte	0xd2
 1065 022a 02       		.byte	0x2
ARM GAS  C:\Users\DNIEL~1\AppData\Local\Temp\cctwQT4l.s 			page 20


 1066 022b 23       		.byte	0x23
 1067 022c 44       		.uleb128 0x44
 1068 022d 06       		.uleb128 0x6
 1069 022e C1000000 		.4byte	.LASF42
 1070 0232 06       		.byte	0x6
 1071 0233 D3       		.byte	0xd3
 1072 0234 9F020000 		.4byte	0x29f
 1073 0238 02       		.byte	0x2
 1074 0239 23       		.byte	0x23
 1075 023a 48       		.uleb128 0x48
 1076 023b 00       		.byte	0x0
 1077 023c 08       		.uleb128 0x8
 1078 023d 08       		.byte	0x8
 1079 023e 05       		.byte	0x5
 1080 023f 5A       		.byte	0x5a
 1081 0240 61020000 		.4byte	0x261
 1082 0244 06       		.uleb128 0x6
 1083 0245 D7020000 		.4byte	.LASF23
 1084 0249 05       		.byte	0x5
 1085 024a 5B       		.byte	0x5b
 1086 024b 61020000 		.4byte	0x261
 1087 024f 02       		.byte	0x2
 1088 0250 23       		.byte	0x23
 1089 0251 00       		.uleb128 0x0
 1090 0252 06       		.uleb128 0x6
 1091 0253 6E020000 		.4byte	.LASF24
 1092 0257 05       		.byte	0x5
 1093 0258 5D       		.byte	0x5d
 1094 0259 61020000 		.4byte	0x261
 1095 025d 02       		.byte	0x2
 1096 025e 23       		.byte	0x23
 1097 025f 04       		.uleb128 0x4
 1098 0260 00       		.byte	0x0
 1099 0261 09       		.uleb128 0x9
 1100 0262 04       		.byte	0x4
 1101 0263 FE000000 		.4byte	0xfe
 1102 0267 03       		.uleb128 0x3
 1103 0268 DB010000 		.4byte	.LASF43
 1104 026c 05       		.byte	0x5
 1105 026d 5F       		.byte	0x5f
 1106 026e 3C020000 		.4byte	0x23c
 1107 0272 08       		.uleb128 0x8
 1108 0273 04       		.byte	0x4
 1109 0274 05       		.byte	0x5
 1110 0275 64       		.byte	0x64
 1111 0276 89020000 		.4byte	0x289
 1112 027a 06       		.uleb128 0x6
 1113 027b D7020000 		.4byte	.LASF23
 1114 027f 05       		.byte	0x5
 1115 0280 66       		.byte	0x66
 1116 0281 61020000 		.4byte	0x261
 1117 0285 02       		.byte	0x2
 1118 0286 23       		.byte	0x23
 1119 0287 00       		.uleb128 0x0
 1120 0288 00       		.byte	0x0
 1121 0289 03       		.uleb128 0x3
 1122 028a 9E010000 		.4byte	.LASF44
ARM GAS  C:\Users\DNIEL~1\AppData\Local\Temp\cctwQT4l.s 			page 21


 1123 028e 05       		.byte	0x5
 1124 028f 69       		.byte	0x69
 1125 0290 72020000 		.4byte	0x272
 1126 0294 03       		.uleb128 0x3
 1127 0295 37010000 		.4byte	.LASF45
 1128 0299 07       		.byte	0x7
 1129 029a DE       		.byte	0xde
 1130 029b 9F020000 		.4byte	0x29f
 1131 029f 0A       		.uleb128 0xa
 1132 02a0 04       		.byte	0x4
 1133 02a1 03       		.uleb128 0x3
 1134 02a2 C8010000 		.4byte	.LASF46
 1135 02a6 07       		.byte	0x7
 1136 02a7 E4       		.byte	0xe4
 1137 02a8 94000000 		.4byte	0x94
 1138 02ac 0B       		.uleb128 0xb
 1139 02ad 3B030000 		.4byte	.LASF47
 1140 02b1 24       		.byte	0x24
 1141 02b2 07       		.byte	0x7
 1142 02b3 0501     		.2byte	0x105
 1143 02b5 3A030000 		.4byte	0x33a
 1144 02b9 0C       		.uleb128 0xc
 1145 02ba 723400   		.ascii	"r4\000"
 1146 02bd 07       		.byte	0x7
 1147 02be 1801     		.2byte	0x118
 1148 02c0 94020000 		.4byte	0x294
 1149 02c4 02       		.byte	0x2
 1150 02c5 23       		.byte	0x23
 1151 02c6 00       		.uleb128 0x0
 1152 02c7 0C       		.uleb128 0xc
 1153 02c8 723500   		.ascii	"r5\000"
 1154 02cb 07       		.byte	0x7
 1155 02cc 1901     		.2byte	0x119
 1156 02ce 94020000 		.4byte	0x294
 1157 02d2 02       		.byte	0x2
 1158 02d3 23       		.byte	0x23
 1159 02d4 04       		.uleb128 0x4
 1160 02d5 0C       		.uleb128 0xc
 1161 02d6 723600   		.ascii	"r6\000"
 1162 02d9 07       		.byte	0x7
 1163 02da 1A01     		.2byte	0x11a
 1164 02dc 94020000 		.4byte	0x294
 1165 02e0 02       		.byte	0x2
 1166 02e1 23       		.byte	0x23
 1167 02e2 08       		.uleb128 0x8
 1168 02e3 0C       		.uleb128 0xc
 1169 02e4 723700   		.ascii	"r7\000"
 1170 02e7 07       		.byte	0x7
 1171 02e8 1B01     		.2byte	0x11b
 1172 02ea 94020000 		.4byte	0x294
 1173 02ee 02       		.byte	0x2
 1174 02ef 23       		.byte	0x23
 1175 02f0 0C       		.uleb128 0xc
 1176 02f1 0C       		.uleb128 0xc
 1177 02f2 723800   		.ascii	"r8\000"
 1178 02f5 07       		.byte	0x7
 1179 02f6 1C01     		.2byte	0x11c
ARM GAS  C:\Users\DNIEL~1\AppData\Local\Temp\cctwQT4l.s 			page 22


 1180 02f8 94020000 		.4byte	0x294
 1181 02fc 02       		.byte	0x2
 1182 02fd 23       		.byte	0x23
 1183 02fe 10       		.uleb128 0x10
 1184 02ff 0C       		.uleb128 0xc
 1185 0300 723900   		.ascii	"r9\000"
 1186 0303 07       		.byte	0x7
 1187 0304 1D01     		.2byte	0x11d
 1188 0306 94020000 		.4byte	0x294
 1189 030a 02       		.byte	0x2
 1190 030b 23       		.byte	0x23
 1191 030c 14       		.uleb128 0x14
 1192 030d 0C       		.uleb128 0xc
 1193 030e 72313000 		.ascii	"r10\000"
 1194 0312 07       		.byte	0x7
 1195 0313 1E01     		.2byte	0x11e
 1196 0315 94020000 		.4byte	0x294
 1197 0319 02       		.byte	0x2
 1198 031a 23       		.byte	0x23
 1199 031b 18       		.uleb128 0x18
 1200 031c 0C       		.uleb128 0xc
 1201 031d 72313100 		.ascii	"r11\000"
 1202 0321 07       		.byte	0x7
 1203 0322 1F01     		.2byte	0x11f
 1204 0324 94020000 		.4byte	0x294
 1205 0328 02       		.byte	0x2
 1206 0329 23       		.byte	0x23
 1207 032a 1C       		.uleb128 0x1c
 1208 032b 0C       		.uleb128 0xc
 1209 032c 6C7200   		.ascii	"lr\000"
 1210 032f 07       		.byte	0x7
 1211 0330 2001     		.2byte	0x120
 1212 0332 94020000 		.4byte	0x294
 1213 0336 02       		.byte	0x2
 1214 0337 23       		.byte	0x23
 1215 0338 20       		.uleb128 0x20
 1216 0339 00       		.byte	0x0
 1217 033a 0B       		.uleb128 0xb
 1218 033b 70010000 		.4byte	.LASF48
 1219 033f 04       		.byte	0x4
 1220 0340 07       		.byte	0x7
 1221 0341 2A01     		.2byte	0x12a
 1222 0343 57030000 		.4byte	0x357
 1223 0347 0C       		.uleb128 0xc
 1224 0348 72313300 		.ascii	"r13\000"
 1225 034c 07       		.byte	0x7
 1226 034d 2B01     		.2byte	0x12b
 1227 034f 57030000 		.4byte	0x357
 1228 0353 02       		.byte	0x2
 1229 0354 23       		.byte	0x23
 1230 0355 00       		.uleb128 0x0
 1231 0356 00       		.byte	0x0
 1232 0357 09       		.uleb128 0x9
 1233 0358 04       		.byte	0x4
 1234 0359 AC020000 		.4byte	0x2ac
 1235 035d 0D       		.uleb128 0xd
 1236 035e F3000000 		.4byte	0xf3
ARM GAS  C:\Users\DNIEL~1\AppData\Local\Temp\cctwQT4l.s 			page 23


 1237 0362 05       		.uleb128 0x5
 1238 0363 B6010000 		.4byte	.LASF49
 1239 0367 10       		.byte	0x10
 1240 0368 08       		.byte	0x8
 1241 0369 25       		.byte	0x25
 1242 036a 99030000 		.4byte	0x399
 1243 036e 06       		.uleb128 0x6
 1244 036f C9000000 		.4byte	.LASF50
 1245 0373 08       		.byte	0x8
 1246 0374 26       		.byte	0x26
 1247 0375 67020000 		.4byte	0x267
 1248 0379 02       		.byte	0x2
 1249 037a 23       		.byte	0x23
 1250 037b 00       		.uleb128 0x0
 1251 037c 06       		.uleb128 0x6
 1252 037d 82030000 		.4byte	.LASF51
 1253 0381 08       		.byte	0x8
 1254 0382 28       		.byte	0x28
 1255 0383 61020000 		.4byte	0x261
 1256 0387 02       		.byte	0x2
 1257 0388 23       		.byte	0x23
 1258 0389 08       		.uleb128 0x8
 1259 038a 06       		.uleb128 0x6
 1260 038b 18030000 		.4byte	.LASF52
 1261 038f 08       		.byte	0x8
 1262 0390 2A       		.byte	0x2a
 1263 0391 99030000 		.4byte	0x399
 1264 0395 02       		.byte	0x2
 1265 0396 23       		.byte	0x23
 1266 0397 0C       		.uleb128 0xc
 1267 0398 00       		.byte	0x0
 1268 0399 09       		.uleb128 0x9
 1269 039a 04       		.byte	0x4
 1270 039b 62030000 		.4byte	0x362
 1271 039f 03       		.uleb128 0x3
 1272 03a0 B6010000 		.4byte	.LASF49
 1273 03a4 08       		.byte	0x8
 1274 03a5 2C       		.byte	0x2c
 1275 03a6 62030000 		.4byte	0x362
 1276 03aa 03       		.uleb128 0x3
 1277 03ab 5B000000 		.4byte	.LASF53
 1278 03af 09       		.byte	0x9
 1279 03b0 25       		.byte	0x25
 1280 03b1 B5030000 		.4byte	0x3b5
 1281 03b5 09       		.uleb128 0x9
 1282 03b6 04       		.byte	0x4
 1283 03b7 BB030000 		.4byte	0x3bb
 1284 03bb 0E       		.uleb128 0xe
 1285 03bc 01       		.byte	0x1
 1286 03bd 9F020000 		.4byte	0x29f
 1287 03c1 CB030000 		.4byte	0x3cb
 1288 03c5 0F       		.uleb128 0xf
 1289 03c6 30000000 		.4byte	0x30
 1290 03ca 00       		.byte	0x0
 1291 03cb 03       		.uleb128 0x3
 1292 03cc FC010000 		.4byte	.LASF54
 1293 03d0 0A       		.byte	0xa
ARM GAS  C:\Users\DNIEL~1\AppData\Local\Temp\cctwQT4l.s 			page 24


 1294 03d1 2D       		.byte	0x2d
 1295 03d2 D6030000 		.4byte	0x3d6
 1296 03d6 05       		.uleb128 0x5
 1297 03d7 9A030000 		.4byte	.LASF55
 1298 03db 20       		.byte	0x20
 1299 03dc 0A       		.byte	0xa
 1300 03dd 40       		.byte	0x40
 1301 03de 0D040000 		.4byte	0x40d
 1302 03e2 06       		.uleb128 0x6
 1303 03e3 93020000 		.4byte	.LASF56
 1304 03e7 0A       		.byte	0xa
 1305 03e8 41       		.byte	0x41
 1306 03e9 AA030000 		.4byte	0x3aa
 1307 03ed 02       		.byte	0x2
 1308 03ee 23       		.byte	0x23
 1309 03ef 00       		.uleb128 0x0
 1310 03f0 06       		.uleb128 0x6
 1311 03f1 88000000 		.4byte	.LASF57
 1312 03f5 0A       		.byte	0xa
 1313 03f6 43       		.byte	0x43
 1314 03f7 2C040000 		.4byte	0x42c
 1315 03fb 02       		.byte	0x2
 1316 03fc 23       		.byte	0x23
 1317 03fd 08       		.uleb128 0x8
 1318 03fe 06       		.uleb128 0x6
 1319 03ff BB000000 		.4byte	.LASF58
 1320 0403 0A       		.byte	0xa
 1321 0404 45       		.byte	0x45
 1322 0405 9F030000 		.4byte	0x39f
 1323 0409 02       		.byte	0x2
 1324 040a 23       		.byte	0x23
 1325 040b 10       		.uleb128 0x10
 1326 040c 00       		.byte	0x0
 1327 040d 10       		.uleb128 0x10
 1328 040e 04       		.byte	0x4
 1329 040f 0A       		.byte	0xa
 1330 0410 35       		.byte	0x35
 1331 0411 2C040000 		.4byte	0x42c
 1332 0415 11       		.uleb128 0x11
 1333 0416 95000000 		.4byte	.LASF59
 1334 041a 0A       		.byte	0xa
 1335 041b 36       		.byte	0x36
 1336 041c 4D040000 		.4byte	0x44d
 1337 0420 11       		.uleb128 0x11
 1338 0421 0E030000 		.4byte	.LASF60
 1339 0425 0A       		.byte	0xa
 1340 0426 37       		.byte	0x37
 1341 0427 53040000 		.4byte	0x453
 1342 042b 00       		.byte	0x0
 1343 042c 12       		.uleb128 0x12
 1344 042d C4020000 		.4byte	.LASF84
 1345 0431 08       		.byte	0x8
 1346 0432 0A       		.byte	0xa
 1347 0433 32       		.byte	0x32
 1348 0434 4D040000 		.4byte	0x44d
 1349 0438 11       		.uleb128 0x11
 1350 0439 40010000 		.4byte	.LASF61
ARM GAS  C:\Users\DNIEL~1\AppData\Local\Temp\cctwQT4l.s 			page 25


 1351 043d 0A       		.byte	0xa
 1352 043e 33       		.byte	0x33
 1353 043f A1020000 		.4byte	0x2a1
 1354 0443 13       		.uleb128 0x13
 1355 0444 6800     		.ascii	"h\000"
 1356 0446 0A       		.byte	0xa
 1357 0447 3A       		.byte	0x3a
 1358 0448 59040000 		.4byte	0x459
 1359 044c 00       		.byte	0x0
 1360 044d 09       		.uleb128 0x9
 1361 044e 04       		.byte	0x4
 1362 044f 2C040000 		.4byte	0x42c
 1363 0453 09       		.uleb128 0x9
 1364 0454 04       		.byte	0x4
 1365 0455 CB030000 		.4byte	0x3cb
 1366 0459 08       		.uleb128 0x8
 1367 045a 08       		.byte	0x8
 1368 045b 0A       		.byte	0xa
 1369 045c 34       		.byte	0x34
 1370 045d 7C040000 		.4byte	0x47c
 1371 0461 07       		.uleb128 0x7
 1372 0462 7500     		.ascii	"u\000"
 1373 0464 0A       		.byte	0xa
 1374 0465 38       		.byte	0x38
 1375 0466 0D040000 		.4byte	0x40d
 1376 046a 02       		.byte	0x2
 1377 046b 23       		.byte	0x23
 1378 046c 00       		.uleb128 0x0
 1379 046d 06       		.uleb128 0x6
 1380 046e 78010000 		.4byte	.LASF62
 1381 0472 0A       		.byte	0xa
 1382 0473 39       		.byte	0x39
 1383 0474 30000000 		.4byte	0x30
 1384 0478 02       		.byte	0x2
 1385 0479 23       		.byte	0x23
 1386 047a 04       		.uleb128 0x4
 1387 047b 00       		.byte	0x0
 1388 047c 05       		.uleb128 0x5
 1389 047d 4D030000 		.4byte	.LASF63
 1390 0481 04       		.byte	0x4
 1391 0482 0B       		.byte	0xb
 1392 0483 25       		.byte	0x25
 1393 0484 97040000 		.4byte	0x497
 1394 0488 06       		.uleb128 0x6
 1395 0489 07020000 		.4byte	.LASF64
 1396 048d 0B       		.byte	0xb
 1397 048e 26       		.byte	0x26
 1398 048f 97040000 		.4byte	0x497
 1399 0493 02       		.byte	0x2
 1400 0494 23       		.byte	0x23
 1401 0495 00       		.uleb128 0x0
 1402 0496 00       		.byte	0x0
 1403 0497 09       		.uleb128 0x9
 1404 0498 04       		.byte	0x4
 1405 0499 7C040000 		.4byte	0x47c
 1406 049d 08       		.uleb128 0x8
 1407 049e 0C       		.byte	0xc
ARM GAS  C:\Users\DNIEL~1\AppData\Local\Temp\cctwQT4l.s 			page 26


 1408 049f 0B       		.byte	0xb
 1409 04a0 2D       		.byte	0x2d
 1410 04a1 D0040000 		.4byte	0x4d0
 1411 04a5 06       		.uleb128 0x6
 1412 04a6 01010000 		.4byte	.LASF65
 1413 04aa 0B       		.byte	0xb
 1414 04ab 2E       		.byte	0x2e
 1415 04ac 97040000 		.4byte	0x497
 1416 04b0 02       		.byte	0x2
 1417 04b1 23       		.byte	0x23
 1418 04b2 00       		.uleb128 0x0
 1419 04b3 06       		.uleb128 0x6
 1420 04b4 E8010000 		.4byte	.LASF66
 1421 04b8 0B       		.byte	0xb
 1422 04b9 2F       		.byte	0x2f
 1423 04ba 30000000 		.4byte	0x30
 1424 04be 02       		.byte	0x2
 1425 04bf 23       		.byte	0x23
 1426 04c0 04       		.uleb128 0x4
 1427 04c1 06       		.uleb128 0x6
 1428 04c2 2B010000 		.4byte	.LASF67
 1429 04c6 0B       		.byte	0xb
 1430 04c7 31       		.byte	0x31
 1431 04c8 AA030000 		.4byte	0x3aa
 1432 04cc 02       		.byte	0x2
 1433 04cd 23       		.byte	0x23
 1434 04ce 08       		.uleb128 0x8
 1435 04cf 00       		.byte	0x0
 1436 04d0 03       		.uleb128 0x3
 1437 04d1 50000000 		.4byte	.LASF68
 1438 04d5 0B       		.byte	0xb
 1439 04d6 33       		.byte	0x33
 1440 04d7 9D040000 		.4byte	0x49d
 1441 04db 10       		.uleb128 0x10
 1442 04dc 04       		.byte	0x4
 1443 04dd 06       		.byte	0x6
 1444 04de 8F       		.byte	0x8f
 1445 04df 10050000 		.4byte	0x510
 1446 04e3 11       		.uleb128 0x11
 1447 04e4 15000000 		.4byte	.LASF69
 1448 04e8 06       		.byte	0x6
 1449 04e9 96       		.byte	0x96
 1450 04ea DD000000 		.4byte	0xdd
 1451 04ee 11       		.uleb128 0x11
 1452 04ef 7F000000 		.4byte	.LASF70
 1453 04f3 06       		.byte	0x6
 1454 04f4 9D       		.byte	0x9d
 1455 04f5 DD000000 		.4byte	0xdd
 1456 04f9 11       		.uleb128 0x11
 1457 04fa 68030000 		.4byte	.LASF71
 1458 04fe 06       		.byte	0x6
 1459 04ff A4       		.byte	0xa4
 1460 0500 9F020000 		.4byte	0x29f
 1461 0504 11       		.uleb128 0x11
 1462 0505 D0020000 		.4byte	.LASF72
 1463 0509 06       		.byte	0x6
 1464 050a AB       		.byte	0xab
ARM GAS  C:\Users\DNIEL~1\AppData\Local\Temp\cctwQT4l.s 			page 27


 1465 050b E8000000 		.4byte	0xe8
 1466 050f 00       		.byte	0x0
 1467 0510 09       		.uleb128 0x9
 1468 0511 04       		.byte	0x4
 1469 0512 16050000 		.4byte	0x516
 1470 0516 14       		.uleb128 0x14
 1471 0517 1B050000 		.4byte	0x51b
 1472 051b 04       		.uleb128 0x4
 1473 051c 01       		.byte	0x1
 1474 051d 08       		.byte	0x8
 1475 051e 13030000 		.4byte	.LASF73
 1476 0522 09       		.uleb128 0x9
 1477 0523 04       		.byte	0x4
 1478 0524 A1020000 		.4byte	0x2a1
 1479 0528 09       		.uleb128 0x9
 1480 0529 04       		.byte	0x4
 1481 052a 9F030000 		.4byte	0x39f
 1482 052e 03       		.uleb128 0x3
 1483 052f 00000000 		.4byte	.LASF74
 1484 0533 06       		.byte	0x6
 1485 0534 DE       		.byte	0xde
 1486 0535 39050000 		.4byte	0x539
 1487 0539 09       		.uleb128 0x9
 1488 053a 04       		.byte	0x4
 1489 053b 3F050000 		.4byte	0x53f
 1490 053f 0E       		.uleb128 0xe
 1491 0540 01       		.byte	0x1
 1492 0541 DD000000 		.4byte	0xdd
 1493 0545 4F050000 		.4byte	0x54f
 1494 0549 0F       		.uleb128 0xf
 1495 054a 9F020000 		.4byte	0x29f
 1496 054e 00       		.byte	0x0
 1497 054f 15       		.uleb128 0x15
 1498 0550 01       		.byte	0x1
 1499 0551 BC010000 		.4byte	.LASF76
 1500 0555 01       		.byte	0x1
 1501 0556 2D       		.byte	0x2d
 1502 0557 01       		.byte	0x1
 1503 0558 61020000 		.4byte	0x261
 1504 055c 00000000 		.4byte	.LFB7
 1505 0560 4C000000 		.4byte	.LFE7
 1506 0564 00000000 		.4byte	.LLST0
 1507 0568 A9050000 		.4byte	0x5a9
 1508 056c 16       		.uleb128 0x16
 1509 056d 747000   		.ascii	"tp\000"
 1510 0570 01       		.byte	0x1
 1511 0571 2D       		.byte	0x2d
 1512 0572 61020000 		.4byte	0x261
 1513 0576 20000000 		.4byte	.LLST1
 1514 057a 17       		.uleb128 0x17
 1515 057b 00000000 		.4byte	.Ldebug_ranges0+0x0
 1516 057f 93050000 		.4byte	0x593
 1517 0583 18       		.uleb128 0x18
 1518 0584 746D7000 		.ascii	"tmp\000"
 1519 0588 01       		.byte	0x1
 1520 0589 2F       		.byte	0x2f
 1521 058a 7B000000 		.4byte	0x7b
ARM GAS  C:\Users\DNIEL~1\AppData\Local\Temp\cctwQT4l.s 			page 28


 1522 058e 3E000000 		.4byte	.LLST2
 1523 0592 00       		.byte	0x0
 1524 0593 19       		.uleb128 0x19
 1525 0594 18000000 		.4byte	.Ldebug_ranges0+0x18
 1526 0598 18       		.uleb128 0x18
 1527 0599 746D7000 		.ascii	"tmp\000"
 1528 059d 01       		.byte	0x1
 1529 059e 32       		.byte	0x32
 1530 059f 7B000000 		.4byte	0x7b
 1531 05a3 51000000 		.4byte	.LLST3
 1532 05a7 00       		.byte	0x0
 1533 05a8 00       		.byte	0x0
 1534 05a9 1A       		.uleb128 0x1a
 1535 05aa 01       		.byte	0x1
 1536 05ab E6020000 		.4byte	.LASF85
 1537 05af 01       		.byte	0x1
 1538 05b0 43       		.byte	0x43
 1539 05b1 01       		.byte	0x1
 1540 05b2 00000000 		.4byte	.LFB8
 1541 05b6 80000000 		.4byte	.LFE8
 1542 05ba 6F000000 		.4byte	.LLST4
 1543 05be 12060000 		.4byte	0x612
 1544 05c2 16       		.uleb128 0x16
 1545 05c3 747000   		.ascii	"tp\000"
 1546 05c6 01       		.byte	0x1
 1547 05c7 43       		.byte	0x43
 1548 05c8 61020000 		.4byte	0x261
 1549 05cc 8F000000 		.4byte	.LLST5
 1550 05d0 1B       		.uleb128 0x1b
 1551 05d1 69020000 		.4byte	.LASF75
 1552 05d5 01       		.byte	0x1
 1553 05d6 44       		.byte	0x44
 1554 05d7 BC000000 		.4byte	0xbc
 1555 05db AD000000 		.4byte	.LLST6
 1556 05df 17       		.uleb128 0x17
 1557 05e0 30000000 		.4byte	.Ldebug_ranges0+0x30
 1558 05e4 F8050000 		.4byte	0x5f8
 1559 05e8 18       		.uleb128 0x18
 1560 05e9 746D7000 		.ascii	"tmp\000"
 1561 05ed 01       		.byte	0x1
 1562 05ee 46       		.byte	0x46
 1563 05ef 7B000000 		.4byte	0x7b
 1564 05f3 CB000000 		.4byte	.LLST7
 1565 05f7 00       		.byte	0x0
 1566 05f8 1C       		.uleb128 0x1c
 1567 05f9 22000000 		.4byte	.LBB8
 1568 05fd 28000000 		.4byte	.LBE8
 1569 0601 18       		.uleb128 0x18
 1570 0602 746D7000 		.ascii	"tmp\000"
 1571 0606 01       		.byte	0x1
 1572 0607 49       		.byte	0x49
 1573 0608 7B000000 		.4byte	0x7b
 1574 060c DE000000 		.4byte	.LLST8
 1575 0610 00       		.byte	0x0
 1576 0611 00       		.byte	0x0
 1577 0612 15       		.uleb128 0x15
 1578 0613 01       		.byte	0x1
ARM GAS  C:\Users\DNIEL~1\AppData\Local\Temp\cctwQT4l.s 			page 29


 1579 0614 E4000000 		.4byte	.LASF77
 1580 0618 01       		.byte	0x1
 1581 0619 7B       		.byte	0x7b
 1582 061a 01       		.byte	0x1
 1583 061b 61020000 		.4byte	0x261
 1584 061f 00000000 		.4byte	.LFB9
 1585 0623 64000000 		.4byte	.LFE9
 1586 0627 FC000000 		.4byte	.LLST9
 1587 062b CC060000 		.4byte	0x6cc
 1588 062f 1D       		.uleb128 0x1d
 1589 0630 8F000000 		.4byte	.LASF78
 1590 0634 01       		.byte	0x1
 1591 0635 7B       		.byte	0x7b
 1592 0636 53040000 		.4byte	0x453
 1593 063a 28010000 		.4byte	.LLST10
 1594 063e 1D       		.uleb128 0x1d
 1595 063f 78010000 		.4byte	.LASF62
 1596 0643 01       		.byte	0x1
 1597 0644 7B       		.byte	0x7b
 1598 0645 30000000 		.4byte	0x30
 1599 0649 3B010000 		.4byte	.LLST11
 1600 064d 1D       		.uleb128 0x1d
 1601 064e F7010000 		.4byte	.LASF79
 1602 0652 01       		.byte	0x1
 1603 0653 7C       		.byte	0x7c
 1604 0654 D2000000 		.4byte	0xd2
 1605 0658 59010000 		.4byte	.LLST12
 1606 065c 16       		.uleb128 0x16
 1607 065d 706600   		.ascii	"pf\000"
 1608 0660 01       		.byte	0x1
 1609 0661 7C       		.byte	0x7c
 1610 0662 2E050000 		.4byte	0x52e
 1611 0666 77010000 		.4byte	.LLST13
 1612 066a 1E       		.uleb128 0x1e
 1613 066b 61726700 		.ascii	"arg\000"
 1614 066f 01       		.byte	0x1
 1615 0670 7C       		.byte	0x7c
 1616 0671 9F020000 		.4byte	0x29f
 1617 0675 02       		.byte	0x2
 1618 0676 91       		.byte	0x91
 1619 0677 00       		.sleb128 0
 1620 0678 18       		.uleb128 0x18
 1621 0679 77737000 		.ascii	"wsp\000"
 1622 067d 01       		.byte	0x1
 1623 067e 7D       		.byte	0x7d
 1624 067f 9F020000 		.4byte	0x29f
 1625 0683 95010000 		.4byte	.LLST14
 1626 0687 18       		.uleb128 0x18
 1627 0688 747000   		.ascii	"tp\000"
 1628 068b 01       		.byte	0x1
 1629 068c 7E       		.byte	0x7e
 1630 068d 61020000 		.4byte	0x261
 1631 0691 CC010000 		.4byte	.LLST15
 1632 0695 1F       		.uleb128 0x1f
 1633 0696 2A000000 		.4byte	.LBB9
 1634 069a 30000000 		.4byte	.LBE9
 1635 069e B2060000 		.4byte	0x6b2
ARM GAS  C:\Users\DNIEL~1\AppData\Local\Temp\cctwQT4l.s 			page 30


 1636 06a2 18       		.uleb128 0x18
 1637 06a3 746D7000 		.ascii	"tmp\000"
 1638 06a7 01       		.byte	0x1
 1639 06a8 8D       		.byte	0x8d
 1640 06a9 7B000000 		.4byte	0x7b
 1641 06ad EA010000 		.4byte	.LLST16
 1642 06b1 00       		.byte	0x0
 1643 06b2 1C       		.uleb128 0x1c
 1644 06b3 56000000 		.4byte	.LBB10
 1645 06b7 5C000000 		.4byte	.LBE10
 1646 06bb 18       		.uleb128 0x18
 1647 06bc 746D7000 		.ascii	"tmp\000"
 1648 06c0 01       		.byte	0x1
 1649 06c1 91       		.byte	0x91
 1650 06c2 7B000000 		.4byte	0x7b
 1651 06c6 FD010000 		.4byte	.LLST17
 1652 06ca 00       		.byte	0x0
 1653 06cb 00       		.byte	0x0
 1654 06cc 15       		.uleb128 0x15
 1655 06cd 01       		.byte	0x1
 1656 06ce 11010000 		.4byte	.LASF80
 1657 06d2 01       		.byte	0x1
 1658 06d3 AC       		.byte	0xac
 1659 06d4 01       		.byte	0x1
 1660 06d5 61020000 		.4byte	0x261
 1661 06d9 00000000 		.4byte	.LFB10
 1662 06dd 7C000000 		.4byte	.LFE10
 1663 06e1 10020000 		.4byte	.LLST18
 1664 06e5 77070000 		.4byte	0x777
 1665 06e9 16       		.uleb128 0x16
 1666 06ea 6D7000   		.ascii	"mp\000"
 1667 06ed 01       		.byte	0x1
 1668 06ee AC       		.byte	0xac
 1669 06ef 77070000 		.4byte	0x777
 1670 06f3 3C020000 		.4byte	.LLST19
 1671 06f7 1D       		.uleb128 0x1d
 1672 06f8 F7010000 		.4byte	.LASF79
 1673 06fc 01       		.byte	0x1
 1674 06fd AC       		.byte	0xac
 1675 06fe D2000000 		.4byte	0xd2
 1676 0702 5A020000 		.4byte	.LLST20
 1677 0706 16       		.uleb128 0x16
 1678 0707 706600   		.ascii	"pf\000"
 1679 070a 01       		.byte	0x1
 1680 070b AD       		.byte	0xad
 1681 070c 2E050000 		.4byte	0x52e
 1682 0710 78020000 		.4byte	.LLST21
 1683 0714 16       		.uleb128 0x16
 1684 0715 61726700 		.ascii	"arg\000"
 1685 0719 01       		.byte	0x1
 1686 071a AD       		.byte	0xad
 1687 071b 9F020000 		.4byte	0x29f
 1688 071f 96020000 		.4byte	.LLST22
 1689 0723 18       		.uleb128 0x18
 1690 0724 77737000 		.ascii	"wsp\000"
 1691 0728 01       		.byte	0x1
 1692 0729 AE       		.byte	0xae
ARM GAS  C:\Users\DNIEL~1\AppData\Local\Temp\cctwQT4l.s 			page 31


 1693 072a 9F020000 		.4byte	0x29f
 1694 072e B4020000 		.4byte	.LLST23
 1695 0732 18       		.uleb128 0x18
 1696 0733 747000   		.ascii	"tp\000"
 1697 0736 01       		.byte	0x1
 1698 0737 AF       		.byte	0xaf
 1699 0738 61020000 		.4byte	0x261
 1700 073c E0020000 		.4byte	.LLST24
 1701 0740 1F       		.uleb128 0x1f
 1702 0741 34000000 		.4byte	.LBB11
 1703 0745 3A000000 		.4byte	.LBE11
 1704 0749 5D070000 		.4byte	0x75d
 1705 074d 18       		.uleb128 0x18
 1706 074e 746D7000 		.ascii	"tmp\000"
 1707 0752 01       		.byte	0x1
 1708 0753 C0       		.byte	0xc0
 1709 0754 7B000000 		.4byte	0x7b
 1710 0758 FE020000 		.4byte	.LLST25
 1711 075c 00       		.byte	0x0
 1712 075d 1C       		.uleb128 0x1c
 1713 075e 62000000 		.4byte	.LBB12
 1714 0762 68000000 		.4byte	.LBE12
 1715 0766 18       		.uleb128 0x18
 1716 0767 746D7000 		.ascii	"tmp\000"
 1717 076b 01       		.byte	0x1
 1718 076c C5       		.byte	0xc5
 1719 076d 7B000000 		.4byte	0x7b
 1720 0771 11030000 		.4byte	.LLST26
 1721 0775 00       		.byte	0x0
 1722 0776 00       		.byte	0x0
 1723 0777 09       		.uleb128 0x9
 1724 0778 04       		.byte	0x4
 1725 0779 D0040000 		.4byte	0x4d0
 1726 077d 00       		.byte	0x0
 1727              		.section	.debug_abbrev
 1728 0000 01       		.uleb128 0x1
 1729 0001 11       		.uleb128 0x11
 1730 0002 01       		.byte	0x1
 1731 0003 25       		.uleb128 0x25
 1732 0004 0E       		.uleb128 0xe
 1733 0005 13       		.uleb128 0x13
 1734 0006 0B       		.uleb128 0xb
 1735 0007 03       		.uleb128 0x3
 1736 0008 0E       		.uleb128 0xe
 1737 0009 1B       		.uleb128 0x1b
 1738 000a 0E       		.uleb128 0xe
 1739 000b 11       		.uleb128 0x11
 1740 000c 01       		.uleb128 0x1
 1741 000d 52       		.uleb128 0x52
 1742 000e 01       		.uleb128 0x1
 1743 000f 55       		.uleb128 0x55
 1744 0010 06       		.uleb128 0x6
 1745 0011 10       		.uleb128 0x10
 1746 0012 06       		.uleb128 0x6
 1747 0013 00       		.byte	0x0
 1748 0014 00       		.byte	0x0
 1749 0015 02       		.uleb128 0x2
ARM GAS  C:\Users\DNIEL~1\AppData\Local\Temp\cctwQT4l.s 			page 32


 1750 0016 24       		.uleb128 0x24
 1751 0017 00       		.byte	0x0
 1752 0018 0B       		.uleb128 0xb
 1753 0019 0B       		.uleb128 0xb
 1754 001a 3E       		.uleb128 0x3e
 1755 001b 0B       		.uleb128 0xb
 1756 001c 03       		.uleb128 0x3
 1757 001d 08       		.uleb128 0x8
 1758 001e 00       		.byte	0x0
 1759 001f 00       		.byte	0x0
 1760 0020 03       		.uleb128 0x3
 1761 0021 16       		.uleb128 0x16
 1762 0022 00       		.byte	0x0
 1763 0023 03       		.uleb128 0x3
 1764 0024 0E       		.uleb128 0xe
 1765 0025 3A       		.uleb128 0x3a
 1766 0026 0B       		.uleb128 0xb
 1767 0027 3B       		.uleb128 0x3b
 1768 0028 0B       		.uleb128 0xb
 1769 0029 49       		.uleb128 0x49
 1770 002a 13       		.uleb128 0x13
 1771 002b 00       		.byte	0x0
 1772 002c 00       		.byte	0x0
 1773 002d 04       		.uleb128 0x4
 1774 002e 24       		.uleb128 0x24
 1775 002f 00       		.byte	0x0
 1776 0030 0B       		.uleb128 0xb
 1777 0031 0B       		.uleb128 0xb
 1778 0032 3E       		.uleb128 0x3e
 1779 0033 0B       		.uleb128 0xb
 1780 0034 03       		.uleb128 0x3
 1781 0035 0E       		.uleb128 0xe
 1782 0036 00       		.byte	0x0
 1783 0037 00       		.byte	0x0
 1784 0038 05       		.uleb128 0x5
 1785 0039 13       		.uleb128 0x13
 1786 003a 01       		.byte	0x1
 1787 003b 03       		.uleb128 0x3
 1788 003c 0E       		.uleb128 0xe
 1789 003d 0B       		.uleb128 0xb
 1790 003e 0B       		.uleb128 0xb
 1791 003f 3A       		.uleb128 0x3a
 1792 0040 0B       		.uleb128 0xb
 1793 0041 3B       		.uleb128 0x3b
 1794 0042 0B       		.uleb128 0xb
 1795 0043 01       		.uleb128 0x1
 1796 0044 13       		.uleb128 0x13
 1797 0045 00       		.byte	0x0
 1798 0046 00       		.byte	0x0
 1799 0047 06       		.uleb128 0x6
 1800 0048 0D       		.uleb128 0xd
 1801 0049 00       		.byte	0x0
 1802 004a 03       		.uleb128 0x3
 1803 004b 0E       		.uleb128 0xe
 1804 004c 3A       		.uleb128 0x3a
 1805 004d 0B       		.uleb128 0xb
 1806 004e 3B       		.uleb128 0x3b
ARM GAS  C:\Users\DNIEL~1\AppData\Local\Temp\cctwQT4l.s 			page 33


 1807 004f 0B       		.uleb128 0xb
 1808 0050 49       		.uleb128 0x49
 1809 0051 13       		.uleb128 0x13
 1810 0052 38       		.uleb128 0x38
 1811 0053 0A       		.uleb128 0xa
 1812 0054 00       		.byte	0x0
 1813 0055 00       		.byte	0x0
 1814 0056 07       		.uleb128 0x7
 1815 0057 0D       		.uleb128 0xd
 1816 0058 00       		.byte	0x0
 1817 0059 03       		.uleb128 0x3
 1818 005a 08       		.uleb128 0x8
 1819 005b 3A       		.uleb128 0x3a
 1820 005c 0B       		.uleb128 0xb
 1821 005d 3B       		.uleb128 0x3b
 1822 005e 0B       		.uleb128 0xb
 1823 005f 49       		.uleb128 0x49
 1824 0060 13       		.uleb128 0x13
 1825 0061 38       		.uleb128 0x38
 1826 0062 0A       		.uleb128 0xa
 1827 0063 00       		.byte	0x0
 1828 0064 00       		.byte	0x0
 1829 0065 08       		.uleb128 0x8
 1830 0066 13       		.uleb128 0x13
 1831 0067 01       		.byte	0x1
 1832 0068 0B       		.uleb128 0xb
 1833 0069 0B       		.uleb128 0xb
 1834 006a 3A       		.uleb128 0x3a
 1835 006b 0B       		.uleb128 0xb
 1836 006c 3B       		.uleb128 0x3b
 1837 006d 0B       		.uleb128 0xb
 1838 006e 01       		.uleb128 0x1
 1839 006f 13       		.uleb128 0x13
 1840 0070 00       		.byte	0x0
 1841 0071 00       		.byte	0x0
 1842 0072 09       		.uleb128 0x9
 1843 0073 0F       		.uleb128 0xf
 1844 0074 00       		.byte	0x0
 1845 0075 0B       		.uleb128 0xb
 1846 0076 0B       		.uleb128 0xb
 1847 0077 49       		.uleb128 0x49
 1848 0078 13       		.uleb128 0x13
 1849 0079 00       		.byte	0x0
 1850 007a 00       		.byte	0x0
 1851 007b 0A       		.uleb128 0xa
 1852 007c 0F       		.uleb128 0xf
 1853 007d 00       		.byte	0x0
 1854 007e 0B       		.uleb128 0xb
 1855 007f 0B       		.uleb128 0xb
 1856 0080 00       		.byte	0x0
 1857 0081 00       		.byte	0x0
 1858 0082 0B       		.uleb128 0xb
 1859 0083 13       		.uleb128 0x13
 1860 0084 01       		.byte	0x1
 1861 0085 03       		.uleb128 0x3
 1862 0086 0E       		.uleb128 0xe
 1863 0087 0B       		.uleb128 0xb
ARM GAS  C:\Users\DNIEL~1\AppData\Local\Temp\cctwQT4l.s 			page 34


 1864 0088 0B       		.uleb128 0xb
 1865 0089 3A       		.uleb128 0x3a
 1866 008a 0B       		.uleb128 0xb
 1867 008b 3B       		.uleb128 0x3b
 1868 008c 05       		.uleb128 0x5
 1869 008d 01       		.uleb128 0x1
 1870 008e 13       		.uleb128 0x13
 1871 008f 00       		.byte	0x0
 1872 0090 00       		.byte	0x0
 1873 0091 0C       		.uleb128 0xc
 1874 0092 0D       		.uleb128 0xd
 1875 0093 00       		.byte	0x0
 1876 0094 03       		.uleb128 0x3
 1877 0095 08       		.uleb128 0x8
 1878 0096 3A       		.uleb128 0x3a
 1879 0097 0B       		.uleb128 0xb
 1880 0098 3B       		.uleb128 0x3b
 1881 0099 05       		.uleb128 0x5
 1882 009a 49       		.uleb128 0x49
 1883 009b 13       		.uleb128 0x13
 1884 009c 38       		.uleb128 0x38
 1885 009d 0A       		.uleb128 0xa
 1886 009e 00       		.byte	0x0
 1887 009f 00       		.byte	0x0
 1888 00a0 0D       		.uleb128 0xd
 1889 00a1 35       		.uleb128 0x35
 1890 00a2 00       		.byte	0x0
 1891 00a3 49       		.uleb128 0x49
 1892 00a4 13       		.uleb128 0x13
 1893 00a5 00       		.byte	0x0
 1894 00a6 00       		.byte	0x0
 1895 00a7 0E       		.uleb128 0xe
 1896 00a8 15       		.uleb128 0x15
 1897 00a9 01       		.byte	0x1
 1898 00aa 27       		.uleb128 0x27
 1899 00ab 0C       		.uleb128 0xc
 1900 00ac 49       		.uleb128 0x49
 1901 00ad 13       		.uleb128 0x13
 1902 00ae 01       		.uleb128 0x1
 1903 00af 13       		.uleb128 0x13
 1904 00b0 00       		.byte	0x0
 1905 00b1 00       		.byte	0x0
 1906 00b2 0F       		.uleb128 0xf
 1907 00b3 05       		.uleb128 0x5
 1908 00b4 00       		.byte	0x0
 1909 00b5 49       		.uleb128 0x49
 1910 00b6 13       		.uleb128 0x13
 1911 00b7 00       		.byte	0x0
 1912 00b8 00       		.byte	0x0
 1913 00b9 10       		.uleb128 0x10
 1914 00ba 17       		.uleb128 0x17
 1915 00bb 01       		.byte	0x1
 1916 00bc 0B       		.uleb128 0xb
 1917 00bd 0B       		.uleb128 0xb
 1918 00be 3A       		.uleb128 0x3a
 1919 00bf 0B       		.uleb128 0xb
 1920 00c0 3B       		.uleb128 0x3b
ARM GAS  C:\Users\DNIEL~1\AppData\Local\Temp\cctwQT4l.s 			page 35


 1921 00c1 0B       		.uleb128 0xb
 1922 00c2 01       		.uleb128 0x1
 1923 00c3 13       		.uleb128 0x13
 1924 00c4 00       		.byte	0x0
 1925 00c5 00       		.byte	0x0
 1926 00c6 11       		.uleb128 0x11
 1927 00c7 0D       		.uleb128 0xd
 1928 00c8 00       		.byte	0x0
 1929 00c9 03       		.uleb128 0x3
 1930 00ca 0E       		.uleb128 0xe
 1931 00cb 3A       		.uleb128 0x3a
 1932 00cc 0B       		.uleb128 0xb
 1933 00cd 3B       		.uleb128 0x3b
 1934 00ce 0B       		.uleb128 0xb
 1935 00cf 49       		.uleb128 0x49
 1936 00d0 13       		.uleb128 0x13
 1937 00d1 00       		.byte	0x0
 1938 00d2 00       		.byte	0x0
 1939 00d3 12       		.uleb128 0x12
 1940 00d4 17       		.uleb128 0x17
 1941 00d5 01       		.byte	0x1
 1942 00d6 03       		.uleb128 0x3
 1943 00d7 0E       		.uleb128 0xe
 1944 00d8 0B       		.uleb128 0xb
 1945 00d9 0B       		.uleb128 0xb
 1946 00da 3A       		.uleb128 0x3a
 1947 00db 0B       		.uleb128 0xb
 1948 00dc 3B       		.uleb128 0x3b
 1949 00dd 0B       		.uleb128 0xb
 1950 00de 01       		.uleb128 0x1
 1951 00df 13       		.uleb128 0x13
 1952 00e0 00       		.byte	0x0
 1953 00e1 00       		.byte	0x0
 1954 00e2 13       		.uleb128 0x13
 1955 00e3 0D       		.uleb128 0xd
 1956 00e4 00       		.byte	0x0
 1957 00e5 03       		.uleb128 0x3
 1958 00e6 08       		.uleb128 0x8
 1959 00e7 3A       		.uleb128 0x3a
 1960 00e8 0B       		.uleb128 0xb
 1961 00e9 3B       		.uleb128 0x3b
 1962 00ea 0B       		.uleb128 0xb
 1963 00eb 49       		.uleb128 0x49
 1964 00ec 13       		.uleb128 0x13
 1965 00ed 00       		.byte	0x0
 1966 00ee 00       		.byte	0x0
 1967 00ef 14       		.uleb128 0x14
 1968 00f0 26       		.uleb128 0x26
 1969 00f1 00       		.byte	0x0
 1970 00f2 49       		.uleb128 0x49
 1971 00f3 13       		.uleb128 0x13
 1972 00f4 00       		.byte	0x0
 1973 00f5 00       		.byte	0x0
 1974 00f6 15       		.uleb128 0x15
 1975 00f7 2E       		.uleb128 0x2e
 1976 00f8 01       		.byte	0x1
 1977 00f9 3F       		.uleb128 0x3f
ARM GAS  C:\Users\DNIEL~1\AppData\Local\Temp\cctwQT4l.s 			page 36


 1978 00fa 0C       		.uleb128 0xc
 1979 00fb 03       		.uleb128 0x3
 1980 00fc 0E       		.uleb128 0xe
 1981 00fd 3A       		.uleb128 0x3a
 1982 00fe 0B       		.uleb128 0xb
 1983 00ff 3B       		.uleb128 0x3b
 1984 0100 0B       		.uleb128 0xb
 1985 0101 27       		.uleb128 0x27
 1986 0102 0C       		.uleb128 0xc
 1987 0103 49       		.uleb128 0x49
 1988 0104 13       		.uleb128 0x13
 1989 0105 11       		.uleb128 0x11
 1990 0106 01       		.uleb128 0x1
 1991 0107 12       		.uleb128 0x12
 1992 0108 01       		.uleb128 0x1
 1993 0109 40       		.uleb128 0x40
 1994 010a 06       		.uleb128 0x6
 1995 010b 01       		.uleb128 0x1
 1996 010c 13       		.uleb128 0x13
 1997 010d 00       		.byte	0x0
 1998 010e 00       		.byte	0x0
 1999 010f 16       		.uleb128 0x16
 2000 0110 05       		.uleb128 0x5
 2001 0111 00       		.byte	0x0
 2002 0112 03       		.uleb128 0x3
 2003 0113 08       		.uleb128 0x8
 2004 0114 3A       		.uleb128 0x3a
 2005 0115 0B       		.uleb128 0xb
 2006 0116 3B       		.uleb128 0x3b
 2007 0117 0B       		.uleb128 0xb
 2008 0118 49       		.uleb128 0x49
 2009 0119 13       		.uleb128 0x13
 2010 011a 02       		.uleb128 0x2
 2011 011b 06       		.uleb128 0x6
 2012 011c 00       		.byte	0x0
 2013 011d 00       		.byte	0x0
 2014 011e 17       		.uleb128 0x17
 2015 011f 0B       		.uleb128 0xb
 2016 0120 01       		.byte	0x1
 2017 0121 55       		.uleb128 0x55
 2018 0122 06       		.uleb128 0x6
 2019 0123 01       		.uleb128 0x1
 2020 0124 13       		.uleb128 0x13
 2021 0125 00       		.byte	0x0
 2022 0126 00       		.byte	0x0
 2023 0127 18       		.uleb128 0x18
 2024 0128 34       		.uleb128 0x34
 2025 0129 00       		.byte	0x0
 2026 012a 03       		.uleb128 0x3
 2027 012b 08       		.uleb128 0x8
 2028 012c 3A       		.uleb128 0x3a
 2029 012d 0B       		.uleb128 0xb
 2030 012e 3B       		.uleb128 0x3b
 2031 012f 0B       		.uleb128 0xb
 2032 0130 49       		.uleb128 0x49
 2033 0131 13       		.uleb128 0x13
 2034 0132 02       		.uleb128 0x2
ARM GAS  C:\Users\DNIEL~1\AppData\Local\Temp\cctwQT4l.s 			page 37


 2035 0133 06       		.uleb128 0x6
 2036 0134 00       		.byte	0x0
 2037 0135 00       		.byte	0x0
 2038 0136 19       		.uleb128 0x19
 2039 0137 0B       		.uleb128 0xb
 2040 0138 01       		.byte	0x1
 2041 0139 55       		.uleb128 0x55
 2042 013a 06       		.uleb128 0x6
 2043 013b 00       		.byte	0x0
 2044 013c 00       		.byte	0x0
 2045 013d 1A       		.uleb128 0x1a
 2046 013e 2E       		.uleb128 0x2e
 2047 013f 01       		.byte	0x1
 2048 0140 3F       		.uleb128 0x3f
 2049 0141 0C       		.uleb128 0xc
 2050 0142 03       		.uleb128 0x3
 2051 0143 0E       		.uleb128 0xe
 2052 0144 3A       		.uleb128 0x3a
 2053 0145 0B       		.uleb128 0xb
 2054 0146 3B       		.uleb128 0x3b
 2055 0147 0B       		.uleb128 0xb
 2056 0148 27       		.uleb128 0x27
 2057 0149 0C       		.uleb128 0xc
 2058 014a 11       		.uleb128 0x11
 2059 014b 01       		.uleb128 0x1
 2060 014c 12       		.uleb128 0x12
 2061 014d 01       		.uleb128 0x1
 2062 014e 40       		.uleb128 0x40
 2063 014f 06       		.uleb128 0x6
 2064 0150 01       		.uleb128 0x1
 2065 0151 13       		.uleb128 0x13
 2066 0152 00       		.byte	0x0
 2067 0153 00       		.byte	0x0
 2068 0154 1B       		.uleb128 0x1b
 2069 0155 34       		.uleb128 0x34
 2070 0156 00       		.byte	0x0
 2071 0157 03       		.uleb128 0x3
 2072 0158 0E       		.uleb128 0xe
 2073 0159 3A       		.uleb128 0x3a
 2074 015a 0B       		.uleb128 0xb
 2075 015b 3B       		.uleb128 0x3b
 2076 015c 0B       		.uleb128 0xb
 2077 015d 49       		.uleb128 0x49
 2078 015e 13       		.uleb128 0x13
 2079 015f 02       		.uleb128 0x2
 2080 0160 06       		.uleb128 0x6
 2081 0161 00       		.byte	0x0
 2082 0162 00       		.byte	0x0
 2083 0163 1C       		.uleb128 0x1c
 2084 0164 0B       		.uleb128 0xb
 2085 0165 01       		.byte	0x1
 2086 0166 11       		.uleb128 0x11
 2087 0167 01       		.uleb128 0x1
 2088 0168 12       		.uleb128 0x12
 2089 0169 01       		.uleb128 0x1
 2090 016a 00       		.byte	0x0
 2091 016b 00       		.byte	0x0
ARM GAS  C:\Users\DNIEL~1\AppData\Local\Temp\cctwQT4l.s 			page 38


 2092 016c 1D       		.uleb128 0x1d
 2093 016d 05       		.uleb128 0x5
 2094 016e 00       		.byte	0x0
 2095 016f 03       		.uleb128 0x3
 2096 0170 0E       		.uleb128 0xe
 2097 0171 3A       		.uleb128 0x3a
 2098 0172 0B       		.uleb128 0xb
 2099 0173 3B       		.uleb128 0x3b
 2100 0174 0B       		.uleb128 0xb
 2101 0175 49       		.uleb128 0x49
 2102 0176 13       		.uleb128 0x13
 2103 0177 02       		.uleb128 0x2
 2104 0178 06       		.uleb128 0x6
 2105 0179 00       		.byte	0x0
 2106 017a 00       		.byte	0x0
 2107 017b 1E       		.uleb128 0x1e
 2108 017c 05       		.uleb128 0x5
 2109 017d 00       		.byte	0x0
 2110 017e 03       		.uleb128 0x3
 2111 017f 08       		.uleb128 0x8
 2112 0180 3A       		.uleb128 0x3a
 2113 0181 0B       		.uleb128 0xb
 2114 0182 3B       		.uleb128 0x3b
 2115 0183 0B       		.uleb128 0xb
 2116 0184 49       		.uleb128 0x49
 2117 0185 13       		.uleb128 0x13
 2118 0186 02       		.uleb128 0x2
 2119 0187 0A       		.uleb128 0xa
 2120 0188 00       		.byte	0x0
 2121 0189 00       		.byte	0x0
 2122 018a 1F       		.uleb128 0x1f
 2123 018b 0B       		.uleb128 0xb
 2124 018c 01       		.byte	0x1
 2125 018d 11       		.uleb128 0x11
 2126 018e 01       		.uleb128 0x1
 2127 018f 12       		.uleb128 0x12
 2128 0190 01       		.uleb128 0x1
 2129 0191 01       		.uleb128 0x1
 2130 0192 13       		.uleb128 0x13
 2131 0193 00       		.byte	0x0
 2132 0194 00       		.byte	0x0
 2133 0195 00       		.byte	0x0
 2134              		.section	.debug_pubnames,"",%progbits
 2135 0000 65000000 		.4byte	0x65
 2136 0004 0200     		.2byte	0x2
 2137 0006 00000000 		.4byte	.Ldebug_info0
 2138 000a 7E070000 		.4byte	0x77e
 2139 000e 4F050000 		.4byte	0x54f
 2140 0012 63685468 		.ascii	"chThdAddRef\000"
 2140      64416464 
 2140      52656600 
 2141 001e A9050000 		.4byte	0x5a9
 2142 0022 63685468 		.ascii	"chThdRelease\000"
 2142      6452656C 
 2142      65617365 
 2142      00
 2143 002f 12060000 		.4byte	0x612
ARM GAS  C:\Users\DNIEL~1\AppData\Local\Temp\cctwQT4l.s 			page 39


 2144 0033 63685468 		.ascii	"chThdCreateFromHeap\000"
 2144      64437265 
 2144      61746546 
 2144      726F6D48 
 2144      65617000 
 2145 0047 CC060000 		.4byte	0x6cc
 2146 004b 63685468 		.ascii	"chThdCreateFromMemoryPool\000"
 2146      64437265 
 2146      61746546 
 2146      726F6D4D 
 2146      656D6F72 
 2147 0065 00000000 		.4byte	0x0
 2148              		.section	.debug_pubtypes,"",%progbits
 2149 0000 9B010000 		.4byte	0x19b
 2150 0004 0200     		.2byte	0x2
 2151 0006 00000000 		.4byte	.Ldebug_info0
 2152 000a 7E070000 		.4byte	0x77e
 2153 000e 30000000 		.4byte	0x30
 2154 0012 73697A65 		.ascii	"size_t\000"
 2154      5F7400
 2155 0019 49000000 		.4byte	0x49
 2156 001d 75696E74 		.ascii	"uint8_t\000"
 2156      385F7400 
 2157 0025 69000000 		.4byte	0x69
 2158 0029 696E7433 		.ascii	"int32_t\000"
 2158      325F7400 
 2159 0031 7B000000 		.4byte	0x7b
 2160 0035 75696E74 		.ascii	"uint32_t\000"
 2160      33325F74 
 2160      00
 2161 003e 94000000 		.4byte	0x94
 2162 0042 75696E74 		.ascii	"uint64_t\000"
 2162      36345F74 
 2162      00
 2163 004b A6000000 		.4byte	0xa6
 2164 004f 746D6F64 		.ascii	"tmode_t\000"
 2164      655F7400 
 2165 0057 B1000000 		.4byte	0xb1
 2166 005b 74737461 		.ascii	"tstate_t\000"
 2166      74655F74 
 2166      00
 2167 0064 BC000000 		.4byte	0xbc
 2168 0068 74726566 		.ascii	"trefs_t\000"
 2168      735F7400 
 2169 0070 C7000000 		.4byte	0xc7
 2170 0074 74736C69 		.ascii	"tslices_t\000"
 2170      6365735F 
 2170      7400
 2171 007e D2000000 		.4byte	0xd2
 2172 0082 74707269 		.ascii	"tprio_t\000"
 2172      6F5F7400 
 2173 008a DD000000 		.4byte	0xdd
 2174 008e 6D73675F 		.ascii	"msg_t\000"
 2174      7400
 2175 0094 E8000000 		.4byte	0xe8
 2176 0098 6576656E 		.ascii	"eventmask_t\000"
 2176      746D6173 
ARM GAS  C:\Users\DNIEL~1\AppData\Local\Temp\cctwQT4l.s 			page 40


 2176      6B5F7400 
 2177 00a4 F3000000 		.4byte	0xf3
 2178 00a8 73797374 		.ascii	"systime_t\000"
 2178      696D655F 
 2178      7400
 2179 00b2 FE000000 		.4byte	0xfe
 2180 00b6 54687265 		.ascii	"Thread\000"
 2180      616400
 2181 00bd 67020000 		.4byte	0x267
 2182 00c1 54687265 		.ascii	"ThreadsQueue\000"
 2182      61647351 
 2182      75657565 
 2182      00
 2183 00ce 89020000 		.4byte	0x289
 2184 00d2 54687265 		.ascii	"ThreadsList\000"
 2184      6164734C 
 2184      69737400 
 2185 00de 94020000 		.4byte	0x294
 2186 00e2 72656761 		.ascii	"regarm_t\000"
 2186      726D5F74 
 2186      00
 2187 00eb A1020000 		.4byte	0x2a1
 2188 00ef 73746B61 		.ascii	"stkalign_t\000"
 2188      6C69676E 
 2188      5F7400
 2189 00fa AC020000 		.4byte	0x2ac
 2190 00fe 696E7463 		.ascii	"intctx\000"
 2190      747800
 2191 0105 3A030000 		.4byte	0x33a
 2192 0109 636F6E74 		.ascii	"context\000"
 2192      65787400 
 2193 0111 62030000 		.4byte	0x362
 2194 0115 4D757465 		.ascii	"Mutex\000"
 2194      7800
 2195 011b 9F030000 		.4byte	0x39f
 2196 011f 4D757465 		.ascii	"Mutex\000"
 2196      7800
 2197 0125 AA030000 		.4byte	0x3aa
 2198 0129 6D656D67 		.ascii	"memgetfunc_t\000"
 2198      65746675 
 2198      6E635F74 
 2198      00
 2199 0136 CB030000 		.4byte	0x3cb
 2200 013a 4D656D6F 		.ascii	"MemoryHeap\000"
 2200      72794865 
 2200      617000
 2201 0145 2C040000 		.4byte	0x42c
 2202 0149 68656170 		.ascii	"heap_header\000"
 2202      5F686561 
 2202      64657200 
 2203 0155 D6030000 		.4byte	0x3d6
 2204 0159 6D656D6F 		.ascii	"memory_heap\000"
 2204      72795F68 
 2204      65617000 
 2205 0165 7C040000 		.4byte	0x47c
 2206 0169 706F6F6C 		.ascii	"pool_header\000"
 2206      5F686561 
ARM GAS  C:\Users\DNIEL~1\AppData\Local\Temp\cctwQT4l.s 			page 41


 2206      64657200 
 2207 0175 D0040000 		.4byte	0x4d0
 2208 0179 4D656D6F 		.ascii	"MemoryPool\000"
 2208      7279506F 
 2208      6F6C00
 2209 0184 09010000 		.4byte	0x109
 2210 0188 54687265 		.ascii	"Thread\000"
 2210      616400
 2211 018f 2E050000 		.4byte	0x52e
 2212 0193 7466756E 		.ascii	"tfunc_t\000"
 2212      635F7400 
 2213 019b 00000000 		.4byte	0x0
 2214              		.section	.debug_aranges,"",%progbits
 2215 0000 34000000 		.4byte	0x34
 2216 0004 0200     		.2byte	0x2
 2217 0006 00000000 		.4byte	.Ldebug_info0
 2218 000a 04       		.byte	0x4
 2219 000b 00       		.byte	0x0
 2220 000c 0000     		.2byte	0x0
 2221 000e 0000     		.2byte	0x0
 2222 0010 00000000 		.4byte	.LFB7
 2223 0014 4C000000 		.4byte	.LFE7-.LFB7
 2224 0018 00000000 		.4byte	.LFB8
 2225 001c 80000000 		.4byte	.LFE8-.LFB8
 2226 0020 00000000 		.4byte	.LFB9
 2227 0024 64000000 		.4byte	.LFE9-.LFB9
 2228 0028 00000000 		.4byte	.LFB10
 2229 002c 7C000000 		.4byte	.LFE10-.LFB10
 2230 0030 00000000 		.4byte	0x0
 2231 0034 00000000 		.4byte	0x0
 2232              		.section	.debug_ranges,"",%progbits
 2233              	.Ldebug_ranges0:
 2234 0000 02000000 		.4byte	.LBB2
 2235 0004 04000000 		.4byte	.LBE2
 2236 0008 06000000 		.4byte	.LBB3
 2237 000c 0A000000 		.4byte	.LBE3
 2238 0010 00000000 		.4byte	0x0
 2239 0014 00000000 		.4byte	0x0
 2240 0018 20000000 		.4byte	.LBB4
 2241 001c 26000000 		.4byte	.LBE4
 2242 0020 3E000000 		.4byte	.LBB5
 2243 0024 44000000 		.4byte	.LBE5
 2244 0028 00000000 		.4byte	0x0
 2245 002c 00000000 		.4byte	0x0
 2246 0030 02000000 		.4byte	.LBB6
 2247 0034 04000000 		.4byte	.LBE6
 2248 0038 06000000 		.4byte	.LBB7
 2249 003c 0A000000 		.4byte	.LBE7
 2250 0040 00000000 		.4byte	0x0
 2251 0044 00000000 		.4byte	0x0
 2252 0048 00000000 		.4byte	.LFB7
 2253 004c 4C000000 		.4byte	.LFE7
 2254 0050 00000000 		.4byte	.LFB8
 2255 0054 80000000 		.4byte	.LFE8
 2256 0058 00000000 		.4byte	.LFB9
 2257 005c 64000000 		.4byte	.LFE9
 2258 0060 00000000 		.4byte	.LFB10
ARM GAS  C:\Users\DNIEL~1\AppData\Local\Temp\cctwQT4l.s 			page 42


 2259 0064 7C000000 		.4byte	.LFE10
 2260 0068 00000000 		.4byte	0x0
 2261 006c 00000000 		.4byte	0x0
 2262              		.section	.debug_str,"MS",%progbits,1
 2263              	.LASF74:
 2264 0000 7466756E 		.ascii	"tfunc_t\000"
 2264      635F7400 
 2265              	.LASF38:
 2266 0008 705F6D73 		.ascii	"p_msg\000"
 2266      6700
 2267              	.LASF2:
 2268 000e 73697A65 		.ascii	"size_t\000"
 2268      5F7400
 2269              	.LASF69:
 2270 0015 7264796D 		.ascii	"rdymsg\000"
 2270      736700
 2271              	.LASF12:
 2272 001c 75696E74 		.ascii	"uint64_t\000"
 2272      36345F74 
 2272      00
 2273              	.LASF82:
 2274 0025 2E2E2F2E 		.ascii	"../../../ChibiOS/os/kernel/src/chdynamic.c\000"
 2274      2E2F2E2E 
 2274      2F436869 
 2274      62694F53 
 2274      2F6F732F 
 2275              	.LASF68:
 2276 0050 4D656D6F 		.ascii	"MemoryPool\000"
 2276      7279506F 
 2276      6F6C00
 2277              	.LASF53:
 2278 005b 6D656D67 		.ascii	"memgetfunc_t\000"
 2278      65746675 
 2278      6E635F74 
 2278      00
 2279              	.LASF13:
 2280 0068 6C6F6E67 		.ascii	"long long unsigned int\000"
 2280      206C6F6E 
 2280      6720756E 
 2280      7369676E 
 2280      65642069 
 2281              	.LASF70:
 2282 007f 65786974 		.ascii	"exitcode\000"
 2282      636F6465 
 2282      00
 2283              	.LASF57:
 2284 0088 685F6672 		.ascii	"h_free\000"
 2284      656500
 2285              	.LASF78:
 2286 008f 68656170 		.ascii	"heapp\000"
 2286      7000
 2287              	.LASF59:
 2288 0095 6E657874 		.ascii	"next\000"
 2288      00
 2289              	.LASF25:
 2290 009a 705F7072 		.ascii	"p_prio\000"
 2290      696F00
ARM GAS  C:\Users\DNIEL~1\AppData\Local\Temp\cctwQT4l.s 			page 43


 2291              	.LASF11:
 2292 00a1 6C6F6E67 		.ascii	"long long int\000"
 2292      206C6F6E 
 2292      6720696E 
 2292      7400
 2293              	.LASF1:
 2294 00af 7369676E 		.ascii	"signed char\000"
 2294      65642063 
 2294      68617200 
 2295              	.LASF58:
 2296 00bb 685F6D74 		.ascii	"h_mtx\000"
 2296      7800
 2297              	.LASF42:
 2298 00c1 705F6D70 		.ascii	"p_mpool\000"
 2298      6F6F6C00 
 2299              	.LASF50:
 2300 00c9 6D5F7175 		.ascii	"m_queue\000"
 2300      65756500 
 2301              	.LASF17:
 2302 00d1 74736C69 		.ascii	"tslices_t\000"
 2302      6365735F 
 2302      7400
 2303              	.LASF8:
 2304 00db 6C6F6E67 		.ascii	"long int\000"
 2304      20696E74 
 2304      00
 2305              	.LASF77:
 2306 00e4 63685468 		.ascii	"chThdCreateFromHeap\000"
 2306      64437265 
 2306      61746546 
 2306      726F6D48 
 2306      65617000 
 2307              	.LASF15:
 2308 00f8 74737461 		.ascii	"tstate_t\000"
 2308      74655F74 
 2308      00
 2309              	.LASF65:
 2310 0101 6D705F6E 		.ascii	"mp_next\000"
 2310      65787400 
 2311              	.LASF27:
 2312 0109 705F6E65 		.ascii	"p_newer\000"
 2312      77657200 
 2313              	.LASF80:
 2314 0111 63685468 		.ascii	"chThdCreateFromMemoryPool\000"
 2314      64437265 
 2314      61746546 
 2314      726F6D4D 
 2314      656D6F72 
 2315              	.LASF67:
 2316 012b 6D705F70 		.ascii	"mp_provider\000"
 2316      726F7669 
 2316      64657200 
 2317              	.LASF45:
 2318 0137 72656761 		.ascii	"regarm_t\000"
 2318      726D5F74 
 2318      00
 2319              	.LASF61:
ARM GAS  C:\Users\DNIEL~1\AppData\Local\Temp\cctwQT4l.s 			page 44


 2320 0140 616C6967 		.ascii	"align\000"
 2320      6E00
 2321              	.LASF30:
 2322 0146 705F7374 		.ascii	"p_stklimit\000"
 2322      6B6C696D 
 2322      697400
 2323              	.LASF0:
 2324 0151 756E7369 		.ascii	"unsigned int\000"
 2324      676E6564 
 2324      20696E74 
 2324      00
 2325              	.LASF10:
 2326 015e 6C6F6E67 		.ascii	"long unsigned int\000"
 2326      20756E73 
 2326      69676E65 
 2326      6420696E 
 2326      7400
 2327              	.LASF48:
 2328 0170 636F6E74 		.ascii	"context\000"
 2328      65787400 
 2329              	.LASF62:
 2330 0178 73697A65 		.ascii	"size\000"
 2330      00
 2331              	.LASF6:
 2332 017d 73686F72 		.ascii	"short unsigned int\000"
 2332      7420756E 
 2332      7369676E 
 2332      65642069 
 2332      6E7400
 2333              	.LASF19:
 2334 0190 6D73675F 		.ascii	"msg_t\000"
 2334      7400
 2335              	.LASF14:
 2336 0196 746D6F64 		.ascii	"tmode_t\000"
 2336      655F7400 
 2337              	.LASF44:
 2338 019e 54687265 		.ascii	"ThreadsList\000"
 2338      6164734C 
 2338      69737400 
 2339              	.LASF20:
 2340 01aa 6576656E 		.ascii	"eventmask_t\000"
 2340      746D6173 
 2340      6B5F7400 
 2341              	.LASF49:
 2342 01b6 4D757465 		.ascii	"Mutex\000"
 2342      7800
 2343              	.LASF76:
 2344 01bc 63685468 		.ascii	"chThdAddRef\000"
 2344      64416464 
 2344      52656600 
 2345              	.LASF46:
 2346 01c8 73746B61 		.ascii	"stkalign_t\000"
 2346      6C69676E 
 2346      5F7400
 2347              	.LASF28:
 2348 01d3 705F6F6C 		.ascii	"p_older\000"
 2348      64657200 
ARM GAS  C:\Users\DNIEL~1\AppData\Local\Temp\cctwQT4l.s 			page 45


 2349              	.LASF43:
 2350 01db 54687265 		.ascii	"ThreadsQueue\000"
 2350      61647351 
 2350      75657565 
 2350      00
 2351              	.LASF66:
 2352 01e8 6D705F6F 		.ascii	"mp_object_size\000"
 2352      626A6563 
 2352      745F7369 
 2352      7A6500
 2353              	.LASF79:
 2354 01f7 7072696F 		.ascii	"prio\000"
 2354      00
 2355              	.LASF54:
 2356 01fc 4D656D6F 		.ascii	"MemoryHeap\000"
 2356      72794865 
 2356      617000
 2357              	.LASF64:
 2358 0207 70685F6E 		.ascii	"ph_next\000"
 2358      65787400 
 2359              	.LASF83:
 2360 020f 433A5C55 		.ascii	"C:\\Users\\D\341niel\\Dropbox\\Solar Racing\\Szoftv"
 2360      73657273 
 2360      5C44E16E 
 2360      69656C5C 
 2360      44726F70 
 2361 023a 65725C4D 		.ascii	"er\\Modulux\\Modulux_v0\\modulux\\firmware\000"
 2361      6F64756C 
 2361      75785C4D 
 2361      6F64756C 
 2361      75785F76 
 2362              	.LASF16:
 2363 0261 74726566 		.ascii	"trefs_t\000"
 2363      735F7400 
 2364              	.LASF75:
 2365 0269 72656673 		.ascii	"refs\000"
 2365      00
 2366              	.LASF24:
 2367 026e 705F7072 		.ascii	"p_prev\000"
 2367      657600
 2368              	.LASF18:
 2369 0275 74707269 		.ascii	"tprio_t\000"
 2369      6F5F7400 
 2370              	.LASF7:
 2371 027d 696E7433 		.ascii	"int32_t\000"
 2371      325F7400 
 2372              	.LASF4:
 2373 0285 756E7369 		.ascii	"unsigned char\000"
 2373      676E6564 
 2373      20636861 
 2373      7200
 2374              	.LASF56:
 2375 0293 685F7072 		.ascii	"h_provider\000"
 2375      6F766964 
 2375      657200
 2376              	.LASF40:
 2377 029e 705F6D74 		.ascii	"p_mtxlist\000"
ARM GAS  C:\Users\DNIEL~1\AppData\Local\Temp\cctwQT4l.s 			page 46


 2377      786C6973 
 2377      7400
 2378              	.LASF5:
 2379 02a8 73686F72 		.ascii	"short int\000"
 2379      7420696E 
 2379      7400
 2380              	.LASF31:
 2381 02b2 705F7374 		.ascii	"p_state\000"
 2381      61746500 
 2382              	.LASF34:
 2383 02ba 705F7072 		.ascii	"p_preempt\000"
 2383      65656D70 
 2383      7400
 2384              	.LASF84:
 2385 02c4 68656170 		.ascii	"heap_header\000"
 2385      5F686561 
 2385      64657200 
 2386              	.LASF72:
 2387 02d0 65776D61 		.ascii	"ewmask\000"
 2387      736B00
 2388              	.LASF23:
 2389 02d7 705F6E65 		.ascii	"p_next\000"
 2389      787400
 2390              	.LASF32:
 2391 02de 705F666C 		.ascii	"p_flags\000"
 2391      61677300 
 2392              	.LASF85:
 2393 02e6 63685468 		.ascii	"chThdRelease\000"
 2393      6452656C 
 2393      65617365 
 2393      00
 2394              	.LASF22:
 2395 02f3 54687265 		.ascii	"Thread\000"
 2395      616400
 2396              	.LASF39:
 2397 02fa 705F6570 		.ascii	"p_epending\000"
 2397      656E6469 
 2397      6E6700
 2398              	.LASF9:
 2399 0305 75696E74 		.ascii	"uint32_t\000"
 2399      33325F74 
 2399      00
 2400              	.LASF60:
 2401 030e 68656170 		.ascii	"heap\000"
 2401      00
 2402              	.LASF73:
 2403 0313 63686172 		.ascii	"char\000"
 2403      00
 2404              	.LASF52:
 2405 0318 6D5F6E65 		.ascii	"m_next\000"
 2405      787400
 2406              	.LASF21:
 2407 031f 73797374 		.ascii	"systime_t\000"
 2407      696D655F 
 2407      7400
 2408              	.LASF41:
 2409 0329 705F7265 		.ascii	"p_realprio\000"
ARM GAS  C:\Users\DNIEL~1\AppData\Local\Temp\cctwQT4l.s 			page 47


 2409      616C7072 
 2409      696F00
 2410              	.LASF35:
 2411 0334 705F7469 		.ascii	"p_time\000"
 2411      6D6500
 2412              	.LASF47:
 2413 033b 696E7463 		.ascii	"intctx\000"
 2413      747800
 2414              	.LASF37:
 2415 0342 705F6D73 		.ascii	"p_msgqueue\000"
 2415      67717565 
 2415      756500
 2416              	.LASF63:
 2417 034d 706F6F6C 		.ascii	"pool_header\000"
 2417      5F686561 
 2417      64657200 
 2418              	.LASF33:
 2419 0359 705F7265 		.ascii	"p_refs\000"
 2419      667300
 2420              	.LASF3:
 2421 0360 75696E74 		.ascii	"uint8_t\000"
 2421      385F7400 
 2422              	.LASF71:
 2423 0368 77746F62 		.ascii	"wtobjp\000"
 2423      6A7000
 2424              	.LASF81:
 2425 036f 474E5520 		.ascii	"GNU C 4.5.2\000"
 2425      4320342E 
 2425      352E3200 
 2426              	.LASF29:
 2427 037b 705F6E61 		.ascii	"p_name\000"
 2427      6D6500
 2428              	.LASF51:
 2429 0382 6D5F6F77 		.ascii	"m_owner\000"
 2429      6E657200 
 2430              	.LASF26:
 2431 038a 705F6374 		.ascii	"p_ctx\000"
 2431      7800
 2432              	.LASF36:
 2433 0390 705F7761 		.ascii	"p_waiting\000"
 2433      6974696E 
 2433      6700
 2434              	.LASF55:
 2435 039a 6D656D6F 		.ascii	"memory_heap\000"
 2435      72795F68 
 2435      65617000 
 2436              		.ident	"GCC: (Sourcery G++ Lite 2011.03-42) 4.5.2"
ARM GAS  C:\Users\DNIEL~1\AppData\Local\Temp\cctwQT4l.s 			page 48


DEFINED SYMBOLS
                            *ABS*:00000000 chdynamic.c
C:\Users\DNIEL~1\AppData\Local\Temp\cctwQT4l.s:24     .text.chThdAddRef:00000000 $t
C:\Users\DNIEL~1\AppData\Local\Temp\cctwQT4l.s:30     .text.chThdAddRef:00000000 chThdAddRef
C:\Users\DNIEL~1\AppData\Local\Temp\cctwQT4l.s:106    .text.chThdAddRef:00000048 $d
C:\Users\DNIEL~1\AppData\Local\Temp\cctwQT4l.s:111    .text.chThdRelease:00000000 $t
C:\Users\DNIEL~1\AppData\Local\Temp\cctwQT4l.s:117    .text.chThdRelease:00000000 chThdRelease
C:\Users\DNIEL~1\AppData\Local\Temp\cctwQT4l.s:229    .text.chThdRelease:0000007c $d
C:\Users\DNIEL~1\AppData\Local\Temp\cctwQT4l.s:234    .text.chThdCreateFromHeap:00000000 $t
C:\Users\DNIEL~1\AppData\Local\Temp\cctwQT4l.s:240    .text.chThdCreateFromHeap:00000000 chThdCreateFromHeap
C:\Users\DNIEL~1\AppData\Local\Temp\cctwQT4l.s:333    .text.chThdCreateFromMemoryPool:00000000 $t
C:\Users\DNIEL~1\AppData\Local\Temp\cctwQT4l.s:339    .text.chThdCreateFromMemoryPool:00000000 chThdCreateFromMemoryPool
C:\Users\DNIEL~1\AppData\Local\Temp\cctwQT4l.s:447    .text.chThdCreateFromMemoryPool:00000078 $d
C:\Users\DNIEL~1\AppData\Local\Temp\cctwQT4l.s:452    .rodata.str1.4:00000000 $d
                     .debug_frame:00000010 $d
C:\Users\DNIEL~1\AppData\Local\Temp\cctwQT4l.s:110    .text.chThdAddRef:0000004c $t
C:\Users\DNIEL~1\AppData\Local\Temp\cctwQT4l.s:451    .text.chThdCreateFromMemoryPool:0000007c $t

UNDEFINED SYMBOLS
dbg_check_lock
dbg_check_unlock
chDbgPanic
chPoolFree
chHeapFree
chHeapAlloc
_thread_memfill
chThdCreateI
chSchWakeupS
chPoolAlloc
