ARM GAS  C:\Users\DNIEL~1\AppData\Local\Temp\cctwQT4l.s 			page 1


   1              		.syntax unified
   2              		.cpu cortex-m3
   3              		.fpu softvfp
   4              		.eabi_attribute 20, 1
   5              		.eabi_attribute 21, 1
   6              		.eabi_attribute 23, 3
   7              		.eabi_attribute 24, 1
   8              		.eabi_attribute 25, 1
   9              		.eabi_attribute 26, 1
  10              		.eabi_attribute 30, 2
  11              		.eabi_attribute 18, 4
  12              		.thumb
  13              		.file	"chdynamic.c"
  20 0000 9B020000 		.text
  20      0200EC01 
  20      00000201 
  20      FB0E0D00 
  20      01010101 
  21              	.Ltext0:
  22              		.cfi_sections	.debug_frame
  23              		.section	.text.chThdAddRef,"ax",%progbits
  24              		.align	2
  25              		.p2align 4,,15
  26              		.global	chThdAddRef
  27              		.thumb
  28              		.thumb_func
  29              		.type	chThdAddRef, %function
  30              	chThdAddRef:
  31              	.LFB7:
  32              		.file 1 "../../../ChibiOS/os/kernel/src/chdynamic.c"
  33              		.loc 1 45 0
  34              		.cfi_startproc
  35              		@ args = 0, pretend = 0, frame = 0
  36              		@ frame_needed = 0, uses_anonymous_args = 0
  37              	.LVL0:
  38 0000 10B5     		push	{r4, lr}
  39              	.LCFI0:
  40              		.cfi_def_cfa_offset 8
  41              	.LBB2:
  42              		.loc 1 47 0
  43 0002 2023     		movs	r3, #32
  44              	.LVL1:
  45              	.LBE2:
  46              		.loc 1 45 0
  47 0004 0446     		mov	r4, r0
  48              		.cfi_offset 14, -4
  49              		.cfi_offset 4, -8
  50              	.LBB3:
  51              		.loc 1 47 0
  52              	@ 47 "../../../ChibiOS/os/kernel/src/chdynamic.c" 1
  53 0006 83F31188 		msr     BASEPRI, r3
ARM GAS  C:\Users\DNIEL~1\AppData\Local\Temp\cctwQT4l.s 			page 2


  54              	@ 0 "" 2
  55              	.LVL2:
  56              		.thumb
  57              	.LBE3:
  58 000a FFF7FEFF 		bl	dbg_check_lock
  59              	.LVL3:
  60              		.loc 1 48 0
  61 000e 94F82230 		ldrb	r3, [r4, #34]	@ zero_extendqisi2
  62 0012 FF2B     		cmp	r3, #255
  63 0014 09D0     		beq	.L4
  64              		.loc 1 49 0
  65 0016 0133     		adds	r3, r3, #1
  66 0018 84F82230 		strb	r3, [r4, #34]
  67              		.loc 1 50 0
  68 001c FFF7FEFF 		bl	dbg_check_unlock
  69              	.LBB4:
  70 0020 0023     		movs	r3, #0
  71              	.LVL4:
  72              	@ 50 "../../../ChibiOS/os/kernel/src/chdynamic.c" 1
  73 0022 83F31188 		msr     BASEPRI, r3
  74              	@ 0 "" 2
  75              	.LVL5:
  76              		.thumb
  77              	.LBE4:
  78              		.loc 1 52 0
  79 0026 2046     		mov	r0, r4
  80 0028 10BD     		pop	{r4, pc}
  81              	.LVL6:
  82              	.L4:
  83              		.loc 1 48 0 discriminator 1
  84 002a 0748     		ldr	r0, .L5
  85 002c FFF7FEFF 		bl	chDbgPanic
  86 0030 94F82230 		ldrb	r3, [r4, #34]	@ zero_extendqisi2
  87              		.loc 1 49 0 discriminator 1
  88 0034 0133     		adds	r3, r3, #1
  89 0036 84F82230 		strb	r3, [r4, #34]
  90              		.loc 1 50 0 discriminator 1
  91 003a FFF7FEFF 		bl	dbg_check_unlock
  92              	.LBB5:
  93 003e 0023     		movs	r3, #0
  94              	@ 50 "../../../ChibiOS/os/kernel/src/chdynamic.c" 1
  95 0040 83F31188 		msr     BASEPRI, r3
  96              	@ 0 "" 2
  97              	.LVL7:
  98              		.thumb
  99              	.LBE5:
 100              		.loc 1 52 0 discriminator 1
 101 0044 2046     		mov	r0, r4
 102 0046 10BD     		pop	{r4, pc}
 103              	.L6:
 104              		.align	2
 105              	.L5:
 106 0048 00000000 		.word	.LC0
 107              		.cfi_endproc
 108              	.LFE7:
 109              		.size	chThdAddRef, .-chThdAddRef
 110 004c AFF30080 		.section	.text.chThdRelease,"ax",%progbits
ARM GAS  C:\Users\DNIEL~1\AppData\Local\Temp\cctwQT4l.s 			page 3


 111              		.align	2
 112              		.p2align 4,,15
 113              		.global	chThdRelease
 114              		.thumb
 115              		.thumb_func
 116              		.type	chThdRelease, %function
 117              	chThdRelease:
 118              	.LFB8:
 119              		.loc 1 67 0
 120              		.cfi_startproc
 121              		@ args = 0, pretend = 0, frame = 0
 122              		@ frame_needed = 0, uses_anonymous_args = 0
 123              	.LVL8:
 124 0000 70B5     		push	{r4, r5, r6, lr}
 125              	.LCFI1:
 126              		.cfi_def_cfa_offset 16
 127              	.LBB6:
 128              		.loc 1 70 0
 129 0002 2023     		movs	r3, #32
 130              	.LVL9:
 131              	.LBE6:
 132              		.loc 1 67 0
 133 0004 0446     		mov	r4, r0
 134              		.cfi_offset 14, -4
 135              		.cfi_offset 6, -8
 136              		.cfi_offset 5, -12
 137              		.cfi_offset 4, -16
 138              	.LBB7:
 139              		.loc 1 70 0
 140              	@ 70 "../../../ChibiOS/os/kernel/src/chdynamic.c" 1
 141 0006 83F31188 		msr     BASEPRI, r3
 142              	@ 0 "" 2
 143              	.LVL10:
 144              		.thumb
 145              	.LBE7:
 146 000a FFF7FEFF 		bl	dbg_check_lock
 147              	.LVL11:
 148              		.loc 1 71 0
 149 000e 94F82250 		ldrb	r5, [r4, #34]	@ zero_extendqisi2
 150 0012 002D     		cmp	r5, #0
 151 0014 21D0     		beq	.L12
 152              	.L8:
 153              		.loc 1 72 0
 154 0016 013D     		subs	r5, r5, #1
 155 0018 EDB2     		uxtb	r5, r5
 156 001a 84F82250 		strb	r5, [r4, #34]
 157              	.LVL12:
 158              		.loc 1 73 0
 159 001e FFF7FEFF 		bl	dbg_check_unlock
 160              	.LBB8:
 161 0022 0023     		movs	r3, #0
 162              	.LVL13:
 163              	@ 73 "../../../ChibiOS/os/kernel/src/chdynamic.c" 1
 164 0024 83F31188 		msr     BASEPRI, r3
 165              	@ 0 "" 2
 166              	.LVL14:
 167              		.thumb
ARM GAS  C:\Users\DNIEL~1\AppData\Local\Temp\cctwQT4l.s 			page 4


 168              	.LBE8:
 169              		.loc 1 78 0
 170 0028 1DB9     		cbnz	r5, .L7
 171              		.loc 1 78 0 is_stmt 0 discriminator 1
 172 002a 94F82030 		ldrb	r3, [r4, #32]	@ zero_extendqisi2
 173              	.LVL15:
 174 002e 0E2B     		cmp	r3, #14
 175 0030 00D0     		beq	.L13
 176              	.LVL16:
 177              	.L7:
 178 0032 70BD     		pop	{r4, r5, r6, pc}
 179              	.LVL17:
 180              	.L13:
 181              		.loc 1 79 0 is_stmt 1
 182 0034 94F82100 		ldrb	r0, [r4, #33]	@ zero_extendqisi2
 183 0038 00F00303 		and	r3, r0, #3
 184 003c 012B     		cmp	r3, #1
 185 003e 12D0     		beq	.L10
 186 0040 022B     		cmp	r3, #2
 187 0042 F6D1     		bne	.L7
 188              		.loc 1 91 0
 189 0044 6369     		ldr	r3, [r4, #20]
 190 0046 2169     		ldr	r1, [r4, #16]
 191              		.loc 1 93 0
 192 0048 A06C     		ldr	r0, [r4, #72]
 193              		.loc 1 91 0
 194 004a 1961     		str	r1, [r3, #16]
 195 004c 2269     		ldr	r2, [r4, #16]
 196              		.loc 1 93 0
 197 004e 2146     		mov	r1, r4
 198              		.loc 1 91 0
 199 0050 5361     		str	r3, [r2, #20]
 200              		.loc 1 98 0
 201 0052 BDE87040 		pop	{r4, r5, r6, lr}
 202              		.loc 1 93 0
 203 0056 FFF7FEBF 		b	chPoolFree
 204              	.LVL18:
 205              	.L12:
 206              		.loc 1 71 0 discriminator 1
 207 005a 0848     		ldr	r0, .L14
 208 005c FFF7FEFF 		bl	chDbgPanic
 209 0060 94F82250 		ldrb	r5, [r4, #34]	@ zero_extendqisi2
 210 0064 D7E7     		b	.L8
 211              	.LVL19:
 212              	.L10:
 213              		.loc 1 83 0
 214 0066 6169     		ldr	r1, [r4, #20]
 215 0068 2369     		ldr	r3, [r4, #16]
 216              		.loc 1 85 0
 217 006a 2046     		mov	r0, r4
 218              		.loc 1 83 0
 219 006c 0B61     		str	r3, [r1, #16]
 220 006e 2269     		ldr	r2, [r4, #16]
 221 0070 5161     		str	r1, [r2, #20]
 222              		.loc 1 98 0
 223 0072 BDE87040 		pop	{r4, r5, r6, lr}
 224              		.loc 1 85 0
ARM GAS  C:\Users\DNIEL~1\AppData\Local\Temp\cctwQT4l.s 			page 5


 225 0076 FFF7FEBF 		b	chHeapFree
 226              	.L15:
 227 007a 00BF     		.align	2
 228              	.L14:
 229 007c 14000000 		.word	.LC1
 230              		.cfi_endproc
 231              	.LFE8:
 232              		.size	chThdRelease, .-chThdRelease
 233              		.section	.text.chThdCreateFromHeap,"ax",%progbits
 234              		.align	2
 235              		.p2align 4,,15
 236              		.global	chThdCreateFromHeap
 237              		.thumb
 238              		.thumb_func
 239              		.type	chThdCreateFromHeap, %function
 240              	chThdCreateFromHeap:
 241              	.LFB9:
 242              		.loc 1 124 0
 243              		.cfi_startproc
 244              		@ args = 4, pretend = 0, frame = 0
 245              		@ frame_needed = 0, uses_anonymous_args = 0
 246              	.LVL20:
 247 0000 2DE9F041 		push	{r4, r5, r6, r7, r8, lr}
 248              	.LCFI2:
 249              		.cfi_def_cfa_offset 24
 250 0004 82B0     		sub	sp, sp, #8
 251              	.LCFI3:
 252              		.cfi_def_cfa_offset 32
 253              		.loc 1 124 0
 254 0006 0D46     		mov	r5, r1
 255              		.cfi_offset 14, -4
 256              		.cfi_offset 8, -8
 257              		.cfi_offset 7, -12
 258              		.cfi_offset 6, -16
 259              		.cfi_offset 5, -20
 260              		.cfi_offset 4, -24
 261 0008 1646     		mov	r6, r2
 262 000a 1F46     		mov	r7, r3
 263              		.loc 1 128 0
 264 000c FFF7FEFF 		bl	chHeapAlloc
 265              	.LVL21:
 266              		.loc 1 129 0
 267 0010 0446     		mov	r4, r0
 268 0012 18B3     		cbz	r0, .L17
 269              		.loc 1 133 0
 270 0014 00F14C08 		add	r8, r0, #76
 271 0018 4146     		mov	r1, r8
 272 001a FF22     		movs	r2, #255
 273 001c FFF7FEFF 		bl	_thread_memfill
 274              	.LVL22:
 275              		.loc 1 136 0
 276 0020 4046     		mov	r0, r8
 277 0022 6119     		adds	r1, r4, r5
 278 0024 5522     		movs	r2, #85
 279 0026 FFF7FEFF 		bl	_thread_memfill
 280              	.LBB9:
 281              		.loc 1 141 0
ARM GAS  C:\Users\DNIEL~1\AppData\Local\Temp\cctwQT4l.s 			page 6


 282 002a 2023     		movs	r3, #32
 283              	.LVL23:
 284              	@ 141 "../../../ChibiOS/os/kernel/src/chdynamic.c" 1
 285 002c 83F31188 		msr     BASEPRI, r3
 286              	@ 0 "" 2
 287              	.LVL24:
 288              		.thumb
 289              	.LBE9:
 290 0030 FFF7FEFF 		bl	dbg_check_lock
 291              	.LVL25:
 292              		.loc 1 142 0
 293 0034 2046     		mov	r0, r4
 294 0036 089C     		ldr	r4, [sp, #32]
 295              	.LVL26:
 296 0038 3246     		mov	r2, r6
 297 003a 3B46     		mov	r3, r7
 298 003c 2946     		mov	r1, r5
 299 003e 0094     		str	r4, [sp, #0]
 300 0040 FFF7FEFF 		bl	chThdCreateI
 301              	.LVL27:
 302              		.loc 1 143 0
 303 0044 0123     		movs	r3, #1
 304 0046 80F82130 		strb	r3, [r0, #33]
 305              		.loc 1 144 0
 306 004a 0021     		movs	r1, #0
 307              		.loc 1 142 0
 308 004c 0446     		mov	r4, r0
 309              	.LVL28:
 310              		.loc 1 144 0
 311 004e FFF7FEFF 		bl	chSchWakeupS
 312              	.LVL29:
 313              		.loc 1 145 0
 314 0052 FFF7FEFF 		bl	dbg_check_unlock
 315              	.LBB10:
 316 0056 0023     		movs	r3, #0
 317              	.LVL30:
 318              	@ 145 "../../../ChibiOS/os/kernel/src/chdynamic.c" 1
 319 0058 83F31188 		msr     BASEPRI, r3
 320              	@ 0 "" 2
 321              	.LVL31:
 322              		.thumb
 323              	.L17:
 324              	.LBE10:
 325              		.loc 1 147 0
 326 005c 2046     		mov	r0, r4
 327 005e 02B0     		add	sp, sp, #8
 328 0060 BDE8F081 		pop	{r4, r5, r6, r7, r8, pc}
 329              		.cfi_endproc
 330              	.LFE9:
 331              		.size	chThdCreateFromHeap, .-chThdCreateFromHeap
 332 0064 AFF30080 		.section	.text.chThdCreateFromMemoryPool,"ax",%progbits
 332      AFF30080 
 332      AFF30080 
 333              		.align	2
 334              		.p2align 4,,15
 335              		.global	chThdCreateFromMemoryPool
 336              		.thumb
ARM GAS  C:\Users\DNIEL~1\AppData\Local\Temp\cctwQT4l.s 			page 7


 337              		.thumb_func
 338              		.type	chThdCreateFromMemoryPool, %function
 339              	chThdCreateFromMemoryPool:
 340              	.LFB10:
 341              		.loc 1 173 0
 342              		.cfi_startproc
 343              		@ args = 0, pretend = 0, frame = 0
 344              		@ frame_needed = 0, uses_anonymous_args = 0
 345              	.LVL32:
 346 0000 2DE9F043 		push	{r4, r5, r6, r7, r8, r9, lr}
 347              	.LCFI4:
 348              		.cfi_def_cfa_offset 28
 349              		.loc 1 177 0
 350 0004 0446     		mov	r4, r0
 351              		.cfi_offset 14, -4
 352              		.cfi_offset 9, -8
 353              		.cfi_offset 8, -12
 354              		.cfi_offset 7, -16
 355              		.cfi_offset 6, -20
 356              		.cfi_offset 5, -24
 357              		.cfi_offset 4, -28
 358              		.loc 1 173 0
 359 0006 83B0     		sub	sp, sp, #12
 360              	.LCFI5:
 361              		.cfi_def_cfa_offset 40
 362              		.loc 1 173 0
 363 0008 0E46     		mov	r6, r1
 364 000a 1746     		mov	r7, r2
 365 000c 9846     		mov	r8, r3
 366              		.loc 1 177 0
 367 000e 0028     		cmp	r0, #0
 368 0010 2ED0     		beq	.L23
 369              	.LVL33:
 370              	.L20:
 371              		.loc 1 179 0
 372 0012 2046     		mov	r0, r4
 373 0014 FFF7FEFF 		bl	chPoolAlloc
 374              	.LVL34:
 375              		.loc 1 180 0
 376 0018 0546     		mov	r5, r0
 377 001a 28B3     		cbz	r0, .L21
 378              		.loc 1 184 0
 379 001c 00F14C09 		add	r9, r0, #76
 380 0020 4946     		mov	r1, r9
 381 0022 FF22     		movs	r2, #255
 382 0024 FFF7FEFF 		bl	_thread_memfill
 383              	.LVL35:
 384              		.loc 1 187 0
 385 0028 6168     		ldr	r1, [r4, #4]
 386 002a 4846     		mov	r0, r9
 387 002c 6918     		adds	r1, r5, r1
 388 002e 5522     		movs	r2, #85
 389 0030 FFF7FEFF 		bl	_thread_memfill
 390              	.LBB11:
 391              		.loc 1 192 0
 392 0034 2023     		movs	r3, #32
 393              	.LVL36:
ARM GAS  C:\Users\DNIEL~1\AppData\Local\Temp\cctwQT4l.s 			page 8


 394              	@ 192 "../../../ChibiOS/os/kernel/src/chdynamic.c" 1
 395 0036 83F31188 		msr     BASEPRI, r3
 396              	@ 0 "" 2
 397              	.LVL37:
 398              		.thumb
 399              	.LBE11:
 400 003a FFF7FEFF 		bl	dbg_check_lock
 401              	.LVL38:
 402              		.loc 1 193 0
 403 003e 6168     		ldr	r1, [r4, #4]
 404 0040 3246     		mov	r2, r6
 405 0042 3B46     		mov	r3, r7
 406 0044 2846     		mov	r0, r5
 407 0046 CDF80080 		str	r8, [sp, #0]
 408 004a FFF7FEFF 		bl	chThdCreateI
 409              		.loc 1 194 0
 410 004e 0223     		movs	r3, #2
 411 0050 80F82130 		strb	r3, [r0, #33]
 412              		.loc 1 196 0
 413 0054 0021     		movs	r1, #0
 414              		.loc 1 195 0
 415 0056 8464     		str	r4, [r0, #72]
 416              		.loc 1 193 0
 417 0058 0546     		mov	r5, r0
 418              	.LVL39:
 419              		.loc 1 196 0
 420 005a FFF7FEFF 		bl	chSchWakeupS
 421              	.LVL40:
 422              		.loc 1 197 0
 423 005e FFF7FEFF 		bl	dbg_check_unlock
 424              	.LBB12:
 425 0062 0023     		movs	r3, #0
 426              	.LVL41:
 427              	@ 197 "../../../ChibiOS/os/kernel/src/chdynamic.c" 1
 428 0064 83F31188 		msr     BASEPRI, r3
 429              	@ 0 "" 2
 430              	.LVL42:
 431              		.thumb
 432              	.L21:
 433              	.LBE12:
 434              		.loc 1 199 0
 435 0068 2846     		mov	r0, r5
 436 006a 03B0     		add	sp, sp, #12
 437 006c BDE8F083 		pop	{r4, r5, r6, r7, r8, r9, pc}
 438              	.LVL43:
 439              	.L23:
 440              		.loc 1 177 0 discriminator 1
 441 0070 0148     		ldr	r0, .L24
 442 0072 FFF7FEFF 		bl	chDbgPanic
 443 0076 CCE7     		b	.L20
 444              	.L25:
 445              		.align	2
 446              	.L24:
 447 0078 28000000 		.word	.LC2
 448              		.cfi_endproc
 449              	.LFE10:
 450              		.size	chThdCreateFromMemoryPool, .-chThdCreateFromMemoryPool
ARM GAS  C:\Users\DNIEL~1\AppData\Local\Temp\cctwQT4l.s 			page 9


 451 007c AFF30080 		.section	.rodata.str1.4,"aMS",%progbits,1
 452              		.align	2
 453              	.LC0:
 454 0000 63685468 		.ascii	"chThdAddRef(), #1\000"
 454      64416464 
 454      52656628 
 454      292C2023 
 454      3100
 455 0012 0000     		.space	2
 456              	.LC1:
 457 0014 63685468 		.ascii	"chThdRelease(), #1\000"
 457      6452656C 
 457      65617365 
 457      28292C20 
 457      233100
 458 0027 00       		.space	1
 459              	.LC2:
 460 0028 22636854 		.ascii	"\"chThdCreateFromMemoryPool\"()\000"
 460      68644372 
 460      65617465 
 460      46726F6D 
 460      4D656D6F 
 461 0046 0000     		.text
 462              	.Letext0: