ARM GAS  C:\Users\DNIEL~1\AppData\Local\Temp\ccKqLJQc.s 			page 1


   1              		.syntax unified
   2              		.cpu cortex-m3
   3              		.fpu softvfp
   4              		.eabi_attribute 20, 1
   5              		.eabi_attribute 21, 1
   6              		.eabi_attribute 23, 3
   7              		.eabi_attribute 24, 1
   8              		.eabi_attribute 25, 1
   9              		.eabi_attribute 26, 1
  10              		.eabi_attribute 30, 2
  11              		.eabi_attribute 18, 4
  12              		.thumb
  13              		.file	"chevents.c"
  20 0000 A6030000 		.text
  20      02006D01 
  20      00000201 
  20      FB0E0D00 
  20      01010101 
  21              	.Ltext0:
  22              		.cfi_sections	.debug_frame
  23              		.section	.text.chEvtRegisterMask,"ax",%progbits
  24              		.align	2
  25              		.p2align 4,,15
  26              		.global	chEvtRegisterMask
  27              		.thumb
  28              		.thumb_func
  29              		.type	chEvtRegisterMask, %function
  30              	chEvtRegisterMask:
  31              	.LFB7:
  32              		.file 1 "../../../ChibiOS/os/kernel/src/chevents.c"
  33              		.loc 1 78 0
  34              		.cfi_startproc
  35              		@ args = 0, pretend = 0, frame = 0
  36              		@ frame_needed = 0, uses_anonymous_args = 0
  37              	.LVL0:
  38 0000 F8B5     		push	{r3, r4, r5, r6, r7, lr}
  39              	.LCFI0:
  40              		.cfi_def_cfa_offset 24
  41              		.loc 1 80 0
  42 0002 0446     		mov	r4, r0
  43              		.cfi_offset 14, -4
  44              		.cfi_offset 7, -8
  45              		.cfi_offset 6, -12
  46              		.cfi_offset 5, -16
  47              		.cfi_offset 4, -20
  48              		.cfi_offset 3, -24
  49              		.loc 1 78 0
  50 0004 0D46     		mov	r5, r1
  51 0006 1646     		mov	r6, r2
  52              		.loc 1 80 0
  53 0008 A0B1     		cbz	r0, .L2
ARM GAS  C:\Users\DNIEL~1\AppData\Local\Temp\ccKqLJQc.s 			page 2


  54              		.loc 1 80 0 is_stmt 0 discriminator 2
  55 000a 99B1     		cbz	r1, .L2
  56              	.LVL1:
  57              	.L3:
  58              	.LBB2:
  59              		.loc 1 82 0 is_stmt 1
  60 000c 2023     		movs	r3, #32
  61              	.LVL2:
  62              	@ 82 "../../../ChibiOS/os/kernel/src/chevents.c" 1
  63 000e 83F31188 		msr     BASEPRI, r3
  64              	@ 0 "" 2
  65              	.LVL3:
  66              		.thumb
  67              	.LBE2:
  68 0012 FFF7FEFF 		bl	dbg_check_lock
  69              	.LVL4:
  70              		.loc 1 85 0
  71 0016 0948     		ldr	r0, .L5
  72              		.loc 1 83 0
  73 0018 2268     		ldr	r2, [r4, #0]
  74              		.loc 1 85 0
  75 001a 8369     		ldr	r3, [r0, #24]
  76              		.loc 1 87 0
  77 001c 0027     		movs	r7, #0
  78              		.loc 1 83 0
  79 001e 2A60     		str	r2, [r5, #0]
  80              		.loc 1 84 0
  81 0020 2560     		str	r5, [r4, #0]
  82              		.loc 1 85 0
  83 0022 6B60     		str	r3, [r5, #4]
  84              		.loc 1 86 0
  85 0024 AE60     		str	r6, [r5, #8]
  86              		.loc 1 87 0
  87 0026 EF60     		str	r7, [r5, #12]
  88              		.loc 1 88 0
  89 0028 FFF7FEFF 		bl	dbg_check_unlock
  90              	.LBB3:
  91 002c 3B46     		mov	r3, r7
  92              	.LVL5:
  93              	@ 88 "../../../ChibiOS/os/kernel/src/chevents.c" 1
  94 002e 83F31188 		msr     BASEPRI, r3
  95              	@ 0 "" 2
  96              	.LVL6:
  97              		.thumb
  98              	.LBE3:
  99              		.loc 1 89 0
 100 0032 F8BD     		pop	{r3, r4, r5, r6, r7, pc}
 101              	.LVL7:
 102              	.L2:
 103              		.loc 1 80 0 discriminator 1
 104 0034 0248     		ldr	r0, .L5+4
 105 0036 FFF7FEFF 		bl	chDbgPanic
 106 003a E7E7     		b	.L3
 107              	.L6:
 108              		.align	2
 109              	.L5:
 110 003c 00000000 		.word	rlist
ARM GAS  C:\Users\DNIEL~1\AppData\Local\Temp\ccKqLJQc.s 			page 3


 111 0040 00000000 		.word	.LC0
 112              		.cfi_endproc
 113              	.LFE7:
 114              		.size	chEvtRegisterMask, .-chEvtRegisterMask
 115 0044 AFF30080 		.section	.text.chEvtUnregister,"ax",%progbits
 115      AFF30080 
 115      AFF30080 
 116              		.align	2
 117              		.p2align 4,,15
 118              		.global	chEvtUnregister
 119              		.thumb
 120              		.thumb_func
 121              		.type	chEvtUnregister, %function
 122              	chEvtUnregister:
 123              	.LFB8:
 124              		.loc 1 104 0
 125              		.cfi_startproc
 126              		@ args = 0, pretend = 0, frame = 0
 127              		@ frame_needed = 0, uses_anonymous_args = 0
 128              	.LVL8:
 129 0000 38B5     		push	{r3, r4, r5, lr}
 130              	.LCFI1:
 131              		.cfi_def_cfa_offset 16
 132              		.loc 1 107 0
 133 0002 0446     		mov	r4, r0
 134              		.cfi_offset 14, -4
 135              		.cfi_offset 5, -8
 136              		.cfi_offset 4, -12
 137              		.cfi_offset 3, -16
 138              		.loc 1 104 0
 139 0004 0D46     		mov	r5, r1
 140              		.loc 1 107 0
 141 0006 D8B1     		cbz	r0, .L8
 142              		.loc 1 107 0 is_stmt 0 discriminator 2
 143 0008 D1B1     		cbz	r1, .L8
 144              	.LVL9:
 145              	.L9:
 146              	.LBB4:
 147              		.loc 1 110 0 is_stmt 1
 148 000a 2023     		movs	r3, #32
 149              	.LVL10:
 150              	@ 110 "../../../ChibiOS/os/kernel/src/chevents.c" 1
 151 000c 83F31188 		msr     BASEPRI, r3
 152              	@ 0 "" 2
 153              	.LVL11:
 154              		.thumb
 155              	.LBE4:
 156 0010 FFF7FEFF 		bl	dbg_check_lock
 157              	.LVL12:
 158              		.loc 1 109 0
 159 0014 2246     		mov	r2, r4
 160              		.loc 1 111 0
 161 0016 02E0     		b	.L10
 162              	.LVL13:
 163              	.L12:
 164              		.loc 1 112 0
 165 0018 9D42     		cmp	r5, r3
ARM GAS  C:\Users\DNIEL~1\AppData\Local\Temp\ccKqLJQc.s 			page 4


 166 001a 09D0     		beq	.L14
 167 001c 1A46     		mov	r2, r3
 168              	.LVL14:
 169              	.L10:
 170              		.loc 1 111 0 discriminator 1
 171 001e 1368     		ldr	r3, [r2, #0]
 172 0020 9C42     		cmp	r4, r3
 173 0022 F9D1     		bne	.L12
 174              		.loc 1 118 0
 175 0024 FFF7FEFF 		bl	dbg_check_unlock
 176              	.LVL15:
 177              	.LBB5:
 178 0028 0023     		movs	r3, #0
 179              	.LVL16:
 180              	@ 118 "../../../ChibiOS/os/kernel/src/chevents.c" 1
 181 002a 83F31188 		msr     BASEPRI, r3
 182              	@ 0 "" 2
 183              	.LVL17:
 184              		.thumb
 185              	.LBE5:
 186              		.loc 1 119 0
 187 002e 38BD     		pop	{r3, r4, r5, pc}
 188              	.LVL18:
 189              	.L14:
 190              		.loc 1 113 0
 191 0030 2B68     		ldr	r3, [r5, #0]
 192 0032 1360     		str	r3, [r2, #0]
 193              		.loc 1 118 0
 194 0034 FFF7FEFF 		bl	dbg_check_unlock
 195              	.LVL19:
 196              	.LBB6:
 197 0038 0023     		movs	r3, #0
 198              	@ 118 "../../../ChibiOS/os/kernel/src/chevents.c" 1
 199 003a 83F31188 		msr     BASEPRI, r3
 200              	@ 0 "" 2
 201              	.LVL20:
 202              		.thumb
 203              	.LBE6:
 204              		.loc 1 119 0
 205 003e 38BD     		pop	{r3, r4, r5, pc}
 206              	.LVL21:
 207              	.L8:
 208              		.loc 1 107 0 discriminator 1
 209 0040 0148     		ldr	r0, .L15
 210 0042 FFF7FEFF 		bl	chDbgPanic
 211 0046 E0E7     		b	.L9
 212              	.L16:
 213              		.align	2
 214              	.L15:
 215 0048 18000000 		.word	.LC1
 216              		.cfi_endproc
 217              	.LFE8:
 218              		.size	chEvtUnregister, .-chEvtUnregister
 219 004c AFF30080 		.section	.text.chEvtGetAndClearEvents,"ax",%progbits
 220              		.align	2
 221              		.p2align 4,,15
 222              		.global	chEvtGetAndClearEvents
ARM GAS  C:\Users\DNIEL~1\AppData\Local\Temp\ccKqLJQc.s 			page 5


 223              		.thumb
 224              		.thumb_func
 225              		.type	chEvtGetAndClearEvents, %function
 226              	chEvtGetAndClearEvents:
 227              	.LFB9:
 228              		.loc 1 129 0
 229              		.cfi_startproc
 230              		@ args = 0, pretend = 0, frame = 0
 231              		@ frame_needed = 0, uses_anonymous_args = 0
 232              	.LVL22:
 233 0000 38B5     		push	{r3, r4, r5, lr}
 234              	.LCFI2:
 235              		.cfi_def_cfa_offset 16
 236              		.loc 1 129 0
 237 0002 0546     		mov	r5, r0
 238              		.cfi_offset 14, -4
 239              		.cfi_offset 5, -8
 240              		.cfi_offset 4, -12
 241              		.cfi_offset 3, -16
 242              	.LBB7:
 243              		.loc 1 132 0
 244 0004 2023     		movs	r3, #32
 245              	.LVL23:
 246              	@ 132 "../../../ChibiOS/os/kernel/src/chevents.c" 1
 247 0006 83F31188 		msr     BASEPRI, r3
 248              	@ 0 "" 2
 249              	.LVL24:
 250              		.thumb
 251              	.LBE7:
 252 000a FFF7FEFF 		bl	dbg_check_lock
 253              	.LVL25:
 254              		.loc 1 134 0
 255 000e 0748     		ldr	r0, .L18
 256 0010 8369     		ldr	r3, [r0, #24]
 257 0012 DC6B     		ldr	r4, [r3, #60]
 258              		.loc 1 135 0
 259 0014 24EA0502 		bic	r2, r4, r5
 260 0018 DA63     		str	r2, [r3, #60]
 261              		.loc 1 137 0
 262 001a FFF7FEFF 		bl	dbg_check_unlock
 263              	.LVL26:
 264              	.LBB8:
 265 001e 0023     		movs	r3, #0
 266              	.LVL27:
 267              	@ 137 "../../../ChibiOS/os/kernel/src/chevents.c" 1
 268 0020 83F31188 		msr     BASEPRI, r3
 269              	@ 0 "" 2
 270              	.LVL28:
 271              		.thumb
 272              	.LBE8:
 273              		.loc 1 139 0
 274 0024 05EA0400 		and	r0, r5, r4
 275 0028 38BD     		pop	{r3, r4, r5, pc}
 276              	.L19:
 277 002a 00BF     		.align	2
 278              	.L18:
 279 002c 00000000 		.word	rlist
ARM GAS  C:\Users\DNIEL~1\AppData\Local\Temp\ccKqLJQc.s 			page 6


 280              		.cfi_endproc
 281              	.LFE9:
 282              		.size	chEvtGetAndClearEvents, .-chEvtGetAndClearEvents
 283              		.section	.text.chEvtAddEvents,"ax",%progbits
 284              		.align	2
 285              		.p2align 4,,15
 286              		.global	chEvtAddEvents
 287              		.thumb
 288              		.thumb_func
 289              		.type	chEvtAddEvents, %function
 290              	chEvtAddEvents:
 291              	.LFB10:
 292              		.loc 1 150 0
 293              		.cfi_startproc
 294              		@ args = 0, pretend = 0, frame = 0
 295              		@ frame_needed = 0, uses_anonymous_args = 0
 296              	.LVL29:
 297 0000 10B5     		push	{r4, lr}
 298              	.LCFI3:
 299              		.cfi_def_cfa_offset 8
 300              	.LBB9:
 301              		.loc 1 152 0
 302 0002 2023     		movs	r3, #32
 303              	.LVL30:
 304              	.LBE9:
 305              		.loc 1 150 0
 306 0004 0446     		mov	r4, r0
 307              		.cfi_offset 14, -4
 308              		.cfi_offset 4, -8
 309              	.LBB10:
 310              		.loc 1 152 0
 311              	@ 152 "../../../ChibiOS/os/kernel/src/chevents.c" 1
 312 0006 83F31188 		msr     BASEPRI, r3
 313              	@ 0 "" 2
 314              	.LVL31:
 315              		.thumb
 316              	.LBE10:
 317 000a FFF7FEFF 		bl	dbg_check_lock
 318              	.LVL32:
 319              		.loc 1 154 0
 320 000e 0648     		ldr	r0, .L21
 321 0010 8369     		ldr	r3, [r0, #24]
 322 0012 DA6B     		ldr	r2, [r3, #60]
 323 0014 1443     		orrs	r4, r4, r2
 324              	.LVL33:
 325 0016 DC63     		str	r4, [r3, #60]
 326              	.LVL34:
 327              		.loc 1 156 0
 328 0018 FFF7FEFF 		bl	dbg_check_unlock
 329              	.LBB11:
 330 001c 0023     		movs	r3, #0
 331              	.LVL35:
 332              	@ 156 "../../../ChibiOS/os/kernel/src/chevents.c" 1
 333 001e 83F31188 		msr     BASEPRI, r3
 334              	@ 0 "" 2
 335              	.LVL36:
 336              		.thumb
ARM GAS  C:\Users\DNIEL~1\AppData\Local\Temp\ccKqLJQc.s 			page 7


 337              	.LBE11:
 338              		.loc 1 158 0
 339 0022 2046     		mov	r0, r4
 340 0024 10BD     		pop	{r4, pc}
 341              	.L22:
 342 0026 00BF     		.align	2
 343              	.L21:
 344 0028 00000000 		.word	rlist
 345              		.cfi_endproc
 346              	.LFE10:
 347              		.size	chEvtAddEvents, .-chEvtAddEvents
 348 002c AFF30080 		.section	.text.chEvtGetAndClearFlags,"ax",%progbits
 349              		.align	2
 350              		.p2align 4,,15
 351              		.global	chEvtGetAndClearFlags
 352              		.thumb
 353              		.thumb_func
 354              		.type	chEvtGetAndClearFlags, %function
 355              	chEvtGetAndClearFlags:
 356              	.LFB12:
 357              		.loc 1 202 0
 358              		.cfi_startproc
 359              		@ args = 0, pretend = 0, frame = 0
 360              		@ frame_needed = 0, uses_anonymous_args = 0
 361              	.LVL37:
 362 0000 70B5     		push	{r4, r5, r6, lr}
 363              	.LCFI4:
 364              		.cfi_def_cfa_offset 16
 365              	.LBB12:
 366              		.loc 1 205 0
 367 0002 2023     		movs	r3, #32
 368              	.LVL38:
 369              	.LBE12:
 370              		.loc 1 202 0
 371 0004 0446     		mov	r4, r0
 372              		.cfi_offset 14, -4
 373              		.cfi_offset 6, -8
 374              		.cfi_offset 5, -12
 375              		.cfi_offset 4, -16
 376              	.LBB13:
 377              		.loc 1 205 0
 378              	@ 205 "../../../ChibiOS/os/kernel/src/chevents.c" 1
 379 0006 83F31188 		msr     BASEPRI, r3
 380              	@ 0 "" 2
 381              	.LVL39:
 382              		.thumb
 383              	.LBE13:
 384              		.loc 1 208 0
 385 000a 0026     		movs	r6, #0
 386              		.loc 1 205 0
 387 000c FFF7FEFF 		bl	dbg_check_lock
 388              	.LVL40:
 389              		.loc 1 207 0
 390 0010 E568     		ldr	r5, [r4, #12]
 391              	.LVL41:
 392              		.loc 1 208 0
 393 0012 E660     		str	r6, [r4, #12]
ARM GAS  C:\Users\DNIEL~1\AppData\Local\Temp\ccKqLJQc.s 			page 8


 394              		.loc 1 210 0
 395 0014 FFF7FEFF 		bl	dbg_check_unlock
 396              	.LVL42:
 397              	.LBB14:
 398 0018 3346     		mov	r3, r6
 399              	.LVL43:
 400              	@ 210 "../../../ChibiOS/os/kernel/src/chevents.c" 1
 401 001a 83F31188 		msr     BASEPRI, r3
 402              	@ 0 "" 2
 403              	.LVL44:
 404              		.thumb
 405              	.LBE14:
 406              		.loc 1 212 0
 407 001e 2846     		mov	r0, r5
 408 0020 70BD     		pop	{r4, r5, r6, pc}
 409              		.cfi_endproc
 410              	.LFE12:
 411              		.size	chEvtGetAndClearFlags, .-chEvtGetAndClearFlags
 412 0022 00BFAFF3 		.section	.text.chEvtSignalI,"ax",%progbits
 412      0080AFF3 
 412      0080AFF3 
 412      0080
 413              		.align	2
 414              		.p2align 4,,15
 415              		.global	chEvtSignalI
 416              		.thumb
 417              		.thumb_func
 418              		.type	chEvtSignalI, %function
 419              	chEvtSignalI:
 420              	.LFB14:
 421              		.loc 1 244 0
 422              		.cfi_startproc
 423              		@ args = 0, pretend = 0, frame = 0
 424              		@ frame_needed = 0, uses_anonymous_args = 0
 425              	.LVL45:
 426 0000 38B5     		push	{r3, r4, r5, lr}
 427              	.LCFI5:
 428              		.cfi_def_cfa_offset 16
 429              		.loc 1 244 0
 430 0002 0446     		mov	r4, r0
 431              		.cfi_offset 14, -4
 432              		.cfi_offset 5, -8
 433              		.cfi_offset 4, -12
 434              		.cfi_offset 3, -16
 435 0004 0D46     		mov	r5, r1
 436              		.loc 1 246 0
 437 0006 FFF7FEFF 		bl	chDbgCheckClassI
 438              	.LVL46:
 439              		.loc 1 247 0
 440 000a BCB1     		cbz	r4, .L29
 441              	.L25:
 442              		.loc 1 249 0
 443 000c E26B     		ldr	r2, [r4, #60]
 444              		.loc 1 251 0
 445 000e 94F82030 		ldrb	r3, [r4, #32]	@ zero_extendqisi2
 446              		.loc 1 249 0
 447 0012 1543     		orrs	r5, r5, r2
ARM GAS  C:\Users\DNIEL~1\AppData\Local\Temp\ccKqLJQc.s 			page 9


 448              	.LVL47:
 449              		.loc 1 251 0
 450 0014 082B     		cmp	r3, #8
 451              		.loc 1 249 0
 452 0016 E563     		str	r5, [r4, #60]
 453              		.loc 1 251 0
 454 0018 0CD0     		beq	.L30
 455              		.loc 1 252 0
 456 001a 092B     		cmp	r3, #9
 457 001c 00D0     		beq	.L31
 458              	.L24:
 459 001e 38BD     		pop	{r3, r4, r5, pc}
 460              	.L31:
 461              		.loc 1 254 0
 462 0020 A06A     		ldr	r0, [r4, #40]
 463 0022 0540     		ands	r5, r5, r0
 464              		.loc 1 253 0
 465 0024 A842     		cmp	r0, r5
 466 0026 FAD1     		bne	.L24
 467              	.L27:
 468              		.loc 1 255 0
 469 0028 2046     		mov	r0, r4
 470 002a FFF7FEFF 		bl	chSchReadyI
 471 002e 0021     		movs	r1, #0
 472 0030 8162     		str	r1, [r0, #40]
 473 0032 38BD     		pop	{r3, r4, r5, pc}
 474              	.L30:
 475              		.loc 1 252 0 discriminator 1
 476 0034 A36A     		ldr	r3, [r4, #40]
 477              		.loc 1 251 0 discriminator 1
 478 0036 1D42     		tst	r5, r3
 479 0038 F6D1     		bne	.L27
 480 003a 38BD     		pop	{r3, r4, r5, pc}
 481              	.LVL48:
 482              	.L29:
 483              		.loc 1 247 0 discriminator 1
 484 003c 0148     		ldr	r0, .L32
 485 003e FFF7FEFF 		bl	chDbgPanic
 486 0042 E3E7     		b	.L25
 487              	.L33:
 488              		.align	2
 489              	.L32:
 490 0044 2C000000 		.word	.LC2
 491              		.cfi_endproc
 492              	.LFE14:
 493              		.size	chEvtSignalI, .-chEvtSignalI
 494 0048 AFF30080 		.section	.text.chEvtSignal,"ax",%progbits
 494      AFF30080 
 495              		.align	2
 496              		.p2align 4,,15
 497              		.global	chEvtSignal
 498              		.thumb
 499              		.thumb_func
 500              		.type	chEvtSignal, %function
 501              	chEvtSignal:
 502              	.LFB13:
 503              		.loc 1 222 0
ARM GAS  C:\Users\DNIEL~1\AppData\Local\Temp\ccKqLJQc.s 			page 10


 504              		.cfi_startproc
 505              		@ args = 0, pretend = 0, frame = 0
 506              		@ frame_needed = 0, uses_anonymous_args = 0
 507              	.LVL49:
 508 0000 38B5     		push	{r3, r4, r5, lr}
 509              	.LCFI6:
 510              		.cfi_def_cfa_offset 16
 511              		.loc 1 224 0
 512 0002 0446     		mov	r4, r0
 513              		.cfi_offset 14, -4
 514              		.cfi_offset 5, -8
 515              		.cfi_offset 4, -12
 516              		.cfi_offset 3, -16
 517              		.loc 1 222 0
 518 0004 0D46     		mov	r5, r1
 519              		.loc 1 224 0
 520 0006 80B1     		cbz	r0, .L36
 521              	.LVL50:
 522              	.L35:
 523              	.LBB15:
 524              		.loc 1 226 0
 525 0008 2023     		movs	r3, #32
 526              	.LVL51:
 527              	@ 226 "../../../ChibiOS/os/kernel/src/chevents.c" 1
 528 000a 83F31188 		msr     BASEPRI, r3
 529              	@ 0 "" 2
 530              	.LVL52:
 531              		.thumb
 532              	.LBE15:
 533 000e FFF7FEFF 		bl	dbg_check_lock
 534              	.LVL53:
 535              		.loc 1 227 0
 536 0012 2046     		mov	r0, r4
 537 0014 2946     		mov	r1, r5
 538 0016 FFF7FEFF 		bl	chEvtSignalI
 539              		.loc 1 228 0
 540 001a FFF7FEFF 		bl	chSchRescheduleS
 541              		.loc 1 229 0
 542 001e FFF7FEFF 		bl	dbg_check_unlock
 543              	.LBB16:
 544 0022 0023     		movs	r3, #0
 545              	.LVL54:
 546              	@ 229 "../../../ChibiOS/os/kernel/src/chevents.c" 1
 547 0024 83F31188 		msr     BASEPRI, r3
 548              	@ 0 "" 2
 549              	.LVL55:
 550              		.thumb
 551              	.LBE16:
 552              		.loc 1 230 0
 553 0028 38BD     		pop	{r3, r4, r5, pc}
 554              	.LVL56:
 555              	.L36:
 556              		.loc 1 224 0 discriminator 1
 557 002a 0248     		ldr	r0, .L37
 558 002c FFF7FEFF 		bl	chDbgPanic
 559 0030 EAE7     		b	.L35
 560              	.L38:
ARM GAS  C:\Users\DNIEL~1\AppData\Local\Temp\ccKqLJQc.s 			page 11


 561 0032 00BF     		.align	2
 562              	.L37:
 563 0034 40000000 		.word	.LC3
 564              		.cfi_endproc
 565              	.LFE13:
 566              		.size	chEvtSignal, .-chEvtSignal
 567              		.section	.text.chEvtBroadcastFlagsI,"ax",%progbits
 568              		.align	2
 569              		.p2align 4,,15
 570              		.global	chEvtBroadcastFlagsI
 571              		.thumb
 572              		.thumb_func
 573              		.type	chEvtBroadcastFlagsI, %function
 574              	chEvtBroadcastFlagsI:
 575              	.LFB11:
 576              		.loc 1 177 0
 577              		.cfi_startproc
 578              		@ args = 0, pretend = 0, frame = 0
 579              		@ frame_needed = 0, uses_anonymous_args = 0
 580              	.LVL57:
 581 0000 70B5     		push	{r4, r5, r6, lr}
 582              	.LCFI7:
 583              		.cfi_def_cfa_offset 16
 584              		.loc 1 177 0
 585 0002 0546     		mov	r5, r0
 586              		.cfi_offset 14, -4
 587              		.cfi_offset 6, -8
 588              		.cfi_offset 5, -12
 589              		.cfi_offset 4, -16
 590 0004 0E46     		mov	r6, r1
 591              		.loc 1 180 0
 592 0006 FFF7FEFF 		bl	chDbgCheckClassI
 593              	.LVL58:
 594              		.loc 1 181 0
 595 000a 75B1     		cbz	r5, .L45
 596              	.L40:
 597              		.loc 1 183 0
 598 000c 2C68     		ldr	r4, [r5, #0]
 599              	.LVL59:
 600              		.loc 1 184 0
 601 000e AC42     		cmp	r4, r5
 602 0010 0AD0     		beq	.L39
 603              	.LVL60:
 604              	.L43:
 605              		.loc 1 185 0
 606 0012 E168     		ldr	r1, [r4, #12]
 607              		.loc 1 186 0
 608 0014 6068     		ldr	r0, [r4, #4]
 609              		.loc 1 185 0
 610 0016 41EA0603 		orr	r3, r1, r6
 611 001a E360     		str	r3, [r4, #12]
 612              		.loc 1 186 0
 613 001c A168     		ldr	r1, [r4, #8]
 614 001e FFF7FEFF 		bl	chEvtSignalI
 615              		.loc 1 187 0
 616 0022 2468     		ldr	r4, [r4, #0]
 617              	.LVL61:
ARM GAS  C:\Users\DNIEL~1\AppData\Local\Temp\ccKqLJQc.s 			page 12


 618              		.loc 1 184 0
 619 0024 AC42     		cmp	r4, r5
 620 0026 F4D1     		bne	.L43
 621              	.L39:
 622 0028 70BD     		pop	{r4, r5, r6, pc}
 623              	.LVL62:
 624              	.L45:
 625              		.loc 1 181 0 discriminator 1
 626 002a 0248     		ldr	r0, .L46
 627 002c FFF7FEFF 		bl	chDbgPanic
 628 0030 ECE7     		b	.L40
 629              	.L47:
 630 0032 00BF     		.align	2
 631              	.L46:
 632 0034 50000000 		.word	.LC4
 633              		.cfi_endproc
 634              	.LFE11:
 635              		.size	chEvtBroadcastFlagsI, .-chEvtBroadcastFlagsI
 636 0038 AFF30080 		.section	.text.chEvtBroadcastFlags,"ax",%progbits
 636      AFF30080 
 637              		.align	2
 638              		.p2align 4,,15
 639              		.global	chEvtBroadcastFlags
 640              		.thumb
 641              		.thumb_func
 642              		.type	chEvtBroadcastFlags, %function
 643              	chEvtBroadcastFlags:
 644              	.LFB15:
 645              		.loc 1 271 0
 646              		.cfi_startproc
 647              		@ args = 0, pretend = 0, frame = 0
 648              		@ frame_needed = 0, uses_anonymous_args = 0
 649              	.LVL63:
 650 0000 38B5     		push	{r3, r4, r5, lr}
 651              	.LCFI8:
 652              		.cfi_def_cfa_offset 16
 653              		.loc 1 271 0
 654 0002 0546     		mov	r5, r0
 655              		.cfi_offset 14, -4
 656              		.cfi_offset 5, -8
 657              		.cfi_offset 4, -12
 658              		.cfi_offset 3, -16
 659 0004 0C46     		mov	r4, r1
 660              	.LBB17:
 661              		.loc 1 273 0
 662 0006 2023     		movs	r3, #32
 663              	.LVL64:
 664              	@ 273 "../../../ChibiOS/os/kernel/src/chevents.c" 1
 665 0008 83F31188 		msr     BASEPRI, r3
 666              	@ 0 "" 2
 667              	.LVL65:
 668              		.thumb
 669              	.LBE17:
 670 000c FFF7FEFF 		bl	dbg_check_lock
 671              	.LVL66:
 672              		.loc 1 274 0
 673 0010 2846     		mov	r0, r5
ARM GAS  C:\Users\DNIEL~1\AppData\Local\Temp\ccKqLJQc.s 			page 13


 674 0012 2146     		mov	r1, r4
 675 0014 FFF7FEFF 		bl	chEvtBroadcastFlagsI
 676              		.loc 1 275 0
 677 0018 FFF7FEFF 		bl	chSchRescheduleS
 678              		.loc 1 276 0
 679 001c FFF7FEFF 		bl	dbg_check_unlock
 680              	.LBB18:
 681 0020 0023     		movs	r3, #0
 682              	.LVL67:
 683              	@ 276 "../../../ChibiOS/os/kernel/src/chevents.c" 1
 684 0022 83F31188 		msr     BASEPRI, r3
 685              	@ 0 "" 2
 686              	.LVL68:
 687              		.thumb
 688              	.LBE18:
 689              		.loc 1 277 0
 690 0026 38BD     		pop	{r3, r4, r5, pc}
 691              		.cfi_endproc
 692              	.LFE15:
 693              		.size	chEvtBroadcastFlags, .-chEvtBroadcastFlags
 694 0028 AFF30080 		.section	.text.chEvtGetAndClearFlagsI,"ax",%progbits
 694      AFF30080 
 695              		.align	2
 696              		.p2align 4,,15
 697              		.global	chEvtGetAndClearFlagsI
 698              		.thumb
 699              		.thumb_func
 700              		.type	chEvtGetAndClearFlagsI, %function
 701              	chEvtGetAndClearFlagsI:
 702              	.LFB16:
 703              		.loc 1 290 0
 704              		.cfi_startproc
 705              		@ args = 0, pretend = 0, frame = 0
 706              		@ frame_needed = 0, uses_anonymous_args = 0
 707              		@ link register save eliminated.
 708              	.LVL69:
 709              		.loc 1 290 0
 710 0000 0346     		mov	r3, r0
 711              		.loc 1 294 0
 712 0002 0022     		movs	r2, #0
 713              		.loc 1 293 0
 714 0004 C068     		ldr	r0, [r0, #12]
 715              	.LVL70:
 716              		.loc 1 294 0
 717 0006 DA60     		str	r2, [r3, #12]
 718              		.loc 1 297 0
 719 0008 7047     		bx	lr
 720              		.cfi_endproc
 721              	.LFE16:
 722              		.size	chEvtGetAndClearFlagsI, .-chEvtGetAndClearFlagsI
 723 000a 00BFAFF3 		.section	.text.chEvtDispatch,"ax",%progbits
 723      0080
 724              		.align	2
 725              		.p2align 4,,15
 726              		.global	chEvtDispatch
 727              		.thumb
 728              		.thumb_func
ARM GAS  C:\Users\DNIEL~1\AppData\Local\Temp\ccKqLJQc.s 			page 14


 729              		.type	chEvtDispatch, %function
 730              	chEvtDispatch:
 731              	.LFB17:
 732              		.loc 1 308 0
 733              		.cfi_startproc
 734              		@ args = 0, pretend = 0, frame = 0
 735              		@ frame_needed = 0, uses_anonymous_args = 0
 736              	.LVL71:
 737 0000 2DE9F041 		push	{r4, r5, r6, r7, r8, lr}
 738              	.LCFI9:
 739              		.cfi_def_cfa_offset 24
 740              		.loc 1 311 0
 741 0004 0446     		mov	r4, r0
 742              		.cfi_offset 14, -4
 743              		.cfi_offset 8, -8
 744              		.cfi_offset 7, -12
 745              		.cfi_offset 6, -16
 746              		.cfi_offset 5, -20
 747              		.cfi_offset 4, -24
 748              		.loc 1 308 0
 749 0006 0E46     		mov	r6, r1
 750              		.loc 1 311 0
 751 0008 C8B1     		cbz	r0, .L56
 752              	.LVL72:
 753              	.L51:
 754              		.loc 1 314 0 discriminator 1
 755 000a 8EB1     		cbz	r6, .L50
 756              		.loc 1 314 0 is_stmt 0
 757 000c 0027     		movs	r7, #0
 758 000e 3D46     		mov	r5, r7
 759              		.loc 1 315 0 is_stmt 1
 760 0010 4FF00108 		mov	r8, #1
 761              	.LVL73:
 762              	.L55:
 763 0014 08FA05F3 		lsl	r3, r8, r5
 764 0018 3342     		tst	r3, r6
 765 001a 05D0     		beq	.L53
 766              		.loc 1 319 0
 767 001c 26EA0306 		bic	r6, r6, r3
 768              	.LVL74:
 769              		.loc 1 316 0
 770 0020 E359     		ldr	r3, [r4, r7]
 771 0022 3BB1     		cbz	r3, .L57
 772              	.L54:
 773              	.LVL75:
 774              		.loc 1 320 0
 775 0024 2846     		mov	r0, r5
 776 0026 9847     		blx	r3
 777              	.L53:
 778              	.LVL76:
 779 0028 0437     		adds	r7, r7, #4
 780              		.loc 1 314 0
 781 002a 0EB1     		cbz	r6, .L50
 782              		.loc 1 322 0
 783 002c 0135     		adds	r5, r5, #1
 784              	.LVL77:
 785 002e F1E7     		b	.L55
ARM GAS  C:\Users\DNIEL~1\AppData\Local\Temp\ccKqLJQc.s 			page 15


 786              	.LVL78:
 787              	.L50:
 788 0030 BDE8F081 		pop	{r4, r5, r6, r7, r8, pc}
 789              	.LVL79:
 790              	.L57:
 791              		.loc 1 316 0 discriminator 1
 792 0034 0448     		ldr	r0, .L58
 793 0036 FFF7FEFF 		bl	chDbgPanic
 794 003a E359     		ldr	r3, [r4, r7]
 795 003c F2E7     		b	.L54
 796              	.LVL80:
 797              	.L56:
 798              		.loc 1 311 0 discriminator 1
 799 003e 0348     		ldr	r0, .L58+4
 800 0040 FFF7FEFF 		bl	chDbgPanic
 801              	.LVL81:
 802 0044 E1E7     		b	.L51
 803              	.L59:
 804 0046 00BF     		.align	2
 805              	.L58:
 806 0048 7C000000 		.word	.LC6
 807 004c 68000000 		.word	.LC5
 808              		.cfi_endproc
 809              	.LFE17:
 810              		.size	chEvtDispatch, .-chEvtDispatch
 811              		.section	.text.chEvtWaitOne,"ax",%progbits
 812              		.align	2
 813              		.p2align 4,,15
 814              		.global	chEvtWaitOne
 815              		.thumb
 816              		.thumb_func
 817              		.type	chEvtWaitOne, %function
 818              	chEvtWaitOne:
 819              	.LFB18:
 820              		.loc 1 343 0
 821              		.cfi_startproc
 822              		@ args = 0, pretend = 0, frame = 0
 823              		@ frame_needed = 0, uses_anonymous_args = 0
 824              	.LVL82:
 825 0000 38B5     		push	{r3, r4, r5, lr}
 826              	.LCFI10:
 827              		.cfi_def_cfa_offset 16
 828              		.loc 1 344 0
 829 0002 0F4B     		ldr	r3, .L62
 830              		.cfi_offset 14, -4
 831              		.cfi_offset 5, -8
 832              		.cfi_offset 4, -12
 833              		.cfi_offset 3, -16
 834              		.loc 1 343 0
 835 0004 0546     		mov	r5, r0
 836              		.loc 1 344 0
 837 0006 9C69     		ldr	r4, [r3, #24]
 838              	.LVL83:
 839              	.LBB19:
 840              		.loc 1 347 0
 841 0008 2023     		movs	r3, #32
 842              	.LVL84:
ARM GAS  C:\Users\DNIEL~1\AppData\Local\Temp\ccKqLJQc.s 			page 16


 843              	@ 347 "../../../ChibiOS/os/kernel/src/chevents.c" 1
 844 000a 83F31188 		msr     BASEPRI, r3
 845              	@ 0 "" 2
 846              	.LVL85:
 847              		.thumb
 848              	.LBE19:
 849 000e FFF7FEFF 		bl	dbg_check_lock
 850              	.LVL86:
 851              		.loc 1 349 0
 852 0012 E36B     		ldr	r3, [r4, #60]
 853              	.LVL87:
 854 0014 15EA0302 		ands	r2, r5, r3
 855 0018 06D1     		bne	.L61
 856              		.loc 1 350 0
 857 001a A562     		str	r5, [r4, #40]
 858              		.loc 1 351 0
 859 001c 0820     		movs	r0, #8
 860 001e FFF7FEFF 		bl	chSchGoSleepS
 861              	.LVL88:
 862              		.loc 1 352 0
 863 0022 E36B     		ldr	r3, [r4, #60]
 864 0024 05EA0302 		and	r2, r5, r3
 865              	.LVL89:
 866              	.L61:
 867              		.loc 1 354 0
 868 0028 5542     		negs	r5, r2
 869              	.LVL90:
 870 002a 1540     		ands	r5, r5, r2
 871              	.LVL91:
 872              		.loc 1 355 0
 873 002c 23EA0500 		bic	r0, r3, r5
 874 0030 E063     		str	r0, [r4, #60]
 875              		.loc 1 357 0
 876 0032 FFF7FEFF 		bl	dbg_check_unlock
 877              	.LBB20:
 878 0036 0023     		movs	r3, #0
 879              	.LVL92:
 880              	@ 357 "../../../ChibiOS/os/kernel/src/chevents.c" 1
 881 0038 83F31188 		msr     BASEPRI, r3
 882              	@ 0 "" 2
 883              	.LVL93:
 884              		.thumb
 885              	.LBE20:
 886              		.loc 1 359 0
 887 003c 2846     		mov	r0, r5
 888 003e 38BD     		pop	{r3, r4, r5, pc}
 889              	.L63:
 890              		.align	2
 891              	.L62:
 892 0040 00000000 		.word	rlist
 893              		.cfi_endproc
 894              	.LFE18:
 895              		.size	chEvtWaitOne, .-chEvtWaitOne
 896 0044 AFF30080 		.section	.text.chEvtWaitAny,"ax",%progbits
 896      AFF30080 
 896      AFF30080 
 897              		.align	2
ARM GAS  C:\Users\DNIEL~1\AppData\Local\Temp\ccKqLJQc.s 			page 17


 898              		.p2align 4,,15
 899              		.global	chEvtWaitAny
 900              		.thumb
 901              		.thumb_func
 902              		.type	chEvtWaitAny, %function
 903              	chEvtWaitAny:
 904              	.LFB19:
 905              		.loc 1 372 0
 906              		.cfi_startproc
 907              		@ args = 0, pretend = 0, frame = 0
 908              		@ frame_needed = 0, uses_anonymous_args = 0
 909              	.LVL94:
 910              		.loc 1 373 0
 911 0000 0E4B     		ldr	r3, .L66
 912              		.loc 1 372 0
 913 0002 70B5     		push	{r4, r5, r6, lr}
 914              	.LCFI11:
 915              		.cfi_def_cfa_offset 16
 916              		.loc 1 373 0
 917 0004 9C69     		ldr	r4, [r3, #24]
 918              		.cfi_offset 14, -4
 919              		.cfi_offset 6, -8
 920              		.cfi_offset 5, -12
 921              		.cfi_offset 4, -16
 922              	.LVL95:
 923              		.loc 1 372 0
 924 0006 0546     		mov	r5, r0
 925              	.LBB21:
 926              		.loc 1 376 0
 927 0008 2023     		movs	r3, #32
 928              	.LVL96:
 929              	@ 376 "../../../ChibiOS/os/kernel/src/chevents.c" 1
 930 000a 83F31188 		msr     BASEPRI, r3
 931              	@ 0 "" 2
 932              	.LVL97:
 933              		.thumb
 934              	.LBE21:
 935 000e FFF7FEFF 		bl	dbg_check_lock
 936              	.LVL98:
 937              		.loc 1 378 0
 938 0012 E36B     		ldr	r3, [r4, #60]
 939              	.LVL99:
 940 0014 15EA0306 		ands	r6, r5, r3
 941 0018 06D1     		bne	.L65
 942              		.loc 1 379 0
 943 001a A562     		str	r5, [r4, #40]
 944              		.loc 1 380 0
 945 001c 0820     		movs	r0, #8
 946 001e FFF7FEFF 		bl	chSchGoSleepS
 947              	.LVL100:
 948              		.loc 1 381 0
 949 0022 E36B     		ldr	r3, [r4, #60]
 950 0024 05EA0306 		and	r6, r5, r3
 951              	.LVL101:
 952              	.L65:
 953              		.loc 1 383 0
 954 0028 23EA0600 		bic	r0, r3, r6
ARM GAS  C:\Users\DNIEL~1\AppData\Local\Temp\ccKqLJQc.s 			page 18


 955 002c E063     		str	r0, [r4, #60]
 956              		.loc 1 385 0
 957 002e FFF7FEFF 		bl	dbg_check_unlock
 958              	.LBB22:
 959 0032 0023     		movs	r3, #0
 960              	.LVL102:
 961              	@ 385 "../../../ChibiOS/os/kernel/src/chevents.c" 1
 962 0034 83F31188 		msr     BASEPRI, r3
 963              	@ 0 "" 2
 964              	.LVL103:
 965              		.thumb
 966              	.LBE22:
 967              		.loc 1 387 0
 968 0038 3046     		mov	r0, r6
 969 003a 70BD     		pop	{r4, r5, r6, pc}
 970              	.L67:
 971              		.align	2
 972              	.L66:
 973 003c 00000000 		.word	rlist
 974              		.cfi_endproc
 975              	.LFE19:
 976              		.size	chEvtWaitAny, .-chEvtWaitAny
 977              		.section	.text.chEvtWaitAll,"ax",%progbits
 978              		.align	2
 979              		.p2align 4,,15
 980              		.global	chEvtWaitAll
 981              		.thumb
 982              		.thumb_func
 983              		.type	chEvtWaitAll, %function
 984              	chEvtWaitAll:
 985              	.LFB20:
 986              		.loc 1 400 0
 987              		.cfi_startproc
 988              		@ args = 0, pretend = 0, frame = 0
 989              		@ frame_needed = 0, uses_anonymous_args = 0
 990              	.LVL104:
 991 0000 38B5     		push	{r3, r4, r5, lr}
 992              	.LCFI12:
 993              		.cfi_def_cfa_offset 16
 994              		.loc 1 401 0
 995 0002 0E4B     		ldr	r3, .L70
 996              		.cfi_offset 14, -4
 997              		.cfi_offset 5, -8
 998              		.cfi_offset 4, -12
 999              		.cfi_offset 3, -16
 1000              		.loc 1 400 0
 1001 0004 0446     		mov	r4, r0
 1002              		.loc 1 401 0
 1003 0006 9D69     		ldr	r5, [r3, #24]
 1004              	.LVL105:
 1005              	.LBB23:
 1006              		.loc 1 403 0
 1007 0008 2023     		movs	r3, #32
 1008              	.LVL106:
 1009              	@ 403 "../../../ChibiOS/os/kernel/src/chevents.c" 1
 1010 000a 83F31188 		msr     BASEPRI, r3
 1011              	@ 0 "" 2
ARM GAS  C:\Users\DNIEL~1\AppData\Local\Temp\ccKqLJQc.s 			page 19


 1012              	.LVL107:
 1013              		.thumb
 1014              	.LBE23:
 1015 000e FFF7FEFF 		bl	dbg_check_lock
 1016              	.LVL108:
 1017              		.loc 1 405 0
 1018 0012 EB6B     		ldr	r3, [r5, #60]
 1019 0014 04EA0302 		and	r2, r4, r3
 1020 0018 A242     		cmp	r2, r4
 1021 001a 04D0     		beq	.L69
 1022              		.loc 1 406 0
 1023 001c AC62     		str	r4, [r5, #40]
 1024              		.loc 1 407 0
 1025 001e 0920     		movs	r0, #9
 1026 0020 FFF7FEFF 		bl	chSchGoSleepS
 1027 0024 EB6B     		ldr	r3, [r5, #60]
 1028              	.L69:
 1029              		.loc 1 409 0
 1030 0026 23EA0400 		bic	r0, r3, r4
 1031 002a E863     		str	r0, [r5, #60]
 1032              		.loc 1 411 0
 1033 002c FFF7FEFF 		bl	dbg_check_unlock
 1034              	.LBB24:
 1035 0030 0023     		movs	r3, #0
 1036              	.LVL109:
 1037              	@ 411 "../../../ChibiOS/os/kernel/src/chevents.c" 1
 1038 0032 83F31188 		msr     BASEPRI, r3
 1039              	@ 0 "" 2
 1040              	.LVL110:
 1041              		.thumb
 1042              	.LBE24:
 1043              		.loc 1 413 0
 1044 0036 2046     		mov	r0, r4
 1045 0038 38BD     		pop	{r3, r4, r5, pc}
 1046              	.L71:
 1047 003a 00BF     		.align	2
 1048              	.L70:
 1049 003c 00000000 		.word	rlist
 1050              		.cfi_endproc
 1051              	.LFE20:
 1052              		.size	chEvtWaitAll, .-chEvtWaitAll
 1053              		.section	.text.chEvtWaitOneTimeout,"ax",%progbits
 1054              		.align	2
 1055              		.p2align 4,,15
 1056              		.global	chEvtWaitOneTimeout
 1057              		.thumb
 1058              		.thumb_func
 1059              		.type	chEvtWaitOneTimeout, %function
 1060              	chEvtWaitOneTimeout:
 1061              	.LFB21:
 1062              		.loc 1 439 0
 1063              		.cfi_startproc
 1064              		@ args = 0, pretend = 0, frame = 0
 1065              		@ frame_needed = 0, uses_anonymous_args = 0
 1066              	.LVL111:
 1067 0000 F8B5     		push	{r3, r4, r5, r6, r7, lr}
 1068              	.LCFI13:
ARM GAS  C:\Users\DNIEL~1\AppData\Local\Temp\ccKqLJQc.s 			page 20


 1069              		.cfi_def_cfa_offset 24
 1070              		.loc 1 440 0
 1071 0002 184B     		ldr	r3, .L79
 1072              		.cfi_offset 14, -4
 1073              		.cfi_offset 7, -8
 1074              		.cfi_offset 6, -12
 1075              		.cfi_offset 5, -16
 1076              		.cfi_offset 4, -20
 1077              		.cfi_offset 3, -24
 1078              		.loc 1 439 0
 1079 0004 0546     		mov	r5, r0
 1080              		.loc 1 440 0
 1081 0006 9E69     		ldr	r6, [r3, #24]
 1082              	.LVL112:
 1083              		.loc 1 439 0
 1084 0008 0F46     		mov	r7, r1
 1085              	.LBB25:
 1086              		.loc 1 443 0
 1087 000a 2023     		movs	r3, #32
 1088              	.LVL113:
 1089              	@ 443 "../../../ChibiOS/os/kernel/src/chevents.c" 1
 1090 000c 83F31188 		msr     BASEPRI, r3
 1091              	@ 0 "" 2
 1092              	.LVL114:
 1093              		.thumb
 1094              	.LBE25:
 1095 0010 FFF7FEFF 		bl	dbg_check_lock
 1096              	.LVL115:
 1097              		.loc 1 445 0
 1098 0014 F36B     		ldr	r3, [r6, #60]
 1099              	.LVL116:
 1100 0016 15EA0304 		ands	r4, r5, r3
 1101 001a 0AD1     		bne	.L73
 1102              		.loc 1 446 0
 1103 001c AFB1     		cbz	r7, .L77
 1104              		.loc 1 451 0
 1105 001e 0820     		movs	r0, #8
 1106              		.loc 1 450 0
 1107 0020 B562     		str	r5, [r6, #40]
 1108              		.loc 1 451 0
 1109 0022 3946     		mov	r1, r7
 1110 0024 FFF7FEFF 		bl	chSchGoSleepTimeoutS
 1111              	.LVL117:
 1112 0028 0028     		cmp	r0, #0
 1113 002a 15DB     		blt	.L78
 1114              		.loc 1 455 0
 1115 002c F36B     		ldr	r3, [r6, #60]
 1116 002e 05EA0304 		and	r4, r5, r3
 1117              	.LVL118:
 1118              	.L73:
 1119              		.loc 1 457 0
 1120 0032 6242     		negs	r2, r4
 1121 0034 1440     		ands	r4, r4, r2
 1122              	.LVL119:
 1123              		.loc 1 458 0
 1124 0036 23EA0400 		bic	r0, r3, r4
 1125 003a F063     		str	r0, [r6, #60]
ARM GAS  C:\Users\DNIEL~1\AppData\Local\Temp\ccKqLJQc.s 			page 21


 1126              		.loc 1 460 0
 1127 003c FFF7FEFF 		bl	dbg_check_unlock
 1128              	.LBB26:
 1129 0040 0023     		movs	r3, #0
 1130              	.LVL120:
 1131              	@ 460 "../../../ChibiOS/os/kernel/src/chevents.c" 1
 1132 0042 83F31188 		msr     BASEPRI, r3
 1133              	@ 0 "" 2
 1134              	.LVL121:
 1135              		.thumb
 1136              	.L75:
 1137              	.LBE26:
 1138              		.loc 1 462 0
 1139 0046 2046     		mov	r0, r4
 1140 0048 F8BD     		pop	{r3, r4, r5, r6, r7, pc}
 1141              	.LVL122:
 1142              	.L77:
 1143              		.loc 1 447 0
 1144 004a FFF7FEFF 		bl	dbg_check_unlock
 1145              	.LBB27:
 1146 004e 2346     		mov	r3, r4
 1147              	.LVL123:
 1148              	@ 447 "../../../ChibiOS/os/kernel/src/chevents.c" 1
 1149 0050 83F31188 		msr     BASEPRI, r3
 1150              	@ 0 "" 2
 1151              	.LVL124:
 1152              		.thumb
 1153              	.LBE27:
 1154              		.loc 1 462 0
 1155 0054 2046     		mov	r0, r4
 1156 0056 F8BD     		pop	{r3, r4, r5, r6, r7, pc}
 1157              	.LVL125:
 1158              	.L78:
 1159              		.loc 1 452 0
 1160 0058 FFF7FEFF 		bl	dbg_check_unlock
 1161              	.LBB28:
 1162 005c 2346     		mov	r3, r4
 1163              	@ 452 "../../../ChibiOS/os/kernel/src/chevents.c" 1
 1164 005e 83F31188 		msr     BASEPRI, r3
 1165              	@ 0 "" 2
 1166              	.LVL126:
 1167              		.thumb
 1168              	.LBE28:
 1169              		.loc 1 453 0
 1170 0062 F0E7     		b	.L75
 1171              	.L80:
 1172              		.align	2
 1173              	.L79:
 1174 0064 00000000 		.word	rlist
 1175              		.cfi_endproc
 1176              	.LFE21:
 1177              		.size	chEvtWaitOneTimeout, .-chEvtWaitOneTimeout
 1178 0068 AFF30080 		.section	.text.chEvtWaitAnyTimeout,"ax",%progbits
 1178      AFF30080 
 1179              		.align	2
 1180              		.p2align 4,,15
 1181              		.global	chEvtWaitAnyTimeout
ARM GAS  C:\Users\DNIEL~1\AppData\Local\Temp\ccKqLJQc.s 			page 22


 1182              		.thumb
 1183              		.thumb_func
 1184              		.type	chEvtWaitAnyTimeout, %function
 1185              	chEvtWaitAnyTimeout:
 1186              	.LFB22:
 1187              		.loc 1 482 0
 1188              		.cfi_startproc
 1189              		@ args = 0, pretend = 0, frame = 0
 1190              		@ frame_needed = 0, uses_anonymous_args = 0
 1191              	.LVL127:
 1192 0000 F8B5     		push	{r3, r4, r5, r6, r7, lr}
 1193              	.LCFI14:
 1194              		.cfi_def_cfa_offset 24
 1195              		.loc 1 483 0
 1196 0002 174B     		ldr	r3, .L88
 1197              		.cfi_offset 14, -4
 1198              		.cfi_offset 7, -8
 1199              		.cfi_offset 6, -12
 1200              		.cfi_offset 5, -16
 1201              		.cfi_offset 4, -20
 1202              		.cfi_offset 3, -24
 1203              		.loc 1 482 0
 1204 0004 0446     		mov	r4, r0
 1205              		.loc 1 483 0
 1206 0006 9D69     		ldr	r5, [r3, #24]
 1207              	.LVL128:
 1208              		.loc 1 482 0
 1209 0008 0F46     		mov	r7, r1
 1210              	.LBB29:
 1211              		.loc 1 486 0
 1212 000a 2023     		movs	r3, #32
 1213              	.LVL129:
 1214              	@ 486 "../../../ChibiOS/os/kernel/src/chevents.c" 1
 1215 000c 83F31188 		msr     BASEPRI, r3
 1216              	@ 0 "" 2
 1217              	.LVL130:
 1218              		.thumb
 1219              	.LBE29:
 1220 0010 FFF7FEFF 		bl	dbg_check_lock
 1221              	.LVL131:
 1222              		.loc 1 488 0
 1223 0014 EB6B     		ldr	r3, [r5, #60]
 1224              	.LVL132:
 1225 0016 14EA0306 		ands	r6, r4, r3
 1226 001a 0AD1     		bne	.L82
 1227              		.loc 1 489 0
 1228 001c 9FB1     		cbz	r7, .L86
 1229              		.loc 1 494 0
 1230 001e 0820     		movs	r0, #8
 1231              		.loc 1 493 0
 1232 0020 AC62     		str	r4, [r5, #40]
 1233              		.loc 1 494 0
 1234 0022 3946     		mov	r1, r7
 1235 0024 FFF7FEFF 		bl	chSchGoSleepTimeoutS
 1236              	.LVL133:
 1237 0028 0028     		cmp	r0, #0
 1238 002a 13DB     		blt	.L87
ARM GAS  C:\Users\DNIEL~1\AppData\Local\Temp\ccKqLJQc.s 			page 23


 1239              		.loc 1 498 0
 1240 002c EB6B     		ldr	r3, [r5, #60]
 1241 002e 04EA0306 		and	r6, r4, r3
 1242              	.LVL134:
 1243              	.L82:
 1244              		.loc 1 500 0
 1245 0032 23EA0600 		bic	r0, r3, r6
 1246 0036 E863     		str	r0, [r5, #60]
 1247              		.loc 1 502 0
 1248 0038 FFF7FEFF 		bl	dbg_check_unlock
 1249              	.LBB30:
 1250 003c 0023     		movs	r3, #0
 1251              	.LVL135:
 1252              	@ 502 "../../../ChibiOS/os/kernel/src/chevents.c" 1
 1253 003e 83F31188 		msr     BASEPRI, r3
 1254              	@ 0 "" 2
 1255              	.LVL136:
 1256              		.thumb
 1257              	.L84:
 1258              	.LBE30:
 1259              		.loc 1 504 0
 1260 0042 3046     		mov	r0, r6
 1261 0044 F8BD     		pop	{r3, r4, r5, r6, r7, pc}
 1262              	.LVL137:
 1263              	.L86:
 1264              		.loc 1 490 0
 1265 0046 FFF7FEFF 		bl	dbg_check_unlock
 1266              	.LBB31:
 1267 004a 3346     		mov	r3, r6
 1268              	.LVL138:
 1269              	@ 490 "../../../ChibiOS/os/kernel/src/chevents.c" 1
 1270 004c 83F31188 		msr     BASEPRI, r3
 1271              	@ 0 "" 2
 1272              	.LVL139:
 1273              		.thumb
 1274              	.LBE31:
 1275              		.loc 1 504 0
 1276 0050 3046     		mov	r0, r6
 1277 0052 F8BD     		pop	{r3, r4, r5, r6, r7, pc}
 1278              	.LVL140:
 1279              	.L87:
 1280              		.loc 1 495 0
 1281 0054 FFF7FEFF 		bl	dbg_check_unlock
 1282              	.LBB32:
 1283 0058 3346     		mov	r3, r6
 1284              	@ 495 "../../../ChibiOS/os/kernel/src/chevents.c" 1
 1285 005a 83F31188 		msr     BASEPRI, r3
 1286              	@ 0 "" 2
 1287              	.LVL141:
 1288              		.thumb
 1289              	.LBE32:
 1290              		.loc 1 496 0
 1291 005e F0E7     		b	.L84
 1292              	.L89:
 1293              		.align	2
 1294              	.L88:
 1295 0060 00000000 		.word	rlist
ARM GAS  C:\Users\DNIEL~1\AppData\Local\Temp\ccKqLJQc.s 			page 24


 1296              		.cfi_endproc
 1297              	.LFE22:
 1298              		.size	chEvtWaitAnyTimeout, .-chEvtWaitAnyTimeout
 1299 0064 AFF30080 		.section	.text.chEvtWaitAllTimeout,"ax",%progbits
 1299      AFF30080 
 1299      AFF30080 
 1300              		.align	2
 1301              		.p2align 4,,15
 1302              		.global	chEvtWaitAllTimeout
 1303              		.thumb
 1304              		.thumb_func
 1305              		.type	chEvtWaitAllTimeout, %function
 1306              	chEvtWaitAllTimeout:
 1307              	.LFB23:
 1308              		.loc 1 523 0
 1309              		.cfi_startproc
 1310              		@ args = 0, pretend = 0, frame = 0
 1311              		@ frame_needed = 0, uses_anonymous_args = 0
 1312              	.LVL142:
 1313              		.loc 1 524 0
 1314 0000 184B     		ldr	r3, .L96
 1315              		.loc 1 523 0
 1316 0002 70B5     		push	{r4, r5, r6, lr}
 1317              	.LCFI15:
 1318              		.cfi_def_cfa_offset 16
 1319              		.loc 1 524 0
 1320 0004 9D69     		ldr	r5, [r3, #24]
 1321              		.cfi_offset 14, -4
 1322              		.cfi_offset 6, -8
 1323              		.cfi_offset 5, -12
 1324              		.cfi_offset 4, -16
 1325              	.LVL143:
 1326              		.loc 1 523 0
 1327 0006 0446     		mov	r4, r0
 1328 0008 0E46     		mov	r6, r1
 1329              	.LBB33:
 1330              		.loc 1 526 0
 1331 000a 2023     		movs	r3, #32
 1332              	.LVL144:
 1333              	@ 526 "../../../ChibiOS/os/kernel/src/chevents.c" 1
 1334 000c 83F31188 		msr     BASEPRI, r3
 1335              	@ 0 "" 2
 1336              	.LVL145:
 1337              		.thumb
 1338              	.LBE33:
 1339 0010 FFF7FEFF 		bl	dbg_check_lock
 1340              	.LVL146:
 1341              		.loc 1 528 0
 1342 0014 EB6B     		ldr	r3, [r5, #60]
 1343 0016 04EA0302 		and	r2, r4, r3
 1344 001a A242     		cmp	r2, r4
 1345 001c 08D0     		beq	.L91
 1346              		.loc 1 529 0
 1347 001e 8EB1     		cbz	r6, .L95
 1348              		.loc 1 534 0
 1349 0020 0920     		movs	r0, #9
 1350              		.loc 1 533 0
ARM GAS  C:\Users\DNIEL~1\AppData\Local\Temp\ccKqLJQc.s 			page 25


 1351 0022 AC62     		str	r4, [r5, #40]
 1352              		.loc 1 534 0
 1353 0024 3146     		mov	r1, r6
 1354 0026 FFF7FEFF 		bl	chSchGoSleepTimeoutS
 1355 002a 0028     		cmp	r0, #0
 1356 002c 12DB     		blt	.L94
 1357 002e EB6B     		ldr	r3, [r5, #60]
 1358              	.L91:
 1359              		.loc 1 539 0
 1360 0030 23EA0400 		bic	r0, r3, r4
 1361 0034 E863     		str	r0, [r5, #60]
 1362              		.loc 1 541 0
 1363 0036 FFF7FEFF 		bl	dbg_check_unlock
 1364              	.LBB34:
 1365 003a 0023     		movs	r3, #0
 1366              	.LVL147:
 1367              	@ 541 "../../../ChibiOS/os/kernel/src/chevents.c" 1
 1368 003c 83F31188 		msr     BASEPRI, r3
 1369              	@ 0 "" 2
 1370              	.LVL148:
 1371              		.thumb
 1372              	.L93:
 1373              	.LBE34:
 1374              		.loc 1 543 0
 1375 0040 2046     		mov	r0, r4
 1376 0042 70BD     		pop	{r4, r5, r6, pc}
 1377              	.LVL149:
 1378              	.L95:
 1379              		.loc 1 530 0
 1380 0044 FFF7FEFF 		bl	dbg_check_unlock
 1381              	.LBB35:
 1382 0048 3346     		mov	r3, r6
 1383              	.LVL150:
 1384              	@ 530 "../../../ChibiOS/os/kernel/src/chevents.c" 1
 1385 004a 83F31188 		msr     BASEPRI, r3
 1386              	@ 0 "" 2
 1387              	.LVL151:
 1388              		.thumb
 1389              	.LBE35:
 1390              		.loc 1 531 0
 1391 004e 3446     		mov	r4, r6
 1392              	.LVL152:
 1393              		.loc 1 543 0
 1394 0050 2046     		mov	r0, r4
 1395 0052 70BD     		pop	{r4, r5, r6, pc}
 1396              	.LVL153:
 1397              	.L94:
 1398              		.loc 1 535 0
 1399 0054 FFF7FEFF 		bl	dbg_check_unlock
 1400              	.LBB36:
 1401 0058 0023     		movs	r3, #0
 1402              	@ 535 "../../../ChibiOS/os/kernel/src/chevents.c" 1
 1403 005a 83F31188 		msr     BASEPRI, r3
 1404              	@ 0 "" 2
 1405              	.LVL154:
 1406              		.thumb
 1407              	.LBE36:
ARM GAS  C:\Users\DNIEL~1\AppData\Local\Temp\ccKqLJQc.s 			page 26


 1408              		.loc 1 536 0
 1409 005e 1C46     		mov	r4, r3
 1410              	.LVL155:
 1411 0060 EEE7     		b	.L93
 1412              	.L97:
 1413 0062 00BF     		.align	2
 1414              	.L96:
 1415 0064 00000000 		.word	rlist
 1416              		.cfi_endproc
 1417              	.LFE23:
 1418              		.size	chEvtWaitAllTimeout, .-chEvtWaitAllTimeout
 1419 0068 AFF30080 		.section	.rodata.str1.4,"aMS",%progbits,1
 1419      AFF30080 
 1420              		.align	2
 1421              	.LC0:
 1422 0000 22636845 		.ascii	"\"chEvtRegisterMask\"()\000"
 1422      76745265 
 1422      67697374 
 1422      65724D61 
 1422      736B2228 
 1423 0016 0000     		.space	2
 1424              	.LC1:
 1425 0018 22636845 		.ascii	"\"chEvtUnregister\"()\000"
 1425      7674556E 
 1425      72656769 
 1425      73746572 
 1425      22282900 
 1426              	.LC2:
 1427 002c 22636845 		.ascii	"\"chEvtSignalI\"()\000"
 1427      76745369 
 1427      676E616C 
 1427      49222829 
 1427      00
 1428 003d 000000   		.space	3
 1429              	.LC3:
 1430 0040 22636845 		.ascii	"\"chEvtSignal\"()\000"
 1430      76745369 
 1430      676E616C 
 1430      22282900 
 1431              	.LC4:
 1432 0050 22636845 		.ascii	"\"chEvtBroadcastMaskI\"()\000"
 1432      76744272 
 1432      6F616463 
 1432      6173744D 
 1432      61736B49 
 1433              	.LC5:
 1434 0068 22636845 		.ascii	"\"chEvtDispatch\"()\000"
 1434      76744469 
 1434      73706174 
 1434      63682228 
 1434      2900
 1435 007a 0000     		.space	2
 1436              	.LC6:
 1437 007c 63684576 		.ascii	"chEvtDispatch(), #1\000"
 1437      74446973 
 1437      70617463 
 1437      6828292C 
ARM GAS  C:\Users\DNIEL~1\AppData\Local\Temp\ccKqLJQc.s 			page 27


 1437      20233100 
 1438              		.text
 1439              	.Letext0: