ARM GAS  C:\Users\srich\AppData\Local\Temp\ccF0kN28.s 			page 1


   1              		.syntax unified
   2              		.cpu cortex-m4
   3              		.fpu softvfp
   4              		.eabi_attribute 20, 1
   5              		.eabi_attribute 21, 1
   6              		.eabi_attribute 23, 3
   7              		.eabi_attribute 24, 1
   8              		.eabi_attribute 25, 1
   9              		.eabi_attribute 26, 1
  10              		.eabi_attribute 30, 2
  11              		.eabi_attribute 34, 1
  12              		.eabi_attribute 18, 4
  13              		.thumb
  14              		.file	"chmboxes.c"
  15              		.text
  16              	.Ltext0:
  17              		.cfi_sections	.debug_frame
  18              		.section	.text.chMBInit,"ax",%progbits
  19              		.align	2
  20              		.p2align 4,,15
  21              		.global	chMBInit
  22              		.thumb
  23              		.thumb_func
  24              		.type	chMBInit, %function
  25              	chMBInit:
  26              	.LFB7:
  27              		.file 1 "c:\\ChibiStudio\\chibios/os/kernel/src/chmboxes.c"
  28              		.loc 1 72 0
  29              		.cfi_startproc
  30              		@ args = 0, pretend = 0, frame = 0
  31              		@ frame_needed = 0, uses_anonymous_args = 0
  32              	.LVL0:
  33 0000 38B5     		push	{r3, r4, r5, lr}
  34              	.LCFI0:
  35              		.cfi_def_cfa_offset 16
  36              		.cfi_offset 3, -16
  37              		.cfi_offset 4, -12
  38              		.cfi_offset 5, -8
  39              		.cfi_offset 14, -4
  40              		.loc 1 72 0
  41 0002 0446     		mov	r4, r0
  42 0004 0B46     		mov	r3, r1
  43              		.loc 1 77 0
  44 0006 01EB8205 		add	r5, r1, r2, lsl #2
  45              		.loc 1 78 0
  46 000a 00F11C00 		add	r0, r0, #28
  47              	.LVL1:
  48 000e 1146     		mov	r1, r2
  49              	.LVL2:
  50              		.loc 1 76 0
  51 0010 E360     		str	r3, [r4, #12]
  52 0012 A360     		str	r3, [r4, #8]
  53              		.loc 1 77 0
  54 0014 84E82800 		stmia	r4, {r3, r5}
  55              		.loc 1 78 0
  56 0018 FFF7FEFF 		bl	chSemInit
  57              	.LVL3:
ARM GAS  C:\Users\srich\AppData\Local\Temp\ccF0kN28.s 			page 2


  58              		.loc 1 79 0
  59 001c 04F11000 		add	r0, r4, #16
  60 0020 0021     		movs	r1, #0
  61              		.loc 1 80 0
  62 0022 BDE83840 		pop	{r3, r4, r5, lr}
  63              		.loc 1 79 0
  64 0026 FFF7FEBF 		b	chSemInit
  65              	.LVL4:
  66              		.cfi_endproc
  67              	.LFE7:
  68              		.size	chMBInit, .-chMBInit
  69 002a 00BFAFF3 		.section	.text.chMBReset,"ax",%progbits
  69      0080
  70              		.align	2
  71              		.p2align 4,,15
  72              		.global	chMBReset
  73              		.thumb
  74              		.thumb_func
  75              		.type	chMBReset, %function
  76              	chMBReset:
  77              	.LFB8:
  78              		.loc 1 91 0
  79              		.cfi_startproc
  80              		@ args = 0, pretend = 0, frame = 0
  81              		@ frame_needed = 0, uses_anonymous_args = 0
  82              	.LVL5:
  83 0000 10B5     		push	{r4, lr}
  84              	.LCFI1:
  85              		.cfi_def_cfa_offset 8
  86              		.cfi_offset 4, -8
  87              		.cfi_offset 14, -4
  88              	.LBB2:
  89              		.loc 1 95 0
  90 0002 2023     		movs	r3, #32
  91              	.LVL6:
  92              	.LBE2:
  93              		.loc 1 91 0
  94 0004 0446     		mov	r4, r0
  95              	.LBB3:
  96              		.loc 1 95 0
  97              	@ 95 "c:\ChibiStudio\chibios/os/kernel/src/chmboxes.c" 1
  98 0006 83F31188 		msr     BASEPRI, r3
  99              	@ 0 "" 2
 100              	.LVL7:
 101              		.thumb
 102              	.LBE3:
 103              		.loc 1 96 0
 104 000a 0368     		ldr	r3, [r0, #0]
 105              	.LVL8:
 106              		.loc 1 97 0
 107 000c 4168     		ldr	r1, [r0, #4]
 108              		.loc 1 96 0
 109 000e C360     		str	r3, [r0, #12]
 110              		.loc 1 97 0
 111 0010 CA1A     		subs	r2, r1, r3
 112 0012 9110     		asrs	r1, r2, #2
 113              		.loc 1 96 0
ARM GAS  C:\Users\srich\AppData\Local\Temp\ccF0kN28.s 			page 3


 114 0014 A360     		str	r3, [r4, #8]
 115              		.loc 1 97 0
 116 0016 00F11C00 		add	r0, r0, #28
 117              	.LVL9:
 118 001a FFF7FEFF 		bl	chSemResetI
 119              	.LVL10:
 120              		.loc 1 98 0
 121 001e 04F11000 		add	r0, r4, #16
 122 0022 0021     		movs	r1, #0
 123 0024 FFF7FEFF 		bl	chSemResetI
 124              	.LVL11:
 125              		.loc 1 99 0
 126 0028 FFF7FEFF 		bl	chSchRescheduleS
 127              	.LVL12:
 128              	.LBB4:
 129              		.loc 1 100 0
 130 002c 0023     		movs	r3, #0
 131              	.LVL13:
 132              	@ 100 "c:\ChibiStudio\chibios/os/kernel/src/chmboxes.c" 1
 133 002e 83F31188 		msr     BASEPRI, r3
 134              	@ 0 "" 2
 135              	.LVL14:
 136              		.thumb
 137 0032 10BD     		pop	{r4, pc}
 138              	.LBE4:
 139              		.cfi_endproc
 140              	.LFE8:
 141              		.size	chMBReset, .-chMBReset
 142 0034 AFF30080 		.section	.text.chMBPostS,"ax",%progbits
 142      AFF30080 
 142      AFF30080 
 143              		.align	2
 144              		.p2align 4,,15
 145              		.global	chMBPostS
 146              		.thumb
 147              		.thumb_func
 148              		.type	chMBPostS, %function
 149              	chMBPostS:
 150              	.LFB10:
 151              		.loc 1 150 0
 152              		.cfi_startproc
 153              		@ args = 0, pretend = 0, frame = 0
 154              		@ frame_needed = 0, uses_anonymous_args = 0
 155              	.LVL15:
 156 0000 70B5     		push	{r4, r5, r6, lr}
 157              	.LCFI2:
 158              		.cfi_def_cfa_offset 16
 159              		.cfi_offset 4, -16
 160              		.cfi_offset 5, -12
 161              		.cfi_offset 6, -8
 162              		.cfi_offset 14, -4
 163              		.loc 1 150 0
 164 0002 0446     		mov	r4, r0
 165 0004 0E46     		mov	r6, r1
 166              		.loc 1 156 0
 167 0006 00F11C00 		add	r0, r0, #28
 168              	.LVL16:
ARM GAS  C:\Users\srich\AppData\Local\Temp\ccF0kN28.s 			page 4


 169 000a 1146     		mov	r1, r2
 170              	.LVL17:
 171 000c FFF7FEFF 		bl	chSemWaitTimeoutS
 172              	.LVL18:
 173              		.loc 1 157 0
 174 0010 0546     		mov	r5, r0
 175 0012 78B9     		cbnz	r0, .L4
 176              		.loc 1 158 0
 177 0014 A368     		ldr	r3, [r4, #8]
 178              		.loc 1 159 0
 179 0016 6268     		ldr	r2, [r4, #4]
 180              		.loc 1 158 0
 181 0018 43F8046B 		str	r6, [r3], #4
 182              		.loc 1 159 0
 183 001c 9342     		cmp	r3, r2
 184              		.loc 1 158 0
 185 001e A360     		str	r3, [r4, #8]
 186              		.loc 1 160 0
 187 0020 28BF     		it	cs
 188 0022 2368     		ldrcs	r3, [r4, #0]
 189              		.loc 1 161 0
 190 0024 04F11000 		add	r0, r4, #16
 191              	.LVL19:
 192              		.loc 1 160 0
 193 0028 28BF     		it	cs
 194 002a A360     		strcs	r3, [r4, #8]
 195              		.loc 1 161 0
 196 002c FFF7FEFF 		bl	chSemSignalI
 197              	.LVL20:
 198              		.loc 1 162 0
 199 0030 FFF7FEFF 		bl	chSchRescheduleS
 200              	.LVL21:
 201              	.L4:
 202              		.loc 1 165 0
 203 0034 2846     		mov	r0, r5
 204 0036 70BD     		pop	{r4, r5, r6, pc}
 205              		.cfi_endproc
 206              	.LFE10:
 207              		.size	chMBPostS, .-chMBPostS
 208 0038 AFF30080 		.section	.text.chMBPost,"ax",%progbits
 208      AFF30080 
 209              		.align	2
 210              		.p2align 4,,15
 211              		.global	chMBPost
 212              		.thumb
 213              		.thumb_func
 214              		.type	chMBPost, %function
 215              	chMBPost:
 216              	.LFB9:
 217              		.loc 1 122 0
 218              		.cfi_startproc
 219              		@ args = 0, pretend = 0, frame = 0
 220              		@ frame_needed = 0, uses_anonymous_args = 0
 221              	.LVL22:
 222 0000 08B5     		push	{r3, lr}
 223              	.LCFI3:
 224              		.cfi_def_cfa_offset 8
ARM GAS  C:\Users\srich\AppData\Local\Temp\ccF0kN28.s 			page 5


 225              		.cfi_offset 3, -8
 226              		.cfi_offset 14, -4
 227              	.LBB5:
 228              		.loc 1 125 0
 229 0002 2023     		movs	r3, #32
 230              	.LVL23:
 231              	@ 125 "c:\ChibiStudio\chibios/os/kernel/src/chmboxes.c" 1
 232 0004 83F31188 		msr     BASEPRI, r3
 233              	@ 0 "" 2
 234              	.LVL24:
 235              		.thumb
 236              	.LBE5:
 237              		.loc 1 126 0
 238 0008 FFF7FEFF 		bl	chMBPostS
 239              	.LVL25:
 240              	.LBB6:
 241              		.loc 1 127 0
 242 000c 0023     		movs	r3, #0
 243              	.LVL26:
 244              	@ 127 "c:\ChibiStudio\chibios/os/kernel/src/chmboxes.c" 1
 245 000e 83F31188 		msr     BASEPRI, r3
 246              	@ 0 "" 2
 247              	.LVL27:
 248              		.thumb
 249              	.LBE6:
 250              		.loc 1 129 0
 251 0012 08BD     		pop	{r3, pc}
 252              		.cfi_endproc
 253              	.LFE9:
 254              		.size	chMBPost, .-chMBPost
 255 0014 AFF30080 		.section	.text.chMBPostI,"ax",%progbits
 255      AFF30080 
 255      AFF30080 
 256              		.align	2
 257              		.p2align 4,,15
 258              		.global	chMBPostI
 259              		.thumb
 260              		.thumb_func
 261              		.type	chMBPostI, %function
 262              	chMBPostI:
 263              	.LFB11:
 264              		.loc 1 181 0
 265              		.cfi_startproc
 266              		@ args = 0, pretend = 0, frame = 0
 267              		@ frame_needed = 0, uses_anonymous_args = 0
 268              	.LVL28:
 269              		.loc 1 186 0
 270 0000 426A     		ldr	r2, [r0, #36]
 271 0002 002A     		cmp	r2, #0
 272              		.loc 1 181 0
 273 0004 10B5     		push	{r4, lr}
 274              	.LCFI4:
 275              		.cfi_def_cfa_offset 8
 276              		.cfi_offset 4, -8
 277              		.cfi_offset 14, -4
 278              		.loc 1 186 0
 279 0006 0FDD     		ble	.L11
ARM GAS  C:\Users\srich\AppData\Local\Temp\ccF0kN28.s 			page 6


 280              		.loc 1 189 0
 281 0008 8368     		ldr	r3, [r0, #8]
 282              		.loc 1 190 0
 283 000a 4468     		ldr	r4, [r0, #4]
 284              		.loc 1 188 0
 285 000c 013A     		subs	r2, r2, #1
 286 000e 4262     		str	r2, [r0, #36]
 287              		.loc 1 189 0
 288 0010 43F8041B 		str	r1, [r3], #4
 289              		.loc 1 190 0
 290 0014 A342     		cmp	r3, r4
 291              		.loc 1 189 0
 292 0016 8360     		str	r3, [r0, #8]
 293              		.loc 1 191 0
 294 0018 24BF     		itt	cs
 295 001a 0368     		ldrcs	r3, [r0, #0]
 296 001c 8360     		strcs	r3, [r0, #8]
 297              		.loc 1 192 0
 298 001e 1030     		adds	r0, r0, #16
 299              	.LVL29:
 300 0020 FFF7FEFF 		bl	chSemSignalI
 301              	.LVL30:
 302              		.loc 1 193 0
 303 0024 0020     		movs	r0, #0
 304 0026 10BD     		pop	{r4, pc}
 305              	.LVL31:
 306              	.L11:
 307              		.loc 1 187 0
 308 0028 4FF0FF30 		mov	r0, #-1
 309              	.LVL32:
 310              		.loc 1 194 0
 311 002c 10BD     		pop	{r4, pc}
 312              		.cfi_endproc
 313              	.LFE11:
 314              		.size	chMBPostI, .-chMBPostI
 315 002e 00BF     		.section	.text.chMBPostAheadS,"ax",%progbits
 316              		.align	2
 317              		.p2align 4,,15
 318              		.global	chMBPostAheadS
 319              		.thumb
 320              		.thumb_func
 321              		.type	chMBPostAheadS, %function
 322              	chMBPostAheadS:
 323              	.LFB13:
 324              		.loc 1 243 0
 325              		.cfi_startproc
 326              		@ args = 0, pretend = 0, frame = 0
 327              		@ frame_needed = 0, uses_anonymous_args = 0
 328              	.LVL33:
 329 0000 70B5     		push	{r4, r5, r6, lr}
 330              	.LCFI5:
 331              		.cfi_def_cfa_offset 16
 332              		.cfi_offset 4, -16
 333              		.cfi_offset 5, -12
 334              		.cfi_offset 6, -8
 335              		.cfi_offset 14, -4
 336              		.loc 1 243 0
ARM GAS  C:\Users\srich\AppData\Local\Temp\ccF0kN28.s 			page 7


 337 0002 0446     		mov	r4, r0
 338 0004 0E46     		mov	r6, r1
 339              		.loc 1 249 0
 340 0006 00F11C00 		add	r0, r0, #28
 341              	.LVL34:
 342 000a 1146     		mov	r1, r2
 343              	.LVL35:
 344 000c FFF7FEFF 		bl	chSemWaitTimeoutS
 345              	.LVL36:
 346              		.loc 1 250 0
 347 0010 0546     		mov	r5, r0
 348 0012 60B9     		cbnz	r0, .L13
 349              		.loc 1 251 0
 350 0014 E368     		ldr	r3, [r4, #12]
 351 0016 2268     		ldr	r2, [r4, #0]
 352 0018 191F     		subs	r1, r3, #4
 353 001a 9142     		cmp	r1, r2
 354 001c E160     		str	r1, [r4, #12]
 355 001e 08D3     		bcc	.L15
 356              	.LVL37:
 357              	.L14:
 358              		.loc 1 254 0
 359 0020 04F11000 		add	r0, r4, #16
 360              		.loc 1 253 0
 361 0024 0E60     		str	r6, [r1, #0]
 362              		.loc 1 254 0
 363 0026 FFF7FEFF 		bl	chSemSignalI
 364              	.LVL38:
 365              		.loc 1 255 0
 366 002a FFF7FEFF 		bl	chSchRescheduleS
 367              	.LVL39:
 368              	.L13:
 369              		.loc 1 258 0
 370 002e 2846     		mov	r0, r5
 371 0030 70BD     		pop	{r4, r5, r6, pc}
 372              	.LVL40:
 373              	.L15:
 374              		.loc 1 252 0
 375 0032 6068     		ldr	r0, [r4, #4]
 376              	.LVL41:
 377 0034 011F     		subs	r1, r0, #4
 378 0036 E160     		str	r1, [r4, #12]
 379 0038 F2E7     		b	.L14
 380              		.cfi_endproc
 381              	.LFE13:
 382              		.size	chMBPostAheadS, .-chMBPostAheadS
 383 003a 00BFAFF3 		.section	.text.chMBPostAhead,"ax",%progbits
 383      0080
 384              		.align	2
 385              		.p2align 4,,15
 386              		.global	chMBPostAhead
 387              		.thumb
 388              		.thumb_func
 389              		.type	chMBPostAhead, %function
 390              	chMBPostAhead:
 391              	.LFB12:
 392              		.loc 1 215 0
ARM GAS  C:\Users\srich\AppData\Local\Temp\ccF0kN28.s 			page 8


 393              		.cfi_startproc
 394              		@ args = 0, pretend = 0, frame = 0
 395              		@ frame_needed = 0, uses_anonymous_args = 0
 396              	.LVL42:
 397 0000 08B5     		push	{r3, lr}
 398              	.LCFI6:
 399              		.cfi_def_cfa_offset 8
 400              		.cfi_offset 3, -8
 401              		.cfi_offset 14, -4
 402              	.LBB7:
 403              		.loc 1 218 0
 404 0002 2023     		movs	r3, #32
 405              	.LVL43:
 406              	@ 218 "c:\ChibiStudio\chibios/os/kernel/src/chmboxes.c" 1
 407 0004 83F31188 		msr     BASEPRI, r3
 408              	@ 0 "" 2
 409              	.LVL44:
 410              		.thumb
 411              	.LBE7:
 412              		.loc 1 219 0
 413 0008 FFF7FEFF 		bl	chMBPostAheadS
 414              	.LVL45:
 415              	.LBB8:
 416              		.loc 1 220 0
 417 000c 0023     		movs	r3, #0
 418              	.LVL46:
 419              	@ 220 "c:\ChibiStudio\chibios/os/kernel/src/chmboxes.c" 1
 420 000e 83F31188 		msr     BASEPRI, r3
 421              	@ 0 "" 2
 422              	.LVL47:
 423              		.thumb
 424              	.LBE8:
 425              		.loc 1 222 0
 426 0012 08BD     		pop	{r3, pc}
 427              		.cfi_endproc
 428              	.LFE12:
 429              		.size	chMBPostAhead, .-chMBPostAhead
 430 0014 AFF30080 		.section	.text.chMBPostAheadI,"ax",%progbits
 430      AFF30080 
 430      AFF30080 
 431              		.align	2
 432              		.p2align 4,,15
 433              		.global	chMBPostAheadI
 434              		.thumb
 435              		.thumb_func
 436              		.type	chMBPostAheadI, %function
 437              	chMBPostAheadI:
 438              	.LFB14:
 439              		.loc 1 274 0
 440              		.cfi_startproc
 441              		@ args = 0, pretend = 0, frame = 0
 442              		@ frame_needed = 0, uses_anonymous_args = 0
 443              	.LVL48:
 444              		.loc 1 279 0
 445 0000 426A     		ldr	r2, [r0, #36]
 446 0002 002A     		cmp	r2, #0
 447              		.loc 1 274 0
ARM GAS  C:\Users\srich\AppData\Local\Temp\ccF0kN28.s 			page 9


 448 0004 10B5     		push	{r4, lr}
 449              	.LCFI7:
 450              		.cfi_def_cfa_offset 8
 451              		.cfi_offset 4, -8
 452              		.cfi_offset 14, -4
 453              		.loc 1 279 0
 454 0006 10DD     		ble	.L20
 455              		.loc 1 282 0
 456 0008 C368     		ldr	r3, [r0, #12]
 457 000a 0468     		ldr	r4, [r0, #0]
 458 000c 043B     		subs	r3, r3, #4
 459              		.loc 1 281 0
 460 000e 013A     		subs	r2, r2, #1
 461              		.loc 1 282 0
 462 0010 A342     		cmp	r3, r4
 463              		.loc 1 281 0
 464 0012 4262     		str	r2, [r0, #36]
 465              		.loc 1 282 0
 466 0014 C360     		str	r3, [r0, #12]
 467 0016 02D2     		bcs	.L19
 468              		.loc 1 283 0
 469 0018 4368     		ldr	r3, [r0, #4]
 470 001a 043B     		subs	r3, r3, #4
 471 001c C360     		str	r3, [r0, #12]
 472              	.L19:
 473              		.loc 1 285 0
 474 001e 1030     		adds	r0, r0, #16
 475              	.LVL49:
 476              		.loc 1 284 0
 477 0020 1960     		str	r1, [r3, #0]
 478              		.loc 1 285 0
 479 0022 FFF7FEFF 		bl	chSemSignalI
 480              	.LVL50:
 481              		.loc 1 286 0
 482 0026 0020     		movs	r0, #0
 483 0028 10BD     		pop	{r4, pc}
 484              	.LVL51:
 485              	.L20:
 486              		.loc 1 280 0
 487 002a 4FF0FF30 		mov	r0, #-1
 488              	.LVL52:
 489              		.loc 1 287 0
 490 002e 10BD     		pop	{r4, pc}
 491              		.cfi_endproc
 492              	.LFE14:
 493              		.size	chMBPostAheadI, .-chMBPostAheadI
 494              		.section	.text.chMBFetchS,"ax",%progbits
 495              		.align	2
 496              		.p2align 4,,15
 497              		.global	chMBFetchS
 498              		.thumb
 499              		.thumb_func
 500              		.type	chMBFetchS, %function
 501              	chMBFetchS:
 502              	.LFB16:
 503              		.loc 1 336 0
 504              		.cfi_startproc
ARM GAS  C:\Users\srich\AppData\Local\Temp\ccF0kN28.s 			page 10


 505              		@ args = 0, pretend = 0, frame = 0
 506              		@ frame_needed = 0, uses_anonymous_args = 0
 507              	.LVL53:
 508 0000 70B5     		push	{r4, r5, r6, lr}
 509              	.LCFI8:
 510              		.cfi_def_cfa_offset 16
 511              		.cfi_offset 4, -16
 512              		.cfi_offset 5, -12
 513              		.cfi_offset 6, -8
 514              		.cfi_offset 14, -4
 515              		.loc 1 336 0
 516 0002 0446     		mov	r4, r0
 517 0004 0E46     		mov	r6, r1
 518              		.loc 1 342 0
 519 0006 00F11000 		add	r0, r0, #16
 520              	.LVL54:
 521 000a 1146     		mov	r1, r2
 522              	.LVL55:
 523 000c FFF7FEFF 		bl	chSemWaitTimeoutS
 524              	.LVL56:
 525              		.loc 1 343 0
 526 0010 0546     		mov	r5, r0
 527 0012 80B9     		cbnz	r0, .L22
 528              		.loc 1 344 0
 529 0014 E368     		ldr	r3, [r4, #12]
 530              		.loc 1 345 0
 531 0016 6268     		ldr	r2, [r4, #4]
 532              		.loc 1 344 0
 533 0018 53F8041B 		ldr	r1, [r3], #4
 534              		.loc 1 345 0
 535 001c 9342     		cmp	r3, r2
 536              		.loc 1 344 0
 537 001e 3160     		str	r1, [r6, #0]
 538 0020 E360     		str	r3, [r4, #12]
 539              		.loc 1 346 0
 540 0022 28BF     		it	cs
 541 0024 2368     		ldrcs	r3, [r4, #0]
 542              		.loc 1 347 0
 543 0026 04F11C00 		add	r0, r4, #28
 544              	.LVL57:
 545              		.loc 1 346 0
 546 002a 28BF     		it	cs
 547 002c E360     		strcs	r3, [r4, #12]
 548              		.loc 1 347 0
 549 002e FFF7FEFF 		bl	chSemSignalI
 550              	.LVL58:
 551              		.loc 1 348 0
 552 0032 FFF7FEFF 		bl	chSchRescheduleS
 553              	.LVL59:
 554              	.L22:
 555              		.loc 1 351 0
 556 0036 2846     		mov	r0, r5
 557 0038 70BD     		pop	{r4, r5, r6, pc}
 558              		.cfi_endproc
 559              	.LFE16:
 560              		.size	chMBFetchS, .-chMBFetchS
 561 003a 00BFAFF3 		.section	.text.chMBFetch,"ax",%progbits
ARM GAS  C:\Users\srich\AppData\Local\Temp\ccF0kN28.s 			page 11


 561      0080
 562              		.align	2
 563              		.p2align 4,,15
 564              		.global	chMBFetch
 565              		.thumb
 566              		.thumb_func
 567              		.type	chMBFetch, %function
 568              	chMBFetch:
 569              	.LFB15:
 570              		.loc 1 308 0
 571              		.cfi_startproc
 572              		@ args = 0, pretend = 0, frame = 0
 573              		@ frame_needed = 0, uses_anonymous_args = 0
 574              	.LVL60:
 575 0000 08B5     		push	{r3, lr}
 576              	.LCFI9:
 577              		.cfi_def_cfa_offset 8
 578              		.cfi_offset 3, -8
 579              		.cfi_offset 14, -4
 580              	.LBB9:
 581              		.loc 1 311 0
 582 0002 2023     		movs	r3, #32
 583              	.LVL61:
 584              	@ 311 "c:\ChibiStudio\chibios/os/kernel/src/chmboxes.c" 1
 585 0004 83F31188 		msr     BASEPRI, r3
 586              	@ 0 "" 2
 587              	.LVL62:
 588              		.thumb
 589              	.LBE9:
 590              		.loc 1 312 0
 591 0008 FFF7FEFF 		bl	chMBFetchS
 592              	.LVL63:
 593              	.LBB10:
 594              		.loc 1 313 0
 595 000c 0023     		movs	r3, #0
 596              	.LVL64:
 597              	@ 313 "c:\ChibiStudio\chibios/os/kernel/src/chmboxes.c" 1
 598 000e 83F31188 		msr     BASEPRI, r3
 599              	@ 0 "" 2
 600              	.LVL65:
 601              		.thumb
 602              	.LBE10:
 603              		.loc 1 315 0
 604 0012 08BD     		pop	{r3, pc}
 605              		.cfi_endproc
 606              	.LFE15:
 607              		.size	chMBFetch, .-chMBFetch
 608 0014 AFF30080 		.section	.text.chMBFetchI,"ax",%progbits
 608      AFF30080 
 608      AFF30080 
 609              		.align	2
 610              		.p2align 4,,15
 611              		.global	chMBFetchI
 612              		.thumb
 613              		.thumb_func
 614              		.type	chMBFetchI, %function
 615              	chMBFetchI:
ARM GAS  C:\Users\srich\AppData\Local\Temp\ccF0kN28.s 			page 12


 616              	.LFB17:
 617              		.loc 1 367 0
 618              		.cfi_startproc
 619              		@ args = 0, pretend = 0, frame = 0
 620              		@ frame_needed = 0, uses_anonymous_args = 0
 621              	.LVL66:
 622              		.loc 1 372 0
 623 0000 8269     		ldr	r2, [r0, #24]
 624 0002 002A     		cmp	r2, #0
 625              		.loc 1 367 0
 626 0004 10B5     		push	{r4, lr}
 627              	.LCFI10:
 628              		.cfi_def_cfa_offset 8
 629              		.cfi_offset 4, -8
 630              		.cfi_offset 14, -4
 631              		.loc 1 372 0
 632 0006 10DD     		ble	.L28
 633              		.loc 1 375 0
 634 0008 C368     		ldr	r3, [r0, #12]
 635              		.loc 1 376 0
 636 000a 4468     		ldr	r4, [r0, #4]
 637              		.loc 1 374 0
 638 000c 013A     		subs	r2, r2, #1
 639 000e 8261     		str	r2, [r0, #24]
 640              		.loc 1 375 0
 641 0010 53F8042B 		ldr	r2, [r3], #4
 642              		.loc 1 376 0
 643 0014 A342     		cmp	r3, r4
 644              		.loc 1 375 0
 645 0016 0A60     		str	r2, [r1, #0]
 646 0018 C360     		str	r3, [r0, #12]
 647              		.loc 1 377 0
 648 001a 24BF     		itt	cs
 649 001c 0368     		ldrcs	r3, [r0, #0]
 650 001e C360     		strcs	r3, [r0, #12]
 651              		.loc 1 378 0
 652 0020 1C30     		adds	r0, r0, #28
 653              	.LVL67:
 654 0022 FFF7FEFF 		bl	chSemSignalI
 655              	.LVL68:
 656              		.loc 1 379 0
 657 0026 0020     		movs	r0, #0
 658 0028 10BD     		pop	{r4, pc}
 659              	.LVL69:
 660              	.L28:
 661              		.loc 1 373 0
 662 002a 4FF0FF30 		mov	r0, #-1
 663              	.LVL70:
 664              		.loc 1 380 0
 665 002e 10BD     		pop	{r4, pc}
 666              		.cfi_endproc
 667              	.LFE17:
 668              		.size	chMBFetchI, .-chMBFetchI
 669              		.text
 670              	.Letext0:
 671              		.file 2 "c:\\chibistudio\\tools\\gnu tools arm embedded\\4.7 2014q2\\bin\\../lib/gcc/arm-none-eabi
 672              		.file 3 "c:\\ChibiStudio\\chibios/os/ports/GCC/ARMCMx/chtypes.h"
ARM GAS  C:\Users\srich\AppData\Local\Temp\ccF0kN28.s 			page 13


 673              		.file 4 "c:\\ChibiStudio\\chibios/os/kernel/include/chlists.h"
 674              		.file 5 "c:\\ChibiStudio\\chibios/os/kernel/include/chthreads.h"
 675              		.file 6 "c:\\ChibiStudio\\chibios/os/ports/GCC/ARMCMx/chcore_v7m.h"
 676              		.file 7 "c:\\ChibiStudio\\chibios/os/kernel/include/chsem.h"
 677              		.file 8 "c:\\ChibiStudio\\chibios/os/kernel/include/chmtx.h"
 678              		.file 9 "c:\\ChibiStudio\\chibios/os/kernel/include/chmboxes.h"
 679              		.file 10 "c:\\ChibiStudio\\chibios/os/kernel/include/chschd.h"
 680              		.section	.debug_info,"",%progbits
 681              	.Ldebug_info0:
 682 0000 CF0A0000 		.4byte	0xacf
 683 0004 0200     		.2byte	0x2
 684 0006 00000000 		.4byte	.Ldebug_abbrev0
 685 000a 04       		.byte	0x4
 686 000b 01       		.uleb128 0x1
 687 000c E2010000 		.4byte	.LASF82
 688 0010 01       		.byte	0x1
 689 0011 CA000000 		.4byte	.LASF83
 690 0015 18000000 		.4byte	.Ldebug_ranges0+0x18
 691 0019 00000000 		.4byte	0
 692 001d 00000000 		.4byte	0
 693 0021 00000000 		.4byte	.Ldebug_line0
 694 0025 02       		.uleb128 0x2
 695 0026 04       		.byte	0x4
 696 0027 05       		.byte	0x5
 697 0028 696E7400 		.ascii	"int\000"
 698 002c 03       		.uleb128 0x3
 699 002d 04       		.byte	0x4
 700 002e 07       		.byte	0x7
 701 002f 2A010000 		.4byte	.LASF0
 702 0033 03       		.uleb128 0x3
 703 0034 01       		.byte	0x1
 704 0035 06       		.byte	0x6
 705 0036 92000000 		.4byte	.LASF1
 706 003a 04       		.uleb128 0x4
 707 003b 75030000 		.4byte	.LASF5
 708 003f 02       		.byte	0x2
 709 0040 2A       		.byte	0x2a
 710 0041 45000000 		.4byte	0x45
 711 0045 03       		.uleb128 0x3
 712 0046 01       		.byte	0x1
 713 0047 08       		.byte	0x8
 714 0048 74020000 		.4byte	.LASF2
 715 004c 03       		.uleb128 0x3
 716 004d 02       		.byte	0x2
 717 004e 05       		.byte	0x5
 718 004f 93020000 		.4byte	.LASF3
 719 0053 03       		.uleb128 0x3
 720 0054 02       		.byte	0x2
 721 0055 07       		.byte	0x7
 722 0056 6C010000 		.4byte	.LASF4
 723 005a 04       		.uleb128 0x4
 724 005b 6C020000 		.4byte	.LASF6
 725 005f 02       		.byte	0x2
 726 0060 4F       		.byte	0x4f
 727 0061 65000000 		.4byte	0x65
 728 0065 03       		.uleb128 0x3
 729 0066 04       		.byte	0x4
ARM GAS  C:\Users\srich\AppData\Local\Temp\ccF0kN28.s 			page 14


 730 0067 05       		.byte	0x5
 731 0068 B8000000 		.4byte	.LASF7
 732 006c 04       		.uleb128 0x4
 733 006d E0020000 		.4byte	.LASF8
 734 0071 02       		.byte	0x2
 735 0072 50       		.byte	0x50
 736 0073 77000000 		.4byte	0x77
 737 0077 03       		.uleb128 0x3
 738 0078 04       		.byte	0x4
 739 0079 07       		.byte	0x7
 740 007a 40010000 		.4byte	.LASF9
 741 007e 03       		.uleb128 0x3
 742 007f 08       		.byte	0x8
 743 0080 05       		.byte	0x5
 744 0081 84000000 		.4byte	.LASF10
 745 0085 03       		.uleb128 0x3
 746 0086 08       		.byte	0x8
 747 0087 07       		.byte	0x7
 748 0088 45000000 		.4byte	.LASF11
 749 008c 03       		.uleb128 0x3
 750 008d 01       		.byte	0x1
 751 008e 02       		.byte	0x2
 752 008f 66020000 		.4byte	.LASF12
 753 0093 04       		.uleb128 0x4
 754 0094 9B010000 		.4byte	.LASF13
 755 0098 03       		.byte	0x3
 756 0099 2C       		.byte	0x2c
 757 009a 3A000000 		.4byte	0x3a
 758 009e 04       		.uleb128 0x4
 759 009f C1000000 		.4byte	.LASF14
 760 00a3 03       		.byte	0x3
 761 00a4 2D       		.byte	0x2d
 762 00a5 3A000000 		.4byte	0x3a
 763 00a9 04       		.uleb128 0x4
 764 00aa 4F020000 		.4byte	.LASF15
 765 00ae 03       		.byte	0x3
 766 00af 2E       		.byte	0x2e
 767 00b0 3A000000 		.4byte	0x3a
 768 00b4 04       		.uleb128 0x4
 769 00b5 AE000000 		.4byte	.LASF16
 770 00b9 03       		.byte	0x3
 771 00ba 2F       		.byte	0x2f
 772 00bb 3A000000 		.4byte	0x3a
 773 00bf 04       		.uleb128 0x4
 774 00c0 5E020000 		.4byte	.LASF17
 775 00c4 03       		.byte	0x3
 776 00c5 30       		.byte	0x30
 777 00c6 6C000000 		.4byte	0x6c
 778 00ca 04       		.uleb128 0x4
 779 00cb 8A010000 		.4byte	.LASF18
 780 00cf 03       		.byte	0x3
 781 00d0 31       		.byte	0x31
 782 00d1 5A000000 		.4byte	0x5a
 783 00d5 04       		.uleb128 0x4
 784 00d6 AF010000 		.4byte	.LASF19
 785 00da 03       		.byte	0x3
 786 00db 33       		.byte	0x33
ARM GAS  C:\Users\srich\AppData\Local\Temp\ccF0kN28.s 			page 15


 787 00dc 6C000000 		.4byte	0x6c
 788 00e0 04       		.uleb128 0x4
 789 00e1 07030000 		.4byte	.LASF20
 790 00e5 03       		.byte	0x3
 791 00e6 35       		.byte	0x35
 792 00e7 6C000000 		.4byte	0x6c
 793 00eb 04       		.uleb128 0x4
 794 00ec 24010000 		.4byte	.LASF21
 795 00f0 03       		.byte	0x3
 796 00f1 36       		.byte	0x36
 797 00f2 5A000000 		.4byte	0x5a
 798 00f6 04       		.uleb128 0x4
 799 00f7 CE020000 		.4byte	.LASF22
 800 00fb 04       		.byte	0x4
 801 00fc 2A       		.byte	0x2a
 802 00fd 01010000 		.4byte	0x101
 803 0101 05       		.uleb128 0x5
 804 0102 CE020000 		.4byte	.LASF22
 805 0106 48       		.byte	0x48
 806 0107 05       		.byte	0x5
 807 0108 5E       		.byte	0x5e
 808 0109 26020000 		.4byte	0x226
 809 010d 06       		.uleb128 0x6
 810 010e B6020000 		.4byte	.LASF23
 811 0112 05       		.byte	0x5
 812 0113 5F       		.byte	0x5f
 813 0114 4B020000 		.4byte	0x24b
 814 0118 02       		.byte	0x2
 815 0119 23       		.byte	0x23
 816 011a 00       		.uleb128 0
 817 011b 06       		.uleb128 0x6
 818 011c 57020000 		.4byte	.LASF24
 819 0120 05       		.byte	0x5
 820 0121 61       		.byte	0x61
 821 0122 4B020000 		.4byte	0x24b
 822 0126 02       		.byte	0x2
 823 0127 23       		.byte	0x23
 824 0128 04       		.uleb128 0x4
 825 0129 06       		.uleb128 0x6
 826 012a 7D000000 		.4byte	.LASF25
 827 012e 05       		.byte	0x5
 828 012f 63       		.byte	0x63
 829 0130 BF000000 		.4byte	0xbf
 830 0134 02       		.byte	0x2
 831 0135 23       		.byte	0x23
 832 0136 08       		.uleb128 0x8
 833 0137 06       		.uleb128 0x6
 834 0138 93030000 		.4byte	.LASF26
 835 013c 05       		.byte	0x5
 836 013d 64       		.byte	0x64
 837 013e 19030000 		.4byte	0x319
 838 0142 02       		.byte	0x2
 839 0143 23       		.byte	0x23
 840 0144 0C       		.uleb128 0xc
 841 0145 06       		.uleb128 0x6
 842 0146 FA000000 		.4byte	.LASF27
 843 014a 05       		.byte	0x5
ARM GAS  C:\Users\srich\AppData\Local\Temp\ccF0kN28.s 			page 16


 844 014b 66       		.byte	0x66
 845 014c 4B020000 		.4byte	0x24b
 846 0150 02       		.byte	0x2
 847 0151 23       		.byte	0x23
 848 0152 10       		.uleb128 0x10
 849 0153 06       		.uleb128 0x6
 850 0154 2B020000 		.4byte	.LASF28
 851 0158 05       		.byte	0x5
 852 0159 67       		.byte	0x67
 853 015a 4B020000 		.4byte	0x24b
 854 015e 02       		.byte	0x2
 855 015f 23       		.byte	0x23
 856 0160 14       		.uleb128 0x14
 857 0161 06       		.uleb128 0x6
 858 0162 84030000 		.4byte	.LASF29
 859 0166 05       		.byte	0x5
 860 0167 6E       		.byte	0x6e
 861 0168 67040000 		.4byte	0x467
 862 016c 02       		.byte	0x2
 863 016d 23       		.byte	0x23
 864 016e 18       		.uleb128 0x18
 865 016f 06       		.uleb128 0x6
 866 0170 9D020000 		.4byte	.LASF30
 867 0174 05       		.byte	0x5
 868 0175 79       		.byte	0x79
 869 0176 9E000000 		.4byte	0x9e
 870 017a 02       		.byte	0x2
 871 017b 23       		.byte	0x23
 872 017c 1C       		.uleb128 0x1c
 873 017d 06       		.uleb128 0x6
 874 017e BD020000 		.4byte	.LASF31
 875 0182 05       		.byte	0x5
 876 0183 7D       		.byte	0x7d
 877 0184 93000000 		.4byte	0x93
 878 0188 02       		.byte	0x2
 879 0189 23       		.byte	0x23
 880 018a 1D       		.uleb128 0x1d
 881 018b 06       		.uleb128 0x6
 882 018c 62030000 		.4byte	.LASF32
 883 0190 05       		.byte	0x5
 884 0191 82       		.byte	0x82
 885 0192 A9000000 		.4byte	0xa9
 886 0196 02       		.byte	0x2
 887 0197 23       		.byte	0x23
 888 0198 1E       		.uleb128 0x1e
 889 0199 06       		.uleb128 0x6
 890 019a A5020000 		.4byte	.LASF33
 891 019e 05       		.byte	0x5
 892 019f 88       		.byte	0x88
 893 01a0 B4000000 		.4byte	0xb4
 894 01a4 02       		.byte	0x2
 895 01a5 23       		.byte	0x23
 896 01a6 1F       		.uleb128 0x1f
 897 01a7 06       		.uleb128 0x6
 898 01a8 1C030000 		.4byte	.LASF34
 899 01ac 05       		.byte	0x5
 900 01ad 8F       		.byte	0x8f
ARM GAS  C:\Users\srich\AppData\Local\Temp\ccF0kN28.s 			page 17


 901 01ae 43030000 		.4byte	0x343
 902 01b2 02       		.byte	0x2
 903 01b3 23       		.byte	0x23
 904 01b4 20       		.uleb128 0x20
 905 01b5 07       		.uleb128 0x7
 906 01b6 705F7500 		.ascii	"p_u\000"
 907 01ba 05       		.byte	0x5
 908 01bb B4       		.byte	0xb4
 909 01bc 32040000 		.4byte	0x432
 910 01c0 02       		.byte	0x2
 911 01c1 23       		.byte	0x23
 912 01c2 24       		.uleb128 0x24
 913 01c3 06       		.uleb128 0x6
 914 01c4 99030000 		.4byte	.LASF35
 915 01c8 05       		.byte	0x5
 916 01c9 B9       		.byte	0xb9
 917 01ca 73020000 		.4byte	0x273
 918 01ce 02       		.byte	0x2
 919 01cf 23       		.byte	0x23
 920 01d0 28       		.uleb128 0x28
 921 01d1 06       		.uleb128 0x6
 922 01d2 38030000 		.4byte	.LASF36
 923 01d6 05       		.byte	0x5
 924 01d7 BF       		.byte	0xbf
 925 01d8 51020000 		.4byte	0x251
 926 01dc 02       		.byte	0x2
 927 01dd 23       		.byte	0x23
 928 01de 2C       		.uleb128 0x2c
 929 01df 06       		.uleb128 0x6
 930 01e0 00000000 		.4byte	.LASF37
 931 01e4 05       		.byte	0x5
 932 01e5 C3       		.byte	0xc3
 933 01e6 CA000000 		.4byte	0xca
 934 01ea 02       		.byte	0x2
 935 01eb 23       		.byte	0x23
 936 01ec 34       		.uleb128 0x34
 937 01ed 06       		.uleb128 0x6
 938 01ee D5020000 		.4byte	.LASF38
 939 01f2 05       		.byte	0x5
 940 01f3 C9       		.byte	0xc9
 941 01f4 D5000000 		.4byte	0xd5
 942 01f8 02       		.byte	0x2
 943 01f9 23       		.byte	0x23
 944 01fa 38       		.uleb128 0x38
 945 01fb 06       		.uleb128 0x6
 946 01fc 89020000 		.4byte	.LASF39
 947 0200 05       		.byte	0x5
 948 0201 D0       		.byte	0xd0
 949 0202 79040000 		.4byte	0x479
 950 0206 02       		.byte	0x2
 951 0207 23       		.byte	0x23
 952 0208 3C       		.uleb128 0x3c
 953 0209 06       		.uleb128 0x6
 954 020a 11030000 		.4byte	.LASF40
 955 020e 05       		.byte	0x5
 956 020f D4       		.byte	0xd4
 957 0210 BF000000 		.4byte	0xbf
ARM GAS  C:\Users\srich\AppData\Local\Temp\ccF0kN28.s 			page 18


 958 0214 02       		.byte	0x2
 959 0215 23       		.byte	0x23
 960 0216 40       		.uleb128 0x40
 961 0217 06       		.uleb128 0x6
 962 0218 9E000000 		.4byte	.LASF41
 963 021c 05       		.byte	0x5
 964 021d DA       		.byte	0xda
 965 021e 89020000 		.4byte	0x289
 966 0222 02       		.byte	0x2
 967 0223 23       		.byte	0x23
 968 0224 44       		.uleb128 0x44
 969 0225 00       		.byte	0
 970 0226 08       		.uleb128 0x8
 971 0227 08       		.byte	0x8
 972 0228 04       		.byte	0x4
 973 0229 61       		.byte	0x61
 974 022a 4B020000 		.4byte	0x24b
 975 022e 06       		.uleb128 0x6
 976 022f B6020000 		.4byte	.LASF23
 977 0233 04       		.byte	0x4
 978 0234 62       		.byte	0x62
 979 0235 4B020000 		.4byte	0x24b
 980 0239 02       		.byte	0x2
 981 023a 23       		.byte	0x23
 982 023b 00       		.uleb128 0
 983 023c 06       		.uleb128 0x6
 984 023d 57020000 		.4byte	.LASF24
 985 0241 04       		.byte	0x4
 986 0242 64       		.byte	0x64
 987 0243 4B020000 		.4byte	0x24b
 988 0247 02       		.byte	0x2
 989 0248 23       		.byte	0x23
 990 0249 04       		.uleb128 0x4
 991 024a 00       		.byte	0
 992 024b 09       		.uleb128 0x9
 993 024c 04       		.byte	0x4
 994 024d F6000000 		.4byte	0xf6
 995 0251 04       		.uleb128 0x4
 996 0252 33020000 		.4byte	.LASF42
 997 0256 04       		.byte	0x4
 998 0257 66       		.byte	0x66
 999 0258 26020000 		.4byte	0x226
 1000 025c 08       		.uleb128 0x8
 1001 025d 04       		.byte	0x4
 1002 025e 04       		.byte	0x4
 1003 025f 6B       		.byte	0x6b
 1004 0260 73020000 		.4byte	0x273
 1005 0264 06       		.uleb128 0x6
 1006 0265 B6020000 		.4byte	.LASF23
 1007 0269 04       		.byte	0x4
 1008 026a 6D       		.byte	0x6d
 1009 026b 4B020000 		.4byte	0x24b
 1010 026f 02       		.byte	0x2
 1011 0270 23       		.byte	0x23
 1012 0271 00       		.uleb128 0
 1013 0272 00       		.byte	0
 1014 0273 04       		.uleb128 0x4
ARM GAS  C:\Users\srich\AppData\Local\Temp\ccF0kN28.s 			page 19


 1015 0274 A3010000 		.4byte	.LASF43
 1016 0278 04       		.byte	0x4
 1017 0279 70       		.byte	0x70
 1018 027a 5C020000 		.4byte	0x25c
 1019 027e 04       		.uleb128 0x4
 1020 027f 1B010000 		.4byte	.LASF44
 1021 0283 06       		.byte	0x6
 1022 0284 E5       		.byte	0xe5
 1023 0285 89020000 		.4byte	0x289
 1024 0289 0A       		.uleb128 0xa
 1025 028a 04       		.byte	0x4
 1026 028b 0B       		.uleb128 0xb
 1027 028c 31030000 		.4byte	.LASF45
 1028 0290 24       		.byte	0x24
 1029 0291 06       		.byte	0x6
 1030 0292 0C01     		.2byte	0x10c
 1031 0294 19030000 		.4byte	0x319
 1032 0298 0C       		.uleb128 0xc
 1033 0299 723400   		.ascii	"r4\000"
 1034 029c 06       		.byte	0x6
 1035 029d 1F01     		.2byte	0x11f
 1036 029f 7E020000 		.4byte	0x27e
 1037 02a3 02       		.byte	0x2
 1038 02a4 23       		.byte	0x23
 1039 02a5 00       		.uleb128 0
 1040 02a6 0C       		.uleb128 0xc
 1041 02a7 723500   		.ascii	"r5\000"
 1042 02aa 06       		.byte	0x6
 1043 02ab 2001     		.2byte	0x120
 1044 02ad 7E020000 		.4byte	0x27e
 1045 02b1 02       		.byte	0x2
 1046 02b2 23       		.byte	0x23
 1047 02b3 04       		.uleb128 0x4
 1048 02b4 0C       		.uleb128 0xc
 1049 02b5 723600   		.ascii	"r6\000"
 1050 02b8 06       		.byte	0x6
 1051 02b9 2101     		.2byte	0x121
 1052 02bb 7E020000 		.4byte	0x27e
 1053 02bf 02       		.byte	0x2
 1054 02c0 23       		.byte	0x23
 1055 02c1 08       		.uleb128 0x8
 1056 02c2 0C       		.uleb128 0xc
 1057 02c3 723700   		.ascii	"r7\000"
 1058 02c6 06       		.byte	0x6
 1059 02c7 2201     		.2byte	0x122
 1060 02c9 7E020000 		.4byte	0x27e
 1061 02cd 02       		.byte	0x2
 1062 02ce 23       		.byte	0x23
 1063 02cf 0C       		.uleb128 0xc
 1064 02d0 0C       		.uleb128 0xc
 1065 02d1 723800   		.ascii	"r8\000"
 1066 02d4 06       		.byte	0x6
 1067 02d5 2301     		.2byte	0x123
 1068 02d7 7E020000 		.4byte	0x27e
 1069 02db 02       		.byte	0x2
 1070 02dc 23       		.byte	0x23
 1071 02dd 10       		.uleb128 0x10
ARM GAS  C:\Users\srich\AppData\Local\Temp\ccF0kN28.s 			page 20


 1072 02de 0C       		.uleb128 0xc
 1073 02df 723900   		.ascii	"r9\000"
 1074 02e2 06       		.byte	0x6
 1075 02e3 2401     		.2byte	0x124
 1076 02e5 7E020000 		.4byte	0x27e
 1077 02e9 02       		.byte	0x2
 1078 02ea 23       		.byte	0x23
 1079 02eb 14       		.uleb128 0x14
 1080 02ec 0C       		.uleb128 0xc
 1081 02ed 72313000 		.ascii	"r10\000"
 1082 02f1 06       		.byte	0x6
 1083 02f2 2501     		.2byte	0x125
 1084 02f4 7E020000 		.4byte	0x27e
 1085 02f8 02       		.byte	0x2
 1086 02f9 23       		.byte	0x23
 1087 02fa 18       		.uleb128 0x18
 1088 02fb 0C       		.uleb128 0xc
 1089 02fc 72313100 		.ascii	"r11\000"
 1090 0300 06       		.byte	0x6
 1091 0301 2601     		.2byte	0x126
 1092 0303 7E020000 		.4byte	0x27e
 1093 0307 02       		.byte	0x2
 1094 0308 23       		.byte	0x23
 1095 0309 1C       		.uleb128 0x1c
 1096 030a 0C       		.uleb128 0xc
 1097 030b 6C7200   		.ascii	"lr\000"
 1098 030e 06       		.byte	0x6
 1099 030f 2701     		.2byte	0x127
 1100 0311 7E020000 		.4byte	0x27e
 1101 0315 02       		.byte	0x2
 1102 0316 23       		.byte	0x23
 1103 0317 20       		.uleb128 0x20
 1104 0318 00       		.byte	0
 1105 0319 0B       		.uleb128 0xb
 1106 031a 64010000 		.4byte	.LASF46
 1107 031e 04       		.byte	0x4
 1108 031f 06       		.byte	0x6
 1109 0320 3101     		.2byte	0x131
 1110 0322 36030000 		.4byte	0x336
 1111 0326 0C       		.uleb128 0xc
 1112 0327 72313300 		.ascii	"r13\000"
 1113 032b 06       		.byte	0x6
 1114 032c 3201     		.2byte	0x132
 1115 032e 36030000 		.4byte	0x336
 1116 0332 02       		.byte	0x2
 1117 0333 23       		.byte	0x23
 1118 0334 00       		.uleb128 0
 1119 0335 00       		.byte	0
 1120 0336 09       		.uleb128 0x9
 1121 0337 04       		.byte	0x4
 1122 0338 8B020000 		.4byte	0x28b
 1123 033c 03       		.uleb128 0x3
 1124 033d 04       		.byte	0x4
 1125 033e 07       		.byte	0x7
 1126 033f C6010000 		.4byte	.LASF47
 1127 0343 0D       		.uleb128 0xd
 1128 0344 E0000000 		.4byte	0xe0
ARM GAS  C:\Users\srich\AppData\Local\Temp\ccF0kN28.s 			page 21


 1129 0348 05       		.uleb128 0x5
 1130 0349 4D030000 		.4byte	.LASF48
 1131 034d 0C       		.byte	0xc
 1132 034e 07       		.byte	0x7
 1133 034f 2C       		.byte	0x2c
 1134 0350 71030000 		.4byte	0x371
 1135 0354 06       		.uleb128 0x6
 1136 0355 02010000 		.4byte	.LASF49
 1137 0359 07       		.byte	0x7
 1138 035a 2D       		.byte	0x2d
 1139 035b 51020000 		.4byte	0x251
 1140 035f 02       		.byte	0x2
 1141 0360 23       		.byte	0x23
 1142 0361 00       		.uleb128 0
 1143 0362 06       		.uleb128 0x6
 1144 0363 5E010000 		.4byte	.LASF50
 1145 0367 07       		.byte	0x7
 1146 0368 2F       		.byte	0x2f
 1147 0369 EB000000 		.4byte	0xeb
 1148 036d 02       		.byte	0x2
 1149 036e 23       		.byte	0x23
 1150 036f 08       		.uleb128 0x8
 1151 0370 00       		.byte	0
 1152 0371 04       		.uleb128 0x4
 1153 0372 4D030000 		.4byte	.LASF48
 1154 0376 07       		.byte	0x7
 1155 0377 30       		.byte	0x30
 1156 0378 48030000 		.4byte	0x348
 1157 037c 05       		.uleb128 0x5
 1158 037d BB010000 		.4byte	.LASF51
 1159 0381 10       		.byte	0x10
 1160 0382 08       		.byte	0x8
 1161 0383 2C       		.byte	0x2c
 1162 0384 B3030000 		.4byte	0x3b3
 1163 0388 06       		.uleb128 0x6
 1164 0389 A6000000 		.4byte	.LASF52
 1165 038d 08       		.byte	0x8
 1166 038e 2D       		.byte	0x2d
 1167 038f 51020000 		.4byte	0x251
 1168 0393 02       		.byte	0x2
 1169 0394 23       		.byte	0x23
 1170 0395 00       		.uleb128 0
 1171 0396 06       		.uleb128 0x6
 1172 0397 8B030000 		.4byte	.LASF53
 1173 039b 08       		.byte	0x8
 1174 039c 2F       		.byte	0x2f
 1175 039d 4B020000 		.4byte	0x24b
 1176 03a1 02       		.byte	0x2
 1177 03a2 23       		.byte	0x23
 1178 03a3 08       		.uleb128 0x8
 1179 03a4 06       		.uleb128 0x6
 1180 03a5 00030000 		.4byte	.LASF54
 1181 03a9 08       		.byte	0x8
 1182 03aa 31       		.byte	0x31
 1183 03ab B3030000 		.4byte	0x3b3
 1184 03af 02       		.byte	0x2
 1185 03b0 23       		.byte	0x23
ARM GAS  C:\Users\srich\AppData\Local\Temp\ccF0kN28.s 			page 22


 1186 03b1 0C       		.uleb128 0xc
 1187 03b2 00       		.byte	0
 1188 03b3 09       		.uleb128 0x9
 1189 03b4 04       		.byte	0x4
 1190 03b5 7C030000 		.4byte	0x37c
 1191 03b9 04       		.uleb128 0x4
 1192 03ba BB010000 		.4byte	.LASF51
 1193 03be 08       		.byte	0x8
 1194 03bf 33       		.byte	0x33
 1195 03c0 7C030000 		.4byte	0x37c
 1196 03c4 08       		.uleb128 0x8
 1197 03c5 28       		.byte	0x28
 1198 03c6 09       		.byte	0x9
 1199 03c7 33       		.byte	0x33
 1200 03c8 21040000 		.4byte	0x421
 1201 03cc 06       		.uleb128 0x6
 1202 03cd 40020000 		.4byte	.LASF55
 1203 03d1 09       		.byte	0x9
 1204 03d2 34       		.byte	0x34
 1205 03d3 21040000 		.4byte	0x421
 1206 03d7 02       		.byte	0x2
 1207 03d8 23       		.byte	0x23
 1208 03d9 00       		.uleb128 0
 1209 03da 06       		.uleb128 0x6
 1210 03db 82020000 		.4byte	.LASF56
 1211 03df 09       		.byte	0x9
 1212 03e0 36       		.byte	0x36
 1213 03e1 21040000 		.4byte	0x421
 1214 03e5 02       		.byte	0x2
 1215 03e6 23       		.byte	0x23
 1216 03e7 04       		.uleb128 0x4
 1217 03e8 06       		.uleb128 0x6
 1218 03e9 74000000 		.4byte	.LASF57
 1219 03ed 09       		.byte	0x9
 1220 03ee 38       		.byte	0x38
 1221 03ef 21040000 		.4byte	0x421
 1222 03f3 02       		.byte	0x2
 1223 03f4 23       		.byte	0x23
 1224 03f5 08       		.uleb128 0x8
 1225 03f6 06       		.uleb128 0x6
 1226 03f7 CF010000 		.4byte	.LASF58
 1227 03fb 09       		.byte	0x9
 1228 03fc 39       		.byte	0x39
 1229 03fd 21040000 		.4byte	0x421
 1230 0401 02       		.byte	0x2
 1231 0402 23       		.byte	0x23
 1232 0403 0C       		.uleb128 0xc
 1233 0404 06       		.uleb128 0x6
 1234 0405 57030000 		.4byte	.LASF59
 1235 0409 09       		.byte	0x9
 1236 040a 3A       		.byte	0x3a
 1237 040b 71030000 		.4byte	0x371
 1238 040f 02       		.byte	0x2
 1239 0410 23       		.byte	0x23
 1240 0411 10       		.uleb128 0x10
 1241 0412 06       		.uleb128 0x6
 1242 0413 52010000 		.4byte	.LASF60
ARM GAS  C:\Users\srich\AppData\Local\Temp\ccF0kN28.s 			page 23


 1243 0417 09       		.byte	0x9
 1244 0418 3C       		.byte	0x3c
 1245 0419 71030000 		.4byte	0x371
 1246 041d 02       		.byte	0x2
 1247 041e 23       		.byte	0x23
 1248 041f 1C       		.uleb128 0x1c
 1249 0420 00       		.byte	0
 1250 0421 09       		.uleb128 0x9
 1251 0422 04       		.byte	0x4
 1252 0423 CA000000 		.4byte	0xca
 1253 0427 04       		.uleb128 0x4
 1254 0428 2E000000 		.4byte	.LASF61
 1255 042c 09       		.byte	0x9
 1256 042d 3E       		.byte	0x3e
 1257 042e C4030000 		.4byte	0x3c4
 1258 0432 0E       		.uleb128 0xe
 1259 0433 04       		.byte	0x4
 1260 0434 05       		.byte	0x5
 1261 0435 96       		.byte	0x96
 1262 0436 67040000 		.4byte	0x467
 1263 043a 0F       		.uleb128 0xf
 1264 043b 13000000 		.4byte	.LASF62
 1265 043f 05       		.byte	0x5
 1266 0440 9D       		.byte	0x9d
 1267 0441 CA000000 		.4byte	0xca
 1268 0445 0F       		.uleb128 0xf
 1269 0446 5C000000 		.4byte	.LASF63
 1270 044a 05       		.byte	0x5
 1271 044b A4       		.byte	0xa4
 1272 044c CA000000 		.4byte	0xca
 1273 0450 0F       		.uleb128 0xf
 1274 0451 7D030000 		.4byte	.LASF64
 1275 0455 05       		.byte	0x5
 1276 0456 AB       		.byte	0xab
 1277 0457 89020000 		.4byte	0x289
 1278 045b 0F       		.uleb128 0xf
 1279 045c AF020000 		.4byte	.LASF65
 1280 0460 05       		.byte	0x5
 1281 0461 B2       		.byte	0xb2
 1282 0462 D5000000 		.4byte	0xd5
 1283 0466 00       		.byte	0
 1284 0467 09       		.uleb128 0x9
 1285 0468 04       		.byte	0x4
 1286 0469 6D040000 		.4byte	0x46d
 1287 046d 10       		.uleb128 0x10
 1288 046e 72040000 		.4byte	0x472
 1289 0472 03       		.uleb128 0x3
 1290 0473 01       		.byte	0x1
 1291 0474 08       		.byte	0x8
 1292 0475 E9020000 		.4byte	.LASF66
 1293 0479 09       		.uleb128 0x9
 1294 047a 04       		.byte	0x4
 1295 047b B9030000 		.4byte	0x3b9
 1296 047f 11       		.uleb128 0x11
 1297 0480 01       		.byte	0x1
 1298 0481 37010000 		.4byte	.LASF67
 1299 0485 01       		.byte	0x1
ARM GAS  C:\Users\srich\AppData\Local\Temp\ccF0kN28.s 			page 24


 1300 0486 48       		.byte	0x48
 1301 0487 01       		.byte	0x1
 1302 0488 00000000 		.4byte	.LFB7
 1303 048c 2A000000 		.4byte	.LFE7
 1304 0490 00000000 		.4byte	.LLST0
 1305 0494 01       		.byte	0x1
 1306 0495 F6040000 		.4byte	0x4f6
 1307 0499 12       		.uleb128 0x12
 1308 049a 6D627000 		.ascii	"mbp\000"
 1309 049e 01       		.byte	0x1
 1310 049f 48       		.byte	0x48
 1311 04a0 F6040000 		.4byte	0x4f6
 1312 04a4 20000000 		.4byte	.LLST1
 1313 04a8 12       		.uleb128 0x12
 1314 04a9 62756600 		.ascii	"buf\000"
 1315 04ad 01       		.byte	0x1
 1316 04ae 48       		.byte	0x48
 1317 04af 21040000 		.4byte	0x421
 1318 04b3 3E000000 		.4byte	.LLST2
 1319 04b7 12       		.uleb128 0x12
 1320 04b8 6E00     		.ascii	"n\000"
 1321 04ba 01       		.byte	0x1
 1322 04bb 48       		.byte	0x48
 1323 04bc EB000000 		.4byte	0xeb
 1324 04c0 6A000000 		.4byte	.LLST3
 1325 04c4 13       		.uleb128 0x13
 1326 04c5 1C000000 		.4byte	.LVL3
 1327 04c9 630A0000 		.4byte	0xa63
 1328 04cd DF040000 		.4byte	0x4df
 1329 04d1 14       		.uleb128 0x14
 1330 04d2 01       		.byte	0x1
 1331 04d3 51       		.byte	0x51
 1332 04d4 03       		.byte	0x3
 1333 04d5 F3       		.byte	0xf3
 1334 04d6 01       		.uleb128 0x1
 1335 04d7 52       		.byte	0x52
 1336 04d8 14       		.uleb128 0x14
 1337 04d9 01       		.byte	0x1
 1338 04da 50       		.byte	0x50
 1339 04db 02       		.byte	0x2
 1340 04dc 74       		.byte	0x74
 1341 04dd 1C       		.sleb128 28
 1342 04de 00       		.byte	0
 1343 04df 15       		.uleb128 0x15
 1344 04e0 2A000000 		.4byte	.LVL4
 1345 04e4 01       		.byte	0x1
 1346 04e5 630A0000 		.4byte	0xa63
 1347 04e9 14       		.uleb128 0x14
 1348 04ea 01       		.byte	0x1
 1349 04eb 51       		.byte	0x51
 1350 04ec 01       		.byte	0x1
 1351 04ed 30       		.byte	0x30
 1352 04ee 14       		.uleb128 0x14
 1353 04ef 01       		.byte	0x1
 1354 04f0 50       		.byte	0x50
 1355 04f1 02       		.byte	0x2
 1356 04f2 74       		.byte	0x74
ARM GAS  C:\Users\srich\AppData\Local\Temp\ccF0kN28.s 			page 25


 1357 04f3 10       		.sleb128 16
 1358 04f4 00       		.byte	0
 1359 04f5 00       		.byte	0
 1360 04f6 09       		.uleb128 0x9
 1361 04f7 04       		.byte	0x4
 1362 04f8 27040000 		.4byte	0x427
 1363 04fc 11       		.uleb128 0x11
 1364 04fd 01       		.byte	0x1
 1365 04fe D8010000 		.4byte	.LASF68
 1366 0502 01       		.byte	0x1
 1367 0503 5B       		.byte	0x5b
 1368 0504 01       		.byte	0x1
 1369 0505 00000000 		.4byte	.LFB8
 1370 0509 34000000 		.4byte	.LFE8
 1371 050d 8B000000 		.4byte	.LLST4
 1372 0511 01       		.byte	0x1
 1373 0512 92050000 		.4byte	0x592
 1374 0516 12       		.uleb128 0x12
 1375 0517 6D627000 		.ascii	"mbp\000"
 1376 051b 01       		.byte	0x1
 1377 051c 5B       		.byte	0x5b
 1378 051d F6040000 		.4byte	0x4f6
 1379 0521 AB000000 		.4byte	.LLST5
 1380 0525 16       		.uleb128 0x16
 1381 0526 00000000 		.4byte	.Ldebug_ranges0+0
 1382 052a 3E050000 		.4byte	0x53e
 1383 052e 17       		.uleb128 0x17
 1384 052f 746D7000 		.ascii	"tmp\000"
 1385 0533 01       		.byte	0x1
 1386 0534 5F       		.byte	0x5f
 1387 0535 6C000000 		.4byte	0x6c
 1388 0539 C9000000 		.4byte	.LLST6
 1389 053d 00       		.byte	0
 1390 053e 18       		.uleb128 0x18
 1391 053f 2C000000 		.4byte	.LBB4
 1392 0543 34000000 		.4byte	.LBE4
 1393 0547 5B050000 		.4byte	0x55b
 1394 054b 17       		.uleb128 0x17
 1395 054c 746D7000 		.ascii	"tmp\000"
 1396 0550 01       		.byte	0x1
 1397 0551 64       		.byte	0x64
 1398 0552 6C000000 		.4byte	0x6c
 1399 0556 DC000000 		.4byte	.LLST7
 1400 055a 00       		.byte	0
 1401 055b 13       		.uleb128 0x13
 1402 055c 1E000000 		.4byte	.LVL10
 1403 0560 820A0000 		.4byte	0xa82
 1404 0564 6F050000 		.4byte	0x56f
 1405 0568 14       		.uleb128 0x14
 1406 0569 01       		.byte	0x1
 1407 056a 50       		.byte	0x50
 1408 056b 02       		.byte	0x2
 1409 056c 74       		.byte	0x74
 1410 056d 1C       		.sleb128 28
 1411 056e 00       		.byte	0
 1412 056f 13       		.uleb128 0x13
 1413 0570 28000000 		.4byte	.LVL11
ARM GAS  C:\Users\srich\AppData\Local\Temp\ccF0kN28.s 			page 26


 1414 0574 820A0000 		.4byte	0xa82
 1415 0578 88050000 		.4byte	0x588
 1416 057c 14       		.uleb128 0x14
 1417 057d 01       		.byte	0x1
 1418 057e 51       		.byte	0x51
 1419 057f 01       		.byte	0x1
 1420 0580 30       		.byte	0x30
 1421 0581 14       		.uleb128 0x14
 1422 0582 01       		.byte	0x1
 1423 0583 50       		.byte	0x50
 1424 0584 02       		.byte	0x2
 1425 0585 74       		.byte	0x74
 1426 0586 10       		.sleb128 16
 1427 0587 00       		.byte	0
 1428 0588 19       		.uleb128 0x19
 1429 0589 2C000000 		.4byte	.LVL12
 1430 058d 9B0A0000 		.4byte	0xa9b
 1431 0591 00       		.byte	0
 1432 0592 1A       		.uleb128 0x1a
 1433 0593 01       		.byte	0x1
 1434 0594 24000000 		.4byte	.LASF70
 1435 0598 01       		.byte	0x1
 1436 0599 96       		.byte	0x96
 1437 059a 01       		.byte	0x1
 1438 059b CA000000 		.4byte	0xca
 1439 059f 00000000 		.4byte	.LFB10
 1440 05a3 38000000 		.4byte	.LFE10
 1441 05a7 EF000000 		.4byte	.LLST8
 1442 05ab 01       		.byte	0x1
 1443 05ac 25060000 		.4byte	0x625
 1444 05b0 12       		.uleb128 0x12
 1445 05b1 6D627000 		.ascii	"mbp\000"
 1446 05b5 01       		.byte	0x1
 1447 05b6 96       		.byte	0x96
 1448 05b7 F6040000 		.4byte	0x4f6
 1449 05bb 0F010000 		.4byte	.LLST9
 1450 05bf 12       		.uleb128 0x12
 1451 05c0 6D736700 		.ascii	"msg\000"
 1452 05c4 01       		.byte	0x1
 1453 05c5 96       		.byte	0x96
 1454 05c6 CA000000 		.4byte	0xca
 1455 05ca 2D010000 		.4byte	.LLST10
 1456 05ce 1B       		.uleb128 0x1b
 1457 05cf 4A020000 		.4byte	.LASF69
 1458 05d3 01       		.byte	0x1
 1459 05d4 96       		.byte	0x96
 1460 05d5 E0000000 		.4byte	0xe0
 1461 05d9 4B010000 		.4byte	.LLST11
 1462 05dd 1C       		.uleb128 0x1c
 1463 05de 13000000 		.4byte	.LASF62
 1464 05e2 01       		.byte	0x1
 1465 05e3 97       		.byte	0x97
 1466 05e4 CA000000 		.4byte	0xca
 1467 05e8 6C010000 		.4byte	.LLST12
 1468 05ec 13       		.uleb128 0x13
 1469 05ed 10000000 		.4byte	.LVL18
 1470 05f1 A50A0000 		.4byte	0xaa5
ARM GAS  C:\Users\srich\AppData\Local\Temp\ccF0kN28.s 			page 27


 1471 05f5 07060000 		.4byte	0x607
 1472 05f9 14       		.uleb128 0x14
 1473 05fa 01       		.byte	0x1
 1474 05fb 51       		.byte	0x51
 1475 05fc 03       		.byte	0x3
 1476 05fd F3       		.byte	0xf3
 1477 05fe 01       		.uleb128 0x1
 1478 05ff 52       		.byte	0x52
 1479 0600 14       		.uleb128 0x14
 1480 0601 01       		.byte	0x1
 1481 0602 50       		.byte	0x50
 1482 0603 02       		.byte	0x2
 1483 0604 74       		.byte	0x74
 1484 0605 1C       		.sleb128 28
 1485 0606 00       		.byte	0
 1486 0607 13       		.uleb128 0x13
 1487 0608 30000000 		.4byte	.LVL20
 1488 060c C20A0000 		.4byte	0xac2
 1489 0610 1B060000 		.4byte	0x61b
 1490 0614 14       		.uleb128 0x14
 1491 0615 01       		.byte	0x1
 1492 0616 50       		.byte	0x50
 1493 0617 02       		.byte	0x2
 1494 0618 74       		.byte	0x74
 1495 0619 10       		.sleb128 16
 1496 061a 00       		.byte	0
 1497 061b 19       		.uleb128 0x19
 1498 061c 34000000 		.4byte	.LVL21
 1499 0620 9B0A0000 		.4byte	0xa9b
 1500 0624 00       		.byte	0
 1501 0625 1A       		.uleb128 0x1a
 1502 0626 01       		.byte	0x1
 1503 0627 C5020000 		.4byte	.LASF71
 1504 062b 01       		.byte	0x1
 1505 062c 7A       		.byte	0x7a
 1506 062d 01       		.byte	0x1
 1507 062e CA000000 		.4byte	0xca
 1508 0632 00000000 		.4byte	.LFB9
 1509 0636 14000000 		.4byte	.LFE9
 1510 063a 8A010000 		.4byte	.LLST13
 1511 063e 01       		.byte	0x1
 1512 063f D7060000 		.4byte	0x6d7
 1513 0643 12       		.uleb128 0x12
 1514 0644 6D627000 		.ascii	"mbp\000"
 1515 0648 01       		.byte	0x1
 1516 0649 7A       		.byte	0x7a
 1517 064a F6040000 		.4byte	0x4f6
 1518 064e AA010000 		.4byte	.LLST14
 1519 0652 12       		.uleb128 0x12
 1520 0653 6D736700 		.ascii	"msg\000"
 1521 0657 01       		.byte	0x1
 1522 0658 7A       		.byte	0x7a
 1523 0659 CA000000 		.4byte	0xca
 1524 065d CB010000 		.4byte	.LLST15
 1525 0661 1B       		.uleb128 0x1b
 1526 0662 4A020000 		.4byte	.LASF69
 1527 0666 01       		.byte	0x1
ARM GAS  C:\Users\srich\AppData\Local\Temp\ccF0kN28.s 			page 28


 1528 0667 7A       		.byte	0x7a
 1529 0668 E0000000 		.4byte	0xe0
 1530 066c EC010000 		.4byte	.LLST16
 1531 0670 1D       		.uleb128 0x1d
 1532 0671 13000000 		.4byte	.LASF62
 1533 0675 01       		.byte	0x1
 1534 0676 7B       		.byte	0x7b
 1535 0677 CA000000 		.4byte	0xca
 1536 067b 01       		.byte	0x1
 1537 067c 50       		.byte	0x50
 1538 067d 18       		.uleb128 0x18
 1539 067e 02000000 		.4byte	.LBB5
 1540 0682 08000000 		.4byte	.LBE5
 1541 0686 9A060000 		.4byte	0x69a
 1542 068a 17       		.uleb128 0x17
 1543 068b 746D7000 		.ascii	"tmp\000"
 1544 068f 01       		.byte	0x1
 1545 0690 7D       		.byte	0x7d
 1546 0691 6C000000 		.4byte	0x6c
 1547 0695 0D020000 		.4byte	.LLST17
 1548 0699 00       		.byte	0
 1549 069a 18       		.uleb128 0x18
 1550 069b 0C000000 		.4byte	.LBB6
 1551 069f 12000000 		.4byte	.LBE6
 1552 06a3 B7060000 		.4byte	0x6b7
 1553 06a7 17       		.uleb128 0x17
 1554 06a8 746D7000 		.ascii	"tmp\000"
 1555 06ac 01       		.byte	0x1
 1556 06ad 7F       		.byte	0x7f
 1557 06ae 6C000000 		.4byte	0x6c
 1558 06b2 20020000 		.4byte	.LLST18
 1559 06b6 00       		.byte	0
 1560 06b7 1E       		.uleb128 0x1e
 1561 06b8 0C000000 		.4byte	.LVL25
 1562 06bc 92050000 		.4byte	0x592
 1563 06c0 14       		.uleb128 0x14
 1564 06c1 01       		.byte	0x1
 1565 06c2 52       		.byte	0x52
 1566 06c3 03       		.byte	0x3
 1567 06c4 F3       		.byte	0xf3
 1568 06c5 01       		.uleb128 0x1
 1569 06c6 52       		.byte	0x52
 1570 06c7 14       		.uleb128 0x14
 1571 06c8 01       		.byte	0x1
 1572 06c9 51       		.byte	0x51
 1573 06ca 03       		.byte	0x3
 1574 06cb F3       		.byte	0xf3
 1575 06cc 01       		.uleb128 0x1
 1576 06cd 51       		.byte	0x51
 1577 06ce 14       		.uleb128 0x14
 1578 06cf 01       		.byte	0x1
 1579 06d0 50       		.byte	0x50
 1580 06d1 03       		.byte	0x3
 1581 06d2 F3       		.byte	0xf3
 1582 06d3 01       		.uleb128 0x1
 1583 06d4 50       		.byte	0x50
 1584 06d5 00       		.byte	0
ARM GAS  C:\Users\srich\AppData\Local\Temp\ccF0kN28.s 			page 29


 1585 06d6 00       		.byte	0
 1586 06d7 1A       		.uleb128 0x1a
 1587 06d8 01       		.byte	0x1
 1588 06d9 1A000000 		.4byte	.LASF72
 1589 06dd 01       		.byte	0x1
 1590 06de B5       		.byte	0xb5
 1591 06df 01       		.byte	0x1
 1592 06e0 CA000000 		.4byte	0xca
 1593 06e4 00000000 		.4byte	.LFB11
 1594 06e8 2E000000 		.4byte	.LFE11
 1595 06ec 33020000 		.4byte	.LLST19
 1596 06f0 01       		.byte	0x1
 1597 06f1 27070000 		.4byte	0x727
 1598 06f5 12       		.uleb128 0x12
 1599 06f6 6D627000 		.ascii	"mbp\000"
 1600 06fa 01       		.byte	0x1
 1601 06fb B5       		.byte	0xb5
 1602 06fc F6040000 		.4byte	0x4f6
 1603 0700 53020000 		.4byte	.LLST20
 1604 0704 12       		.uleb128 0x12
 1605 0705 6D736700 		.ascii	"msg\000"
 1606 0709 01       		.byte	0x1
 1607 070a B5       		.byte	0xb5
 1608 070b CA000000 		.4byte	0xca
 1609 070f 9A020000 		.4byte	.LLST21
 1610 0713 1E       		.uleb128 0x1e
 1611 0714 24000000 		.4byte	.LVL30
 1612 0718 C20A0000 		.4byte	0xac2
 1613 071c 14       		.uleb128 0x14
 1614 071d 01       		.byte	0x1
 1615 071e 50       		.byte	0x50
 1616 071f 05       		.byte	0x5
 1617 0720 F3       		.byte	0xf3
 1618 0721 01       		.uleb128 0x1
 1619 0722 50       		.byte	0x50
 1620 0723 23       		.byte	0x23
 1621 0724 10       		.uleb128 0x10
 1622 0725 00       		.byte	0
 1623 0726 00       		.byte	0
 1624 0727 1A       		.uleb128 0x1a
 1625 0728 01       		.byte	0x1
 1626 0729 65000000 		.4byte	.LASF73
 1627 072d 01       		.byte	0x1
 1628 072e F3       		.byte	0xf3
 1629 072f 01       		.byte	0x1
 1630 0730 CA000000 		.4byte	0xca
 1631 0734 00000000 		.4byte	.LFB13
 1632 0738 3A000000 		.4byte	.LFE13
 1633 073c C6020000 		.4byte	.LLST22
 1634 0740 01       		.byte	0x1
 1635 0741 BA070000 		.4byte	0x7ba
 1636 0745 12       		.uleb128 0x12
 1637 0746 6D627000 		.ascii	"mbp\000"
 1638 074a 01       		.byte	0x1
 1639 074b F3       		.byte	0xf3
 1640 074c F6040000 		.4byte	0x4f6
 1641 0750 E6020000 		.4byte	.LLST23
ARM GAS  C:\Users\srich\AppData\Local\Temp\ccF0kN28.s 			page 30


 1642 0754 12       		.uleb128 0x12
 1643 0755 6D736700 		.ascii	"msg\000"
 1644 0759 01       		.byte	0x1
 1645 075a F3       		.byte	0xf3
 1646 075b CA000000 		.4byte	0xca
 1647 075f 04030000 		.4byte	.LLST24
 1648 0763 1B       		.uleb128 0x1b
 1649 0764 4A020000 		.4byte	.LASF69
 1650 0768 01       		.byte	0x1
 1651 0769 F3       		.byte	0xf3
 1652 076a E0000000 		.4byte	0xe0
 1653 076e 22030000 		.4byte	.LLST25
 1654 0772 1C       		.uleb128 0x1c
 1655 0773 13000000 		.4byte	.LASF62
 1656 0777 01       		.byte	0x1
 1657 0778 F4       		.byte	0xf4
 1658 0779 CA000000 		.4byte	0xca
 1659 077d 43030000 		.4byte	.LLST26
 1660 0781 13       		.uleb128 0x13
 1661 0782 10000000 		.4byte	.LVL36
 1662 0786 A50A0000 		.4byte	0xaa5
 1663 078a 9C070000 		.4byte	0x79c
 1664 078e 14       		.uleb128 0x14
 1665 078f 01       		.byte	0x1
 1666 0790 51       		.byte	0x51
 1667 0791 03       		.byte	0x3
 1668 0792 F3       		.byte	0xf3
 1669 0793 01       		.uleb128 0x1
 1670 0794 52       		.byte	0x52
 1671 0795 14       		.uleb128 0x14
 1672 0796 01       		.byte	0x1
 1673 0797 50       		.byte	0x50
 1674 0798 02       		.byte	0x2
 1675 0799 74       		.byte	0x74
 1676 079a 1C       		.sleb128 28
 1677 079b 00       		.byte	0
 1678 079c 13       		.uleb128 0x13
 1679 079d 2A000000 		.4byte	.LVL38
 1680 07a1 C20A0000 		.4byte	0xac2
 1681 07a5 B0070000 		.4byte	0x7b0
 1682 07a9 14       		.uleb128 0x14
 1683 07aa 01       		.byte	0x1
 1684 07ab 50       		.byte	0x50
 1685 07ac 02       		.byte	0x2
 1686 07ad 74       		.byte	0x74
 1687 07ae 10       		.sleb128 16
 1688 07af 00       		.byte	0
 1689 07b0 19       		.uleb128 0x19
 1690 07b1 2E000000 		.4byte	.LVL39
 1691 07b5 9B0A0000 		.4byte	0xa9b
 1692 07b9 00       		.byte	0
 1693 07ba 1A       		.uleb128 0x1a
 1694 07bb 01       		.byte	0x1
 1695 07bc 23030000 		.4byte	.LASF74
 1696 07c0 01       		.byte	0x1
 1697 07c1 D7       		.byte	0xd7
 1698 07c2 01       		.byte	0x1
ARM GAS  C:\Users\srich\AppData\Local\Temp\ccF0kN28.s 			page 31


 1699 07c3 CA000000 		.4byte	0xca
 1700 07c7 00000000 		.4byte	.LFB12
 1701 07cb 14000000 		.4byte	.LFE12
 1702 07cf 77030000 		.4byte	.LLST27
 1703 07d3 01       		.byte	0x1
 1704 07d4 6C080000 		.4byte	0x86c
 1705 07d8 12       		.uleb128 0x12
 1706 07d9 6D627000 		.ascii	"mbp\000"
 1707 07dd 01       		.byte	0x1
 1708 07de D7       		.byte	0xd7
 1709 07df F6040000 		.4byte	0x4f6
 1710 07e3 97030000 		.4byte	.LLST28
 1711 07e7 12       		.uleb128 0x12
 1712 07e8 6D736700 		.ascii	"msg\000"
 1713 07ec 01       		.byte	0x1
 1714 07ed D7       		.byte	0xd7
 1715 07ee CA000000 		.4byte	0xca
 1716 07f2 B8030000 		.4byte	.LLST29
 1717 07f6 1B       		.uleb128 0x1b
 1718 07f7 4A020000 		.4byte	.LASF69
 1719 07fb 01       		.byte	0x1
 1720 07fc D7       		.byte	0xd7
 1721 07fd E0000000 		.4byte	0xe0
 1722 0801 D9030000 		.4byte	.LLST30
 1723 0805 1D       		.uleb128 0x1d
 1724 0806 13000000 		.4byte	.LASF62
 1725 080a 01       		.byte	0x1
 1726 080b D8       		.byte	0xd8
 1727 080c CA000000 		.4byte	0xca
 1728 0810 01       		.byte	0x1
 1729 0811 50       		.byte	0x50
 1730 0812 18       		.uleb128 0x18
 1731 0813 02000000 		.4byte	.LBB7
 1732 0817 08000000 		.4byte	.LBE7
 1733 081b 2F080000 		.4byte	0x82f
 1734 081f 17       		.uleb128 0x17
 1735 0820 746D7000 		.ascii	"tmp\000"
 1736 0824 01       		.byte	0x1
 1737 0825 DA       		.byte	0xda
 1738 0826 6C000000 		.4byte	0x6c
 1739 082a FA030000 		.4byte	.LLST31
 1740 082e 00       		.byte	0
 1741 082f 18       		.uleb128 0x18
 1742 0830 0C000000 		.4byte	.LBB8
 1743 0834 12000000 		.4byte	.LBE8
 1744 0838 4C080000 		.4byte	0x84c
 1745 083c 17       		.uleb128 0x17
 1746 083d 746D7000 		.ascii	"tmp\000"
 1747 0841 01       		.byte	0x1
 1748 0842 DC       		.byte	0xdc
 1749 0843 6C000000 		.4byte	0x6c
 1750 0847 0D040000 		.4byte	.LLST32
 1751 084b 00       		.byte	0
 1752 084c 1E       		.uleb128 0x1e
 1753 084d 0C000000 		.4byte	.LVL45
 1754 0851 27070000 		.4byte	0x727
 1755 0855 14       		.uleb128 0x14
ARM GAS  C:\Users\srich\AppData\Local\Temp\ccF0kN28.s 			page 32


 1756 0856 01       		.byte	0x1
 1757 0857 52       		.byte	0x52
 1758 0858 03       		.byte	0x3
 1759 0859 F3       		.byte	0xf3
 1760 085a 01       		.uleb128 0x1
 1761 085b 52       		.byte	0x52
 1762 085c 14       		.uleb128 0x14
 1763 085d 01       		.byte	0x1
 1764 085e 51       		.byte	0x51
 1765 085f 03       		.byte	0x3
 1766 0860 F3       		.byte	0xf3
 1767 0861 01       		.uleb128 0x1
 1768 0862 51       		.byte	0x51
 1769 0863 14       		.uleb128 0x14
 1770 0864 01       		.byte	0x1
 1771 0865 50       		.byte	0x50
 1772 0866 03       		.byte	0x3
 1773 0867 F3       		.byte	0xf3
 1774 0868 01       		.uleb128 0x1
 1775 0869 50       		.byte	0x50
 1776 086a 00       		.byte	0
 1777 086b 00       		.byte	0
 1778 086c 1F       		.uleb128 0x1f
 1779 086d 01       		.byte	0x1
 1780 086e 36000000 		.4byte	.LASF75
 1781 0872 01       		.byte	0x1
 1782 0873 1201     		.2byte	0x112
 1783 0875 01       		.byte	0x1
 1784 0876 CA000000 		.4byte	0xca
 1785 087a 00000000 		.4byte	.LFB14
 1786 087e 30000000 		.4byte	.LFE14
 1787 0882 20040000 		.4byte	.LLST33
 1788 0886 01       		.byte	0x1
 1789 0887 BF080000 		.4byte	0x8bf
 1790 088b 20       		.uleb128 0x20
 1791 088c 6D627000 		.ascii	"mbp\000"
 1792 0890 01       		.byte	0x1
 1793 0891 1201     		.2byte	0x112
 1794 0893 F6040000 		.4byte	0x4f6
 1795 0897 40040000 		.4byte	.LLST34
 1796 089b 20       		.uleb128 0x20
 1797 089c 6D736700 		.ascii	"msg\000"
 1798 08a0 01       		.byte	0x1
 1799 08a1 1201     		.2byte	0x112
 1800 08a3 CA000000 		.4byte	0xca
 1801 08a7 87040000 		.4byte	.LLST35
 1802 08ab 1E       		.uleb128 0x1e
 1803 08ac 26000000 		.4byte	.LVL50
 1804 08b0 C20A0000 		.4byte	0xac2
 1805 08b4 14       		.uleb128 0x14
 1806 08b5 01       		.byte	0x1
 1807 08b6 50       		.byte	0x50
 1808 08b7 05       		.byte	0x5
 1809 08b8 F3       		.byte	0xf3
 1810 08b9 01       		.uleb128 0x1
 1811 08ba 50       		.byte	0x50
 1812 08bb 23       		.byte	0x23
ARM GAS  C:\Users\srich\AppData\Local\Temp\ccF0kN28.s 			page 33


 1813 08bc 10       		.uleb128 0x10
 1814 08bd 00       		.byte	0
 1815 08be 00       		.byte	0
 1816 08bf 1F       		.uleb128 0x1f
 1817 08c0 01       		.byte	0x1
 1818 08c1 90010000 		.4byte	.LASF76
 1819 08c5 01       		.byte	0x1
 1820 08c6 5001     		.2byte	0x150
 1821 08c8 01       		.byte	0x1
 1822 08c9 CA000000 		.4byte	0xca
 1823 08cd 00000000 		.4byte	.LFB16
 1824 08d1 3A000000 		.4byte	.LFE16
 1825 08d5 B3040000 		.4byte	.LLST36
 1826 08d9 01       		.byte	0x1
 1827 08da 57090000 		.4byte	0x957
 1828 08de 20       		.uleb128 0x20
 1829 08df 6D627000 		.ascii	"mbp\000"
 1830 08e3 01       		.byte	0x1
 1831 08e4 5001     		.2byte	0x150
 1832 08e6 F6040000 		.4byte	0x4f6
 1833 08ea D3040000 		.4byte	.LLST37
 1834 08ee 21       		.uleb128 0x21
 1835 08ef C1010000 		.4byte	.LASF77
 1836 08f3 01       		.byte	0x1
 1837 08f4 5001     		.2byte	0x150
 1838 08f6 21040000 		.4byte	0x421
 1839 08fa F1040000 		.4byte	.LLST38
 1840 08fe 21       		.uleb128 0x21
 1841 08ff 4A020000 		.4byte	.LASF69
 1842 0903 01       		.byte	0x1
 1843 0904 5001     		.2byte	0x150
 1844 0906 E0000000 		.4byte	0xe0
 1845 090a 0F050000 		.4byte	.LLST39
 1846 090e 22       		.uleb128 0x22
 1847 090f 13000000 		.4byte	.LASF62
 1848 0913 01       		.byte	0x1
 1849 0914 5101     		.2byte	0x151
 1850 0916 CA000000 		.4byte	0xca
 1851 091a 30050000 		.4byte	.LLST40
 1852 091e 13       		.uleb128 0x13
 1853 091f 10000000 		.4byte	.LVL56
 1854 0923 A50A0000 		.4byte	0xaa5
 1855 0927 39090000 		.4byte	0x939
 1856 092b 14       		.uleb128 0x14
 1857 092c 01       		.byte	0x1
 1858 092d 51       		.byte	0x51
 1859 092e 03       		.byte	0x3
 1860 092f F3       		.byte	0xf3
 1861 0930 01       		.uleb128 0x1
 1862 0931 52       		.byte	0x52
 1863 0932 14       		.uleb128 0x14
 1864 0933 01       		.byte	0x1
 1865 0934 50       		.byte	0x50
 1866 0935 02       		.byte	0x2
 1867 0936 74       		.byte	0x74
 1868 0937 10       		.sleb128 16
 1869 0938 00       		.byte	0
ARM GAS  C:\Users\srich\AppData\Local\Temp\ccF0kN28.s 			page 34


 1870 0939 13       		.uleb128 0x13
 1871 093a 32000000 		.4byte	.LVL58
 1872 093e C20A0000 		.4byte	0xac2
 1873 0942 4D090000 		.4byte	0x94d
 1874 0946 14       		.uleb128 0x14
 1875 0947 01       		.byte	0x1
 1876 0948 50       		.byte	0x50
 1877 0949 02       		.byte	0x2
 1878 094a 74       		.byte	0x74
 1879 094b 1C       		.sleb128 28
 1880 094c 00       		.byte	0
 1881 094d 19       		.uleb128 0x19
 1882 094e 36000000 		.4byte	.LVL59
 1883 0952 9B0A0000 		.4byte	0xa9b
 1884 0956 00       		.byte	0
 1885 0957 1F       		.uleb128 0x1f
 1886 0958 01       		.byte	0x1
 1887 0959 43030000 		.4byte	.LASF78
 1888 095d 01       		.byte	0x1
 1889 095e 3401     		.2byte	0x134
 1890 0960 01       		.byte	0x1
 1891 0961 CA000000 		.4byte	0xca
 1892 0965 00000000 		.4byte	.LFB15
 1893 0969 14000000 		.4byte	.LFE15
 1894 096d 4E050000 		.4byte	.LLST41
 1895 0971 01       		.byte	0x1
 1896 0972 100A0000 		.4byte	0xa10
 1897 0976 20       		.uleb128 0x20
 1898 0977 6D627000 		.ascii	"mbp\000"
 1899 097b 01       		.byte	0x1
 1900 097c 3401     		.2byte	0x134
 1901 097e F6040000 		.4byte	0x4f6
 1902 0982 6E050000 		.4byte	.LLST42
 1903 0986 21       		.uleb128 0x21
 1904 0987 C1010000 		.4byte	.LASF77
 1905 098b 01       		.byte	0x1
 1906 098c 3401     		.2byte	0x134
 1907 098e 21040000 		.4byte	0x421
 1908 0992 8F050000 		.4byte	.LLST43
 1909 0996 21       		.uleb128 0x21
 1910 0997 4A020000 		.4byte	.LASF69
 1911 099b 01       		.byte	0x1
 1912 099c 3401     		.2byte	0x134
 1913 099e E0000000 		.4byte	0xe0
 1914 09a2 B0050000 		.4byte	.LLST44
 1915 09a6 23       		.uleb128 0x23
 1916 09a7 13000000 		.4byte	.LASF62
 1917 09ab 01       		.byte	0x1
 1918 09ac 3501     		.2byte	0x135
 1919 09ae CA000000 		.4byte	0xca
 1920 09b2 01       		.byte	0x1
 1921 09b3 50       		.byte	0x50
 1922 09b4 18       		.uleb128 0x18
 1923 09b5 02000000 		.4byte	.LBB9
 1924 09b9 08000000 		.4byte	.LBE9
 1925 09bd D2090000 		.4byte	0x9d2
 1926 09c1 24       		.uleb128 0x24
ARM GAS  C:\Users\srich\AppData\Local\Temp\ccF0kN28.s 			page 35


 1927 09c2 746D7000 		.ascii	"tmp\000"
 1928 09c6 01       		.byte	0x1
 1929 09c7 3701     		.2byte	0x137
 1930 09c9 6C000000 		.4byte	0x6c
 1931 09cd D1050000 		.4byte	.LLST45
 1932 09d1 00       		.byte	0
 1933 09d2 18       		.uleb128 0x18
 1934 09d3 0C000000 		.4byte	.LBB10
 1935 09d7 12000000 		.4byte	.LBE10
 1936 09db F0090000 		.4byte	0x9f0
 1937 09df 24       		.uleb128 0x24
 1938 09e0 746D7000 		.ascii	"tmp\000"
 1939 09e4 01       		.byte	0x1
 1940 09e5 3901     		.2byte	0x139
 1941 09e7 6C000000 		.4byte	0x6c
 1942 09eb E4050000 		.4byte	.LLST46
 1943 09ef 00       		.byte	0
 1944 09f0 1E       		.uleb128 0x1e
 1945 09f1 0C000000 		.4byte	.LVL63
 1946 09f5 BF080000 		.4byte	0x8bf
 1947 09f9 14       		.uleb128 0x14
 1948 09fa 01       		.byte	0x1
 1949 09fb 52       		.byte	0x52
 1950 09fc 03       		.byte	0x3
 1951 09fd F3       		.byte	0xf3
 1952 09fe 01       		.uleb128 0x1
 1953 09ff 52       		.byte	0x52
 1954 0a00 14       		.uleb128 0x14
 1955 0a01 01       		.byte	0x1
 1956 0a02 51       		.byte	0x51
 1957 0a03 03       		.byte	0x3
 1958 0a04 F3       		.byte	0xf3
 1959 0a05 01       		.uleb128 0x1
 1960 0a06 51       		.byte	0x51
 1961 0a07 14       		.uleb128 0x14
 1962 0a08 01       		.byte	0x1
 1963 0a09 50       		.byte	0x50
 1964 0a0a 03       		.byte	0x3
 1965 0a0b F3       		.byte	0xf3
 1966 0a0c 01       		.uleb128 0x1
 1967 0a0d 50       		.byte	0x50
 1968 0a0e 00       		.byte	0
 1969 0a0f 00       		.byte	0
 1970 0a10 1F       		.uleb128 0x1f
 1971 0a11 01       		.byte	0x1
 1972 0a12 7F010000 		.4byte	.LASF79
 1973 0a16 01       		.byte	0x1
 1974 0a17 6F01     		.2byte	0x16f
 1975 0a19 01       		.byte	0x1
 1976 0a1a CA000000 		.4byte	0xca
 1977 0a1e 00000000 		.4byte	.LFB17
 1978 0a22 30000000 		.4byte	.LFE17
 1979 0a26 F7050000 		.4byte	.LLST47
 1980 0a2a 01       		.byte	0x1
 1981 0a2b 630A0000 		.4byte	0xa63
 1982 0a2f 20       		.uleb128 0x20
 1983 0a30 6D627000 		.ascii	"mbp\000"
ARM GAS  C:\Users\srich\AppData\Local\Temp\ccF0kN28.s 			page 36


 1984 0a34 01       		.byte	0x1
 1985 0a35 6F01     		.2byte	0x16f
 1986 0a37 F6040000 		.4byte	0x4f6
 1987 0a3b 17060000 		.4byte	.LLST48
 1988 0a3f 21       		.uleb128 0x21
 1989 0a40 C1010000 		.4byte	.LASF77
 1990 0a44 01       		.byte	0x1
 1991 0a45 6F01     		.2byte	0x16f
 1992 0a47 21040000 		.4byte	0x421
 1993 0a4b 5E060000 		.4byte	.LLST49
 1994 0a4f 1E       		.uleb128 0x1e
 1995 0a50 26000000 		.4byte	.LVL68
 1996 0a54 C20A0000 		.4byte	0xac2
 1997 0a58 14       		.uleb128 0x14
 1998 0a59 01       		.byte	0x1
 1999 0a5a 50       		.byte	0x50
 2000 0a5b 05       		.byte	0x5
 2001 0a5c F3       		.byte	0xf3
 2002 0a5d 01       		.uleb128 0x1
 2003 0a5e 50       		.byte	0x50
 2004 0a5f 23       		.byte	0x23
 2005 0a60 1C       		.uleb128 0x1c
 2006 0a61 00       		.byte	0
 2007 0a62 00       		.byte	0
 2008 0a63 25       		.uleb128 0x25
 2009 0a64 01       		.byte	0x1
 2010 0a65 A3030000 		.4byte	.LASF80
 2011 0a69 07       		.byte	0x7
 2012 0a6a 35       		.byte	0x35
 2013 0a6b 01       		.byte	0x1
 2014 0a6c 01       		.byte	0x1
 2015 0a6d 7C0A0000 		.4byte	0xa7c
 2016 0a71 26       		.uleb128 0x26
 2017 0a72 7C0A0000 		.4byte	0xa7c
 2018 0a76 26       		.uleb128 0x26
 2019 0a77 EB000000 		.4byte	0xeb
 2020 0a7b 00       		.byte	0
 2021 0a7c 09       		.uleb128 0x9
 2022 0a7d 04       		.byte	0x4
 2023 0a7e 71030000 		.4byte	0x371
 2024 0a82 25       		.uleb128 0x25
 2025 0a83 01       		.byte	0x1
 2026 0a84 69030000 		.4byte	.LASF81
 2027 0a88 07       		.byte	0x7
 2028 0a89 37       		.byte	0x37
 2029 0a8a 01       		.byte	0x1
 2030 0a8b 01       		.byte	0x1
 2031 0a8c 9B0A0000 		.4byte	0xa9b
 2032 0a90 26       		.uleb128 0x26
 2033 0a91 7C0A0000 		.4byte	0xa7c
 2034 0a95 26       		.uleb128 0x26
 2035 0a96 EB000000 		.4byte	0xeb
 2036 0a9a 00       		.byte	0
 2037 0a9b 27       		.uleb128 0x27
 2038 0a9c 01       		.byte	0x1
 2039 0a9d 0A010000 		.4byte	.LASF84
 2040 0aa1 0A       		.byte	0xa
ARM GAS  C:\Users\srich\AppData\Local\Temp\ccF0kN28.s 			page 37


 2041 0aa2 9C       		.byte	0x9c
 2042 0aa3 01       		.byte	0x1
 2043 0aa4 01       		.byte	0x1
 2044 0aa5 28       		.uleb128 0x28
 2045 0aa6 01       		.byte	0x1
 2046 0aa7 EE020000 		.4byte	.LASF85
 2047 0aab 07       		.byte	0x7
 2048 0aac 3B       		.byte	0x3b
 2049 0aad 01       		.byte	0x1
 2050 0aae CA000000 		.4byte	0xca
 2051 0ab2 01       		.byte	0x1
 2052 0ab3 C20A0000 		.4byte	0xac2
 2053 0ab7 26       		.uleb128 0x26
 2054 0ab8 7C0A0000 		.4byte	0xa7c
 2055 0abc 26       		.uleb128 0x26
 2056 0abd E0000000 		.4byte	0xe0
 2057 0ac1 00       		.byte	0
 2058 0ac2 29       		.uleb128 0x29
 2059 0ac3 01       		.byte	0x1
 2060 0ac4 06000000 		.4byte	.LASF86
 2061 0ac8 07       		.byte	0x7
 2062 0ac9 3D       		.byte	0x3d
 2063 0aca 01       		.byte	0x1
 2064 0acb 01       		.byte	0x1
 2065 0acc 26       		.uleb128 0x26
 2066 0acd 7C0A0000 		.4byte	0xa7c
 2067 0ad1 00       		.byte	0
 2068 0ad2 00       		.byte	0
 2069              		.section	.debug_abbrev,"",%progbits
 2070              	.Ldebug_abbrev0:
 2071 0000 01       		.uleb128 0x1
 2072 0001 11       		.uleb128 0x11
 2073 0002 01       		.byte	0x1
 2074 0003 25       		.uleb128 0x25
 2075 0004 0E       		.uleb128 0xe
 2076 0005 13       		.uleb128 0x13
 2077 0006 0B       		.uleb128 0xb
 2078 0007 03       		.uleb128 0x3
 2079 0008 0E       		.uleb128 0xe
 2080 0009 55       		.uleb128 0x55
 2081 000a 06       		.uleb128 0x6
 2082 000b 11       		.uleb128 0x11
 2083 000c 01       		.uleb128 0x1
 2084 000d 52       		.uleb128 0x52
 2085 000e 01       		.uleb128 0x1
 2086 000f 10       		.uleb128 0x10
 2087 0010 06       		.uleb128 0x6
 2088 0011 00       		.byte	0
 2089 0012 00       		.byte	0
 2090 0013 02       		.uleb128 0x2
 2091 0014 24       		.uleb128 0x24
 2092 0015 00       		.byte	0
 2093 0016 0B       		.uleb128 0xb
 2094 0017 0B       		.uleb128 0xb
 2095 0018 3E       		.uleb128 0x3e
 2096 0019 0B       		.uleb128 0xb
 2097 001a 03       		.uleb128 0x3
ARM GAS  C:\Users\srich\AppData\Local\Temp\ccF0kN28.s 			page 38


 2098 001b 08       		.uleb128 0x8
 2099 001c 00       		.byte	0
 2100 001d 00       		.byte	0
 2101 001e 03       		.uleb128 0x3
 2102 001f 24       		.uleb128 0x24
 2103 0020 00       		.byte	0
 2104 0021 0B       		.uleb128 0xb
 2105 0022 0B       		.uleb128 0xb
 2106 0023 3E       		.uleb128 0x3e
 2107 0024 0B       		.uleb128 0xb
 2108 0025 03       		.uleb128 0x3
 2109 0026 0E       		.uleb128 0xe
 2110 0027 00       		.byte	0
 2111 0028 00       		.byte	0
 2112 0029 04       		.uleb128 0x4
 2113 002a 16       		.uleb128 0x16
 2114 002b 00       		.byte	0
 2115 002c 03       		.uleb128 0x3
 2116 002d 0E       		.uleb128 0xe
 2117 002e 3A       		.uleb128 0x3a
 2118 002f 0B       		.uleb128 0xb
 2119 0030 3B       		.uleb128 0x3b
 2120 0031 0B       		.uleb128 0xb
 2121 0032 49       		.uleb128 0x49
 2122 0033 13       		.uleb128 0x13
 2123 0034 00       		.byte	0
 2124 0035 00       		.byte	0
 2125 0036 05       		.uleb128 0x5
 2126 0037 13       		.uleb128 0x13
 2127 0038 01       		.byte	0x1
 2128 0039 03       		.uleb128 0x3
 2129 003a 0E       		.uleb128 0xe
 2130 003b 0B       		.uleb128 0xb
 2131 003c 0B       		.uleb128 0xb
 2132 003d 3A       		.uleb128 0x3a
 2133 003e 0B       		.uleb128 0xb
 2134 003f 3B       		.uleb128 0x3b
 2135 0040 0B       		.uleb128 0xb
 2136 0041 01       		.uleb128 0x1
 2137 0042 13       		.uleb128 0x13
 2138 0043 00       		.byte	0
 2139 0044 00       		.byte	0
 2140 0045 06       		.uleb128 0x6
 2141 0046 0D       		.uleb128 0xd
 2142 0047 00       		.byte	0
 2143 0048 03       		.uleb128 0x3
 2144 0049 0E       		.uleb128 0xe
 2145 004a 3A       		.uleb128 0x3a
 2146 004b 0B       		.uleb128 0xb
 2147 004c 3B       		.uleb128 0x3b
 2148 004d 0B       		.uleb128 0xb
 2149 004e 49       		.uleb128 0x49
 2150 004f 13       		.uleb128 0x13
 2151 0050 38       		.uleb128 0x38
 2152 0051 0A       		.uleb128 0xa
 2153 0052 00       		.byte	0
 2154 0053 00       		.byte	0
ARM GAS  C:\Users\srich\AppData\Local\Temp\ccF0kN28.s 			page 39


 2155 0054 07       		.uleb128 0x7
 2156 0055 0D       		.uleb128 0xd
 2157 0056 00       		.byte	0
 2158 0057 03       		.uleb128 0x3
 2159 0058 08       		.uleb128 0x8
 2160 0059 3A       		.uleb128 0x3a
 2161 005a 0B       		.uleb128 0xb
 2162 005b 3B       		.uleb128 0x3b
 2163 005c 0B       		.uleb128 0xb
 2164 005d 49       		.uleb128 0x49
 2165 005e 13       		.uleb128 0x13
 2166 005f 38       		.uleb128 0x38
 2167 0060 0A       		.uleb128 0xa
 2168 0061 00       		.byte	0
 2169 0062 00       		.byte	0
 2170 0063 08       		.uleb128 0x8
 2171 0064 13       		.uleb128 0x13
 2172 0065 01       		.byte	0x1
 2173 0066 0B       		.uleb128 0xb
 2174 0067 0B       		.uleb128 0xb
 2175 0068 3A       		.uleb128 0x3a
 2176 0069 0B       		.uleb128 0xb
 2177 006a 3B       		.uleb128 0x3b
 2178 006b 0B       		.uleb128 0xb
 2179 006c 01       		.uleb128 0x1
 2180 006d 13       		.uleb128 0x13
 2181 006e 00       		.byte	0
 2182 006f 00       		.byte	0
 2183 0070 09       		.uleb128 0x9
 2184 0071 0F       		.uleb128 0xf
 2185 0072 00       		.byte	0
 2186 0073 0B       		.uleb128 0xb
 2187 0074 0B       		.uleb128 0xb
 2188 0075 49       		.uleb128 0x49
 2189 0076 13       		.uleb128 0x13
 2190 0077 00       		.byte	0
 2191 0078 00       		.byte	0
 2192 0079 0A       		.uleb128 0xa
 2193 007a 0F       		.uleb128 0xf
 2194 007b 00       		.byte	0
 2195 007c 0B       		.uleb128 0xb
 2196 007d 0B       		.uleb128 0xb
 2197 007e 00       		.byte	0
 2198 007f 00       		.byte	0
 2199 0080 0B       		.uleb128 0xb
 2200 0081 13       		.uleb128 0x13
 2201 0082 01       		.byte	0x1
 2202 0083 03       		.uleb128 0x3
 2203 0084 0E       		.uleb128 0xe
 2204 0085 0B       		.uleb128 0xb
 2205 0086 0B       		.uleb128 0xb
 2206 0087 3A       		.uleb128 0x3a
 2207 0088 0B       		.uleb128 0xb
 2208 0089 3B       		.uleb128 0x3b
 2209 008a 05       		.uleb128 0x5
 2210 008b 01       		.uleb128 0x1
 2211 008c 13       		.uleb128 0x13
ARM GAS  C:\Users\srich\AppData\Local\Temp\ccF0kN28.s 			page 40


 2212 008d 00       		.byte	0
 2213 008e 00       		.byte	0
 2214 008f 0C       		.uleb128 0xc
 2215 0090 0D       		.uleb128 0xd
 2216 0091 00       		.byte	0
 2217 0092 03       		.uleb128 0x3
 2218 0093 08       		.uleb128 0x8
 2219 0094 3A       		.uleb128 0x3a
 2220 0095 0B       		.uleb128 0xb
 2221 0096 3B       		.uleb128 0x3b
 2222 0097 05       		.uleb128 0x5
 2223 0098 49       		.uleb128 0x49
 2224 0099 13       		.uleb128 0x13
 2225 009a 38       		.uleb128 0x38
 2226 009b 0A       		.uleb128 0xa
 2227 009c 00       		.byte	0
 2228 009d 00       		.byte	0
 2229 009e 0D       		.uleb128 0xd
 2230 009f 35       		.uleb128 0x35
 2231 00a0 00       		.byte	0
 2232 00a1 49       		.uleb128 0x49
 2233 00a2 13       		.uleb128 0x13
 2234 00a3 00       		.byte	0
 2235 00a4 00       		.byte	0
 2236 00a5 0E       		.uleb128 0xe
 2237 00a6 17       		.uleb128 0x17
 2238 00a7 01       		.byte	0x1
 2239 00a8 0B       		.uleb128 0xb
 2240 00a9 0B       		.uleb128 0xb
 2241 00aa 3A       		.uleb128 0x3a
 2242 00ab 0B       		.uleb128 0xb
 2243 00ac 3B       		.uleb128 0x3b
 2244 00ad 0B       		.uleb128 0xb
 2245 00ae 01       		.uleb128 0x1
 2246 00af 13       		.uleb128 0x13
 2247 00b0 00       		.byte	0
 2248 00b1 00       		.byte	0
 2249 00b2 0F       		.uleb128 0xf
 2250 00b3 0D       		.uleb128 0xd
 2251 00b4 00       		.byte	0
 2252 00b5 03       		.uleb128 0x3
 2253 00b6 0E       		.uleb128 0xe
 2254 00b7 3A       		.uleb128 0x3a
 2255 00b8 0B       		.uleb128 0xb
 2256 00b9 3B       		.uleb128 0x3b
 2257 00ba 0B       		.uleb128 0xb
 2258 00bb 49       		.uleb128 0x49
 2259 00bc 13       		.uleb128 0x13
 2260 00bd 00       		.byte	0
 2261 00be 00       		.byte	0
 2262 00bf 10       		.uleb128 0x10
 2263 00c0 26       		.uleb128 0x26
 2264 00c1 00       		.byte	0
 2265 00c2 49       		.uleb128 0x49
 2266 00c3 13       		.uleb128 0x13
 2267 00c4 00       		.byte	0
 2268 00c5 00       		.byte	0
ARM GAS  C:\Users\srich\AppData\Local\Temp\ccF0kN28.s 			page 41


 2269 00c6 11       		.uleb128 0x11
 2270 00c7 2E       		.uleb128 0x2e
 2271 00c8 01       		.byte	0x1
 2272 00c9 3F       		.uleb128 0x3f
 2273 00ca 0C       		.uleb128 0xc
 2274 00cb 03       		.uleb128 0x3
 2275 00cc 0E       		.uleb128 0xe
 2276 00cd 3A       		.uleb128 0x3a
 2277 00ce 0B       		.uleb128 0xb
 2278 00cf 3B       		.uleb128 0x3b
 2279 00d0 0B       		.uleb128 0xb
 2280 00d1 27       		.uleb128 0x27
 2281 00d2 0C       		.uleb128 0xc
 2282 00d3 11       		.uleb128 0x11
 2283 00d4 01       		.uleb128 0x1
 2284 00d5 12       		.uleb128 0x12
 2285 00d6 01       		.uleb128 0x1
 2286 00d7 40       		.uleb128 0x40
 2287 00d8 06       		.uleb128 0x6
 2288 00d9 9742     		.uleb128 0x2117
 2289 00db 0C       		.uleb128 0xc
 2290 00dc 01       		.uleb128 0x1
 2291 00dd 13       		.uleb128 0x13
 2292 00de 00       		.byte	0
 2293 00df 00       		.byte	0
 2294 00e0 12       		.uleb128 0x12
 2295 00e1 05       		.uleb128 0x5
 2296 00e2 00       		.byte	0
 2297 00e3 03       		.uleb128 0x3
 2298 00e4 08       		.uleb128 0x8
 2299 00e5 3A       		.uleb128 0x3a
 2300 00e6 0B       		.uleb128 0xb
 2301 00e7 3B       		.uleb128 0x3b
 2302 00e8 0B       		.uleb128 0xb
 2303 00e9 49       		.uleb128 0x49
 2304 00ea 13       		.uleb128 0x13
 2305 00eb 02       		.uleb128 0x2
 2306 00ec 06       		.uleb128 0x6
 2307 00ed 00       		.byte	0
 2308 00ee 00       		.byte	0
 2309 00ef 13       		.uleb128 0x13
 2310 00f0 898201   		.uleb128 0x4109
 2311 00f3 01       		.byte	0x1
 2312 00f4 11       		.uleb128 0x11
 2313 00f5 01       		.uleb128 0x1
 2314 00f6 31       		.uleb128 0x31
 2315 00f7 13       		.uleb128 0x13
 2316 00f8 01       		.uleb128 0x1
 2317 00f9 13       		.uleb128 0x13
 2318 00fa 00       		.byte	0
 2319 00fb 00       		.byte	0
 2320 00fc 14       		.uleb128 0x14
 2321 00fd 8A8201   		.uleb128 0x410a
 2322 0100 00       		.byte	0
 2323 0101 02       		.uleb128 0x2
 2324 0102 0A       		.uleb128 0xa
 2325 0103 9142     		.uleb128 0x2111
ARM GAS  C:\Users\srich\AppData\Local\Temp\ccF0kN28.s 			page 42


 2326 0105 0A       		.uleb128 0xa
 2327 0106 00       		.byte	0
 2328 0107 00       		.byte	0
 2329 0108 15       		.uleb128 0x15
 2330 0109 898201   		.uleb128 0x4109
 2331 010c 01       		.byte	0x1
 2332 010d 11       		.uleb128 0x11
 2333 010e 01       		.uleb128 0x1
 2334 010f 9542     		.uleb128 0x2115
 2335 0111 0C       		.uleb128 0xc
 2336 0112 31       		.uleb128 0x31
 2337 0113 13       		.uleb128 0x13
 2338 0114 00       		.byte	0
 2339 0115 00       		.byte	0
 2340 0116 16       		.uleb128 0x16
 2341 0117 0B       		.uleb128 0xb
 2342 0118 01       		.byte	0x1
 2343 0119 55       		.uleb128 0x55
 2344 011a 06       		.uleb128 0x6
 2345 011b 01       		.uleb128 0x1
 2346 011c 13       		.uleb128 0x13
 2347 011d 00       		.byte	0
 2348 011e 00       		.byte	0
 2349 011f 17       		.uleb128 0x17
 2350 0120 34       		.uleb128 0x34
 2351 0121 00       		.byte	0
 2352 0122 03       		.uleb128 0x3
 2353 0123 08       		.uleb128 0x8
 2354 0124 3A       		.uleb128 0x3a
 2355 0125 0B       		.uleb128 0xb
 2356 0126 3B       		.uleb128 0x3b
 2357 0127 0B       		.uleb128 0xb
 2358 0128 49       		.uleb128 0x49
 2359 0129 13       		.uleb128 0x13
 2360 012a 02       		.uleb128 0x2
 2361 012b 06       		.uleb128 0x6
 2362 012c 00       		.byte	0
 2363 012d 00       		.byte	0
 2364 012e 18       		.uleb128 0x18
 2365 012f 0B       		.uleb128 0xb
 2366 0130 01       		.byte	0x1
 2367 0131 11       		.uleb128 0x11
 2368 0132 01       		.uleb128 0x1
 2369 0133 12       		.uleb128 0x12
 2370 0134 01       		.uleb128 0x1
 2371 0135 01       		.uleb128 0x1
 2372 0136 13       		.uleb128 0x13
 2373 0137 00       		.byte	0
 2374 0138 00       		.byte	0
 2375 0139 19       		.uleb128 0x19
 2376 013a 898201   		.uleb128 0x4109
 2377 013d 00       		.byte	0
 2378 013e 11       		.uleb128 0x11
 2379 013f 01       		.uleb128 0x1
 2380 0140 31       		.uleb128 0x31
 2381 0141 13       		.uleb128 0x13
 2382 0142 00       		.byte	0
ARM GAS  C:\Users\srich\AppData\Local\Temp\ccF0kN28.s 			page 43


 2383 0143 00       		.byte	0
 2384 0144 1A       		.uleb128 0x1a
 2385 0145 2E       		.uleb128 0x2e
 2386 0146 01       		.byte	0x1
 2387 0147 3F       		.uleb128 0x3f
 2388 0148 0C       		.uleb128 0xc
 2389 0149 03       		.uleb128 0x3
 2390 014a 0E       		.uleb128 0xe
 2391 014b 3A       		.uleb128 0x3a
 2392 014c 0B       		.uleb128 0xb
 2393 014d 3B       		.uleb128 0x3b
 2394 014e 0B       		.uleb128 0xb
 2395 014f 27       		.uleb128 0x27
 2396 0150 0C       		.uleb128 0xc
 2397 0151 49       		.uleb128 0x49
 2398 0152 13       		.uleb128 0x13
 2399 0153 11       		.uleb128 0x11
 2400 0154 01       		.uleb128 0x1
 2401 0155 12       		.uleb128 0x12
 2402 0156 01       		.uleb128 0x1
 2403 0157 40       		.uleb128 0x40
 2404 0158 06       		.uleb128 0x6
 2405 0159 9742     		.uleb128 0x2117
 2406 015b 0C       		.uleb128 0xc
 2407 015c 01       		.uleb128 0x1
 2408 015d 13       		.uleb128 0x13
 2409 015e 00       		.byte	0
 2410 015f 00       		.byte	0
 2411 0160 1B       		.uleb128 0x1b
 2412 0161 05       		.uleb128 0x5
 2413 0162 00       		.byte	0
 2414 0163 03       		.uleb128 0x3
 2415 0164 0E       		.uleb128 0xe
 2416 0165 3A       		.uleb128 0x3a
 2417 0166 0B       		.uleb128 0xb
 2418 0167 3B       		.uleb128 0x3b
 2419 0168 0B       		.uleb128 0xb
 2420 0169 49       		.uleb128 0x49
 2421 016a 13       		.uleb128 0x13
 2422 016b 02       		.uleb128 0x2
 2423 016c 06       		.uleb128 0x6
 2424 016d 00       		.byte	0
 2425 016e 00       		.byte	0
 2426 016f 1C       		.uleb128 0x1c
 2427 0170 34       		.uleb128 0x34
 2428 0171 00       		.byte	0
 2429 0172 03       		.uleb128 0x3
 2430 0173 0E       		.uleb128 0xe
 2431 0174 3A       		.uleb128 0x3a
 2432 0175 0B       		.uleb128 0xb
 2433 0176 3B       		.uleb128 0x3b
 2434 0177 0B       		.uleb128 0xb
 2435 0178 49       		.uleb128 0x49
 2436 0179 13       		.uleb128 0x13
 2437 017a 02       		.uleb128 0x2
 2438 017b 06       		.uleb128 0x6
 2439 017c 00       		.byte	0
ARM GAS  C:\Users\srich\AppData\Local\Temp\ccF0kN28.s 			page 44


 2440 017d 00       		.byte	0
 2441 017e 1D       		.uleb128 0x1d
 2442 017f 34       		.uleb128 0x34
 2443 0180 00       		.byte	0
 2444 0181 03       		.uleb128 0x3
 2445 0182 0E       		.uleb128 0xe
 2446 0183 3A       		.uleb128 0x3a
 2447 0184 0B       		.uleb128 0xb
 2448 0185 3B       		.uleb128 0x3b
 2449 0186 0B       		.uleb128 0xb
 2450 0187 49       		.uleb128 0x49
 2451 0188 13       		.uleb128 0x13
 2452 0189 02       		.uleb128 0x2
 2453 018a 0A       		.uleb128 0xa
 2454 018b 00       		.byte	0
 2455 018c 00       		.byte	0
 2456 018d 1E       		.uleb128 0x1e
 2457 018e 898201   		.uleb128 0x4109
 2458 0191 01       		.byte	0x1
 2459 0192 11       		.uleb128 0x11
 2460 0193 01       		.uleb128 0x1
 2461 0194 31       		.uleb128 0x31
 2462 0195 13       		.uleb128 0x13
 2463 0196 00       		.byte	0
 2464 0197 00       		.byte	0
 2465 0198 1F       		.uleb128 0x1f
 2466 0199 2E       		.uleb128 0x2e
 2467 019a 01       		.byte	0x1
 2468 019b 3F       		.uleb128 0x3f
 2469 019c 0C       		.uleb128 0xc
 2470 019d 03       		.uleb128 0x3
 2471 019e 0E       		.uleb128 0xe
 2472 019f 3A       		.uleb128 0x3a
 2473 01a0 0B       		.uleb128 0xb
 2474 01a1 3B       		.uleb128 0x3b
 2475 01a2 05       		.uleb128 0x5
 2476 01a3 27       		.uleb128 0x27
 2477 01a4 0C       		.uleb128 0xc
 2478 01a5 49       		.uleb128 0x49
 2479 01a6 13       		.uleb128 0x13
 2480 01a7 11       		.uleb128 0x11
 2481 01a8 01       		.uleb128 0x1
 2482 01a9 12       		.uleb128 0x12
 2483 01aa 01       		.uleb128 0x1
 2484 01ab 40       		.uleb128 0x40
 2485 01ac 06       		.uleb128 0x6
 2486 01ad 9742     		.uleb128 0x2117
 2487 01af 0C       		.uleb128 0xc
 2488 01b0 01       		.uleb128 0x1
 2489 01b1 13       		.uleb128 0x13
 2490 01b2 00       		.byte	0
 2491 01b3 00       		.byte	0
 2492 01b4 20       		.uleb128 0x20
 2493 01b5 05       		.uleb128 0x5
 2494 01b6 00       		.byte	0
 2495 01b7 03       		.uleb128 0x3
 2496 01b8 08       		.uleb128 0x8
ARM GAS  C:\Users\srich\AppData\Local\Temp\ccF0kN28.s 			page 45


 2497 01b9 3A       		.uleb128 0x3a
 2498 01ba 0B       		.uleb128 0xb
 2499 01bb 3B       		.uleb128 0x3b
 2500 01bc 05       		.uleb128 0x5
 2501 01bd 49       		.uleb128 0x49
 2502 01be 13       		.uleb128 0x13
 2503 01bf 02       		.uleb128 0x2
 2504 01c0 06       		.uleb128 0x6
 2505 01c1 00       		.byte	0
 2506 01c2 00       		.byte	0
 2507 01c3 21       		.uleb128 0x21
 2508 01c4 05       		.uleb128 0x5
 2509 01c5 00       		.byte	0
 2510 01c6 03       		.uleb128 0x3
 2511 01c7 0E       		.uleb128 0xe
 2512 01c8 3A       		.uleb128 0x3a
 2513 01c9 0B       		.uleb128 0xb
 2514 01ca 3B       		.uleb128 0x3b
 2515 01cb 05       		.uleb128 0x5
 2516 01cc 49       		.uleb128 0x49
 2517 01cd 13       		.uleb128 0x13
 2518 01ce 02       		.uleb128 0x2
 2519 01cf 06       		.uleb128 0x6
 2520 01d0 00       		.byte	0
 2521 01d1 00       		.byte	0
 2522 01d2 22       		.uleb128 0x22
 2523 01d3 34       		.uleb128 0x34
 2524 01d4 00       		.byte	0
 2525 01d5 03       		.uleb128 0x3
 2526 01d6 0E       		.uleb128 0xe
 2527 01d7 3A       		.uleb128 0x3a
 2528 01d8 0B       		.uleb128 0xb
 2529 01d9 3B       		.uleb128 0x3b
 2530 01da 05       		.uleb128 0x5
 2531 01db 49       		.uleb128 0x49
 2532 01dc 13       		.uleb128 0x13
 2533 01dd 02       		.uleb128 0x2
 2534 01de 06       		.uleb128 0x6
 2535 01df 00       		.byte	0
 2536 01e0 00       		.byte	0
 2537 01e1 23       		.uleb128 0x23
 2538 01e2 34       		.uleb128 0x34
 2539 01e3 00       		.byte	0
 2540 01e4 03       		.uleb128 0x3
 2541 01e5 0E       		.uleb128 0xe
 2542 01e6 3A       		.uleb128 0x3a
 2543 01e7 0B       		.uleb128 0xb
 2544 01e8 3B       		.uleb128 0x3b
 2545 01e9 05       		.uleb128 0x5
 2546 01ea 49       		.uleb128 0x49
 2547 01eb 13       		.uleb128 0x13
 2548 01ec 02       		.uleb128 0x2
 2549 01ed 0A       		.uleb128 0xa
 2550 01ee 00       		.byte	0
 2551 01ef 00       		.byte	0
 2552 01f0 24       		.uleb128 0x24
 2553 01f1 34       		.uleb128 0x34
ARM GAS  C:\Users\srich\AppData\Local\Temp\ccF0kN28.s 			page 46


 2554 01f2 00       		.byte	0
 2555 01f3 03       		.uleb128 0x3
 2556 01f4 08       		.uleb128 0x8
 2557 01f5 3A       		.uleb128 0x3a
 2558 01f6 0B       		.uleb128 0xb
 2559 01f7 3B       		.uleb128 0x3b
 2560 01f8 05       		.uleb128 0x5
 2561 01f9 49       		.uleb128 0x49
 2562 01fa 13       		.uleb128 0x13
 2563 01fb 02       		.uleb128 0x2
 2564 01fc 06       		.uleb128 0x6
 2565 01fd 00       		.byte	0
 2566 01fe 00       		.byte	0
 2567 01ff 25       		.uleb128 0x25
 2568 0200 2E       		.uleb128 0x2e
 2569 0201 01       		.byte	0x1
 2570 0202 3F       		.uleb128 0x3f
 2571 0203 0C       		.uleb128 0xc
 2572 0204 03       		.uleb128 0x3
 2573 0205 0E       		.uleb128 0xe
 2574 0206 3A       		.uleb128 0x3a
 2575 0207 0B       		.uleb128 0xb
 2576 0208 3B       		.uleb128 0x3b
 2577 0209 0B       		.uleb128 0xb
 2578 020a 27       		.uleb128 0x27
 2579 020b 0C       		.uleb128 0xc
 2580 020c 3C       		.uleb128 0x3c
 2581 020d 0C       		.uleb128 0xc
 2582 020e 01       		.uleb128 0x1
 2583 020f 13       		.uleb128 0x13
 2584 0210 00       		.byte	0
 2585 0211 00       		.byte	0
 2586 0212 26       		.uleb128 0x26
 2587 0213 05       		.uleb128 0x5
 2588 0214 00       		.byte	0
 2589 0215 49       		.uleb128 0x49
 2590 0216 13       		.uleb128 0x13
 2591 0217 00       		.byte	0
 2592 0218 00       		.byte	0
 2593 0219 27       		.uleb128 0x27
 2594 021a 2E       		.uleb128 0x2e
 2595 021b 00       		.byte	0
 2596 021c 3F       		.uleb128 0x3f
 2597 021d 0C       		.uleb128 0xc
 2598 021e 03       		.uleb128 0x3
 2599 021f 0E       		.uleb128 0xe
 2600 0220 3A       		.uleb128 0x3a
 2601 0221 0B       		.uleb128 0xb
 2602 0222 3B       		.uleb128 0x3b
 2603 0223 0B       		.uleb128 0xb
 2604 0224 27       		.uleb128 0x27
 2605 0225 0C       		.uleb128 0xc
 2606 0226 3C       		.uleb128 0x3c
 2607 0227 0C       		.uleb128 0xc
 2608 0228 00       		.byte	0
 2609 0229 00       		.byte	0
 2610 022a 28       		.uleb128 0x28
ARM GAS  C:\Users\srich\AppData\Local\Temp\ccF0kN28.s 			page 47


 2611 022b 2E       		.uleb128 0x2e
 2612 022c 01       		.byte	0x1
 2613 022d 3F       		.uleb128 0x3f
 2614 022e 0C       		.uleb128 0xc
 2615 022f 03       		.uleb128 0x3
 2616 0230 0E       		.uleb128 0xe
 2617 0231 3A       		.uleb128 0x3a
 2618 0232 0B       		.uleb128 0xb
 2619 0233 3B       		.uleb128 0x3b
 2620 0234 0B       		.uleb128 0xb
 2621 0235 27       		.uleb128 0x27
 2622 0236 0C       		.uleb128 0xc
 2623 0237 49       		.uleb128 0x49
 2624 0238 13       		.uleb128 0x13
 2625 0239 3C       		.uleb128 0x3c
 2626 023a 0C       		.uleb128 0xc
 2627 023b 01       		.uleb128 0x1
 2628 023c 13       		.uleb128 0x13
 2629 023d 00       		.byte	0
 2630 023e 00       		.byte	0
 2631 023f 29       		.uleb128 0x29
 2632 0240 2E       		.uleb128 0x2e
 2633 0241 01       		.byte	0x1
 2634 0242 3F       		.uleb128 0x3f
 2635 0243 0C       		.uleb128 0xc
 2636 0244 03       		.uleb128 0x3
 2637 0245 0E       		.uleb128 0xe
 2638 0246 3A       		.uleb128 0x3a
 2639 0247 0B       		.uleb128 0xb
 2640 0248 3B       		.uleb128 0x3b
 2641 0249 0B       		.uleb128 0xb
 2642 024a 27       		.uleb128 0x27
 2643 024b 0C       		.uleb128 0xc
 2644 024c 3C       		.uleb128 0x3c
 2645 024d 0C       		.uleb128 0xc
 2646 024e 00       		.byte	0
 2647 024f 00       		.byte	0
 2648 0250 00       		.byte	0
 2649              		.section	.debug_loc,"",%progbits
 2650              	.Ldebug_loc0:
 2651              	.LLST0:
 2652 0000 00000000 		.4byte	.LFB7
 2653 0004 02000000 		.4byte	.LCFI0
 2654 0008 0200     		.2byte	0x2
 2655 000a 7D       		.byte	0x7d
 2656 000b 00       		.sleb128 0
 2657 000c 02000000 		.4byte	.LCFI0
 2658 0010 2A000000 		.4byte	.LFE7
 2659 0014 0200     		.2byte	0x2
 2660 0016 7D       		.byte	0x7d
 2661 0017 10       		.sleb128 16
 2662 0018 00000000 		.4byte	0
 2663 001c 00000000 		.4byte	0
 2664              	.LLST1:
 2665 0020 00000000 		.4byte	.LVL0
 2666 0024 0E000000 		.4byte	.LVL1
 2667 0028 0100     		.2byte	0x1
ARM GAS  C:\Users\srich\AppData\Local\Temp\ccF0kN28.s 			page 48


 2668 002a 50       		.byte	0x50
 2669 002b 0E000000 		.4byte	.LVL1
 2670 002f 2A000000 		.4byte	.LFE7
 2671 0033 0100     		.2byte	0x1
 2672 0035 54       		.byte	0x54
 2673 0036 00000000 		.4byte	0
 2674 003a 00000000 		.4byte	0
 2675              	.LLST2:
 2676 003e 00000000 		.4byte	.LVL0
 2677 0042 10000000 		.4byte	.LVL2
 2678 0046 0100     		.2byte	0x1
 2679 0048 51       		.byte	0x51
 2680 0049 10000000 		.4byte	.LVL2
 2681 004d 1B000000 		.4byte	.LVL3-1
 2682 0051 0100     		.2byte	0x1
 2683 0053 53       		.byte	0x53
 2684 0054 1B000000 		.4byte	.LVL3-1
 2685 0058 2A000000 		.4byte	.LFE7
 2686 005c 0400     		.2byte	0x4
 2687 005e F3       		.byte	0xf3
 2688 005f 01       		.uleb128 0x1
 2689 0060 51       		.byte	0x51
 2690 0061 9F       		.byte	0x9f
 2691 0062 00000000 		.4byte	0
 2692 0066 00000000 		.4byte	0
 2693              	.LLST3:
 2694 006a 00000000 		.4byte	.LVL0
 2695 006e 1B000000 		.4byte	.LVL3-1
 2696 0072 0100     		.2byte	0x1
 2697 0074 52       		.byte	0x52
 2698 0075 1B000000 		.4byte	.LVL3-1
 2699 0079 2A000000 		.4byte	.LFE7
 2700 007d 0400     		.2byte	0x4
 2701 007f F3       		.byte	0xf3
 2702 0080 01       		.uleb128 0x1
 2703 0081 52       		.byte	0x52
 2704 0082 9F       		.byte	0x9f
 2705 0083 00000000 		.4byte	0
 2706 0087 00000000 		.4byte	0
 2707              	.LLST4:
 2708 008b 00000000 		.4byte	.LFB8
 2709 008f 02000000 		.4byte	.LCFI1
 2710 0093 0200     		.2byte	0x2
 2711 0095 7D       		.byte	0x7d
 2712 0096 00       		.sleb128 0
 2713 0097 02000000 		.4byte	.LCFI1
 2714 009b 34000000 		.4byte	.LFE8
 2715 009f 0200     		.2byte	0x2
 2716 00a1 7D       		.byte	0x7d
 2717 00a2 08       		.sleb128 8
 2718 00a3 00000000 		.4byte	0
 2719 00a7 00000000 		.4byte	0
 2720              	.LLST5:
 2721 00ab 00000000 		.4byte	.LVL5
 2722 00af 1A000000 		.4byte	.LVL9
 2723 00b3 0100     		.2byte	0x1
 2724 00b5 50       		.byte	0x50
ARM GAS  C:\Users\srich\AppData\Local\Temp\ccF0kN28.s 			page 49


 2725 00b6 1A000000 		.4byte	.LVL9
 2726 00ba 34000000 		.4byte	.LFE8
 2727 00be 0100     		.2byte	0x1
 2728 00c0 54       		.byte	0x54
 2729 00c1 00000000 		.4byte	0
 2730 00c5 00000000 		.4byte	0
 2731              	.LLST6:
 2732 00c9 0A000000 		.4byte	.LVL7
 2733 00cd 0C000000 		.4byte	.LVL8
 2734 00d1 0100     		.2byte	0x1
 2735 00d3 53       		.byte	0x53
 2736 00d4 00000000 		.4byte	0
 2737 00d8 00000000 		.4byte	0
 2738              	.LLST7:
 2739 00dc 32000000 		.4byte	.LVL14
 2740 00e0 34000000 		.4byte	.LFE8
 2741 00e4 0100     		.2byte	0x1
 2742 00e6 53       		.byte	0x53
 2743 00e7 00000000 		.4byte	0
 2744 00eb 00000000 		.4byte	0
 2745              	.LLST8:
 2746 00ef 00000000 		.4byte	.LFB10
 2747 00f3 02000000 		.4byte	.LCFI2
 2748 00f7 0200     		.2byte	0x2
 2749 00f9 7D       		.byte	0x7d
 2750 00fa 00       		.sleb128 0
 2751 00fb 02000000 		.4byte	.LCFI2
 2752 00ff 38000000 		.4byte	.LFE10
 2753 0103 0200     		.2byte	0x2
 2754 0105 7D       		.byte	0x7d
 2755 0106 10       		.sleb128 16
 2756 0107 00000000 		.4byte	0
 2757 010b 00000000 		.4byte	0
 2758              	.LLST9:
 2759 010f 00000000 		.4byte	.LVL15
 2760 0113 0A000000 		.4byte	.LVL16
 2761 0117 0100     		.2byte	0x1
 2762 0119 50       		.byte	0x50
 2763 011a 0A000000 		.4byte	.LVL16
 2764 011e 38000000 		.4byte	.LFE10
 2765 0122 0100     		.2byte	0x1
 2766 0124 54       		.byte	0x54
 2767 0125 00000000 		.4byte	0
 2768 0129 00000000 		.4byte	0
 2769              	.LLST10:
 2770 012d 00000000 		.4byte	.LVL15
 2771 0131 0C000000 		.4byte	.LVL17
 2772 0135 0100     		.2byte	0x1
 2773 0137 51       		.byte	0x51
 2774 0138 0C000000 		.4byte	.LVL17
 2775 013c 38000000 		.4byte	.LFE10
 2776 0140 0100     		.2byte	0x1
 2777 0142 56       		.byte	0x56
 2778 0143 00000000 		.4byte	0
 2779 0147 00000000 		.4byte	0
 2780              	.LLST11:
 2781 014b 00000000 		.4byte	.LVL15
ARM GAS  C:\Users\srich\AppData\Local\Temp\ccF0kN28.s 			page 50


 2782 014f 0F000000 		.4byte	.LVL18-1
 2783 0153 0100     		.2byte	0x1
 2784 0155 52       		.byte	0x52
 2785 0156 0F000000 		.4byte	.LVL18-1
 2786 015a 38000000 		.4byte	.LFE10
 2787 015e 0400     		.2byte	0x4
 2788 0160 F3       		.byte	0xf3
 2789 0161 01       		.uleb128 0x1
 2790 0162 52       		.byte	0x52
 2791 0163 9F       		.byte	0x9f
 2792 0164 00000000 		.4byte	0
 2793 0168 00000000 		.4byte	0
 2794              	.LLST12:
 2795 016c 10000000 		.4byte	.LVL18
 2796 0170 28000000 		.4byte	.LVL19
 2797 0174 0100     		.2byte	0x1
 2798 0176 50       		.byte	0x50
 2799 0177 28000000 		.4byte	.LVL19
 2800 017b 38000000 		.4byte	.LFE10
 2801 017f 0100     		.2byte	0x1
 2802 0181 55       		.byte	0x55
 2803 0182 00000000 		.4byte	0
 2804 0186 00000000 		.4byte	0
 2805              	.LLST13:
 2806 018a 00000000 		.4byte	.LFB9
 2807 018e 02000000 		.4byte	.LCFI3
 2808 0192 0200     		.2byte	0x2
 2809 0194 7D       		.byte	0x7d
 2810 0195 00       		.sleb128 0
 2811 0196 02000000 		.4byte	.LCFI3
 2812 019a 14000000 		.4byte	.LFE9
 2813 019e 0200     		.2byte	0x2
 2814 01a0 7D       		.byte	0x7d
 2815 01a1 08       		.sleb128 8
 2816 01a2 00000000 		.4byte	0
 2817 01a6 00000000 		.4byte	0
 2818              	.LLST14:
 2819 01aa 00000000 		.4byte	.LVL22
 2820 01ae 0B000000 		.4byte	.LVL25-1
 2821 01b2 0100     		.2byte	0x1
 2822 01b4 50       		.byte	0x50
 2823 01b5 0B000000 		.4byte	.LVL25-1
 2824 01b9 14000000 		.4byte	.LFE9
 2825 01bd 0400     		.2byte	0x4
 2826 01bf F3       		.byte	0xf3
 2827 01c0 01       		.uleb128 0x1
 2828 01c1 50       		.byte	0x50
 2829 01c2 9F       		.byte	0x9f
 2830 01c3 00000000 		.4byte	0
 2831 01c7 00000000 		.4byte	0
 2832              	.LLST15:
 2833 01cb 00000000 		.4byte	.LVL22
 2834 01cf 0B000000 		.4byte	.LVL25-1
 2835 01d3 0100     		.2byte	0x1
 2836 01d5 51       		.byte	0x51
 2837 01d6 0B000000 		.4byte	.LVL25-1
 2838 01da 14000000 		.4byte	.LFE9
ARM GAS  C:\Users\srich\AppData\Local\Temp\ccF0kN28.s 			page 51


 2839 01de 0400     		.2byte	0x4
 2840 01e0 F3       		.byte	0xf3
 2841 01e1 01       		.uleb128 0x1
 2842 01e2 51       		.byte	0x51
 2843 01e3 9F       		.byte	0x9f
 2844 01e4 00000000 		.4byte	0
 2845 01e8 00000000 		.4byte	0
 2846              	.LLST16:
 2847 01ec 00000000 		.4byte	.LVL22
 2848 01f0 0B000000 		.4byte	.LVL25-1
 2849 01f4 0100     		.2byte	0x1
 2850 01f6 52       		.byte	0x52
 2851 01f7 0B000000 		.4byte	.LVL25-1
 2852 01fb 14000000 		.4byte	.LFE9
 2853 01ff 0400     		.2byte	0x4
 2854 0201 F3       		.byte	0xf3
 2855 0202 01       		.uleb128 0x1
 2856 0203 52       		.byte	0x52
 2857 0204 9F       		.byte	0x9f
 2858 0205 00000000 		.4byte	0
 2859 0209 00000000 		.4byte	0
 2860              	.LLST17:
 2861 020d 08000000 		.4byte	.LVL24
 2862 0211 0B000000 		.4byte	.LVL25-1
 2863 0215 0100     		.2byte	0x1
 2864 0217 53       		.byte	0x53
 2865 0218 00000000 		.4byte	0
 2866 021c 00000000 		.4byte	0
 2867              	.LLST18:
 2868 0220 12000000 		.4byte	.LVL27
 2869 0224 14000000 		.4byte	.LFE9
 2870 0228 0100     		.2byte	0x1
 2871 022a 53       		.byte	0x53
 2872 022b 00000000 		.4byte	0
 2873 022f 00000000 		.4byte	0
 2874              	.LLST19:
 2875 0233 00000000 		.4byte	.LFB11
 2876 0237 06000000 		.4byte	.LCFI4
 2877 023b 0200     		.2byte	0x2
 2878 023d 7D       		.byte	0x7d
 2879 023e 00       		.sleb128 0
 2880 023f 06000000 		.4byte	.LCFI4
 2881 0243 2E000000 		.4byte	.LFE11
 2882 0247 0200     		.2byte	0x2
 2883 0249 7D       		.byte	0x7d
 2884 024a 08       		.sleb128 8
 2885 024b 00000000 		.4byte	0
 2886 024f 00000000 		.4byte	0
 2887              	.LLST20:
 2888 0253 00000000 		.4byte	.LVL28
 2889 0257 20000000 		.4byte	.LVL29
 2890 025b 0100     		.2byte	0x1
 2891 025d 50       		.byte	0x50
 2892 025e 20000000 		.4byte	.LVL29
 2893 0262 23000000 		.4byte	.LVL30-1
 2894 0266 0300     		.2byte	0x3
 2895 0268 70       		.byte	0x70
ARM GAS  C:\Users\srich\AppData\Local\Temp\ccF0kN28.s 			page 52


 2896 0269 70       		.sleb128 -16
 2897 026a 9F       		.byte	0x9f
 2898 026b 23000000 		.4byte	.LVL30-1
 2899 026f 28000000 		.4byte	.LVL31
 2900 0273 0400     		.2byte	0x4
 2901 0275 F3       		.byte	0xf3
 2902 0276 01       		.uleb128 0x1
 2903 0277 50       		.byte	0x50
 2904 0278 9F       		.byte	0x9f
 2905 0279 28000000 		.4byte	.LVL31
 2906 027d 2C000000 		.4byte	.LVL32
 2907 0281 0100     		.2byte	0x1
 2908 0283 50       		.byte	0x50
 2909 0284 2C000000 		.4byte	.LVL32
 2910 0288 2E000000 		.4byte	.LFE11
 2911 028c 0400     		.2byte	0x4
 2912 028e F3       		.byte	0xf3
 2913 028f 01       		.uleb128 0x1
 2914 0290 50       		.byte	0x50
 2915 0291 9F       		.byte	0x9f
 2916 0292 00000000 		.4byte	0
 2917 0296 00000000 		.4byte	0
 2918              	.LLST21:
 2919 029a 00000000 		.4byte	.LVL28
 2920 029e 23000000 		.4byte	.LVL30-1
 2921 02a2 0100     		.2byte	0x1
 2922 02a4 51       		.byte	0x51
 2923 02a5 23000000 		.4byte	.LVL30-1
 2924 02a9 28000000 		.4byte	.LVL31
 2925 02ad 0400     		.2byte	0x4
 2926 02af F3       		.byte	0xf3
 2927 02b0 01       		.uleb128 0x1
 2928 02b1 51       		.byte	0x51
 2929 02b2 9F       		.byte	0x9f
 2930 02b3 28000000 		.4byte	.LVL31
 2931 02b7 2E000000 		.4byte	.LFE11
 2932 02bb 0100     		.2byte	0x1
 2933 02bd 51       		.byte	0x51
 2934 02be 00000000 		.4byte	0
 2935 02c2 00000000 		.4byte	0
 2936              	.LLST22:
 2937 02c6 00000000 		.4byte	.LFB13
 2938 02ca 02000000 		.4byte	.LCFI5
 2939 02ce 0200     		.2byte	0x2
 2940 02d0 7D       		.byte	0x7d
 2941 02d1 00       		.sleb128 0
 2942 02d2 02000000 		.4byte	.LCFI5
 2943 02d6 3A000000 		.4byte	.LFE13
 2944 02da 0200     		.2byte	0x2
 2945 02dc 7D       		.byte	0x7d
 2946 02dd 10       		.sleb128 16
 2947 02de 00000000 		.4byte	0
 2948 02e2 00000000 		.4byte	0
 2949              	.LLST23:
 2950 02e6 00000000 		.4byte	.LVL33
 2951 02ea 0A000000 		.4byte	.LVL34
 2952 02ee 0100     		.2byte	0x1
ARM GAS  C:\Users\srich\AppData\Local\Temp\ccF0kN28.s 			page 53


 2953 02f0 50       		.byte	0x50
 2954 02f1 0A000000 		.4byte	.LVL34
 2955 02f5 3A000000 		.4byte	.LFE13
 2956 02f9 0100     		.2byte	0x1
 2957 02fb 54       		.byte	0x54
 2958 02fc 00000000 		.4byte	0
 2959 0300 00000000 		.4byte	0
 2960              	.LLST24:
 2961 0304 00000000 		.4byte	.LVL33
 2962 0308 0C000000 		.4byte	.LVL35
 2963 030c 0100     		.2byte	0x1
 2964 030e 51       		.byte	0x51
 2965 030f 0C000000 		.4byte	.LVL35
 2966 0313 3A000000 		.4byte	.LFE13
 2967 0317 0100     		.2byte	0x1
 2968 0319 56       		.byte	0x56
 2969 031a 00000000 		.4byte	0
 2970 031e 00000000 		.4byte	0
 2971              	.LLST25:
 2972 0322 00000000 		.4byte	.LVL33
 2973 0326 0F000000 		.4byte	.LVL36-1
 2974 032a 0100     		.2byte	0x1
 2975 032c 52       		.byte	0x52
 2976 032d 0F000000 		.4byte	.LVL36-1
 2977 0331 3A000000 		.4byte	.LFE13
 2978 0335 0400     		.2byte	0x4
 2979 0337 F3       		.byte	0xf3
 2980 0338 01       		.uleb128 0x1
 2981 0339 52       		.byte	0x52
 2982 033a 9F       		.byte	0x9f
 2983 033b 00000000 		.4byte	0
 2984 033f 00000000 		.4byte	0
 2985              	.LLST26:
 2986 0343 10000000 		.4byte	.LVL36
 2987 0347 20000000 		.4byte	.LVL37
 2988 034b 0100     		.2byte	0x1
 2989 034d 50       		.byte	0x50
 2990 034e 20000000 		.4byte	.LVL37
 2991 0352 32000000 		.4byte	.LVL40
 2992 0356 0100     		.2byte	0x1
 2993 0358 55       		.byte	0x55
 2994 0359 32000000 		.4byte	.LVL40
 2995 035d 34000000 		.4byte	.LVL41
 2996 0361 0100     		.2byte	0x1
 2997 0363 50       		.byte	0x50
 2998 0364 34000000 		.4byte	.LVL41
 2999 0368 3A000000 		.4byte	.LFE13
 3000 036c 0100     		.2byte	0x1
 3001 036e 55       		.byte	0x55
 3002 036f 00000000 		.4byte	0
 3003 0373 00000000 		.4byte	0
 3004              	.LLST27:
 3005 0377 00000000 		.4byte	.LFB12
 3006 037b 02000000 		.4byte	.LCFI6
 3007 037f 0200     		.2byte	0x2
 3008 0381 7D       		.byte	0x7d
 3009 0382 00       		.sleb128 0
ARM GAS  C:\Users\srich\AppData\Local\Temp\ccF0kN28.s 			page 54


 3010 0383 02000000 		.4byte	.LCFI6
 3011 0387 14000000 		.4byte	.LFE12
 3012 038b 0200     		.2byte	0x2
 3013 038d 7D       		.byte	0x7d
 3014 038e 08       		.sleb128 8
 3015 038f 00000000 		.4byte	0
 3016 0393 00000000 		.4byte	0
 3017              	.LLST28:
 3018 0397 00000000 		.4byte	.LVL42
 3019 039b 0B000000 		.4byte	.LVL45-1
 3020 039f 0100     		.2byte	0x1
 3021 03a1 50       		.byte	0x50
 3022 03a2 0B000000 		.4byte	.LVL45-1
 3023 03a6 14000000 		.4byte	.LFE12
 3024 03aa 0400     		.2byte	0x4
 3025 03ac F3       		.byte	0xf3
 3026 03ad 01       		.uleb128 0x1
 3027 03ae 50       		.byte	0x50
 3028 03af 9F       		.byte	0x9f
 3029 03b0 00000000 		.4byte	0
 3030 03b4 00000000 		.4byte	0
 3031              	.LLST29:
 3032 03b8 00000000 		.4byte	.LVL42
 3033 03bc 0B000000 		.4byte	.LVL45-1
 3034 03c0 0100     		.2byte	0x1
 3035 03c2 51       		.byte	0x51
 3036 03c3 0B000000 		.4byte	.LVL45-1
 3037 03c7 14000000 		.4byte	.LFE12
 3038 03cb 0400     		.2byte	0x4
 3039 03cd F3       		.byte	0xf3
 3040 03ce 01       		.uleb128 0x1
 3041 03cf 51       		.byte	0x51
 3042 03d0 9F       		.byte	0x9f
 3043 03d1 00000000 		.4byte	0
 3044 03d5 00000000 		.4byte	0
 3045              	.LLST30:
 3046 03d9 00000000 		.4byte	.LVL42
 3047 03dd 0B000000 		.4byte	.LVL45-1
 3048 03e1 0100     		.2byte	0x1
 3049 03e3 52       		.byte	0x52
 3050 03e4 0B000000 		.4byte	.LVL45-1
 3051 03e8 14000000 		.4byte	.LFE12
 3052 03ec 0400     		.2byte	0x4
 3053 03ee F3       		.byte	0xf3
 3054 03ef 01       		.uleb128 0x1
 3055 03f0 52       		.byte	0x52
 3056 03f1 9F       		.byte	0x9f
 3057 03f2 00000000 		.4byte	0
 3058 03f6 00000000 		.4byte	0
 3059              	.LLST31:
 3060 03fa 08000000 		.4byte	.LVL44
 3061 03fe 0B000000 		.4byte	.LVL45-1
 3062 0402 0100     		.2byte	0x1
 3063 0404 53       		.byte	0x53
 3064 0405 00000000 		.4byte	0
 3065 0409 00000000 		.4byte	0
 3066              	.LLST32:
ARM GAS  C:\Users\srich\AppData\Local\Temp\ccF0kN28.s 			page 55


 3067 040d 12000000 		.4byte	.LVL47
 3068 0411 14000000 		.4byte	.LFE12
 3069 0415 0100     		.2byte	0x1
 3070 0417 53       		.byte	0x53
 3071 0418 00000000 		.4byte	0
 3072 041c 00000000 		.4byte	0
 3073              	.LLST33:
 3074 0420 00000000 		.4byte	.LFB14
 3075 0424 06000000 		.4byte	.LCFI7
 3076 0428 0200     		.2byte	0x2
 3077 042a 7D       		.byte	0x7d
 3078 042b 00       		.sleb128 0
 3079 042c 06000000 		.4byte	.LCFI7
 3080 0430 30000000 		.4byte	.LFE14
 3081 0434 0200     		.2byte	0x2
 3082 0436 7D       		.byte	0x7d
 3083 0437 08       		.sleb128 8
 3084 0438 00000000 		.4byte	0
 3085 043c 00000000 		.4byte	0
 3086              	.LLST34:
 3087 0440 00000000 		.4byte	.LVL48
 3088 0444 20000000 		.4byte	.LVL49
 3089 0448 0100     		.2byte	0x1
 3090 044a 50       		.byte	0x50
 3091 044b 20000000 		.4byte	.LVL49
 3092 044f 25000000 		.4byte	.LVL50-1
 3093 0453 0300     		.2byte	0x3
 3094 0455 70       		.byte	0x70
 3095 0456 70       		.sleb128 -16
 3096 0457 9F       		.byte	0x9f
 3097 0458 25000000 		.4byte	.LVL50-1
 3098 045c 2A000000 		.4byte	.LVL51
 3099 0460 0400     		.2byte	0x4
 3100 0462 F3       		.byte	0xf3
 3101 0463 01       		.uleb128 0x1
 3102 0464 50       		.byte	0x50
 3103 0465 9F       		.byte	0x9f
 3104 0466 2A000000 		.4byte	.LVL51
 3105 046a 2E000000 		.4byte	.LVL52
 3106 046e 0100     		.2byte	0x1
 3107 0470 50       		.byte	0x50
 3108 0471 2E000000 		.4byte	.LVL52
 3109 0475 30000000 		.4byte	.LFE14
 3110 0479 0400     		.2byte	0x4
 3111 047b F3       		.byte	0xf3
 3112 047c 01       		.uleb128 0x1
 3113 047d 50       		.byte	0x50
 3114 047e 9F       		.byte	0x9f
 3115 047f 00000000 		.4byte	0
 3116 0483 00000000 		.4byte	0
 3117              	.LLST35:
 3118 0487 00000000 		.4byte	.LVL48
 3119 048b 25000000 		.4byte	.LVL50-1
 3120 048f 0100     		.2byte	0x1
 3121 0491 51       		.byte	0x51
 3122 0492 25000000 		.4byte	.LVL50-1
 3123 0496 2A000000 		.4byte	.LVL51
ARM GAS  C:\Users\srich\AppData\Local\Temp\ccF0kN28.s 			page 56


 3124 049a 0400     		.2byte	0x4
 3125 049c F3       		.byte	0xf3
 3126 049d 01       		.uleb128 0x1
 3127 049e 51       		.byte	0x51
 3128 049f 9F       		.byte	0x9f
 3129 04a0 2A000000 		.4byte	.LVL51
 3130 04a4 30000000 		.4byte	.LFE14
 3131 04a8 0100     		.2byte	0x1
 3132 04aa 51       		.byte	0x51
 3133 04ab 00000000 		.4byte	0
 3134 04af 00000000 		.4byte	0
 3135              	.LLST36:
 3136 04b3 00000000 		.4byte	.LFB16
 3137 04b7 02000000 		.4byte	.LCFI8
 3138 04bb 0200     		.2byte	0x2
 3139 04bd 7D       		.byte	0x7d
 3140 04be 00       		.sleb128 0
 3141 04bf 02000000 		.4byte	.LCFI8
 3142 04c3 3A000000 		.4byte	.LFE16
 3143 04c7 0200     		.2byte	0x2
 3144 04c9 7D       		.byte	0x7d
 3145 04ca 10       		.sleb128 16
 3146 04cb 00000000 		.4byte	0
 3147 04cf 00000000 		.4byte	0
 3148              	.LLST37:
 3149 04d3 00000000 		.4byte	.LVL53
 3150 04d7 0A000000 		.4byte	.LVL54
 3151 04db 0100     		.2byte	0x1
 3152 04dd 50       		.byte	0x50
 3153 04de 0A000000 		.4byte	.LVL54
 3154 04e2 3A000000 		.4byte	.LFE16
 3155 04e6 0100     		.2byte	0x1
 3156 04e8 54       		.byte	0x54
 3157 04e9 00000000 		.4byte	0
 3158 04ed 00000000 		.4byte	0
 3159              	.LLST38:
 3160 04f1 00000000 		.4byte	.LVL53
 3161 04f5 0C000000 		.4byte	.LVL55
 3162 04f9 0100     		.2byte	0x1
 3163 04fb 51       		.byte	0x51
 3164 04fc 0C000000 		.4byte	.LVL55
 3165 0500 3A000000 		.4byte	.LFE16
 3166 0504 0100     		.2byte	0x1
 3167 0506 56       		.byte	0x56
 3168 0507 00000000 		.4byte	0
 3169 050b 00000000 		.4byte	0
 3170              	.LLST39:
 3171 050f 00000000 		.4byte	.LVL53
 3172 0513 0F000000 		.4byte	.LVL56-1
 3173 0517 0100     		.2byte	0x1
 3174 0519 52       		.byte	0x52
 3175 051a 0F000000 		.4byte	.LVL56-1
 3176 051e 3A000000 		.4byte	.LFE16
 3177 0522 0400     		.2byte	0x4
 3178 0524 F3       		.byte	0xf3
 3179 0525 01       		.uleb128 0x1
 3180 0526 52       		.byte	0x52
ARM GAS  C:\Users\srich\AppData\Local\Temp\ccF0kN28.s 			page 57


 3181 0527 9F       		.byte	0x9f
 3182 0528 00000000 		.4byte	0
 3183 052c 00000000 		.4byte	0
 3184              	.LLST40:
 3185 0530 10000000 		.4byte	.LVL56
 3186 0534 2A000000 		.4byte	.LVL57
 3187 0538 0100     		.2byte	0x1
 3188 053a 50       		.byte	0x50
 3189 053b 2A000000 		.4byte	.LVL57
 3190 053f 3A000000 		.4byte	.LFE16
 3191 0543 0100     		.2byte	0x1
 3192 0545 55       		.byte	0x55
 3193 0546 00000000 		.4byte	0
 3194 054a 00000000 		.4byte	0
 3195              	.LLST41:
 3196 054e 00000000 		.4byte	.LFB15
 3197 0552 02000000 		.4byte	.LCFI9
 3198 0556 0200     		.2byte	0x2
 3199 0558 7D       		.byte	0x7d
 3200 0559 00       		.sleb128 0
 3201 055a 02000000 		.4byte	.LCFI9
 3202 055e 14000000 		.4byte	.LFE15
 3203 0562 0200     		.2byte	0x2
 3204 0564 7D       		.byte	0x7d
 3205 0565 08       		.sleb128 8
 3206 0566 00000000 		.4byte	0
 3207 056a 00000000 		.4byte	0
 3208              	.LLST42:
 3209 056e 00000000 		.4byte	.LVL60
 3210 0572 0B000000 		.4byte	.LVL63-1
 3211 0576 0100     		.2byte	0x1
 3212 0578 50       		.byte	0x50
 3213 0579 0B000000 		.4byte	.LVL63-1
 3214 057d 14000000 		.4byte	.LFE15
 3215 0581 0400     		.2byte	0x4
 3216 0583 F3       		.byte	0xf3
 3217 0584 01       		.uleb128 0x1
 3218 0585 50       		.byte	0x50
 3219 0586 9F       		.byte	0x9f
 3220 0587 00000000 		.4byte	0
 3221 058b 00000000 		.4byte	0
 3222              	.LLST43:
 3223 058f 00000000 		.4byte	.LVL60
 3224 0593 0B000000 		.4byte	.LVL63-1
 3225 0597 0100     		.2byte	0x1
 3226 0599 51       		.byte	0x51
 3227 059a 0B000000 		.4byte	.LVL63-1
 3228 059e 14000000 		.4byte	.LFE15
 3229 05a2 0400     		.2byte	0x4
 3230 05a4 F3       		.byte	0xf3
 3231 05a5 01       		.uleb128 0x1
 3232 05a6 51       		.byte	0x51
 3233 05a7 9F       		.byte	0x9f
 3234 05a8 00000000 		.4byte	0
 3235 05ac 00000000 		.4byte	0
 3236              	.LLST44:
 3237 05b0 00000000 		.4byte	.LVL60
ARM GAS  C:\Users\srich\AppData\Local\Temp\ccF0kN28.s 			page 58


 3238 05b4 0B000000 		.4byte	.LVL63-1
 3239 05b8 0100     		.2byte	0x1
 3240 05ba 52       		.byte	0x52
 3241 05bb 0B000000 		.4byte	.LVL63-1
 3242 05bf 14000000 		.4byte	.LFE15
 3243 05c3 0400     		.2byte	0x4
 3244 05c5 F3       		.byte	0xf3
 3245 05c6 01       		.uleb128 0x1
 3246 05c7 52       		.byte	0x52
 3247 05c8 9F       		.byte	0x9f
 3248 05c9 00000000 		.4byte	0
 3249 05cd 00000000 		.4byte	0
 3250              	.LLST45:
 3251 05d1 08000000 		.4byte	.LVL62
 3252 05d5 0B000000 		.4byte	.LVL63-1
 3253 05d9 0100     		.2byte	0x1
 3254 05db 53       		.byte	0x53
 3255 05dc 00000000 		.4byte	0
 3256 05e0 00000000 		.4byte	0
 3257              	.LLST46:
 3258 05e4 12000000 		.4byte	.LVL65
 3259 05e8 14000000 		.4byte	.LFE15
 3260 05ec 0100     		.2byte	0x1
 3261 05ee 53       		.byte	0x53
 3262 05ef 00000000 		.4byte	0
 3263 05f3 00000000 		.4byte	0
 3264              	.LLST47:
 3265 05f7 00000000 		.4byte	.LFB17
 3266 05fb 06000000 		.4byte	.LCFI10
 3267 05ff 0200     		.2byte	0x2
 3268 0601 7D       		.byte	0x7d
 3269 0602 00       		.sleb128 0
 3270 0603 06000000 		.4byte	.LCFI10
 3271 0607 30000000 		.4byte	.LFE17
 3272 060b 0200     		.2byte	0x2
 3273 060d 7D       		.byte	0x7d
 3274 060e 08       		.sleb128 8
 3275 060f 00000000 		.4byte	0
 3276 0613 00000000 		.4byte	0
 3277              	.LLST48:
 3278 0617 00000000 		.4byte	.LVL66
 3279 061b 22000000 		.4byte	.LVL67
 3280 061f 0100     		.2byte	0x1
 3281 0621 50       		.byte	0x50
 3282 0622 22000000 		.4byte	.LVL67
 3283 0626 25000000 		.4byte	.LVL68-1
 3284 062a 0300     		.2byte	0x3
 3285 062c 70       		.byte	0x70
 3286 062d 64       		.sleb128 -28
 3287 062e 9F       		.byte	0x9f
 3288 062f 25000000 		.4byte	.LVL68-1
 3289 0633 2A000000 		.4byte	.LVL69
 3290 0637 0400     		.2byte	0x4
 3291 0639 F3       		.byte	0xf3
 3292 063a 01       		.uleb128 0x1
 3293 063b 50       		.byte	0x50
 3294 063c 9F       		.byte	0x9f
ARM GAS  C:\Users\srich\AppData\Local\Temp\ccF0kN28.s 			page 59


 3295 063d 2A000000 		.4byte	.LVL69
 3296 0641 2E000000 		.4byte	.LVL70
 3297 0645 0100     		.2byte	0x1
 3298 0647 50       		.byte	0x50
 3299 0648 2E000000 		.4byte	.LVL70
 3300 064c 30000000 		.4byte	.LFE17
 3301 0650 0400     		.2byte	0x4
 3302 0652 F3       		.byte	0xf3
 3303 0653 01       		.uleb128 0x1
 3304 0654 50       		.byte	0x50
 3305 0655 9F       		.byte	0x9f
 3306 0656 00000000 		.4byte	0
 3307 065a 00000000 		.4byte	0
 3308              	.LLST49:
 3309 065e 00000000 		.4byte	.LVL66
 3310 0662 25000000 		.4byte	.LVL68-1
 3311 0666 0100     		.2byte	0x1
 3312 0668 51       		.byte	0x51
 3313 0669 25000000 		.4byte	.LVL68-1
 3314 066d 2A000000 		.4byte	.LVL69
 3315 0671 0400     		.2byte	0x4
 3316 0673 F3       		.byte	0xf3
 3317 0674 01       		.uleb128 0x1
 3318 0675 51       		.byte	0x51
 3319 0676 9F       		.byte	0x9f
 3320 0677 2A000000 		.4byte	.LVL69
 3321 067b 30000000 		.4byte	.LFE17
 3322 067f 0100     		.2byte	0x1
 3323 0681 51       		.byte	0x51
 3324 0682 00000000 		.4byte	0
 3325 0686 00000000 		.4byte	0
 3326              		.section	.debug_aranges,"",%progbits
 3327 0000 6C000000 		.4byte	0x6c
 3328 0004 0200     		.2byte	0x2
 3329 0006 00000000 		.4byte	.Ldebug_info0
 3330 000a 04       		.byte	0x4
 3331 000b 00       		.byte	0
 3332 000c 0000     		.2byte	0
 3333 000e 0000     		.2byte	0
 3334 0010 00000000 		.4byte	.LFB7
 3335 0014 2A000000 		.4byte	.LFE7-.LFB7
 3336 0018 00000000 		.4byte	.LFB8
 3337 001c 34000000 		.4byte	.LFE8-.LFB8
 3338 0020 00000000 		.4byte	.LFB10
 3339 0024 38000000 		.4byte	.LFE10-.LFB10
 3340 0028 00000000 		.4byte	.LFB9
 3341 002c 14000000 		.4byte	.LFE9-.LFB9
 3342 0030 00000000 		.4byte	.LFB11
 3343 0034 2E000000 		.4byte	.LFE11-.LFB11
 3344 0038 00000000 		.4byte	.LFB13
 3345 003c 3A000000 		.4byte	.LFE13-.LFB13
 3346 0040 00000000 		.4byte	.LFB12
 3347 0044 14000000 		.4byte	.LFE12-.LFB12
 3348 0048 00000000 		.4byte	.LFB14
 3349 004c 30000000 		.4byte	.LFE14-.LFB14
 3350 0050 00000000 		.4byte	.LFB16
 3351 0054 3A000000 		.4byte	.LFE16-.LFB16
ARM GAS  C:\Users\srich\AppData\Local\Temp\ccF0kN28.s 			page 60


 3352 0058 00000000 		.4byte	.LFB15
 3353 005c 14000000 		.4byte	.LFE15-.LFB15
 3354 0060 00000000 		.4byte	.LFB17
 3355 0064 30000000 		.4byte	.LFE17-.LFB17
 3356 0068 00000000 		.4byte	0
 3357 006c 00000000 		.4byte	0
 3358              		.section	.debug_ranges,"",%progbits
 3359              	.Ldebug_ranges0:
 3360 0000 02000000 		.4byte	.LBB2
 3361 0004 04000000 		.4byte	.LBE2
 3362 0008 06000000 		.4byte	.LBB3
 3363 000c 0A000000 		.4byte	.LBE3
 3364 0010 00000000 		.4byte	0
 3365 0014 00000000 		.4byte	0
 3366 0018 00000000 		.4byte	.LFB7
 3367 001c 2A000000 		.4byte	.LFE7
 3368 0020 00000000 		.4byte	.LFB8
 3369 0024 34000000 		.4byte	.LFE8
 3370 0028 00000000 		.4byte	.LFB10
 3371 002c 38000000 		.4byte	.LFE10
 3372 0030 00000000 		.4byte	.LFB9
 3373 0034 14000000 		.4byte	.LFE9
 3374 0038 00000000 		.4byte	.LFB11
 3375 003c 2E000000 		.4byte	.LFE11
 3376 0040 00000000 		.4byte	.LFB13
 3377 0044 3A000000 		.4byte	.LFE13
 3378 0048 00000000 		.4byte	.LFB12
 3379 004c 14000000 		.4byte	.LFE12
 3380 0050 00000000 		.4byte	.LFB14
 3381 0054 30000000 		.4byte	.LFE14
 3382 0058 00000000 		.4byte	.LFB16
 3383 005c 3A000000 		.4byte	.LFE16
 3384 0060 00000000 		.4byte	.LFB15
 3385 0064 14000000 		.4byte	.LFE15
 3386 0068 00000000 		.4byte	.LFB17
 3387 006c 30000000 		.4byte	.LFE17
 3388 0070 00000000 		.4byte	0
 3389 0074 00000000 		.4byte	0
 3390              		.section	.debug_line,"",%progbits
 3391              	.Ldebug_line0:
 3392 0000 BB020000 		.section	.debug_str,"MS",%progbits,1
 3392      02008B01 
 3392      00000201 
 3392      FB0E0D00 
 3392      01010101 
 3393              	.LASF37:
 3394 0000 705F6D73 		.ascii	"p_msg\000"
 3394      6700
 3395              	.LASF86:
 3396 0006 63685365 		.ascii	"chSemSignalI\000"
 3396      6D536967 
 3396      6E616C49 
 3396      00
 3397              	.LASF62:
 3398 0013 7264796D 		.ascii	"rdymsg\000"
 3398      736700
 3399              	.LASF72:
ARM GAS  C:\Users\srich\AppData\Local\Temp\ccF0kN28.s 			page 61


 3400 001a 63684D42 		.ascii	"chMBPostI\000"
 3400      506F7374 
 3400      4900
 3401              	.LASF70:
 3402 0024 63684D42 		.ascii	"chMBPostS\000"
 3402      506F7374 
 3402      5300
 3403              	.LASF61:
 3404 002e 4D61696C 		.ascii	"Mailbox\000"
 3404      626F7800 
 3405              	.LASF75:
 3406 0036 63684D42 		.ascii	"chMBPostAheadI\000"
 3406      506F7374 
 3406      41686561 
 3406      644900
 3407              	.LASF11:
 3408 0045 6C6F6E67 		.ascii	"long long unsigned int\000"
 3408      206C6F6E 
 3408      6720756E 
 3408      7369676E 
 3408      65642069 
 3409              	.LASF63:
 3410 005c 65786974 		.ascii	"exitcode\000"
 3410      636F6465 
 3410      00
 3411              	.LASF73:
 3412 0065 63684D42 		.ascii	"chMBPostAheadS\000"
 3412      506F7374 
 3412      41686561 
 3412      645300
 3413              	.LASF57:
 3414 0074 6D625F77 		.ascii	"mb_wrptr\000"
 3414      72707472 
 3414      00
 3415              	.LASF25:
 3416 007d 705F7072 		.ascii	"p_prio\000"
 3416      696F00
 3417              	.LASF10:
 3418 0084 6C6F6E67 		.ascii	"long long int\000"
 3418      206C6F6E 
 3418      6720696E 
 3418      7400
 3419              	.LASF1:
 3420 0092 7369676E 		.ascii	"signed char\000"
 3420      65642063 
 3420      68617200 
 3421              	.LASF41:
 3422 009e 705F6D70 		.ascii	"p_mpool\000"
 3422      6F6F6C00 
 3423              	.LASF52:
 3424 00a6 6D5F7175 		.ascii	"m_queue\000"
 3424      65756500 
 3425              	.LASF16:
 3426 00ae 74736C69 		.ascii	"tslices_t\000"
 3426      6365735F 
 3426      7400
 3427              	.LASF7:
ARM GAS  C:\Users\srich\AppData\Local\Temp\ccF0kN28.s 			page 62


 3428 00b8 6C6F6E67 		.ascii	"long int\000"
 3428      20696E74 
 3428      00
 3429              	.LASF14:
 3430 00c1 74737461 		.ascii	"tstate_t\000"
 3430      74655F74 
 3430      00
 3431              	.LASF83:
 3432 00ca 633A5C43 		.ascii	"c:\\ChibiStudio\\chibios/os/kernel/src/chmboxes.c\000"
 3432      68696269 
 3432      53747564 
 3432      696F5C63 
 3432      68696269 
 3433              	.LASF27:
 3434 00fa 705F6E65 		.ascii	"p_newer\000"
 3434      77657200 
 3435              	.LASF49:
 3436 0102 735F7175 		.ascii	"s_queue\000"
 3436      65756500 
 3437              	.LASF84:
 3438 010a 63685363 		.ascii	"chSchRescheduleS\000"
 3438      68526573 
 3438      63686564 
 3438      756C6553 
 3438      00
 3439              	.LASF44:
 3440 011b 72656761 		.ascii	"regarm_t\000"
 3440      726D5F74 
 3440      00
 3441              	.LASF21:
 3442 0124 636E745F 		.ascii	"cnt_t\000"
 3442      7400
 3443              	.LASF0:
 3444 012a 756E7369 		.ascii	"unsigned int\000"
 3444      676E6564 
 3444      20696E74 
 3444      00
 3445              	.LASF67:
 3446 0137 63684D42 		.ascii	"chMBInit\000"
 3446      496E6974 
 3446      00
 3447              	.LASF9:
 3448 0140 6C6F6E67 		.ascii	"long unsigned int\000"
 3448      20756E73 
 3448      69676E65 
 3448      6420696E 
 3448      7400
 3449              	.LASF60:
 3450 0152 6D625F65 		.ascii	"mb_emptysem\000"
 3450      6D707479 
 3450      73656D00 
 3451              	.LASF50:
 3452 015e 735F636E 		.ascii	"s_cnt\000"
 3452      7400
 3453              	.LASF46:
 3454 0164 636F6E74 		.ascii	"context\000"
 3454      65787400 
ARM GAS  C:\Users\srich\AppData\Local\Temp\ccF0kN28.s 			page 63


 3455              	.LASF4:
 3456 016c 73686F72 		.ascii	"short unsigned int\000"
 3456      7420756E 
 3456      7369676E 
 3456      65642069 
 3456      6E7400
 3457              	.LASF79:
 3458 017f 63684D42 		.ascii	"chMBFetchI\000"
 3458      46657463 
 3458      684900
 3459              	.LASF18:
 3460 018a 6D73675F 		.ascii	"msg_t\000"
 3460      7400
 3461              	.LASF76:
 3462 0190 63684D42 		.ascii	"chMBFetchS\000"
 3462      46657463 
 3462      685300
 3463              	.LASF13:
 3464 019b 746D6F64 		.ascii	"tmode_t\000"
 3464      655F7400 
 3465              	.LASF43:
 3466 01a3 54687265 		.ascii	"ThreadsList\000"
 3466      6164734C 
 3466      69737400 
 3467              	.LASF19:
 3468 01af 6576656E 		.ascii	"eventmask_t\000"
 3468      746D6173 
 3468      6B5F7400 
 3469              	.LASF51:
 3470 01bb 4D757465 		.ascii	"Mutex\000"
 3470      7800
 3471              	.LASF77:
 3472 01c1 6D736770 		.ascii	"msgp\000"
 3472      00
 3473              	.LASF47:
 3474 01c6 73697A65 		.ascii	"sizetype\000"
 3474      74797065 
 3474      00
 3475              	.LASF58:
 3476 01cf 6D625F72 		.ascii	"mb_rdptr\000"
 3476      64707472 
 3476      00
 3477              	.LASF68:
 3478 01d8 63684D42 		.ascii	"chMBReset\000"
 3478      52657365 
 3478      7400
 3479              	.LASF82:
 3480 01e2 474E5520 		.ascii	"GNU C 4.7.4 20140401 (release) [ARM/embedded-4_7-br"
 3480      4320342E 
 3480      372E3420 
 3480      32303134 
 3480      30343031 
 3481 0215 616E6368 		.ascii	"anch revision 209195]\000"
 3481      20726576 
 3481      6973696F 
 3481      6E203230 
 3481      39313935 
ARM GAS  C:\Users\srich\AppData\Local\Temp\ccF0kN28.s 			page 64


 3482              	.LASF28:
 3483 022b 705F6F6C 		.ascii	"p_older\000"
 3483      64657200 
 3484              	.LASF42:
 3485 0233 54687265 		.ascii	"ThreadsQueue\000"
 3485      61647351 
 3485      75657565 
 3485      00
 3486              	.LASF55:
 3487 0240 6D625F62 		.ascii	"mb_buffer\000"
 3487      75666665 
 3487      7200
 3488              	.LASF69:
 3489 024a 74696D65 		.ascii	"time\000"
 3489      00
 3490              	.LASF15:
 3491 024f 74726566 		.ascii	"trefs_t\000"
 3491      735F7400 
 3492              	.LASF24:
 3493 0257 705F7072 		.ascii	"p_prev\000"
 3493      657600
 3494              	.LASF17:
 3495 025e 74707269 		.ascii	"tprio_t\000"
 3495      6F5F7400 
 3496              	.LASF12:
 3497 0266 5F426F6F 		.ascii	"_Bool\000"
 3497      6C00
 3498              	.LASF6:
 3499 026c 696E7433 		.ascii	"int32_t\000"
 3499      325F7400 
 3500              	.LASF2:
 3501 0274 756E7369 		.ascii	"unsigned char\000"
 3501      676E6564 
 3501      20636861 
 3501      7200
 3502              	.LASF56:
 3503 0282 6D625F74 		.ascii	"mb_top\000"
 3503      6F7000
 3504              	.LASF39:
 3505 0289 705F6D74 		.ascii	"p_mtxlist\000"
 3505      786C6973 
 3505      7400
 3506              	.LASF3:
 3507 0293 73686F72 		.ascii	"short int\000"
 3507      7420696E 
 3507      7400
 3508              	.LASF30:
 3509 029d 705F7374 		.ascii	"p_state\000"
 3509      61746500 
 3510              	.LASF33:
 3511 02a5 705F7072 		.ascii	"p_preempt\000"
 3511      65656D70 
 3511      7400
 3512              	.LASF65:
 3513 02af 65776D61 		.ascii	"ewmask\000"
 3513      736B00
 3514              	.LASF23:
ARM GAS  C:\Users\srich\AppData\Local\Temp\ccF0kN28.s 			page 65


 3515 02b6 705F6E65 		.ascii	"p_next\000"
 3515      787400
 3516              	.LASF31:
 3517 02bd 705F666C 		.ascii	"p_flags\000"
 3517      61677300 
 3518              	.LASF71:
 3519 02c5 63684D42 		.ascii	"chMBPost\000"
 3519      506F7374 
 3519      00
 3520              	.LASF22:
 3521 02ce 54687265 		.ascii	"Thread\000"
 3521      616400
 3522              	.LASF38:
 3523 02d5 705F6570 		.ascii	"p_epending\000"
 3523      656E6469 
 3523      6E6700
 3524              	.LASF8:
 3525 02e0 75696E74 		.ascii	"uint32_t\000"
 3525      33325F74 
 3525      00
 3526              	.LASF66:
 3527 02e9 63686172 		.ascii	"char\000"
 3527      00
 3528              	.LASF85:
 3529 02ee 63685365 		.ascii	"chSemWaitTimeoutS\000"
 3529      6D576169 
 3529      7454696D 
 3529      656F7574 
 3529      5300
 3530              	.LASF54:
 3531 0300 6D5F6E65 		.ascii	"m_next\000"
 3531      787400
 3532              	.LASF20:
 3533 0307 73797374 		.ascii	"systime_t\000"
 3533      696D655F 
 3533      7400
 3534              	.LASF40:
 3535 0311 705F7265 		.ascii	"p_realprio\000"
 3535      616C7072 
 3535      696F00
 3536              	.LASF34:
 3537 031c 705F7469 		.ascii	"p_time\000"
 3537      6D6500
 3538              	.LASF74:
 3539 0323 63684D42 		.ascii	"chMBPostAhead\000"
 3539      506F7374 
 3539      41686561 
 3539      6400
 3540              	.LASF45:
 3541 0331 696E7463 		.ascii	"intctx\000"
 3541      747800
 3542              	.LASF36:
 3543 0338 705F6D73 		.ascii	"p_msgqueue\000"
 3543      67717565 
 3543      756500
 3544              	.LASF78:
 3545 0343 63684D42 		.ascii	"chMBFetch\000"
ARM GAS  C:\Users\srich\AppData\Local\Temp\ccF0kN28.s 			page 66


 3545      46657463 
 3545      6800
 3546              	.LASF48:
 3547 034d 53656D61 		.ascii	"Semaphore\000"
 3547      70686F72 
 3547      6500
 3548              	.LASF59:
 3549 0357 6D625F66 		.ascii	"mb_fullsem\000"
 3549      756C6C73 
 3549      656D00
 3550              	.LASF32:
 3551 0362 705F7265 		.ascii	"p_refs\000"
 3551      667300
 3552              	.LASF81:
 3553 0369 63685365 		.ascii	"chSemResetI\000"
 3553      6D526573 
 3553      65744900 
 3554              	.LASF5:
 3555 0375 75696E74 		.ascii	"uint8_t\000"
 3555      385F7400 
 3556              	.LASF64:
 3557 037d 77746F62 		.ascii	"wtobjp\000"
 3557      6A7000
 3558              	.LASF29:
 3559 0384 705F6E61 		.ascii	"p_name\000"
 3559      6D6500
 3560              	.LASF53:
 3561 038b 6D5F6F77 		.ascii	"m_owner\000"
 3561      6E657200 
 3562              	.LASF26:
 3563 0393 705F6374 		.ascii	"p_ctx\000"
 3563      7800
 3564              	.LASF35:
 3565 0399 705F7761 		.ascii	"p_waiting\000"
 3565      6974696E 
 3565      6700
 3566              	.LASF80:
 3567 03a3 63685365 		.ascii	"chSemInit\000"
 3567      6D496E69 
 3567      7400
 3568              		.ident	"GCC: (GNU Tools for ARM Embedded Processors) 4.7.4 20140401 (release) [ARM/embedded-4_7-br
ARM GAS  C:\Users\srich\AppData\Local\Temp\ccF0kN28.s 			page 67


DEFINED SYMBOLS
                            *ABS*:00000000 chmboxes.c
C:\Users\srich\AppData\Local\Temp\ccF0kN28.s:19     .text.chMBInit:00000000 $t
C:\Users\srich\AppData\Local\Temp\ccF0kN28.s:25     .text.chMBInit:00000000 chMBInit
C:\Users\srich\AppData\Local\Temp\ccF0kN28.s:70     .text.chMBReset:00000000 $t
C:\Users\srich\AppData\Local\Temp\ccF0kN28.s:76     .text.chMBReset:00000000 chMBReset
C:\Users\srich\AppData\Local\Temp\ccF0kN28.s:143    .text.chMBPostS:00000000 $t
C:\Users\srich\AppData\Local\Temp\ccF0kN28.s:149    .text.chMBPostS:00000000 chMBPostS
C:\Users\srich\AppData\Local\Temp\ccF0kN28.s:209    .text.chMBPost:00000000 $t
C:\Users\srich\AppData\Local\Temp\ccF0kN28.s:215    .text.chMBPost:00000000 chMBPost
C:\Users\srich\AppData\Local\Temp\ccF0kN28.s:256    .text.chMBPostI:00000000 $t
C:\Users\srich\AppData\Local\Temp\ccF0kN28.s:262    .text.chMBPostI:00000000 chMBPostI
C:\Users\srich\AppData\Local\Temp\ccF0kN28.s:316    .text.chMBPostAheadS:00000000 $t
C:\Users\srich\AppData\Local\Temp\ccF0kN28.s:322    .text.chMBPostAheadS:00000000 chMBPostAheadS
C:\Users\srich\AppData\Local\Temp\ccF0kN28.s:384    .text.chMBPostAhead:00000000 $t
C:\Users\srich\AppData\Local\Temp\ccF0kN28.s:390    .text.chMBPostAhead:00000000 chMBPostAhead
C:\Users\srich\AppData\Local\Temp\ccF0kN28.s:431    .text.chMBPostAheadI:00000000 $t
C:\Users\srich\AppData\Local\Temp\ccF0kN28.s:437    .text.chMBPostAheadI:00000000 chMBPostAheadI
C:\Users\srich\AppData\Local\Temp\ccF0kN28.s:495    .text.chMBFetchS:00000000 $t
C:\Users\srich\AppData\Local\Temp\ccF0kN28.s:501    .text.chMBFetchS:00000000 chMBFetchS
C:\Users\srich\AppData\Local\Temp\ccF0kN28.s:562    .text.chMBFetch:00000000 $t
C:\Users\srich\AppData\Local\Temp\ccF0kN28.s:568    .text.chMBFetch:00000000 chMBFetch
C:\Users\srich\AppData\Local\Temp\ccF0kN28.s:609    .text.chMBFetchI:00000000 $t
C:\Users\srich\AppData\Local\Temp\ccF0kN28.s:615    .text.chMBFetchI:00000000 chMBFetchI
                     .debug_frame:00000010 $d

UNDEFINED SYMBOLS
chSemInit
chSemResetI
chSchRescheduleS
chSemWaitTimeoutS
chSemSignalI
