ARM GAS  C:\Users\DNIEL~1\AppData\Local\Temp\ccPZN4ee.s 			page 1


   1              		.syntax unified
   2              		.cpu cortex-m3
   3              		.fpu softvfp
   4              		.eabi_attribute 20, 1
   5              		.eabi_attribute 21, 1
   6              		.eabi_attribute 23, 3
   7              		.eabi_attribute 24, 1
   8              		.eabi_attribute 25, 1
   9              		.eabi_attribute 26, 1
  10              		.eabi_attribute 30, 2
  11              		.eabi_attribute 18, 4
  12              		.thumb
  13              		.file	"chmempools.c"
  20 0000 5E020000 		.text
  20      02007801 
  20      00000201 
  20      FB0E0D00 
  20      01010101 
  21              	.Ltext0:
  22              		.cfi_sections	.debug_frame
  23              		.section	.text.chPoolInit,"ax",%progbits
  24              		.align	2
  25              		.p2align 4,,15
  26              		.global	chPoolInit
  27              		.thumb
  28              		.thumb_func
  29              		.type	chPoolInit, %function
  30              	chPoolInit:
  31              	.LFB7:
  32              		.file 1 "../../../ChibiOS/os/kernel/src/chmempools.c"
  33              		.loc 1 57 0
  34              		.cfi_startproc
  35              		@ args = 0, pretend = 0, frame = 0
  36              		@ frame_needed = 0, uses_anonymous_args = 0
  37              	.LVL0:
  38 0000 70B5     		push	{r4, r5, r6, lr}
  39              	.LCFI0:
  40              		.cfi_def_cfa_offset 16
  41              		.loc 1 59 0
  42 0002 0446     		mov	r4, r0
  43              		.cfi_offset 14, -4
  44              		.cfi_offset 6, -8
  45              		.cfi_offset 5, -12
  46              		.cfi_offset 4, -16
  47              		.loc 1 57 0
  48 0004 0D46     		mov	r5, r1
  49 0006 1646     		mov	r6, r2
  50              		.loc 1 59 0
  51 0008 08B1     		cbz	r0, .L2
  52              		.loc 1 59 0 is_stmt 0 discriminator 2
  53 000a 0329     		cmp	r1, #3
ARM GAS  C:\Users\DNIEL~1\AppData\Local\Temp\ccPZN4ee.s 			page 2


  54 000c 02D8     		bhi	.L3
  55              	.L2:
  56              		.loc 1 59 0 discriminator 1
  57 000e 0448     		ldr	r0, .L5
  58              	.LVL1:
  59 0010 FFF7FEFF 		bl	chDbgPanic
  60              	.LVL2:
  61              	.L3:
  62              		.loc 1 61 0 is_stmt 1
  63 0014 0023     		movs	r3, #0
  64 0016 2360     		str	r3, [r4, #0]
  65              		.loc 1 62 0
  66 0018 6560     		str	r5, [r4, #4]
  67              		.loc 1 63 0
  68 001a A660     		str	r6, [r4, #8]
  69              		.loc 1 64 0
  70 001c 70BD     		pop	{r4, r5, r6, pc}
  71              	.L6:
  72 001e 00BF     		.align	2
  73              	.L5:
  74 0020 00000000 		.word	.LC0
  75              		.cfi_endproc
  76              	.LFE7:
  77              		.size	chPoolInit, .-chPoolInit
  78 0024 AFF30080 		.section	.text.chPoolAllocI,"ax",%progbits
  78      AFF30080 
  78      AFF30080 
  79              		.align	2
  80              		.p2align 4,,15
  81              		.global	chPoolAllocI
  82              		.thumb
  83              		.thumb_func
  84              		.type	chPoolAllocI, %function
  85              	chPoolAllocI:
  86              	.LFB9:
  87              		.loc 1 100 0
  88              		.cfi_startproc
  89              		@ args = 0, pretend = 0, frame = 0
  90              		@ frame_needed = 0, uses_anonymous_args = 0
  91              	.LVL3:
  92 0000 10B5     		push	{r4, lr}
  93              	.LCFI1:
  94              		.cfi_def_cfa_offset 8
  95              		.loc 1 100 0
  96 0002 0446     		mov	r4, r0
  97              		.cfi_offset 14, -4
  98              		.cfi_offset 4, -8
  99              		.loc 1 103 0
 100 0004 FFF7FEFF 		bl	chDbgCheckClassI
 101              	.LVL4:
 102              		.loc 1 104 0
 103 0008 4CB1     		cbz	r4, .L11
 104              	.L8:
 105              		.loc 1 106 0
 106 000a 2068     		ldr	r0, [r4, #0]
 107              	.LVL5:
 108 000c 10B1     		cbz	r0, .L9
ARM GAS  C:\Users\DNIEL~1\AppData\Local\Temp\ccPZN4ee.s 			page 3


 109              		.loc 1 107 0
 110 000e 0368     		ldr	r3, [r0, #0]
 111 0010 2360     		str	r3, [r4, #0]
 112 0012 10BD     		pop	{r4, pc}
 113              	.L9:
 114              		.loc 1 108 0
 115 0014 A368     		ldr	r3, [r4, #8]
 116 0016 0BB1     		cbz	r3, .L10
 117              		.loc 1 109 0
 118 0018 6068     		ldr	r0, [r4, #4]
 119 001a 9847     		blx	r3
 120              	.LVL6:
 121              	.L10:
 122              		.loc 1 111 0
 123 001c 10BD     		pop	{r4, pc}
 124              	.LVL7:
 125              	.L11:
 126              		.loc 1 104 0 discriminator 1
 127 001e 0248     		ldr	r0, .L12
 128 0020 FFF7FEFF 		bl	chDbgPanic
 129 0024 F1E7     		b	.L8
 130              	.L13:
 131 0026 00BF     		.align	2
 132              	.L12:
 133 0028 10000000 		.word	.LC1
 134              		.cfi_endproc
 135              	.LFE9:
 136              		.size	chPoolAllocI, .-chPoolAllocI
 137 002c AFF30080 		.section	.text.chPoolAlloc,"ax",%progbits
 138              		.align	2
 139              		.p2align 4,,15
 140              		.global	chPoolAlloc
 141              		.thumb
 142              		.thumb_func
 143              		.type	chPoolAlloc, %function
 144              	chPoolAlloc:
 145              	.LFB10:
 146              		.loc 1 123 0
 147              		.cfi_startproc
 148              		@ args = 0, pretend = 0, frame = 0
 149              		@ frame_needed = 0, uses_anonymous_args = 0
 150              	.LVL8:
 151 0000 10B5     		push	{r4, lr}
 152              	.LCFI2:
 153              		.cfi_def_cfa_offset 8
 154              	.LBB2:
 155              		.loc 1 126 0
 156 0002 2023     		movs	r3, #32
 157              	.LVL9:
 158              	.LBE2:
 159              		.loc 1 123 0
 160 0004 0446     		mov	r4, r0
 161              		.cfi_offset 14, -4
 162              		.cfi_offset 4, -8
 163              	.LBB3:
 164              		.loc 1 126 0
 165              	@ 126 "../../../ChibiOS/os/kernel/src/chmempools.c" 1
ARM GAS  C:\Users\DNIEL~1\AppData\Local\Temp\ccPZN4ee.s 			page 4


 166 0006 83F31188 		msr     BASEPRI, r3
 167              	@ 0 "" 2
 168              	.LVL10:
 169              		.thumb
 170              	.LBE3:
 171 000a FFF7FEFF 		bl	dbg_check_lock
 172              	.LVL11:
 173              		.loc 1 127 0
 174 000e 2046     		mov	r0, r4
 175 0010 FFF7FEFF 		bl	chPoolAllocI
 176 0014 0446     		mov	r4, r0
 177              	.LVL12:
 178              		.loc 1 128 0
 179 0016 FFF7FEFF 		bl	dbg_check_unlock
 180              	.LVL13:
 181              	.LBB4:
 182 001a 0023     		movs	r3, #0
 183              	.LVL14:
 184              	@ 128 "../../../ChibiOS/os/kernel/src/chmempools.c" 1
 185 001c 83F31188 		msr     BASEPRI, r3
 186              	@ 0 "" 2
 187              	.LVL15:
 188              		.thumb
 189              	.LBE4:
 190              		.loc 1 130 0
 191 0020 2046     		mov	r0, r4
 192 0022 10BD     		pop	{r4, pc}
 193              		.cfi_endproc
 194              	.LFE10:
 195              		.size	chPoolAlloc, .-chPoolAlloc
 196 0024 AFF30080 		.section	.text.chPoolFreeI,"ax",%progbits
 196      AFF30080 
 196      AFF30080 
 197              		.align	2
 198              		.p2align 4,,15
 199              		.global	chPoolFreeI
 200              		.thumb
 201              		.thumb_func
 202              		.type	chPoolFreeI, %function
 203              	chPoolFreeI:
 204              	.LFB11:
 205              		.loc 1 144 0
 206              		.cfi_startproc
 207              		@ args = 0, pretend = 0, frame = 0
 208              		@ frame_needed = 0, uses_anonymous_args = 0
 209              	.LVL16:
 210 0000 38B5     		push	{r3, r4, r5, lr}
 211              	.LCFI3:
 212              		.cfi_def_cfa_offset 16
 213              		.loc 1 144 0
 214 0002 0446     		mov	r4, r0
 215              		.cfi_offset 14, -4
 216              		.cfi_offset 5, -8
 217              		.cfi_offset 4, -12
 218              		.cfi_offset 3, -16
 219 0004 0D46     		mov	r5, r1
 220              	.LVL17:
ARM GAS  C:\Users\DNIEL~1\AppData\Local\Temp\ccPZN4ee.s 			page 5


 221              		.loc 1 147 0
 222 0006 FFF7FEFF 		bl	chDbgCheckClassI
 223              	.LVL18:
 224              		.loc 1 148 0
 225 000a 24B1     		cbz	r4, .L16
 226              		.loc 1 148 0 is_stmt 0 discriminator 2
 227 000c 1DB1     		cbz	r5, .L16
 228              		.loc 1 150 0 is_stmt 1
 229 000e 2368     		ldr	r3, [r4, #0]
 230 0010 2B60     		str	r3, [r5, #0]
 231              		.loc 1 151 0
 232 0012 2560     		str	r5, [r4, #0]
 233              		.loc 1 152 0
 234 0014 38BD     		pop	{r3, r4, r5, pc}
 235              	.L16:
 236              		.loc 1 148 0 discriminator 1
 237 0016 0348     		ldr	r0, .L18
 238 0018 FFF7FEFF 		bl	chDbgPanic
 239              		.loc 1 150 0 discriminator 1
 240 001c 2368     		ldr	r3, [r4, #0]
 241 001e 2B60     		str	r3, [r5, #0]
 242              		.loc 1 151 0 discriminator 1
 243 0020 2560     		str	r5, [r4, #0]
 244              		.loc 1 152 0 discriminator 1
 245 0022 38BD     		pop	{r3, r4, r5, pc}
 246              	.L19:
 247              		.align	2
 248              	.L18:
 249 0024 24000000 		.word	.LC2
 250              		.cfi_endproc
 251              	.LFE11:
 252              		.size	chPoolFreeI, .-chPoolFreeI
 253 0028 AFF30080 		.section	.text.chPoolFree,"ax",%progbits
 253      AFF30080 
 254              		.align	2
 255              		.p2align 4,,15
 256              		.global	chPoolFree
 257              		.thumb
 258              		.thumb_func
 259              		.type	chPoolFree, %function
 260              	chPoolFree:
 261              	.LFB12:
 262              		.loc 1 166 0
 263              		.cfi_startproc
 264              		@ args = 0, pretend = 0, frame = 0
 265              		@ frame_needed = 0, uses_anonymous_args = 0
 266              	.LVL19:
 267 0000 38B5     		push	{r3, r4, r5, lr}
 268              	.LCFI4:
 269              		.cfi_def_cfa_offset 16
 270              		.loc 1 166 0
 271 0002 0546     		mov	r5, r0
 272              		.cfi_offset 14, -4
 273              		.cfi_offset 5, -8
 274              		.cfi_offset 4, -12
 275              		.cfi_offset 3, -16
 276 0004 0C46     		mov	r4, r1
ARM GAS  C:\Users\DNIEL~1\AppData\Local\Temp\ccPZN4ee.s 			page 6


 277              	.LBB5:
 278              		.loc 1 168 0
 279 0006 2023     		movs	r3, #32
 280              	.LVL20:
 281              	@ 168 "../../../ChibiOS/os/kernel/src/chmempools.c" 1
 282 0008 83F31188 		msr     BASEPRI, r3
 283              	@ 0 "" 2
 284              	.LVL21:
 285              		.thumb
 286              	.LBE5:
 287 000c FFF7FEFF 		bl	dbg_check_lock
 288              	.LVL22:
 289              		.loc 1 169 0
 290 0010 2846     		mov	r0, r5
 291 0012 2146     		mov	r1, r4
 292 0014 FFF7FEFF 		bl	chPoolFreeI
 293              		.loc 1 170 0
 294 0018 FFF7FEFF 		bl	dbg_check_unlock
 295              	.LBB6:
 296 001c 0023     		movs	r3, #0
 297              	.LVL23:
 298              	@ 170 "../../../ChibiOS/os/kernel/src/chmempools.c" 1
 299 001e 83F31188 		msr     BASEPRI, r3
 300              	@ 0 "" 2
 301              	.LVL24:
 302              		.thumb
 303              	.LBE6:
 304              		.loc 1 171 0
 305 0022 38BD     		pop	{r3, r4, r5, pc}
 306              		.cfi_endproc
 307              	.LFE12:
 308              		.size	chPoolFree, .-chPoolFree
 309 0024 AFF30080 		.section	.text.chPoolLoadArray,"ax",%progbits
 309      AFF30080 
 309      AFF30080 
 310              		.align	2
 311              		.p2align 4,,15
 312              		.global	chPoolLoadArray
 313              		.thumb
 314              		.thumb_func
 315              		.type	chPoolLoadArray, %function
 316              	chPoolLoadArray:
 317              	.LFB8:
 318              		.loc 1 79 0
 319              		.cfi_startproc
 320              		@ args = 0, pretend = 0, frame = 8
 321              		@ frame_needed = 0, uses_anonymous_args = 0
 322              	.LVL25:
 323 0000 F0B5     		push	{r4, r5, r6, r7, lr}
 324              	.LCFI5:
 325              		.cfi_def_cfa_offset 20
 326              		.loc 1 81 0
 327 0002 0446     		mov	r4, r0
 328              		.cfi_offset 14, -4
 329              		.cfi_offset 7, -8
 330              		.cfi_offset 6, -12
 331              		.cfi_offset 5, -16
ARM GAS  C:\Users\DNIEL~1\AppData\Local\Temp\ccPZN4ee.s 			page 7


 332              		.cfi_offset 4, -20
 333              		.loc 1 79 0
 334 0004 83B0     		sub	sp, sp, #12
 335              	.LCFI6:
 336              		.cfi_def_cfa_offset 32
 337              		.loc 1 79 0
 338 0006 0D46     		mov	r5, r1
 339              		.loc 1 81 0
 340 0008 0028     		cmp	r0, #0
 341 000a 2CD0     		beq	.L22
 342              		.loc 1 81 0 is_stmt 0 discriminator 2
 343 000c 002A     		cmp	r2, #0
 344 000e 24D0     		beq	.L23
 345              	.LVL26:
 346              	.L33:
 347              		.loc 1 84 0 is_stmt 1
 348 0010 2946     		mov	r1, r5
 349 0012 2046     		mov	r0, r4
 350 0014 571E     		subs	r7, r2, #1
 351 0016 FFF7FEFF 		bl	chPoolFree
 352              	.LVL27:
 353              		.loc 1 85 0
 354 001a 6368     		ldr	r3, [r4, #4]
 355              		.loc 1 83 0
 356 001c 3E46     		mov	r6, r7
 357              		.loc 1 85 0
 358 001e ED18     		adds	r5, r5, r3
 359              	.LVL28:
 360 0020 07F00107 		and	r7, r7, #1
 361              		.loc 1 83 0
 362 0024 BEB1     		cbz	r6, .L21
 363 0026 3FB1     		cbz	r7, .L27
 364              		.loc 1 84 0
 365 0028 2946     		mov	r1, r5
 366 002a 2046     		mov	r0, r4
 367 002c FFF7FEFF 		bl	chPoolFree
 368              		.loc 1 85 0
 369 0030 6268     		ldr	r2, [r4, #4]
 370              		.loc 1 83 0
 371 0032 013E     		subs	r6, r6, #1
 372              		.loc 1 85 0
 373 0034 1544     		add	r5, r5, r2
 374              		.loc 1 83 0
 375 0036 0ED0     		beq	.L21
 376              	.L27:
 377              		.loc 1 84 0
 378 0038 2946     		mov	r1, r5
 379 003a 2046     		mov	r0, r4
 380 003c FFF7FEFF 		bl	chPoolFree
 381              		.loc 1 85 0
 382 0040 6168     		ldr	r1, [r4, #4]
 383              		.loc 1 84 0
 384 0042 2046     		mov	r0, r4
 385              		.loc 1 85 0
 386 0044 6D18     		adds	r5, r5, r1
 387              		.loc 1 84 0
 388 0046 2946     		mov	r1, r5
ARM GAS  C:\Users\DNIEL~1\AppData\Local\Temp\ccPZN4ee.s 			page 8


 389 0048 FFF7FEFF 		bl	chPoolFree
 390              		.loc 1 86 0
 391 004c 013E     		subs	r6, r6, #1
 392              		.loc 1 85 0
 393 004e 6068     		ldr	r0, [r4, #4]
 394              		.loc 1 83 0
 395 0050 013E     		subs	r6, r6, #1
 396              		.loc 1 85 0
 397 0052 0544     		add	r5, r5, r0
 398              		.loc 1 83 0
 399 0054 F0D1     		bne	.L27
 400              	.L21:
 401              		.loc 1 88 0
 402 0056 03B0     		add	sp, sp, #12
 403 0058 F0BD     		pop	{r4, r5, r6, r7, pc}
 404              	.LVL29:
 405              	.L23:
 406              		.loc 1 81 0
 407 005a 0748     		ldr	r0, .L35
 408              		.loc 1 88 0
 409 005c 03B0     		add	sp, sp, #12
 410 005e BDE8F040 		pop	{r4, r5, r6, r7, lr}
 411              		.loc 1 81 0
 412 0062 FFF7FEBF 		b	chDbgPanic
 413              	.LVL30:
 414              	.L22:
 415              		.loc 1 81 0 is_stmt 0 discriminator 1
 416 0066 0448     		ldr	r0, .L35
 417 0068 0192     		str	r2, [sp, #4]
 418 006a FFF7FEFF 		bl	chDbgPanic
 419              	.LVL31:
 420              		.loc 1 83 0 is_stmt 1 discriminator 1
 421 006e 019A     		ldr	r2, [sp, #4]
 422 0070 002A     		cmp	r2, #0
 423 0072 CDD1     		bne	.L33
 424 0074 EFE7     		b	.L21
 425              	.L36:
 426 0076 00BF     		.align	2
 427              	.L35:
 428 0078 34000000 		.word	.LC3
 429              		.cfi_endproc
 430              	.LFE8:
 431              		.size	chPoolLoadArray, .-chPoolLoadArray
 432 007c AFF30080 		.section	.rodata.str1.4,"aMS",%progbits,1
 433              		.align	2
 434              	.LC0:
 435 0000 22636850 		.ascii	"\"chPoolInit\"()\000"
 435      6F6F6C49 
 435      6E697422 
 435      282900
 436 000f 00       		.space	1
 437              	.LC1:
 438 0010 22636850 		.ascii	"\"chPoolAllocI\"()\000"
 438      6F6F6C41 
 438      6C6C6F63 
 438      49222829 
 438      00
ARM GAS  C:\Users\DNIEL~1\AppData\Local\Temp\ccPZN4ee.s 			page 9


 439 0021 000000   		.space	3
 440              	.LC2:
 441 0024 22636850 		.ascii	"\"chPoolFreeI\"()\000"
 441      6F6F6C46 
 441      72656549 
 441      22282900 
 442              	.LC3:
 443 0034 22636850 		.ascii	"\"chPoolLoadArray\"()\000"
 443      6F6F6C4C 
 443      6F616441 
 443      72726179 
 443      22282900 
 444              		.text
 445              	.Letext0: