ARM GAS  C:\Users\srich\AppData\Local\Temp\ccTL03Vr.s 			page 1


   1              		.syntax unified
   2              		.cpu cortex-m4
   3              		.fpu softvfp
   4              		.eabi_attribute 20, 1
   5              		.eabi_attribute 21, 1
   6              		.eabi_attribute 23, 3
   7              		.eabi_attribute 24, 1
   8              		.eabi_attribute 25, 1
   9              		.eabi_attribute 26, 1
  10              		.eabi_attribute 30, 2
  11              		.eabi_attribute 34, 1
  12              		.eabi_attribute 18, 4
  13              		.thumb
  14              		.file	"chmtx.c"
  15              		.text
  16              	.Ltext0:
  17              		.cfi_sections	.debug_frame
  18              		.section	.text.chMtxInit,"ax",%progbits
  19              		.align	2
  20              		.p2align 4,,15
  21              		.global	chMtxInit
  22              		.thumb
  23              		.thumb_func
  24              		.type	chMtxInit, %function
  25              	chMtxInit:
  26              	.LFB7:
  27              		.file 1 "c:\\ChibiStudio\\chibios/os/kernel/src/chmtx.c"
  28              		.loc 1 86 0
  29              		.cfi_startproc
  30              		@ args = 0, pretend = 0, frame = 0
  31              		@ frame_needed = 0, uses_anonymous_args = 0
  32              		@ link register save eliminated.
  33              	.LVL0:
  34              		.loc 1 91 0
  35 0000 0023     		movs	r3, #0
  36              		.loc 1 90 0
  37 0002 4060     		str	r0, [r0, #4]
  38 0004 0060     		str	r0, [r0, #0]
  39              		.loc 1 91 0
  40 0006 8360     		str	r3, [r0, #8]
  41 0008 7047     		bx	lr
  42              		.cfi_endproc
  43              	.LFE7:
  44              		.size	chMtxInit, .-chMtxInit
  45 000a 00BFAFF3 		.section	.text.chMtxLockS,"ax",%progbits
  45      0080
  46              		.align	2
  47              		.p2align 4,,15
  48              		.global	chMtxLockS
  49              		.thumb
  50              		.thumb_func
  51              		.type	chMtxLockS, %function
  52              	chMtxLockS:
  53              	.LFB9:
  54              		.loc 1 121 0
  55              		.cfi_startproc
  56              		@ args = 0, pretend = 0, frame = 0
ARM GAS  C:\Users\srich\AppData\Local\Temp\ccTL03Vr.s 			page 2


  57              		@ frame_needed = 0, uses_anonymous_args = 0
  58              	.LVL1:
  59 0000 F8B5     		push	{r3, r4, r5, r6, r7, lr}
  60              	.LCFI0:
  61              		.cfi_def_cfa_offset 24
  62              		.cfi_offset 3, -24
  63              		.cfi_offset 4, -20
  64              		.cfi_offset 5, -16
  65              		.cfi_offset 6, -12
  66              		.cfi_offset 7, -8
  67              		.cfi_offset 14, -4
  68              		.loc 1 122 0
  69 0002 2F4A     		ldr	r2, .L27
  70              		.loc 1 128 0
  71 0004 8368     		ldr	r3, [r0, #8]
  72              		.loc 1 122 0
  73 0006 9469     		ldr	r4, [r2, #24]
  74              	.LVL2:
  75              		.loc 1 121 0
  76 0008 0546     		mov	r5, r0
  77              		.loc 1 128 0
  78 000a 002B     		cmp	r3, #0
  79 000c 51D0     		beq	.L3
  80              	.LVL3:
  81              	.LBB33:
  82              		.loc 1 135 0 discriminator 1
  83 000e A168     		ldr	r1, [r4, #8]
  84 0010 9868     		ldr	r0, [r3, #8]
  85              	.LVL4:
  86 0012 8142     		cmp	r1, r0
  87 0014 06D9     		bls	.L5
  88              	.L20:
  89              		.loc 1 139 0
  90 0016 1A7F     		ldrb	r2, [r3, #28]	@ zero_extendqisi2
  91              		.loc 1 137 0
  92 0018 9960     		str	r1, [r3, #8]
  93              		.loc 1 139 0
  94 001a 042A     		cmp	r2, #4
  95 001c 31D0     		beq	.L7
  96 001e 052A     		cmp	r2, #5
  97 0020 1CD0     		beq	.L8
  98 0022 92B1     		cbz	r2, .L6
  99              	.LVL5:
 100              	.L5:
 101              		.file 2 "c:\\ChibiStudio\\chibios/os/kernel/include/chinline.h"
 102              		.loc 2 43 0
 103 0024 2846     		mov	r0, r5
 104              	.LVL6:
 105              	.L18:
 106              	.LBB34:
 107              	.LBB35:
 108              		.loc 2 45 0
 109 0026 0068     		ldr	r0, [r0, #0]
 110              	.LVL7:
 111              		.loc 2 46 0
 112 0028 8542     		cmp	r5, r0
 113 002a 03D0     		beq	.L19
ARM GAS  C:\Users\srich\AppData\Local\Temp\ccTL03Vr.s 			page 3


 114 002c 8368     		ldr	r3, [r0, #8]
 115 002e A168     		ldr	r1, [r4, #8]
 116 0030 8B42     		cmp	r3, r1
 117 0032 F8D2     		bcs	.L18
 118              	.L19:
 119              		.loc 2 48 0
 120 0034 4268     		ldr	r2, [r0, #4]
 121              		.loc 2 47 0
 122 0036 2060     		str	r0, [r4, #0]
 123              		.loc 2 48 0
 124 0038 6260     		str	r2, [r4, #4]
 125              		.loc 2 49 0
 126 003a 4460     		str	r4, [r0, #4]
 127              	.LBE35:
 128              	.LBE34:
 129              		.loc 1 175 0
 130 003c 0420     		movs	r0, #4
 131              	.LVL8:
 132              	.LBB37:
 133              	.LBB36:
 134              		.loc 2 49 0
 135 003e 1460     		str	r4, [r2, #0]
 136              	.LBE36:
 137              	.LBE37:
 138              		.loc 1 174 0
 139 0040 6562     		str	r5, [r4, #36]
 140              	.LBE33:
 141              		.loc 1 187 0
 142 0042 BDE8F840 		pop	{r3, r4, r5, r6, r7, lr}
 143              	.LBB60:
 144              		.loc 1 175 0
 145 0046 FFF7FEBF 		b	chSchGoSleepS
 146              	.LVL9:
 147              	.L6:
 148              	.LBB38:
 149              	.LBB39:
 150              		.loc 2 75 0
 151 004a 93E80600 		ldmia	r3, {r1, r2}
 152 004e 1160     		str	r1, [r2, #0]
 153              		.loc 2 76 0
 154 0050 1968     		ldr	r1, [r3, #0]
 155              	.LBE39:
 156              	.LBE38:
 157              		.loc 1 167 0
 158 0052 1846     		mov	r0, r3
 159              	.LBB41:
 160              	.LBB40:
 161              		.loc 2 76 0
 162 0054 4A60     		str	r2, [r1, #4]
 163              	.LBE40:
 164              	.LBE41:
 165              		.loc 1 167 0
 166 0056 FFF7FEFF 		bl	chSchReadyI
 167              	.LVL10:
 168              		.loc 1 168 0
 169 005a E3E7     		b	.L5
 170              	.LVL11:
ARM GAS  C:\Users\srich\AppData\Local\Temp\ccTL03Vr.s 			page 4


 171              	.L8:
 172              	.LBB42:
 173              	.LBB43:
 174              		.loc 2 75 0
 175 005c 5868     		ldr	r0, [r3, #4]
 176 005e 1F68     		ldr	r7, [r3, #0]
 177              	.LBE43:
 178              	.LBE42:
 179              		.loc 1 158 0
 180 0060 5E6A     		ldr	r6, [r3, #36]
 181              	.LVL12:
 182              	.LBB46:
 183              	.LBB44:
 184              		.loc 2 75 0
 185 0062 0760     		str	r7, [r0, #0]
 186              		.loc 2 76 0
 187 0064 1F68     		ldr	r7, [r3, #0]
 188              	.LBE44:
 189              	.LBE46:
 190              		.loc 2 43 0
 191 0066 3246     		mov	r2, r6
 192              	.LBB47:
 193              	.LBB45:
 194              		.loc 2 76 0
 195 0068 7860     		str	r0, [r7, #4]
 196              	.LVL13:
 197              	.L15:
 198              	.LBE45:
 199              	.LBE47:
 200              	.LBB48:
 201              	.LBB49:
 202              		.loc 2 45 0
 203 006a 1268     		ldr	r2, [r2, #0]
 204              	.LVL14:
 205              		.loc 2 46 0
 206 006c 9642     		cmp	r6, r2
 207 006e 02D0     		beq	.L16
 208 0070 9068     		ldr	r0, [r2, #8]
 209 0072 8842     		cmp	r0, r1
 210 0074 F9D2     		bcs	.L15
 211              	.L16:
 212              		.loc 2 48 0
 213 0076 5168     		ldr	r1, [r2, #4]
 214              		.loc 2 47 0
 215 0078 1A60     		str	r2, [r3, #0]
 216              		.loc 2 48 0
 217 007a 5960     		str	r1, [r3, #4]
 218              		.loc 2 49 0
 219 007c 0B60     		str	r3, [r1, #0]
 220 007e 5360     		str	r3, [r2, #4]
 221 0080 D0E7     		b	.L5
 222              	.LVL15:
 223              	.L7:
 224              	.LBE49:
 225              	.LBE48:
 226              	.LBB50:
 227              	.LBB51:
ARM GAS  C:\Users\srich\AppData\Local\Temp\ccTL03Vr.s 			page 5


 228              		.loc 2 75 0
 229 0082 5868     		ldr	r0, [r3, #4]
 230 0084 1F68     		ldr	r7, [r3, #0]
 231              	.LBE51:
 232              	.LBE50:
 233              		.loc 1 142 0
 234 0086 5E6A     		ldr	r6, [r3, #36]
 235              	.LVL16:
 236              	.LBB54:
 237              	.LBB52:
 238              		.loc 2 75 0
 239 0088 0760     		str	r7, [r0, #0]
 240              		.loc 2 76 0
 241 008a 1F68     		ldr	r7, [r3, #0]
 242              	.LBE52:
 243              	.LBE54:
 244              		.loc 1 142 0
 245 008c 3246     		mov	r2, r6
 246              	.LBB55:
 247              	.LBB53:
 248              		.loc 2 76 0
 249 008e 7860     		str	r0, [r7, #4]
 250              	.LVL17:
 251              	.L12:
 252              	.LBE53:
 253              	.LBE55:
 254              	.LBB56:
 255              	.LBB57:
 256              		.loc 2 45 0
 257 0090 1268     		ldr	r2, [r2, #0]
 258              	.LVL18:
 259              		.loc 2 46 0
 260 0092 9642     		cmp	r6, r2
 261 0094 12D0     		beq	.L26
 262 0096 9068     		ldr	r0, [r2, #8]
 263 0098 8842     		cmp	r0, r1
 264 009a F9D2     		bcs	.L12
 265              	.LVL19:
 266              	.L13:
 267              		.loc 2 48 0
 268 009c 5168     		ldr	r1, [r2, #4]
 269              		.loc 2 47 0
 270 009e 1A60     		str	r2, [r3, #0]
 271              		.loc 2 48 0
 272 00a0 5960     		str	r1, [r3, #4]
 273              		.loc 2 49 0
 274 00a2 0B60     		str	r3, [r1, #0]
 275 00a4 5360     		str	r3, [r2, #4]
 276              	.LBE57:
 277              	.LBE56:
 278              		.loc 1 143 0
 279 00a6 B368     		ldr	r3, [r6, #8]
 280              	.LVL20:
 281              		.loc 1 135 0
 282 00a8 A168     		ldr	r1, [r4, #8]
 283 00aa 9A68     		ldr	r2, [r3, #8]
 284              	.LVL21:
ARM GAS  C:\Users\srich\AppData\Local\Temp\ccTL03Vr.s 			page 6


 285 00ac 8A42     		cmp	r2, r1
 286 00ae B2D3     		bcc	.L20
 287 00b0 B8E7     		b	.L5
 288              	.LVL22:
 289              	.L3:
 290              	.LBE60:
 291              		.loc 1 184 0
 292 00b2 E36B     		ldr	r3, [r4, #60]
 293              		.loc 1 183 0
 294 00b4 8460     		str	r4, [r0, #8]
 295              		.loc 1 184 0
 296 00b6 C360     		str	r3, [r0, #12]
 297              		.loc 1 185 0
 298 00b8 E063     		str	r0, [r4, #60]
 299 00ba F8BD     		pop	{r3, r4, r5, r6, r7, pc}
 300              	.LVL23:
 301              	.L26:
 302              	.LBB61:
 303              	.LBB59:
 304              	.LBB58:
 305              		.loc 2 46 0
 306 00bc 3246     		mov	r2, r6
 307              	.LVL24:
 308 00be EDE7     		b	.L13
 309              	.L28:
 310              		.align	2
 311              	.L27:
 312 00c0 00000000 		.word	rlist
 313              	.LBE58:
 314              	.LBE59:
 315              	.LBE61:
 316              		.cfi_endproc
 317              	.LFE9:
 318              		.size	chMtxLockS, .-chMtxLockS
 319 00c4 AFF30080 		.section	.text.chMtxLock,"ax",%progbits
 319      AFF30080 
 319      AFF30080 
 320              		.align	2
 321              		.p2align 4,,15
 322              		.global	chMtxLock
 323              		.thumb
 324              		.thumb_func
 325              		.type	chMtxLock, %function
 326              	chMtxLock:
 327              	.LFB8:
 328              		.loc 1 103 0
 329              		.cfi_startproc
 330              		@ args = 0, pretend = 0, frame = 0
 331              		@ frame_needed = 0, uses_anonymous_args = 0
 332              	.LVL25:
 333 0000 08B5     		push	{r3, lr}
 334              	.LCFI1:
 335              		.cfi_def_cfa_offset 8
 336              		.cfi_offset 3, -8
 337              		.cfi_offset 14, -4
 338              	.LBB62:
 339              		.loc 1 105 0
ARM GAS  C:\Users\srich\AppData\Local\Temp\ccTL03Vr.s 			page 7


 340 0002 2023     		movs	r3, #32
 341              	.LVL26:
 342              	@ 105 "c:\ChibiStudio\chibios/os/kernel/src/chmtx.c" 1
 343 0004 83F31188 		msr     BASEPRI, r3
 344              	@ 0 "" 2
 345              	.LVL27:
 346              		.thumb
 347              	.LBE62:
 348              		.loc 1 107 0
 349 0008 FFF7FEFF 		bl	chMtxLockS
 350              	.LVL28:
 351              	.LBB63:
 352              		.loc 1 109 0
 353 000c 0023     		movs	r3, #0
 354              	.LVL29:
 355              	@ 109 "c:\ChibiStudio\chibios/os/kernel/src/chmtx.c" 1
 356 000e 83F31188 		msr     BASEPRI, r3
 357              	@ 0 "" 2
 358              	.LVL30:
 359              		.thumb
 360 0012 08BD     		pop	{r3, pc}
 361              	.LBE63:
 362              		.cfi_endproc
 363              	.LFE8:
 364              		.size	chMtxLock, .-chMtxLock
 365 0014 AFF30080 		.section	.text.chMtxTryLock,"ax",%progbits
 365      AFF30080 
 365      AFF30080 
 366              		.align	2
 367              		.p2align 4,,15
 368              		.global	chMtxTryLock
 369              		.thumb
 370              		.thumb_func
 371              		.type	chMtxTryLock, %function
 372              	chMtxTryLock:
 373              	.LFB10:
 374              		.loc 1 206 0
 375              		.cfi_startproc
 376              		@ args = 0, pretend = 0, frame = 0
 377              		@ frame_needed = 0, uses_anonymous_args = 0
 378              		@ link register save eliminated.
 379              	.LVL31:
 380              		.loc 1 206 0
 381 0000 0246     		mov	r2, r0
 382              	.LBB64:
 383              		.loc 1 209 0
 384 0002 2023     		movs	r3, #32
 385              	.LVL32:
 386              	@ 209 "c:\ChibiStudio\chibios/os/kernel/src/chmtx.c" 1
 387 0004 83F31188 		msr     BASEPRI, r3
 388              	@ 0 "" 2
 389              	.LVL33:
 390              		.thumb
 391              	.LBE64:
 392              	.LBB65:
 393              	.LBB66:
 394              		.loc 1 239 0
ARM GAS  C:\Users\srich\AppData\Local\Temp\ccTL03Vr.s 			page 8


 395 0008 8368     		ldr	r3, [r0, #8]
 396              	.LVL34:
 397 000a 23B1     		cbz	r3, .L33
 398              		.loc 1 240 0
 399 000c 0020     		movs	r0, #0
 400              	.LVL35:
 401              	.L31:
 402              	.LBE66:
 403              	.LBE65:
 404              	.LBB68:
 405              		.loc 1 213 0
 406 000e 0023     		movs	r3, #0
 407              	.LVL36:
 408              	@ 213 "c:\ChibiStudio\chibios/os/kernel/src/chmtx.c" 1
 409 0010 83F31188 		msr     BASEPRI, r3
 410              	@ 0 "" 2
 411              	.LVL37:
 412              		.thumb
 413              	.LBE68:
 414              		.loc 1 215 0
 415 0014 7047     		bx	lr
 416              	.LVL38:
 417              	.L33:
 418              	.LBB69:
 419              	.LBB67:
 420              		.loc 1 241 0
 421 0016 0448     		ldr	r0, .L34
 422              	.LVL39:
 423 0018 8369     		ldr	r3, [r0, #24]
 424              		.loc 1 242 0
 425 001a D96B     		ldr	r1, [r3, #60]
 426              		.loc 1 241 0
 427 001c 9360     		str	r3, [r2, #8]
 428              		.loc 1 242 0
 429 001e D160     		str	r1, [r2, #12]
 430              		.loc 1 244 0
 431 0020 0120     		movs	r0, #1
 432              		.loc 1 243 0
 433 0022 DA63     		str	r2, [r3, #60]
 434 0024 F3E7     		b	.L31
 435              	.L35:
 436 0026 00BF     		.align	2
 437              	.L34:
 438 0028 00000000 		.word	rlist
 439              	.LBE67:
 440              	.LBE69:
 441              		.cfi_endproc
 442              	.LFE10:
 443              		.size	chMtxTryLock, .-chMtxTryLock
 444 002c AFF30080 		.section	.text.chMtxTryLockS,"ax",%progbits
 445              		.align	2
 446              		.p2align 4,,15
 447              		.global	chMtxTryLockS
 448              		.thumb
 449              		.thumb_func
 450              		.type	chMtxTryLockS, %function
 451              	chMtxTryLockS:
ARM GAS  C:\Users\srich\AppData\Local\Temp\ccTL03Vr.s 			page 9


 452              	.LFB11:
 453              		.loc 1 234 0
 454              		.cfi_startproc
 455              		@ args = 0, pretend = 0, frame = 0
 456              		@ frame_needed = 0, uses_anonymous_args = 0
 457              		@ link register save eliminated.
 458              	.LVL40:
 459              		.loc 1 239 0
 460 0000 8268     		ldr	r2, [r0, #8]
 461              		.loc 1 234 0
 462 0002 0346     		mov	r3, r0
 463              		.loc 1 239 0
 464 0004 0AB1     		cbz	r2, .L39
 465              		.loc 1 240 0
 466 0006 0020     		movs	r0, #0
 467              	.LVL41:
 468              		.loc 1 245 0
 469 0008 7047     		bx	lr
 470              	.LVL42:
 471              	.L39:
 472              		.loc 1 241 0
 473 000a 0448     		ldr	r0, .L40
 474              	.LVL43:
 475 000c 8269     		ldr	r2, [r0, #24]
 476              		.loc 1 242 0
 477 000e D16B     		ldr	r1, [r2, #60]
 478              		.loc 1 241 0
 479 0010 9A60     		str	r2, [r3, #8]
 480              		.loc 1 242 0
 481 0012 D960     		str	r1, [r3, #12]
 482              		.loc 1 244 0
 483 0014 0120     		movs	r0, #1
 484              		.loc 1 243 0
 485 0016 D363     		str	r3, [r2, #60]
 486              		.loc 1 244 0
 487 0018 7047     		bx	lr
 488              	.L41:
 489 001a 00BF     		.align	2
 490              	.L40:
 491 001c 00000000 		.word	rlist
 492              		.cfi_endproc
 493              	.LFE11:
 494              		.size	chMtxTryLockS, .-chMtxTryLockS
 495              		.section	.text.chMtxUnlock,"ax",%progbits
 496              		.align	2
 497              		.p2align 4,,15
 498              		.global	chMtxUnlock
 499              		.thumb
 500              		.thumb_func
 501              		.type	chMtxUnlock, %function
 502              	chMtxUnlock:
 503              	.LFB12:
 504              		.loc 1 257 0
 505              		.cfi_startproc
 506              		@ args = 0, pretend = 0, frame = 0
 507              		@ frame_needed = 0, uses_anonymous_args = 0
 508              		.loc 1 258 0
ARM GAS  C:\Users\srich\AppData\Local\Temp\ccTL03Vr.s 			page 10


 509 0000 154A     		ldr	r2, .L53
 510              		.loc 1 257 0
 511 0002 38B5     		push	{r3, r4, r5, lr}
 512              	.LCFI2:
 513              		.cfi_def_cfa_offset 16
 514              		.cfi_offset 3, -16
 515              		.cfi_offset 4, -12
 516              		.cfi_offset 5, -8
 517              		.cfi_offset 14, -4
 518              		.loc 1 258 0
 519 0004 9069     		ldr	r0, [r2, #24]
 520              	.LVL44:
 521              	.LBB70:
 522              		.loc 1 261 0
 523 0006 2023     		movs	r3, #32
 524              	.LVL45:
 525              	@ 261 "c:\ChibiStudio\chibios/os/kernel/src/chmtx.c" 1
 526 0008 83F31188 		msr     BASEPRI, r3
 527              	@ 0 "" 2
 528              	.LVL46:
 529              		.thumb
 530              	.LBE70:
 531              		.loc 1 270 0
 532 000c C46B     		ldr	r4, [r0, #60]
 533              	.LVL47:
 534              		.loc 1 273 0
 535 000e 2568     		ldr	r5, [r4, #0]
 536              		.loc 1 271 0
 537 0010 E368     		ldr	r3, [r4, #12]
 538              	.LVL48:
 539              		.loc 1 273 0
 540 0012 A542     		cmp	r5, r4
 541              		.loc 1 271 0
 542 0014 C363     		str	r3, [r0, #60]
 543              		.loc 1 273 0
 544 0016 1CD0     		beq	.L43
 545              	.LBB71:
 546              		.loc 1 278 0
 547 0018 016C     		ldr	r1, [r0, #64]
 548              	.LVL49:
 549              		.loc 1 280 0
 550 001a 4BB1     		cbz	r3, .L44
 551              	.L50:
 552              		.loc 1 284 0
 553 001c 1A68     		ldr	r2, [r3, #0]
 554 001e 9A42     		cmp	r2, r3
 555 0020 03D0     		beq	.L45
 556              		.loc 1 284 0 is_stmt 0 discriminator 1
 557 0022 9268     		ldr	r2, [r2, #8]
 558 0024 9142     		cmp	r1, r2
 559 0026 38BF     		it	cc
 560 0028 1146     		movcc	r1, r2
 561              	.LVL50:
 562              	.L45:
 563              		.loc 1 286 0 is_stmt 1
 564 002a DB68     		ldr	r3, [r3, #12]
 565              	.LVL51:
ARM GAS  C:\Users\srich\AppData\Local\Temp\ccTL03Vr.s 			page 11


 566              		.loc 1 280 0
 567 002c 002B     		cmp	r3, #0
 568 002e F5D1     		bne	.L50
 569              	.L44:
 570              	.LBB72:
 571              	.LBB73:
 572              		.loc 2 62 0
 573 0030 2B68     		ldr	r3, [r5, #0]
 574              	.LVL52:
 575              	.LBE73:
 576              	.LBE72:
 577              		.loc 1 295 0
 578 0032 EA6B     		ldr	r2, [r5, #60]
 579              		.loc 1 290 0
 580 0034 8160     		str	r1, [r0, #8]
 581              	.LVL53:
 582              	.LBB76:
 583              	.LBB74:
 584              		.loc 2 62 0
 585 0036 2360     		str	r3, [r4, #0]
 586              	.LBE74:
 587              	.LBE76:
 588              		.loc 1 297 0
 589 0038 2846     		mov	r0, r5
 590              	.LVL54:
 591              	.LBB77:
 592              	.LBB75:
 593              		.loc 2 62 0
 594 003a 5C60     		str	r4, [r3, #4]
 595              	.LBE75:
 596              	.LBE77:
 597              		.loc 1 297 0
 598 003c 0021     		movs	r1, #0
 599              	.LVL55:
 600              		.loc 1 294 0
 601 003e A560     		str	r5, [r4, #8]
 602              		.loc 1 295 0
 603 0040 E260     		str	r2, [r4, #12]
 604              		.loc 1 296 0
 605 0042 EC63     		str	r4, [r5, #60]
 606              		.loc 1 297 0
 607 0044 FFF7FEFF 		bl	chSchWakeupS
 608              	.LVL56:
 609              	.L47:
 610              	.LBE71:
 611              	.LBB78:
 612              		.loc 1 301 0
 613 0048 0023     		movs	r3, #0
 614              	.LVL57:
 615              	@ 301 "c:\ChibiStudio\chibios/os/kernel/src/chmtx.c" 1
 616 004a 83F31188 		msr     BASEPRI, r3
 617              	@ 0 "" 2
 618              	.LVL58:
 619              		.thumb
 620              	.LBE78:
 621              		.loc 1 303 0
 622 004e 2046     		mov	r0, r4
ARM GAS  C:\Users\srich\AppData\Local\Temp\ccTL03Vr.s 			page 12


 623 0050 38BD     		pop	{r3, r4, r5, pc}
 624              	.LVL59:
 625              	.L43:
 626              		.loc 1 300 0
 627 0052 0023     		movs	r3, #0
 628 0054 A360     		str	r3, [r4, #8]
 629 0056 F7E7     		b	.L47
 630              	.L54:
 631              		.align	2
 632              	.L53:
 633 0058 00000000 		.word	rlist
 634              		.cfi_endproc
 635              	.LFE12:
 636              		.size	chMtxUnlock, .-chMtxUnlock
 637 005c AFF30080 		.section	.text.chMtxUnlockS,"ax",%progbits
 638              		.align	2
 639              		.p2align 4,,15
 640              		.global	chMtxUnlockS
 641              		.thumb
 642              		.thumb_func
 643              		.type	chMtxUnlockS, %function
 644              	chMtxUnlockS:
 645              	.LFB13:
 646              		.loc 1 317 0
 647              		.cfi_startproc
 648              		@ args = 0, pretend = 0, frame = 0
 649              		@ frame_needed = 0, uses_anonymous_args = 0
 650 0000 38B5     		push	{r3, r4, r5, lr}
 651              	.LCFI3:
 652              		.cfi_def_cfa_offset 16
 653              		.cfi_offset 3, -16
 654              		.cfi_offset 4, -12
 655              		.cfi_offset 5, -8
 656              		.cfi_offset 14, -4
 657              		.loc 1 318 0
 658 0002 124B     		ldr	r3, .L66
 659 0004 9869     		ldr	r0, [r3, #24]
 660              	.LVL60:
 661              		.loc 1 331 0
 662 0006 C46B     		ldr	r4, [r0, #60]
 663              	.LVL61:
 664              		.loc 1 334 0
 665 0008 2568     		ldr	r5, [r4, #0]
 666              		.loc 1 332 0
 667 000a E368     		ldr	r3, [r4, #12]
 668              		.loc 1 334 0
 669 000c A542     		cmp	r5, r4
 670              		.loc 1 332 0
 671 000e C363     		str	r3, [r0, #60]
 672              		.loc 1 334 0
 673 0010 18D0     		beq	.L56
 674              	.LBB79:
 675              		.loc 1 339 0
 676 0012 016C     		ldr	r1, [r0, #64]
 677              	.LVL62:
 678              		.loc 1 341 0
 679 0014 4BB1     		cbz	r3, .L57
ARM GAS  C:\Users\srich\AppData\Local\Temp\ccTL03Vr.s 			page 13


 680              	.L63:
 681              		.loc 1 345 0
 682 0016 1A68     		ldr	r2, [r3, #0]
 683 0018 9A42     		cmp	r2, r3
 684 001a 03D0     		beq	.L58
 685              		.loc 1 345 0 is_stmt 0 discriminator 1
 686 001c 9268     		ldr	r2, [r2, #8]
 687 001e 9142     		cmp	r1, r2
 688 0020 38BF     		it	cc
 689 0022 1146     		movcc	r1, r2
 690              	.LVL63:
 691              	.L58:
 692              		.loc 1 347 0 is_stmt 1
 693 0024 DB68     		ldr	r3, [r3, #12]
 694              	.LVL64:
 695              		.loc 1 341 0
 696 0026 002B     		cmp	r3, #0
 697 0028 F5D1     		bne	.L63
 698              	.L57:
 699              	.LBB80:
 700              	.LBB81:
 701              		.loc 2 62 0
 702 002a 2B68     		ldr	r3, [r5, #0]
 703              	.LVL65:
 704              	.LBE81:
 705              	.LBE80:
 706              		.loc 1 354 0
 707 002c EA6B     		ldr	r2, [r5, #60]
 708              		.loc 1 349 0
 709 002e 8160     		str	r1, [r0, #8]
 710              	.LVL66:
 711              	.LBB84:
 712              	.LBB82:
 713              		.loc 2 62 0
 714 0030 2360     		str	r3, [r4, #0]
 715              	.LBE82:
 716              	.LBE84:
 717              		.loc 1 356 0
 718 0032 2846     		mov	r0, r5
 719              	.LVL67:
 720              	.LBB85:
 721              	.LBB83:
 722              		.loc 2 62 0
 723 0034 5C60     		str	r4, [r3, #4]
 724              	.LBE83:
 725              	.LBE85:
 726              		.loc 1 353 0
 727 0036 A560     		str	r5, [r4, #8]
 728              		.loc 1 354 0
 729 0038 E260     		str	r2, [r4, #12]
 730              		.loc 1 355 0
 731 003a EC63     		str	r4, [r5, #60]
 732              		.loc 1 356 0
 733 003c FFF7FEFF 		bl	chSchReadyI
 734              	.LVL68:
 735              	.LBE79:
 736              		.loc 1 361 0
ARM GAS  C:\Users\srich\AppData\Local\Temp\ccTL03Vr.s 			page 14


 737 0040 2046     		mov	r0, r4
 738 0042 38BD     		pop	{r3, r4, r5, pc}
 739              	.LVL69:
 740              	.L56:
 741              		.loc 1 359 0
 742 0044 0021     		movs	r1, #0
 743 0046 A160     		str	r1, [r4, #8]
 744              		.loc 1 361 0
 745 0048 2046     		mov	r0, r4
 746              	.LVL70:
 747 004a 38BD     		pop	{r3, r4, r5, pc}
 748              	.L67:
 749              		.align	2
 750              	.L66:
 751 004c 00000000 		.word	rlist
 752              		.cfi_endproc
 753              	.LFE13:
 754              		.size	chMtxUnlockS, .-chMtxUnlockS
 755              		.section	.text.chMtxUnlockAll,"ax",%progbits
 756              		.align	2
 757              		.p2align 4,,15
 758              		.global	chMtxUnlockAll
 759              		.thumb
 760              		.thumb_func
 761              		.type	chMtxUnlockAll, %function
 762              	chMtxUnlockAll:
 763              	.LFB14:
 764              		.loc 1 374 0
 765              		.cfi_startproc
 766              		@ args = 0, pretend = 0, frame = 0
 767              		@ frame_needed = 0, uses_anonymous_args = 0
 768              		.loc 1 375 0
 769 0000 134A     		ldr	r2, .L80
 770              		.loc 1 374 0
 771 0002 70B5     		push	{r4, r5, r6, lr}
 772              	.LCFI4:
 773              		.cfi_def_cfa_offset 16
 774              		.cfi_offset 4, -16
 775              		.cfi_offset 5, -12
 776              		.cfi_offset 6, -8
 777              		.cfi_offset 14, -4
 778              	.LBB86:
 779              		.loc 1 377 0
 780 0004 2023     		movs	r3, #32
 781              	.LVL71:
 782              	.LBE86:
 783              		.loc 1 375 0
 784 0006 9469     		ldr	r4, [r2, #24]
 785              	.LVL72:
 786              	.LBB87:
 787              		.loc 1 377 0
 788              	@ 377 "c:\ChibiStudio\chibios/os/kernel/src/chmtx.c" 1
 789 0008 83F31188 		msr     BASEPRI, r3
 790              	@ 0 "" 2
 791              	.LVL73:
 792              		.thumb
 793              	.LBE87:
ARM GAS  C:\Users\srich\AppData\Local\Temp\ccTL03Vr.s 			page 15


 794              		.loc 1 378 0
 795 000c E36B     		ldr	r3, [r4, #60]
 796              	.LVL74:
 797 000e D3B1     		cbz	r3, .L69
 798              	.LBB88:
 799              		.loc 1 390 0
 800 0010 0026     		movs	r6, #0
 801 0012 0BE0     		b	.L75
 802              	.LVL75:
 803              	.L79:
 804              	.LBB89:
 805              	.LBB90:
 806              	.LBB91:
 807              		.loc 2 62 0
 808 0014 1168     		ldr	r1, [r2, #0]
 809              	.LBE91:
 810              	.LBE90:
 811              		.loc 1 385 0
 812 0016 D56B     		ldr	r5, [r2, #60]
 813              	.LBB94:
 814              	.LBB92:
 815              		.loc 2 62 0
 816 0018 1960     		str	r1, [r3, #0]
 817              	.LBE92:
 818              	.LBE94:
 819              		.loc 1 387 0
 820 001a 1046     		mov	r0, r2
 821              	.LBB95:
 822              	.LBB93:
 823              		.loc 2 62 0
 824 001c 4B60     		str	r3, [r1, #4]
 825              	.LBE93:
 826              	.LBE95:
 827              		.loc 1 384 0
 828 001e 9A60     		str	r2, [r3, #8]
 829              		.loc 1 385 0
 830 0020 DD60     		str	r5, [r3, #12]
 831              		.loc 1 386 0
 832 0022 D363     		str	r3, [r2, #60]
 833              		.loc 1 387 0
 834 0024 FFF7FEFF 		bl	chSchReadyI
 835              	.LVL76:
 836              	.LBE89:
 837              	.LBE88:
 838              		.loc 1 391 0
 839 0028 E36B     		ldr	r3, [r4, #60]
 840 002a 43B1     		cbz	r3, .L78
 841              	.L75:
 842              	.LVL77:
 843              	.LBB96:
 844              		.loc 1 382 0
 845 002c 1A68     		ldr	r2, [r3, #0]
 846              	.LVL78:
 847              		.loc 1 381 0
 848 002e D968     		ldr	r1, [r3, #12]
 849              		.loc 1 382 0
 850 0030 9A42     		cmp	r2, r3
ARM GAS  C:\Users\srich\AppData\Local\Temp\ccTL03Vr.s 			page 16


 851              		.loc 1 381 0
 852 0032 E163     		str	r1, [r4, #60]
 853              		.loc 1 382 0
 854 0034 EED1     		bne	.L79
 855              		.loc 1 390 0
 856 0036 9E60     		str	r6, [r3, #8]
 857              	.LBE96:
 858              		.loc 1 391 0
 859 0038 E36B     		ldr	r3, [r4, #60]
 860              	.LVL79:
 861 003a 002B     		cmp	r3, #0
 862 003c F6D1     		bne	.L75
 863              	.LVL80:
 864              	.L78:
 865              		.loc 1 392 0
 866 003e 206C     		ldr	r0, [r4, #64]
 867 0040 A060     		str	r0, [r4, #8]
 868              		.loc 1 393 0
 869 0042 FFF7FEFF 		bl	chSchRescheduleS
 870              	.LVL81:
 871              	.L69:
 872              	.LBB97:
 873              		.loc 1 395 0
 874 0046 0023     		movs	r3, #0
 875              	.LVL82:
 876              	@ 395 "c:\ChibiStudio\chibios/os/kernel/src/chmtx.c" 1
 877 0048 83F31188 		msr     BASEPRI, r3
 878              	@ 0 "" 2
 879              	.LVL83:
 880              		.thumb
 881 004c 70BD     		pop	{r4, r5, r6, pc}
 882              	.L81:
 883 004e 00BF     		.align	2
 884              	.L80:
 885 0050 00000000 		.word	rlist
 886              	.LBE97:
 887              		.cfi_endproc
 888              	.LFE14:
 889              		.size	chMtxUnlockAll, .-chMtxUnlockAll
 890 0054 AFF30080 		.text
 890      AFF30080 
 890      AFF30080 
 891              	.Letext0:
 892              		.file 3 "c:\\chibistudio\\tools\\gnu tools arm embedded\\4.7 2014q2\\bin\\../lib/gcc/arm-none-eabi
 893              		.file 4 "c:\\ChibiStudio\\chibios/os/ports/GCC/ARMCMx/chtypes.h"
 894              		.file 5 "c:\\ChibiStudio\\chibios/os/kernel/include/chlists.h"
 895              		.file 6 "c:\\ChibiStudio\\chibios/os/kernel/include/chthreads.h"
 896              		.file 7 "c:\\ChibiStudio\\chibios/os/ports/GCC/ARMCMx/chcore_v7m.h"
 897              		.file 8 "c:\\ChibiStudio\\chibios/os/kernel/include/chschd.h"
 898              		.file 9 "c:\\ChibiStudio\\chibios/os/kernel/include/chmtx.h"