ARM GAS  C:\Users\srich\AppData\Local\Temp\ccTL03Vr.s 			page 1


   1              		.syntax unified
   2              		.cpu cortex-m4
   3              		.fpu softvfp
   4              		.eabi_attribute 20, 1
   5              		.eabi_attribute 21, 1
   6              		.eabi_attribute 23, 3
   7              		.eabi_attribute 24, 1
   8              		.eabi_attribute 25, 1
   9              		.eabi_attribute 26, 1
  10              		.eabi_attribute 30, 2
  11              		.eabi_attribute 34, 1
  12              		.eabi_attribute 18, 4
  13              		.thumb
  14              		.file	"chmtx.c"
  15              		.text
  16              	.Ltext0:
  17              		.cfi_sections	.debug_frame
  18              		.section	.text.chMtxInit,"ax",%progbits
  19              		.align	2
  20              		.p2align 4,,15
  21              		.global	chMtxInit
  22              		.thumb
  23              		.thumb_func
  24              		.type	chMtxInit, %function
  25              	chMtxInit:
  26              	.LFB7:
  27              		.file 1 "c:\\ChibiStudio\\chibios/os/kernel/src/chmtx.c"
  28              		.loc 1 86 0
  29              		.cfi_startproc
  30              		@ args = 0, pretend = 0, frame = 0
  31              		@ frame_needed = 0, uses_anonymous_args = 0
  32              		@ link register save eliminated.
  33              	.LVL0:
  34              		.loc 1 91 0
  35 0000 0023     		movs	r3, #0
  36              		.loc 1 90 0
  37 0002 4060     		str	r0, [r0, #4]
  38 0004 0060     		str	r0, [r0, #0]
  39              		.loc 1 91 0
  40 0006 8360     		str	r3, [r0, #8]
  41 0008 7047     		bx	lr
  42              		.cfi_endproc
  43              	.LFE7:
  44              		.size	chMtxInit, .-chMtxInit
  45 000a 00BFAFF3 		.section	.text.chMtxLockS,"ax",%progbits
  45      0080
  46              		.align	2
  47              		.p2align 4,,15
  48              		.global	chMtxLockS
  49              		.thumb
  50              		.thumb_func
  51              		.type	chMtxLockS, %function
  52              	chMtxLockS:
  53              	.LFB9:
  54              		.loc 1 121 0
  55              		.cfi_startproc
  56              		@ args = 0, pretend = 0, frame = 0
ARM GAS  C:\Users\srich\AppData\Local\Temp\ccTL03Vr.s 			page 2


  57              		@ frame_needed = 0, uses_anonymous_args = 0
  58              	.LVL1:
  59 0000 F8B5     		push	{r3, r4, r5, r6, r7, lr}
  60              	.LCFI0:
  61              		.cfi_def_cfa_offset 24
  62              		.cfi_offset 3, -24
  63              		.cfi_offset 4, -20
  64              		.cfi_offset 5, -16
  65              		.cfi_offset 6, -12
  66              		.cfi_offset 7, -8
  67              		.cfi_offset 14, -4
  68              		.loc 1 122 0
  69 0002 2F4A     		ldr	r2, .L27
  70              		.loc 1 128 0
  71 0004 8368     		ldr	r3, [r0, #8]
  72              		.loc 1 122 0
  73 0006 9469     		ldr	r4, [r2, #24]
  74              	.LVL2:
  75              		.loc 1 121 0
  76 0008 0546     		mov	r5, r0
  77              		.loc 1 128 0
  78 000a 002B     		cmp	r3, #0
  79 000c 51D0     		beq	.L3
  80              	.LVL3:
  81              	.LBB33:
  82              		.loc 1 135 0 discriminator 1
  83 000e A168     		ldr	r1, [r4, #8]
  84 0010 9868     		ldr	r0, [r3, #8]
  85              	.LVL4:
  86 0012 8142     		cmp	r1, r0
  87 0014 06D9     		bls	.L5
  88              	.L20:
  89              		.loc 1 139 0
  90 0016 1A7F     		ldrb	r2, [r3, #28]	@ zero_extendqisi2
  91              		.loc 1 137 0
  92 0018 9960     		str	r1, [r3, #8]
  93              		.loc 1 139 0
  94 001a 042A     		cmp	r2, #4
  95 001c 31D0     		beq	.L7
  96 001e 052A     		cmp	r2, #5
  97 0020 1CD0     		beq	.L8
  98 0022 92B1     		cbz	r2, .L6
  99              	.LVL5:
 100              	.L5:
 101              		.file 2 "c:\\ChibiStudio\\chibios/os/kernel/include/chinline.h"
 102              		.loc 2 43 0
 103 0024 2846     		mov	r0, r5
 104              	.LVL6:
 105              	.L18:
 106              	.LBB34:
 107              	.LBB35:
 108              		.loc 2 45 0
 109 0026 0068     		ldr	r0, [r0, #0]
 110              	.LVL7:
 111              		.loc 2 46 0
 112 0028 8542     		cmp	r5, r0
 113 002a 03D0     		beq	.L19
ARM GAS  C:\Users\srich\AppData\Local\Temp\ccTL03Vr.s 			page 3


 114 002c 8368     		ldr	r3, [r0, #8]
 115 002e A168     		ldr	r1, [r4, #8]
 116 0030 8B42     		cmp	r3, r1
 117 0032 F8D2     		bcs	.L18
 118              	.L19:
 119              		.loc 2 48 0
 120 0034 4268     		ldr	r2, [r0, #4]
 121              		.loc 2 47 0
 122 0036 2060     		str	r0, [r4, #0]
 123              		.loc 2 48 0
 124 0038 6260     		str	r2, [r4, #4]
 125              		.loc 2 49 0
 126 003a 4460     		str	r4, [r0, #4]
 127              	.LBE35:
 128              	.LBE34:
 129              		.loc 1 175 0
 130 003c 0420     		movs	r0, #4
 131              	.LVL8:
 132              	.LBB37:
 133              	.LBB36:
 134              		.loc 2 49 0
 135 003e 1460     		str	r4, [r2, #0]
 136              	.LBE36:
 137              	.LBE37:
 138              		.loc 1 174 0
 139 0040 6562     		str	r5, [r4, #36]
 140              	.LBE33:
 141              		.loc 1 187 0
 142 0042 BDE8F840 		pop	{r3, r4, r5, r6, r7, lr}
 143              	.LBB60:
 144              		.loc 1 175 0
 145 0046 FFF7FEBF 		b	chSchGoSleepS
 146              	.LVL9:
 147              	.L6:
 148              	.LBB38:
 149              	.LBB39:
 150              		.loc 2 75 0
 151 004a 93E80600 		ldmia	r3, {r1, r2}
 152 004e 1160     		str	r1, [r2, #0]
 153              		.loc 2 76 0
 154 0050 1968     		ldr	r1, [r3, #0]
 155              	.LBE39:
 156              	.LBE38:
 157              		.loc 1 167 0
 158 0052 1846     		mov	r0, r3
 159              	.LBB41:
 160              	.LBB40:
 161              		.loc 2 76 0
 162 0054 4A60     		str	r2, [r1, #4]
 163              	.LBE40:
 164              	.LBE41:
 165              		.loc 1 167 0
 166 0056 FFF7FEFF 		bl	chSchReadyI
 167              	.LVL10:
 168              		.loc 1 168 0
 169 005a E3E7     		b	.L5
 170              	.LVL11:
ARM GAS  C:\Users\srich\AppData\Local\Temp\ccTL03Vr.s 			page 4


 171              	.L8:
 172              	.LBB42:
 173              	.LBB43:
 174              		.loc 2 75 0
 175 005c 5868     		ldr	r0, [r3, #4]
 176 005e 1F68     		ldr	r7, [r3, #0]
 177              	.LBE43:
 178              	.LBE42:
 179              		.loc 1 158 0
 180 0060 5E6A     		ldr	r6, [r3, #36]
 181              	.LVL12:
 182              	.LBB46:
 183              	.LBB44:
 184              		.loc 2 75 0
 185 0062 0760     		str	r7, [r0, #0]
 186              		.loc 2 76 0
 187 0064 1F68     		ldr	r7, [r3, #0]
 188              	.LBE44:
 189              	.LBE46:
 190              		.loc 2 43 0
 191 0066 3246     		mov	r2, r6
 192              	.LBB47:
 193              	.LBB45:
 194              		.loc 2 76 0
 195 0068 7860     		str	r0, [r7, #4]
 196              	.LVL13:
 197              	.L15:
 198              	.LBE45:
 199              	.LBE47:
 200              	.LBB48:
 201              	.LBB49:
 202              		.loc 2 45 0
 203 006a 1268     		ldr	r2, [r2, #0]
 204              	.LVL14:
 205              		.loc 2 46 0
 206 006c 9642     		cmp	r6, r2
 207 006e 02D0     		beq	.L16
 208 0070 9068     		ldr	r0, [r2, #8]
 209 0072 8842     		cmp	r0, r1
 210 0074 F9D2     		bcs	.L15
 211              	.L16:
 212              		.loc 2 48 0
 213 0076 5168     		ldr	r1, [r2, #4]
 214              		.loc 2 47 0
 215 0078 1A60     		str	r2, [r3, #0]
 216              		.loc 2 48 0
 217 007a 5960     		str	r1, [r3, #4]
 218              		.loc 2 49 0
 219 007c 0B60     		str	r3, [r1, #0]
 220 007e 5360     		str	r3, [r2, #4]
 221 0080 D0E7     		b	.L5
 222              	.LVL15:
 223              	.L7:
 224              	.LBE49:
 225              	.LBE48:
 226              	.LBB50:
 227              	.LBB51:
ARM GAS  C:\Users\srich\AppData\Local\Temp\ccTL03Vr.s 			page 5


 228              		.loc 2 75 0
 229 0082 5868     		ldr	r0, [r3, #4]
 230 0084 1F68     		ldr	r7, [r3, #0]
 231              	.LBE51:
 232              	.LBE50:
 233              		.loc 1 142 0
 234 0086 5E6A     		ldr	r6, [r3, #36]
 235              	.LVL16:
 236              	.LBB54:
 237              	.LBB52:
 238              		.loc 2 75 0
 239 0088 0760     		str	r7, [r0, #0]
 240              		.loc 2 76 0
 241 008a 1F68     		ldr	r7, [r3, #0]
 242              	.LBE52:
 243              	.LBE54:
 244              		.loc 1 142 0
 245 008c 3246     		mov	r2, r6
 246              	.LBB55:
 247              	.LBB53:
 248              		.loc 2 76 0
 249 008e 7860     		str	r0, [r7, #4]
 250              	.LVL17:
 251              	.L12:
 252              	.LBE53:
 253              	.LBE55:
 254              	.LBB56:
 255              	.LBB57:
 256              		.loc 2 45 0
 257 0090 1268     		ldr	r2, [r2, #0]
 258              	.LVL18:
 259              		.loc 2 46 0
 260 0092 9642     		cmp	r6, r2
 261 0094 12D0     		beq	.L26
 262 0096 9068     		ldr	r0, [r2, #8]
 263 0098 8842     		cmp	r0, r1
 264 009a F9D2     		bcs	.L12
 265              	.LVL19:
 266              	.L13:
 267              		.loc 2 48 0
 268 009c 5168     		ldr	r1, [r2, #4]
 269              		.loc 2 47 0
 270 009e 1A60     		str	r2, [r3, #0]
 271              		.loc 2 48 0
 272 00a0 5960     		str	r1, [r3, #4]
 273              		.loc 2 49 0
 274 00a2 0B60     		str	r3, [r1, #0]
 275 00a4 5360     		str	r3, [r2, #4]
 276              	.LBE57:
 277              	.LBE56:
 278              		.loc 1 143 0
 279 00a6 B368     		ldr	r3, [r6, #8]
 280              	.LVL20:
 281              		.loc 1 135 0
 282 00a8 A168     		ldr	r1, [r4, #8]
 283 00aa 9A68     		ldr	r2, [r3, #8]
 284              	.LVL21:
ARM GAS  C:\Users\srich\AppData\Local\Temp\ccTL03Vr.s 			page 6


 285 00ac 8A42     		cmp	r2, r1
 286 00ae B2D3     		bcc	.L20
 287 00b0 B8E7     		b	.L5
 288              	.LVL22:
 289              	.L3:
 290              	.LBE60:
 291              		.loc 1 184 0
 292 00b2 E36B     		ldr	r3, [r4, #60]
 293              		.loc 1 183 0
 294 00b4 8460     		str	r4, [r0, #8]
 295              		.loc 1 184 0
 296 00b6 C360     		str	r3, [r0, #12]
 297              		.loc 1 185 0
 298 00b8 E063     		str	r0, [r4, #60]
 299 00ba F8BD     		pop	{r3, r4, r5, r6, r7, pc}
 300              	.LVL23:
 301              	.L26:
 302              	.LBB61:
 303              	.LBB59:
 304              	.LBB58:
 305              		.loc 2 46 0
 306 00bc 3246     		mov	r2, r6
 307              	.LVL24:
 308 00be EDE7     		b	.L13
 309              	.L28:
 310              		.align	2
 311              	.L27:
 312 00c0 00000000 		.word	rlist
 313              	.LBE58:
 314              	.LBE59:
 315              	.LBE61:
 316              		.cfi_endproc
 317              	.LFE9:
 318              		.size	chMtxLockS, .-chMtxLockS
 319 00c4 AFF30080 		.section	.text.chMtxLock,"ax",%progbits
 319      AFF30080 
 319      AFF30080 
 320              		.align	2
 321              		.p2align 4,,15
 322              		.global	chMtxLock
 323              		.thumb
 324              		.thumb_func
 325              		.type	chMtxLock, %function
 326              	chMtxLock:
 327              	.LFB8:
 328              		.loc 1 103 0
 329              		.cfi_startproc
 330              		@ args = 0, pretend = 0, frame = 0
 331              		@ frame_needed = 0, uses_anonymous_args = 0
 332              	.LVL25:
 333 0000 08B5     		push	{r3, lr}
 334              	.LCFI1:
 335              		.cfi_def_cfa_offset 8
 336              		.cfi_offset 3, -8
 337              		.cfi_offset 14, -4
 338              	.LBB62:
 339              		.loc 1 105 0
ARM GAS  C:\Users\srich\AppData\Local\Temp\ccTL03Vr.s 			page 7


 340 0002 2023     		movs	r3, #32
 341              	.LVL26:
 342              	@ 105 "c:\ChibiStudio\chibios/os/kernel/src/chmtx.c" 1
 343 0004 83F31188 		msr     BASEPRI, r3
 344              	@ 0 "" 2
 345              	.LVL27:
 346              		.thumb
 347              	.LBE62:
 348              		.loc 1 107 0
 349 0008 FFF7FEFF 		bl	chMtxLockS
 350              	.LVL28:
 351              	.LBB63:
 352              		.loc 1 109 0
 353 000c 0023     		movs	r3, #0
 354              	.LVL29:
 355              	@ 109 "c:\ChibiStudio\chibios/os/kernel/src/chmtx.c" 1
 356 000e 83F31188 		msr     BASEPRI, r3
 357              	@ 0 "" 2
 358              	.LVL30:
 359              		.thumb
 360 0012 08BD     		pop	{r3, pc}
 361              	.LBE63:
 362              		.cfi_endproc
 363              	.LFE8:
 364              		.size	chMtxLock, .-chMtxLock
 365 0014 AFF30080 		.section	.text.chMtxTryLock,"ax",%progbits
 365      AFF30080 
 365      AFF30080 
 366              		.align	2
 367              		.p2align 4,,15
 368              		.global	chMtxTryLock
 369              		.thumb
 370              		.thumb_func
 371              		.type	chMtxTryLock, %function
 372              	chMtxTryLock:
 373              	.LFB10:
 374              		.loc 1 206 0
 375              		.cfi_startproc
 376              		@ args = 0, pretend = 0, frame = 0
 377              		@ frame_needed = 0, uses_anonymous_args = 0
 378              		@ link register save eliminated.
 379              	.LVL31:
 380              		.loc 1 206 0
 381 0000 0246     		mov	r2, r0
 382              	.LBB64:
 383              		.loc 1 209 0
 384 0002 2023     		movs	r3, #32
 385              	.LVL32:
 386              	@ 209 "c:\ChibiStudio\chibios/os/kernel/src/chmtx.c" 1
 387 0004 83F31188 		msr     BASEPRI, r3
 388              	@ 0 "" 2
 389              	.LVL33:
 390              		.thumb
 391              	.LBE64:
 392              	.LBB65:
 393              	.LBB66:
 394              		.loc 1 239 0
ARM GAS  C:\Users\srich\AppData\Local\Temp\ccTL03Vr.s 			page 8


 395 0008 8368     		ldr	r3, [r0, #8]
 396              	.LVL34:
 397 000a 23B1     		cbz	r3, .L33
 398              		.loc 1 240 0
 399 000c 0020     		movs	r0, #0
 400              	.LVL35:
 401              	.L31:
 402              	.LBE66:
 403              	.LBE65:
 404              	.LBB68:
 405              		.loc 1 213 0
 406 000e 0023     		movs	r3, #0
 407              	.LVL36:
 408              	@ 213 "c:\ChibiStudio\chibios/os/kernel/src/chmtx.c" 1
 409 0010 83F31188 		msr     BASEPRI, r3
 410              	@ 0 "" 2
 411              	.LVL37:
 412              		.thumb
 413              	.LBE68:
 414              		.loc 1 215 0
 415 0014 7047     		bx	lr
 416              	.LVL38:
 417              	.L33:
 418              	.LBB69:
 419              	.LBB67:
 420              		.loc 1 241 0
 421 0016 0448     		ldr	r0, .L34
 422              	.LVL39:
 423 0018 8369     		ldr	r3, [r0, #24]
 424              		.loc 1 242 0
 425 001a D96B     		ldr	r1, [r3, #60]
 426              		.loc 1 241 0
 427 001c 9360     		str	r3, [r2, #8]
 428              		.loc 1 242 0
 429 001e D160     		str	r1, [r2, #12]
 430              		.loc 1 244 0
 431 0020 0120     		movs	r0, #1
 432              		.loc 1 243 0
 433 0022 DA63     		str	r2, [r3, #60]
 434 0024 F3E7     		b	.L31
 435              	.L35:
 436 0026 00BF     		.align	2
 437              	.L34:
 438 0028 00000000 		.word	rlist
 439              	.LBE67:
 440              	.LBE69:
 441              		.cfi_endproc
 442              	.LFE10:
 443              		.size	chMtxTryLock, .-chMtxTryLock
 444 002c AFF30080 		.section	.text.chMtxTryLockS,"ax",%progbits
 445              		.align	2
 446              		.p2align 4,,15
 447              		.global	chMtxTryLockS
 448              		.thumb
 449              		.thumb_func
 450              		.type	chMtxTryLockS, %function
 451              	chMtxTryLockS:
ARM GAS  C:\Users\srich\AppData\Local\Temp\ccTL03Vr.s 			page 9


 452              	.LFB11:
 453              		.loc 1 234 0
 454              		.cfi_startproc
 455              		@ args = 0, pretend = 0, frame = 0
 456              		@ frame_needed = 0, uses_anonymous_args = 0
 457              		@ link register save eliminated.
 458              	.LVL40:
 459              		.loc 1 239 0
 460 0000 8268     		ldr	r2, [r0, #8]
 461              		.loc 1 234 0
 462 0002 0346     		mov	r3, r0
 463              		.loc 1 239 0
 464 0004 0AB1     		cbz	r2, .L39
 465              		.loc 1 240 0
 466 0006 0020     		movs	r0, #0
 467              	.LVL41:
 468              		.loc 1 245 0
 469 0008 7047     		bx	lr
 470              	.LVL42:
 471              	.L39:
 472              		.loc 1 241 0
 473 000a 0448     		ldr	r0, .L40
 474              	.LVL43:
 475 000c 8269     		ldr	r2, [r0, #24]
 476              		.loc 1 242 0
 477 000e D16B     		ldr	r1, [r2, #60]
 478              		.loc 1 241 0
 479 0010 9A60     		str	r2, [r3, #8]
 480              		.loc 1 242 0
 481 0012 D960     		str	r1, [r3, #12]
 482              		.loc 1 244 0
 483 0014 0120     		movs	r0, #1
 484              		.loc 1 243 0
 485 0016 D363     		str	r3, [r2, #60]
 486              		.loc 1 244 0
 487 0018 7047     		bx	lr
 488              	.L41:
 489 001a 00BF     		.align	2
 490              	.L40:
 491 001c 00000000 		.word	rlist
 492              		.cfi_endproc
 493              	.LFE11:
 494              		.size	chMtxTryLockS, .-chMtxTryLockS
 495              		.section	.text.chMtxUnlock,"ax",%progbits
 496              		.align	2
 497              		.p2align 4,,15
 498              		.global	chMtxUnlock
 499              		.thumb
 500              		.thumb_func
 501              		.type	chMtxUnlock, %function
 502              	chMtxUnlock:
 503              	.LFB12:
 504              		.loc 1 257 0
 505              		.cfi_startproc
 506              		@ args = 0, pretend = 0, frame = 0
 507              		@ frame_needed = 0, uses_anonymous_args = 0
 508              		.loc 1 258 0
ARM GAS  C:\Users\srich\AppData\Local\Temp\ccTL03Vr.s 			page 10


 509 0000 154A     		ldr	r2, .L53
 510              		.loc 1 257 0
 511 0002 38B5     		push	{r3, r4, r5, lr}
 512              	.LCFI2:
 513              		.cfi_def_cfa_offset 16
 514              		.cfi_offset 3, -16
 515              		.cfi_offset 4, -12
 516              		.cfi_offset 5, -8
 517              		.cfi_offset 14, -4
 518              		.loc 1 258 0
 519 0004 9069     		ldr	r0, [r2, #24]
 520              	.LVL44:
 521              	.LBB70:
 522              		.loc 1 261 0
 523 0006 2023     		movs	r3, #32
 524              	.LVL45:
 525              	@ 261 "c:\ChibiStudio\chibios/os/kernel/src/chmtx.c" 1
 526 0008 83F31188 		msr     BASEPRI, r3
 527              	@ 0 "" 2
 528              	.LVL46:
 529              		.thumb
 530              	.LBE70:
 531              		.loc 1 270 0
 532 000c C46B     		ldr	r4, [r0, #60]
 533              	.LVL47:
 534              		.loc 1 273 0
 535 000e 2568     		ldr	r5, [r4, #0]
 536              		.loc 1 271 0
 537 0010 E368     		ldr	r3, [r4, #12]
 538              	.LVL48:
 539              		.loc 1 273 0
 540 0012 A542     		cmp	r5, r4
 541              		.loc 1 271 0
 542 0014 C363     		str	r3, [r0, #60]
 543              		.loc 1 273 0
 544 0016 1CD0     		beq	.L43
 545              	.LBB71:
 546              		.loc 1 278 0
 547 0018 016C     		ldr	r1, [r0, #64]
 548              	.LVL49:
 549              		.loc 1 280 0
 550 001a 4BB1     		cbz	r3, .L44
 551              	.L50:
 552              		.loc 1 284 0
 553 001c 1A68     		ldr	r2, [r3, #0]
 554 001e 9A42     		cmp	r2, r3
 555 0020 03D0     		beq	.L45
 556              		.loc 1 284 0 is_stmt 0 discriminator 1
 557 0022 9268     		ldr	r2, [r2, #8]
 558 0024 9142     		cmp	r1, r2
 559 0026 38BF     		it	cc
 560 0028 1146     		movcc	r1, r2
 561              	.LVL50:
 562              	.L45:
 563              		.loc 1 286 0 is_stmt 1
 564 002a DB68     		ldr	r3, [r3, #12]
 565              	.LVL51:
ARM GAS  C:\Users\srich\AppData\Local\Temp\ccTL03Vr.s 			page 11


 566              		.loc 1 280 0
 567 002c 002B     		cmp	r3, #0
 568 002e F5D1     		bne	.L50
 569              	.L44:
 570              	.LBB72:
 571              	.LBB73:
 572              		.loc 2 62 0
 573 0030 2B68     		ldr	r3, [r5, #0]
 574              	.LVL52:
 575              	.LBE73:
 576              	.LBE72:
 577              		.loc 1 295 0
 578 0032 EA6B     		ldr	r2, [r5, #60]
 579              		.loc 1 290 0
 580 0034 8160     		str	r1, [r0, #8]
 581              	.LVL53:
 582              	.LBB76:
 583              	.LBB74:
 584              		.loc 2 62 0
 585 0036 2360     		str	r3, [r4, #0]
 586              	.LBE74:
 587              	.LBE76:
 588              		.loc 1 297 0
 589 0038 2846     		mov	r0, r5
 590              	.LVL54:
 591              	.LBB77:
 592              	.LBB75:
 593              		.loc 2 62 0
 594 003a 5C60     		str	r4, [r3, #4]
 595              	.LBE75:
 596              	.LBE77:
 597              		.loc 1 297 0
 598 003c 0021     		movs	r1, #0
 599              	.LVL55:
 600              		.loc 1 294 0
 601 003e A560     		str	r5, [r4, #8]
 602              		.loc 1 295 0
 603 0040 E260     		str	r2, [r4, #12]
 604              		.loc 1 296 0
 605 0042 EC63     		str	r4, [r5, #60]
 606              		.loc 1 297 0
 607 0044 FFF7FEFF 		bl	chSchWakeupS
 608              	.LVL56:
 609              	.L47:
 610              	.LBE71:
 611              	.LBB78:
 612              		.loc 1 301 0
 613 0048 0023     		movs	r3, #0
 614              	.LVL57:
 615              	@ 301 "c:\ChibiStudio\chibios/os/kernel/src/chmtx.c" 1
 616 004a 83F31188 		msr     BASEPRI, r3
 617              	@ 0 "" 2
 618              	.LVL58:
 619              		.thumb
 620              	.LBE78:
 621              		.loc 1 303 0
 622 004e 2046     		mov	r0, r4
ARM GAS  C:\Users\srich\AppData\Local\Temp\ccTL03Vr.s 			page 12


 623 0050 38BD     		pop	{r3, r4, r5, pc}
 624              	.LVL59:
 625              	.L43:
 626              		.loc 1 300 0
 627 0052 0023     		movs	r3, #0
 628 0054 A360     		str	r3, [r4, #8]
 629 0056 F7E7     		b	.L47
 630              	.L54:
 631              		.align	2
 632              	.L53:
 633 0058 00000000 		.word	rlist
 634              		.cfi_endproc
 635              	.LFE12:
 636              		.size	chMtxUnlock, .-chMtxUnlock
 637 005c AFF30080 		.section	.text.chMtxUnlockS,"ax",%progbits
 638              		.align	2
 639              		.p2align 4,,15
 640              		.global	chMtxUnlockS
 641              		.thumb
 642              		.thumb_func
 643              		.type	chMtxUnlockS, %function
 644              	chMtxUnlockS:
 645              	.LFB13:
 646              		.loc 1 317 0
 647              		.cfi_startproc
 648              		@ args = 0, pretend = 0, frame = 0
 649              		@ frame_needed = 0, uses_anonymous_args = 0
 650 0000 38B5     		push	{r3, r4, r5, lr}
 651              	.LCFI3:
 652              		.cfi_def_cfa_offset 16
 653              		.cfi_offset 3, -16
 654              		.cfi_offset 4, -12
 655              		.cfi_offset 5, -8
 656              		.cfi_offset 14, -4
 657              		.loc 1 318 0
 658 0002 124B     		ldr	r3, .L66
 659 0004 9869     		ldr	r0, [r3, #24]
 660              	.LVL60:
 661              		.loc 1 331 0
 662 0006 C46B     		ldr	r4, [r0, #60]
 663              	.LVL61:
 664              		.loc 1 334 0
 665 0008 2568     		ldr	r5, [r4, #0]
 666              		.loc 1 332 0
 667 000a E368     		ldr	r3, [r4, #12]
 668              		.loc 1 334 0
 669 000c A542     		cmp	r5, r4
 670              		.loc 1 332 0
 671 000e C363     		str	r3, [r0, #60]
 672              		.loc 1 334 0
 673 0010 18D0     		beq	.L56
 674              	.LBB79:
 675              		.loc 1 339 0
 676 0012 016C     		ldr	r1, [r0, #64]
 677              	.LVL62:
 678              		.loc 1 341 0
 679 0014 4BB1     		cbz	r3, .L57
ARM GAS  C:\Users\srich\AppData\Local\Temp\ccTL03Vr.s 			page 13


 680              	.L63:
 681              		.loc 1 345 0
 682 0016 1A68     		ldr	r2, [r3, #0]
 683 0018 9A42     		cmp	r2, r3
 684 001a 03D0     		beq	.L58
 685              		.loc 1 345 0 is_stmt 0 discriminator 1
 686 001c 9268     		ldr	r2, [r2, #8]
 687 001e 9142     		cmp	r1, r2
 688 0020 38BF     		it	cc
 689 0022 1146     		movcc	r1, r2
 690              	.LVL63:
 691              	.L58:
 692              		.loc 1 347 0 is_stmt 1
 693 0024 DB68     		ldr	r3, [r3, #12]
 694              	.LVL64:
 695              		.loc 1 341 0
 696 0026 002B     		cmp	r3, #0
 697 0028 F5D1     		bne	.L63
 698              	.L57:
 699              	.LBB80:
 700              	.LBB81:
 701              		.loc 2 62 0
 702 002a 2B68     		ldr	r3, [r5, #0]
 703              	.LVL65:
 704              	.LBE81:
 705              	.LBE80:
 706              		.loc 1 354 0
 707 002c EA6B     		ldr	r2, [r5, #60]
 708              		.loc 1 349 0
 709 002e 8160     		str	r1, [r0, #8]
 710              	.LVL66:
 711              	.LBB84:
 712              	.LBB82:
 713              		.loc 2 62 0
 714 0030 2360     		str	r3, [r4, #0]
 715              	.LBE82:
 716              	.LBE84:
 717              		.loc 1 356 0
 718 0032 2846     		mov	r0, r5
 719              	.LVL67:
 720              	.LBB85:
 721              	.LBB83:
 722              		.loc 2 62 0
 723 0034 5C60     		str	r4, [r3, #4]
 724              	.LBE83:
 725              	.LBE85:
 726              		.loc 1 353 0
 727 0036 A560     		str	r5, [r4, #8]
 728              		.loc 1 354 0
 729 0038 E260     		str	r2, [r4, #12]
 730              		.loc 1 355 0
 731 003a EC63     		str	r4, [r5, #60]
 732              		.loc 1 356 0
 733 003c FFF7FEFF 		bl	chSchReadyI
 734              	.LVL68:
 735              	.LBE79:
 736              		.loc 1 361 0
ARM GAS  C:\Users\srich\AppData\Local\Temp\ccTL03Vr.s 			page 14


 737 0040 2046     		mov	r0, r4
 738 0042 38BD     		pop	{r3, r4, r5, pc}
 739              	.LVL69:
 740              	.L56:
 741              		.loc 1 359 0
 742 0044 0021     		movs	r1, #0
 743 0046 A160     		str	r1, [r4, #8]
 744              		.loc 1 361 0
 745 0048 2046     		mov	r0, r4
 746              	.LVL70:
 747 004a 38BD     		pop	{r3, r4, r5, pc}
 748              	.L67:
 749              		.align	2
 750              	.L66:
 751 004c 00000000 		.word	rlist
 752              		.cfi_endproc
 753              	.LFE13:
 754              		.size	chMtxUnlockS, .-chMtxUnlockS
 755              		.section	.text.chMtxUnlockAll,"ax",%progbits
 756              		.align	2
 757              		.p2align 4,,15
 758              		.global	chMtxUnlockAll
 759              		.thumb
 760              		.thumb_func
 761              		.type	chMtxUnlockAll, %function
 762              	chMtxUnlockAll:
 763              	.LFB14:
 764              		.loc 1 374 0
 765              		.cfi_startproc
 766              		@ args = 0, pretend = 0, frame = 0
 767              		@ frame_needed = 0, uses_anonymous_args = 0
 768              		.loc 1 375 0
 769 0000 134A     		ldr	r2, .L80
 770              		.loc 1 374 0
 771 0002 70B5     		push	{r4, r5, r6, lr}
 772              	.LCFI4:
 773              		.cfi_def_cfa_offset 16
 774              		.cfi_offset 4, -16
 775              		.cfi_offset 5, -12
 776              		.cfi_offset 6, -8
 777              		.cfi_offset 14, -4
 778              	.LBB86:
 779              		.loc 1 377 0
 780 0004 2023     		movs	r3, #32
 781              	.LVL71:
 782              	.LBE86:
 783              		.loc 1 375 0
 784 0006 9469     		ldr	r4, [r2, #24]
 785              	.LVL72:
 786              	.LBB87:
 787              		.loc 1 377 0
 788              	@ 377 "c:\ChibiStudio\chibios/os/kernel/src/chmtx.c" 1
 789 0008 83F31188 		msr     BASEPRI, r3
 790              	@ 0 "" 2
 791              	.LVL73:
 792              		.thumb
 793              	.LBE87:
ARM GAS  C:\Users\srich\AppData\Local\Temp\ccTL03Vr.s 			page 15


 794              		.loc 1 378 0
 795 000c E36B     		ldr	r3, [r4, #60]
 796              	.LVL74:
 797 000e D3B1     		cbz	r3, .L69
 798              	.LBB88:
 799              		.loc 1 390 0
 800 0010 0026     		movs	r6, #0
 801 0012 0BE0     		b	.L75
 802              	.LVL75:
 803              	.L79:
 804              	.LBB89:
 805              	.LBB90:
 806              	.LBB91:
 807              		.loc 2 62 0
 808 0014 1168     		ldr	r1, [r2, #0]
 809              	.LBE91:
 810              	.LBE90:
 811              		.loc 1 385 0
 812 0016 D56B     		ldr	r5, [r2, #60]
 813              	.LBB94:
 814              	.LBB92:
 815              		.loc 2 62 0
 816 0018 1960     		str	r1, [r3, #0]
 817              	.LBE92:
 818              	.LBE94:
 819              		.loc 1 387 0
 820 001a 1046     		mov	r0, r2
 821              	.LBB95:
 822              	.LBB93:
 823              		.loc 2 62 0
 824 001c 4B60     		str	r3, [r1, #4]
 825              	.LBE93:
 826              	.LBE95:
 827              		.loc 1 384 0
 828 001e 9A60     		str	r2, [r3, #8]
 829              		.loc 1 385 0
 830 0020 DD60     		str	r5, [r3, #12]
 831              		.loc 1 386 0
 832 0022 D363     		str	r3, [r2, #60]
 833              		.loc 1 387 0
 834 0024 FFF7FEFF 		bl	chSchReadyI
 835              	.LVL76:
 836              	.LBE89:
 837              	.LBE88:
 838              		.loc 1 391 0
 839 0028 E36B     		ldr	r3, [r4, #60]
 840 002a 43B1     		cbz	r3, .L78
 841              	.L75:
 842              	.LVL77:
 843              	.LBB96:
 844              		.loc 1 382 0
 845 002c 1A68     		ldr	r2, [r3, #0]
 846              	.LVL78:
 847              		.loc 1 381 0
 848 002e D968     		ldr	r1, [r3, #12]
 849              		.loc 1 382 0
 850 0030 9A42     		cmp	r2, r3
ARM GAS  C:\Users\srich\AppData\Local\Temp\ccTL03Vr.s 			page 16


 851              		.loc 1 381 0
 852 0032 E163     		str	r1, [r4, #60]
 853              		.loc 1 382 0
 854 0034 EED1     		bne	.L79
 855              		.loc 1 390 0
 856 0036 9E60     		str	r6, [r3, #8]
 857              	.LBE96:
 858              		.loc 1 391 0
 859 0038 E36B     		ldr	r3, [r4, #60]
 860              	.LVL79:
 861 003a 002B     		cmp	r3, #0
 862 003c F6D1     		bne	.L75
 863              	.LVL80:
 864              	.L78:
 865              		.loc 1 392 0
 866 003e 206C     		ldr	r0, [r4, #64]
 867 0040 A060     		str	r0, [r4, #8]
 868              		.loc 1 393 0
 869 0042 FFF7FEFF 		bl	chSchRescheduleS
 870              	.LVL81:
 871              	.L69:
 872              	.LBB97:
 873              		.loc 1 395 0
 874 0046 0023     		movs	r3, #0
 875              	.LVL82:
 876              	@ 395 "c:\ChibiStudio\chibios/os/kernel/src/chmtx.c" 1
 877 0048 83F31188 		msr     BASEPRI, r3
 878              	@ 0 "" 2
 879              	.LVL83:
 880              		.thumb
 881 004c 70BD     		pop	{r4, r5, r6, pc}
 882              	.L81:
 883 004e 00BF     		.align	2
 884              	.L80:
 885 0050 00000000 		.word	rlist
 886              	.LBE97:
 887              		.cfi_endproc
 888              	.LFE14:
 889              		.size	chMtxUnlockAll, .-chMtxUnlockAll
 890 0054 AFF30080 		.text
 890      AFF30080 
 890      AFF30080 
 891              	.Letext0:
 892              		.file 3 "c:\\chibistudio\\tools\\gnu tools arm embedded\\4.7 2014q2\\bin\\../lib/gcc/arm-none-eabi
 893              		.file 4 "c:\\ChibiStudio\\chibios/os/ports/GCC/ARMCMx/chtypes.h"
 894              		.file 5 "c:\\ChibiStudio\\chibios/os/kernel/include/chlists.h"
 895              		.file 6 "c:\\ChibiStudio\\chibios/os/kernel/include/chthreads.h"
 896              		.file 7 "c:\\ChibiStudio\\chibios/os/ports/GCC/ARMCMx/chcore_v7m.h"
 897              		.file 8 "c:\\ChibiStudio\\chibios/os/kernel/include/chschd.h"
 898              		.file 9 "c:\\ChibiStudio\\chibios/os/kernel/include/chmtx.h"
 899              		.section	.debug_info,"",%progbits
 900              	.Ldebug_info0:
 901 0000 440A0000 		.4byte	0xa44
 902 0004 0200     		.2byte	0x2
 903 0006 00000000 		.4byte	.Ldebug_abbrev0
 904 000a 04       		.byte	0x4
 905 000b 01       		.uleb128 0x1
ARM GAS  C:\Users\srich\AppData\Local\Temp\ccTL03Vr.s 			page 17


 906 000c B3010000 		.4byte	.LASF78
 907 0010 01       		.byte	0x1
 908 0011 EA000000 		.4byte	.LASF79
 909 0015 E0010000 		.4byte	.Ldebug_ranges0+0x1e0
 910 0019 00000000 		.4byte	0
 911 001d 00000000 		.4byte	0
 912 0021 00000000 		.4byte	.Ldebug_line0
 913 0025 02       		.uleb128 0x2
 914 0026 04       		.byte	0x4
 915 0027 05       		.byte	0x5
 916 0028 696E7400 		.ascii	"int\000"
 917 002c 03       		.uleb128 0x3
 918 002d 04       		.byte	0x4
 919 002e 07       		.byte	0x7
 920 002f DD000000 		.4byte	.LASF0
 921 0033 03       		.uleb128 0x3
 922 0034 01       		.byte	0x1
 923 0035 06       		.byte	0x6
 924 0036 4E000000 		.4byte	.LASF1
 925 003a 04       		.uleb128 0x4
 926 003b 58030000 		.4byte	.LASF5
 927 003f 03       		.byte	0x3
 928 0040 2A       		.byte	0x2a
 929 0041 45000000 		.4byte	0x45
 930 0045 03       		.uleb128 0x3
 931 0046 01       		.byte	0x1
 932 0047 08       		.byte	0x8
 933 0048 56020000 		.4byte	.LASF2
 934 004c 03       		.uleb128 0x3
 935 004d 02       		.byte	0x2
 936 004e 05       		.byte	0x5
 937 004f 6E020000 		.4byte	.LASF3
 938 0053 03       		.uleb128 0x3
 939 0054 02       		.byte	0x2
 940 0055 07       		.byte	0x7
 941 0056 31010000 		.4byte	.LASF4
 942 005a 04       		.uleb128 0x4
 943 005b 4E020000 		.4byte	.LASF6
 944 005f 03       		.byte	0x3
 945 0060 4F       		.byte	0x4f
 946 0061 65000000 		.4byte	0x65
 947 0065 03       		.uleb128 0x3
 948 0066 04       		.byte	0x4
 949 0067 05       		.byte	0x5
 950 0068 7B000000 		.4byte	.LASF7
 951 006c 04       		.uleb128 0x4
 952 006d C7020000 		.4byte	.LASF8
 953 0071 03       		.byte	0x3
 954 0072 50       		.byte	0x50
 955 0073 77000000 		.4byte	0x77
 956 0077 03       		.uleb128 0x3
 957 0078 04       		.byte	0x4
 958 0079 07       		.byte	0x7
 959 007a 17010000 		.4byte	.LASF9
 960 007e 03       		.uleb128 0x3
 961 007f 08       		.byte	0x8
 962 0080 05       		.byte	0x5
ARM GAS  C:\Users\srich\AppData\Local\Temp\ccTL03Vr.s 			page 18


 963 0081 40000000 		.4byte	.LASF10
 964 0085 03       		.uleb128 0x3
 965 0086 08       		.byte	0x8
 966 0087 07       		.byte	0x7
 967 0088 0D000000 		.4byte	.LASF11
 968 008c 04       		.uleb128 0x4
 969 008d 62000000 		.4byte	.LASF12
 970 0091 04       		.byte	0x4
 971 0092 2B       		.byte	0x2b
 972 0093 97000000 		.4byte	0x97
 973 0097 03       		.uleb128 0x3
 974 0098 01       		.byte	0x1
 975 0099 02       		.byte	0x2
 976 009a 48020000 		.4byte	.LASF13
 977 009e 04       		.uleb128 0x4
 978 009f 6D010000 		.4byte	.LASF14
 979 00a3 04       		.byte	0x4
 980 00a4 2C       		.byte	0x2c
 981 00a5 3A000000 		.4byte	0x3a
 982 00a9 04       		.uleb128 0x4
 983 00aa 84000000 		.4byte	.LASF15
 984 00ae 04       		.byte	0x4
 985 00af 2D       		.byte	0x2d
 986 00b0 3A000000 		.4byte	0x3a
 987 00b4 04       		.uleb128 0x4
 988 00b5 31020000 		.4byte	.LASF16
 989 00b9 04       		.byte	0x4
 990 00ba 2E       		.byte	0x2e
 991 00bb 3A000000 		.4byte	0x3a
 992 00bf 04       		.uleb128 0x4
 993 00c0 71000000 		.4byte	.LASF17
 994 00c4 04       		.byte	0x4
 995 00c5 2F       		.byte	0x2f
 996 00c6 3A000000 		.4byte	0x3a
 997 00ca 04       		.uleb128 0x4
 998 00cb 40020000 		.4byte	.LASF18
 999 00cf 04       		.byte	0x4
 1000 00d0 30       		.byte	0x30
 1001 00d1 6C000000 		.4byte	0x6c
 1002 00d5 04       		.uleb128 0x4
 1003 00d6 44010000 		.4byte	.LASF19
 1004 00da 04       		.byte	0x4
 1005 00db 31       		.byte	0x31
 1006 00dc 5A000000 		.4byte	0x5a
 1007 00e0 04       		.uleb128 0x4
 1008 00e1 81010000 		.4byte	.LASF20
 1009 00e5 04       		.byte	0x4
 1010 00e6 33       		.byte	0x33
 1011 00e7 6C000000 		.4byte	0x6c
 1012 00eb 04       		.uleb128 0x4
 1013 00ec FC020000 		.4byte	.LASF21
 1014 00f0 04       		.byte	0x4
 1015 00f1 35       		.byte	0x35
 1016 00f2 6C000000 		.4byte	0x6c
 1017 00f6 04       		.uleb128 0x4
 1018 00f7 A7020000 		.4byte	.LASF22
 1019 00fb 05       		.byte	0x5
ARM GAS  C:\Users\srich\AppData\Local\Temp\ccTL03Vr.s 			page 19


 1020 00fc 2A       		.byte	0x2a
 1021 00fd 01010000 		.4byte	0x101
 1022 0101 05       		.uleb128 0x5
 1023 0102 A7020000 		.4byte	.LASF22
 1024 0106 48       		.byte	0x48
 1025 0107 06       		.byte	0x6
 1026 0108 5E       		.byte	0x5e
 1027 0109 26020000 		.4byte	0x226
 1028 010d 06       		.uleb128 0x6
 1029 010e 98020000 		.4byte	.LASF23
 1030 0112 06       		.byte	0x6
 1031 0113 5F       		.byte	0x5f
 1032 0114 4B020000 		.4byte	0x24b
 1033 0118 02       		.byte	0x2
 1034 0119 23       		.byte	0x23
 1035 011a 00       		.uleb128 0
 1036 011b 06       		.uleb128 0x6
 1037 011c 39020000 		.4byte	.LASF24
 1038 0120 06       		.byte	0x6
 1039 0121 61       		.byte	0x61
 1040 0122 4B020000 		.4byte	0x24b
 1041 0126 02       		.byte	0x2
 1042 0127 23       		.byte	0x23
 1043 0128 04       		.uleb128 0x4
 1044 0129 06       		.uleb128 0x6
 1045 012a 39000000 		.4byte	.LASF25
 1046 012e 06       		.byte	0x6
 1047 012f 63       		.byte	0x63
 1048 0130 CA000000 		.4byte	0xca
 1049 0134 02       		.byte	0x2
 1050 0135 23       		.byte	0x23
 1051 0136 08       		.uleb128 0x8
 1052 0137 06       		.uleb128 0x6
 1053 0138 76030000 		.4byte	.LASF26
 1054 013c 06       		.byte	0x6
 1055 013d 64       		.byte	0x64
 1056 013e 19030000 		.4byte	0x319
 1057 0142 02       		.byte	0x2
 1058 0143 23       		.byte	0x23
 1059 0144 0C       		.uleb128 0xc
 1060 0145 06       		.uleb128 0x6
 1061 0146 A6000000 		.4byte	.LASF27
 1062 014a 06       		.byte	0x6
 1063 014b 66       		.byte	0x66
 1064 014c 4B020000 		.4byte	0x24b
 1065 0150 02       		.byte	0x2
 1066 0151 23       		.byte	0x23
 1067 0152 10       		.uleb128 0x10
 1068 0153 06       		.uleb128 0x6
 1069 0154 FC010000 		.4byte	.LASF28
 1070 0158 06       		.byte	0x6
 1071 0159 67       		.byte	0x67
 1072 015a 4B020000 		.4byte	0x24b
 1073 015e 02       		.byte	0x2
 1074 015f 23       		.byte	0x23
 1075 0160 14       		.uleb128 0x14
 1076 0161 06       		.uleb128 0x6
ARM GAS  C:\Users\srich\AppData\Local\Temp\ccTL03Vr.s 			page 20


 1077 0162 67030000 		.4byte	.LASF29
 1078 0166 06       		.byte	0x6
 1079 0167 6E       		.byte	0x6e
 1080 0168 2D040000 		.4byte	0x42d
 1081 016c 02       		.byte	0x2
 1082 016d 23       		.byte	0x23
 1083 016e 18       		.uleb128 0x18
 1084 016f 06       		.uleb128 0x6
 1085 0170 78020000 		.4byte	.LASF30
 1086 0174 06       		.byte	0x6
 1087 0175 79       		.byte	0x79
 1088 0176 A9000000 		.4byte	0xa9
 1089 017a 02       		.byte	0x2
 1090 017b 23       		.byte	0x23
 1091 017c 1C       		.uleb128 0x1c
 1092 017d 06       		.uleb128 0x6
 1093 017e 9F020000 		.4byte	.LASF31
 1094 0182 06       		.byte	0x6
 1095 0183 7D       		.byte	0x7d
 1096 0184 9E000000 		.4byte	0x9e
 1097 0188 02       		.byte	0x2
 1098 0189 23       		.byte	0x23
 1099 018a 1D       		.uleb128 0x1d
 1100 018b 06       		.uleb128 0x6
 1101 018c 41030000 		.4byte	.LASF32
 1102 0190 06       		.byte	0x6
 1103 0191 82       		.byte	0x82
 1104 0192 B4000000 		.4byte	0xb4
 1105 0196 02       		.byte	0x2
 1106 0197 23       		.byte	0x23
 1107 0198 1E       		.uleb128 0x1e
 1108 0199 06       		.uleb128 0x6
 1109 019a 80020000 		.4byte	.LASF33
 1110 019e 06       		.byte	0x6
 1111 019f 88       		.byte	0x88
 1112 01a0 BF000000 		.4byte	0xbf
 1113 01a4 02       		.byte	0x2
 1114 01a5 23       		.byte	0x23
 1115 01a6 1F       		.uleb128 0x1f
 1116 01a7 06       		.uleb128 0x6
 1117 01a8 11030000 		.4byte	.LASF34
 1118 01ac 06       		.byte	0x6
 1119 01ad 8F       		.byte	0x8f
 1120 01ae 43030000 		.4byte	0x343
 1121 01b2 02       		.byte	0x2
 1122 01b3 23       		.byte	0x23
 1123 01b4 20       		.uleb128 0x20
 1124 01b5 07       		.uleb128 0x7
 1125 01b6 705F7500 		.ascii	"p_u\000"
 1126 01ba 06       		.byte	0x6
 1127 01bb B4       		.byte	0xb4
 1128 01bc F8030000 		.4byte	0x3f8
 1129 01c0 02       		.byte	0x2
 1130 01c1 23       		.byte	0x23
 1131 01c2 24       		.uleb128 0x24
 1132 01c3 06       		.uleb128 0x6
 1133 01c4 7C030000 		.4byte	.LASF35
ARM GAS  C:\Users\srich\AppData\Local\Temp\ccTL03Vr.s 			page 21


 1134 01c8 06       		.byte	0x6
 1135 01c9 B9       		.byte	0xb9
 1136 01ca 73020000 		.4byte	0x273
 1137 01ce 02       		.byte	0x2
 1138 01cf 23       		.byte	0x23
 1139 01d0 28       		.uleb128 0x28
 1140 01d1 06       		.uleb128 0x6
 1141 01d2 1F030000 		.4byte	.LASF36
 1142 01d6 06       		.byte	0x6
 1143 01d7 BF       		.byte	0xbf
 1144 01d8 51020000 		.4byte	0x251
 1145 01dc 02       		.byte	0x2
 1146 01dd 23       		.byte	0x23
 1147 01de 2C       		.uleb128 0x2c
 1148 01df 06       		.uleb128 0x6
 1149 01e0 00000000 		.4byte	.LASF37
 1150 01e4 06       		.byte	0x6
 1151 01e5 C3       		.byte	0xc3
 1152 01e6 D5000000 		.4byte	0xd5
 1153 01ea 02       		.byte	0x2
 1154 01eb 23       		.byte	0x23
 1155 01ec 34       		.uleb128 0x34
 1156 01ed 06       		.uleb128 0x6
 1157 01ee BC020000 		.4byte	.LASF38
 1158 01f2 06       		.byte	0x6
 1159 01f3 C9       		.byte	0xc9
 1160 01f4 E0000000 		.4byte	0xe0
 1161 01f8 02       		.byte	0x2
 1162 01f9 23       		.byte	0x23
 1163 01fa 38       		.uleb128 0x38
 1164 01fb 06       		.uleb128 0x6
 1165 01fc 64020000 		.4byte	.LASF39
 1166 0200 06       		.byte	0x6
 1167 0201 D0       		.byte	0xd0
 1168 0202 3F040000 		.4byte	0x43f
 1169 0206 02       		.byte	0x2
 1170 0207 23       		.byte	0x23
 1171 0208 3C       		.uleb128 0x3c
 1172 0209 06       		.uleb128 0x6
 1173 020a 06030000 		.4byte	.LASF40
 1174 020e 06       		.byte	0x6
 1175 020f D4       		.byte	0xd4
 1176 0210 CA000000 		.4byte	0xca
 1177 0214 02       		.byte	0x2
 1178 0215 23       		.byte	0x23
 1179 0216 40       		.uleb128 0x40
 1180 0217 06       		.uleb128 0x6
 1181 0218 5A000000 		.4byte	.LASF41
 1182 021c 06       		.byte	0x6
 1183 021d DA       		.byte	0xda
 1184 021e 89020000 		.4byte	0x289
 1185 0222 02       		.byte	0x2
 1186 0223 23       		.byte	0x23
 1187 0224 44       		.uleb128 0x44
 1188 0225 00       		.byte	0
 1189 0226 08       		.uleb128 0x8
 1190 0227 08       		.byte	0x8
ARM GAS  C:\Users\srich\AppData\Local\Temp\ccTL03Vr.s 			page 22


 1191 0228 05       		.byte	0x5
 1192 0229 61       		.byte	0x61
 1193 022a 4B020000 		.4byte	0x24b
 1194 022e 06       		.uleb128 0x6
 1195 022f 98020000 		.4byte	.LASF23
 1196 0233 05       		.byte	0x5
 1197 0234 62       		.byte	0x62
 1198 0235 4B020000 		.4byte	0x24b
 1199 0239 02       		.byte	0x2
 1200 023a 23       		.byte	0x23
 1201 023b 00       		.uleb128 0
 1202 023c 06       		.uleb128 0x6
 1203 023d 39020000 		.4byte	.LASF24
 1204 0241 05       		.byte	0x5
 1205 0242 64       		.byte	0x64
 1206 0243 4B020000 		.4byte	0x24b
 1207 0247 02       		.byte	0x2
 1208 0248 23       		.byte	0x23
 1209 0249 04       		.uleb128 0x4
 1210 024a 00       		.byte	0
 1211 024b 09       		.uleb128 0x9
 1212 024c 04       		.byte	0x4
 1213 024d F6000000 		.4byte	0xf6
 1214 0251 04       		.uleb128 0x4
 1215 0252 0A020000 		.4byte	.LASF42
 1216 0256 05       		.byte	0x5
 1217 0257 66       		.byte	0x66
 1218 0258 26020000 		.4byte	0x226
 1219 025c 08       		.uleb128 0x8
 1220 025d 04       		.byte	0x4
 1221 025e 05       		.byte	0x5
 1222 025f 6B       		.byte	0x6b
 1223 0260 73020000 		.4byte	0x273
 1224 0264 06       		.uleb128 0x6
 1225 0265 98020000 		.4byte	.LASF23
 1226 0269 05       		.byte	0x5
 1227 026a 6D       		.byte	0x6d
 1228 026b 4B020000 		.4byte	0x24b
 1229 026f 02       		.byte	0x2
 1230 0270 23       		.byte	0x23
 1231 0271 00       		.uleb128 0
 1232 0272 00       		.byte	0
 1233 0273 04       		.uleb128 0x4
 1234 0274 75010000 		.4byte	.LASF43
 1235 0278 05       		.byte	0x5
 1236 0279 70       		.byte	0x70
 1237 027a 5C020000 		.4byte	0x25c
 1238 027e 04       		.uleb128 0x4
 1239 027f C7000000 		.4byte	.LASF44
 1240 0283 07       		.byte	0x7
 1241 0284 E5       		.byte	0xe5
 1242 0285 89020000 		.4byte	0x289
 1243 0289 0A       		.uleb128 0xa
 1244 028a 04       		.byte	0x4
 1245 028b 0B       		.uleb128 0xb
 1246 028c 18030000 		.4byte	.LASF45
 1247 0290 24       		.byte	0x24
ARM GAS  C:\Users\srich\AppData\Local\Temp\ccTL03Vr.s 			page 23


 1248 0291 07       		.byte	0x7
 1249 0292 0C01     		.2byte	0x10c
 1250 0294 19030000 		.4byte	0x319
 1251 0298 0C       		.uleb128 0xc
 1252 0299 723400   		.ascii	"r4\000"
 1253 029c 07       		.byte	0x7
 1254 029d 1F01     		.2byte	0x11f
 1255 029f 7E020000 		.4byte	0x27e
 1256 02a3 02       		.byte	0x2
 1257 02a4 23       		.byte	0x23
 1258 02a5 00       		.uleb128 0
 1259 02a6 0C       		.uleb128 0xc
 1260 02a7 723500   		.ascii	"r5\000"
 1261 02aa 07       		.byte	0x7
 1262 02ab 2001     		.2byte	0x120
 1263 02ad 7E020000 		.4byte	0x27e
 1264 02b1 02       		.byte	0x2
 1265 02b2 23       		.byte	0x23
 1266 02b3 04       		.uleb128 0x4
 1267 02b4 0C       		.uleb128 0xc
 1268 02b5 723600   		.ascii	"r6\000"
 1269 02b8 07       		.byte	0x7
 1270 02b9 2101     		.2byte	0x121
 1271 02bb 7E020000 		.4byte	0x27e
 1272 02bf 02       		.byte	0x2
 1273 02c0 23       		.byte	0x23
 1274 02c1 08       		.uleb128 0x8
 1275 02c2 0C       		.uleb128 0xc
 1276 02c3 723700   		.ascii	"r7\000"
 1277 02c6 07       		.byte	0x7
 1278 02c7 2201     		.2byte	0x122
 1279 02c9 7E020000 		.4byte	0x27e
 1280 02cd 02       		.byte	0x2
 1281 02ce 23       		.byte	0x23
 1282 02cf 0C       		.uleb128 0xc
 1283 02d0 0C       		.uleb128 0xc
 1284 02d1 723800   		.ascii	"r8\000"
 1285 02d4 07       		.byte	0x7
 1286 02d5 2301     		.2byte	0x123
 1287 02d7 7E020000 		.4byte	0x27e
 1288 02db 02       		.byte	0x2
 1289 02dc 23       		.byte	0x23
 1290 02dd 10       		.uleb128 0x10
 1291 02de 0C       		.uleb128 0xc
 1292 02df 723900   		.ascii	"r9\000"
 1293 02e2 07       		.byte	0x7
 1294 02e3 2401     		.2byte	0x124
 1295 02e5 7E020000 		.4byte	0x27e
 1296 02e9 02       		.byte	0x2
 1297 02ea 23       		.byte	0x23
 1298 02eb 14       		.uleb128 0x14
 1299 02ec 0C       		.uleb128 0xc
 1300 02ed 72313000 		.ascii	"r10\000"
 1301 02f1 07       		.byte	0x7
 1302 02f2 2501     		.2byte	0x125
 1303 02f4 7E020000 		.4byte	0x27e
 1304 02f8 02       		.byte	0x2
ARM GAS  C:\Users\srich\AppData\Local\Temp\ccTL03Vr.s 			page 24


 1305 02f9 23       		.byte	0x23
 1306 02fa 18       		.uleb128 0x18
 1307 02fb 0C       		.uleb128 0xc
 1308 02fc 72313100 		.ascii	"r11\000"
 1309 0300 07       		.byte	0x7
 1310 0301 2601     		.2byte	0x126
 1311 0303 7E020000 		.4byte	0x27e
 1312 0307 02       		.byte	0x2
 1313 0308 23       		.byte	0x23
 1314 0309 1C       		.uleb128 0x1c
 1315 030a 0C       		.uleb128 0xc
 1316 030b 6C7200   		.ascii	"lr\000"
 1317 030e 07       		.byte	0x7
 1318 030f 2701     		.2byte	0x127
 1319 0311 7E020000 		.4byte	0x27e
 1320 0315 02       		.byte	0x2
 1321 0316 23       		.byte	0x23
 1322 0317 20       		.uleb128 0x20
 1323 0318 00       		.byte	0
 1324 0319 0B       		.uleb128 0xb
 1325 031a 29010000 		.4byte	.LASF46
 1326 031e 04       		.byte	0x4
 1327 031f 07       		.byte	0x7
 1328 0320 3101     		.2byte	0x131
 1329 0322 36030000 		.4byte	0x336
 1330 0326 0C       		.uleb128 0xc
 1331 0327 72313300 		.ascii	"r13\000"
 1332 032b 07       		.byte	0x7
 1333 032c 3201     		.2byte	0x132
 1334 032e 36030000 		.4byte	0x336
 1335 0332 02       		.byte	0x2
 1336 0333 23       		.byte	0x23
 1337 0334 00       		.uleb128 0
 1338 0335 00       		.byte	0
 1339 0336 09       		.uleb128 0x9
 1340 0337 04       		.byte	0x4
 1341 0338 8B020000 		.4byte	0x28b
 1342 033c 03       		.uleb128 0x3
 1343 033d 04       		.byte	0x4
 1344 033e 07       		.byte	0x7
 1345 033f A0010000 		.4byte	.LASF47
 1346 0343 0D       		.uleb128 0xd
 1347 0344 EB000000 		.4byte	0xeb
 1348 0348 08       		.uleb128 0x8
 1349 0349 1C       		.byte	0x1c
 1350 034a 08       		.byte	0x8
 1351 034b 5E       		.byte	0x5e
 1352 034c A5030000 		.4byte	0x3a5
 1353 0350 06       		.uleb128 0x6
 1354 0351 D0020000 		.4byte	.LASF48
 1355 0355 08       		.byte	0x8
 1356 0356 5F       		.byte	0x5f
 1357 0357 51020000 		.4byte	0x251
 1358 035b 02       		.byte	0x2
 1359 035c 23       		.byte	0x23
 1360 035d 00       		.uleb128 0
 1361 035e 06       		.uleb128 0x6
ARM GAS  C:\Users\srich\AppData\Local\Temp\ccTL03Vr.s 			page 25


 1362 035f 8A020000 		.4byte	.LASF49
 1363 0363 08       		.byte	0x8
 1364 0364 60       		.byte	0x60
 1365 0365 CA000000 		.4byte	0xca
 1366 0369 02       		.byte	0x2
 1367 036a 23       		.byte	0x23
 1368 036b 08       		.uleb128 0x8
 1369 036c 06       		.uleb128 0x6
 1370 036d 04020000 		.4byte	.LASF50
 1371 0371 08       		.byte	0x8
 1372 0372 62       		.byte	0x62
 1373 0373 19030000 		.4byte	0x319
 1374 0377 02       		.byte	0x2
 1375 0378 23       		.byte	0x23
 1376 0379 0C       		.uleb128 0xc
 1377 037a 06       		.uleb128 0x6
 1378 037b BF000000 		.4byte	.LASF51
 1379 037f 08       		.byte	0x8
 1380 0380 65       		.byte	0x65
 1381 0381 4B020000 		.4byte	0x24b
 1382 0385 02       		.byte	0x2
 1383 0386 23       		.byte	0x23
 1384 0387 10       		.uleb128 0x10
 1385 0388 06       		.uleb128 0x6
 1386 0389 29020000 		.4byte	.LASF52
 1387 038d 08       		.byte	0x8
 1388 038e 66       		.byte	0x66
 1389 038f 4B020000 		.4byte	0x24b
 1390 0393 02       		.byte	0x2
 1391 0394 23       		.byte	0x23
 1392 0395 14       		.uleb128 0x14
 1393 0396 06       		.uleb128 0x6
 1394 0397 1F020000 		.4byte	.LASF53
 1395 039b 08       		.byte	0x8
 1396 039c 69       		.byte	0x69
 1397 039d 4B020000 		.4byte	0x24b
 1398 03a1 02       		.byte	0x2
 1399 03a2 23       		.byte	0x23
 1400 03a3 18       		.uleb128 0x18
 1401 03a4 00       		.byte	0
 1402 03a5 04       		.uleb128 0x4
 1403 03a6 48030000 		.4byte	.LASF54
 1404 03aa 08       		.byte	0x8
 1405 03ab 6B       		.byte	0x6b
 1406 03ac 48030000 		.4byte	0x348
 1407 03b0 05       		.uleb128 0x5
 1408 03b1 9A010000 		.4byte	.LASF55
 1409 03b5 10       		.byte	0x10
 1410 03b6 09       		.byte	0x9
 1411 03b7 2C       		.byte	0x2c
 1412 03b8 E7030000 		.4byte	0x3e7
 1413 03bc 06       		.uleb128 0x6
 1414 03bd 69000000 		.4byte	.LASF56
 1415 03c1 09       		.byte	0x9
 1416 03c2 2D       		.byte	0x2d
 1417 03c3 51020000 		.4byte	0x251
 1418 03c7 02       		.byte	0x2
ARM GAS  C:\Users\srich\AppData\Local\Temp\ccTL03Vr.s 			page 26


 1419 03c8 23       		.byte	0x23
 1420 03c9 00       		.uleb128 0
 1421 03ca 06       		.uleb128 0x6
 1422 03cb 6E030000 		.4byte	.LASF57
 1423 03cf 09       		.byte	0x9
 1424 03d0 2F       		.byte	0x2f
 1425 03d1 4B020000 		.4byte	0x24b
 1426 03d5 02       		.byte	0x2
 1427 03d6 23       		.byte	0x23
 1428 03d7 08       		.uleb128 0x8
 1429 03d8 06       		.uleb128 0x6
 1430 03d9 F5020000 		.4byte	.LASF58
 1431 03dd 09       		.byte	0x9
 1432 03de 31       		.byte	0x31
 1433 03df E7030000 		.4byte	0x3e7
 1434 03e3 02       		.byte	0x2
 1435 03e4 23       		.byte	0x23
 1436 03e5 0C       		.uleb128 0xc
 1437 03e6 00       		.byte	0
 1438 03e7 09       		.uleb128 0x9
 1439 03e8 04       		.byte	0x4
 1440 03e9 B0030000 		.4byte	0x3b0
 1441 03ed 04       		.uleb128 0x4
 1442 03ee 9A010000 		.4byte	.LASF55
 1443 03f2 09       		.byte	0x9
 1444 03f3 33       		.byte	0x33
 1445 03f4 B0030000 		.4byte	0x3b0
 1446 03f8 0E       		.uleb128 0xe
 1447 03f9 04       		.byte	0x4
 1448 03fa 06       		.byte	0x6
 1449 03fb 96       		.byte	0x96
 1450 03fc 2D040000 		.4byte	0x42d
 1451 0400 0F       		.uleb128 0xf
 1452 0401 06000000 		.4byte	.LASF59
 1453 0405 06       		.byte	0x6
 1454 0406 9D       		.byte	0x9d
 1455 0407 D5000000 		.4byte	0xd5
 1456 040b 0F       		.uleb128 0xf
 1457 040c 24000000 		.4byte	.LASF60
 1458 0410 06       		.byte	0x6
 1459 0411 A4       		.byte	0xa4
 1460 0412 D5000000 		.4byte	0xd5
 1461 0416 0F       		.uleb128 0xf
 1462 0417 60030000 		.4byte	.LASF61
 1463 041b 06       		.byte	0x6
 1464 041c AB       		.byte	0xab
 1465 041d 89020000 		.4byte	0x289
 1466 0421 0F       		.uleb128 0xf
 1467 0422 91020000 		.4byte	.LASF62
 1468 0426 06       		.byte	0x6
 1469 0427 B2       		.byte	0xb2
 1470 0428 E0000000 		.4byte	0xe0
 1471 042c 00       		.byte	0
 1472 042d 09       		.uleb128 0x9
 1473 042e 04       		.byte	0x4
 1474 042f 33040000 		.4byte	0x433
 1475 0433 10       		.uleb128 0x10
ARM GAS  C:\Users\srich\AppData\Local\Temp\ccTL03Vr.s 			page 27


 1476 0434 38040000 		.4byte	0x438
 1477 0438 03       		.uleb128 0x3
 1478 0439 01       		.byte	0x1
 1479 043a 08       		.byte	0x8
 1480 043b E4020000 		.4byte	.LASF63
 1481 043f 09       		.uleb128 0x9
 1482 0440 04       		.byte	0x4
 1483 0441 ED030000 		.4byte	0x3ed
 1484 0445 11       		.uleb128 0x11
 1485 0446 17020000 		.4byte	.LASF64
 1486 044a 02       		.byte	0x2
 1487 044b 49       		.byte	0x49
 1488 044c 01       		.byte	0x1
 1489 044d 4B020000 		.4byte	0x24b
 1490 0451 03       		.byte	0x3
 1491 0452 61040000 		.4byte	0x461
 1492 0456 12       		.uleb128 0x12
 1493 0457 747000   		.ascii	"tp\000"
 1494 045a 02       		.byte	0x2
 1495 045b 49       		.byte	0x49
 1496 045c 4B020000 		.4byte	0x24b
 1497 0460 00       		.byte	0
 1498 0461 13       		.uleb128 0x13
 1499 0462 4A010000 		.4byte	.LASF80
 1500 0466 02       		.byte	0x2
 1501 0467 29       		.byte	0x29
 1502 0468 01       		.byte	0x1
 1503 0469 03       		.byte	0x3
 1504 046a 8E040000 		.4byte	0x48e
 1505 046e 12       		.uleb128 0x12
 1506 046f 747000   		.ascii	"tp\000"
 1507 0472 02       		.byte	0x2
 1508 0473 29       		.byte	0x29
 1509 0474 4B020000 		.4byte	0x24b
 1510 0478 12       		.uleb128 0x12
 1511 0479 74717000 		.ascii	"tqp\000"
 1512 047d 02       		.byte	0x2
 1513 047e 29       		.byte	0x29
 1514 047f 8E040000 		.4byte	0x48e
 1515 0483 14       		.uleb128 0x14
 1516 0484 637000   		.ascii	"cp\000"
 1517 0487 02       		.byte	0x2
 1518 0488 2B       		.byte	0x2b
 1519 0489 4B020000 		.4byte	0x24b
 1520 048d 00       		.byte	0
 1521 048e 09       		.uleb128 0x9
 1522 048f 04       		.byte	0x4
 1523 0490 51020000 		.4byte	0x251
 1524 0494 15       		.uleb128 0x15
 1525 0495 01       		.byte	0x1
 1526 0496 98000000 		.4byte	.LASF74
 1527 049a 01       		.byte	0x1
 1528 049b EA       		.byte	0xea
 1529 049c 01       		.byte	0x1
 1530 049d 8C000000 		.4byte	0x8c
 1531 04a1 01       		.byte	0x1
 1532 04a2 B1040000 		.4byte	0x4b1
ARM GAS  C:\Users\srich\AppData\Local\Temp\ccTL03Vr.s 			page 28


 1533 04a6 12       		.uleb128 0x12
 1534 04a7 6D7000   		.ascii	"mp\000"
 1535 04aa 01       		.byte	0x1
 1536 04ab EA       		.byte	0xea
 1537 04ac 3F040000 		.4byte	0x43f
 1538 04b0 00       		.byte	0
 1539 04b1 11       		.uleb128 0x11
 1540 04b2 E9020000 		.4byte	.LASF65
 1541 04b6 02       		.byte	0x2
 1542 04b7 3B       		.byte	0x3b
 1543 04b8 01       		.byte	0x1
 1544 04b9 4B020000 		.4byte	0x24b
 1545 04bd 03       		.byte	0x3
 1546 04be D8040000 		.4byte	0x4d8
 1547 04c2 12       		.uleb128 0x12
 1548 04c3 74717000 		.ascii	"tqp\000"
 1549 04c7 02       		.byte	0x2
 1550 04c8 3B       		.byte	0x3b
 1551 04c9 8E040000 		.4byte	0x48e
 1552 04cd 14       		.uleb128 0x14
 1553 04ce 747000   		.ascii	"tp\000"
 1554 04d1 02       		.byte	0x2
 1555 04d2 3C       		.byte	0x3c
 1556 04d3 4B020000 		.4byte	0x24b
 1557 04d7 00       		.byte	0
 1558 04d8 16       		.uleb128 0x16
 1559 04d9 01       		.byte	0x1
 1560 04da 37030000 		.4byte	.LASF66
 1561 04de 01       		.byte	0x1
 1562 04df 56       		.byte	0x56
 1563 04e0 01       		.byte	0x1
 1564 04e1 00000000 		.4byte	.LFB7
 1565 04e5 0A000000 		.4byte	.LFE7
 1566 04e9 02       		.byte	0x2
 1567 04ea 7D       		.byte	0x7d
 1568 04eb 00       		.sleb128 0
 1569 04ec 01       		.byte	0x1
 1570 04ed FE040000 		.4byte	0x4fe
 1571 04f1 17       		.uleb128 0x17
 1572 04f2 6D7000   		.ascii	"mp\000"
 1573 04f5 01       		.byte	0x1
 1574 04f6 56       		.byte	0x56
 1575 04f7 3F040000 		.4byte	0x43f
 1576 04fb 01       		.byte	0x1
 1577 04fc 50       		.byte	0x50
 1578 04fd 00       		.byte	0
 1579 04fe 18       		.uleb128 0x18
 1580 04ff 01       		.byte	0x1
 1581 0500 8D000000 		.4byte	.LASF67
 1582 0504 01       		.byte	0x1
 1583 0505 79       		.byte	0x79
 1584 0506 01       		.byte	0x1
 1585 0507 00000000 		.4byte	.LFB9
 1586 050b C4000000 		.4byte	.LFE9
 1587 050f 00000000 		.4byte	.LLST0
 1588 0513 01       		.byte	0x1
 1589 0514 5F060000 		.4byte	0x65f
ARM GAS  C:\Users\srich\AppData\Local\Temp\ccTL03Vr.s 			page 29


 1590 0518 19       		.uleb128 0x19
 1591 0519 6D7000   		.ascii	"mp\000"
 1592 051c 01       		.byte	0x1
 1593 051d 79       		.byte	0x79
 1594 051e 3F040000 		.4byte	0x43f
 1595 0522 20000000 		.4byte	.LLST1
 1596 0526 1A       		.uleb128 0x1a
 1597 0527 63747000 		.ascii	"ctp\000"
 1598 052b 01       		.byte	0x1
 1599 052c 7A       		.byte	0x7a
 1600 052d 4B020000 		.4byte	0x24b
 1601 0531 01       		.byte	0x1
 1602 0532 54       		.byte	0x54
 1603 0533 1B       		.uleb128 0x1b
 1604 0534 00000000 		.4byte	.Ldebug_ranges0+0
 1605 0538 1C       		.uleb128 0x1c
 1606 0539 747000   		.ascii	"tp\000"
 1607 053c 01       		.byte	0x1
 1608 053d 84       		.byte	0x84
 1609 053e 4B020000 		.4byte	0x24b
 1610 0542 54000000 		.4byte	.LLST2
 1611 0546 1D       		.uleb128 0x1d
 1612 0547 61040000 		.4byte	0x461
 1613 054b 26000000 		.4byte	.LBB34
 1614 054f 20000000 		.4byte	.Ldebug_ranges0+0x20
 1615 0553 01       		.byte	0x1
 1616 0554 AD       		.byte	0xad
 1617 0555 7B050000 		.4byte	0x57b
 1618 0559 1E       		.uleb128 0x1e
 1619 055a 78040000 		.4byte	0x478
 1620 055e 88000000 		.4byte	.LLST3
 1621 0562 1E       		.uleb128 0x1e
 1622 0563 6E040000 		.4byte	0x46e
 1623 0567 9B000000 		.4byte	.LLST4
 1624 056b 1B       		.uleb128 0x1b
 1625 056c 38000000 		.4byte	.Ldebug_ranges0+0x38
 1626 0570 1F       		.uleb128 0x1f
 1627 0571 83040000 		.4byte	0x483
 1628 0575 AE000000 		.4byte	.LLST5
 1629 0579 00       		.byte	0
 1630 057a 00       		.byte	0
 1631 057b 1D       		.uleb128 0x1d
 1632 057c 45040000 		.4byte	0x445
 1633 0580 4A000000 		.4byte	.LBB38
 1634 0584 50000000 		.4byte	.Ldebug_ranges0+0x50
 1635 0588 01       		.byte	0x1
 1636 0589 A7       		.byte	0xa7
 1637 058a 98050000 		.4byte	0x598
 1638 058e 1E       		.uleb128 0x1e
 1639 058f 56040000 		.4byte	0x456
 1640 0593 D8000000 		.4byte	.LLST6
 1641 0597 00       		.byte	0
 1642 0598 1D       		.uleb128 0x1d
 1643 0599 45040000 		.4byte	0x445
 1644 059d 5C000000 		.4byte	.LBB42
 1645 05a1 68000000 		.4byte	.Ldebug_ranges0+0x68
 1646 05a5 01       		.byte	0x1
ARM GAS  C:\Users\srich\AppData\Local\Temp\ccTL03Vr.s 			page 30


 1647 05a6 9E       		.byte	0x9e
 1648 05a7 B5050000 		.4byte	0x5b5
 1649 05ab 1E       		.uleb128 0x1e
 1650 05ac 56040000 		.4byte	0x456
 1651 05b0 EB000000 		.4byte	.LLST7
 1652 05b4 00       		.byte	0
 1653 05b5 20       		.uleb128 0x20
 1654 05b6 61040000 		.4byte	0x461
 1655 05ba 6A000000 		.4byte	.LBB48
 1656 05be 82000000 		.4byte	.LBE48
 1657 05c2 01       		.byte	0x1
 1658 05c3 9E       		.byte	0x9e
 1659 05c4 EE050000 		.4byte	0x5ee
 1660 05c8 1E       		.uleb128 0x1e
 1661 05c9 78040000 		.4byte	0x478
 1662 05cd FE000000 		.4byte	.LLST8
 1663 05d1 1E       		.uleb128 0x1e
 1664 05d2 6E040000 		.4byte	0x46e
 1665 05d6 11010000 		.4byte	.LLST9
 1666 05da 21       		.uleb128 0x21
 1667 05db 6A000000 		.4byte	.LBB49
 1668 05df 82000000 		.4byte	.LBE49
 1669 05e3 1F       		.uleb128 0x1f
 1670 05e4 83040000 		.4byte	0x483
 1671 05e8 24010000 		.4byte	.LLST10
 1672 05ec 00       		.byte	0
 1673 05ed 00       		.byte	0
 1674 05ee 1D       		.uleb128 0x1d
 1675 05ef 45040000 		.4byte	0x445
 1676 05f3 82000000 		.4byte	.LBB50
 1677 05f7 88000000 		.4byte	.Ldebug_ranges0+0x88
 1678 05fb 01       		.byte	0x1
 1679 05fc 8E       		.byte	0x8e
 1680 05fd 0B060000 		.4byte	0x60b
 1681 0601 1E       		.uleb128 0x1e
 1682 0602 56040000 		.4byte	0x456
 1683 0606 42010000 		.4byte	.LLST11
 1684 060a 00       		.byte	0
 1685 060b 1D       		.uleb128 0x1d
 1686 060c 61040000 		.4byte	0x461
 1687 0610 90000000 		.4byte	.LBB56
 1688 0614 A8000000 		.4byte	.Ldebug_ranges0+0xa8
 1689 0618 01       		.byte	0x1
 1690 0619 8E       		.byte	0x8e
 1691 061a 40060000 		.4byte	0x640
 1692 061e 1E       		.uleb128 0x1e
 1693 061f 78040000 		.4byte	0x478
 1694 0623 6C010000 		.4byte	.LLST12
 1695 0627 1E       		.uleb128 0x1e
 1696 0628 6E040000 		.4byte	0x46e
 1697 062c 8A010000 		.4byte	.LLST13
 1698 0630 1B       		.uleb128 0x1b
 1699 0631 C0000000 		.4byte	.Ldebug_ranges0+0xc0
 1700 0635 1F       		.uleb128 0x1f
 1701 0636 83040000 		.4byte	0x483
 1702 063a B4010000 		.4byte	.LLST14
 1703 063e 00       		.byte	0
ARM GAS  C:\Users\srich\AppData\Local\Temp\ccTL03Vr.s 			page 31


 1704 063f 00       		.byte	0
 1705 0640 22       		.uleb128 0x22
 1706 0641 4A000000 		.4byte	.LVL9
 1707 0645 01       		.byte	0x1
 1708 0646 F8090000 		.4byte	0x9f8
 1709 064a 54060000 		.4byte	0x654
 1710 064e 23       		.uleb128 0x23
 1711 064f 01       		.byte	0x1
 1712 0650 50       		.byte	0x50
 1713 0651 01       		.byte	0x1
 1714 0652 34       		.byte	0x34
 1715 0653 00       		.byte	0
 1716 0654 24       		.uleb128 0x24
 1717 0655 5A000000 		.4byte	.LVL10
 1718 0659 0C0A0000 		.4byte	0xa0c
 1719 065d 00       		.byte	0
 1720 065e 00       		.byte	0
 1721 065f 18       		.uleb128 0x18
 1722 0660 01       		.byte	0x1
 1723 0661 A9010000 		.4byte	.LASF68
 1724 0665 01       		.byte	0x1
 1725 0666 67       		.byte	0x67
 1726 0667 01       		.byte	0x1
 1727 0668 00000000 		.4byte	.LFB8
 1728 066c 14000000 		.4byte	.LFE8
 1729 0670 DD010000 		.4byte	.LLST15
 1730 0674 01       		.byte	0x1
 1731 0675 D3060000 		.4byte	0x6d3
 1732 0679 19       		.uleb128 0x19
 1733 067a 6D7000   		.ascii	"mp\000"
 1734 067d 01       		.byte	0x1
 1735 067e 67       		.byte	0x67
 1736 067f 3F040000 		.4byte	0x43f
 1737 0683 FD010000 		.4byte	.LLST16
 1738 0687 25       		.uleb128 0x25
 1739 0688 02000000 		.4byte	.LBB62
 1740 068c 08000000 		.4byte	.LBE62
 1741 0690 A4060000 		.4byte	0x6a4
 1742 0694 1C       		.uleb128 0x1c
 1743 0695 746D7000 		.ascii	"tmp\000"
 1744 0699 01       		.byte	0x1
 1745 069a 69       		.byte	0x69
 1746 069b 6C000000 		.4byte	0x6c
 1747 069f 1E020000 		.4byte	.LLST17
 1748 06a3 00       		.byte	0
 1749 06a4 25       		.uleb128 0x25
 1750 06a5 0C000000 		.4byte	.LBB63
 1751 06a9 14000000 		.4byte	.LBE63
 1752 06ad C1060000 		.4byte	0x6c1
 1753 06b1 1C       		.uleb128 0x1c
 1754 06b2 746D7000 		.ascii	"tmp\000"
 1755 06b6 01       		.byte	0x1
 1756 06b7 6D       		.byte	0x6d
 1757 06b8 6C000000 		.4byte	0x6c
 1758 06bc 31020000 		.4byte	.LLST18
 1759 06c0 00       		.byte	0
 1760 06c1 26       		.uleb128 0x26
ARM GAS  C:\Users\srich\AppData\Local\Temp\ccTL03Vr.s 			page 32


 1761 06c2 0C000000 		.4byte	.LVL28
 1762 06c6 FE040000 		.4byte	0x4fe
 1763 06ca 23       		.uleb128 0x23
 1764 06cb 01       		.byte	0x1
 1765 06cc 50       		.byte	0x50
 1766 06cd 03       		.byte	0x3
 1767 06ce F3       		.byte	0xf3
 1768 06cf 01       		.uleb128 0x1
 1769 06d0 50       		.byte	0x50
 1770 06d1 00       		.byte	0
 1771 06d2 00       		.byte	0
 1772 06d3 27       		.uleb128 0x27
 1773 06d4 01       		.byte	0x1
 1774 06d5 8D010000 		.4byte	.LASF69
 1775 06d9 01       		.byte	0x1
 1776 06da CE       		.byte	0xce
 1777 06db 01       		.byte	0x1
 1778 06dc 8C000000 		.4byte	0x8c
 1779 06e0 00000000 		.4byte	.LFB10
 1780 06e4 2C000000 		.4byte	.LFE10
 1781 06e8 02       		.byte	0x2
 1782 06e9 7D       		.byte	0x7d
 1783 06ea 00       		.sleb128 0
 1784 06eb 01       		.byte	0x1
 1785 06ec 5D070000 		.4byte	0x75d
 1786 06f0 19       		.uleb128 0x19
 1787 06f1 6D7000   		.ascii	"mp\000"
 1788 06f4 01       		.byte	0x1
 1789 06f5 CE       		.byte	0xce
 1790 06f6 3F040000 		.4byte	0x43f
 1791 06fa 44020000 		.4byte	.LLST19
 1792 06fe 1A       		.uleb128 0x1a
 1793 06ff 6200     		.ascii	"b\000"
 1794 0701 01       		.byte	0x1
 1795 0702 CF       		.byte	0xcf
 1796 0703 8C000000 		.4byte	0x8c
 1797 0707 01       		.byte	0x1
 1798 0708 50       		.byte	0x50
 1799 0709 25       		.uleb128 0x25
 1800 070a 02000000 		.4byte	.LBB64
 1801 070e 08000000 		.4byte	.LBE64
 1802 0712 26070000 		.4byte	0x726
 1803 0716 1C       		.uleb128 0x1c
 1804 0717 746D7000 		.ascii	"tmp\000"
 1805 071b 01       		.byte	0x1
 1806 071c D1       		.byte	0xd1
 1807 071d 6C000000 		.4byte	0x6c
 1808 0721 78020000 		.4byte	.LLST20
 1809 0725 00       		.byte	0
 1810 0726 1D       		.uleb128 0x1d
 1811 0727 94040000 		.4byte	0x494
 1812 072b 08000000 		.4byte	.LBB65
 1813 072f D8000000 		.4byte	.Ldebug_ranges0+0xd8
 1814 0733 01       		.byte	0x1
 1815 0734 D3       		.byte	0xd3
 1816 0735 43070000 		.4byte	0x743
 1817 0739 1E       		.uleb128 0x1e
ARM GAS  C:\Users\srich\AppData\Local\Temp\ccTL03Vr.s 			page 33


 1818 073a A6040000 		.4byte	0x4a6
 1819 073e 8B020000 		.4byte	.LLST21
 1820 0742 00       		.byte	0
 1821 0743 21       		.uleb128 0x21
 1822 0744 0E000000 		.4byte	.LBB68
 1823 0748 14000000 		.4byte	.LBE68
 1824 074c 1C       		.uleb128 0x1c
 1825 074d 746D7000 		.ascii	"tmp\000"
 1826 0751 01       		.byte	0x1
 1827 0752 D5       		.byte	0xd5
 1828 0753 6C000000 		.4byte	0x6c
 1829 0757 BF020000 		.4byte	.LLST22
 1830 075b 00       		.byte	0
 1831 075c 00       		.byte	0
 1832 075d 28       		.uleb128 0x28
 1833 075e 94040000 		.4byte	0x494
 1834 0762 00000000 		.4byte	.LFB11
 1835 0766 20000000 		.4byte	.LFE11
 1836 076a 02       		.byte	0x2
 1837 076b 7D       		.byte	0x7d
 1838 076c 00       		.sleb128 0
 1839 076d 01       		.byte	0x1
 1840 076e 7C070000 		.4byte	0x77c
 1841 0772 1E       		.uleb128 0x1e
 1842 0773 A6040000 		.4byte	0x4a6
 1843 0777 D2020000 		.4byte	.LLST23
 1844 077b 00       		.byte	0
 1845 077c 29       		.uleb128 0x29
 1846 077d 01       		.byte	0x1
 1847 077e 2D000000 		.4byte	.LASF70
 1848 0782 01       		.byte	0x1
 1849 0783 0101     		.2byte	0x101
 1850 0785 01       		.byte	0x1
 1851 0786 3F040000 		.4byte	0x43f
 1852 078a 00000000 		.4byte	.LFB12
 1853 078e 5C000000 		.4byte	.LFE12
 1854 0792 06030000 		.4byte	.LLST24
 1855 0796 01       		.byte	0x1
 1856 0797 6C080000 		.4byte	0x86c
 1857 079b 2A       		.uleb128 0x2a
 1858 079c 63747000 		.ascii	"ctp\000"
 1859 07a0 01       		.byte	0x1
 1860 07a1 0201     		.2byte	0x102
 1861 07a3 4B020000 		.4byte	0x24b
 1862 07a7 26030000 		.4byte	.LLST25
 1863 07ab 2B       		.uleb128 0x2b
 1864 07ac 756D7000 		.ascii	"ump\000"
 1865 07b0 01       		.byte	0x1
 1866 07b1 0301     		.2byte	0x103
 1867 07b3 3F040000 		.4byte	0x43f
 1868 07b7 01       		.byte	0x1
 1869 07b8 54       		.byte	0x54
 1870 07b9 2A       		.uleb128 0x2a
 1871 07ba 6D7000   		.ascii	"mp\000"
 1872 07bd 01       		.byte	0x1
 1873 07be 0301     		.2byte	0x103
 1874 07c0 3F040000 		.4byte	0x43f
ARM GAS  C:\Users\srich\AppData\Local\Temp\ccTL03Vr.s 			page 34


 1875 07c4 44030000 		.4byte	.LLST26
 1876 07c8 25       		.uleb128 0x25
 1877 07c9 06000000 		.4byte	.LBB70
 1878 07cd 0C000000 		.4byte	.LBE70
 1879 07d1 E6070000 		.4byte	0x7e6
 1880 07d5 2A       		.uleb128 0x2a
 1881 07d6 746D7000 		.ascii	"tmp\000"
 1882 07da 01       		.byte	0x1
 1883 07db 0501     		.2byte	0x105
 1884 07dd 6C000000 		.4byte	0x6c
 1885 07e1 57030000 		.4byte	.LLST27
 1886 07e5 00       		.byte	0
 1887 07e6 25       		.uleb128 0x25
 1888 07e7 18000000 		.4byte	.LBB71
 1889 07eb 48000000 		.4byte	.LBE71
 1890 07ef 51080000 		.4byte	0x851
 1891 07f3 2C       		.uleb128 0x2c
 1892 07f4 747000   		.ascii	"tp\000"
 1893 07f7 01       		.byte	0x1
 1894 07f8 1201     		.2byte	0x112
 1895 07fa 4B020000 		.4byte	0x24b
 1896 07fe 2D       		.uleb128 0x2d
 1897 07ff 65010000 		.4byte	.LASF71
 1898 0803 01       		.byte	0x1
 1899 0804 1601     		.2byte	0x116
 1900 0806 CA000000 		.4byte	0xca
 1901 080a 6A030000 		.4byte	.LLST28
 1902 080e 2E       		.uleb128 0x2e
 1903 080f B1040000 		.4byte	0x4b1
 1904 0813 30000000 		.4byte	.LBB72
 1905 0817 F0000000 		.4byte	.Ldebug_ranges0+0xf0
 1906 081b 01       		.byte	0x1
 1907 081c 2501     		.2byte	0x125
 1908 081e 3B080000 		.4byte	0x83b
 1909 0822 1E       		.uleb128 0x1e
 1910 0823 C2040000 		.4byte	0x4c2
 1911 0827 7D030000 		.4byte	.LLST29
 1912 082b 1B       		.uleb128 0x1b
 1913 082c 10010000 		.4byte	.Ldebug_ranges0+0x110
 1914 0830 1F       		.uleb128 0x1f
 1915 0831 CD040000 		.4byte	0x4cd
 1916 0835 90030000 		.4byte	.LLST30
 1917 0839 00       		.byte	0
 1918 083a 00       		.byte	0
 1919 083b 26       		.uleb128 0x26
 1920 083c 48000000 		.4byte	.LVL56
 1921 0840 240A0000 		.4byte	0xa24
 1922 0844 23       		.uleb128 0x23
 1923 0845 01       		.byte	0x1
 1924 0846 51       		.byte	0x51
 1925 0847 01       		.byte	0x1
 1926 0848 30       		.byte	0x30
 1927 0849 23       		.uleb128 0x23
 1928 084a 01       		.byte	0x1
 1929 084b 50       		.byte	0x50
 1930 084c 02       		.byte	0x2
 1931 084d 75       		.byte	0x75
ARM GAS  C:\Users\srich\AppData\Local\Temp\ccTL03Vr.s 			page 35


 1932 084e 00       		.sleb128 0
 1933 084f 00       		.byte	0
 1934 0850 00       		.byte	0
 1935 0851 21       		.uleb128 0x21
 1936 0852 48000000 		.4byte	.LBB78
 1937 0856 4E000000 		.4byte	.LBE78
 1938 085a 2A       		.uleb128 0x2a
 1939 085b 746D7000 		.ascii	"tmp\000"
 1940 085f 01       		.byte	0x1
 1941 0860 2D01     		.2byte	0x12d
 1942 0862 6C000000 		.4byte	0x6c
 1943 0866 A3030000 		.4byte	.LLST31
 1944 086a 00       		.byte	0
 1945 086b 00       		.byte	0
 1946 086c 29       		.uleb128 0x29
 1947 086d 01       		.byte	0x1
 1948 086e D0000000 		.4byte	.LASF72
 1949 0872 01       		.byte	0x1
 1950 0873 3D01     		.2byte	0x13d
 1951 0875 01       		.byte	0x1
 1952 0876 3F040000 		.4byte	0x43f
 1953 087a 00000000 		.4byte	.LFB13
 1954 087e 50000000 		.4byte	.LFE13
 1955 0882 B6030000 		.4byte	.LLST32
 1956 0886 01       		.byte	0x1
 1957 0887 1B090000 		.4byte	0x91b
 1958 088b 2A       		.uleb128 0x2a
 1959 088c 63747000 		.ascii	"ctp\000"
 1960 0890 01       		.byte	0x1
 1961 0891 3E01     		.2byte	0x13e
 1962 0893 4B020000 		.4byte	0x24b
 1963 0897 D6030000 		.4byte	.LLST33
 1964 089b 2B       		.uleb128 0x2b
 1965 089c 756D7000 		.ascii	"ump\000"
 1966 08a0 01       		.byte	0x1
 1967 08a1 3F01     		.2byte	0x13f
 1968 08a3 3F040000 		.4byte	0x43f
 1969 08a7 01       		.byte	0x1
 1970 08a8 54       		.byte	0x54
 1971 08a9 2A       		.uleb128 0x2a
 1972 08aa 6D7000   		.ascii	"mp\000"
 1973 08ad 01       		.byte	0x1
 1974 08ae 3F01     		.2byte	0x13f
 1975 08b0 3F040000 		.4byte	0x43f
 1976 08b4 F4030000 		.4byte	.LLST34
 1977 08b8 21       		.uleb128 0x21
 1978 08b9 12000000 		.4byte	.LBB79
 1979 08bd 40000000 		.4byte	.LBE79
 1980 08c1 2C       		.uleb128 0x2c
 1981 08c2 747000   		.ascii	"tp\000"
 1982 08c5 01       		.byte	0x1
 1983 08c6 4F01     		.2byte	0x14f
 1984 08c8 4B020000 		.4byte	0x24b
 1985 08cc 2D       		.uleb128 0x2d
 1986 08cd 65010000 		.4byte	.LASF71
 1987 08d1 01       		.byte	0x1
 1988 08d2 5301     		.2byte	0x153
ARM GAS  C:\Users\srich\AppData\Local\Temp\ccTL03Vr.s 			page 36


 1989 08d4 CA000000 		.4byte	0xca
 1990 08d8 07040000 		.4byte	.LLST35
 1991 08dc 2E       		.uleb128 0x2e
 1992 08dd B1040000 		.4byte	0x4b1
 1993 08e1 2A000000 		.4byte	.LBB80
 1994 08e5 30010000 		.4byte	.Ldebug_ranges0+0x130
 1995 08e9 01       		.byte	0x1
 1996 08ea 6001     		.2byte	0x160
 1997 08ec 09090000 		.4byte	0x909
 1998 08f0 1E       		.uleb128 0x1e
 1999 08f1 C2040000 		.4byte	0x4c2
 2000 08f5 1A040000 		.4byte	.LLST36
 2001 08f9 1B       		.uleb128 0x1b
 2002 08fa 50010000 		.4byte	.Ldebug_ranges0+0x150
 2003 08fe 1F       		.uleb128 0x1f
 2004 08ff CD040000 		.4byte	0x4cd
 2005 0903 2D040000 		.4byte	.LLST37
 2006 0907 00       		.byte	0
 2007 0908 00       		.byte	0
 2008 0909 26       		.uleb128 0x26
 2009 090a 40000000 		.4byte	.LVL68
 2010 090e 0C0A0000 		.4byte	0xa0c
 2011 0912 23       		.uleb128 0x23
 2012 0913 01       		.byte	0x1
 2013 0914 50       		.byte	0x50
 2014 0915 02       		.byte	0x2
 2015 0916 75       		.byte	0x75
 2016 0917 00       		.sleb128 0
 2017 0918 00       		.byte	0
 2018 0919 00       		.byte	0
 2019 091a 00       		.byte	0
 2020 091b 2F       		.uleb128 0x2f
 2021 091c 01       		.byte	0x1
 2022 091d 56010000 		.4byte	.LASF73
 2023 0921 01       		.byte	0x1
 2024 0922 7601     		.2byte	0x176
 2025 0924 01       		.byte	0x1
 2026 0925 00000000 		.4byte	.LFB14
 2027 0929 54000000 		.4byte	.LFE14
 2028 092d 40040000 		.4byte	.LLST38
 2029 0931 01       		.byte	0x1
 2030 0932 EB090000 		.4byte	0x9eb
 2031 0936 2B       		.uleb128 0x2b
 2032 0937 63747000 		.ascii	"ctp\000"
 2033 093b 01       		.byte	0x1
 2034 093c 7701     		.2byte	0x177
 2035 093e 4B020000 		.4byte	0x24b
 2036 0942 01       		.byte	0x1
 2037 0943 54       		.byte	0x54
 2038 0944 30       		.uleb128 0x30
 2039 0945 70010000 		.4byte	.Ldebug_ranges0+0x170
 2040 0949 5E090000 		.4byte	0x95e
 2041 094d 2A       		.uleb128 0x2a
 2042 094e 746D7000 		.ascii	"tmp\000"
 2043 0952 01       		.byte	0x1
 2044 0953 7901     		.2byte	0x179
 2045 0955 6C000000 		.4byte	0x6c
ARM GAS  C:\Users\srich\AppData\Local\Temp\ccTL03Vr.s 			page 37


 2046 0959 60040000 		.4byte	.LLST39
 2047 095d 00       		.byte	0
 2048 095e 30       		.uleb128 0x30
 2049 095f 88010000 		.4byte	.Ldebug_ranges0+0x188
 2050 0963 C3090000 		.4byte	0x9c3
 2051 0967 2A       		.uleb128 0x2a
 2052 0968 756D7000 		.ascii	"ump\000"
 2053 096c 01       		.byte	0x1
 2054 096d 7C01     		.2byte	0x17c
 2055 096f 3F040000 		.4byte	0x43f
 2056 0973 73040000 		.4byte	.LLST40
 2057 0977 21       		.uleb128 0x21
 2058 0978 14000000 		.4byte	.LBB89
 2059 097c 28000000 		.4byte	.LBE89
 2060 0980 2C       		.uleb128 0x2c
 2061 0981 747000   		.ascii	"tp\000"
 2062 0984 01       		.byte	0x1
 2063 0985 7F01     		.2byte	0x17f
 2064 0987 4B020000 		.4byte	0x24b
 2065 098b 2E       		.uleb128 0x2e
 2066 098c B1040000 		.4byte	0x4b1
 2067 0990 14000000 		.4byte	.LBB90
 2068 0994 A0010000 		.4byte	.Ldebug_ranges0+0x1a0
 2069 0998 01       		.byte	0x1
 2070 0999 7F01     		.2byte	0x17f
 2071 099b B8090000 		.4byte	0x9b8
 2072 099f 1E       		.uleb128 0x1e
 2073 09a0 C2040000 		.4byte	0x4c2
 2074 09a4 73040000 		.4byte	.LLST40
 2075 09a8 1B       		.uleb128 0x1b
 2076 09a9 C0010000 		.4byte	.Ldebug_ranges0+0x1c0
 2077 09ad 1F       		.uleb128 0x1f
 2078 09ae CD040000 		.4byte	0x4cd
 2079 09b2 91040000 		.4byte	.LLST42
 2080 09b6 00       		.byte	0
 2081 09b7 00       		.byte	0
 2082 09b8 24       		.uleb128 0x24
 2083 09b9 28000000 		.4byte	.LVL76
 2084 09bd 0C0A0000 		.4byte	0xa0c
 2085 09c1 00       		.byte	0
 2086 09c2 00       		.byte	0
 2087 09c3 25       		.uleb128 0x25
 2088 09c4 46000000 		.4byte	.LBB97
 2089 09c8 54000000 		.4byte	.LBE97
 2090 09cc E1090000 		.4byte	0x9e1
 2091 09d0 2A       		.uleb128 0x2a
 2092 09d1 746D7000 		.ascii	"tmp\000"
 2093 09d5 01       		.byte	0x1
 2094 09d6 8B01     		.2byte	0x18b
 2095 09d8 6C000000 		.4byte	0x6c
 2096 09dc AF040000 		.4byte	.LLST43
 2097 09e0 00       		.byte	0
 2098 09e1 24       		.uleb128 0x24
 2099 09e2 46000000 		.4byte	.LVL81
 2100 09e6 3D0A0000 		.4byte	0xa3d
 2101 09ea 00       		.byte	0
 2102 09eb 31       		.uleb128 0x31
ARM GAS  C:\Users\srich\AppData\Local\Temp\ccTL03Vr.s 			page 38


 2103 09ec 52030000 		.4byte	.LASF81
 2104 09f0 08       		.byte	0x8
 2105 09f1 6F       		.byte	0x6f
 2106 09f2 A5030000 		.4byte	0x3a5
 2107 09f6 01       		.byte	0x1
 2108 09f7 01       		.byte	0x1
 2109 09f8 32       		.uleb128 0x32
 2110 09f9 01       		.byte	0x1
 2111 09fa AE020000 		.4byte	.LASF76
 2112 09fe 08       		.byte	0x8
 2113 09ff 93       		.byte	0x93
 2114 0a00 01       		.byte	0x1
 2115 0a01 01       		.byte	0x1
 2116 0a02 0C0A0000 		.4byte	0xa0c
 2117 0a06 33       		.uleb128 0x33
 2118 0a07 A9000000 		.4byte	0xa9
 2119 0a0b 00       		.byte	0
 2120 0a0c 34       		.uleb128 0x34
 2121 0a0d 01       		.byte	0x1
 2122 0a0e D8020000 		.4byte	.LASF75
 2123 0a12 08       		.byte	0x8
 2124 0a13 90       		.byte	0x90
 2125 0a14 01       		.byte	0x1
 2126 0a15 4B020000 		.4byte	0x24b
 2127 0a19 01       		.byte	0x1
 2128 0a1a 240A0000 		.4byte	0xa24
 2129 0a1e 33       		.uleb128 0x33
 2130 0a1f 4B020000 		.4byte	0x24b
 2131 0a23 00       		.byte	0
 2132 0a24 32       		.uleb128 0x32
 2133 0a25 01       		.byte	0x1
 2134 0a26 2A030000 		.4byte	.LASF77
 2135 0a2a 08       		.byte	0x8
 2136 0a2b 99       		.byte	0x99
 2137 0a2c 01       		.byte	0x1
 2138 0a2d 01       		.byte	0x1
 2139 0a2e 3D0A0000 		.4byte	0xa3d
 2140 0a32 33       		.uleb128 0x33
 2141 0a33 4B020000 		.4byte	0x24b
 2142 0a37 33       		.uleb128 0x33
 2143 0a38 D5000000 		.4byte	0xd5
 2144 0a3c 00       		.byte	0
 2145 0a3d 35       		.uleb128 0x35
 2146 0a3e 01       		.byte	0x1
 2147 0a3f AE000000 		.4byte	.LASF82
 2148 0a43 08       		.byte	0x8
 2149 0a44 9C       		.byte	0x9c
 2150 0a45 01       		.byte	0x1
 2151 0a46 01       		.byte	0x1
 2152 0a47 00       		.byte	0
 2153              		.section	.debug_abbrev,"",%progbits
 2154              	.Ldebug_abbrev0:
 2155 0000 01       		.uleb128 0x1
 2156 0001 11       		.uleb128 0x11
 2157 0002 01       		.byte	0x1
 2158 0003 25       		.uleb128 0x25
 2159 0004 0E       		.uleb128 0xe
ARM GAS  C:\Users\srich\AppData\Local\Temp\ccTL03Vr.s 			page 39


 2160 0005 13       		.uleb128 0x13
 2161 0006 0B       		.uleb128 0xb
 2162 0007 03       		.uleb128 0x3
 2163 0008 0E       		.uleb128 0xe
 2164 0009 55       		.uleb128 0x55
 2165 000a 06       		.uleb128 0x6
 2166 000b 11       		.uleb128 0x11
 2167 000c 01       		.uleb128 0x1
 2168 000d 52       		.uleb128 0x52
 2169 000e 01       		.uleb128 0x1
 2170 000f 10       		.uleb128 0x10
 2171 0010 06       		.uleb128 0x6
 2172 0011 00       		.byte	0
 2173 0012 00       		.byte	0
 2174 0013 02       		.uleb128 0x2
 2175 0014 24       		.uleb128 0x24
 2176 0015 00       		.byte	0
 2177 0016 0B       		.uleb128 0xb
 2178 0017 0B       		.uleb128 0xb
 2179 0018 3E       		.uleb128 0x3e
 2180 0019 0B       		.uleb128 0xb
 2181 001a 03       		.uleb128 0x3
 2182 001b 08       		.uleb128 0x8
 2183 001c 00       		.byte	0
 2184 001d 00       		.byte	0
 2185 001e 03       		.uleb128 0x3
 2186 001f 24       		.uleb128 0x24
 2187 0020 00       		.byte	0
 2188 0021 0B       		.uleb128 0xb
 2189 0022 0B       		.uleb128 0xb
 2190 0023 3E       		.uleb128 0x3e
 2191 0024 0B       		.uleb128 0xb
 2192 0025 03       		.uleb128 0x3
 2193 0026 0E       		.uleb128 0xe
 2194 0027 00       		.byte	0
 2195 0028 00       		.byte	0
 2196 0029 04       		.uleb128 0x4
 2197 002a 16       		.uleb128 0x16
 2198 002b 00       		.byte	0
 2199 002c 03       		.uleb128 0x3
 2200 002d 0E       		.uleb128 0xe
 2201 002e 3A       		.uleb128 0x3a
 2202 002f 0B       		.uleb128 0xb
 2203 0030 3B       		.uleb128 0x3b
 2204 0031 0B       		.uleb128 0xb
 2205 0032 49       		.uleb128 0x49
 2206 0033 13       		.uleb128 0x13
 2207 0034 00       		.byte	0
 2208 0035 00       		.byte	0
 2209 0036 05       		.uleb128 0x5
 2210 0037 13       		.uleb128 0x13
 2211 0038 01       		.byte	0x1
 2212 0039 03       		.uleb128 0x3
 2213 003a 0E       		.uleb128 0xe
 2214 003b 0B       		.uleb128 0xb
 2215 003c 0B       		.uleb128 0xb
 2216 003d 3A       		.uleb128 0x3a
ARM GAS  C:\Users\srich\AppData\Local\Temp\ccTL03Vr.s 			page 40


 2217 003e 0B       		.uleb128 0xb
 2218 003f 3B       		.uleb128 0x3b
 2219 0040 0B       		.uleb128 0xb
 2220 0041 01       		.uleb128 0x1
 2221 0042 13       		.uleb128 0x13
 2222 0043 00       		.byte	0
 2223 0044 00       		.byte	0
 2224 0045 06       		.uleb128 0x6
 2225 0046 0D       		.uleb128 0xd
 2226 0047 00       		.byte	0
 2227 0048 03       		.uleb128 0x3
 2228 0049 0E       		.uleb128 0xe
 2229 004a 3A       		.uleb128 0x3a
 2230 004b 0B       		.uleb128 0xb
 2231 004c 3B       		.uleb128 0x3b
 2232 004d 0B       		.uleb128 0xb
 2233 004e 49       		.uleb128 0x49
 2234 004f 13       		.uleb128 0x13
 2235 0050 38       		.uleb128 0x38
 2236 0051 0A       		.uleb128 0xa
 2237 0052 00       		.byte	0
 2238 0053 00       		.byte	0
 2239 0054 07       		.uleb128 0x7
 2240 0055 0D       		.uleb128 0xd
 2241 0056 00       		.byte	0
 2242 0057 03       		.uleb128 0x3
 2243 0058 08       		.uleb128 0x8
 2244 0059 3A       		.uleb128 0x3a
 2245 005a 0B       		.uleb128 0xb
 2246 005b 3B       		.uleb128 0x3b
 2247 005c 0B       		.uleb128 0xb
 2248 005d 49       		.uleb128 0x49
 2249 005e 13       		.uleb128 0x13
 2250 005f 38       		.uleb128 0x38
 2251 0060 0A       		.uleb128 0xa
 2252 0061 00       		.byte	0
 2253 0062 00       		.byte	0
 2254 0063 08       		.uleb128 0x8
 2255 0064 13       		.uleb128 0x13
 2256 0065 01       		.byte	0x1
 2257 0066 0B       		.uleb128 0xb
 2258 0067 0B       		.uleb128 0xb
 2259 0068 3A       		.uleb128 0x3a
 2260 0069 0B       		.uleb128 0xb
 2261 006a 3B       		.uleb128 0x3b
 2262 006b 0B       		.uleb128 0xb
 2263 006c 01       		.uleb128 0x1
 2264 006d 13       		.uleb128 0x13
 2265 006e 00       		.byte	0
 2266 006f 00       		.byte	0
 2267 0070 09       		.uleb128 0x9
 2268 0071 0F       		.uleb128 0xf
 2269 0072 00       		.byte	0
 2270 0073 0B       		.uleb128 0xb
 2271 0074 0B       		.uleb128 0xb
 2272 0075 49       		.uleb128 0x49
 2273 0076 13       		.uleb128 0x13
ARM GAS  C:\Users\srich\AppData\Local\Temp\ccTL03Vr.s 			page 41


 2274 0077 00       		.byte	0
 2275 0078 00       		.byte	0
 2276 0079 0A       		.uleb128 0xa
 2277 007a 0F       		.uleb128 0xf
 2278 007b 00       		.byte	0
 2279 007c 0B       		.uleb128 0xb
 2280 007d 0B       		.uleb128 0xb
 2281 007e 00       		.byte	0
 2282 007f 00       		.byte	0
 2283 0080 0B       		.uleb128 0xb
 2284 0081 13       		.uleb128 0x13
 2285 0082 01       		.byte	0x1
 2286 0083 03       		.uleb128 0x3
 2287 0084 0E       		.uleb128 0xe
 2288 0085 0B       		.uleb128 0xb
 2289 0086 0B       		.uleb128 0xb
 2290 0087 3A       		.uleb128 0x3a
 2291 0088 0B       		.uleb128 0xb
 2292 0089 3B       		.uleb128 0x3b
 2293 008a 05       		.uleb128 0x5
 2294 008b 01       		.uleb128 0x1
 2295 008c 13       		.uleb128 0x13
 2296 008d 00       		.byte	0
 2297 008e 00       		.byte	0
 2298 008f 0C       		.uleb128 0xc
 2299 0090 0D       		.uleb128 0xd
 2300 0091 00       		.byte	0
 2301 0092 03       		.uleb128 0x3
 2302 0093 08       		.uleb128 0x8
 2303 0094 3A       		.uleb128 0x3a
 2304 0095 0B       		.uleb128 0xb
 2305 0096 3B       		.uleb128 0x3b
 2306 0097 05       		.uleb128 0x5
 2307 0098 49       		.uleb128 0x49
 2308 0099 13       		.uleb128 0x13
 2309 009a 38       		.uleb128 0x38
 2310 009b 0A       		.uleb128 0xa
 2311 009c 00       		.byte	0
 2312 009d 00       		.byte	0
 2313 009e 0D       		.uleb128 0xd
 2314 009f 35       		.uleb128 0x35
 2315 00a0 00       		.byte	0
 2316 00a1 49       		.uleb128 0x49
 2317 00a2 13       		.uleb128 0x13
 2318 00a3 00       		.byte	0
 2319 00a4 00       		.byte	0
 2320 00a5 0E       		.uleb128 0xe
 2321 00a6 17       		.uleb128 0x17
 2322 00a7 01       		.byte	0x1
 2323 00a8 0B       		.uleb128 0xb
 2324 00a9 0B       		.uleb128 0xb
 2325 00aa 3A       		.uleb128 0x3a
 2326 00ab 0B       		.uleb128 0xb
 2327 00ac 3B       		.uleb128 0x3b
 2328 00ad 0B       		.uleb128 0xb
 2329 00ae 01       		.uleb128 0x1
 2330 00af 13       		.uleb128 0x13
ARM GAS  C:\Users\srich\AppData\Local\Temp\ccTL03Vr.s 			page 42


 2331 00b0 00       		.byte	0
 2332 00b1 00       		.byte	0
 2333 00b2 0F       		.uleb128 0xf
 2334 00b3 0D       		.uleb128 0xd
 2335 00b4 00       		.byte	0
 2336 00b5 03       		.uleb128 0x3
 2337 00b6 0E       		.uleb128 0xe
 2338 00b7 3A       		.uleb128 0x3a
 2339 00b8 0B       		.uleb128 0xb
 2340 00b9 3B       		.uleb128 0x3b
 2341 00ba 0B       		.uleb128 0xb
 2342 00bb 49       		.uleb128 0x49
 2343 00bc 13       		.uleb128 0x13
 2344 00bd 00       		.byte	0
 2345 00be 00       		.byte	0
 2346 00bf 10       		.uleb128 0x10
 2347 00c0 26       		.uleb128 0x26
 2348 00c1 00       		.byte	0
 2349 00c2 49       		.uleb128 0x49
 2350 00c3 13       		.uleb128 0x13
 2351 00c4 00       		.byte	0
 2352 00c5 00       		.byte	0
 2353 00c6 11       		.uleb128 0x11
 2354 00c7 2E       		.uleb128 0x2e
 2355 00c8 01       		.byte	0x1
 2356 00c9 03       		.uleb128 0x3
 2357 00ca 0E       		.uleb128 0xe
 2358 00cb 3A       		.uleb128 0x3a
 2359 00cc 0B       		.uleb128 0xb
 2360 00cd 3B       		.uleb128 0x3b
 2361 00ce 0B       		.uleb128 0xb
 2362 00cf 27       		.uleb128 0x27
 2363 00d0 0C       		.uleb128 0xc
 2364 00d1 49       		.uleb128 0x49
 2365 00d2 13       		.uleb128 0x13
 2366 00d3 20       		.uleb128 0x20
 2367 00d4 0B       		.uleb128 0xb
 2368 00d5 01       		.uleb128 0x1
 2369 00d6 13       		.uleb128 0x13
 2370 00d7 00       		.byte	0
 2371 00d8 00       		.byte	0
 2372 00d9 12       		.uleb128 0x12
 2373 00da 05       		.uleb128 0x5
 2374 00db 00       		.byte	0
 2375 00dc 03       		.uleb128 0x3
 2376 00dd 08       		.uleb128 0x8
 2377 00de 3A       		.uleb128 0x3a
 2378 00df 0B       		.uleb128 0xb
 2379 00e0 3B       		.uleb128 0x3b
 2380 00e1 0B       		.uleb128 0xb
 2381 00e2 49       		.uleb128 0x49
 2382 00e3 13       		.uleb128 0x13
 2383 00e4 00       		.byte	0
 2384 00e5 00       		.byte	0
 2385 00e6 13       		.uleb128 0x13
 2386 00e7 2E       		.uleb128 0x2e
 2387 00e8 01       		.byte	0x1
ARM GAS  C:\Users\srich\AppData\Local\Temp\ccTL03Vr.s 			page 43


 2388 00e9 03       		.uleb128 0x3
 2389 00ea 0E       		.uleb128 0xe
 2390 00eb 3A       		.uleb128 0x3a
 2391 00ec 0B       		.uleb128 0xb
 2392 00ed 3B       		.uleb128 0x3b
 2393 00ee 0B       		.uleb128 0xb
 2394 00ef 27       		.uleb128 0x27
 2395 00f0 0C       		.uleb128 0xc
 2396 00f1 20       		.uleb128 0x20
 2397 00f2 0B       		.uleb128 0xb
 2398 00f3 01       		.uleb128 0x1
 2399 00f4 13       		.uleb128 0x13
 2400 00f5 00       		.byte	0
 2401 00f6 00       		.byte	0
 2402 00f7 14       		.uleb128 0x14
 2403 00f8 34       		.uleb128 0x34
 2404 00f9 00       		.byte	0
 2405 00fa 03       		.uleb128 0x3
 2406 00fb 08       		.uleb128 0x8
 2407 00fc 3A       		.uleb128 0x3a
 2408 00fd 0B       		.uleb128 0xb
 2409 00fe 3B       		.uleb128 0x3b
 2410 00ff 0B       		.uleb128 0xb
 2411 0100 49       		.uleb128 0x49
 2412 0101 13       		.uleb128 0x13
 2413 0102 00       		.byte	0
 2414 0103 00       		.byte	0
 2415 0104 15       		.uleb128 0x15
 2416 0105 2E       		.uleb128 0x2e
 2417 0106 01       		.byte	0x1
 2418 0107 3F       		.uleb128 0x3f
 2419 0108 0C       		.uleb128 0xc
 2420 0109 03       		.uleb128 0x3
 2421 010a 0E       		.uleb128 0xe
 2422 010b 3A       		.uleb128 0x3a
 2423 010c 0B       		.uleb128 0xb
 2424 010d 3B       		.uleb128 0x3b
 2425 010e 0B       		.uleb128 0xb
 2426 010f 27       		.uleb128 0x27
 2427 0110 0C       		.uleb128 0xc
 2428 0111 49       		.uleb128 0x49
 2429 0112 13       		.uleb128 0x13
 2430 0113 20       		.uleb128 0x20
 2431 0114 0B       		.uleb128 0xb
 2432 0115 01       		.uleb128 0x1
 2433 0116 13       		.uleb128 0x13
 2434 0117 00       		.byte	0
 2435 0118 00       		.byte	0
 2436 0119 16       		.uleb128 0x16
 2437 011a 2E       		.uleb128 0x2e
 2438 011b 01       		.byte	0x1
 2439 011c 3F       		.uleb128 0x3f
 2440 011d 0C       		.uleb128 0xc
 2441 011e 03       		.uleb128 0x3
 2442 011f 0E       		.uleb128 0xe
 2443 0120 3A       		.uleb128 0x3a
 2444 0121 0B       		.uleb128 0xb
ARM GAS  C:\Users\srich\AppData\Local\Temp\ccTL03Vr.s 			page 44


 2445 0122 3B       		.uleb128 0x3b
 2446 0123 0B       		.uleb128 0xb
 2447 0124 27       		.uleb128 0x27
 2448 0125 0C       		.uleb128 0xc
 2449 0126 11       		.uleb128 0x11
 2450 0127 01       		.uleb128 0x1
 2451 0128 12       		.uleb128 0x12
 2452 0129 01       		.uleb128 0x1
 2453 012a 40       		.uleb128 0x40
 2454 012b 0A       		.uleb128 0xa
 2455 012c 9742     		.uleb128 0x2117
 2456 012e 0C       		.uleb128 0xc
 2457 012f 01       		.uleb128 0x1
 2458 0130 13       		.uleb128 0x13
 2459 0131 00       		.byte	0
 2460 0132 00       		.byte	0
 2461 0133 17       		.uleb128 0x17
 2462 0134 05       		.uleb128 0x5
 2463 0135 00       		.byte	0
 2464 0136 03       		.uleb128 0x3
 2465 0137 08       		.uleb128 0x8
 2466 0138 3A       		.uleb128 0x3a
 2467 0139 0B       		.uleb128 0xb
 2468 013a 3B       		.uleb128 0x3b
 2469 013b 0B       		.uleb128 0xb
 2470 013c 49       		.uleb128 0x49
 2471 013d 13       		.uleb128 0x13
 2472 013e 02       		.uleb128 0x2
 2473 013f 0A       		.uleb128 0xa
 2474 0140 00       		.byte	0
 2475 0141 00       		.byte	0
 2476 0142 18       		.uleb128 0x18
 2477 0143 2E       		.uleb128 0x2e
 2478 0144 01       		.byte	0x1
 2479 0145 3F       		.uleb128 0x3f
 2480 0146 0C       		.uleb128 0xc
 2481 0147 03       		.uleb128 0x3
 2482 0148 0E       		.uleb128 0xe
 2483 0149 3A       		.uleb128 0x3a
 2484 014a 0B       		.uleb128 0xb
 2485 014b 3B       		.uleb128 0x3b
 2486 014c 0B       		.uleb128 0xb
 2487 014d 27       		.uleb128 0x27
 2488 014e 0C       		.uleb128 0xc
 2489 014f 11       		.uleb128 0x11
 2490 0150 01       		.uleb128 0x1
 2491 0151 12       		.uleb128 0x12
 2492 0152 01       		.uleb128 0x1
 2493 0153 40       		.uleb128 0x40
 2494 0154 06       		.uleb128 0x6
 2495 0155 9742     		.uleb128 0x2117
 2496 0157 0C       		.uleb128 0xc
 2497 0158 01       		.uleb128 0x1
 2498 0159 13       		.uleb128 0x13
 2499 015a 00       		.byte	0
 2500 015b 00       		.byte	0
 2501 015c 19       		.uleb128 0x19
ARM GAS  C:\Users\srich\AppData\Local\Temp\ccTL03Vr.s 			page 45


 2502 015d 05       		.uleb128 0x5
 2503 015e 00       		.byte	0
 2504 015f 03       		.uleb128 0x3
 2505 0160 08       		.uleb128 0x8
 2506 0161 3A       		.uleb128 0x3a
 2507 0162 0B       		.uleb128 0xb
 2508 0163 3B       		.uleb128 0x3b
 2509 0164 0B       		.uleb128 0xb
 2510 0165 49       		.uleb128 0x49
 2511 0166 13       		.uleb128 0x13
 2512 0167 02       		.uleb128 0x2
 2513 0168 06       		.uleb128 0x6
 2514 0169 00       		.byte	0
 2515 016a 00       		.byte	0
 2516 016b 1A       		.uleb128 0x1a
 2517 016c 34       		.uleb128 0x34
 2518 016d 00       		.byte	0
 2519 016e 03       		.uleb128 0x3
 2520 016f 08       		.uleb128 0x8
 2521 0170 3A       		.uleb128 0x3a
 2522 0171 0B       		.uleb128 0xb
 2523 0172 3B       		.uleb128 0x3b
 2524 0173 0B       		.uleb128 0xb
 2525 0174 49       		.uleb128 0x49
 2526 0175 13       		.uleb128 0x13
 2527 0176 02       		.uleb128 0x2
 2528 0177 0A       		.uleb128 0xa
 2529 0178 00       		.byte	0
 2530 0179 00       		.byte	0
 2531 017a 1B       		.uleb128 0x1b
 2532 017b 0B       		.uleb128 0xb
 2533 017c 01       		.byte	0x1
 2534 017d 55       		.uleb128 0x55
 2535 017e 06       		.uleb128 0x6
 2536 017f 00       		.byte	0
 2537 0180 00       		.byte	0
 2538 0181 1C       		.uleb128 0x1c
 2539 0182 34       		.uleb128 0x34
 2540 0183 00       		.byte	0
 2541 0184 03       		.uleb128 0x3
 2542 0185 08       		.uleb128 0x8
 2543 0186 3A       		.uleb128 0x3a
 2544 0187 0B       		.uleb128 0xb
 2545 0188 3B       		.uleb128 0x3b
 2546 0189 0B       		.uleb128 0xb
 2547 018a 49       		.uleb128 0x49
 2548 018b 13       		.uleb128 0x13
 2549 018c 02       		.uleb128 0x2
 2550 018d 06       		.uleb128 0x6
 2551 018e 00       		.byte	0
 2552 018f 00       		.byte	0
 2553 0190 1D       		.uleb128 0x1d
 2554 0191 1D       		.uleb128 0x1d
 2555 0192 01       		.byte	0x1
 2556 0193 31       		.uleb128 0x31
 2557 0194 13       		.uleb128 0x13
 2558 0195 52       		.uleb128 0x52
ARM GAS  C:\Users\srich\AppData\Local\Temp\ccTL03Vr.s 			page 46


 2559 0196 01       		.uleb128 0x1
 2560 0197 55       		.uleb128 0x55
 2561 0198 06       		.uleb128 0x6
 2562 0199 58       		.uleb128 0x58
 2563 019a 0B       		.uleb128 0xb
 2564 019b 59       		.uleb128 0x59
 2565 019c 0B       		.uleb128 0xb
 2566 019d 01       		.uleb128 0x1
 2567 019e 13       		.uleb128 0x13
 2568 019f 00       		.byte	0
 2569 01a0 00       		.byte	0
 2570 01a1 1E       		.uleb128 0x1e
 2571 01a2 05       		.uleb128 0x5
 2572 01a3 00       		.byte	0
 2573 01a4 31       		.uleb128 0x31
 2574 01a5 13       		.uleb128 0x13
 2575 01a6 02       		.uleb128 0x2
 2576 01a7 06       		.uleb128 0x6
 2577 01a8 00       		.byte	0
 2578 01a9 00       		.byte	0
 2579 01aa 1F       		.uleb128 0x1f
 2580 01ab 34       		.uleb128 0x34
 2581 01ac 00       		.byte	0
 2582 01ad 31       		.uleb128 0x31
 2583 01ae 13       		.uleb128 0x13
 2584 01af 02       		.uleb128 0x2
 2585 01b0 06       		.uleb128 0x6
 2586 01b1 00       		.byte	0
 2587 01b2 00       		.byte	0
 2588 01b3 20       		.uleb128 0x20
 2589 01b4 1D       		.uleb128 0x1d
 2590 01b5 01       		.byte	0x1
 2591 01b6 31       		.uleb128 0x31
 2592 01b7 13       		.uleb128 0x13
 2593 01b8 11       		.uleb128 0x11
 2594 01b9 01       		.uleb128 0x1
 2595 01ba 12       		.uleb128 0x12
 2596 01bb 01       		.uleb128 0x1
 2597 01bc 58       		.uleb128 0x58
 2598 01bd 0B       		.uleb128 0xb
 2599 01be 59       		.uleb128 0x59
 2600 01bf 0B       		.uleb128 0xb
 2601 01c0 01       		.uleb128 0x1
 2602 01c1 13       		.uleb128 0x13
 2603 01c2 00       		.byte	0
 2604 01c3 00       		.byte	0
 2605 01c4 21       		.uleb128 0x21
 2606 01c5 0B       		.uleb128 0xb
 2607 01c6 01       		.byte	0x1
 2608 01c7 11       		.uleb128 0x11
 2609 01c8 01       		.uleb128 0x1
 2610 01c9 12       		.uleb128 0x12
 2611 01ca 01       		.uleb128 0x1
 2612 01cb 00       		.byte	0
 2613 01cc 00       		.byte	0
 2614 01cd 22       		.uleb128 0x22
 2615 01ce 898201   		.uleb128 0x4109
ARM GAS  C:\Users\srich\AppData\Local\Temp\ccTL03Vr.s 			page 47


 2616 01d1 01       		.byte	0x1
 2617 01d2 11       		.uleb128 0x11
 2618 01d3 01       		.uleb128 0x1
 2619 01d4 9542     		.uleb128 0x2115
 2620 01d6 0C       		.uleb128 0xc
 2621 01d7 31       		.uleb128 0x31
 2622 01d8 13       		.uleb128 0x13
 2623 01d9 01       		.uleb128 0x1
 2624 01da 13       		.uleb128 0x13
 2625 01db 00       		.byte	0
 2626 01dc 00       		.byte	0
 2627 01dd 23       		.uleb128 0x23
 2628 01de 8A8201   		.uleb128 0x410a
 2629 01e1 00       		.byte	0
 2630 01e2 02       		.uleb128 0x2
 2631 01e3 0A       		.uleb128 0xa
 2632 01e4 9142     		.uleb128 0x2111
 2633 01e6 0A       		.uleb128 0xa
 2634 01e7 00       		.byte	0
 2635 01e8 00       		.byte	0
 2636 01e9 24       		.uleb128 0x24
 2637 01ea 898201   		.uleb128 0x4109
 2638 01ed 00       		.byte	0
 2639 01ee 11       		.uleb128 0x11
 2640 01ef 01       		.uleb128 0x1
 2641 01f0 31       		.uleb128 0x31
 2642 01f1 13       		.uleb128 0x13
 2643 01f2 00       		.byte	0
 2644 01f3 00       		.byte	0
 2645 01f4 25       		.uleb128 0x25
 2646 01f5 0B       		.uleb128 0xb
 2647 01f6 01       		.byte	0x1
 2648 01f7 11       		.uleb128 0x11
 2649 01f8 01       		.uleb128 0x1
 2650 01f9 12       		.uleb128 0x12
 2651 01fa 01       		.uleb128 0x1
 2652 01fb 01       		.uleb128 0x1
 2653 01fc 13       		.uleb128 0x13
 2654 01fd 00       		.byte	0
 2655 01fe 00       		.byte	0
 2656 01ff 26       		.uleb128 0x26
 2657 0200 898201   		.uleb128 0x4109
 2658 0203 01       		.byte	0x1
 2659 0204 11       		.uleb128 0x11
 2660 0205 01       		.uleb128 0x1
 2661 0206 31       		.uleb128 0x31
 2662 0207 13       		.uleb128 0x13
 2663 0208 00       		.byte	0
 2664 0209 00       		.byte	0
 2665 020a 27       		.uleb128 0x27
 2666 020b 2E       		.uleb128 0x2e
 2667 020c 01       		.byte	0x1
 2668 020d 3F       		.uleb128 0x3f
 2669 020e 0C       		.uleb128 0xc
 2670 020f 03       		.uleb128 0x3
 2671 0210 0E       		.uleb128 0xe
 2672 0211 3A       		.uleb128 0x3a
ARM GAS  C:\Users\srich\AppData\Local\Temp\ccTL03Vr.s 			page 48


 2673 0212 0B       		.uleb128 0xb
 2674 0213 3B       		.uleb128 0x3b
 2675 0214 0B       		.uleb128 0xb
 2676 0215 27       		.uleb128 0x27
 2677 0216 0C       		.uleb128 0xc
 2678 0217 49       		.uleb128 0x49
 2679 0218 13       		.uleb128 0x13
 2680 0219 11       		.uleb128 0x11
 2681 021a 01       		.uleb128 0x1
 2682 021b 12       		.uleb128 0x12
 2683 021c 01       		.uleb128 0x1
 2684 021d 40       		.uleb128 0x40
 2685 021e 0A       		.uleb128 0xa
 2686 021f 9742     		.uleb128 0x2117
 2687 0221 0C       		.uleb128 0xc
 2688 0222 01       		.uleb128 0x1
 2689 0223 13       		.uleb128 0x13
 2690 0224 00       		.byte	0
 2691 0225 00       		.byte	0
 2692 0226 28       		.uleb128 0x28
 2693 0227 2E       		.uleb128 0x2e
 2694 0228 01       		.byte	0x1
 2695 0229 31       		.uleb128 0x31
 2696 022a 13       		.uleb128 0x13
 2697 022b 11       		.uleb128 0x11
 2698 022c 01       		.uleb128 0x1
 2699 022d 12       		.uleb128 0x12
 2700 022e 01       		.uleb128 0x1
 2701 022f 40       		.uleb128 0x40
 2702 0230 0A       		.uleb128 0xa
 2703 0231 9742     		.uleb128 0x2117
 2704 0233 0C       		.uleb128 0xc
 2705 0234 01       		.uleb128 0x1
 2706 0235 13       		.uleb128 0x13
 2707 0236 00       		.byte	0
 2708 0237 00       		.byte	0
 2709 0238 29       		.uleb128 0x29
 2710 0239 2E       		.uleb128 0x2e
 2711 023a 01       		.byte	0x1
 2712 023b 3F       		.uleb128 0x3f
 2713 023c 0C       		.uleb128 0xc
 2714 023d 03       		.uleb128 0x3
 2715 023e 0E       		.uleb128 0xe
 2716 023f 3A       		.uleb128 0x3a
 2717 0240 0B       		.uleb128 0xb
 2718 0241 3B       		.uleb128 0x3b
 2719 0242 05       		.uleb128 0x5
 2720 0243 27       		.uleb128 0x27
 2721 0244 0C       		.uleb128 0xc
 2722 0245 49       		.uleb128 0x49
 2723 0246 13       		.uleb128 0x13
 2724 0247 11       		.uleb128 0x11
 2725 0248 01       		.uleb128 0x1
 2726 0249 12       		.uleb128 0x12
 2727 024a 01       		.uleb128 0x1
 2728 024b 40       		.uleb128 0x40
 2729 024c 06       		.uleb128 0x6
ARM GAS  C:\Users\srich\AppData\Local\Temp\ccTL03Vr.s 			page 49


 2730 024d 9742     		.uleb128 0x2117
 2731 024f 0C       		.uleb128 0xc
 2732 0250 01       		.uleb128 0x1
 2733 0251 13       		.uleb128 0x13
 2734 0252 00       		.byte	0
 2735 0253 00       		.byte	0
 2736 0254 2A       		.uleb128 0x2a
 2737 0255 34       		.uleb128 0x34
 2738 0256 00       		.byte	0
 2739 0257 03       		.uleb128 0x3
 2740 0258 08       		.uleb128 0x8
 2741 0259 3A       		.uleb128 0x3a
 2742 025a 0B       		.uleb128 0xb
 2743 025b 3B       		.uleb128 0x3b
 2744 025c 05       		.uleb128 0x5
 2745 025d 49       		.uleb128 0x49
 2746 025e 13       		.uleb128 0x13
 2747 025f 02       		.uleb128 0x2
 2748 0260 06       		.uleb128 0x6
 2749 0261 00       		.byte	0
 2750 0262 00       		.byte	0
 2751 0263 2B       		.uleb128 0x2b
 2752 0264 34       		.uleb128 0x34
 2753 0265 00       		.byte	0
 2754 0266 03       		.uleb128 0x3
 2755 0267 08       		.uleb128 0x8
 2756 0268 3A       		.uleb128 0x3a
 2757 0269 0B       		.uleb128 0xb
 2758 026a 3B       		.uleb128 0x3b
 2759 026b 05       		.uleb128 0x5
 2760 026c 49       		.uleb128 0x49
 2761 026d 13       		.uleb128 0x13
 2762 026e 02       		.uleb128 0x2
 2763 026f 0A       		.uleb128 0xa
 2764 0270 00       		.byte	0
 2765 0271 00       		.byte	0
 2766 0272 2C       		.uleb128 0x2c
 2767 0273 34       		.uleb128 0x34
 2768 0274 00       		.byte	0
 2769 0275 03       		.uleb128 0x3
 2770 0276 08       		.uleb128 0x8
 2771 0277 3A       		.uleb128 0x3a
 2772 0278 0B       		.uleb128 0xb
 2773 0279 3B       		.uleb128 0x3b
 2774 027a 05       		.uleb128 0x5
 2775 027b 49       		.uleb128 0x49
 2776 027c 13       		.uleb128 0x13
 2777 027d 00       		.byte	0
 2778 027e 00       		.byte	0
 2779 027f 2D       		.uleb128 0x2d
 2780 0280 34       		.uleb128 0x34
 2781 0281 00       		.byte	0
 2782 0282 03       		.uleb128 0x3
 2783 0283 0E       		.uleb128 0xe
 2784 0284 3A       		.uleb128 0x3a
 2785 0285 0B       		.uleb128 0xb
 2786 0286 3B       		.uleb128 0x3b
ARM GAS  C:\Users\srich\AppData\Local\Temp\ccTL03Vr.s 			page 50


 2787 0287 05       		.uleb128 0x5
 2788 0288 49       		.uleb128 0x49
 2789 0289 13       		.uleb128 0x13
 2790 028a 02       		.uleb128 0x2
 2791 028b 06       		.uleb128 0x6
 2792 028c 00       		.byte	0
 2793 028d 00       		.byte	0
 2794 028e 2E       		.uleb128 0x2e
 2795 028f 1D       		.uleb128 0x1d
 2796 0290 01       		.byte	0x1
 2797 0291 31       		.uleb128 0x31
 2798 0292 13       		.uleb128 0x13
 2799 0293 52       		.uleb128 0x52
 2800 0294 01       		.uleb128 0x1
 2801 0295 55       		.uleb128 0x55
 2802 0296 06       		.uleb128 0x6
 2803 0297 58       		.uleb128 0x58
 2804 0298 0B       		.uleb128 0xb
 2805 0299 59       		.uleb128 0x59
 2806 029a 05       		.uleb128 0x5
 2807 029b 01       		.uleb128 0x1
 2808 029c 13       		.uleb128 0x13
 2809 029d 00       		.byte	0
 2810 029e 00       		.byte	0
 2811 029f 2F       		.uleb128 0x2f
 2812 02a0 2E       		.uleb128 0x2e
 2813 02a1 01       		.byte	0x1
 2814 02a2 3F       		.uleb128 0x3f
 2815 02a3 0C       		.uleb128 0xc
 2816 02a4 03       		.uleb128 0x3
 2817 02a5 0E       		.uleb128 0xe
 2818 02a6 3A       		.uleb128 0x3a
 2819 02a7 0B       		.uleb128 0xb
 2820 02a8 3B       		.uleb128 0x3b
 2821 02a9 05       		.uleb128 0x5
 2822 02aa 27       		.uleb128 0x27
 2823 02ab 0C       		.uleb128 0xc
 2824 02ac 11       		.uleb128 0x11
 2825 02ad 01       		.uleb128 0x1
 2826 02ae 12       		.uleb128 0x12
 2827 02af 01       		.uleb128 0x1
 2828 02b0 40       		.uleb128 0x40
 2829 02b1 06       		.uleb128 0x6
 2830 02b2 9742     		.uleb128 0x2117
 2831 02b4 0C       		.uleb128 0xc
 2832 02b5 01       		.uleb128 0x1
 2833 02b6 13       		.uleb128 0x13
 2834 02b7 00       		.byte	0
 2835 02b8 00       		.byte	0
 2836 02b9 30       		.uleb128 0x30
 2837 02ba 0B       		.uleb128 0xb
 2838 02bb 01       		.byte	0x1
 2839 02bc 55       		.uleb128 0x55
 2840 02bd 06       		.uleb128 0x6
 2841 02be 01       		.uleb128 0x1
 2842 02bf 13       		.uleb128 0x13
 2843 02c0 00       		.byte	0
ARM GAS  C:\Users\srich\AppData\Local\Temp\ccTL03Vr.s 			page 51


 2844 02c1 00       		.byte	0
 2845 02c2 31       		.uleb128 0x31
 2846 02c3 34       		.uleb128 0x34
 2847 02c4 00       		.byte	0
 2848 02c5 03       		.uleb128 0x3
 2849 02c6 0E       		.uleb128 0xe
 2850 02c7 3A       		.uleb128 0x3a
 2851 02c8 0B       		.uleb128 0xb
 2852 02c9 3B       		.uleb128 0x3b
 2853 02ca 0B       		.uleb128 0xb
 2854 02cb 49       		.uleb128 0x49
 2855 02cc 13       		.uleb128 0x13
 2856 02cd 3F       		.uleb128 0x3f
 2857 02ce 0C       		.uleb128 0xc
 2858 02cf 3C       		.uleb128 0x3c
 2859 02d0 0C       		.uleb128 0xc
 2860 02d1 00       		.byte	0
 2861 02d2 00       		.byte	0
 2862 02d3 32       		.uleb128 0x32
 2863 02d4 2E       		.uleb128 0x2e
 2864 02d5 01       		.byte	0x1
 2865 02d6 3F       		.uleb128 0x3f
 2866 02d7 0C       		.uleb128 0xc
 2867 02d8 03       		.uleb128 0x3
 2868 02d9 0E       		.uleb128 0xe
 2869 02da 3A       		.uleb128 0x3a
 2870 02db 0B       		.uleb128 0xb
 2871 02dc 3B       		.uleb128 0x3b
 2872 02dd 0B       		.uleb128 0xb
 2873 02de 27       		.uleb128 0x27
 2874 02df 0C       		.uleb128 0xc
 2875 02e0 3C       		.uleb128 0x3c
 2876 02e1 0C       		.uleb128 0xc
 2877 02e2 01       		.uleb128 0x1
 2878 02e3 13       		.uleb128 0x13
 2879 02e4 00       		.byte	0
 2880 02e5 00       		.byte	0
 2881 02e6 33       		.uleb128 0x33
 2882 02e7 05       		.uleb128 0x5
 2883 02e8 00       		.byte	0
 2884 02e9 49       		.uleb128 0x49
 2885 02ea 13       		.uleb128 0x13
 2886 02eb 00       		.byte	0
 2887 02ec 00       		.byte	0
 2888 02ed 34       		.uleb128 0x34
 2889 02ee 2E       		.uleb128 0x2e
 2890 02ef 01       		.byte	0x1
 2891 02f0 3F       		.uleb128 0x3f
 2892 02f1 0C       		.uleb128 0xc
 2893 02f2 03       		.uleb128 0x3
 2894 02f3 0E       		.uleb128 0xe
 2895 02f4 3A       		.uleb128 0x3a
 2896 02f5 0B       		.uleb128 0xb
 2897 02f6 3B       		.uleb128 0x3b
 2898 02f7 0B       		.uleb128 0xb
 2899 02f8 27       		.uleb128 0x27
 2900 02f9 0C       		.uleb128 0xc
ARM GAS  C:\Users\srich\AppData\Local\Temp\ccTL03Vr.s 			page 52


 2901 02fa 49       		.uleb128 0x49
 2902 02fb 13       		.uleb128 0x13
 2903 02fc 3C       		.uleb128 0x3c
 2904 02fd 0C       		.uleb128 0xc
 2905 02fe 01       		.uleb128 0x1
 2906 02ff 13       		.uleb128 0x13
 2907 0300 00       		.byte	0
 2908 0301 00       		.byte	0
 2909 0302 35       		.uleb128 0x35
 2910 0303 2E       		.uleb128 0x2e
 2911 0304 00       		.byte	0
 2912 0305 3F       		.uleb128 0x3f
 2913 0306 0C       		.uleb128 0xc
 2914 0307 03       		.uleb128 0x3
 2915 0308 0E       		.uleb128 0xe
 2916 0309 3A       		.uleb128 0x3a
 2917 030a 0B       		.uleb128 0xb
 2918 030b 3B       		.uleb128 0x3b
 2919 030c 0B       		.uleb128 0xb
 2920 030d 27       		.uleb128 0x27
 2921 030e 0C       		.uleb128 0xc
 2922 030f 3C       		.uleb128 0x3c
 2923 0310 0C       		.uleb128 0xc
 2924 0311 00       		.byte	0
 2925 0312 00       		.byte	0
 2926 0313 00       		.byte	0
 2927              		.section	.debug_loc,"",%progbits
 2928              	.Ldebug_loc0:
 2929              	.LLST0:
 2930 0000 00000000 		.4byte	.LFB9
 2931 0004 02000000 		.4byte	.LCFI0
 2932 0008 0200     		.2byte	0x2
 2933 000a 7D       		.byte	0x7d
 2934 000b 00       		.sleb128 0
 2935 000c 02000000 		.4byte	.LCFI0
 2936 0010 C4000000 		.4byte	.LFE9
 2937 0014 0200     		.2byte	0x2
 2938 0016 7D       		.byte	0x7d
 2939 0017 18       		.sleb128 24
 2940 0018 00000000 		.4byte	0
 2941 001c 00000000 		.4byte	0
 2942              	.LLST1:
 2943 0020 00000000 		.4byte	.LVL1
 2944 0024 12000000 		.4byte	.LVL4
 2945 0028 0100     		.2byte	0x1
 2946 002a 50       		.byte	0x50
 2947 002b 12000000 		.4byte	.LVL4
 2948 002f B2000000 		.4byte	.LVL22
 2949 0033 0100     		.2byte	0x1
 2950 0035 55       		.byte	0x55
 2951 0036 B2000000 		.4byte	.LVL22
 2952 003a BC000000 		.4byte	.LVL23
 2953 003e 0100     		.2byte	0x1
 2954 0040 50       		.byte	0x50
 2955 0041 BC000000 		.4byte	.LVL23
 2956 0045 C4000000 		.4byte	.LFE9
 2957 0049 0100     		.2byte	0x1
ARM GAS  C:\Users\srich\AppData\Local\Temp\ccTL03Vr.s 			page 53


 2958 004b 55       		.byte	0x55
 2959 004c 00000000 		.4byte	0
 2960 0050 00000000 		.4byte	0
 2961              	.LLST2:
 2962 0054 0E000000 		.4byte	.LVL3
 2963 0058 24000000 		.4byte	.LVL5
 2964 005c 0100     		.2byte	0x1
 2965 005e 53       		.byte	0x53
 2966 005f 4A000000 		.4byte	.LVL9
 2967 0063 59000000 		.4byte	.LVL10-1
 2968 0067 0100     		.2byte	0x1
 2969 0069 53       		.byte	0x53
 2970 006a 5C000000 		.4byte	.LVL11
 2971 006e B2000000 		.4byte	.LVL22
 2972 0072 0100     		.2byte	0x1
 2973 0074 53       		.byte	0x53
 2974 0075 BC000000 		.4byte	.LVL23
 2975 0079 C4000000 		.4byte	.LFE9
 2976 007d 0100     		.2byte	0x1
 2977 007f 53       		.byte	0x53
 2978 0080 00000000 		.4byte	0
 2979 0084 00000000 		.4byte	0
 2980              	.LLST3:
 2981 0088 24000000 		.4byte	.LVL5
 2982 008c 4A000000 		.4byte	.LVL9
 2983 0090 0100     		.2byte	0x1
 2984 0092 55       		.byte	0x55
 2985 0093 00000000 		.4byte	0
 2986 0097 00000000 		.4byte	0
 2987              	.LLST4:
 2988 009b 24000000 		.4byte	.LVL5
 2989 009f 4A000000 		.4byte	.LVL9
 2990 00a3 0100     		.2byte	0x1
 2991 00a5 54       		.byte	0x54
 2992 00a6 00000000 		.4byte	0
 2993 00aa 00000000 		.4byte	0
 2994              	.LLST5:
 2995 00ae 24000000 		.4byte	.LVL5
 2996 00b2 26000000 		.4byte	.LVL6
 2997 00b6 0100     		.2byte	0x1
 2998 00b8 55       		.byte	0x55
 2999 00b9 26000000 		.4byte	.LVL6
 3000 00bd 3E000000 		.4byte	.LVL8
 3001 00c1 0100     		.2byte	0x1
 3002 00c3 50       		.byte	0x50
 3003 00c4 3E000000 		.4byte	.LVL8
 3004 00c8 49000000 		.4byte	.LVL9-1
 3005 00cc 0200     		.2byte	0x2
 3006 00ce 74       		.byte	0x74
 3007 00cf 00       		.sleb128 0
 3008 00d0 00000000 		.4byte	0
 3009 00d4 00000000 		.4byte	0
 3010              	.LLST6:
 3011 00d8 4A000000 		.4byte	.LVL9
 3012 00dc 59000000 		.4byte	.LVL10-1
 3013 00e0 0100     		.2byte	0x1
 3014 00e2 53       		.byte	0x53
ARM GAS  C:\Users\srich\AppData\Local\Temp\ccTL03Vr.s 			page 54


 3015 00e3 00000000 		.4byte	0
 3016 00e7 00000000 		.4byte	0
 3017              	.LLST7:
 3018 00eb 5C000000 		.4byte	.LVL11
 3019 00ef 82000000 		.4byte	.LVL15
 3020 00f3 0100     		.2byte	0x1
 3021 00f5 53       		.byte	0x53
 3022 00f6 00000000 		.4byte	0
 3023 00fa 00000000 		.4byte	0
 3024              	.LLST8:
 3025 00fe 62000000 		.4byte	.LVL12
 3026 0102 82000000 		.4byte	.LVL15
 3027 0106 0100     		.2byte	0x1
 3028 0108 56       		.byte	0x56
 3029 0109 00000000 		.4byte	0
 3030 010d 00000000 		.4byte	0
 3031              	.LLST9:
 3032 0111 62000000 		.4byte	.LVL12
 3033 0115 82000000 		.4byte	.LVL15
 3034 0119 0100     		.2byte	0x1
 3035 011b 53       		.byte	0x53
 3036 011c 00000000 		.4byte	0
 3037 0120 00000000 		.4byte	0
 3038              	.LLST10:
 3039 0124 62000000 		.4byte	.LVL12
 3040 0128 6A000000 		.4byte	.LVL13
 3041 012c 0100     		.2byte	0x1
 3042 012e 56       		.byte	0x56
 3043 012f 6A000000 		.4byte	.LVL13
 3044 0133 82000000 		.4byte	.LVL15
 3045 0137 0100     		.2byte	0x1
 3046 0139 52       		.byte	0x52
 3047 013a 00000000 		.4byte	0
 3048 013e 00000000 		.4byte	0
 3049              	.LLST11:
 3050 0142 82000000 		.4byte	.LVL15
 3051 0146 A8000000 		.4byte	.LVL20
 3052 014a 0100     		.2byte	0x1
 3053 014c 53       		.byte	0x53
 3054 014d A8000000 		.4byte	.LVL20
 3055 0151 AC000000 		.4byte	.LVL21
 3056 0155 0200     		.2byte	0x2
 3057 0157 72       		.byte	0x72
 3058 0158 04       		.sleb128 4
 3059 0159 BC000000 		.4byte	.LVL23
 3060 015d C4000000 		.4byte	.LFE9
 3061 0161 0100     		.2byte	0x1
 3062 0163 53       		.byte	0x53
 3063 0164 00000000 		.4byte	0
 3064 0168 00000000 		.4byte	0
 3065              	.LLST12:
 3066 016c 88000000 		.4byte	.LVL16
 3067 0170 B2000000 		.4byte	.LVL22
 3068 0174 0100     		.2byte	0x1
 3069 0176 56       		.byte	0x56
 3070 0177 BC000000 		.4byte	.LVL23
 3071 017b C4000000 		.4byte	.LFE9
ARM GAS  C:\Users\srich\AppData\Local\Temp\ccTL03Vr.s 			page 55


 3072 017f 0100     		.2byte	0x1
 3073 0181 56       		.byte	0x56
 3074 0182 00000000 		.4byte	0
 3075 0186 00000000 		.4byte	0
 3076              	.LLST13:
 3077 018a 88000000 		.4byte	.LVL16
 3078 018e A8000000 		.4byte	.LVL20
 3079 0192 0100     		.2byte	0x1
 3080 0194 53       		.byte	0x53
 3081 0195 A8000000 		.4byte	.LVL20
 3082 0199 AC000000 		.4byte	.LVL21
 3083 019d 0200     		.2byte	0x2
 3084 019f 72       		.byte	0x72
 3085 01a0 04       		.sleb128 4
 3086 01a1 BC000000 		.4byte	.LVL23
 3087 01a5 C4000000 		.4byte	.LFE9
 3088 01a9 0100     		.2byte	0x1
 3089 01ab 53       		.byte	0x53
 3090 01ac 00000000 		.4byte	0
 3091 01b0 00000000 		.4byte	0
 3092              	.LLST14:
 3093 01b4 88000000 		.4byte	.LVL16
 3094 01b8 90000000 		.4byte	.LVL17
 3095 01bc 0100     		.2byte	0x1
 3096 01be 56       		.byte	0x56
 3097 01bf 90000000 		.4byte	.LVL17
 3098 01c3 9C000000 		.4byte	.LVL19
 3099 01c7 0100     		.2byte	0x1
 3100 01c9 52       		.byte	0x52
 3101 01ca BC000000 		.4byte	.LVL23
 3102 01ce BE000000 		.4byte	.LVL24
 3103 01d2 0100     		.2byte	0x1
 3104 01d4 52       		.byte	0x52
 3105 01d5 00000000 		.4byte	0
 3106 01d9 00000000 		.4byte	0
 3107              	.LLST15:
 3108 01dd 00000000 		.4byte	.LFB8
 3109 01e1 02000000 		.4byte	.LCFI1
 3110 01e5 0200     		.2byte	0x2
 3111 01e7 7D       		.byte	0x7d
 3112 01e8 00       		.sleb128 0
 3113 01e9 02000000 		.4byte	.LCFI1
 3114 01ed 14000000 		.4byte	.LFE8
 3115 01f1 0200     		.2byte	0x2
 3116 01f3 7D       		.byte	0x7d
 3117 01f4 08       		.sleb128 8
 3118 01f5 00000000 		.4byte	0
 3119 01f9 00000000 		.4byte	0
 3120              	.LLST16:
 3121 01fd 00000000 		.4byte	.LVL25
 3122 0201 0B000000 		.4byte	.LVL28-1
 3123 0205 0100     		.2byte	0x1
 3124 0207 50       		.byte	0x50
 3125 0208 0B000000 		.4byte	.LVL28-1
 3126 020c 14000000 		.4byte	.LFE8
 3127 0210 0400     		.2byte	0x4
 3128 0212 F3       		.byte	0xf3
ARM GAS  C:\Users\srich\AppData\Local\Temp\ccTL03Vr.s 			page 56


 3129 0213 01       		.uleb128 0x1
 3130 0214 50       		.byte	0x50
 3131 0215 9F       		.byte	0x9f
 3132 0216 00000000 		.4byte	0
 3133 021a 00000000 		.4byte	0
 3134              	.LLST17:
 3135 021e 08000000 		.4byte	.LVL27
 3136 0222 0B000000 		.4byte	.LVL28-1
 3137 0226 0100     		.2byte	0x1
 3138 0228 53       		.byte	0x53
 3139 0229 00000000 		.4byte	0
 3140 022d 00000000 		.4byte	0
 3141              	.LLST18:
 3142 0231 12000000 		.4byte	.LVL30
 3143 0235 14000000 		.4byte	.LFE8
 3144 0239 0100     		.2byte	0x1
 3145 023b 53       		.byte	0x53
 3146 023c 00000000 		.4byte	0
 3147 0240 00000000 		.4byte	0
 3148              	.LLST19:
 3149 0244 00000000 		.4byte	.LVL31
 3150 0248 0E000000 		.4byte	.LVL35
 3151 024c 0100     		.2byte	0x1
 3152 024e 50       		.byte	0x50
 3153 024f 0E000000 		.4byte	.LVL35
 3154 0253 16000000 		.4byte	.LVL38
 3155 0257 0100     		.2byte	0x1
 3156 0259 52       		.byte	0x52
 3157 025a 16000000 		.4byte	.LVL38
 3158 025e 18000000 		.4byte	.LVL39
 3159 0262 0100     		.2byte	0x1
 3160 0264 50       		.byte	0x50
 3161 0265 18000000 		.4byte	.LVL39
 3162 0269 2C000000 		.4byte	.LFE10
 3163 026d 0100     		.2byte	0x1
 3164 026f 52       		.byte	0x52
 3165 0270 00000000 		.4byte	0
 3166 0274 00000000 		.4byte	0
 3167              	.LLST20:
 3168 0278 08000000 		.4byte	.LVL33
 3169 027c 0A000000 		.4byte	.LVL34
 3170 0280 0100     		.2byte	0x1
 3171 0282 53       		.byte	0x53
 3172 0283 00000000 		.4byte	0
 3173 0287 00000000 		.4byte	0
 3174              	.LLST21:
 3175 028b 08000000 		.4byte	.LVL33
 3176 028f 0E000000 		.4byte	.LVL35
 3177 0293 0100     		.2byte	0x1
 3178 0295 50       		.byte	0x50
 3179 0296 0E000000 		.4byte	.LVL35
 3180 029a 16000000 		.4byte	.LVL38
 3181 029e 0100     		.2byte	0x1
 3182 02a0 52       		.byte	0x52
 3183 02a1 16000000 		.4byte	.LVL38
 3184 02a5 18000000 		.4byte	.LVL39
 3185 02a9 0100     		.2byte	0x1
ARM GAS  C:\Users\srich\AppData\Local\Temp\ccTL03Vr.s 			page 57


 3186 02ab 50       		.byte	0x50
 3187 02ac 18000000 		.4byte	.LVL39
 3188 02b0 2C000000 		.4byte	.LFE10
 3189 02b4 0100     		.2byte	0x1
 3190 02b6 52       		.byte	0x52
 3191 02b7 00000000 		.4byte	0
 3192 02bb 00000000 		.4byte	0
 3193              	.LLST22:
 3194 02bf 14000000 		.4byte	.LVL37
 3195 02c3 16000000 		.4byte	.LVL38
 3196 02c7 0100     		.2byte	0x1
 3197 02c9 53       		.byte	0x53
 3198 02ca 00000000 		.4byte	0
 3199 02ce 00000000 		.4byte	0
 3200              	.LLST23:
 3201 02d2 00000000 		.4byte	.LVL40
 3202 02d6 08000000 		.4byte	.LVL41
 3203 02da 0100     		.2byte	0x1
 3204 02dc 50       		.byte	0x50
 3205 02dd 08000000 		.4byte	.LVL41
 3206 02e1 0A000000 		.4byte	.LVL42
 3207 02e5 0100     		.2byte	0x1
 3208 02e7 53       		.byte	0x53
 3209 02e8 0A000000 		.4byte	.LVL42
 3210 02ec 0C000000 		.4byte	.LVL43
 3211 02f0 0100     		.2byte	0x1
 3212 02f2 50       		.byte	0x50
 3213 02f3 0C000000 		.4byte	.LVL43
 3214 02f7 20000000 		.4byte	.LFE11
 3215 02fb 0100     		.2byte	0x1
 3216 02fd 53       		.byte	0x53
 3217 02fe 00000000 		.4byte	0
 3218 0302 00000000 		.4byte	0
 3219              	.LLST24:
 3220 0306 00000000 		.4byte	.LFB12
 3221 030a 04000000 		.4byte	.LCFI2
 3222 030e 0200     		.2byte	0x2
 3223 0310 7D       		.byte	0x7d
 3224 0311 00       		.sleb128 0
 3225 0312 04000000 		.4byte	.LCFI2
 3226 0316 5C000000 		.4byte	.LFE12
 3227 031a 0200     		.2byte	0x2
 3228 031c 7D       		.byte	0x7d
 3229 031d 10       		.sleb128 16
 3230 031e 00000000 		.4byte	0
 3231 0322 00000000 		.4byte	0
 3232              	.LLST25:
 3233 0326 06000000 		.4byte	.LVL44
 3234 032a 3A000000 		.4byte	.LVL54
 3235 032e 0100     		.2byte	0x1
 3236 0330 50       		.byte	0x50
 3237 0331 52000000 		.4byte	.LVL59
 3238 0335 5C000000 		.4byte	.LFE12
 3239 0339 0100     		.2byte	0x1
 3240 033b 50       		.byte	0x50
 3241 033c 00000000 		.4byte	0
 3242 0340 00000000 		.4byte	0
ARM GAS  C:\Users\srich\AppData\Local\Temp\ccTL03Vr.s 			page 58


 3243              	.LLST26:
 3244 0344 1A000000 		.4byte	.LVL49
 3245 0348 32000000 		.4byte	.LVL52
 3246 034c 0100     		.2byte	0x1
 3247 034e 53       		.byte	0x53
 3248 034f 00000000 		.4byte	0
 3249 0353 00000000 		.4byte	0
 3250              	.LLST27:
 3251 0357 0C000000 		.4byte	.LVL46
 3252 035b 12000000 		.4byte	.LVL48
 3253 035f 0100     		.2byte	0x1
 3254 0361 53       		.byte	0x53
 3255 0362 00000000 		.4byte	0
 3256 0366 00000000 		.4byte	0
 3257              	.LLST28:
 3258 036a 1A000000 		.4byte	.LVL49
 3259 036e 3E000000 		.4byte	.LVL55
 3260 0372 0100     		.2byte	0x1
 3261 0374 51       		.byte	0x51
 3262 0375 00000000 		.4byte	0
 3263 0379 00000000 		.4byte	0
 3264              	.LLST29:
 3265 037d 36000000 		.4byte	.LVL53
 3266 0381 48000000 		.4byte	.LVL56
 3267 0385 0100     		.2byte	0x1
 3268 0387 54       		.byte	0x54
 3269 0388 00000000 		.4byte	0
 3270 038c 00000000 		.4byte	0
 3271              	.LLST30:
 3272 0390 36000000 		.4byte	.LVL53
 3273 0394 48000000 		.4byte	.LVL56
 3274 0398 0100     		.2byte	0x1
 3275 039a 55       		.byte	0x55
 3276 039b 00000000 		.4byte	0
 3277 039f 00000000 		.4byte	0
 3278              	.LLST31:
 3279 03a3 4E000000 		.4byte	.LVL58
 3280 03a7 52000000 		.4byte	.LVL59
 3281 03ab 0100     		.2byte	0x1
 3282 03ad 53       		.byte	0x53
 3283 03ae 00000000 		.4byte	0
 3284 03b2 00000000 		.4byte	0
 3285              	.LLST32:
 3286 03b6 00000000 		.4byte	.LFB13
 3287 03ba 02000000 		.4byte	.LCFI3
 3288 03be 0200     		.2byte	0x2
 3289 03c0 7D       		.byte	0x7d
 3290 03c1 00       		.sleb128 0
 3291 03c2 02000000 		.4byte	.LCFI3
 3292 03c6 50000000 		.4byte	.LFE13
 3293 03ca 0200     		.2byte	0x2
 3294 03cc 7D       		.byte	0x7d
 3295 03cd 10       		.sleb128 16
 3296 03ce 00000000 		.4byte	0
 3297 03d2 00000000 		.4byte	0
 3298              	.LLST33:
 3299 03d6 06000000 		.4byte	.LVL60
ARM GAS  C:\Users\srich\AppData\Local\Temp\ccTL03Vr.s 			page 59


 3300 03da 34000000 		.4byte	.LVL67
 3301 03de 0100     		.2byte	0x1
 3302 03e0 50       		.byte	0x50
 3303 03e1 44000000 		.4byte	.LVL69
 3304 03e5 4A000000 		.4byte	.LVL70
 3305 03e9 0100     		.2byte	0x1
 3306 03eb 50       		.byte	0x50
 3307 03ec 00000000 		.4byte	0
 3308 03f0 00000000 		.4byte	0
 3309              	.LLST34:
 3310 03f4 14000000 		.4byte	.LVL62
 3311 03f8 2C000000 		.4byte	.LVL65
 3312 03fc 0100     		.2byte	0x1
 3313 03fe 53       		.byte	0x53
 3314 03ff 00000000 		.4byte	0
 3315 0403 00000000 		.4byte	0
 3316              	.LLST35:
 3317 0407 14000000 		.4byte	.LVL62
 3318 040b 3F000000 		.4byte	.LVL68-1
 3319 040f 0100     		.2byte	0x1
 3320 0411 51       		.byte	0x51
 3321 0412 00000000 		.4byte	0
 3322 0416 00000000 		.4byte	0
 3323              	.LLST36:
 3324 041a 30000000 		.4byte	.LVL66
 3325 041e 44000000 		.4byte	.LVL69
 3326 0422 0100     		.2byte	0x1
 3327 0424 54       		.byte	0x54
 3328 0425 00000000 		.4byte	0
 3329 0429 00000000 		.4byte	0
 3330              	.LLST37:
 3331 042d 30000000 		.4byte	.LVL66
 3332 0431 44000000 		.4byte	.LVL69
 3333 0435 0100     		.2byte	0x1
 3334 0437 55       		.byte	0x55
 3335 0438 00000000 		.4byte	0
 3336 043c 00000000 		.4byte	0
 3337              	.LLST38:
 3338 0440 00000000 		.4byte	.LFB14
 3339 0444 04000000 		.4byte	.LCFI4
 3340 0448 0200     		.2byte	0x2
 3341 044a 7D       		.byte	0x7d
 3342 044b 00       		.sleb128 0
 3343 044c 04000000 		.4byte	.LCFI4
 3344 0450 54000000 		.4byte	.LFE14
 3345 0454 0200     		.2byte	0x2
 3346 0456 7D       		.byte	0x7d
 3347 0457 10       		.sleb128 16
 3348 0458 00000000 		.4byte	0
 3349 045c 00000000 		.4byte	0
 3350              	.LLST39:
 3351 0460 0C000000 		.4byte	.LVL73
 3352 0464 0E000000 		.4byte	.LVL74
 3353 0468 0100     		.2byte	0x1
 3354 046a 53       		.byte	0x53
 3355 046b 00000000 		.4byte	0
 3356 046f 00000000 		.4byte	0
ARM GAS  C:\Users\srich\AppData\Local\Temp\ccTL03Vr.s 			page 60


 3357              	.LLST40:
 3358 0473 14000000 		.4byte	.LVL75
 3359 0477 27000000 		.4byte	.LVL76-1
 3360 047b 0100     		.2byte	0x1
 3361 047d 53       		.byte	0x53
 3362 047e 2C000000 		.4byte	.LVL77
 3363 0482 3A000000 		.4byte	.LVL79
 3364 0486 0100     		.2byte	0x1
 3365 0488 53       		.byte	0x53
 3366 0489 00000000 		.4byte	0
 3367 048d 00000000 		.4byte	0
 3368              	.LLST42:
 3369 0491 14000000 		.4byte	.LVL75
 3370 0495 27000000 		.4byte	.LVL76-1
 3371 0499 0100     		.2byte	0x1
 3372 049b 52       		.byte	0x52
 3373 049c 2E000000 		.4byte	.LVL78
 3374 04a0 3E000000 		.4byte	.LVL80
 3375 04a4 0100     		.2byte	0x1
 3376 04a6 52       		.byte	0x52
 3377 04a7 00000000 		.4byte	0
 3378 04ab 00000000 		.4byte	0
 3379              	.LLST43:
 3380 04af 4C000000 		.4byte	.LVL83
 3381 04b3 54000000 		.4byte	.LFE14
 3382 04b7 0100     		.2byte	0x1
 3383 04b9 53       		.byte	0x53
 3384 04ba 00000000 		.4byte	0
 3385 04be 00000000 		.4byte	0
 3386              		.section	.debug_aranges,"",%progbits
 3387 0000 54000000 		.4byte	0x54
 3388 0004 0200     		.2byte	0x2
 3389 0006 00000000 		.4byte	.Ldebug_info0
 3390 000a 04       		.byte	0x4
 3391 000b 00       		.byte	0
 3392 000c 0000     		.2byte	0
 3393 000e 0000     		.2byte	0
 3394 0010 00000000 		.4byte	.LFB7
 3395 0014 0A000000 		.4byte	.LFE7-.LFB7
 3396 0018 00000000 		.4byte	.LFB9
 3397 001c C4000000 		.4byte	.LFE9-.LFB9
 3398 0020 00000000 		.4byte	.LFB8
 3399 0024 14000000 		.4byte	.LFE8-.LFB8
 3400 0028 00000000 		.4byte	.LFB10
 3401 002c 2C000000 		.4byte	.LFE10-.LFB10
 3402 0030 00000000 		.4byte	.LFB11
 3403 0034 20000000 		.4byte	.LFE11-.LFB11
 3404 0038 00000000 		.4byte	.LFB12
 3405 003c 5C000000 		.4byte	.LFE12-.LFB12
 3406 0040 00000000 		.4byte	.LFB13
 3407 0044 50000000 		.4byte	.LFE13-.LFB13
 3408 0048 00000000 		.4byte	.LFB14
 3409 004c 54000000 		.4byte	.LFE14-.LFB14
 3410 0050 00000000 		.4byte	0
 3411 0054 00000000 		.4byte	0
 3412              		.section	.debug_ranges,"",%progbits
 3413              	.Ldebug_ranges0:
ARM GAS  C:\Users\srich\AppData\Local\Temp\ccTL03Vr.s 			page 61


 3414 0000 0E000000 		.4byte	.LBB33
 3415 0004 42000000 		.4byte	.LBE33
 3416 0008 46000000 		.4byte	.LBB60
 3417 000c B2000000 		.4byte	.LBE60
 3418 0010 BC000000 		.4byte	.LBB61
 3419 0014 C4000000 		.4byte	.LBE61
 3420 0018 00000000 		.4byte	0
 3421 001c 00000000 		.4byte	0
 3422 0020 26000000 		.4byte	.LBB34
 3423 0024 3C000000 		.4byte	.LBE34
 3424 0028 3E000000 		.4byte	.LBB37
 3425 002c 40000000 		.4byte	.LBE37
 3426 0030 00000000 		.4byte	0
 3427 0034 00000000 		.4byte	0
 3428 0038 26000000 		.4byte	.LBB35
 3429 003c 3C000000 		.4byte	.LBE35
 3430 0040 3E000000 		.4byte	.LBB36
 3431 0044 40000000 		.4byte	.LBE36
 3432 0048 00000000 		.4byte	0
 3433 004c 00000000 		.4byte	0
 3434 0050 4A000000 		.4byte	.LBB38
 3435 0054 52000000 		.4byte	.LBE38
 3436 0058 54000000 		.4byte	.LBB41
 3437 005c 56000000 		.4byte	.LBE41
 3438 0060 00000000 		.4byte	0
 3439 0064 00000000 		.4byte	0
 3440 0068 5C000000 		.4byte	.LBB42
 3441 006c 60000000 		.4byte	.LBE42
 3442 0070 62000000 		.4byte	.LBB46
 3443 0074 66000000 		.4byte	.LBE46
 3444 0078 68000000 		.4byte	.LBB47
 3445 007c 6A000000 		.4byte	.LBE47
 3446 0080 00000000 		.4byte	0
 3447 0084 00000000 		.4byte	0
 3448 0088 82000000 		.4byte	.LBB50
 3449 008c 86000000 		.4byte	.LBE50
 3450 0090 88000000 		.4byte	.LBB54
 3451 0094 8C000000 		.4byte	.LBE54
 3452 0098 8E000000 		.4byte	.LBB55
 3453 009c 90000000 		.4byte	.LBE55
 3454 00a0 00000000 		.4byte	0
 3455 00a4 00000000 		.4byte	0
 3456 00a8 90000000 		.4byte	.LBB56
 3457 00ac A6000000 		.4byte	.LBE56
 3458 00b0 BC000000 		.4byte	.LBB59
 3459 00b4 C4000000 		.4byte	.LBE59
 3460 00b8 00000000 		.4byte	0
 3461 00bc 00000000 		.4byte	0
 3462 00c0 90000000 		.4byte	.LBB57
 3463 00c4 A6000000 		.4byte	.LBE57
 3464 00c8 BC000000 		.4byte	.LBB58
 3465 00cc C4000000 		.4byte	.LBE58
 3466 00d0 00000000 		.4byte	0
 3467 00d4 00000000 		.4byte	0
 3468 00d8 08000000 		.4byte	.LBB65
 3469 00dc 0E000000 		.4byte	.LBE65
 3470 00e0 16000000 		.4byte	.LBB69
ARM GAS  C:\Users\srich\AppData\Local\Temp\ccTL03Vr.s 			page 62


 3471 00e4 2C000000 		.4byte	.LBE69
 3472 00e8 00000000 		.4byte	0
 3473 00ec 00000000 		.4byte	0
 3474 00f0 30000000 		.4byte	.LBB72
 3475 00f4 32000000 		.4byte	.LBE72
 3476 00f8 36000000 		.4byte	.LBB76
 3477 00fc 38000000 		.4byte	.LBE76
 3478 0100 3A000000 		.4byte	.LBB77
 3479 0104 3C000000 		.4byte	.LBE77
 3480 0108 00000000 		.4byte	0
 3481 010c 00000000 		.4byte	0
 3482 0110 30000000 		.4byte	.LBB73
 3483 0114 32000000 		.4byte	.LBE73
 3484 0118 36000000 		.4byte	.LBB74
 3485 011c 38000000 		.4byte	.LBE74
 3486 0120 3A000000 		.4byte	.LBB75
 3487 0124 3C000000 		.4byte	.LBE75
 3488 0128 00000000 		.4byte	0
 3489 012c 00000000 		.4byte	0
 3490 0130 2A000000 		.4byte	.LBB80
 3491 0134 2C000000 		.4byte	.LBE80
 3492 0138 30000000 		.4byte	.LBB84
 3493 013c 32000000 		.4byte	.LBE84
 3494 0140 34000000 		.4byte	.LBB85
 3495 0144 36000000 		.4byte	.LBE85
 3496 0148 00000000 		.4byte	0
 3497 014c 00000000 		.4byte	0
 3498 0150 2A000000 		.4byte	.LBB81
 3499 0154 2C000000 		.4byte	.LBE81
 3500 0158 30000000 		.4byte	.LBB82
 3501 015c 32000000 		.4byte	.LBE82
 3502 0160 34000000 		.4byte	.LBB83
 3503 0164 36000000 		.4byte	.LBE83
 3504 0168 00000000 		.4byte	0
 3505 016c 00000000 		.4byte	0
 3506 0170 04000000 		.4byte	.LBB86
 3507 0174 06000000 		.4byte	.LBE86
 3508 0178 08000000 		.4byte	.LBB87
 3509 017c 0C000000 		.4byte	.LBE87
 3510 0180 00000000 		.4byte	0
 3511 0184 00000000 		.4byte	0
 3512 0188 10000000 		.4byte	.LBB88
 3513 018c 28000000 		.4byte	.LBE88
 3514 0190 2C000000 		.4byte	.LBB96
 3515 0194 38000000 		.4byte	.LBE96
 3516 0198 00000000 		.4byte	0
 3517 019c 00000000 		.4byte	0
 3518 01a0 14000000 		.4byte	.LBB90
 3519 01a4 16000000 		.4byte	.LBE90
 3520 01a8 18000000 		.4byte	.LBB94
 3521 01ac 1A000000 		.4byte	.LBE94
 3522 01b0 1C000000 		.4byte	.LBB95
 3523 01b4 1E000000 		.4byte	.LBE95
 3524 01b8 00000000 		.4byte	0
 3525 01bc 00000000 		.4byte	0
 3526 01c0 14000000 		.4byte	.LBB91
 3527 01c4 16000000 		.4byte	.LBE91
ARM GAS  C:\Users\srich\AppData\Local\Temp\ccTL03Vr.s 			page 63


 3528 01c8 18000000 		.4byte	.LBB92
 3529 01cc 1A000000 		.4byte	.LBE92
 3530 01d0 1C000000 		.4byte	.LBB93
 3531 01d4 1E000000 		.4byte	.LBE93
 3532 01d8 00000000 		.4byte	0
 3533 01dc 00000000 		.4byte	0
 3534 01e0 00000000 		.4byte	.LFB7
 3535 01e4 0A000000 		.4byte	.LFE7
 3536 01e8 00000000 		.4byte	.LFB9
 3537 01ec C4000000 		.4byte	.LFE9
 3538 01f0 00000000 		.4byte	.LFB8
 3539 01f4 14000000 		.4byte	.LFE8
 3540 01f8 00000000 		.4byte	.LFB10
 3541 01fc 2C000000 		.4byte	.LFE10
 3542 0200 00000000 		.4byte	.LFB11
 3543 0204 20000000 		.4byte	.LFE11
 3544 0208 00000000 		.4byte	.LFB12
 3545 020c 5C000000 		.4byte	.LFE12
 3546 0210 00000000 		.4byte	.LFB13
 3547 0214 50000000 		.4byte	.LFE13
 3548 0218 00000000 		.4byte	.LFB14
 3549 021c 54000000 		.4byte	.LFE14
 3550 0220 00000000 		.4byte	0
 3551 0224 00000000 		.4byte	0
 3552              		.section	.debug_line,"",%progbits
 3553              	.Ldebug_line0:
 3554 0000 93030000 		.section	.debug_str,"MS",%progbits,1
 3554      02007D01 
 3554      00000201 
 3554      FB0E0D00 
 3554      01010101 
 3555              	.LASF37:
 3556 0000 705F6D73 		.ascii	"p_msg\000"
 3556      6700
 3557              	.LASF59:
 3558 0006 7264796D 		.ascii	"rdymsg\000"
 3558      736700
 3559              	.LASF11:
 3560 000d 6C6F6E67 		.ascii	"long long unsigned int\000"
 3560      206C6F6E 
 3560      6720756E 
 3560      7369676E 
 3560      65642069 
 3561              	.LASF60:
 3562 0024 65786974 		.ascii	"exitcode\000"
 3562      636F6465 
 3562      00
 3563              	.LASF70:
 3564 002d 63684D74 		.ascii	"chMtxUnlock\000"
 3564      78556E6C 
 3564      6F636B00 
 3565              	.LASF25:
 3566 0039 705F7072 		.ascii	"p_prio\000"
 3566      696F00
 3567              	.LASF10:
 3568 0040 6C6F6E67 		.ascii	"long long int\000"
 3568      206C6F6E 
ARM GAS  C:\Users\srich\AppData\Local\Temp\ccTL03Vr.s 			page 64


 3568      6720696E 
 3568      7400
 3569              	.LASF1:
 3570 004e 7369676E 		.ascii	"signed char\000"
 3570      65642063 
 3570      68617200 
 3571              	.LASF41:
 3572 005a 705F6D70 		.ascii	"p_mpool\000"
 3572      6F6F6C00 
 3573              	.LASF12:
 3574 0062 626F6F6C 		.ascii	"bool_t\000"
 3574      5F7400
 3575              	.LASF56:
 3576 0069 6D5F7175 		.ascii	"m_queue\000"
 3576      65756500 
 3577              	.LASF17:
 3578 0071 74736C69 		.ascii	"tslices_t\000"
 3578      6365735F 
 3578      7400
 3579              	.LASF7:
 3580 007b 6C6F6E67 		.ascii	"long int\000"
 3580      20696E74 
 3580      00
 3581              	.LASF15:
 3582 0084 74737461 		.ascii	"tstate_t\000"
 3582      74655F74 
 3582      00
 3583              	.LASF67:
 3584 008d 63684D74 		.ascii	"chMtxLockS\000"
 3584      784C6F63 
 3584      6B5300
 3585              	.LASF74:
 3586 0098 63684D74 		.ascii	"chMtxTryLockS\000"
 3586      78547279 
 3586      4C6F636B 
 3586      5300
 3587              	.LASF27:
 3588 00a6 705F6E65 		.ascii	"p_newer\000"
 3588      77657200 
 3589              	.LASF82:
 3590 00ae 63685363 		.ascii	"chSchRescheduleS\000"
 3590      68526573 
 3590      63686564 
 3590      756C6553 
 3590      00
 3591              	.LASF51:
 3592 00bf 725F6E65 		.ascii	"r_newer\000"
 3592      77657200 
 3593              	.LASF44:
 3594 00c7 72656761 		.ascii	"regarm_t\000"
 3594      726D5F74 
 3594      00
 3595              	.LASF72:
 3596 00d0 63684D74 		.ascii	"chMtxUnlockS\000"
 3596      78556E6C 
 3596      6F636B53 
 3596      00
ARM GAS  C:\Users\srich\AppData\Local\Temp\ccTL03Vr.s 			page 65


 3597              	.LASF0:
 3598 00dd 756E7369 		.ascii	"unsigned int\000"
 3598      676E6564 
 3598      20696E74 
 3598      00
 3599              	.LASF79:
 3600 00ea 633A5C43 		.ascii	"c:\\ChibiStudio\\chibios/os/kernel/src/chmtx.c\000"
 3600      68696269 
 3600      53747564 
 3600      696F5C63 
 3600      68696269 
 3601              	.LASF9:
 3602 0117 6C6F6E67 		.ascii	"long unsigned int\000"
 3602      20756E73 
 3602      69676E65 
 3602      6420696E 
 3602      7400
 3603              	.LASF46:
 3604 0129 636F6E74 		.ascii	"context\000"
 3604      65787400 
 3605              	.LASF4:
 3606 0131 73686F72 		.ascii	"short unsigned int\000"
 3606      7420756E 
 3606      7369676E 
 3606      65642069 
 3606      6E7400
 3607              	.LASF19:
 3608 0144 6D73675F 		.ascii	"msg_t\000"
 3608      7400
 3609              	.LASF80:
 3610 014a 7072696F 		.ascii	"prio_insert\000"
 3610      5F696E73 
 3610      65727400 
 3611              	.LASF73:
 3612 0156 63684D74 		.ascii	"chMtxUnlockAll\000"
 3612      78556E6C 
 3612      6F636B41 
 3612      6C6C00
 3613              	.LASF71:
 3614 0165 6E657770 		.ascii	"newprio\000"
 3614      72696F00 
 3615              	.LASF14:
 3616 016d 746D6F64 		.ascii	"tmode_t\000"
 3616      655F7400 
 3617              	.LASF43:
 3618 0175 54687265 		.ascii	"ThreadsList\000"
 3618      6164734C 
 3618      69737400 
 3619              	.LASF20:
 3620 0181 6576656E 		.ascii	"eventmask_t\000"
 3620      746D6173 
 3620      6B5F7400 
 3621              	.LASF69:
 3622 018d 63684D74 		.ascii	"chMtxTryLock\000"
 3622      78547279 
 3622      4C6F636B 
 3622      00
ARM GAS  C:\Users\srich\AppData\Local\Temp\ccTL03Vr.s 			page 66


 3623              	.LASF55:
 3624 019a 4D757465 		.ascii	"Mutex\000"
 3624      7800
 3625              	.LASF47:
 3626 01a0 73697A65 		.ascii	"sizetype\000"
 3626      74797065 
 3626      00
 3627              	.LASF68:
 3628 01a9 63684D74 		.ascii	"chMtxLock\000"
 3628      784C6F63 
 3628      6B00
 3629              	.LASF78:
 3630 01b3 474E5520 		.ascii	"GNU C 4.7.4 20140401 (release) [ARM/embedded-4_7-br"
 3630      4320342E 
 3630      372E3420 
 3630      32303134 
 3630      30343031 
 3631 01e6 616E6368 		.ascii	"anch revision 209195]\000"
 3631      20726576 
 3631      6973696F 
 3631      6E203230 
 3631      39313935 
 3632              	.LASF28:
 3633 01fc 705F6F6C 		.ascii	"p_older\000"
 3633      64657200 
 3634              	.LASF50:
 3635 0204 725F6374 		.ascii	"r_ctx\000"
 3635      7800
 3636              	.LASF42:
 3637 020a 54687265 		.ascii	"ThreadsQueue\000"
 3637      61647351 
 3637      75657565 
 3637      00
 3638              	.LASF64:
 3639 0217 64657175 		.ascii	"dequeue\000"
 3639      65756500 
 3640              	.LASF53:
 3641 021f 725F6375 		.ascii	"r_current\000"
 3641      7272656E 
 3641      7400
 3642              	.LASF52:
 3643 0229 725F6F6C 		.ascii	"r_older\000"
 3643      64657200 
 3644              	.LASF16:
 3645 0231 74726566 		.ascii	"trefs_t\000"
 3645      735F7400 
 3646              	.LASF24:
 3647 0239 705F7072 		.ascii	"p_prev\000"
 3647      657600
 3648              	.LASF18:
 3649 0240 74707269 		.ascii	"tprio_t\000"
 3649      6F5F7400 
 3650              	.LASF13:
 3651 0248 5F426F6F 		.ascii	"_Bool\000"
 3651      6C00
 3652              	.LASF6:
 3653 024e 696E7433 		.ascii	"int32_t\000"
ARM GAS  C:\Users\srich\AppData\Local\Temp\ccTL03Vr.s 			page 67


 3653      325F7400 
 3654              	.LASF2:
 3655 0256 756E7369 		.ascii	"unsigned char\000"
 3655      676E6564 
 3655      20636861 
 3655      7200
 3656              	.LASF39:
 3657 0264 705F6D74 		.ascii	"p_mtxlist\000"
 3657      786C6973 
 3657      7400
 3658              	.LASF3:
 3659 026e 73686F72 		.ascii	"short int\000"
 3659      7420696E 
 3659      7400
 3660              	.LASF30:
 3661 0278 705F7374 		.ascii	"p_state\000"
 3661      61746500 
 3662              	.LASF33:
 3663 0280 705F7072 		.ascii	"p_preempt\000"
 3663      65656D70 
 3663      7400
 3664              	.LASF49:
 3665 028a 725F7072 		.ascii	"r_prio\000"
 3665      696F00
 3666              	.LASF62:
 3667 0291 65776D61 		.ascii	"ewmask\000"
 3667      736B00
 3668              	.LASF23:
 3669 0298 705F6E65 		.ascii	"p_next\000"
 3669      787400
 3670              	.LASF31:
 3671 029f 705F666C 		.ascii	"p_flags\000"
 3671      61677300 
 3672              	.LASF22:
 3673 02a7 54687265 		.ascii	"Thread\000"
 3673      616400
 3674              	.LASF76:
 3675 02ae 63685363 		.ascii	"chSchGoSleepS\000"
 3675      68476F53 
 3675      6C656570 
 3675      5300
 3676              	.LASF38:
 3677 02bc 705F6570 		.ascii	"p_epending\000"
 3677      656E6469 
 3677      6E6700
 3678              	.LASF8:
 3679 02c7 75696E74 		.ascii	"uint32_t\000"
 3679      33325F74 
 3679      00
 3680              	.LASF48:
 3681 02d0 725F7175 		.ascii	"r_queue\000"
 3681      65756500 
 3682              	.LASF75:
 3683 02d8 63685363 		.ascii	"chSchReadyI\000"
 3683      68526561 
 3683      64794900 
 3684              	.LASF63:
ARM GAS  C:\Users\srich\AppData\Local\Temp\ccTL03Vr.s 			page 68


 3685 02e4 63686172 		.ascii	"char\000"
 3685      00
 3686              	.LASF65:
 3687 02e9 6669666F 		.ascii	"fifo_remove\000"
 3687      5F72656D 
 3687      6F766500 
 3688              	.LASF58:
 3689 02f5 6D5F6E65 		.ascii	"m_next\000"
 3689      787400
 3690              	.LASF21:
 3691 02fc 73797374 		.ascii	"systime_t\000"
 3691      696D655F 
 3691      7400
 3692              	.LASF40:
 3693 0306 705F7265 		.ascii	"p_realprio\000"
 3693      616C7072 
 3693      696F00
 3694              	.LASF34:
 3695 0311 705F7469 		.ascii	"p_time\000"
 3695      6D6500
 3696              	.LASF45:
 3697 0318 696E7463 		.ascii	"intctx\000"
 3697      747800
 3698              	.LASF36:
 3699 031f 705F6D73 		.ascii	"p_msgqueue\000"
 3699      67717565 
 3699      756500
 3700              	.LASF77:
 3701 032a 63685363 		.ascii	"chSchWakeupS\000"
 3701      6857616B 
 3701      65757053 
 3701      00
 3702              	.LASF66:
 3703 0337 63684D74 		.ascii	"chMtxInit\000"
 3703      78496E69 
 3703      7400
 3704              	.LASF32:
 3705 0341 705F7265 		.ascii	"p_refs\000"
 3705      667300
 3706              	.LASF54:
 3707 0348 52656164 		.ascii	"ReadyList\000"
 3707      794C6973 
 3707      7400
 3708              	.LASF81:
 3709 0352 726C6973 		.ascii	"rlist\000"
 3709      7400
 3710              	.LASF5:
 3711 0358 75696E74 		.ascii	"uint8_t\000"
 3711      385F7400 
 3712              	.LASF61:
 3713 0360 77746F62 		.ascii	"wtobjp\000"
 3713      6A7000
 3714              	.LASF29:
 3715 0367 705F6E61 		.ascii	"p_name\000"
 3715      6D6500
 3716              	.LASF57:
 3717 036e 6D5F6F77 		.ascii	"m_owner\000"
ARM GAS  C:\Users\srich\AppData\Local\Temp\ccTL03Vr.s 			page 69


 3717      6E657200 
 3718              	.LASF26:
 3719 0376 705F6374 		.ascii	"p_ctx\000"
 3719      7800
 3720              	.LASF35:
 3721 037c 705F7761 		.ascii	"p_waiting\000"
 3721      6974696E 
 3721      6700
 3722              		.ident	"GCC: (GNU Tools for ARM Embedded Processors) 4.7.4 20140401 (release) [ARM/embedded-4_7-br
ARM GAS  C:\Users\srich\AppData\Local\Temp\ccTL03Vr.s 			page 70


DEFINED SYMBOLS
                            *ABS*:00000000 chmtx.c
C:\Users\srich\AppData\Local\Temp\ccTL03Vr.s:19     .text.chMtxInit:00000000 $t
C:\Users\srich\AppData\Local\Temp\ccTL03Vr.s:25     .text.chMtxInit:00000000 chMtxInit
C:\Users\srich\AppData\Local\Temp\ccTL03Vr.s:46     .text.chMtxLockS:00000000 $t
C:\Users\srich\AppData\Local\Temp\ccTL03Vr.s:52     .text.chMtxLockS:00000000 chMtxLockS
C:\Users\srich\AppData\Local\Temp\ccTL03Vr.s:312    .text.chMtxLockS:000000c0 $d
C:\Users\srich\AppData\Local\Temp\ccTL03Vr.s:320    .text.chMtxLock:00000000 $t
C:\Users\srich\AppData\Local\Temp\ccTL03Vr.s:326    .text.chMtxLock:00000000 chMtxLock
C:\Users\srich\AppData\Local\Temp\ccTL03Vr.s:366    .text.chMtxTryLock:00000000 $t
C:\Users\srich\AppData\Local\Temp\ccTL03Vr.s:372    .text.chMtxTryLock:00000000 chMtxTryLock
C:\Users\srich\AppData\Local\Temp\ccTL03Vr.s:438    .text.chMtxTryLock:00000028 $d
C:\Users\srich\AppData\Local\Temp\ccTL03Vr.s:445    .text.chMtxTryLockS:00000000 $t
C:\Users\srich\AppData\Local\Temp\ccTL03Vr.s:451    .text.chMtxTryLockS:00000000 chMtxTryLockS
C:\Users\srich\AppData\Local\Temp\ccTL03Vr.s:491    .text.chMtxTryLockS:0000001c $d
C:\Users\srich\AppData\Local\Temp\ccTL03Vr.s:496    .text.chMtxUnlock:00000000 $t
C:\Users\srich\AppData\Local\Temp\ccTL03Vr.s:502    .text.chMtxUnlock:00000000 chMtxUnlock
C:\Users\srich\AppData\Local\Temp\ccTL03Vr.s:633    .text.chMtxUnlock:00000058 $d
C:\Users\srich\AppData\Local\Temp\ccTL03Vr.s:638    .text.chMtxUnlockS:00000000 $t
C:\Users\srich\AppData\Local\Temp\ccTL03Vr.s:644    .text.chMtxUnlockS:00000000 chMtxUnlockS
C:\Users\srich\AppData\Local\Temp\ccTL03Vr.s:751    .text.chMtxUnlockS:0000004c $d
C:\Users\srich\AppData\Local\Temp\ccTL03Vr.s:756    .text.chMtxUnlockAll:00000000 $t
C:\Users\srich\AppData\Local\Temp\ccTL03Vr.s:762    .text.chMtxUnlockAll:00000000 chMtxUnlockAll
C:\Users\srich\AppData\Local\Temp\ccTL03Vr.s:885    .text.chMtxUnlockAll:00000050 $d
                     .debug_frame:00000010 $d
C:\Users\srich\AppData\Local\Temp\ccTL03Vr.s:319    .text.chMtxLockS:000000c4 $t
C:\Users\srich\AppData\Local\Temp\ccTL03Vr.s:444    .text.chMtxTryLock:0000002c $t
C:\Users\srich\AppData\Local\Temp\ccTL03Vr.s:637    .text.chMtxUnlock:0000005c $t
C:\Users\srich\AppData\Local\Temp\ccTL03Vr.s:890    .text.chMtxUnlockAll:00000054 $t

UNDEFINED SYMBOLS
chSchGoSleepS
chSchReadyI
rlist
chSchWakeupS
chSchRescheduleS
