ARM GAS  C:\Users\DNIEL~1\AppData\Local\Temp\cctsnRq7.s 			page 1


   1              		.syntax unified
   2              		.cpu cortex-m3
   3              		.fpu softvfp
   4              		.eabi_attribute 20, 1
   5              		.eabi_attribute 21, 1
   6              		.eabi_attribute 23, 3
   7              		.eabi_attribute 24, 1
   8              		.eabi_attribute 25, 1
   9              		.eabi_attribute 26, 1
  10              		.eabi_attribute 30, 2
  11              		.eabi_attribute 18, 4
  12              		.thumb
  13              		.file	"chsem.c"
  14              		.section	.debug_abbrev,"",%progbits
  15              	.Ldebug_abbrev0:
  16              		.section	.debug_info,"",%progbits
  17              	.Ldebug_info0:
  18              		.section	.debug_line,"",%progbits
  19              	.Ldebug_line0:
  20 0000 C0040000 		.text
  20      02007501 
  20      00000201 
  20      FB0E0D00 
  20      01010101 
  21              	.Ltext0:
  22              		.cfi_sections	.debug_frame
  23              		.section	.text.chSemInit,"ax",%progbits
  24              		.align	2
  25              		.p2align 4,,15
  26              		.global	chSemInit
  27              		.thumb
  28              		.thumb_func
  29              		.type	chSemInit, %function
  30              	chSemInit:
  31              	.LFB7:
  32              		.file 1 "../../../ChibiOS/os/kernel/src/chsem.c"
  33              		.loc 1 79 0
  34              		.cfi_startproc
  35              		@ args = 0, pretend = 0, frame = 0
  36              		@ frame_needed = 0, uses_anonymous_args = 0
  37              	.LVL0:
  38 0000 38B5     		push	{r3, r4, r5, lr}
  39              	.LCFI0:
  40              		.cfi_def_cfa_offset 16
  41              		.loc 1 81 0
  42 0002 0446     		mov	r4, r0
  43              		.cfi_offset 14, -4
  44              		.cfi_offset 5, -8
  45              		.cfi_offset 4, -12
  46              		.cfi_offset 3, -16
  47              		.loc 1 79 0
  48 0004 0D46     		mov	r5, r1
  49              		.loc 1 81 0
  50 0006 28B1     		cbz	r0, .L2
  51              		.loc 1 81 0 is_stmt 0 discriminator 2
  52 0008 0029     		cmp	r1, #0
  53 000a 03DB     		blt	.L2
ARM GAS  C:\Users\DNIEL~1\AppData\Local\Temp\cctsnRq7.s 			page 2


  54              		.loc 1 83 0 is_stmt 1
  55 000c 6460     		str	r4, [r4, #4]
  56 000e 2460     		str	r4, [r4, #0]
  57              		.loc 1 84 0
  58 0010 A560     		str	r5, [r4, #8]
  59              		.loc 1 85 0
  60 0012 38BD     		pop	{r3, r4, r5, pc}
  61              	.L2:
  62              		.loc 1 81 0 discriminator 1
  63 0014 0348     		ldr	r0, .L5
  64              	.LVL1:
  65 0016 FFF7FEFF 		bl	chDbgPanic
  66              	.LVL2:
  67              		.loc 1 83 0 discriminator 1
  68 001a 6460     		str	r4, [r4, #4]
  69 001c 2460     		str	r4, [r4, #0]
  70              		.loc 1 84 0 discriminator 1
  71 001e A560     		str	r5, [r4, #8]
  72              		.loc 1 85 0 discriminator 1
  73 0020 38BD     		pop	{r3, r4, r5, pc}
  74              	.L6:
  75 0022 00BF     		.align	2
  76              	.L5:
  77 0024 00000000 		.word	.LC0
  78              		.cfi_endproc
  79              	.LFE7:
  80              		.size	chSemInit, .-chSemInit
  81 0028 AFF30080 		.section	.text.chSemResetI,"ax",%progbits
  81      AFF30080 
  82              		.align	2
  83              		.p2align 4,,15
  84              		.global	chSemResetI
  85              		.thumb
  86              		.thumb_func
  87              		.type	chSemResetI, %function
  88              	chSemResetI:
  89              	.LFB9:
  90              		.loc 1 129 0
  91              		.cfi_startproc
  92              		@ args = 0, pretend = 0, frame = 0
  93              		@ frame_needed = 0, uses_anonymous_args = 0
  94              	.LVL3:
  95 0000 F8B5     		push	{r3, r4, r5, r6, r7, lr}
  96              	.LCFI1:
  97              		.cfi_def_cfa_offset 24
  98              		.loc 1 129 0
  99 0002 0446     		mov	r4, r0
 100              		.cfi_offset 14, -4
 101              		.cfi_offset 7, -8
 102              		.cfi_offset 6, -12
 103              		.cfi_offset 5, -16
 104              		.cfi_offset 4, -20
 105              		.cfi_offset 3, -24
 106 0004 0E46     		mov	r6, r1
 107              		.loc 1 132 0
 108 0006 FFF7FEFF 		bl	chDbgCheckClassI
 109              	.LVL4:
ARM GAS  C:\Users\DNIEL~1\AppData\Local\Temp\cctsnRq7.s 			page 3


 110              		.loc 1 133 0
 111 000a 002C     		cmp	r4, #0
 112 000c 3FD0     		beq	.L8
 113              		.loc 1 133 0 is_stmt 0 discriminator 2
 114 000e 002E     		cmp	r6, #0
 115 0010 3DDB     		blt	.L8
 116              	.L9:
 117              		.loc 1 134 0 is_stmt 1
 118 0012 A568     		ldr	r5, [r4, #8]
 119 0014 002D     		cmp	r5, #0
 120 0016 36DB     		blt	.L10
 121              		.loc 1 134 0 is_stmt 0 discriminator 2
 122 0018 2368     		ldr	r3, [r4, #0]
 123 001a A342     		cmp	r3, r4
 124 001c 03D0     		beq	.L12
 125              	.L11:
 126              		.loc 1 134 0 discriminator 3
 127 001e 1F48     		ldr	r0, .L24
 128 0020 FFF7FEFF 		bl	chDbgPanic
 129 0024 A568     		ldr	r5, [r4, #8]
 130              	.L12:
 131              	.LVL5:
 132              		.loc 1 141 0 is_stmt 1
 133 0026 0135     		adds	r5, r5, #1
 134              	.LVL6:
 135 0028 002D     		cmp	r5, #0
 136              		.loc 1 140 0
 137 002a A660     		str	r6, [r4, #8]
 138              	.LVL7:
 139              		.loc 1 141 0
 140 002c 2ADC     		bgt	.L7
 141              	.LBB24:
 142              	.LBB29:
 143              		.file 2 "../../../ChibiOS/os/kernel/include/chinline.h"
 144              		.loc 2 60 0
 145 002e 6068     		ldr	r0, [r4, #4]
 146              	.LBE29:
 147              	.LBE24:
 148              		.loc 1 142 0
 149 0030 6FF00107 		mvn	r7, #1
 150              	.LBB34:
 151              	.LBB28:
 152              		.loc 2 62 0
 153 0034 4168     		ldr	r1, [r0, #4]
 154              	.LBE28:
 155              	.LBE34:
 156              		.loc 1 141 0
 157 0036 6E1C     		adds	r6, r5, #1
 158              	.LVL8:
 159              	.LBB35:
 160              	.LBB30:
 161              		.loc 2 62 0
 162 0038 6160     		str	r1, [r4, #4]
 163 003a 0C60     		str	r4, [r1, #0]
 164              	.LBE30:
 165              	.LBE35:
 166              		.loc 1 142 0
ARM GAS  C:\Users\DNIEL~1\AppData\Local\Temp\cctsnRq7.s 			page 4


 167 003c FFF7FEFF 		bl	chSchReadyI
 168              	.LVL9:
 169 0040 05F00103 		and	r3, r5, #1
 170              	.LVL10:
 171 0044 8762     		str	r7, [r0, #40]
 172              	.LVL11:
 173              		.loc 1 141 0
 174 0046 002D     		cmp	r5, #0
 175 0048 25D0     		beq	.L22
 176 004a 4BB1     		cbz	r3, .L15
 177              	.LBB36:
 178              	.LBB27:
 179              		.loc 2 60 0
 180 004c 6068     		ldr	r0, [r4, #4]
 181              	.LBE27:
 182              	.LBE36:
 183              		.loc 1 141 0
 184 004e 0136     		adds	r6, r6, #1
 185              	.LBB37:
 186              	.LBB31:
 187              		.loc 2 62 0
 188 0050 4168     		ldr	r1, [r0, #4]
 189 0052 6160     		str	r1, [r4, #4]
 190 0054 0C60     		str	r4, [r1, #0]
 191              	.LBE31:
 192              	.LBE37:
 193              		.loc 1 142 0
 194 0056 FFF7FEFF 		bl	chSchReadyI
 195              		.loc 1 141 0
 196 005a 012E     		cmp	r6, #1
 197              		.loc 1 142 0
 198 005c 8762     		str	r7, [r0, #40]
 199              		.loc 1 141 0
 200 005e 1BD0     		beq	.L23
 201              	.L15:
 202              	.LBB38:
 203              	.LBB26:
 204              		.loc 2 60 0
 205 0060 6068     		ldr	r0, [r4, #4]
 206              	.LBE26:
 207              	.LBE38:
 208              		.loc 1 141 0
 209 0062 751C     		adds	r5, r6, #1
 210              	.LBB39:
 211              	.LBB32:
 212              		.loc 2 62 0
 213 0064 4368     		ldr	r3, [r0, #4]
 214              	.LBE32:
 215              	.LBE39:
 216              		.loc 1 141 0
 217 0066 0236     		adds	r6, r6, #2
 218              	.LBB40:
 219              	.LBB25:
 220              		.loc 2 62 0
 221 0068 6360     		str	r3, [r4, #4]
 222 006a 1C60     		str	r4, [r3, #0]
 223              	.LBE25:
ARM GAS  C:\Users\DNIEL~1\AppData\Local\Temp\cctsnRq7.s 			page 5


 224              	.LBE40:
 225              		.loc 1 142 0
 226 006c FFF7FEFF 		bl	chSchReadyI
 227 0070 8762     		str	r7, [r0, #40]
 228              	.LBB41:
 229              	.LBB33:
 230              		.loc 2 60 0
 231 0072 6068     		ldr	r0, [r4, #4]
 232              		.loc 2 62 0
 233 0074 4268     		ldr	r2, [r0, #4]
 234 0076 6260     		str	r2, [r4, #4]
 235 0078 1460     		str	r4, [r2, #0]
 236              	.LBE33:
 237              	.LBE41:
 238              		.loc 1 142 0
 239 007a FFF7FEFF 		bl	chSchReadyI
 240 007e 8762     		str	r7, [r0, #40]
 241              		.loc 1 141 0
 242 0080 002D     		cmp	r5, #0
 243 0082 EDD1     		bne	.L15
 244              	.LVL12:
 245              	.L7:
 246 0084 F8BD     		pop	{r3, r4, r5, r6, r7, pc}
 247              	.LVL13:
 248              	.L10:
 249              		.loc 1 134 0 discriminator 4
 250 0086 2068     		ldr	r0, [r4, #0]
 251 0088 A042     		cmp	r0, r4
 252 008a CCD1     		bne	.L12
 253 008c C7E7     		b	.L11
 254              	.L8:
 255              		.loc 1 133 0 discriminator 1
 256 008e 0448     		ldr	r0, .L24+4
 257 0090 FFF7FEFF 		bl	chDbgPanic
 258 0094 BDE7     		b	.L9
 259              	.LVL14:
 260              	.L22:
 261 0096 F8BD     		pop	{r3, r4, r5, r6, r7, pc}
 262              	.L23:
 263 0098 F8BD     		pop	{r3, r4, r5, r6, r7, pc}
 264              	.L25:
 265 009a 00BF     		.align	2
 266              	.L24:
 267 009c 20000000 		.word	.LC2
 268 00a0 10000000 		.word	.LC1
 269              		.cfi_endproc
 270              	.LFE9:
 271              		.size	chSemResetI, .-chSemResetI
 272 00a4 AFF30080 		.section	.text.chSemReset,"ax",%progbits
 272      AFF30080 
 272      AFF30080 
 273              		.align	2
 274              		.p2align 4,,15
 275              		.global	chSemReset
 276              		.thumb
 277              		.thumb_func
 278              		.type	chSemReset, %function
ARM GAS  C:\Users\DNIEL~1\AppData\Local\Temp\cctsnRq7.s 			page 6


 279              	chSemReset:
 280              	.LFB8:
 281              		.loc 1 102 0
 282              		.cfi_startproc
 283              		@ args = 0, pretend = 0, frame = 0
 284              		@ frame_needed = 0, uses_anonymous_args = 0
 285              	.LVL15:
 286 0000 38B5     		push	{r3, r4, r5, lr}
 287              	.LCFI2:
 288              		.cfi_def_cfa_offset 16
 289              		.loc 1 102 0
 290 0002 0546     		mov	r5, r0
 291              		.cfi_offset 14, -4
 292              		.cfi_offset 5, -8
 293              		.cfi_offset 4, -12
 294              		.cfi_offset 3, -16
 295 0004 0C46     		mov	r4, r1
 296              	.LBB42:
 297              		.loc 1 104 0
 298 0006 2023     		movs	r3, #32
 299              	.LVL16:
 300              	@ 104 "../../../ChibiOS/os/kernel/src/chsem.c" 1
 301 0008 83F31188 		msr     BASEPRI, r3
 302              	@ 0 "" 2
 303              	.LVL17:
 304              		.thumb
 305              	.LBE42:
 306 000c FFF7FEFF 		bl	dbg_check_lock
 307              	.LVL18:
 308              		.loc 1 105 0
 309 0010 2846     		mov	r0, r5
 310 0012 2146     		mov	r1, r4
 311 0014 FFF7FEFF 		bl	chSemResetI
 312              		.loc 1 106 0
 313 0018 FFF7FEFF 		bl	chSchRescheduleS
 314              		.loc 1 107 0
 315 001c FFF7FEFF 		bl	dbg_check_unlock
 316              	.LBB43:
 317 0020 0023     		movs	r3, #0
 318              	.LVL19:
 319              	@ 107 "../../../ChibiOS/os/kernel/src/chsem.c" 1
 320 0022 83F31188 		msr     BASEPRI, r3
 321              	@ 0 "" 2
 322              	.LVL20:
 323              		.thumb
 324              	.LBE43:
 325              		.loc 1 108 0
 326 0026 38BD     		pop	{r3, r4, r5, pc}
 327              		.cfi_endproc
 328              	.LFE8:
 329              		.size	chSemReset, .-chSemReset
 330 0028 AFF30080 		.section	.text.chSemWaitS,"ax",%progbits
 330      AFF30080 
 331              		.align	2
 332              		.p2align 4,,15
 333              		.global	chSemWaitS
 334              		.thumb
ARM GAS  C:\Users\DNIEL~1\AppData\Local\Temp\cctsnRq7.s 			page 7


 335              		.thumb_func
 336              		.type	chSemWaitS, %function
 337              	chSemWaitS:
 338              	.LFB11:
 339              		.loc 1 178 0
 340              		.cfi_startproc
 341              		@ args = 0, pretend = 0, frame = 0
 342              		@ frame_needed = 0, uses_anonymous_args = 0
 343              	.LVL21:
 344 0000 38B5     		push	{r3, r4, r5, lr}
 345              	.LCFI3:
 346              		.cfi_def_cfa_offset 16
 347              		.loc 1 178 0
 348 0002 0446     		mov	r4, r0
 349              		.cfi_offset 14, -4
 350              		.cfi_offset 5, -8
 351              		.cfi_offset 4, -12
 352              		.cfi_offset 3, -16
 353              		.loc 1 180 0
 354 0004 FFF7FEFF 		bl	chDbgCheckClassS
 355              	.LVL22:
 356              		.loc 1 181 0
 357 0008 002C     		cmp	r4, #0
 358 000a 24D0     		beq	.L35
 359              	.L28:
 360              		.loc 1 182 0
 361 000c A368     		ldr	r3, [r4, #8]
 362 000e 002B     		cmp	r3, #0
 363 0010 0CDB     		blt	.L29
 364              		.loc 1 182 0 is_stmt 0 discriminator 2
 365 0012 2268     		ldr	r2, [r4, #0]
 366 0014 A242     		cmp	r2, r4
 367 0016 03D0     		beq	.L31
 368              	.L30:
 369              		.loc 1 182 0 discriminator 3
 370 0018 1148     		ldr	r0, .L37
 371 001a FFF7FEFF 		bl	chDbgPanic
 372 001e A368     		ldr	r3, [r4, #8]
 373              	.L31:
 374              		.loc 1 187 0 is_stmt 1
 375 0020 013B     		subs	r3, r3, #1
 376 0022 002B     		cmp	r3, #0
 377 0024 A360     		str	r3, [r4, #8]
 378 0026 08DB     		blt	.L36
 379              	.L33:
 380              		.loc 1 193 0
 381 0028 0020     		movs	r0, #0
 382              		.loc 1 194 0
 383 002a 38BD     		pop	{r3, r4, r5, pc}
 384              	.L29:
 385              		.loc 1 182 0 discriminator 4
 386 002c 2068     		ldr	r0, [r4, #0]
 387 002e A042     		cmp	r0, r4
 388 0030 F2D0     		beq	.L30
 389              		.loc 1 187 0
 390 0032 013B     		subs	r3, r3, #1
 391 0034 002B     		cmp	r3, #0
ARM GAS  C:\Users\DNIEL~1\AppData\Local\Temp\cctsnRq7.s 			page 8


 392 0036 A360     		str	r3, [r4, #8]
 393 0038 F6DA     		bge	.L33
 394              	.L36:
 395              		.loc 1 188 0
 396 003a 0A4D     		ldr	r5, .L37+4
 397              		.loc 1 190 0
 398 003c 0320     		movs	r0, #3
 399              		.loc 1 188 0
 400 003e AB69     		ldr	r3, [r5, #24]
 401 0040 9C62     		str	r4, [r3, #40]
 402              	.LVL23:
 403              	.LBB44:
 404              	.LBB45:
 405              		.loc 2 48 0
 406 0042 6268     		ldr	r2, [r4, #4]
 407              		.loc 2 47 0
 408 0044 1C60     		str	r4, [r3, #0]
 409              		.loc 2 48 0
 410 0046 5A60     		str	r2, [r3, #4]
 411              		.loc 2 49 0
 412 0048 6360     		str	r3, [r4, #4]
 413 004a 1360     		str	r3, [r2, #0]
 414              	.LBE45:
 415              	.LBE44:
 416              		.loc 1 190 0
 417 004c FFF7FEFF 		bl	chSchGoSleepS
 418              	.LVL24:
 419              		.loc 1 191 0
 420 0050 A969     		ldr	r1, [r5, #24]
 421 0052 886A     		ldr	r0, [r1, #40]
 422 0054 38BD     		pop	{r3, r4, r5, pc}
 423              	.LVL25:
 424              	.L35:
 425              		.loc 1 181 0 discriminator 1
 426 0056 0448     		ldr	r0, .L37+8
 427 0058 FFF7FEFF 		bl	chDbgPanic
 428 005c D6E7     		b	.L28
 429              	.L38:
 430 005e 00BF     		.align	2
 431              	.L37:
 432 0060 44000000 		.word	.LC4
 433 0064 00000000 		.word	rlist
 434 0068 34000000 		.word	.LC3
 435              		.cfi_endproc
 436              	.LFE11:
 437              		.size	chSemWaitS, .-chSemWaitS
 438 006c AFF30080 		.section	.text.chSemWait,"ax",%progbits
 439              		.align	2
 440              		.p2align 4,,15
 441              		.global	chSemWait
 442              		.thumb
 443              		.thumb_func
 444              		.type	chSemWait, %function
 445              	chSemWait:
 446              	.LFB10:
 447              		.loc 1 157 0
 448              		.cfi_startproc
ARM GAS  C:\Users\DNIEL~1\AppData\Local\Temp\cctsnRq7.s 			page 9


 449              		@ args = 0, pretend = 0, frame = 0
 450              		@ frame_needed = 0, uses_anonymous_args = 0
 451              	.LVL26:
 452 0000 10B5     		push	{r4, lr}
 453              	.LCFI4:
 454              		.cfi_def_cfa_offset 8
 455              	.LBB46:
 456              		.loc 1 160 0
 457 0002 2023     		movs	r3, #32
 458              	.LVL27:
 459              	.LBE46:
 460              		.loc 1 157 0
 461 0004 0446     		mov	r4, r0
 462              		.cfi_offset 14, -4
 463              		.cfi_offset 4, -8
 464              	.LBB47:
 465              		.loc 1 160 0
 466              	@ 160 "../../../ChibiOS/os/kernel/src/chsem.c" 1
 467 0006 83F31188 		msr     BASEPRI, r3
 468              	@ 0 "" 2
 469              	.LVL28:
 470              		.thumb
 471              	.LBE47:
 472 000a FFF7FEFF 		bl	dbg_check_lock
 473              	.LVL29:
 474              		.loc 1 161 0
 475 000e 2046     		mov	r0, r4
 476 0010 FFF7FEFF 		bl	chSemWaitS
 477 0014 0446     		mov	r4, r0
 478              	.LVL30:
 479              		.loc 1 162 0
 480 0016 FFF7FEFF 		bl	dbg_check_unlock
 481              	.LVL31:
 482              	.LBB48:
 483 001a 0023     		movs	r3, #0
 484              	.LVL32:
 485              	@ 162 "../../../ChibiOS/os/kernel/src/chsem.c" 1
 486 001c 83F31188 		msr     BASEPRI, r3
 487              	@ 0 "" 2
 488              	.LVL33:
 489              		.thumb
 490              	.LBE48:
 491              		.loc 1 164 0
 492 0020 2046     		mov	r0, r4
 493 0022 10BD     		pop	{r4, pc}
 494              		.cfi_endproc
 495              	.LFE10:
 496              		.size	chSemWait, .-chSemWait
 497 0024 AFF30080 		.section	.text.chSemWaitTimeoutS,"ax",%progbits
 497      AFF30080 
 497      AFF30080 
 498              		.align	2
 499              		.p2align 4,,15
 500              		.global	chSemWaitTimeoutS
 501              		.thumb
 502              		.thumb_func
 503              		.type	chSemWaitTimeoutS, %function
ARM GAS  C:\Users\DNIEL~1\AppData\Local\Temp\cctsnRq7.s 			page 10


 504              	chSemWaitTimeoutS:
 505              	.LFB13:
 506              		.loc 1 243 0
 507              		.cfi_startproc
 508              		@ args = 0, pretend = 0, frame = 0
 509              		@ frame_needed = 0, uses_anonymous_args = 0
 510              	.LVL34:
 511 0000 70B5     		push	{r4, r5, r6, lr}
 512              	.LCFI5:
 513              		.cfi_def_cfa_offset 16
 514              		.loc 1 243 0
 515 0002 0446     		mov	r4, r0
 516              		.cfi_offset 14, -4
 517              		.cfi_offset 6, -8
 518              		.cfi_offset 5, -12
 519              		.cfi_offset 4, -16
 520 0004 0D46     		mov	r5, r1
 521              		.loc 1 245 0
 522 0006 FFF7FEFF 		bl	chDbgCheckClassS
 523              	.LVL35:
 524              		.loc 1 246 0
 525 000a 002C     		cmp	r4, #0
 526 000c 25D0     		beq	.L49
 527              	.L41:
 528              		.loc 1 247 0
 529 000e A368     		ldr	r3, [r4, #8]
 530 0010 002B     		cmp	r3, #0
 531 0012 0CDB     		blt	.L42
 532              		.loc 1 247 0 is_stmt 0 discriminator 2
 533 0014 2268     		ldr	r2, [r4, #0]
 534 0016 A242     		cmp	r2, r4
 535 0018 03D0     		beq	.L44
 536              	.L43:
 537              		.loc 1 247 0 discriminator 3
 538 001a 1448     		ldr	r0, .L52
 539 001c FFF7FEFF 		bl	chDbgPanic
 540 0020 A368     		ldr	r3, [r4, #8]
 541              	.L44:
 542              		.loc 1 252 0 is_stmt 1
 543 0022 591E     		subs	r1, r3, #1
 544 0024 0029     		cmp	r1, #0
 545 0026 A160     		str	r1, [r4, #8]
 546 0028 08DB     		blt	.L50
 547              	.L47:
 548              		.loc 1 261 0
 549 002a 0020     		movs	r0, #0
 550              		.loc 1 262 0
 551 002c 70BD     		pop	{r4, r5, r6, pc}
 552              	.L42:
 553              		.loc 1 247 0 discriminator 4
 554 002e 2068     		ldr	r0, [r4, #0]
 555 0030 A042     		cmp	r0, r4
 556 0032 F2D0     		beq	.L43
 557              		.loc 1 252 0
 558 0034 591E     		subs	r1, r3, #1
 559 0036 0029     		cmp	r1, #0
 560 0038 A160     		str	r1, [r4, #8]
ARM GAS  C:\Users\DNIEL~1\AppData\Local\Temp\cctsnRq7.s 			page 11


 561 003a F6DA     		bge	.L47
 562              	.L50:
 563              		.loc 1 253 0
 564 003c 8DB1     		cbz	r5, .L51
 565              		.loc 1 257 0
 566 003e 0C49     		ldr	r1, .L52+4
 567              		.loc 1 259 0
 568 0040 0320     		movs	r0, #3
 569              		.loc 1 257 0
 570 0042 8B69     		ldr	r3, [r1, #24]
 571              		.loc 1 259 0
 572 0044 2946     		mov	r1, r5
 573              		.loc 1 257 0
 574 0046 9C62     		str	r4, [r3, #40]
 575              	.LVL36:
 576              	.LBB49:
 577              	.LBB50:
 578              		.loc 2 48 0
 579 0048 6268     		ldr	r2, [r4, #4]
 580              		.loc 2 47 0
 581 004a 1C60     		str	r4, [r3, #0]
 582              		.loc 2 48 0
 583 004c 5A60     		str	r2, [r3, #4]
 584              		.loc 2 49 0
 585 004e 6360     		str	r3, [r4, #4]
 586 0050 1360     		str	r3, [r2, #0]
 587              	.LBE50:
 588              	.LBE49:
 589              		.loc 1 262 0
 590 0052 BDE87040 		pop	{r4, r5, r6, lr}
 591              		.loc 1 259 0
 592 0056 FFF7FEBF 		b	chSchGoSleepTimeoutS
 593              	.LVL37:
 594              	.L49:
 595              		.loc 1 246 0 discriminator 1
 596 005a 0648     		ldr	r0, .L52+8
 597 005c FFF7FEFF 		bl	chDbgPanic
 598 0060 D5E7     		b	.L41
 599              	.L51:
 600              		.loc 1 254 0
 601 0062 A360     		str	r3, [r4, #8]
 602              		.loc 1 255 0
 603 0064 4FF0FF30 		mov	r0, #-1
 604 0068 70BD     		pop	{r4, r5, r6, pc}
 605              	.L53:
 606 006a 00BF     		.align	2
 607              	.L52:
 608 006c 70000000 		.word	.LC6
 609 0070 00000000 		.word	rlist
 610 0074 58000000 		.word	.LC5
 611              		.cfi_endproc
 612              	.LFE13:
 613              		.size	chSemWaitTimeoutS, .-chSemWaitTimeoutS
 614 0078 AFF30080 		.section	.text.chSemWaitTimeout,"ax",%progbits
 614      AFF30080 
 615              		.align	2
 616              		.p2align 4,,15
ARM GAS  C:\Users\DNIEL~1\AppData\Local\Temp\cctsnRq7.s 			page 12


 617              		.global	chSemWaitTimeout
 618              		.thumb
 619              		.thumb_func
 620              		.type	chSemWaitTimeout, %function
 621              	chSemWaitTimeout:
 622              	.LFB12:
 623              		.loc 1 215 0
 624              		.cfi_startproc
 625              		@ args = 0, pretend = 0, frame = 0
 626              		@ frame_needed = 0, uses_anonymous_args = 0
 627              	.LVL38:
 628 0000 38B5     		push	{r3, r4, r5, lr}
 629              	.LCFI6:
 630              		.cfi_def_cfa_offset 16
 631              		.loc 1 215 0
 632 0002 0546     		mov	r5, r0
 633              		.cfi_offset 14, -4
 634              		.cfi_offset 5, -8
 635              		.cfi_offset 4, -12
 636              		.cfi_offset 3, -16
 637 0004 0C46     		mov	r4, r1
 638              	.LBB51:
 639              		.loc 1 218 0
 640 0006 2023     		movs	r3, #32
 641              	.LVL39:
 642              	@ 218 "../../../ChibiOS/os/kernel/src/chsem.c" 1
 643 0008 83F31188 		msr     BASEPRI, r3
 644              	@ 0 "" 2
 645              	.LVL40:
 646              		.thumb
 647              	.LBE51:
 648 000c FFF7FEFF 		bl	dbg_check_lock
 649              	.LVL41:
 650              		.loc 1 219 0
 651 0010 2146     		mov	r1, r4
 652 0012 2846     		mov	r0, r5
 653 0014 FFF7FEFF 		bl	chSemWaitTimeoutS
 654 0018 0446     		mov	r4, r0
 655              	.LVL42:
 656              		.loc 1 220 0
 657 001a FFF7FEFF 		bl	dbg_check_unlock
 658              	.LVL43:
 659              	.LBB52:
 660 001e 0023     		movs	r3, #0
 661              	.LVL44:
 662              	@ 220 "../../../ChibiOS/os/kernel/src/chsem.c" 1
 663 0020 83F31188 		msr     BASEPRI, r3
 664              	@ 0 "" 2
 665              	.LVL45:
 666              		.thumb
 667              	.LBE52:
 668              		.loc 1 222 0
 669 0024 2046     		mov	r0, r4
 670 0026 38BD     		pop	{r3, r4, r5, pc}
 671              		.cfi_endproc
 672              	.LFE12:
 673              		.size	chSemWaitTimeout, .-chSemWaitTimeout
ARM GAS  C:\Users\DNIEL~1\AppData\Local\Temp\cctsnRq7.s 			page 13


 674 0028 AFF30080 		.section	.text.chSemSignal,"ax",%progbits
 674      AFF30080 
 675              		.align	2
 676              		.p2align 4,,15
 677              		.global	chSemSignal
 678              		.thumb
 679              		.thumb_func
 680              		.type	chSemSignal, %function
 681              	chSemSignal:
 682              	.LFB14:
 683              		.loc 1 271 0
 684              		.cfi_startproc
 685              		@ args = 0, pretend = 0, frame = 0
 686              		@ frame_needed = 0, uses_anonymous_args = 0
 687              	.LVL46:
 688 0000 10B5     		push	{r4, lr}
 689              	.LCFI7:
 690              		.cfi_def_cfa_offset 8
 691              		.loc 1 273 0
 692 0002 0446     		mov	r4, r0
 693              		.cfi_offset 14, -4
 694              		.cfi_offset 4, -8
 695 0004 0028     		cmp	r0, #0
 696 0006 32D0     		beq	.L62
 697              	.LVL47:
 698              	.L56:
 699              		.loc 1 274 0
 700 0008 A368     		ldr	r3, [r4, #8]
 701 000a 002B     		cmp	r3, #0
 702 000c 15DB     		blt	.L57
 703              		.loc 1 274 0 is_stmt 0 discriminator 2
 704 000e 2068     		ldr	r0, [r4, #0]
 705 0010 A042     		cmp	r0, r4
 706 0012 02D0     		beq	.L59
 707              	.L58:
 708              		.loc 1 274 0 discriminator 3
 709 0014 1848     		ldr	r0, .L64
 710 0016 FFF7FEFF 		bl	chDbgPanic
 711              	.L59:
 712              	.LBB53:
 713              		.loc 1 279 0 is_stmt 1
 714 001a 2023     		movs	r3, #32
 715              	.LVL48:
 716              	@ 279 "../../../ChibiOS/os/kernel/src/chsem.c" 1
 717 001c 83F31188 		msr     BASEPRI, r3
 718              	@ 0 "" 2
 719              	.LVL49:
 720              		.thumb
 721              	.LBE53:
 722 0020 FFF7FEFF 		bl	dbg_check_lock
 723              	.LVL50:
 724              		.loc 1 280 0
 725 0024 A368     		ldr	r3, [r4, #8]
 726 0026 5A1C     		adds	r2, r3, #1
 727 0028 002A     		cmp	r2, #0
 728 002a A260     		str	r2, [r4, #8]
 729 002c 12DD     		ble	.L63
ARM GAS  C:\Users\DNIEL~1\AppData\Local\Temp\cctsnRq7.s 			page 14


 730              	.L60:
 731              		.loc 1 282 0
 732 002e FFF7FEFF 		bl	dbg_check_unlock
 733              	.LBB54:
 734 0032 0023     		movs	r3, #0
 735              	.LVL51:
 736              	@ 282 "../../../ChibiOS/os/kernel/src/chsem.c" 1
 737 0034 83F31188 		msr     BASEPRI, r3
 738              	@ 0 "" 2
 739              	.LVL52:
 740              		.thumb
 741              	.LBE54:
 742              		.loc 1 283 0
 743 0038 10BD     		pop	{r4, pc}
 744              	.LVL53:
 745              	.L57:
 746              		.loc 1 274 0 discriminator 4
 747 003a 2168     		ldr	r1, [r4, #0]
 748 003c A142     		cmp	r1, r4
 749 003e E9D0     		beq	.L58
 750              	.LBB55:
 751              		.loc 1 279 0
 752 0040 2023     		movs	r3, #32
 753              	@ 279 "../../../ChibiOS/os/kernel/src/chsem.c" 1
 754 0042 83F31188 		msr     BASEPRI, r3
 755              	@ 0 "" 2
 756              	.LVL54:
 757              		.thumb
 758              	.LBE55:
 759 0046 FFF7FEFF 		bl	dbg_check_lock
 760              	.LVL55:
 761              		.loc 1 280 0
 762 004a A368     		ldr	r3, [r4, #8]
 763 004c 5A1C     		adds	r2, r3, #1
 764 004e 002A     		cmp	r2, #0
 765 0050 A260     		str	r2, [r4, #8]
 766 0052 ECDC     		bgt	.L60
 767              	.L63:
 768              	.LVL56:
 769              	.LBB56:
 770              	.LBB57:
 771              		.loc 2 53 0
 772 0054 2068     		ldr	r0, [r4, #0]
 773              	.LVL57:
 774              	.LBE57:
 775              	.LBE56:
 776              		.loc 1 281 0
 777 0056 0021     		movs	r1, #0
 778              	.LBB59:
 779              	.LBB58:
 780              		.loc 2 55 0
 781 0058 0268     		ldr	r2, [r0, #0]
 782 005a 2260     		str	r2, [r4, #0]
 783 005c 5460     		str	r4, [r2, #4]
 784              	.LBE58:
 785              	.LBE59:
 786              		.loc 1 281 0
ARM GAS  C:\Users\DNIEL~1\AppData\Local\Temp\cctsnRq7.s 			page 15


 787 005e FFF7FEFF 		bl	chSchWakeupS
 788              	.LVL58:
 789              		.loc 1 282 0
 790 0062 FFF7FEFF 		bl	dbg_check_unlock
 791              	.LBB60:
 792 0066 0023     		movs	r3, #0
 793              	@ 282 "../../../ChibiOS/os/kernel/src/chsem.c" 1
 794 0068 83F31188 		msr     BASEPRI, r3
 795              	@ 0 "" 2
 796              	.LVL59:
 797              		.thumb
 798              	.LBE60:
 799              		.loc 1 283 0
 800 006c 10BD     		pop	{r4, pc}
 801              	.LVL60:
 802              	.L62:
 803              		.loc 1 273 0 discriminator 1
 804 006e 0348     		ldr	r0, .L64+4
 805 0070 FFF7FEFF 		bl	chDbgPanic
 806 0074 C8E7     		b	.L56
 807              	.L65:
 808 0076 00BF     		.align	2
 809              	.L64:
 810 0078 98000000 		.word	.LC8
 811 007c 88000000 		.word	.LC7
 812              		.cfi_endproc
 813              	.LFE14:
 814              		.size	chSemSignal, .-chSemSignal
 815              		.section	.text.chSemSignalI,"ax",%progbits
 816              		.align	2
 817              		.p2align 4,,15
 818              		.global	chSemSignalI
 819              		.thumb
 820              		.thumb_func
 821              		.type	chSemSignalI, %function
 822              	chSemSignalI:
 823              	.LFB15:
 824              		.loc 1 296 0
 825              		.cfi_startproc
 826              		@ args = 0, pretend = 0, frame = 0
 827              		@ frame_needed = 0, uses_anonymous_args = 0
 828              	.LVL61:
 829 0000 10B5     		push	{r4, lr}
 830              	.LCFI8:
 831              		.cfi_def_cfa_offset 8
 832              		.loc 1 296 0
 833 0002 0446     		mov	r4, r0
 834              		.cfi_offset 14, -4
 835              		.cfi_offset 4, -8
 836              		.loc 1 298 0
 837 0004 FFF7FEFF 		bl	chDbgCheckClassI
 838              	.LVL62:
 839              		.loc 1 299 0
 840 0008 002C     		cmp	r4, #0
 841 000a 20D0     		beq	.L73
 842              	.L67:
 843              		.loc 1 300 0
ARM GAS  C:\Users\DNIEL~1\AppData\Local\Temp\cctsnRq7.s 			page 16


 844 000c A368     		ldr	r3, [r4, #8]
 845 000e 002B     		cmp	r3, #0
 846 0010 0BDB     		blt	.L68
 847              		.loc 1 300 0 is_stmt 0 discriminator 2
 848 0012 2268     		ldr	r2, [r4, #0]
 849 0014 A242     		cmp	r2, r4
 850 0016 03D0     		beq	.L70
 851              	.L69:
 852              		.loc 1 300 0 discriminator 3
 853 0018 0F48     		ldr	r0, .L75
 854 001a FFF7FEFF 		bl	chDbgPanic
 855 001e A368     		ldr	r3, [r4, #8]
 856              	.L70:
 857              		.loc 1 305 0 is_stmt 1
 858 0020 0133     		adds	r3, r3, #1
 859 0022 002B     		cmp	r3, #0
 860 0024 A360     		str	r3, [r4, #8]
 861 0026 07DD     		ble	.L74
 862              	.L66:
 863 0028 10BD     		pop	{r4, pc}
 864              	.L68:
 865              		.loc 1 300 0 discriminator 4
 866 002a 2068     		ldr	r0, [r4, #0]
 867 002c A042     		cmp	r0, r4
 868 002e F3D0     		beq	.L69
 869              		.loc 1 305 0
 870 0030 0133     		adds	r3, r3, #1
 871 0032 002B     		cmp	r3, #0
 872 0034 A360     		str	r3, [r4, #8]
 873 0036 F7DC     		bgt	.L66
 874              	.L74:
 875              	.LVL63:
 876              	.LBB61:
 877              	.LBB64:
 878              	.LBB66:
 879              		.loc 2 53 0
 880 0038 2368     		ldr	r3, [r4, #0]
 881              	.LVL64:
 882              	.LBE66:
 883              	.LBE64:
 884              		.loc 1 309 0
 885 003a 0021     		movs	r1, #0
 886              	.LBB63:
 887              	.LBB65:
 888              		.loc 2 55 0
 889 003c 1A68     		ldr	r2, [r3, #0]
 890              	.LBE65:
 891              	.LBE63:
 892              		.loc 1 310 0
 893 003e 1846     		mov	r0, r3
 894              	.LBB62:
 895              	.LBB67:
 896              		.loc 2 55 0
 897 0040 2260     		str	r2, [r4, #0]
 898 0042 5460     		str	r4, [r2, #4]
 899              	.LBE67:
 900              	.LBE62:
ARM GAS  C:\Users\DNIEL~1\AppData\Local\Temp\cctsnRq7.s 			page 17


 901              		.loc 1 309 0
 902 0044 9962     		str	r1, [r3, #40]
 903              	.LBE61:
 904              		.loc 1 312 0
 905 0046 BDE81040 		pop	{r4, lr}
 906              	.LBB68:
 907              		.loc 1 310 0
 908 004a FFF7FEBF 		b	chSchReadyI
 909              	.LVL65:
 910              	.L73:
 911              	.LBE68:
 912              		.loc 1 299 0 discriminator 1
 913 004e 0348     		ldr	r0, .L75+4
 914 0050 FFF7FEFF 		bl	chDbgPanic
 915 0054 DAE7     		b	.L67
 916              	.L76:
 917 0056 00BF     		.align	2
 918              	.L75:
 919 0058 C0000000 		.word	.LC10
 920 005c AC000000 		.word	.LC9
 921              		.cfi_endproc
 922              	.LFE15:
 923              		.size	chSemSignalI, .-chSemSignalI
 924              		.section	.text.chSemAddCounterI,"ax",%progbits
 925              		.align	2
 926              		.p2align 4,,15
 927              		.global	chSemAddCounterI
 928              		.thumb
 929              		.thumb_func
 930              		.type	chSemAddCounterI, %function
 931              	chSemAddCounterI:
 932              	.LFB16:
 933              		.loc 1 327 0
 934              		.cfi_startproc
 935              		@ args = 0, pretend = 0, frame = 0
 936              		@ frame_needed = 0, uses_anonymous_args = 0
 937              	.LVL66:
 938 0000 F8B5     		push	{r3, r4, r5, r6, r7, lr}
 939              	.LCFI9:
 940              		.cfi_def_cfa_offset 24
 941              		.loc 1 327 0
 942 0002 0446     		mov	r4, r0
 943              		.cfi_offset 14, -4
 944              		.cfi_offset 7, -8
 945              		.cfi_offset 6, -12
 946              		.cfi_offset 5, -16
 947              		.cfi_offset 4, -20
 948              		.cfi_offset 3, -24
 949 0004 0D46     		mov	r5, r1
 950              		.loc 1 329 0
 951 0006 FFF7FEFF 		bl	chDbgCheckClassI
 952              	.LVL67:
 953              		.loc 1 330 0
 954 000a 002C     		cmp	r4, #0
 955 000c 48D0     		beq	.L78
 956              		.loc 1 330 0 is_stmt 0 discriminator 2
 957 000e 002D     		cmp	r5, #0
ARM GAS  C:\Users\DNIEL~1\AppData\Local\Temp\cctsnRq7.s 			page 18


 958 0010 46DD     		ble	.L78
 959              	.L79:
 960              		.loc 1 331 0 is_stmt 1
 961 0012 A368     		ldr	r3, [r4, #8]
 962 0014 002B     		cmp	r3, #0
 963 0016 3FDB     		blt	.L80
 964              		.loc 1 331 0 is_stmt 0 discriminator 2
 965 0018 2068     		ldr	r0, [r4, #0]
 966 001a A042     		cmp	r0, r4
 967 001c 02D0     		beq	.L82
 968              	.L81:
 969              		.loc 1 331 0 discriminator 3
 970 001e 2B48     		ldr	r0, .L104
 971 0020 FFF7FEFF 		bl	chDbgPanic
 972              	.L82:
 973              		.loc 1 336 0 is_stmt 1 discriminator 1
 974 0024 002D     		cmp	r5, #0
 975 0026 36DD     		ble	.L77
 976              		.loc 1 337 0
 977 0028 A668     		ldr	r6, [r4, #8]
 978 002a 6F1E     		subs	r7, r5, #1
 979 002c 721C     		adds	r2, r6, #1
 980              		.loc 1 338 0
 981 002e 0026     		movs	r6, #0
 982              		.loc 1 337 0
 983 0030 B242     		cmp	r2, r6
 984 0032 A260     		str	r2, [r4, #8]
 985 0034 07F00107 		and	r7, r7, #1
 986 0038 36DD     		ble	.L98
 987              	.L88:
 988              	.LVL68:
 989              		.loc 1 336 0
 990 003a 013D     		subs	r5, r5, #1
 991 003c 2BD0     		beq	.L77
 992 003e 77B1     		cbz	r7, .L86
 993              		.loc 1 337 0
 994 0040 A268     		ldr	r2, [r4, #8]
 995 0042 501C     		adds	r0, r2, #1
 996 0044 0028     		cmp	r0, #0
 997 0046 A060     		str	r0, [r4, #8]
 998 0048 36DD     		ble	.L99
 999              	.L90:
 1000              		.loc 1 336 0
 1001 004a 013D     		subs	r5, r5, #1
 1002 004c 07D1     		bne	.L86
 1003 004e 3BE0     		b	.L103
 1004              	.L84:
 1005              		.loc 1 337 0
 1006 0050 A368     		ldr	r3, [r4, #8]
 1007 0052 5A1C     		adds	r2, r3, #1
 1008 0054 002A     		cmp	r2, #0
 1009 0056 A260     		str	r2, [r4, #8]
 1010 0058 13DD     		ble	.L101
 1011              	.L93:
 1012              		.loc 1 336 0
 1013 005a 013D     		subs	r5, r5, #1
 1014 005c 1AD0     		beq	.L102
ARM GAS  C:\Users\DNIEL~1\AppData\Local\Temp\cctsnRq7.s 			page 19


 1015              	.L86:
 1016              		.loc 1 337 0
 1017 005e A068     		ldr	r0, [r4, #8]
 1018              		.loc 1 339 0
 1019 0060 013D     		subs	r5, r5, #1
 1020              		.loc 1 337 0
 1021 0062 431C     		adds	r3, r0, #1
 1022 0064 002B     		cmp	r3, #0
 1023 0066 A360     		str	r3, [r4, #8]
 1024 0068 F2DC     		bgt	.L84
 1025              	.LVL69:
 1026              	.LBB69:
 1027              	.LBB71:
 1028              		.loc 2 53 0
 1029 006a 2068     		ldr	r0, [r4, #0]
 1030              	.LVL70:
 1031              		.loc 2 55 0
 1032 006c 0168     		ldr	r1, [r0, #0]
 1033 006e 2160     		str	r1, [r4, #0]
 1034 0070 4C60     		str	r4, [r1, #4]
 1035              	.LBE71:
 1036              	.LBE69:
 1037              		.loc 1 338 0
 1038 0072 FFF7FEFF 		bl	chSchReadyI
 1039              	.LVL71:
 1040 0076 8662     		str	r6, [r0, #40]
 1041              		.loc 1 337 0
 1042 0078 A368     		ldr	r3, [r4, #8]
 1043 007a 5A1C     		adds	r2, r3, #1
 1044 007c 002A     		cmp	r2, #0
 1045 007e A260     		str	r2, [r4, #8]
 1046 0080 EBDC     		bgt	.L93
 1047              	.LVL72:
 1048              	.L101:
 1049              	.LBB74:
 1050              	.LBB72:
 1051              		.loc 2 53 0
 1052 0082 2068     		ldr	r0, [r4, #0]
 1053              		.loc 2 55 0
 1054 0084 0168     		ldr	r1, [r0, #0]
 1055 0086 2160     		str	r1, [r4, #0]
 1056 0088 4C60     		str	r4, [r1, #4]
 1057              	.LBE72:
 1058              	.LBE74:
 1059              		.loc 1 338 0
 1060 008a FFF7FEFF 		bl	chSchReadyI
 1061              		.loc 1 336 0
 1062 008e 013D     		subs	r5, r5, #1
 1063              		.loc 1 338 0
 1064 0090 8662     		str	r6, [r0, #40]
 1065              		.loc 1 336 0
 1066 0092 E4D1     		bne	.L86
 1067              	.LVL73:
 1068              	.L102:
 1069 0094 F8BD     		pop	{r3, r4, r5, r6, r7, pc}
 1070              	.L77:
 1071 0096 F8BD     		pop	{r3, r4, r5, r6, r7, pc}
ARM GAS  C:\Users\DNIEL~1\AppData\Local\Temp\cctsnRq7.s 			page 20


 1072              	.LVL74:
 1073              	.L80:
 1074              		.loc 1 331 0 discriminator 4
 1075 0098 2168     		ldr	r1, [r4, #0]
 1076 009a A142     		cmp	r1, r4
 1077 009c C2D1     		bne	.L82
 1078 009e BEE7     		b	.L81
 1079              	.L78:
 1080              		.loc 1 330 0 discriminator 1
 1081 00a0 0B48     		ldr	r0, .L104+4
 1082 00a2 FFF7FEFF 		bl	chDbgPanic
 1083 00a6 B4E7     		b	.L79
 1084              	.L98:
 1085              	.LVL75:
 1086              	.LBB75:
 1087              	.LBB70:
 1088              		.loc 2 53 0
 1089 00a8 2068     		ldr	r0, [r4, #0]
 1090              		.loc 2 55 0
 1091 00aa 0168     		ldr	r1, [r0, #0]
 1092 00ac 2160     		str	r1, [r4, #0]
 1093 00ae 4C60     		str	r4, [r1, #4]
 1094              	.LBE70:
 1095              	.LBE75:
 1096              		.loc 1 338 0
 1097 00b0 FFF7FEFF 		bl	chSchReadyI
 1098 00b4 8662     		str	r6, [r0, #40]
 1099 00b6 C0E7     		b	.L88
 1100              	.LVL76:
 1101              	.L99:
 1102              	.LBB76:
 1103              	.LBB73:
 1104              		.loc 2 53 0
 1105 00b8 2068     		ldr	r0, [r4, #0]
 1106              		.loc 2 55 0
 1107 00ba 0368     		ldr	r3, [r0, #0]
 1108 00bc 2360     		str	r3, [r4, #0]
 1109 00be 5C60     		str	r4, [r3, #4]
 1110              	.LBE73:
 1111              	.LBE76:
 1112              		.loc 1 338 0
 1113 00c0 FFF7FEFF 		bl	chSchReadyI
 1114 00c4 8662     		str	r6, [r0, #40]
 1115 00c6 C0E7     		b	.L90
 1116              	.LVL77:
 1117              	.L103:
 1118 00c8 F8BD     		pop	{r3, r4, r5, r6, r7, pc}
 1119              	.L105:
 1120 00ca 00BF     		.align	2
 1121              	.L104:
 1122 00cc EC000000 		.word	.LC12
 1123 00d0 D4000000 		.word	.LC11
 1124              		.cfi_endproc
 1125              	.LFE16:
 1126              		.size	chSemAddCounterI, .-chSemAddCounterI
 1127 00d4 AFF30080 		.section	.text.chSemSignalWait,"ax",%progbits
 1127      AFF30080 
ARM GAS  C:\Users\DNIEL~1\AppData\Local\Temp\cctsnRq7.s 			page 21


 1127      AFF30080 
 1128              		.align	2
 1129              		.p2align 4,,15
 1130              		.global	chSemSignalWait
 1131              		.thumb
 1132              		.thumb_func
 1133              		.type	chSemSignalWait, %function
 1134              	chSemSignalWait:
 1135              	.LFB17:
 1136              		.loc 1 359 0
 1137              		.cfi_startproc
 1138              		@ args = 0, pretend = 0, frame = 0
 1139              		@ frame_needed = 0, uses_anonymous_args = 0
 1140              	.LVL78:
 1141 0000 38B5     		push	{r3, r4, r5, lr}
 1142              	.LCFI10:
 1143              		.cfi_def_cfa_offset 16
 1144              		.loc 1 362 0
 1145 0002 0446     		mov	r4, r0
 1146              		.cfi_offset 14, -4
 1147              		.cfi_offset 5, -8
 1148              		.cfi_offset 4, -12
 1149              		.cfi_offset 3, -16
 1150              		.loc 1 359 0
 1151 0004 0D46     		mov	r5, r1
 1152              		.loc 1 362 0
 1153 0006 0028     		cmp	r0, #0
 1154 0008 5FD0     		beq	.L107
 1155              		.loc 1 362 0 is_stmt 0 discriminator 2
 1156 000a 0029     		cmp	r1, #0
 1157 000c 5DD0     		beq	.L107
 1158              	.LVL79:
 1159              	.L108:
 1160              		.loc 1 363 0 is_stmt 1
 1161 000e A368     		ldr	r3, [r4, #8]
 1162 0010 002B     		cmp	r3, #0
 1163 0012 27DB     		blt	.L109
 1164              		.loc 1 363 0 is_stmt 0 discriminator 2
 1165 0014 2068     		ldr	r0, [r4, #0]
 1166 0016 A042     		cmp	r0, r4
 1167 0018 02D0     		beq	.L111
 1168              	.L110:
 1169              		.loc 1 363 0 discriminator 3
 1170 001a 2E48     		ldr	r0, .L123
 1171 001c FFF7FEFF 		bl	chDbgPanic
 1172              	.L111:
 1173              		.loc 1 367 0 is_stmt 1
 1174 0020 AA68     		ldr	r2, [r5, #8]
 1175 0022 002A     		cmp	r2, #0
 1176 0024 24DB     		blt	.L112
 1177              	.L122:
 1178              		.loc 1 367 0 is_stmt 0 discriminator 2
 1179 0026 2B68     		ldr	r3, [r5, #0]
 1180 0028 AB42     		cmp	r3, r5
 1181 002a 02D0     		beq	.L114
 1182              	.L113:
 1183              		.loc 1 367 0 discriminator 3
ARM GAS  C:\Users\DNIEL~1\AppData\Local\Temp\cctsnRq7.s 			page 22


 1184 002c 2A48     		ldr	r0, .L123+4
 1185 002e FFF7FEFF 		bl	chDbgPanic
 1186              	.L114:
 1187              	.LBB77:
 1188              		.loc 1 372 0 is_stmt 1
 1189 0032 2023     		movs	r3, #32
 1190              	.LVL80:
 1191              	@ 372 "../../../ChibiOS/os/kernel/src/chsem.c" 1
 1192 0034 83F31188 		msr     BASEPRI, r3
 1193              	@ 0 "" 2
 1194              	.LVL81:
 1195              		.thumb
 1196              	.LBE77:
 1197 0038 FFF7FEFF 		bl	dbg_check_lock
 1198              	.LVL82:
 1199              		.loc 1 373 0
 1200 003c A268     		ldr	r2, [r4, #8]
 1201 003e 511C     		adds	r1, r2, #1
 1202 0040 0029     		cmp	r1, #0
 1203 0042 A160     		str	r1, [r4, #8]
 1204 0044 21DD     		ble	.L120
 1205              	.L115:
 1206              		.loc 1 375 0
 1207 0046 A968     		ldr	r1, [r5, #8]
 1208 0048 481E     		subs	r0, r1, #1
 1209 004a 0028     		cmp	r0, #0
 1210 004c A860     		str	r0, [r5, #8]
 1211 004e 29DB     		blt	.L121
 1212              	.LVL83:
 1213              	.L116:
 1214              		.loc 1 383 0
 1215 0050 FFF7FEFF 		bl	chSchRescheduleS
 1216              	.LVL84:
 1217              		.loc 1 384 0
 1218 0054 0024     		movs	r4, #0
 1219              	.LVL85:
 1220              		.loc 1 386 0
 1221 0056 FFF7FEFF 		bl	dbg_check_unlock
 1222              	.LBB78:
 1223 005a 0023     		movs	r3, #0
 1224              	.LVL86:
 1225              	@ 386 "../../../ChibiOS/os/kernel/src/chsem.c" 1
 1226 005c 83F31188 		msr     BASEPRI, r3
 1227              	@ 0 "" 2
 1228              	.LVL87:
 1229              		.thumb
 1230              	.LBE78:
 1231              		.loc 1 388 0
 1232 0060 2046     		mov	r0, r4
 1233 0062 38BD     		pop	{r3, r4, r5, pc}
 1234              	.LVL88:
 1235              	.L109:
 1236              		.loc 1 363 0 discriminator 4
 1237 0064 2168     		ldr	r1, [r4, #0]
 1238 0066 A142     		cmp	r1, r4
 1239 0068 D7D0     		beq	.L110
 1240              		.loc 1 367 0
ARM GAS  C:\Users\DNIEL~1\AppData\Local\Temp\cctsnRq7.s 			page 23


 1241 006a AA68     		ldr	r2, [r5, #8]
 1242 006c 002A     		cmp	r2, #0
 1243 006e DADA     		bge	.L122
 1244              	.L112:
 1245              		.loc 1 367 0 is_stmt 0 discriminator 4
 1246 0070 2868     		ldr	r0, [r5, #0]
 1247 0072 A842     		cmp	r0, r5
 1248 0074 DAD0     		beq	.L113
 1249              	.LBB79:
 1250              		.loc 1 372 0 is_stmt 1
 1251 0076 2023     		movs	r3, #32
 1252              	@ 372 "../../../ChibiOS/os/kernel/src/chsem.c" 1
 1253 0078 83F31188 		msr     BASEPRI, r3
 1254              	@ 0 "" 2
 1255              	.LVL89:
 1256              		.thumb
 1257              	.LBE79:
 1258 007c FFF7FEFF 		bl	dbg_check_lock
 1259              	.LVL90:
 1260              		.loc 1 373 0
 1261 0080 A268     		ldr	r2, [r4, #8]
 1262 0082 511C     		adds	r1, r2, #1
 1263 0084 0029     		cmp	r1, #0
 1264 0086 A160     		str	r1, [r4, #8]
 1265 0088 DDDC     		bgt	.L115
 1266              	.L120:
 1267              	.LVL91:
 1268              	.LBB80:
 1269              	.LBB81:
 1270              		.loc 2 53 0
 1271 008a 2068     		ldr	r0, [r4, #0]
 1272              	.LVL92:
 1273              		.loc 2 55 0
 1274 008c 0368     		ldr	r3, [r0, #0]
 1275 008e 2360     		str	r3, [r4, #0]
 1276 0090 5C60     		str	r4, [r3, #4]
 1277              	.LBE81:
 1278              	.LBE80:
 1279              		.loc 1 374 0
 1280 0092 FFF7FEFF 		bl	chSchReadyI
 1281              	.LVL93:
 1282 0096 0024     		movs	r4, #0
 1283              	.LVL94:
 1284 0098 8462     		str	r4, [r0, #40]
 1285              		.loc 1 375 0
 1286 009a A968     		ldr	r1, [r5, #8]
 1287 009c 481E     		subs	r0, r1, #1
 1288 009e 0028     		cmp	r0, #0
 1289 00a0 A860     		str	r0, [r5, #8]
 1290 00a2 D5DA     		bge	.L116
 1291              	.L121:
 1292              	.LBB82:
 1293              		.loc 1 376 0
 1294 00a4 0D4A     		ldr	r2, .L123+8
 1295              	.LBB83:
 1296              	.LBB84:
 1297              		.loc 2 48 0
ARM GAS  C:\Users\DNIEL~1\AppData\Local\Temp\cctsnRq7.s 			page 24


 1298 00a6 6B68     		ldr	r3, [r5, #4]
 1299              	.LBE84:
 1300              	.LBE83:
 1301              		.loc 1 376 0
 1302 00a8 9469     		ldr	r4, [r2, #24]
 1303              	.LVL95:
 1304              		.loc 1 379 0
 1305 00aa 0320     		movs	r0, #3
 1306              	.LBB86:
 1307              	.LBB85:
 1308              		.loc 2 47 0
 1309 00ac 2560     		str	r5, [r4, #0]
 1310              		.loc 2 48 0
 1311 00ae 6360     		str	r3, [r4, #4]
 1312              		.loc 2 49 0
 1313 00b0 6C60     		str	r4, [r5, #4]
 1314 00b2 1C60     		str	r4, [r3, #0]
 1315              	.LBE85:
 1316              	.LBE86:
 1317              		.loc 1 378 0
 1318 00b4 A562     		str	r5, [r4, #40]
 1319              		.loc 1 379 0
 1320 00b6 FFF7FEFF 		bl	chSchGoSleepS
 1321              	.LVL96:
 1322              		.loc 1 380 0
 1323 00ba A46A     		ldr	r4, [r4, #40]
 1324              	.LVL97:
 1325              	.LBE82:
 1326              		.loc 1 386 0
 1327 00bc FFF7FEFF 		bl	dbg_check_unlock
 1328              	.LBB87:
 1329 00c0 0023     		movs	r3, #0
 1330              	@ 386 "../../../ChibiOS/os/kernel/src/chsem.c" 1
 1331 00c2 83F31188 		msr     BASEPRI, r3
 1332              	@ 0 "" 2
 1333              	.LVL98:
 1334              		.thumb
 1335              	.LBE87:
 1336              		.loc 1 388 0
 1337 00c6 2046     		mov	r0, r4
 1338 00c8 38BD     		pop	{r3, r4, r5, pc}
 1339              	.LVL99:
 1340              	.L107:
 1341              		.loc 1 362 0 discriminator 1
 1342 00ca 0548     		ldr	r0, .L123+12
 1343              	.LVL100:
 1344 00cc FFF7FEFF 		bl	chDbgPanic
 1345 00d0 9DE7     		b	.L108
 1346              	.L124:
 1347 00d2 00BF     		.align	2
 1348              	.L123:
 1349 00d4 18010000 		.word	.LC14
 1350 00d8 30010000 		.word	.LC15
 1351 00dc 00000000 		.word	rlist
 1352 00e0 04010000 		.word	.LC13
 1353              		.cfi_endproc
 1354              	.LFE17:
ARM GAS  C:\Users\DNIEL~1\AppData\Local\Temp\cctsnRq7.s 			page 25


 1355              		.size	chSemSignalWait, .-chSemSignalWait
 1356 00e4 AFF30080 		.section	.rodata.str1.4,"aMS",%progbits,1
 1356      AFF30080 
 1356      AFF30080 
 1357              		.align	2
 1358              	.LC0:
 1359 0000 22636853 		.ascii	"\"chSemInit\"()\000"
 1359      656D496E 
 1359      69742228 
 1359      2900
 1360 000e 0000     		.space	2
 1361              	.LC1:
 1362 0010 22636853 		.ascii	"\"chSemResetI\"()\000"
 1362      656D5265 
 1362      73657449 
 1362      22282900 
 1363              	.LC2:
 1364 0020 63685365 		.ascii	"chSemResetI(), #1\000"
 1364      6D526573 
 1364      65744928 
 1364      292C2023 
 1364      3100
 1365 0032 0000     		.space	2
 1366              	.LC3:
 1367 0034 22636853 		.ascii	"\"chSemWaitS\"()\000"
 1367      656D5761 
 1367      69745322 
 1367      282900
 1368 0043 00       		.space	1
 1369              	.LC4:
 1370 0044 63685365 		.ascii	"chSemWaitS(), #1\000"
 1370      6D576169 
 1370      74532829 
 1370      2C202331 
 1370      00
 1371 0055 000000   		.space	3
 1372              	.LC5:
 1373 0058 22636853 		.ascii	"\"chSemWaitTimeoutS\"()\000"
 1373      656D5761 
 1373      69745469 
 1373      6D656F75 
 1373      74532228 
 1374 006e 0000     		.space	2
 1375              	.LC6:
 1376 0070 63685365 		.ascii	"chSemWaitTimeoutS(), #1\000"
 1376      6D576169 
 1376      7454696D 
 1376      656F7574 
 1376      5328292C 
 1377              	.LC7:
 1378 0088 22636853 		.ascii	"\"chSemSignal\"()\000"
 1378      656D5369 
 1378      676E616C 
 1378      22282900 
 1379              	.LC8:
 1380 0098 63685365 		.ascii	"chSemSignal(), #1\000"
 1380      6D536967 
ARM GAS  C:\Users\DNIEL~1\AppData\Local\Temp\cctsnRq7.s 			page 26


 1380      6E616C28 
 1380      292C2023 
 1380      3100
 1381 00aa 0000     		.space	2
 1382              	.LC9:
 1383 00ac 22636853 		.ascii	"\"chSemSignalI\"()\000"
 1383      656D5369 
 1383      676E616C 
 1383      49222829 
 1383      00
 1384 00bd 000000   		.space	3
 1385              	.LC10:
 1386 00c0 63685365 		.ascii	"chSemSignalI(), #1\000"
 1386      6D536967 
 1386      6E616C49 
 1386      28292C20 
 1386      233100
 1387 00d3 00       		.space	1
 1388              	.LC11:
 1389 00d4 22636853 		.ascii	"\"chSemAddCounterI\"()\000"
 1389      656D4164 
 1389      64436F75 
 1389      6E746572 
 1389      49222829 
 1390 00e9 000000   		.space	3
 1391              	.LC12:
 1392 00ec 63685365 		.ascii	"chSemAddCounterI(), #1\000"
 1392      6D416464 
 1392      436F756E 
 1392      74657249 
 1392      28292C20 
 1393 0103 00       		.space	1
 1394              	.LC13:
 1395 0104 22636853 		.ascii	"\"chSemSignalWait\"()\000"
 1395      656D5369 
 1395      676E616C 
 1395      57616974 
 1395      22282900 
 1396              	.LC14:
 1397 0118 63685365 		.ascii	"chSemSignalWait(), #1\000"
 1397      6D536967 
 1397      6E616C57 
 1397      61697428 
 1397      292C2023 
 1398 012e 0000     		.space	2
 1399              	.LC15:
 1400 0130 63685365 		.ascii	"chSemSignalWait(), #2\000"
 1400      6D536967 
 1400      6E616C57 
 1400      61697428 
 1400      292C2023 
 1401 0146 0000     		.text
 1402              	.Letext0:
 1403              		.section	.debug_loc,"",%progbits
 1404              	.Ldebug_loc0:
 1405              	.LLST0:
 1406 0000 00000000 		.4byte	.LFB7
ARM GAS  C:\Users\DNIEL~1\AppData\Local\Temp\cctsnRq7.s 			page 27


 1407 0004 02000000 		.4byte	.LCFI0
 1408 0008 0200     		.2byte	0x2
 1409 000a 7D       		.byte	0x7d
 1410 000b 00       		.sleb128 0
 1411 000c 02000000 		.4byte	.LCFI0
 1412 0010 28000000 		.4byte	.LFE7
 1413 0014 0200     		.2byte	0x2
 1414 0016 7D       		.byte	0x7d
 1415 0017 10       		.sleb128 16
 1416 0018 00000000 		.4byte	0x0
 1417 001c 00000000 		.4byte	0x0
 1418              	.LLST1:
 1419 0020 00000000 		.4byte	.LVL0
 1420 0024 16000000 		.4byte	.LVL1
 1421 0028 0100     		.2byte	0x1
 1422 002a 50       		.byte	0x50
 1423 002b 16000000 		.4byte	.LVL1
 1424 002f 28000000 		.4byte	.LFE7
 1425 0033 0100     		.2byte	0x1
 1426 0035 54       		.byte	0x54
 1427 0036 00000000 		.4byte	0x0
 1428 003a 00000000 		.4byte	0x0
 1429              	.LLST2:
 1430 003e 00000000 		.4byte	.LVL0
 1431 0042 19000000 		.4byte	.LVL2-1
 1432 0046 0100     		.2byte	0x1
 1433 0048 51       		.byte	0x51
 1434 0049 19000000 		.4byte	.LVL2-1
 1435 004d 28000000 		.4byte	.LFE7
 1436 0051 0100     		.2byte	0x1
 1437 0053 55       		.byte	0x55
 1438 0054 00000000 		.4byte	0x0
 1439 0058 00000000 		.4byte	0x0
 1440              	.LLST3:
 1441 005c 00000000 		.4byte	.LFB9
 1442 0060 02000000 		.4byte	.LCFI1
 1443 0064 0200     		.2byte	0x2
 1444 0066 7D       		.byte	0x7d
 1445 0067 00       		.sleb128 0
 1446 0068 02000000 		.4byte	.LCFI1
 1447 006c A4000000 		.4byte	.LFE9
 1448 0070 0200     		.2byte	0x2
 1449 0072 7D       		.byte	0x7d
 1450 0073 18       		.sleb128 24
 1451 0074 00000000 		.4byte	0x0
 1452 0078 00000000 		.4byte	0x0
 1453              	.LLST4:
 1454 007c 00000000 		.4byte	.LVL3
 1455 0080 09000000 		.4byte	.LVL4-1
 1456 0084 0100     		.2byte	0x1
 1457 0086 50       		.byte	0x50
 1458 0087 09000000 		.4byte	.LVL4-1
 1459 008b A4000000 		.4byte	.LFE9
 1460 008f 0100     		.2byte	0x1
 1461 0091 54       		.byte	0x54
 1462 0092 00000000 		.4byte	0x0
 1463 0096 00000000 		.4byte	0x0
ARM GAS  C:\Users\DNIEL~1\AppData\Local\Temp\cctsnRq7.s 			page 28


 1464              	.LLST5:
 1465 009a 00000000 		.4byte	.LVL3
 1466 009e 09000000 		.4byte	.LVL4-1
 1467 00a2 0100     		.2byte	0x1
 1468 00a4 51       		.byte	0x51
 1469 00a5 09000000 		.4byte	.LVL4-1
 1470 00a9 38000000 		.4byte	.LVL8
 1471 00ad 0100     		.2byte	0x1
 1472 00af 56       		.byte	0x56
 1473 00b0 38000000 		.4byte	.LVL8
 1474 00b4 3F000000 		.4byte	.LVL9-1
 1475 00b8 0200     		.2byte	0x2
 1476 00ba 74       		.byte	0x74
 1477 00bb 08       		.sleb128 8
 1478 00bc 86000000 		.4byte	.LVL13
 1479 00c0 96000000 		.4byte	.LVL14
 1480 00c4 0100     		.2byte	0x1
 1481 00c6 56       		.byte	0x56
 1482 00c7 00000000 		.4byte	0x0
 1483 00cb 00000000 		.4byte	0x0
 1484              	.LLST6:
 1485 00cf 26000000 		.4byte	.LVL5
 1486 00d3 28000000 		.4byte	.LVL6
 1487 00d7 0100     		.2byte	0x1
 1488 00d9 55       		.byte	0x55
 1489 00da 28000000 		.4byte	.LVL6
 1490 00de 2C000000 		.4byte	.LVL7
 1491 00e2 0300     		.2byte	0x3
 1492 00e4 75       		.byte	0x75
 1493 00e5 7F       		.sleb128 -1
 1494 00e6 9F       		.byte	0x9f
 1495 00e7 2C000000 		.4byte	.LVL7
 1496 00eb 46000000 		.4byte	.LVL11
 1497 00ef 0100     		.2byte	0x1
 1498 00f1 55       		.byte	0x55
 1499 00f2 00000000 		.4byte	0x0
 1500 00f6 00000000 		.4byte	0x0
 1501              	.LLST7:
 1502 00fa 44000000 		.4byte	.LVL10
 1503 00fe 84000000 		.4byte	.LVL12
 1504 0102 0100     		.2byte	0x1
 1505 0104 54       		.byte	0x54
 1506 0105 96000000 		.4byte	.LVL14
 1507 0109 A4000000 		.4byte	.LFE9
 1508 010d 0100     		.2byte	0x1
 1509 010f 54       		.byte	0x54
 1510 0110 00000000 		.4byte	0x0
 1511 0114 00000000 		.4byte	0x0
 1512              	.LLST8:
 1513 0118 00000000 		.4byte	.LFB8
 1514 011c 02000000 		.4byte	.LCFI2
 1515 0120 0200     		.2byte	0x2
 1516 0122 7D       		.byte	0x7d
 1517 0123 00       		.sleb128 0
 1518 0124 02000000 		.4byte	.LCFI2
 1519 0128 28000000 		.4byte	.LFE8
 1520 012c 0200     		.2byte	0x2
ARM GAS  C:\Users\DNIEL~1\AppData\Local\Temp\cctsnRq7.s 			page 29


 1521 012e 7D       		.byte	0x7d
 1522 012f 10       		.sleb128 16
 1523 0130 00000000 		.4byte	0x0
 1524 0134 00000000 		.4byte	0x0
 1525              	.LLST9:
 1526 0138 00000000 		.4byte	.LVL15
 1527 013c 0F000000 		.4byte	.LVL18-1
 1528 0140 0100     		.2byte	0x1
 1529 0142 50       		.byte	0x50
 1530 0143 0F000000 		.4byte	.LVL18-1
 1531 0147 28000000 		.4byte	.LFE8
 1532 014b 0100     		.2byte	0x1
 1533 014d 55       		.byte	0x55
 1534 014e 00000000 		.4byte	0x0
 1535 0152 00000000 		.4byte	0x0
 1536              	.LLST10:
 1537 0156 00000000 		.4byte	.LVL15
 1538 015a 0F000000 		.4byte	.LVL18-1
 1539 015e 0100     		.2byte	0x1
 1540 0160 51       		.byte	0x51
 1541 0161 0F000000 		.4byte	.LVL18-1
 1542 0165 28000000 		.4byte	.LFE8
 1543 0169 0100     		.2byte	0x1
 1544 016b 54       		.byte	0x54
 1545 016c 00000000 		.4byte	0x0
 1546 0170 00000000 		.4byte	0x0
 1547              	.LLST11:
 1548 0174 0C000000 		.4byte	.LVL17
 1549 0178 0F000000 		.4byte	.LVL18-1
 1550 017c 0100     		.2byte	0x1
 1551 017e 53       		.byte	0x53
 1552 017f 00000000 		.4byte	0x0
 1553 0183 00000000 		.4byte	0x0
 1554              	.LLST12:
 1555 0187 26000000 		.4byte	.LVL20
 1556 018b 28000000 		.4byte	.LFE8
 1557 018f 0100     		.2byte	0x1
 1558 0191 53       		.byte	0x53
 1559 0192 00000000 		.4byte	0x0
 1560 0196 00000000 		.4byte	0x0
 1561              	.LLST13:
 1562 019a 00000000 		.4byte	.LFB11
 1563 019e 02000000 		.4byte	.LCFI3
 1564 01a2 0200     		.2byte	0x2
 1565 01a4 7D       		.byte	0x7d
 1566 01a5 00       		.sleb128 0
 1567 01a6 02000000 		.4byte	.LCFI3
 1568 01aa 6C000000 		.4byte	.LFE11
 1569 01ae 0200     		.2byte	0x2
 1570 01b0 7D       		.byte	0x7d
 1571 01b1 10       		.sleb128 16
 1572 01b2 00000000 		.4byte	0x0
 1573 01b6 00000000 		.4byte	0x0
 1574              	.LLST14:
 1575 01ba 00000000 		.4byte	.LVL21
 1576 01be 07000000 		.4byte	.LVL22-1
 1577 01c2 0100     		.2byte	0x1
ARM GAS  C:\Users\DNIEL~1\AppData\Local\Temp\cctsnRq7.s 			page 30


 1578 01c4 50       		.byte	0x50
 1579 01c5 07000000 		.4byte	.LVL22-1
 1580 01c9 6C000000 		.4byte	.LFE11
 1581 01cd 0100     		.2byte	0x1
 1582 01cf 54       		.byte	0x54
 1583 01d0 00000000 		.4byte	0x0
 1584 01d4 00000000 		.4byte	0x0
 1585              	.LLST15:
 1586 01d8 42000000 		.4byte	.LVL23
 1587 01dc 56000000 		.4byte	.LVL25
 1588 01e0 0100     		.2byte	0x1
 1589 01e2 54       		.byte	0x54
 1590 01e3 00000000 		.4byte	0x0
 1591 01e7 00000000 		.4byte	0x0
 1592              	.LLST16:
 1593 01eb 42000000 		.4byte	.LVL23
 1594 01ef 4F000000 		.4byte	.LVL24-1
 1595 01f3 0200     		.2byte	0x2
 1596 01f5 75       		.byte	0x75
 1597 01f6 18       		.sleb128 24
 1598 01f7 00000000 		.4byte	0x0
 1599 01fb 00000000 		.4byte	0x0
 1600              	.LLST17:
 1601 01ff 00000000 		.4byte	.LFB10
 1602 0203 02000000 		.4byte	.LCFI4
 1603 0207 0200     		.2byte	0x2
 1604 0209 7D       		.byte	0x7d
 1605 020a 00       		.sleb128 0
 1606 020b 02000000 		.4byte	.LCFI4
 1607 020f 24000000 		.4byte	.LFE10
 1608 0213 0200     		.2byte	0x2
 1609 0215 7D       		.byte	0x7d
 1610 0216 08       		.sleb128 8
 1611 0217 00000000 		.4byte	0x0
 1612 021b 00000000 		.4byte	0x0
 1613              	.LLST18:
 1614 021f 00000000 		.4byte	.LVL26
 1615 0223 0D000000 		.4byte	.LVL29-1
 1616 0227 0100     		.2byte	0x1
 1617 0229 50       		.byte	0x50
 1618 022a 0D000000 		.4byte	.LVL29-1
 1619 022e 16000000 		.4byte	.LVL30
 1620 0232 0100     		.2byte	0x1
 1621 0234 54       		.byte	0x54
 1622 0235 00000000 		.4byte	0x0
 1623 0239 00000000 		.4byte	0x0
 1624              	.LLST19:
 1625 023d 16000000 		.4byte	.LVL30
 1626 0241 19000000 		.4byte	.LVL31-1
 1627 0245 0100     		.2byte	0x1
 1628 0247 50       		.byte	0x50
 1629 0248 19000000 		.4byte	.LVL31-1
 1630 024c 24000000 		.4byte	.LFE10
 1631 0250 0100     		.2byte	0x1
 1632 0252 54       		.byte	0x54
 1633 0253 00000000 		.4byte	0x0
 1634 0257 00000000 		.4byte	0x0
ARM GAS  C:\Users\DNIEL~1\AppData\Local\Temp\cctsnRq7.s 			page 31


 1635              	.LLST20:
 1636 025b 0A000000 		.4byte	.LVL28
 1637 025f 0D000000 		.4byte	.LVL29-1
 1638 0263 0100     		.2byte	0x1
 1639 0265 53       		.byte	0x53
 1640 0266 00000000 		.4byte	0x0
 1641 026a 00000000 		.4byte	0x0
 1642              	.LLST21:
 1643 026e 20000000 		.4byte	.LVL33
 1644 0272 24000000 		.4byte	.LFE10
 1645 0276 0100     		.2byte	0x1
 1646 0278 53       		.byte	0x53
 1647 0279 00000000 		.4byte	0x0
 1648 027d 00000000 		.4byte	0x0
 1649              	.LLST22:
 1650 0281 00000000 		.4byte	.LFB13
 1651 0285 02000000 		.4byte	.LCFI5
 1652 0289 0200     		.2byte	0x2
 1653 028b 7D       		.byte	0x7d
 1654 028c 00       		.sleb128 0
 1655 028d 02000000 		.4byte	.LCFI5
 1656 0291 78000000 		.4byte	.LFE13
 1657 0295 0200     		.2byte	0x2
 1658 0297 7D       		.byte	0x7d
 1659 0298 10       		.sleb128 16
 1660 0299 00000000 		.4byte	0x0
 1661 029d 00000000 		.4byte	0x0
 1662              	.LLST23:
 1663 02a1 00000000 		.4byte	.LVL34
 1664 02a5 09000000 		.4byte	.LVL35-1
 1665 02a9 0100     		.2byte	0x1
 1666 02ab 50       		.byte	0x50
 1667 02ac 09000000 		.4byte	.LVL35-1
 1668 02b0 78000000 		.4byte	.LFE13
 1669 02b4 0100     		.2byte	0x1
 1670 02b6 54       		.byte	0x54
 1671 02b7 00000000 		.4byte	0x0
 1672 02bb 00000000 		.4byte	0x0
 1673              	.LLST24:
 1674 02bf 00000000 		.4byte	.LVL34
 1675 02c3 09000000 		.4byte	.LVL35-1
 1676 02c7 0100     		.2byte	0x1
 1677 02c9 51       		.byte	0x51
 1678 02ca 09000000 		.4byte	.LVL35-1
 1679 02ce 78000000 		.4byte	.LFE13
 1680 02d2 0100     		.2byte	0x1
 1681 02d4 55       		.byte	0x55
 1682 02d5 00000000 		.4byte	0x0
 1683 02d9 00000000 		.4byte	0x0
 1684              	.LLST25:
 1685 02dd 48000000 		.4byte	.LVL36
 1686 02e1 5A000000 		.4byte	.LVL37
 1687 02e5 0100     		.2byte	0x1
 1688 02e7 54       		.byte	0x54
 1689 02e8 00000000 		.4byte	0x0
 1690 02ec 00000000 		.4byte	0x0
 1691              	.LLST26:
ARM GAS  C:\Users\DNIEL~1\AppData\Local\Temp\cctsnRq7.s 			page 32


 1692 02f0 00000000 		.4byte	.LFB12
 1693 02f4 02000000 		.4byte	.LCFI6
 1694 02f8 0200     		.2byte	0x2
 1695 02fa 7D       		.byte	0x7d
 1696 02fb 00       		.sleb128 0
 1697 02fc 02000000 		.4byte	.LCFI6
 1698 0300 28000000 		.4byte	.LFE12
 1699 0304 0200     		.2byte	0x2
 1700 0306 7D       		.byte	0x7d
 1701 0307 10       		.sleb128 16
 1702 0308 00000000 		.4byte	0x0
 1703 030c 00000000 		.4byte	0x0
 1704              	.LLST27:
 1705 0310 00000000 		.4byte	.LVL38
 1706 0314 0F000000 		.4byte	.LVL41-1
 1707 0318 0100     		.2byte	0x1
 1708 031a 50       		.byte	0x50
 1709 031b 0F000000 		.4byte	.LVL41-1
 1710 031f 28000000 		.4byte	.LFE12
 1711 0323 0100     		.2byte	0x1
 1712 0325 55       		.byte	0x55
 1713 0326 00000000 		.4byte	0x0
 1714 032a 00000000 		.4byte	0x0
 1715              	.LLST28:
 1716 032e 00000000 		.4byte	.LVL38
 1717 0332 0F000000 		.4byte	.LVL41-1
 1718 0336 0100     		.2byte	0x1
 1719 0338 51       		.byte	0x51
 1720 0339 0F000000 		.4byte	.LVL41-1
 1721 033d 1A000000 		.4byte	.LVL42
 1722 0341 0100     		.2byte	0x1
 1723 0343 54       		.byte	0x54
 1724 0344 00000000 		.4byte	0x0
 1725 0348 00000000 		.4byte	0x0
 1726              	.LLST29:
 1727 034c 1A000000 		.4byte	.LVL42
 1728 0350 1D000000 		.4byte	.LVL43-1
 1729 0354 0100     		.2byte	0x1
 1730 0356 50       		.byte	0x50
 1731 0357 1D000000 		.4byte	.LVL43-1
 1732 035b 28000000 		.4byte	.LFE12
 1733 035f 0100     		.2byte	0x1
 1734 0361 54       		.byte	0x54
 1735 0362 00000000 		.4byte	0x0
 1736 0366 00000000 		.4byte	0x0
 1737              	.LLST30:
 1738 036a 0C000000 		.4byte	.LVL40
 1739 036e 0F000000 		.4byte	.LVL41-1
 1740 0372 0100     		.2byte	0x1
 1741 0374 53       		.byte	0x53
 1742 0375 00000000 		.4byte	0x0
 1743 0379 00000000 		.4byte	0x0
 1744              	.LLST31:
 1745 037d 24000000 		.4byte	.LVL45
 1746 0381 28000000 		.4byte	.LFE12
 1747 0385 0100     		.2byte	0x1
 1748 0387 53       		.byte	0x53
ARM GAS  C:\Users\DNIEL~1\AppData\Local\Temp\cctsnRq7.s 			page 33


 1749 0388 00000000 		.4byte	0x0
 1750 038c 00000000 		.4byte	0x0
 1751              	.LLST32:
 1752 0390 00000000 		.4byte	.LFB14
 1753 0394 02000000 		.4byte	.LCFI7
 1754 0398 0200     		.2byte	0x2
 1755 039a 7D       		.byte	0x7d
 1756 039b 00       		.sleb128 0
 1757 039c 02000000 		.4byte	.LCFI7
 1758 03a0 80000000 		.4byte	.LFE14
 1759 03a4 0200     		.2byte	0x2
 1760 03a6 7D       		.byte	0x7d
 1761 03a7 08       		.sleb128 8
 1762 03a8 00000000 		.4byte	0x0
 1763 03ac 00000000 		.4byte	0x0
 1764              	.LLST33:
 1765 03b0 00000000 		.4byte	.LVL46
 1766 03b4 08000000 		.4byte	.LVL47
 1767 03b8 0100     		.2byte	0x1
 1768 03ba 50       		.byte	0x50
 1769 03bb 08000000 		.4byte	.LVL47
 1770 03bf 80000000 		.4byte	.LFE14
 1771 03c3 0100     		.2byte	0x1
 1772 03c5 54       		.byte	0x54
 1773 03c6 00000000 		.4byte	0x0
 1774 03ca 00000000 		.4byte	0x0
 1775              	.LLST34:
 1776 03ce 20000000 		.4byte	.LVL49
 1777 03d2 23000000 		.4byte	.LVL50-1
 1778 03d6 0100     		.2byte	0x1
 1779 03d8 53       		.byte	0x53
 1780 03d9 46000000 		.4byte	.LVL54
 1781 03dd 49000000 		.4byte	.LVL55-1
 1782 03e1 0100     		.2byte	0x1
 1783 03e3 53       		.byte	0x53
 1784 03e4 00000000 		.4byte	0x0
 1785 03e8 00000000 		.4byte	0x0
 1786              	.LLST35:
 1787 03ec 38000000 		.4byte	.LVL52
 1788 03f0 3A000000 		.4byte	.LVL53
 1789 03f4 0100     		.2byte	0x1
 1790 03f6 53       		.byte	0x53
 1791 03f7 6C000000 		.4byte	.LVL59
 1792 03fb 6E000000 		.4byte	.LVL60
 1793 03ff 0100     		.2byte	0x1
 1794 0401 53       		.byte	0x53
 1795 0402 00000000 		.4byte	0x0
 1796 0406 00000000 		.4byte	0x0
 1797              	.LLST36:
 1798 040a 54000000 		.4byte	.LVL56
 1799 040e 6E000000 		.4byte	.LVL60
 1800 0412 0100     		.2byte	0x1
 1801 0414 54       		.byte	0x54
 1802 0415 00000000 		.4byte	0x0
 1803 0419 00000000 		.4byte	0x0
 1804              	.LLST37:
 1805 041d 56000000 		.4byte	.LVL57
ARM GAS  C:\Users\DNIEL~1\AppData\Local\Temp\cctsnRq7.s 			page 34


 1806 0421 61000000 		.4byte	.LVL58-1
 1807 0425 0200     		.2byte	0x2
 1808 0427 74       		.byte	0x74
 1809 0428 00       		.sleb128 0
 1810 0429 00000000 		.4byte	0x0
 1811 042d 00000000 		.4byte	0x0
 1812              	.LLST38:
 1813 0431 00000000 		.4byte	.LFB15
 1814 0435 02000000 		.4byte	.LCFI8
 1815 0439 0200     		.2byte	0x2
 1816 043b 7D       		.byte	0x7d
 1817 043c 00       		.sleb128 0
 1818 043d 02000000 		.4byte	.LCFI8
 1819 0441 60000000 		.4byte	.LFE15
 1820 0445 0200     		.2byte	0x2
 1821 0447 7D       		.byte	0x7d
 1822 0448 08       		.sleb128 8
 1823 0449 00000000 		.4byte	0x0
 1824 044d 00000000 		.4byte	0x0
 1825              	.LLST39:
 1826 0451 00000000 		.4byte	.LVL61
 1827 0455 07000000 		.4byte	.LVL62-1
 1828 0459 0100     		.2byte	0x1
 1829 045b 50       		.byte	0x50
 1830 045c 07000000 		.4byte	.LVL62-1
 1831 0460 60000000 		.4byte	.LFE15
 1832 0464 0100     		.2byte	0x1
 1833 0466 54       		.byte	0x54
 1834 0467 00000000 		.4byte	0x0
 1835 046b 00000000 		.4byte	0x0
 1836              	.LLST40:
 1837 046f 38000000 		.4byte	.LVL63
 1838 0473 4E000000 		.4byte	.LVL65
 1839 0477 0100     		.2byte	0x1
 1840 0479 54       		.byte	0x54
 1841 047a 00000000 		.4byte	0x0
 1842 047e 00000000 		.4byte	0x0
 1843              	.LLST41:
 1844 0482 3A000000 		.4byte	.LVL64
 1845 0486 4D000000 		.4byte	.LVL65-1
 1846 048a 0200     		.2byte	0x2
 1847 048c 74       		.byte	0x74
 1848 048d 00       		.sleb128 0
 1849 048e 00000000 		.4byte	0x0
 1850 0492 00000000 		.4byte	0x0
 1851              	.LLST42:
 1852 0496 00000000 		.4byte	.LFB16
 1853 049a 02000000 		.4byte	.LCFI9
 1854 049e 0200     		.2byte	0x2
 1855 04a0 7D       		.byte	0x7d
 1856 04a1 00       		.sleb128 0
 1857 04a2 02000000 		.4byte	.LCFI9
 1858 04a6 D4000000 		.4byte	.LFE16
 1859 04aa 0200     		.2byte	0x2
 1860 04ac 7D       		.byte	0x7d
 1861 04ad 18       		.sleb128 24
 1862 04ae 00000000 		.4byte	0x0
ARM GAS  C:\Users\DNIEL~1\AppData\Local\Temp\cctsnRq7.s 			page 35


 1863 04b2 00000000 		.4byte	0x0
 1864              	.LLST43:
 1865 04b6 00000000 		.4byte	.LVL66
 1866 04ba 09000000 		.4byte	.LVL67-1
 1867 04be 0100     		.2byte	0x1
 1868 04c0 50       		.byte	0x50
 1869 04c1 09000000 		.4byte	.LVL67-1
 1870 04c5 D4000000 		.4byte	.LFE16
 1871 04c9 0100     		.2byte	0x1
 1872 04cb 54       		.byte	0x54
 1873 04cc 00000000 		.4byte	0x0
 1874 04d0 00000000 		.4byte	0x0
 1875              	.LLST44:
 1876 04d4 00000000 		.4byte	.LVL66
 1877 04d8 09000000 		.4byte	.LVL67-1
 1878 04dc 0100     		.2byte	0x1
 1879 04de 51       		.byte	0x51
 1880 04df 09000000 		.4byte	.LVL67-1
 1881 04e3 3A000000 		.4byte	.LVL68
 1882 04e7 0100     		.2byte	0x1
 1883 04e9 55       		.byte	0x55
 1884 04ea 98000000 		.4byte	.LVL74
 1885 04ee B8000000 		.4byte	.LVL76
 1886 04f2 0100     		.2byte	0x1
 1887 04f4 55       		.byte	0x55
 1888 04f5 00000000 		.4byte	0x0
 1889 04f9 00000000 		.4byte	0x0
 1890              	.LLST45:
 1891 04fd 6A000000 		.4byte	.LVL69
 1892 0501 82000000 		.4byte	.LVL72
 1893 0505 0100     		.2byte	0x1
 1894 0507 54       		.byte	0x54
 1895 0508 82000000 		.4byte	.LVL72
 1896 050c 94000000 		.4byte	.LVL73
 1897 0510 0100     		.2byte	0x1
 1898 0512 54       		.byte	0x54
 1899 0513 A8000000 		.4byte	.LVL75
 1900 0517 B8000000 		.4byte	.LVL76
 1901 051b 0100     		.2byte	0x1
 1902 051d 54       		.byte	0x54
 1903 051e B8000000 		.4byte	.LVL76
 1904 0522 C8000000 		.4byte	.LVL77
 1905 0526 0100     		.2byte	0x1
 1906 0528 54       		.byte	0x54
 1907 0529 00000000 		.4byte	0x0
 1908 052d 00000000 		.4byte	0x0
 1909              	.LLST46:
 1910 0531 6C000000 		.4byte	.LVL70
 1911 0535 75000000 		.4byte	.LVL71-1
 1912 0539 0200     		.2byte	0x2
 1913 053b 74       		.byte	0x74
 1914 053c 00       		.sleb128 0
 1915 053d 00000000 		.4byte	0x0
 1916 0541 00000000 		.4byte	0x0
 1917              	.LLST47:
 1918 0545 00000000 		.4byte	.LFB17
 1919 0549 02000000 		.4byte	.LCFI10
ARM GAS  C:\Users\DNIEL~1\AppData\Local\Temp\cctsnRq7.s 			page 36


 1920 054d 0200     		.2byte	0x2
 1921 054f 7D       		.byte	0x7d
 1922 0550 00       		.sleb128 0
 1923 0551 02000000 		.4byte	.LCFI10
 1924 0555 E4000000 		.4byte	.LFE17
 1925 0559 0200     		.2byte	0x2
 1926 055b 7D       		.byte	0x7d
 1927 055c 10       		.sleb128 16
 1928 055d 00000000 		.4byte	0x0
 1929 0561 00000000 		.4byte	0x0
 1930              	.LLST48:
 1931 0565 00000000 		.4byte	.LVL78
 1932 0569 0E000000 		.4byte	.LVL79
 1933 056d 0100     		.2byte	0x1
 1934 056f 50       		.byte	0x50
 1935 0570 0E000000 		.4byte	.LVL79
 1936 0574 50000000 		.4byte	.LVL83
 1937 0578 0100     		.2byte	0x1
 1938 057a 54       		.byte	0x54
 1939 057b 64000000 		.4byte	.LVL88
 1940 057f 98000000 		.4byte	.LVL94
 1941 0583 0100     		.2byte	0x1
 1942 0585 54       		.byte	0x54
 1943 0586 CA000000 		.4byte	.LVL99
 1944 058a CC000000 		.4byte	.LVL100
 1945 058e 0100     		.2byte	0x1
 1946 0590 50       		.byte	0x50
 1947 0591 CC000000 		.4byte	.LVL100
 1948 0595 E4000000 		.4byte	.LFE17
 1949 0599 0100     		.2byte	0x1
 1950 059b 54       		.byte	0x54
 1951 059c 00000000 		.4byte	0x0
 1952 05a0 00000000 		.4byte	0x0
 1953              	.LLST49:
 1954 05a4 00000000 		.4byte	.LVL78
 1955 05a8 0E000000 		.4byte	.LVL79
 1956 05ac 0100     		.2byte	0x1
 1957 05ae 51       		.byte	0x51
 1958 05af 0E000000 		.4byte	.LVL79
 1959 05b3 E4000000 		.4byte	.LFE17
 1960 05b7 0100     		.2byte	0x1
 1961 05b9 55       		.byte	0x55
 1962 05ba 00000000 		.4byte	0x0
 1963 05be 00000000 		.4byte	0x0
 1964              	.LLST50:
 1965 05c2 54000000 		.4byte	.LVL84
 1966 05c6 56000000 		.4byte	.LVL85
 1967 05ca 0200     		.2byte	0x2
 1968 05cc 30       		.byte	0x30
 1969 05cd 9F       		.byte	0x9f
 1970 05ce 56000000 		.4byte	.LVL85
 1971 05d2 64000000 		.4byte	.LVL88
 1972 05d6 0100     		.2byte	0x1
 1973 05d8 54       		.byte	0x54
 1974 05d9 BC000000 		.4byte	.LVL97
 1975 05dd CA000000 		.4byte	.LVL99
 1976 05e1 0100     		.2byte	0x1
ARM GAS  C:\Users\DNIEL~1\AppData\Local\Temp\cctsnRq7.s 			page 37


 1977 05e3 54       		.byte	0x54
 1978 05e4 00000000 		.4byte	0x0
 1979 05e8 00000000 		.4byte	0x0
 1980              	.LLST51:
 1981 05ec 38000000 		.4byte	.LVL81
 1982 05f0 3B000000 		.4byte	.LVL82-1
 1983 05f4 0100     		.2byte	0x1
 1984 05f6 53       		.byte	0x53
 1985 05f7 7C000000 		.4byte	.LVL89
 1986 05fb 7F000000 		.4byte	.LVL90-1
 1987 05ff 0100     		.2byte	0x1
 1988 0601 53       		.byte	0x53
 1989 0602 00000000 		.4byte	0x0
 1990 0606 00000000 		.4byte	0x0
 1991              	.LLST52:
 1992 060a 60000000 		.4byte	.LVL87
 1993 060e 64000000 		.4byte	.LVL88
 1994 0612 0100     		.2byte	0x1
 1995 0614 53       		.byte	0x53
 1996 0615 C6000000 		.4byte	.LVL98
 1997 0619 CA000000 		.4byte	.LVL99
 1998 061d 0100     		.2byte	0x1
 1999 061f 53       		.byte	0x53
 2000 0620 00000000 		.4byte	0x0
 2001 0624 00000000 		.4byte	0x0
 2002              	.LLST53:
 2003 0628 8A000000 		.4byte	.LVL91
 2004 062c 98000000 		.4byte	.LVL94
 2005 0630 0100     		.2byte	0x1
 2006 0632 54       		.byte	0x54
 2007 0633 00000000 		.4byte	0x0
 2008 0637 00000000 		.4byte	0x0
 2009              	.LLST54:
 2010 063b 8C000000 		.4byte	.LVL92
 2011 063f 95000000 		.4byte	.LVL93-1
 2012 0643 0200     		.2byte	0x2
 2013 0645 74       		.byte	0x74
 2014 0646 00       		.sleb128 0
 2015 0647 00000000 		.4byte	0x0
 2016 064b 00000000 		.4byte	0x0
 2017              	.LLST55:
 2018 064f AA000000 		.4byte	.LVL95
 2019 0653 B9000000 		.4byte	.LVL96-1
 2020 0657 0200     		.2byte	0x2
 2021 0659 72       		.byte	0x72
 2022 065a 18       		.sleb128 24
 2023 065b B9000000 		.4byte	.LVL96-1
 2024 065f BC000000 		.4byte	.LVL97
 2025 0663 0100     		.2byte	0x1
 2026 0665 54       		.byte	0x54
 2027 0666 00000000 		.4byte	0x0
 2028 066a 00000000 		.4byte	0x0
 2029              	.LLST56:
 2030 066e AA000000 		.4byte	.LVL95
 2031 0672 CA000000 		.4byte	.LVL99
 2032 0676 0100     		.2byte	0x1
 2033 0678 55       		.byte	0x55
ARM GAS  C:\Users\DNIEL~1\AppData\Local\Temp\cctsnRq7.s 			page 38


 2034 0679 00000000 		.4byte	0x0
 2035 067d 00000000 		.4byte	0x0
 2036              	.LLST57:
 2037 0681 AA000000 		.4byte	.LVL95
 2038 0685 B9000000 		.4byte	.LVL96-1
 2039 0689 0200     		.2byte	0x2
 2040 068b 72       		.byte	0x72
 2041 068c 18       		.sleb128 24
 2042 068d B9000000 		.4byte	.LVL96-1
 2043 0691 BC000000 		.4byte	.LVL97
 2044 0695 0100     		.2byte	0x1
 2045 0697 54       		.byte	0x54
 2046 0698 00000000 		.4byte	0x0
 2047 069c 00000000 		.4byte	0x0
 2048              		.file 3 "c:\\program files (x86)\\codesourcery\\sourcery g++ lite\\bin\\../lib/gcc/arm-none-eabi/4
 2049              		.file 4 "../../../ChibiOS/os/ports/GCC/ARMCMx/chtypes.h"
 2050              		.file 5 "../../../ChibiOS/os/kernel/include/chlists.h"
 2051              		.file 6 "../../../ChibiOS/os/kernel/include/chthreads.h"
 2052              		.file 7 "../../../ChibiOS/os/ports/GCC/ARMCMx/chcore_v7m.h"
 2053              		.file 8 "../../../ChibiOS/os/kernel/include/chschd.h"
 2054              		.file 9 "../../../ChibiOS/os/kernel/include/chsem.h"
 2055              		.file 10 "../../../ChibiOS/os/kernel/include/chmtx.h"
 2056              		.section	.debug_info
 2057 0000 0B0A0000 		.4byte	0xa0b
 2058 0004 0200     		.2byte	0x2
 2059 0006 00000000 		.4byte	.Ldebug_abbrev0
 2060 000a 04       		.byte	0x4
 2061 000b 01       		.uleb128 0x1
 2062 000c 82030000 		.4byte	.LASF83
 2063 0010 01       		.byte	0x1
 2064 0011 66020000 		.4byte	.LASF84
 2065 0015 CB010000 		.4byte	.LASF85
 2066 0019 00000000 		.4byte	0x0
 2067 001d 00000000 		.4byte	0x0
 2068 0021 08020000 		.4byte	.Ldebug_ranges0+0x208
 2069 0025 00000000 		.4byte	.Ldebug_line0
 2070 0029 02       		.uleb128 0x2
 2071 002a 04       		.byte	0x4
 2072 002b 05       		.byte	0x5
 2073 002c 696E7400 		.ascii	"int\000"
 2074 0030 03       		.uleb128 0x3
 2075 0031 04       		.byte	0x4
 2076 0032 07       		.byte	0x7
 2077 0033 FC000000 		.4byte	.LASF0
 2078 0037 03       		.uleb128 0x3
 2079 0038 01       		.byte	0x1
 2080 0039 06       		.byte	0x6
 2081 003a 76000000 		.4byte	.LASF1
 2082 003e 04       		.uleb128 0x4
 2083 003f 73030000 		.4byte	.LASF5
 2084 0043 03       		.byte	0x3
 2085 0044 2A       		.byte	0x2a
 2086 0045 49000000 		.4byte	0x49
 2087 0049 03       		.uleb128 0x3
 2088 004a 01       		.byte	0x1
 2089 004b 08       		.byte	0x8
 2090 004c 3C020000 		.4byte	.LASF2
ARM GAS  C:\Users\DNIEL~1\AppData\Local\Temp\cctsnRq7.s 			page 39


 2091 0050 03       		.uleb128 0x3
 2092 0051 02       		.byte	0x2
 2093 0052 05       		.byte	0x5
 2094 0053 54020000 		.4byte	.LASF3
 2095 0057 03       		.uleb128 0x3
 2096 0058 02       		.byte	0x2
 2097 0059 07       		.byte	0x7
 2098 005a 3A010000 		.4byte	.LASF4
 2099 005e 04       		.uleb128 0x4
 2100 005f 34020000 		.4byte	.LASF6
 2101 0063 03       		.byte	0x3
 2102 0064 4F       		.byte	0x4f
 2103 0065 69000000 		.4byte	0x69
 2104 0069 03       		.uleb128 0x3
 2105 006a 04       		.byte	0x4
 2106 006b 05       		.byte	0x5
 2107 006c AC000000 		.4byte	.LASF7
 2108 0070 04       		.uleb128 0x4
 2109 0071 C7020000 		.4byte	.LASF8
 2110 0075 03       		.byte	0x3
 2111 0076 50       		.byte	0x50
 2112 0077 7B000000 		.4byte	0x7b
 2113 007b 03       		.uleb128 0x3
 2114 007c 04       		.byte	0x4
 2115 007d 07       		.byte	0x7
 2116 007e 1A010000 		.4byte	.LASF9
 2117 0082 03       		.uleb128 0x3
 2118 0083 08       		.byte	0x8
 2119 0084 05       		.byte	0x5
 2120 0085 68000000 		.4byte	.LASF10
 2121 0089 04       		.uleb128 0x4
 2122 008a 27000000 		.4byte	.LASF11
 2123 008e 03       		.byte	0x3
 2124 008f 78       		.byte	0x78
 2125 0090 94000000 		.4byte	0x94
 2126 0094 03       		.uleb128 0x3
 2127 0095 08       		.byte	0x8
 2128 0096 07       		.byte	0x7
 2129 0097 30000000 		.4byte	.LASF12
 2130 009b 04       		.uleb128 0x4
 2131 009c 5E010000 		.4byte	.LASF13
 2132 00a0 04       		.byte	0x4
 2133 00a1 28       		.byte	0x28
 2134 00a2 3E000000 		.4byte	0x3e
 2135 00a6 04       		.uleb128 0x4
 2136 00a7 B5000000 		.4byte	.LASF14
 2137 00ab 04       		.byte	0x4
 2138 00ac 29       		.byte	0x29
 2139 00ad 3E000000 		.4byte	0x3e
 2140 00b1 04       		.uleb128 0x4
 2141 00b2 1D020000 		.4byte	.LASF15
 2142 00b6 04       		.byte	0x4
 2143 00b7 2A       		.byte	0x2a
 2144 00b8 3E000000 		.4byte	0x3e
 2145 00bc 04       		.uleb128 0x4
 2146 00bd A2000000 		.4byte	.LASF16
 2147 00c1 04       		.byte	0x4
ARM GAS  C:\Users\DNIEL~1\AppData\Local\Temp\cctsnRq7.s 			page 40


 2148 00c2 2B       		.byte	0x2b
 2149 00c3 3E000000 		.4byte	0x3e
 2150 00c7 04       		.uleb128 0x4
 2151 00c8 2C020000 		.4byte	.LASF17
 2152 00cc 04       		.byte	0x4
 2153 00cd 2C       		.byte	0x2c
 2154 00ce 70000000 		.4byte	0x70
 2155 00d2 04       		.uleb128 0x4
 2156 00d3 58010000 		.4byte	.LASF18
 2157 00d7 04       		.byte	0x4
 2158 00d8 2D       		.byte	0x2d
 2159 00d9 5E000000 		.4byte	0x5e
 2160 00dd 04       		.uleb128 0x4
 2161 00de 72010000 		.4byte	.LASF19
 2162 00e2 04       		.byte	0x4
 2163 00e3 2F       		.byte	0x2f
 2164 00e4 70000000 		.4byte	0x70
 2165 00e8 04       		.uleb128 0x4
 2166 00e9 02030000 		.4byte	.LASF20
 2167 00ed 04       		.byte	0x4
 2168 00ee 31       		.byte	0x31
 2169 00ef 70000000 		.4byte	0x70
 2170 00f3 04       		.uleb128 0x4
 2171 00f4 EB000000 		.4byte	.LASF21
 2172 00f8 04       		.byte	0x4
 2173 00f9 32       		.byte	0x32
 2174 00fa 5E000000 		.4byte	0x5e
 2175 00fe 04       		.uleb128 0x4
 2176 00ff B5020000 		.4byte	.LASF22
 2177 0103 05       		.byte	0x5
 2178 0104 23       		.byte	0x23
 2179 0105 09010000 		.4byte	0x109
 2180 0109 05       		.uleb128 0x5
 2181 010a B5020000 		.4byte	.LASF22
 2182 010e 4C       		.byte	0x4c
 2183 010f 06       		.byte	0x6
 2184 0110 57       		.byte	0x57
 2185 0111 3C020000 		.4byte	0x23c
 2186 0115 06       		.uleb128 0x6
 2187 0116 9B020000 		.4byte	.LASF23
 2188 011a 06       		.byte	0x6
 2189 011b 58       		.byte	0x58
 2190 011c 61020000 		.4byte	0x261
 2191 0120 02       		.byte	0x2
 2192 0121 23       		.byte	0x23
 2193 0122 00       		.uleb128 0x0
 2194 0123 06       		.uleb128 0x6
 2195 0124 25020000 		.4byte	.LASF24
 2196 0128 06       		.byte	0x6
 2197 0129 5A       		.byte	0x5a
 2198 012a 61020000 		.4byte	0x261
 2199 012e 02       		.byte	0x2
 2200 012f 23       		.byte	0x23
 2201 0130 04       		.uleb128 0x4
 2202 0131 06       		.uleb128 0x6
 2203 0132 61000000 		.4byte	.LASF25
 2204 0136 06       		.byte	0x6
ARM GAS  C:\Users\DNIEL~1\AppData\Local\Temp\cctsnRq7.s 			page 41


 2205 0137 5C       		.byte	0x5c
 2206 0138 C7000000 		.4byte	0xc7
 2207 013c 02       		.byte	0x2
 2208 013d 23       		.byte	0x23
 2209 013e 08       		.uleb128 0x8
 2210 013f 06       		.uleb128 0x6
 2211 0140 9D030000 		.4byte	.LASF26
 2212 0144 06       		.byte	0x6
 2213 0145 5D       		.byte	0x5d
 2214 0146 3A030000 		.4byte	0x33a
 2215 014a 02       		.byte	0x2
 2216 014b 23       		.byte	0x23
 2217 014c 0C       		.uleb128 0xc
 2218 014d 06       		.uleb128 0x6
 2219 014e CA000000 		.4byte	.LASF27
 2220 0152 06       		.byte	0x6
 2221 0153 5F       		.byte	0x5f
 2222 0154 61020000 		.4byte	0x261
 2223 0158 02       		.byte	0x2
 2224 0159 23       		.byte	0x23
 2225 015a 10       		.uleb128 0x10
 2226 015b 06       		.uleb128 0x6
 2227 015c 8F010000 		.4byte	.LASF28
 2228 0160 06       		.byte	0x6
 2229 0161 60       		.byte	0x60
 2230 0162 61020000 		.4byte	0x261
 2231 0166 02       		.byte	0x2
 2232 0167 23       		.byte	0x23
 2233 0168 14       		.uleb128 0x14
 2234 0169 06       		.uleb128 0x6
 2235 016a 8E030000 		.4byte	.LASF29
 2236 016e 06       		.byte	0x6
 2237 016f 67       		.byte	0x67
 2238 0170 7B040000 		.4byte	0x47b
 2239 0174 02       		.byte	0x2
 2240 0175 23       		.byte	0x23
 2241 0176 18       		.uleb128 0x18
 2242 0177 06       		.uleb128 0x6
 2243 0178 F1000000 		.4byte	.LASF30
 2244 017c 06       		.byte	0x6
 2245 017d 6D       		.byte	0x6d
 2246 017e 8D040000 		.4byte	0x48d
 2247 0182 02       		.byte	0x2
 2248 0183 23       		.byte	0x23
 2249 0184 1C       		.uleb128 0x1c
 2250 0185 06       		.uleb128 0x6
 2251 0186 5E020000 		.4byte	.LASF31
 2252 018a 06       		.byte	0x6
 2253 018b 72       		.byte	0x72
 2254 018c A6000000 		.4byte	0xa6
 2255 0190 02       		.byte	0x2
 2256 0191 23       		.byte	0x23
 2257 0192 20       		.uleb128 0x20
 2258 0193 06       		.uleb128 0x6
 2259 0194 A2020000 		.4byte	.LASF32
 2260 0198 06       		.byte	0x6
 2261 0199 76       		.byte	0x76
ARM GAS  C:\Users\DNIEL~1\AppData\Local\Temp\cctsnRq7.s 			page 42


 2262 019a 9B000000 		.4byte	0x9b
 2263 019e 02       		.byte	0x2
 2264 019f 23       		.byte	0x23
 2265 01a0 21       		.uleb128 0x21
 2266 01a1 06       		.uleb128 0x6
 2267 01a2 50030000 		.4byte	.LASF33
 2268 01a6 06       		.byte	0x6
 2269 01a7 7B       		.byte	0x7b
 2270 01a8 B1000000 		.4byte	0xb1
 2271 01ac 02       		.byte	0x2
 2272 01ad 23       		.byte	0x23
 2273 01ae 22       		.uleb128 0x22
 2274 01af 06       		.uleb128 0x6
 2275 01b0 C1010000 		.4byte	.LASF34
 2276 01b4 06       		.byte	0x6
 2277 01b5 81       		.byte	0x81
 2278 01b6 BC000000 		.4byte	0xbc
 2279 01ba 02       		.byte	0x2
 2280 01bb 23       		.byte	0x23
 2281 01bc 23       		.uleb128 0x23
 2282 01bd 06       		.uleb128 0x6
 2283 01be 21030000 		.4byte	.LASF35
 2284 01c2 06       		.byte	0x6
 2285 01c3 88       		.byte	0x88
 2286 01c4 5D030000 		.4byte	0x35d
 2287 01c8 02       		.byte	0x2
 2288 01c9 23       		.byte	0x23
 2289 01ca 24       		.uleb128 0x24
 2290 01cb 07       		.uleb128 0x7
 2291 01cc 705F7500 		.ascii	"p_u\000"
 2292 01d0 06       		.byte	0x6
 2293 01d1 AD       		.byte	0xad
 2294 01d2 46040000 		.4byte	0x446
 2295 01d6 02       		.byte	0x2
 2296 01d7 23       		.byte	0x23
 2297 01d8 28       		.uleb128 0x28
 2298 01d9 06       		.uleb128 0x6
 2299 01da A3030000 		.4byte	.LASF36
 2300 01de 06       		.byte	0x6
 2301 01df B2       		.byte	0xb2
 2302 01e0 89020000 		.4byte	0x289
 2303 01e4 02       		.byte	0x2
 2304 01e5 23       		.byte	0x23
 2305 01e6 2C       		.uleb128 0x2c
 2306 01e7 06       		.uleb128 0x6
 2307 01e8 3B030000 		.4byte	.LASF37
 2308 01ec 06       		.byte	0x6
 2309 01ed B8       		.byte	0xb8
 2310 01ee 67020000 		.4byte	0x267
 2311 01f2 02       		.byte	0x2
 2312 01f3 23       		.byte	0x23
 2313 01f4 30       		.uleb128 0x30
 2314 01f5 06       		.uleb128 0x6
 2315 01f6 00000000 		.4byte	.LASF38
 2316 01fa 06       		.byte	0x6
 2317 01fb BC       		.byte	0xbc
 2318 01fc D2000000 		.4byte	0xd2
ARM GAS  C:\Users\DNIEL~1\AppData\Local\Temp\cctsnRq7.s 			page 43


 2319 0200 02       		.byte	0x2
 2320 0201 23       		.byte	0x23
 2321 0202 38       		.uleb128 0x38
 2322 0203 06       		.uleb128 0x6
 2323 0204 BC020000 		.4byte	.LASF39
 2324 0208 06       		.byte	0x6
 2325 0209 C2       		.byte	0xc2
 2326 020a DD000000 		.4byte	0xdd
 2327 020e 02       		.byte	0x2
 2328 020f 23       		.byte	0x23
 2329 0210 3C       		.uleb128 0x3c
 2330 0211 06       		.uleb128 0x6
 2331 0212 4A020000 		.4byte	.LASF40
 2332 0216 06       		.byte	0x6
 2333 0217 C9       		.byte	0xc9
 2334 0218 93040000 		.4byte	0x493
 2335 021c 02       		.byte	0x2
 2336 021d 23       		.byte	0x23
 2337 021e 40       		.uleb128 0x40
 2338 021f 06       		.uleb128 0x6
 2339 0220 0C030000 		.4byte	.LASF41
 2340 0224 06       		.byte	0x6
 2341 0225 CD       		.byte	0xcd
 2342 0226 C7000000 		.4byte	0xc7
 2343 022a 02       		.byte	0x2
 2344 022b 23       		.byte	0x23
 2345 022c 44       		.uleb128 0x44
 2346 022d 06       		.uleb128 0x6
 2347 022e 92000000 		.4byte	.LASF42
 2348 0232 06       		.byte	0x6
 2349 0233 D3       		.byte	0xd3
 2350 0234 9F020000 		.4byte	0x29f
 2351 0238 02       		.byte	0x2
 2352 0239 23       		.byte	0x23
 2353 023a 48       		.uleb128 0x48
 2354 023b 00       		.byte	0x0
 2355 023c 08       		.uleb128 0x8
 2356 023d 08       		.byte	0x8
 2357 023e 05       		.byte	0x5
 2358 023f 5A       		.byte	0x5a
 2359 0240 61020000 		.4byte	0x261
 2360 0244 06       		.uleb128 0x6
 2361 0245 9B020000 		.4byte	.LASF23
 2362 0249 05       		.byte	0x5
 2363 024a 5B       		.byte	0x5b
 2364 024b 61020000 		.4byte	0x261
 2365 024f 02       		.byte	0x2
 2366 0250 23       		.byte	0x23
 2367 0251 00       		.uleb128 0x0
 2368 0252 06       		.uleb128 0x6
 2369 0253 25020000 		.4byte	.LASF24
 2370 0257 05       		.byte	0x5
 2371 0258 5D       		.byte	0x5d
 2372 0259 61020000 		.4byte	0x261
 2373 025d 02       		.byte	0x2
 2374 025e 23       		.byte	0x23
 2375 025f 04       		.uleb128 0x4
ARM GAS  C:\Users\DNIEL~1\AppData\Local\Temp\cctsnRq7.s 			page 44


 2376 0260 00       		.byte	0x0
 2377 0261 09       		.uleb128 0x9
 2378 0262 04       		.byte	0x4
 2379 0263 FE000000 		.4byte	0xfe
 2380 0267 04       		.uleb128 0x4
 2381 0268 9D010000 		.4byte	.LASF43
 2382 026c 05       		.byte	0x5
 2383 026d 5F       		.byte	0x5f
 2384 026e 3C020000 		.4byte	0x23c
 2385 0272 08       		.uleb128 0x8
 2386 0273 04       		.byte	0x4
 2387 0274 05       		.byte	0x5
 2388 0275 64       		.byte	0x64
 2389 0276 89020000 		.4byte	0x289
 2390 027a 06       		.uleb128 0x6
 2391 027b 9B020000 		.4byte	.LASF23
 2392 027f 05       		.byte	0x5
 2393 0280 66       		.byte	0x66
 2394 0281 61020000 		.4byte	0x261
 2395 0285 02       		.byte	0x2
 2396 0286 23       		.byte	0x23
 2397 0287 00       		.uleb128 0x0
 2398 0288 00       		.byte	0x0
 2399 0289 04       		.uleb128 0x4
 2400 028a 66010000 		.4byte	.LASF44
 2401 028e 05       		.byte	0x5
 2402 028f 69       		.byte	0x69
 2403 0290 72020000 		.4byte	0x272
 2404 0294 04       		.uleb128 0x4
 2405 0295 E2000000 		.4byte	.LASF45
 2406 0299 07       		.byte	0x7
 2407 029a DE       		.byte	0xde
 2408 029b 9F020000 		.4byte	0x29f
 2409 029f 0A       		.uleb128 0xa
 2410 02a0 04       		.byte	0x4
 2411 02a1 04       		.uleb128 0x4
 2412 02a2 84010000 		.4byte	.LASF46
 2413 02a6 07       		.byte	0x7
 2414 02a7 E4       		.byte	0xe4
 2415 02a8 89000000 		.4byte	0x89
 2416 02ac 0B       		.uleb128 0xb
 2417 02ad 34030000 		.4byte	.LASF47
 2418 02b1 24       		.byte	0x24
 2419 02b2 07       		.byte	0x7
 2420 02b3 0501     		.2byte	0x105
 2421 02b5 3A030000 		.4byte	0x33a
 2422 02b9 0C       		.uleb128 0xc
 2423 02ba 723400   		.ascii	"r4\000"
 2424 02bd 07       		.byte	0x7
 2425 02be 1801     		.2byte	0x118
 2426 02c0 94020000 		.4byte	0x294
 2427 02c4 02       		.byte	0x2
 2428 02c5 23       		.byte	0x23
 2429 02c6 00       		.uleb128 0x0
 2430 02c7 0C       		.uleb128 0xc
 2431 02c8 723500   		.ascii	"r5\000"
 2432 02cb 07       		.byte	0x7
ARM GAS  C:\Users\DNIEL~1\AppData\Local\Temp\cctsnRq7.s 			page 45


 2433 02cc 1901     		.2byte	0x119
 2434 02ce 94020000 		.4byte	0x294
 2435 02d2 02       		.byte	0x2
 2436 02d3 23       		.byte	0x23
 2437 02d4 04       		.uleb128 0x4
 2438 02d5 0C       		.uleb128 0xc
 2439 02d6 723600   		.ascii	"r6\000"
 2440 02d9 07       		.byte	0x7
 2441 02da 1A01     		.2byte	0x11a
 2442 02dc 94020000 		.4byte	0x294
 2443 02e0 02       		.byte	0x2
 2444 02e1 23       		.byte	0x23
 2445 02e2 08       		.uleb128 0x8
 2446 02e3 0C       		.uleb128 0xc
 2447 02e4 723700   		.ascii	"r7\000"
 2448 02e7 07       		.byte	0x7
 2449 02e8 1B01     		.2byte	0x11b
 2450 02ea 94020000 		.4byte	0x294
 2451 02ee 02       		.byte	0x2
 2452 02ef 23       		.byte	0x23
 2453 02f0 0C       		.uleb128 0xc
 2454 02f1 0C       		.uleb128 0xc
 2455 02f2 723800   		.ascii	"r8\000"
 2456 02f5 07       		.byte	0x7
 2457 02f6 1C01     		.2byte	0x11c
 2458 02f8 94020000 		.4byte	0x294
 2459 02fc 02       		.byte	0x2
 2460 02fd 23       		.byte	0x23
 2461 02fe 10       		.uleb128 0x10
 2462 02ff 0C       		.uleb128 0xc
 2463 0300 723900   		.ascii	"r9\000"
 2464 0303 07       		.byte	0x7
 2465 0304 1D01     		.2byte	0x11d
 2466 0306 94020000 		.4byte	0x294
 2467 030a 02       		.byte	0x2
 2468 030b 23       		.byte	0x23
 2469 030c 14       		.uleb128 0x14
 2470 030d 0C       		.uleb128 0xc
 2471 030e 72313000 		.ascii	"r10\000"
 2472 0312 07       		.byte	0x7
 2473 0313 1E01     		.2byte	0x11e
 2474 0315 94020000 		.4byte	0x294
 2475 0319 02       		.byte	0x2
 2476 031a 23       		.byte	0x23
 2477 031b 18       		.uleb128 0x18
 2478 031c 0C       		.uleb128 0xc
 2479 031d 72313100 		.ascii	"r11\000"
 2480 0321 07       		.byte	0x7
 2481 0322 1F01     		.2byte	0x11f
 2482 0324 94020000 		.4byte	0x294
 2483 0328 02       		.byte	0x2
 2484 0329 23       		.byte	0x23
 2485 032a 1C       		.uleb128 0x1c
 2486 032b 0C       		.uleb128 0xc
 2487 032c 6C7200   		.ascii	"lr\000"
 2488 032f 07       		.byte	0x7
 2489 0330 2001     		.2byte	0x120
ARM GAS  C:\Users\DNIEL~1\AppData\Local\Temp\cctsnRq7.s 			page 46


 2490 0332 94020000 		.4byte	0x294
 2491 0336 02       		.byte	0x2
 2492 0337 23       		.byte	0x23
 2493 0338 20       		.uleb128 0x20
 2494 0339 00       		.byte	0x0
 2495 033a 0B       		.uleb128 0xb
 2496 033b 32010000 		.4byte	.LASF48
 2497 033f 04       		.byte	0x4
 2498 0340 07       		.byte	0x7
 2499 0341 2A01     		.2byte	0x12a
 2500 0343 57030000 		.4byte	0x357
 2501 0347 0C       		.uleb128 0xc
 2502 0348 72313300 		.ascii	"r13\000"
 2503 034c 07       		.byte	0x7
 2504 034d 2B01     		.2byte	0x12b
 2505 034f 57030000 		.4byte	0x357
 2506 0353 02       		.byte	0x2
 2507 0354 23       		.byte	0x23
 2508 0355 00       		.uleb128 0x0
 2509 0356 00       		.byte	0x0
 2510 0357 09       		.uleb128 0x9
 2511 0358 04       		.byte	0x4
 2512 0359 AC020000 		.4byte	0x2ac
 2513 035d 0D       		.uleb128 0xd
 2514 035e E8000000 		.4byte	0xe8
 2515 0362 08       		.uleb128 0x8
 2516 0363 1C       		.byte	0x1c
 2517 0364 08       		.byte	0x8
 2518 0365 57       		.byte	0x57
 2519 0366 BF030000 		.4byte	0x3bf
 2520 036a 06       		.uleb128 0x6
 2521 036b D0020000 		.4byte	.LASF49
 2522 036f 08       		.byte	0x8
 2523 0370 58       		.byte	0x58
 2524 0371 67020000 		.4byte	0x267
 2525 0375 02       		.byte	0x2
 2526 0376 23       		.byte	0x23
 2527 0377 00       		.uleb128 0x0
 2528 0378 06       		.uleb128 0x6
 2529 0379 8D020000 		.4byte	.LASF50
 2530 037d 08       		.byte	0x8
 2531 037e 59       		.byte	0x59
 2532 037f C7000000 		.4byte	0xc7
 2533 0383 02       		.byte	0x2
 2534 0384 23       		.byte	0x23
 2535 0385 08       		.uleb128 0x8
 2536 0386 06       		.uleb128 0x6
 2537 0387 97010000 		.4byte	.LASF51
 2538 038b 08       		.byte	0x8
 2539 038c 5B       		.byte	0x5b
 2540 038d 3A030000 		.4byte	0x33a
 2541 0391 02       		.byte	0x2
 2542 0392 23       		.byte	0x23
 2543 0393 0C       		.uleb128 0xc
 2544 0394 06       		.uleb128 0x6
 2545 0395 DA000000 		.4byte	.LASF52
 2546 0399 08       		.byte	0x8
ARM GAS  C:\Users\DNIEL~1\AppData\Local\Temp\cctsnRq7.s 			page 47


 2547 039a 5E       		.byte	0x5e
 2548 039b 61020000 		.4byte	0x261
 2549 039f 02       		.byte	0x2
 2550 03a0 23       		.byte	0x23
 2551 03a1 10       		.uleb128 0x10
 2552 03a2 06       		.uleb128 0x6
 2553 03a3 B9010000 		.4byte	.LASF53
 2554 03a7 08       		.byte	0x8
 2555 03a8 5F       		.byte	0x5f
 2556 03a9 61020000 		.4byte	0x261
 2557 03ad 02       		.byte	0x2
 2558 03ae 23       		.byte	0x23
 2559 03af 14       		.uleb128 0x14
 2560 03b0 06       		.uleb128 0x6
 2561 03b1 AF010000 		.4byte	.LASF54
 2562 03b5 08       		.byte	0x8
 2563 03b6 62       		.byte	0x62
 2564 03b7 61020000 		.4byte	0x261
 2565 03bb 02       		.byte	0x2
 2566 03bc 23       		.byte	0x23
 2567 03bd 18       		.uleb128 0x18
 2568 03be 00       		.byte	0x0
 2569 03bf 04       		.uleb128 0x4
 2570 03c0 57030000 		.4byte	.LASF55
 2571 03c4 08       		.byte	0x8
 2572 03c5 64       		.byte	0x64
 2573 03c6 62030000 		.4byte	0x362
 2574 03ca 05       		.uleb128 0x5
 2575 03cb 46030000 		.4byte	.LASF56
 2576 03cf 0C       		.byte	0xc
 2577 03d0 09       		.byte	0x9
 2578 03d1 25       		.byte	0x25
 2579 03d2 F3030000 		.4byte	0x3f3
 2580 03d6 06       		.uleb128 0x6
 2581 03d7 D2000000 		.4byte	.LASF57
 2582 03db 09       		.byte	0x9
 2583 03dc 26       		.byte	0x26
 2584 03dd 67020000 		.4byte	0x267
 2585 03e1 02       		.byte	0x2
 2586 03e2 23       		.byte	0x23
 2587 03e3 00       		.uleb128 0x0
 2588 03e4 06       		.uleb128 0x6
 2589 03e5 2C010000 		.4byte	.LASF58
 2590 03e9 09       		.byte	0x9
 2591 03ea 28       		.byte	0x28
 2592 03eb F3000000 		.4byte	0xf3
 2593 03ef 02       		.byte	0x2
 2594 03f0 23       		.byte	0x23
 2595 03f1 08       		.uleb128 0x8
 2596 03f2 00       		.byte	0x0
 2597 03f3 04       		.uleb128 0x4
 2598 03f4 46030000 		.4byte	.LASF56
 2599 03f8 09       		.byte	0x9
 2600 03f9 29       		.byte	0x29
 2601 03fa CA030000 		.4byte	0x3ca
 2602 03fe 05       		.uleb128 0x5
 2603 03ff 7E010000 		.4byte	.LASF59
ARM GAS  C:\Users\DNIEL~1\AppData\Local\Temp\cctsnRq7.s 			page 48


 2604 0403 10       		.byte	0x10
 2605 0404 0A       		.byte	0xa
 2606 0405 25       		.byte	0x25
 2607 0406 35040000 		.4byte	0x435
 2608 040a 06       		.uleb128 0x6
 2609 040b 9A000000 		.4byte	.LASF60
 2610 040f 0A       		.byte	0xa
 2611 0410 26       		.byte	0x26
 2612 0411 67020000 		.4byte	0x267
 2613 0415 02       		.byte	0x2
 2614 0416 23       		.byte	0x23
 2615 0417 00       		.uleb128 0x0
 2616 0418 06       		.uleb128 0x6
 2617 0419 95030000 		.4byte	.LASF61
 2618 041d 0A       		.byte	0xa
 2619 041e 28       		.byte	0x28
 2620 041f 61020000 		.4byte	0x261
 2621 0423 02       		.byte	0x2
 2622 0424 23       		.byte	0x23
 2623 0425 08       		.uleb128 0x8
 2624 0426 06       		.uleb128 0x6
 2625 0427 FB020000 		.4byte	.LASF62
 2626 042b 0A       		.byte	0xa
 2627 042c 2A       		.byte	0x2a
 2628 042d 35040000 		.4byte	0x435
 2629 0431 02       		.byte	0x2
 2630 0432 23       		.byte	0x23
 2631 0433 0C       		.uleb128 0xc
 2632 0434 00       		.byte	0x0
 2633 0435 09       		.uleb128 0x9
 2634 0436 04       		.byte	0x4
 2635 0437 FE030000 		.4byte	0x3fe
 2636 043b 04       		.uleb128 0x4
 2637 043c 7E010000 		.4byte	.LASF59
 2638 0440 0A       		.byte	0xa
 2639 0441 2C       		.byte	0x2c
 2640 0442 FE030000 		.4byte	0x3fe
 2641 0446 0E       		.uleb128 0xe
 2642 0447 04       		.byte	0x4
 2643 0448 06       		.byte	0x6
 2644 0449 8F       		.byte	0x8f
 2645 044a 7B040000 		.4byte	0x47b
 2646 044e 0F       		.uleb128 0xf
 2647 044f 20000000 		.4byte	.LASF63
 2648 0453 06       		.byte	0x6
 2649 0454 96       		.byte	0x96
 2650 0455 D2000000 		.4byte	0xd2
 2651 0459 0F       		.uleb128 0xf
 2652 045a 47000000 		.4byte	.LASF64
 2653 045e 06       		.byte	0x6
 2654 045f 9D       		.byte	0x9d
 2655 0460 D2000000 		.4byte	0xd2
 2656 0464 0F       		.uleb128 0xf
 2657 0465 7B030000 		.4byte	.LASF65
 2658 0469 06       		.byte	0x6
 2659 046a A4       		.byte	0xa4
 2660 046b 9F020000 		.4byte	0x29f
ARM GAS  C:\Users\DNIEL~1\AppData\Local\Temp\cctsnRq7.s 			page 49


 2661 046f 0F       		.uleb128 0xf
 2662 0470 94020000 		.4byte	.LASF66
 2663 0474 06       		.byte	0x6
 2664 0475 AB       		.byte	0xab
 2665 0476 DD000000 		.4byte	0xdd
 2666 047a 00       		.byte	0x0
 2667 047b 09       		.uleb128 0x9
 2668 047c 04       		.byte	0x4
 2669 047d 81040000 		.4byte	0x481
 2670 0481 10       		.uleb128 0x10
 2671 0482 86040000 		.4byte	0x486
 2672 0486 03       		.uleb128 0x3
 2673 0487 01       		.byte	0x1
 2674 0488 08       		.byte	0x8
 2675 0489 D8020000 		.4byte	.LASF67
 2676 048d 09       		.uleb128 0x9
 2677 048e 04       		.byte	0x4
 2678 048f A1020000 		.4byte	0x2a1
 2679 0493 09       		.uleb128 0x9
 2680 0494 04       		.byte	0x4
 2681 0495 3B040000 		.4byte	0x43b
 2682 0499 11       		.uleb128 0x11
 2683 049a 28030000 		.4byte	.LASF68
 2684 049e 02       		.byte	0x2
 2685 049f 3B       		.byte	0x3b
 2686 04a0 01       		.byte	0x1
 2687 04a1 61020000 		.4byte	0x261
 2688 04a5 03       		.byte	0x3
 2689 04a6 C0040000 		.4byte	0x4c0
 2690 04aa 12       		.uleb128 0x12
 2691 04ab 74717000 		.ascii	"tqp\000"
 2692 04af 02       		.byte	0x2
 2693 04b0 3B       		.byte	0x3b
 2694 04b1 C0040000 		.4byte	0x4c0
 2695 04b5 13       		.uleb128 0x13
 2696 04b6 747000   		.ascii	"tp\000"
 2697 04b9 02       		.byte	0x2
 2698 04ba 3C       		.byte	0x3c
 2699 04bb 61020000 		.4byte	0x261
 2700 04bf 00       		.byte	0x0
 2701 04c0 09       		.uleb128 0x9
 2702 04c1 04       		.byte	0x4
 2703 04c2 67020000 		.4byte	0x267
 2704 04c6 14       		.uleb128 0x14
 2705 04c7 06000000 		.4byte	.LASF86
 2706 04cb 02       		.byte	0x2
 2707 04cc 2D       		.byte	0x2d
 2708 04cd 01       		.byte	0x1
 2709 04ce 03       		.byte	0x3
 2710 04cf E9040000 		.4byte	0x4e9
 2711 04d3 12       		.uleb128 0x12
 2712 04d4 747000   		.ascii	"tp\000"
 2713 04d7 02       		.byte	0x2
 2714 04d8 2D       		.byte	0x2d
 2715 04d9 61020000 		.4byte	0x261
 2716 04dd 12       		.uleb128 0x12
 2717 04de 74717000 		.ascii	"tqp\000"
ARM GAS  C:\Users\DNIEL~1\AppData\Local\Temp\cctsnRq7.s 			page 50


 2718 04e2 02       		.byte	0x2
 2719 04e3 2D       		.byte	0x2d
 2720 04e4 C0040000 		.4byte	0x4c0
 2721 04e8 00       		.byte	0x0
 2722 04e9 11       		.uleb128 0x11
 2723 04ea DD020000 		.4byte	.LASF69
 2724 04ee 02       		.byte	0x2
 2725 04ef 34       		.byte	0x34
 2726 04f0 01       		.byte	0x1
 2727 04f1 61020000 		.4byte	0x261
 2728 04f5 03       		.byte	0x3
 2729 04f6 10050000 		.4byte	0x510
 2730 04fa 12       		.uleb128 0x12
 2731 04fb 74717000 		.ascii	"tqp\000"
 2732 04ff 02       		.byte	0x2
 2733 0500 34       		.byte	0x34
 2734 0501 C0040000 		.4byte	0x4c0
 2735 0505 13       		.uleb128 0x13
 2736 0506 747000   		.ascii	"tp\000"
 2737 0509 02       		.byte	0x2
 2738 050a 35       		.byte	0x35
 2739 050b 61020000 		.4byte	0x261
 2740 050f 00       		.byte	0x0
 2741 0510 15       		.uleb128 0x15
 2742 0511 01       		.byte	0x1
 2743 0512 AD030000 		.4byte	.LASF70
 2744 0516 01       		.byte	0x1
 2745 0517 4F       		.byte	0x4f
 2746 0518 01       		.byte	0x1
 2747 0519 00000000 		.4byte	.LFB7
 2748 051d 28000000 		.4byte	.LFE7
 2749 0521 00000000 		.4byte	.LLST0
 2750 0525 45050000 		.4byte	0x545
 2751 0529 16       		.uleb128 0x16
 2752 052a 737000   		.ascii	"sp\000"
 2753 052d 01       		.byte	0x1
 2754 052e 4F       		.byte	0x4f
 2755 052f 45050000 		.4byte	0x545
 2756 0533 20000000 		.4byte	.LLST1
 2757 0537 16       		.uleb128 0x16
 2758 0538 6E00     		.ascii	"n\000"
 2759 053a 01       		.byte	0x1
 2760 053b 4F       		.byte	0x4f
 2761 053c F3000000 		.4byte	0xf3
 2762 0540 3E000000 		.4byte	.LLST2
 2763 0544 00       		.byte	0x0
 2764 0545 09       		.uleb128 0x9
 2765 0546 04       		.byte	0x4
 2766 0547 F3030000 		.4byte	0x3f3
 2767 054b 15       		.uleb128 0x15
 2768 054c 01       		.byte	0x1
 2769 054d 61030000 		.4byte	.LASF71
 2770 0551 01       		.byte	0x1
 2771 0552 81       		.byte	0x81
 2772 0553 01       		.byte	0x1
 2773 0554 00000000 		.4byte	.LFB9
 2774 0558 A4000000 		.4byte	.LFE9
ARM GAS  C:\Users\DNIEL~1\AppData\Local\Temp\cctsnRq7.s 			page 51


 2775 055c 5C000000 		.4byte	.LLST3
 2776 0560 B5050000 		.4byte	0x5b5
 2777 0564 16       		.uleb128 0x16
 2778 0565 737000   		.ascii	"sp\000"
 2779 0568 01       		.byte	0x1
 2780 0569 81       		.byte	0x81
 2781 056a 45050000 		.4byte	0x545
 2782 056e 7C000000 		.4byte	.LLST4
 2783 0572 16       		.uleb128 0x16
 2784 0573 6E00     		.ascii	"n\000"
 2785 0575 01       		.byte	0x1
 2786 0576 81       		.byte	0x81
 2787 0577 F3000000 		.4byte	0xf3
 2788 057b 9A000000 		.4byte	.LLST5
 2789 057f 17       		.uleb128 0x17
 2790 0580 636E7400 		.ascii	"cnt\000"
 2791 0584 01       		.byte	0x1
 2792 0585 82       		.byte	0x82
 2793 0586 F3000000 		.4byte	0xf3
 2794 058a CF000000 		.4byte	.LLST6
 2795 058e 18       		.uleb128 0x18
 2796 058f 99040000 		.4byte	0x499
 2797 0593 2E000000 		.4byte	.LBB24
 2798 0597 00000000 		.4byte	.Ldebug_ranges0+0x0
 2799 059b 01       		.byte	0x1
 2800 059c 8E       		.byte	0x8e
 2801 059d 19       		.uleb128 0x19
 2802 059e AA040000 		.4byte	0x4aa
 2803 05a2 FA000000 		.4byte	.LLST7
 2804 05a6 1A       		.uleb128 0x1a
 2805 05a7 50000000 		.4byte	.Ldebug_ranges0+0x50
 2806 05ab 1B       		.uleb128 0x1b
 2807 05ac B5040000 		.4byte	0x4b5
 2808 05b0 01       		.byte	0x1
 2809 05b1 50       		.byte	0x50
 2810 05b2 00       		.byte	0x0
 2811 05b3 00       		.byte	0x0
 2812 05b4 00       		.byte	0x0
 2813 05b5 15       		.uleb128 0x15
 2814 05b6 01       		.byte	0x1
 2815 05b7 4D010000 		.4byte	.LASF72
 2816 05bb 01       		.byte	0x1
 2817 05bc 66       		.byte	0x66
 2818 05bd 01       		.byte	0x1
 2819 05be 00000000 		.4byte	.LFB8
 2820 05c2 28000000 		.4byte	.LFE8
 2821 05c6 18010000 		.4byte	.LLST8
 2822 05ca 20060000 		.4byte	0x620
 2823 05ce 16       		.uleb128 0x16
 2824 05cf 737000   		.ascii	"sp\000"
 2825 05d2 01       		.byte	0x1
 2826 05d3 66       		.byte	0x66
 2827 05d4 45050000 		.4byte	0x545
 2828 05d8 38010000 		.4byte	.LLST9
 2829 05dc 16       		.uleb128 0x16
 2830 05dd 6E00     		.ascii	"n\000"
 2831 05df 01       		.byte	0x1
ARM GAS  C:\Users\DNIEL~1\AppData\Local\Temp\cctsnRq7.s 			page 52


 2832 05e0 66       		.byte	0x66
 2833 05e1 F3000000 		.4byte	0xf3
 2834 05e5 56010000 		.4byte	.LLST10
 2835 05e9 1C       		.uleb128 0x1c
 2836 05ea 06000000 		.4byte	.LBB42
 2837 05ee 0C000000 		.4byte	.LBE42
 2838 05f2 06060000 		.4byte	0x606
 2839 05f6 17       		.uleb128 0x17
 2840 05f7 746D7000 		.ascii	"tmp\000"
 2841 05fb 01       		.byte	0x1
 2842 05fc 68       		.byte	0x68
 2843 05fd 70000000 		.4byte	0x70
 2844 0601 74010000 		.4byte	.LLST11
 2845 0605 00       		.byte	0x0
 2846 0606 1D       		.uleb128 0x1d
 2847 0607 20000000 		.4byte	.LBB43
 2848 060b 26000000 		.4byte	.LBE43
 2849 060f 17       		.uleb128 0x17
 2850 0610 746D7000 		.ascii	"tmp\000"
 2851 0614 01       		.byte	0x1
 2852 0615 6B       		.byte	0x6b
 2853 0616 70000000 		.4byte	0x70
 2854 061a 87010000 		.4byte	.LLST12
 2855 061e 00       		.byte	0x0
 2856 061f 00       		.byte	0x0
 2857 0620 1E       		.uleb128 0x1e
 2858 0621 01       		.byte	0x1
 2859 0622 AA020000 		.4byte	.LASF73
 2860 0626 01       		.byte	0x1
 2861 0627 B2       		.byte	0xb2
 2862 0628 01       		.byte	0x1
 2863 0629 D2000000 		.4byte	0xd2
 2864 062d 00000000 		.4byte	.LFB11
 2865 0631 6C000000 		.4byte	.LFE11
 2866 0635 9A010000 		.4byte	.LLST13
 2867 0639 6E060000 		.4byte	0x66e
 2868 063d 16       		.uleb128 0x16
 2869 063e 737000   		.ascii	"sp\000"
 2870 0641 01       		.byte	0x1
 2871 0642 B2       		.byte	0xb2
 2872 0643 45050000 		.4byte	0x545
 2873 0647 BA010000 		.4byte	.LLST14
 2874 064b 1F       		.uleb128 0x1f
 2875 064c C6040000 		.4byte	0x4c6
 2876 0650 42000000 		.4byte	.LBB44
 2877 0654 4C000000 		.4byte	.LBE44
 2878 0658 01       		.byte	0x1
 2879 0659 BD       		.byte	0xbd
 2880 065a 19       		.uleb128 0x19
 2881 065b DD040000 		.4byte	0x4dd
 2882 065f D8010000 		.4byte	.LLST15
 2883 0663 19       		.uleb128 0x19
 2884 0664 D3040000 		.4byte	0x4d3
 2885 0668 EB010000 		.4byte	.LLST16
 2886 066c 00       		.byte	0x0
 2887 066d 00       		.byte	0x0
 2888 066e 1E       		.uleb128 0x1e
ARM GAS  C:\Users\DNIEL~1\AppData\Local\Temp\cctsnRq7.s 			page 53


 2889 066f 01       		.byte	0x1
 2890 0670 17030000 		.4byte	.LASF74
 2891 0674 01       		.byte	0x1
 2892 0675 9D       		.byte	0x9d
 2893 0676 01       		.byte	0x1
 2894 0677 D2000000 		.4byte	0xd2
 2895 067b 00000000 		.4byte	.LFB10
 2896 067f 24000000 		.4byte	.LFE10
 2897 0683 FF010000 		.4byte	.LLST17
 2898 0687 DB060000 		.4byte	0x6db
 2899 068b 16       		.uleb128 0x16
 2900 068c 737000   		.ascii	"sp\000"
 2901 068f 01       		.byte	0x1
 2902 0690 9D       		.byte	0x9d
 2903 0691 45050000 		.4byte	0x545
 2904 0695 1F020000 		.4byte	.LLST18
 2905 0699 17       		.uleb128 0x17
 2906 069a 6D736700 		.ascii	"msg\000"
 2907 069e 01       		.byte	0x1
 2908 069f 9E       		.byte	0x9e
 2909 06a0 D2000000 		.4byte	0xd2
 2910 06a4 3D020000 		.4byte	.LLST19
 2911 06a8 20       		.uleb128 0x20
 2912 06a9 A0000000 		.4byte	.Ldebug_ranges0+0xa0
 2913 06ad C1060000 		.4byte	0x6c1
 2914 06b1 17       		.uleb128 0x17
 2915 06b2 746D7000 		.ascii	"tmp\000"
 2916 06b6 01       		.byte	0x1
 2917 06b7 A0       		.byte	0xa0
 2918 06b8 70000000 		.4byte	0x70
 2919 06bc 5B020000 		.4byte	.LLST20
 2920 06c0 00       		.byte	0x0
 2921 06c1 1D       		.uleb128 0x1d
 2922 06c2 1A000000 		.4byte	.LBB48
 2923 06c6 20000000 		.4byte	.LBE48
 2924 06ca 17       		.uleb128 0x17
 2925 06cb 746D7000 		.ascii	"tmp\000"
 2926 06cf 01       		.byte	0x1
 2927 06d0 A2       		.byte	0xa2
 2928 06d1 70000000 		.4byte	0x70
 2929 06d5 6E020000 		.4byte	.LLST21
 2930 06d9 00       		.byte	0x0
 2931 06da 00       		.byte	0x0
 2932 06db 1E       		.uleb128 0x1e
 2933 06dc 01       		.byte	0x1
 2934 06dd E9020000 		.4byte	.LASF75
 2935 06e1 01       		.byte	0x1
 2936 06e2 F3       		.byte	0xf3
 2937 06e3 01       		.byte	0x1
 2938 06e4 D2000000 		.4byte	0xd2
 2939 06e8 00000000 		.4byte	.LFB13
 2940 06ec 78000000 		.4byte	.LFE13
 2941 06f0 81020000 		.4byte	.LLST22
 2942 06f4 35070000 		.4byte	0x735
 2943 06f8 16       		.uleb128 0x16
 2944 06f9 737000   		.ascii	"sp\000"
 2945 06fc 01       		.byte	0x1
ARM GAS  C:\Users\DNIEL~1\AppData\Local\Temp\cctsnRq7.s 			page 54


 2946 06fd F3       		.byte	0xf3
 2947 06fe 45050000 		.4byte	0x545
 2948 0702 A1020000 		.4byte	.LLST23
 2949 0706 21       		.uleb128 0x21
 2950 0707 AA010000 		.4byte	.LASF76
 2951 070b 01       		.byte	0x1
 2952 070c F3       		.byte	0xf3
 2953 070d E8000000 		.4byte	0xe8
 2954 0711 BF020000 		.4byte	.LLST24
 2955 0715 22       		.uleb128 0x22
 2956 0716 C6040000 		.4byte	0x4c6
 2957 071a 48000000 		.4byte	.LBB49
 2958 071e 52000000 		.4byte	.LBE49
 2959 0722 01       		.byte	0x1
 2960 0723 0201     		.2byte	0x102
 2961 0725 19       		.uleb128 0x19
 2962 0726 DD040000 		.4byte	0x4dd
 2963 072a DD020000 		.4byte	.LLST25
 2964 072e 23       		.uleb128 0x23
 2965 072f D3040000 		.4byte	0x4d3
 2966 0733 00       		.byte	0x0
 2967 0734 00       		.byte	0x0
 2968 0735 1E       		.uleb128 0x1e
 2969 0736 01       		.byte	0x1
 2970 0737 09010000 		.4byte	.LASF77
 2971 073b 01       		.byte	0x1
 2972 073c D7       		.byte	0xd7
 2973 073d 01       		.byte	0x1
 2974 073e D2000000 		.4byte	0xd2
 2975 0742 00000000 		.4byte	.LFB12
 2976 0746 28000000 		.4byte	.LFE12
 2977 074a F0020000 		.4byte	.LLST26
 2978 074e B5070000 		.4byte	0x7b5
 2979 0752 16       		.uleb128 0x16
 2980 0753 737000   		.ascii	"sp\000"
 2981 0756 01       		.byte	0x1
 2982 0757 D7       		.byte	0xd7
 2983 0758 45050000 		.4byte	0x545
 2984 075c 10030000 		.4byte	.LLST27
 2985 0760 21       		.uleb128 0x21
 2986 0761 AA010000 		.4byte	.LASF76
 2987 0765 01       		.byte	0x1
 2988 0766 D7       		.byte	0xd7
 2989 0767 E8000000 		.4byte	0xe8
 2990 076b 2E030000 		.4byte	.LLST28
 2991 076f 17       		.uleb128 0x17
 2992 0770 6D736700 		.ascii	"msg\000"
 2993 0774 01       		.byte	0x1
 2994 0775 D8       		.byte	0xd8
 2995 0776 D2000000 		.4byte	0xd2
 2996 077a 4C030000 		.4byte	.LLST29
 2997 077e 1C       		.uleb128 0x1c
 2998 077f 06000000 		.4byte	.LBB51
 2999 0783 0C000000 		.4byte	.LBE51
 3000 0787 9B070000 		.4byte	0x79b
 3001 078b 17       		.uleb128 0x17
 3002 078c 746D7000 		.ascii	"tmp\000"
ARM GAS  C:\Users\DNIEL~1\AppData\Local\Temp\cctsnRq7.s 			page 55


 3003 0790 01       		.byte	0x1
 3004 0791 DA       		.byte	0xda
 3005 0792 70000000 		.4byte	0x70
 3006 0796 6A030000 		.4byte	.LLST30
 3007 079a 00       		.byte	0x0
 3008 079b 1D       		.uleb128 0x1d
 3009 079c 1E000000 		.4byte	.LBB52
 3010 07a0 24000000 		.4byte	.LBE52
 3011 07a4 17       		.uleb128 0x17
 3012 07a5 746D7000 		.ascii	"tmp\000"
 3013 07a9 01       		.byte	0x1
 3014 07aa DC       		.byte	0xdc
 3015 07ab 70000000 		.4byte	0x70
 3016 07af 7D030000 		.4byte	.LLST31
 3017 07b3 00       		.byte	0x0
 3018 07b4 00       		.byte	0x0
 3019 07b5 24       		.uleb128 0x24
 3020 07b6 01       		.byte	0x1
 3021 07b7 BE000000 		.4byte	.LASF78
 3022 07bb 01       		.byte	0x1
 3023 07bc 0F01     		.2byte	0x10f
 3024 07be 01       		.byte	0x1
 3025 07bf 00000000 		.4byte	.LFB14
 3026 07c3 80000000 		.4byte	.LFE14
 3027 07c7 90030000 		.4byte	.LLST32
 3028 07cb 3C080000 		.4byte	0x83c
 3029 07cf 25       		.uleb128 0x25
 3030 07d0 737000   		.ascii	"sp\000"
 3031 07d3 01       		.byte	0x1
 3032 07d4 0F01     		.2byte	0x10f
 3033 07d6 45050000 		.4byte	0x545
 3034 07da B0030000 		.4byte	.LLST33
 3035 07de 20       		.uleb128 0x20
 3036 07df B8000000 		.4byte	.Ldebug_ranges0+0xb8
 3037 07e3 F8070000 		.4byte	0x7f8
 3038 07e7 26       		.uleb128 0x26
 3039 07e8 746D7000 		.ascii	"tmp\000"
 3040 07ec 01       		.byte	0x1
 3041 07ed 1701     		.2byte	0x117
 3042 07ef 70000000 		.4byte	0x70
 3043 07f3 CE030000 		.4byte	.LLST34
 3044 07f7 00       		.byte	0x0
 3045 07f8 20       		.uleb128 0x20
 3046 07f9 D0000000 		.4byte	.Ldebug_ranges0+0xd0
 3047 07fd 12080000 		.4byte	0x812
 3048 0801 26       		.uleb128 0x26
 3049 0802 746D7000 		.ascii	"tmp\000"
 3050 0806 01       		.byte	0x1
 3051 0807 1A01     		.2byte	0x11a
 3052 0809 70000000 		.4byte	0x70
 3053 080d EC030000 		.4byte	.LLST35
 3054 0811 00       		.byte	0x0
 3055 0812 27       		.uleb128 0x27
 3056 0813 E9040000 		.4byte	0x4e9
 3057 0817 54000000 		.4byte	.LBB56
 3058 081b E8000000 		.4byte	.Ldebug_ranges0+0xe8
 3059 081f 01       		.byte	0x1
ARM GAS  C:\Users\DNIEL~1\AppData\Local\Temp\cctsnRq7.s 			page 56


 3060 0820 1901     		.2byte	0x119
 3061 0822 19       		.uleb128 0x19
 3062 0823 FA040000 		.4byte	0x4fa
 3063 0827 0A040000 		.4byte	.LLST36
 3064 082b 1A       		.uleb128 0x1a
 3065 082c 00010000 		.4byte	.Ldebug_ranges0+0x100
 3066 0830 28       		.uleb128 0x28
 3067 0831 05050000 		.4byte	0x505
 3068 0835 1D040000 		.4byte	.LLST37
 3069 0839 00       		.byte	0x0
 3070 083a 00       		.byte	0x0
 3071 083b 00       		.byte	0x0
 3072 083c 24       		.uleb128 0x24
 3073 083d 01       		.byte	0x1
 3074 083e 13000000 		.4byte	.LASF79
 3075 0842 01       		.byte	0x1
 3076 0843 2801     		.2byte	0x128
 3077 0845 01       		.byte	0x1
 3078 0846 00000000 		.4byte	.LFB15
 3079 084a 60000000 		.4byte	.LFE15
 3080 084e 31040000 		.4byte	.LLST38
 3081 0852 A2080000 		.4byte	0x8a2
 3082 0856 25       		.uleb128 0x25
 3083 0857 737000   		.ascii	"sp\000"
 3084 085a 01       		.byte	0x1
 3085 085b 2801     		.2byte	0x128
 3086 085d 45050000 		.4byte	0x545
 3087 0861 51040000 		.4byte	.LLST39
 3088 0865 1A       		.uleb128 0x1a
 3089 0866 18010000 		.4byte	.Ldebug_ranges0+0x118
 3090 086a 29       		.uleb128 0x29
 3091 086b 747000   		.ascii	"tp\000"
 3092 086e 01       		.byte	0x1
 3093 086f 3401     		.2byte	0x134
 3094 0871 61020000 		.4byte	0x261
 3095 0875 01       		.byte	0x1
 3096 0876 53       		.byte	0x53
 3097 0877 27       		.uleb128 0x27
 3098 0878 E9040000 		.4byte	0x4e9
 3099 087c 38000000 		.4byte	.LBB64
 3100 0880 30010000 		.4byte	.Ldebug_ranges0+0x130
 3101 0884 01       		.byte	0x1
 3102 0885 3401     		.2byte	0x134
 3103 0887 19       		.uleb128 0x19
 3104 0888 FA040000 		.4byte	0x4fa
 3105 088c 6F040000 		.4byte	.LLST40
 3106 0890 1A       		.uleb128 0x1a
 3107 0891 50010000 		.4byte	.Ldebug_ranges0+0x150
 3108 0895 28       		.uleb128 0x28
 3109 0896 05050000 		.4byte	0x505
 3110 089a 82040000 		.4byte	.LLST41
 3111 089e 00       		.byte	0x0
 3112 089f 00       		.byte	0x0
 3113 08a0 00       		.byte	0x0
 3114 08a1 00       		.byte	0x0
 3115 08a2 24       		.uleb128 0x24
 3116 08a3 01       		.byte	0x1
ARM GAS  C:\Users\DNIEL~1\AppData\Local\Temp\cctsnRq7.s 			page 57


 3117 08a4 50000000 		.4byte	.LASF80
 3118 08a8 01       		.byte	0x1
 3119 08a9 4701     		.2byte	0x147
 3120 08ab 01       		.byte	0x1
 3121 08ac 00000000 		.4byte	.LFB16
 3122 08b0 D4000000 		.4byte	.LFE16
 3123 08b4 96040000 		.4byte	.LLST42
 3124 08b8 03090000 		.4byte	0x903
 3125 08bc 25       		.uleb128 0x25
 3126 08bd 737000   		.ascii	"sp\000"
 3127 08c0 01       		.byte	0x1
 3128 08c1 4701     		.2byte	0x147
 3129 08c3 45050000 		.4byte	0x545
 3130 08c7 B6040000 		.4byte	.LLST43
 3131 08cb 25       		.uleb128 0x25
 3132 08cc 6E00     		.ascii	"n\000"
 3133 08ce 01       		.byte	0x1
 3134 08cf 4701     		.2byte	0x147
 3135 08d1 F3000000 		.4byte	0xf3
 3136 08d5 D4040000 		.4byte	.LLST44
 3137 08d9 27       		.uleb128 0x27
 3138 08da E9040000 		.4byte	0x4e9
 3139 08de 6A000000 		.4byte	.LBB69
 3140 08e2 70010000 		.4byte	.Ldebug_ranges0+0x170
 3141 08e6 01       		.byte	0x1
 3142 08e7 5201     		.2byte	0x152
 3143 08e9 19       		.uleb128 0x19
 3144 08ea FA040000 		.4byte	0x4fa
 3145 08ee FD040000 		.4byte	.LLST45
 3146 08f2 1A       		.uleb128 0x1a
 3147 08f3 98010000 		.4byte	.Ldebug_ranges0+0x198
 3148 08f7 28       		.uleb128 0x28
 3149 08f8 05050000 		.4byte	0x505
 3150 08fc 31050000 		.4byte	.LLST46
 3151 0900 00       		.byte	0x0
 3152 0901 00       		.byte	0x0
 3153 0902 00       		.byte	0x0
 3154 0903 2A       		.uleb128 0x2a
 3155 0904 01       		.byte	0x1
 3156 0905 82000000 		.4byte	.LASF81
 3157 0909 01       		.byte	0x1
 3158 090a 6701     		.2byte	0x167
 3159 090c 01       		.byte	0x1
 3160 090d D2000000 		.4byte	0xd2
 3161 0911 00000000 		.4byte	.LFB17
 3162 0915 E4000000 		.4byte	.LFE17
 3163 0919 45050000 		.4byte	.LLST47
 3164 091d F4090000 		.4byte	0x9f4
 3165 0921 25       		.uleb128 0x25
 3166 0922 73707300 		.ascii	"sps\000"
 3167 0926 01       		.byte	0x1
 3168 0927 6701     		.2byte	0x167
 3169 0929 45050000 		.4byte	0x545
 3170 092d 65050000 		.4byte	.LLST48
 3171 0931 25       		.uleb128 0x25
 3172 0932 73707700 		.ascii	"spw\000"
 3173 0936 01       		.byte	0x1
ARM GAS  C:\Users\DNIEL~1\AppData\Local\Temp\cctsnRq7.s 			page 58


 3174 0937 6701     		.2byte	0x167
 3175 0939 45050000 		.4byte	0x545
 3176 093d A4050000 		.4byte	.LLST49
 3177 0941 26       		.uleb128 0x26
 3178 0942 6D736700 		.ascii	"msg\000"
 3179 0946 01       		.byte	0x1
 3180 0947 6801     		.2byte	0x168
 3181 0949 D2000000 		.4byte	0xd2
 3182 094d C2050000 		.4byte	.LLST50
 3183 0951 20       		.uleb128 0x20
 3184 0952 C0010000 		.4byte	.Ldebug_ranges0+0x1c0
 3185 0956 6B090000 		.4byte	0x96b
 3186 095a 26       		.uleb128 0x26
 3187 095b 746D7000 		.ascii	"tmp\000"
 3188 095f 01       		.byte	0x1
 3189 0960 7401     		.2byte	0x174
 3190 0962 70000000 		.4byte	0x70
 3191 0966 EC050000 		.4byte	.LLST51
 3192 096a 00       		.byte	0x0
 3193 096b 20       		.uleb128 0x20
 3194 096c D8010000 		.4byte	.Ldebug_ranges0+0x1d8
 3195 0970 85090000 		.4byte	0x985
 3196 0974 26       		.uleb128 0x26
 3197 0975 746D7000 		.ascii	"tmp\000"
 3198 0979 01       		.byte	0x1
 3199 097a 8201     		.2byte	0x182
 3200 097c 70000000 		.4byte	0x70
 3201 0980 0A060000 		.4byte	.LLST52
 3202 0984 00       		.byte	0x0
 3203 0985 2B       		.uleb128 0x2b
 3204 0986 E9040000 		.4byte	0x4e9
 3205 098a 8A000000 		.4byte	.LBB80
 3206 098e 92000000 		.4byte	.LBE80
 3207 0992 01       		.byte	0x1
 3208 0993 7601     		.2byte	0x176
 3209 0995 B6090000 		.4byte	0x9b6
 3210 0999 19       		.uleb128 0x19
 3211 099a FA040000 		.4byte	0x4fa
 3212 099e 28060000 		.4byte	.LLST53
 3213 09a2 1D       		.uleb128 0x1d
 3214 09a3 8A000000 		.4byte	.LBB81
 3215 09a7 92000000 		.4byte	.LBE81
 3216 09ab 28       		.uleb128 0x28
 3217 09ac 05050000 		.4byte	0x505
 3218 09b0 3B060000 		.4byte	.LLST54
 3219 09b4 00       		.byte	0x0
 3220 09b5 00       		.byte	0x0
 3221 09b6 1D       		.uleb128 0x1d
 3222 09b7 A4000000 		.4byte	.LBB82
 3223 09bb BC000000 		.4byte	.LBE82
 3224 09bf 26       		.uleb128 0x26
 3225 09c0 63747000 		.ascii	"ctp\000"
 3226 09c4 01       		.byte	0x1
 3227 09c5 7801     		.2byte	0x178
 3228 09c7 61020000 		.4byte	0x261
 3229 09cb 4F060000 		.4byte	.LLST55
 3230 09cf 27       		.uleb128 0x27
ARM GAS  C:\Users\DNIEL~1\AppData\Local\Temp\cctsnRq7.s 			page 59


 3231 09d0 C6040000 		.4byte	0x4c6
 3232 09d4 A6000000 		.4byte	.LBB83
 3233 09d8 F0010000 		.4byte	.Ldebug_ranges0+0x1f0
 3234 09dc 01       		.byte	0x1
 3235 09dd 7901     		.2byte	0x179
 3236 09df 19       		.uleb128 0x19
 3237 09e0 DD040000 		.4byte	0x4dd
 3238 09e4 6E060000 		.4byte	.LLST56
 3239 09e8 19       		.uleb128 0x19
 3240 09e9 D3040000 		.4byte	0x4d3
 3241 09ed 81060000 		.4byte	.LLST57
 3242 09f1 00       		.byte	0x0
 3243 09f2 00       		.byte	0x0
 3244 09f3 00       		.byte	0x0
 3245 09f4 2C       		.uleb128 0x2c
 3246 09f5 6D030000 		.4byte	.LASF82
 3247 09f9 08       		.byte	0x8
 3248 09fa 68       		.byte	0x68
 3249 09fb BF030000 		.4byte	0x3bf
 3250 09ff 01       		.byte	0x1
 3251 0a00 01       		.byte	0x1
 3252 0a01 2C       		.uleb128 0x2c
 3253 0a02 6D030000 		.4byte	.LASF82
 3254 0a06 08       		.byte	0x8
 3255 0a07 68       		.byte	0x68
 3256 0a08 BF030000 		.4byte	0x3bf
 3257 0a0c 01       		.byte	0x1
 3258 0a0d 01       		.byte	0x1
 3259 0a0e 00       		.byte	0x0
 3260              		.section	.debug_abbrev
 3261 0000 01       		.uleb128 0x1
 3262 0001 11       		.uleb128 0x11
 3263 0002 01       		.byte	0x1
 3264 0003 25       		.uleb128 0x25
 3265 0004 0E       		.uleb128 0xe
 3266 0005 13       		.uleb128 0x13
 3267 0006 0B       		.uleb128 0xb
 3268 0007 03       		.uleb128 0x3
 3269 0008 0E       		.uleb128 0xe
 3270 0009 1B       		.uleb128 0x1b
 3271 000a 0E       		.uleb128 0xe
 3272 000b 11       		.uleb128 0x11
 3273 000c 01       		.uleb128 0x1
 3274 000d 52       		.uleb128 0x52
 3275 000e 01       		.uleb128 0x1
 3276 000f 55       		.uleb128 0x55
 3277 0010 06       		.uleb128 0x6
 3278 0011 10       		.uleb128 0x10
 3279 0012 06       		.uleb128 0x6
 3280 0013 00       		.byte	0x0
 3281 0014 00       		.byte	0x0
 3282 0015 02       		.uleb128 0x2
 3283 0016 24       		.uleb128 0x24
 3284 0017 00       		.byte	0x0
 3285 0018 0B       		.uleb128 0xb
 3286 0019 0B       		.uleb128 0xb
 3287 001a 3E       		.uleb128 0x3e
ARM GAS  C:\Users\DNIEL~1\AppData\Local\Temp\cctsnRq7.s 			page 60


 3288 001b 0B       		.uleb128 0xb
 3289 001c 03       		.uleb128 0x3
 3290 001d 08       		.uleb128 0x8
 3291 001e 00       		.byte	0x0
 3292 001f 00       		.byte	0x0
 3293 0020 03       		.uleb128 0x3
 3294 0021 24       		.uleb128 0x24
 3295 0022 00       		.byte	0x0
 3296 0023 0B       		.uleb128 0xb
 3297 0024 0B       		.uleb128 0xb
 3298 0025 3E       		.uleb128 0x3e
 3299 0026 0B       		.uleb128 0xb
 3300 0027 03       		.uleb128 0x3
 3301 0028 0E       		.uleb128 0xe
 3302 0029 00       		.byte	0x0
 3303 002a 00       		.byte	0x0
 3304 002b 04       		.uleb128 0x4
 3305 002c 16       		.uleb128 0x16
 3306 002d 00       		.byte	0x0
 3307 002e 03       		.uleb128 0x3
 3308 002f 0E       		.uleb128 0xe
 3309 0030 3A       		.uleb128 0x3a
 3310 0031 0B       		.uleb128 0xb
 3311 0032 3B       		.uleb128 0x3b
 3312 0033 0B       		.uleb128 0xb
 3313 0034 49       		.uleb128 0x49
 3314 0035 13       		.uleb128 0x13
 3315 0036 00       		.byte	0x0
 3316 0037 00       		.byte	0x0
 3317 0038 05       		.uleb128 0x5
 3318 0039 13       		.uleb128 0x13
 3319 003a 01       		.byte	0x1
 3320 003b 03       		.uleb128 0x3
 3321 003c 0E       		.uleb128 0xe
 3322 003d 0B       		.uleb128 0xb
 3323 003e 0B       		.uleb128 0xb
 3324 003f 3A       		.uleb128 0x3a
 3325 0040 0B       		.uleb128 0xb
 3326 0041 3B       		.uleb128 0x3b
 3327 0042 0B       		.uleb128 0xb
 3328 0043 01       		.uleb128 0x1
 3329 0044 13       		.uleb128 0x13
 3330 0045 00       		.byte	0x0
 3331 0046 00       		.byte	0x0
 3332 0047 06       		.uleb128 0x6
 3333 0048 0D       		.uleb128 0xd
 3334 0049 00       		.byte	0x0
 3335 004a 03       		.uleb128 0x3
 3336 004b 0E       		.uleb128 0xe
 3337 004c 3A       		.uleb128 0x3a
 3338 004d 0B       		.uleb128 0xb
 3339 004e 3B       		.uleb128 0x3b
 3340 004f 0B       		.uleb128 0xb
 3341 0050 49       		.uleb128 0x49
 3342 0051 13       		.uleb128 0x13
 3343 0052 38       		.uleb128 0x38
 3344 0053 0A       		.uleb128 0xa
ARM GAS  C:\Users\DNIEL~1\AppData\Local\Temp\cctsnRq7.s 			page 61


 3345 0054 00       		.byte	0x0
 3346 0055 00       		.byte	0x0
 3347 0056 07       		.uleb128 0x7
 3348 0057 0D       		.uleb128 0xd
 3349 0058 00       		.byte	0x0
 3350 0059 03       		.uleb128 0x3
 3351 005a 08       		.uleb128 0x8
 3352 005b 3A       		.uleb128 0x3a
 3353 005c 0B       		.uleb128 0xb
 3354 005d 3B       		.uleb128 0x3b
 3355 005e 0B       		.uleb128 0xb
 3356 005f 49       		.uleb128 0x49
 3357 0060 13       		.uleb128 0x13
 3358 0061 38       		.uleb128 0x38
 3359 0062 0A       		.uleb128 0xa
 3360 0063 00       		.byte	0x0
 3361 0064 00       		.byte	0x0
 3362 0065 08       		.uleb128 0x8
 3363 0066 13       		.uleb128 0x13
 3364 0067 01       		.byte	0x1
 3365 0068 0B       		.uleb128 0xb
 3366 0069 0B       		.uleb128 0xb
 3367 006a 3A       		.uleb128 0x3a
 3368 006b 0B       		.uleb128 0xb
 3369 006c 3B       		.uleb128 0x3b
 3370 006d 0B       		.uleb128 0xb
 3371 006e 01       		.uleb128 0x1
 3372 006f 13       		.uleb128 0x13
 3373 0070 00       		.byte	0x0
 3374 0071 00       		.byte	0x0
 3375 0072 09       		.uleb128 0x9
 3376 0073 0F       		.uleb128 0xf
 3377 0074 00       		.byte	0x0
 3378 0075 0B       		.uleb128 0xb
 3379 0076 0B       		.uleb128 0xb
 3380 0077 49       		.uleb128 0x49
 3381 0078 13       		.uleb128 0x13
 3382 0079 00       		.byte	0x0
 3383 007a 00       		.byte	0x0
 3384 007b 0A       		.uleb128 0xa
 3385 007c 0F       		.uleb128 0xf
 3386 007d 00       		.byte	0x0
 3387 007e 0B       		.uleb128 0xb
 3388 007f 0B       		.uleb128 0xb
 3389 0080 00       		.byte	0x0
 3390 0081 00       		.byte	0x0
 3391 0082 0B       		.uleb128 0xb
 3392 0083 13       		.uleb128 0x13
 3393 0084 01       		.byte	0x1
 3394 0085 03       		.uleb128 0x3
 3395 0086 0E       		.uleb128 0xe
 3396 0087 0B       		.uleb128 0xb
 3397 0088 0B       		.uleb128 0xb
 3398 0089 3A       		.uleb128 0x3a
 3399 008a 0B       		.uleb128 0xb
 3400 008b 3B       		.uleb128 0x3b
 3401 008c 05       		.uleb128 0x5
ARM GAS  C:\Users\DNIEL~1\AppData\Local\Temp\cctsnRq7.s 			page 62


 3402 008d 01       		.uleb128 0x1
 3403 008e 13       		.uleb128 0x13
 3404 008f 00       		.byte	0x0
 3405 0090 00       		.byte	0x0
 3406 0091 0C       		.uleb128 0xc
 3407 0092 0D       		.uleb128 0xd
 3408 0093 00       		.byte	0x0
 3409 0094 03       		.uleb128 0x3
 3410 0095 08       		.uleb128 0x8
 3411 0096 3A       		.uleb128 0x3a
 3412 0097 0B       		.uleb128 0xb
 3413 0098 3B       		.uleb128 0x3b
 3414 0099 05       		.uleb128 0x5
 3415 009a 49       		.uleb128 0x49
 3416 009b 13       		.uleb128 0x13
 3417 009c 38       		.uleb128 0x38
 3418 009d 0A       		.uleb128 0xa
 3419 009e 00       		.byte	0x0
 3420 009f 00       		.byte	0x0
 3421 00a0 0D       		.uleb128 0xd
 3422 00a1 35       		.uleb128 0x35
 3423 00a2 00       		.byte	0x0
 3424 00a3 49       		.uleb128 0x49
 3425 00a4 13       		.uleb128 0x13
 3426 00a5 00       		.byte	0x0
 3427 00a6 00       		.byte	0x0
 3428 00a7 0E       		.uleb128 0xe
 3429 00a8 17       		.uleb128 0x17
 3430 00a9 01       		.byte	0x1
 3431 00aa 0B       		.uleb128 0xb
 3432 00ab 0B       		.uleb128 0xb
 3433 00ac 3A       		.uleb128 0x3a
 3434 00ad 0B       		.uleb128 0xb
 3435 00ae 3B       		.uleb128 0x3b
 3436 00af 0B       		.uleb128 0xb
 3437 00b0 01       		.uleb128 0x1
 3438 00b1 13       		.uleb128 0x13
 3439 00b2 00       		.byte	0x0
 3440 00b3 00       		.byte	0x0
 3441 00b4 0F       		.uleb128 0xf
 3442 00b5 0D       		.uleb128 0xd
 3443 00b6 00       		.byte	0x0
 3444 00b7 03       		.uleb128 0x3
 3445 00b8 0E       		.uleb128 0xe
 3446 00b9 3A       		.uleb128 0x3a
 3447 00ba 0B       		.uleb128 0xb
 3448 00bb 3B       		.uleb128 0x3b
 3449 00bc 0B       		.uleb128 0xb
 3450 00bd 49       		.uleb128 0x49
 3451 00be 13       		.uleb128 0x13
 3452 00bf 00       		.byte	0x0
 3453 00c0 00       		.byte	0x0
 3454 00c1 10       		.uleb128 0x10
 3455 00c2 26       		.uleb128 0x26
 3456 00c3 00       		.byte	0x0
 3457 00c4 49       		.uleb128 0x49
 3458 00c5 13       		.uleb128 0x13
ARM GAS  C:\Users\DNIEL~1\AppData\Local\Temp\cctsnRq7.s 			page 63


 3459 00c6 00       		.byte	0x0
 3460 00c7 00       		.byte	0x0
 3461 00c8 11       		.uleb128 0x11
 3462 00c9 2E       		.uleb128 0x2e
 3463 00ca 01       		.byte	0x1
 3464 00cb 03       		.uleb128 0x3
 3465 00cc 0E       		.uleb128 0xe
 3466 00cd 3A       		.uleb128 0x3a
 3467 00ce 0B       		.uleb128 0xb
 3468 00cf 3B       		.uleb128 0x3b
 3469 00d0 0B       		.uleb128 0xb
 3470 00d1 27       		.uleb128 0x27
 3471 00d2 0C       		.uleb128 0xc
 3472 00d3 49       		.uleb128 0x49
 3473 00d4 13       		.uleb128 0x13
 3474 00d5 20       		.uleb128 0x20
 3475 00d6 0B       		.uleb128 0xb
 3476 00d7 01       		.uleb128 0x1
 3477 00d8 13       		.uleb128 0x13
 3478 00d9 00       		.byte	0x0
 3479 00da 00       		.byte	0x0
 3480 00db 12       		.uleb128 0x12
 3481 00dc 05       		.uleb128 0x5
 3482 00dd 00       		.byte	0x0
 3483 00de 03       		.uleb128 0x3
 3484 00df 08       		.uleb128 0x8
 3485 00e0 3A       		.uleb128 0x3a
 3486 00e1 0B       		.uleb128 0xb
 3487 00e2 3B       		.uleb128 0x3b
 3488 00e3 0B       		.uleb128 0xb
 3489 00e4 49       		.uleb128 0x49
 3490 00e5 13       		.uleb128 0x13
 3491 00e6 00       		.byte	0x0
 3492 00e7 00       		.byte	0x0
 3493 00e8 13       		.uleb128 0x13
 3494 00e9 34       		.uleb128 0x34
 3495 00ea 00       		.byte	0x0
 3496 00eb 03       		.uleb128 0x3
 3497 00ec 08       		.uleb128 0x8
 3498 00ed 3A       		.uleb128 0x3a
 3499 00ee 0B       		.uleb128 0xb
 3500 00ef 3B       		.uleb128 0x3b
 3501 00f0 0B       		.uleb128 0xb
 3502 00f1 49       		.uleb128 0x49
 3503 00f2 13       		.uleb128 0x13
 3504 00f3 00       		.byte	0x0
 3505 00f4 00       		.byte	0x0
 3506 00f5 14       		.uleb128 0x14
 3507 00f6 2E       		.uleb128 0x2e
 3508 00f7 01       		.byte	0x1
 3509 00f8 03       		.uleb128 0x3
 3510 00f9 0E       		.uleb128 0xe
 3511 00fa 3A       		.uleb128 0x3a
 3512 00fb 0B       		.uleb128 0xb
 3513 00fc 3B       		.uleb128 0x3b
 3514 00fd 0B       		.uleb128 0xb
 3515 00fe 27       		.uleb128 0x27
ARM GAS  C:\Users\DNIEL~1\AppData\Local\Temp\cctsnRq7.s 			page 64


 3516 00ff 0C       		.uleb128 0xc
 3517 0100 20       		.uleb128 0x20
 3518 0101 0B       		.uleb128 0xb
 3519 0102 01       		.uleb128 0x1
 3520 0103 13       		.uleb128 0x13
 3521 0104 00       		.byte	0x0
 3522 0105 00       		.byte	0x0
 3523 0106 15       		.uleb128 0x15
 3524 0107 2E       		.uleb128 0x2e
 3525 0108 01       		.byte	0x1
 3526 0109 3F       		.uleb128 0x3f
 3527 010a 0C       		.uleb128 0xc
 3528 010b 03       		.uleb128 0x3
 3529 010c 0E       		.uleb128 0xe
 3530 010d 3A       		.uleb128 0x3a
 3531 010e 0B       		.uleb128 0xb
 3532 010f 3B       		.uleb128 0x3b
 3533 0110 0B       		.uleb128 0xb
 3534 0111 27       		.uleb128 0x27
 3535 0112 0C       		.uleb128 0xc
 3536 0113 11       		.uleb128 0x11
 3537 0114 01       		.uleb128 0x1
 3538 0115 12       		.uleb128 0x12
 3539 0116 01       		.uleb128 0x1
 3540 0117 40       		.uleb128 0x40
 3541 0118 06       		.uleb128 0x6
 3542 0119 01       		.uleb128 0x1
 3543 011a 13       		.uleb128 0x13
 3544 011b 00       		.byte	0x0
 3545 011c 00       		.byte	0x0
 3546 011d 16       		.uleb128 0x16
 3547 011e 05       		.uleb128 0x5
 3548 011f 00       		.byte	0x0
 3549 0120 03       		.uleb128 0x3
 3550 0121 08       		.uleb128 0x8
 3551 0122 3A       		.uleb128 0x3a
 3552 0123 0B       		.uleb128 0xb
 3553 0124 3B       		.uleb128 0x3b
 3554 0125 0B       		.uleb128 0xb
 3555 0126 49       		.uleb128 0x49
 3556 0127 13       		.uleb128 0x13
 3557 0128 02       		.uleb128 0x2
 3558 0129 06       		.uleb128 0x6
 3559 012a 00       		.byte	0x0
 3560 012b 00       		.byte	0x0
 3561 012c 17       		.uleb128 0x17
 3562 012d 34       		.uleb128 0x34
 3563 012e 00       		.byte	0x0
 3564 012f 03       		.uleb128 0x3
 3565 0130 08       		.uleb128 0x8
 3566 0131 3A       		.uleb128 0x3a
 3567 0132 0B       		.uleb128 0xb
 3568 0133 3B       		.uleb128 0x3b
 3569 0134 0B       		.uleb128 0xb
 3570 0135 49       		.uleb128 0x49
 3571 0136 13       		.uleb128 0x13
 3572 0137 02       		.uleb128 0x2
ARM GAS  C:\Users\DNIEL~1\AppData\Local\Temp\cctsnRq7.s 			page 65


 3573 0138 06       		.uleb128 0x6
 3574 0139 00       		.byte	0x0
 3575 013a 00       		.byte	0x0
 3576 013b 18       		.uleb128 0x18
 3577 013c 1D       		.uleb128 0x1d
 3578 013d 01       		.byte	0x1
 3579 013e 31       		.uleb128 0x31
 3580 013f 13       		.uleb128 0x13
 3581 0140 52       		.uleb128 0x52
 3582 0141 01       		.uleb128 0x1
 3583 0142 55       		.uleb128 0x55
 3584 0143 06       		.uleb128 0x6
 3585 0144 58       		.uleb128 0x58
 3586 0145 0B       		.uleb128 0xb
 3587 0146 59       		.uleb128 0x59
 3588 0147 0B       		.uleb128 0xb
 3589 0148 00       		.byte	0x0
 3590 0149 00       		.byte	0x0
 3591 014a 19       		.uleb128 0x19
 3592 014b 05       		.uleb128 0x5
 3593 014c 00       		.byte	0x0
 3594 014d 31       		.uleb128 0x31
 3595 014e 13       		.uleb128 0x13
 3596 014f 02       		.uleb128 0x2
 3597 0150 06       		.uleb128 0x6
 3598 0151 00       		.byte	0x0
 3599 0152 00       		.byte	0x0
 3600 0153 1A       		.uleb128 0x1a
 3601 0154 0B       		.uleb128 0xb
 3602 0155 01       		.byte	0x1
 3603 0156 55       		.uleb128 0x55
 3604 0157 06       		.uleb128 0x6
 3605 0158 00       		.byte	0x0
 3606 0159 00       		.byte	0x0
 3607 015a 1B       		.uleb128 0x1b
 3608 015b 34       		.uleb128 0x34
 3609 015c 00       		.byte	0x0
 3610 015d 31       		.uleb128 0x31
 3611 015e 13       		.uleb128 0x13
 3612 015f 02       		.uleb128 0x2
 3613 0160 0A       		.uleb128 0xa
 3614 0161 00       		.byte	0x0
 3615 0162 00       		.byte	0x0
 3616 0163 1C       		.uleb128 0x1c
 3617 0164 0B       		.uleb128 0xb
 3618 0165 01       		.byte	0x1
 3619 0166 11       		.uleb128 0x11
 3620 0167 01       		.uleb128 0x1
 3621 0168 12       		.uleb128 0x12
 3622 0169 01       		.uleb128 0x1
 3623 016a 01       		.uleb128 0x1
 3624 016b 13       		.uleb128 0x13
 3625 016c 00       		.byte	0x0
 3626 016d 00       		.byte	0x0
 3627 016e 1D       		.uleb128 0x1d
 3628 016f 0B       		.uleb128 0xb
 3629 0170 01       		.byte	0x1
ARM GAS  C:\Users\DNIEL~1\AppData\Local\Temp\cctsnRq7.s 			page 66


 3630 0171 11       		.uleb128 0x11
 3631 0172 01       		.uleb128 0x1
 3632 0173 12       		.uleb128 0x12
 3633 0174 01       		.uleb128 0x1
 3634 0175 00       		.byte	0x0
 3635 0176 00       		.byte	0x0
 3636 0177 1E       		.uleb128 0x1e
 3637 0178 2E       		.uleb128 0x2e
 3638 0179 01       		.byte	0x1
 3639 017a 3F       		.uleb128 0x3f
 3640 017b 0C       		.uleb128 0xc
 3641 017c 03       		.uleb128 0x3
 3642 017d 0E       		.uleb128 0xe
 3643 017e 3A       		.uleb128 0x3a
 3644 017f 0B       		.uleb128 0xb
 3645 0180 3B       		.uleb128 0x3b
 3646 0181 0B       		.uleb128 0xb
 3647 0182 27       		.uleb128 0x27
 3648 0183 0C       		.uleb128 0xc
 3649 0184 49       		.uleb128 0x49
 3650 0185 13       		.uleb128 0x13
 3651 0186 11       		.uleb128 0x11
 3652 0187 01       		.uleb128 0x1
 3653 0188 12       		.uleb128 0x12
 3654 0189 01       		.uleb128 0x1
 3655 018a 40       		.uleb128 0x40
 3656 018b 06       		.uleb128 0x6
 3657 018c 01       		.uleb128 0x1
 3658 018d 13       		.uleb128 0x13
 3659 018e 00       		.byte	0x0
 3660 018f 00       		.byte	0x0
 3661 0190 1F       		.uleb128 0x1f
 3662 0191 1D       		.uleb128 0x1d
 3663 0192 01       		.byte	0x1
 3664 0193 31       		.uleb128 0x31
 3665 0194 13       		.uleb128 0x13
 3666 0195 11       		.uleb128 0x11
 3667 0196 01       		.uleb128 0x1
 3668 0197 12       		.uleb128 0x12
 3669 0198 01       		.uleb128 0x1
 3670 0199 58       		.uleb128 0x58
 3671 019a 0B       		.uleb128 0xb
 3672 019b 59       		.uleb128 0x59
 3673 019c 0B       		.uleb128 0xb
 3674 019d 00       		.byte	0x0
 3675 019e 00       		.byte	0x0
 3676 019f 20       		.uleb128 0x20
 3677 01a0 0B       		.uleb128 0xb
 3678 01a1 01       		.byte	0x1
 3679 01a2 55       		.uleb128 0x55
 3680 01a3 06       		.uleb128 0x6
 3681 01a4 01       		.uleb128 0x1
 3682 01a5 13       		.uleb128 0x13
 3683 01a6 00       		.byte	0x0
 3684 01a7 00       		.byte	0x0
 3685 01a8 21       		.uleb128 0x21
 3686 01a9 05       		.uleb128 0x5
ARM GAS  C:\Users\DNIEL~1\AppData\Local\Temp\cctsnRq7.s 			page 67


 3687 01aa 00       		.byte	0x0
 3688 01ab 03       		.uleb128 0x3
 3689 01ac 0E       		.uleb128 0xe
 3690 01ad 3A       		.uleb128 0x3a
 3691 01ae 0B       		.uleb128 0xb
 3692 01af 3B       		.uleb128 0x3b
 3693 01b0 0B       		.uleb128 0xb
 3694 01b1 49       		.uleb128 0x49
 3695 01b2 13       		.uleb128 0x13
 3696 01b3 02       		.uleb128 0x2
 3697 01b4 06       		.uleb128 0x6
 3698 01b5 00       		.byte	0x0
 3699 01b6 00       		.byte	0x0
 3700 01b7 22       		.uleb128 0x22
 3701 01b8 1D       		.uleb128 0x1d
 3702 01b9 01       		.byte	0x1
 3703 01ba 31       		.uleb128 0x31
 3704 01bb 13       		.uleb128 0x13
 3705 01bc 11       		.uleb128 0x11
 3706 01bd 01       		.uleb128 0x1
 3707 01be 12       		.uleb128 0x12
 3708 01bf 01       		.uleb128 0x1
 3709 01c0 58       		.uleb128 0x58
 3710 01c1 0B       		.uleb128 0xb
 3711 01c2 59       		.uleb128 0x59
 3712 01c3 05       		.uleb128 0x5
 3713 01c4 00       		.byte	0x0
 3714 01c5 00       		.byte	0x0
 3715 01c6 23       		.uleb128 0x23
 3716 01c7 05       		.uleb128 0x5
 3717 01c8 00       		.byte	0x0
 3718 01c9 31       		.uleb128 0x31
 3719 01ca 13       		.uleb128 0x13
 3720 01cb 00       		.byte	0x0
 3721 01cc 00       		.byte	0x0
 3722 01cd 24       		.uleb128 0x24
 3723 01ce 2E       		.uleb128 0x2e
 3724 01cf 01       		.byte	0x1
 3725 01d0 3F       		.uleb128 0x3f
 3726 01d1 0C       		.uleb128 0xc
 3727 01d2 03       		.uleb128 0x3
 3728 01d3 0E       		.uleb128 0xe
 3729 01d4 3A       		.uleb128 0x3a
 3730 01d5 0B       		.uleb128 0xb
 3731 01d6 3B       		.uleb128 0x3b
 3732 01d7 05       		.uleb128 0x5
 3733 01d8 27       		.uleb128 0x27
 3734 01d9 0C       		.uleb128 0xc
 3735 01da 11       		.uleb128 0x11
 3736 01db 01       		.uleb128 0x1
 3737 01dc 12       		.uleb128 0x12
 3738 01dd 01       		.uleb128 0x1
 3739 01de 40       		.uleb128 0x40
 3740 01df 06       		.uleb128 0x6
 3741 01e0 01       		.uleb128 0x1
 3742 01e1 13       		.uleb128 0x13
 3743 01e2 00       		.byte	0x0
ARM GAS  C:\Users\DNIEL~1\AppData\Local\Temp\cctsnRq7.s 			page 68


 3744 01e3 00       		.byte	0x0
 3745 01e4 25       		.uleb128 0x25
 3746 01e5 05       		.uleb128 0x5
 3747 01e6 00       		.byte	0x0
 3748 01e7 03       		.uleb128 0x3
 3749 01e8 08       		.uleb128 0x8
 3750 01e9 3A       		.uleb128 0x3a
 3751 01ea 0B       		.uleb128 0xb
 3752 01eb 3B       		.uleb128 0x3b
 3753 01ec 05       		.uleb128 0x5
 3754 01ed 49       		.uleb128 0x49
 3755 01ee 13       		.uleb128 0x13
 3756 01ef 02       		.uleb128 0x2
 3757 01f0 06       		.uleb128 0x6
 3758 01f1 00       		.byte	0x0
 3759 01f2 00       		.byte	0x0
 3760 01f3 26       		.uleb128 0x26
 3761 01f4 34       		.uleb128 0x34
 3762 01f5 00       		.byte	0x0
 3763 01f6 03       		.uleb128 0x3
 3764 01f7 08       		.uleb128 0x8
 3765 01f8 3A       		.uleb128 0x3a
 3766 01f9 0B       		.uleb128 0xb
 3767 01fa 3B       		.uleb128 0x3b
 3768 01fb 05       		.uleb128 0x5
 3769 01fc 49       		.uleb128 0x49
 3770 01fd 13       		.uleb128 0x13
 3771 01fe 02       		.uleb128 0x2
 3772 01ff 06       		.uleb128 0x6
 3773 0200 00       		.byte	0x0
 3774 0201 00       		.byte	0x0
 3775 0202 27       		.uleb128 0x27
 3776 0203 1D       		.uleb128 0x1d
 3777 0204 01       		.byte	0x1
 3778 0205 31       		.uleb128 0x31
 3779 0206 13       		.uleb128 0x13
 3780 0207 52       		.uleb128 0x52
 3781 0208 01       		.uleb128 0x1
 3782 0209 55       		.uleb128 0x55
 3783 020a 06       		.uleb128 0x6
 3784 020b 58       		.uleb128 0x58
 3785 020c 0B       		.uleb128 0xb
 3786 020d 59       		.uleb128 0x59
 3787 020e 05       		.uleb128 0x5
 3788 020f 00       		.byte	0x0
 3789 0210 00       		.byte	0x0
 3790 0211 28       		.uleb128 0x28
 3791 0212 34       		.uleb128 0x34
 3792 0213 00       		.byte	0x0
 3793 0214 31       		.uleb128 0x31
 3794 0215 13       		.uleb128 0x13
 3795 0216 02       		.uleb128 0x2
 3796 0217 06       		.uleb128 0x6
 3797 0218 00       		.byte	0x0
 3798 0219 00       		.byte	0x0
 3799 021a 29       		.uleb128 0x29
 3800 021b 34       		.uleb128 0x34
ARM GAS  C:\Users\DNIEL~1\AppData\Local\Temp\cctsnRq7.s 			page 69


 3801 021c 00       		.byte	0x0
 3802 021d 03       		.uleb128 0x3
 3803 021e 08       		.uleb128 0x8
 3804 021f 3A       		.uleb128 0x3a
 3805 0220 0B       		.uleb128 0xb
 3806 0221 3B       		.uleb128 0x3b
 3807 0222 05       		.uleb128 0x5
 3808 0223 49       		.uleb128 0x49
 3809 0224 13       		.uleb128 0x13
 3810 0225 02       		.uleb128 0x2
 3811 0226 0A       		.uleb128 0xa
 3812 0227 00       		.byte	0x0
 3813 0228 00       		.byte	0x0
 3814 0229 2A       		.uleb128 0x2a
 3815 022a 2E       		.uleb128 0x2e
 3816 022b 01       		.byte	0x1
 3817 022c 3F       		.uleb128 0x3f
 3818 022d 0C       		.uleb128 0xc
 3819 022e 03       		.uleb128 0x3
 3820 022f 0E       		.uleb128 0xe
 3821 0230 3A       		.uleb128 0x3a
 3822 0231 0B       		.uleb128 0xb
 3823 0232 3B       		.uleb128 0x3b
 3824 0233 05       		.uleb128 0x5
 3825 0234 27       		.uleb128 0x27
 3826 0235 0C       		.uleb128 0xc
 3827 0236 49       		.uleb128 0x49
 3828 0237 13       		.uleb128 0x13
 3829 0238 11       		.uleb128 0x11
 3830 0239 01       		.uleb128 0x1
 3831 023a 12       		.uleb128 0x12
 3832 023b 01       		.uleb128 0x1
 3833 023c 40       		.uleb128 0x40
 3834 023d 06       		.uleb128 0x6
 3835 023e 01       		.uleb128 0x1
 3836 023f 13       		.uleb128 0x13
 3837 0240 00       		.byte	0x0
 3838 0241 00       		.byte	0x0
 3839 0242 2B       		.uleb128 0x2b
 3840 0243 1D       		.uleb128 0x1d
 3841 0244 01       		.byte	0x1
 3842 0245 31       		.uleb128 0x31
 3843 0246 13       		.uleb128 0x13
 3844 0247 11       		.uleb128 0x11
 3845 0248 01       		.uleb128 0x1
 3846 0249 12       		.uleb128 0x12
 3847 024a 01       		.uleb128 0x1
 3848 024b 58       		.uleb128 0x58
 3849 024c 0B       		.uleb128 0xb
 3850 024d 59       		.uleb128 0x59
 3851 024e 05       		.uleb128 0x5
 3852 024f 01       		.uleb128 0x1
 3853 0250 13       		.uleb128 0x13
 3854 0251 00       		.byte	0x0
 3855 0252 00       		.byte	0x0
 3856 0253 2C       		.uleb128 0x2c
 3857 0254 34       		.uleb128 0x34
ARM GAS  C:\Users\DNIEL~1\AppData\Local\Temp\cctsnRq7.s 			page 70


 3858 0255 00       		.byte	0x0
 3859 0256 03       		.uleb128 0x3
 3860 0257 0E       		.uleb128 0xe
 3861 0258 3A       		.uleb128 0x3a
 3862 0259 0B       		.uleb128 0xb
 3863 025a 3B       		.uleb128 0x3b
 3864 025b 0B       		.uleb128 0xb
 3865 025c 49       		.uleb128 0x49
 3866 025d 13       		.uleb128 0x13
 3867 025e 3F       		.uleb128 0x3f
 3868 025f 0C       		.uleb128 0xc
 3869 0260 3C       		.uleb128 0x3c
 3870 0261 0C       		.uleb128 0xc
 3871 0262 00       		.byte	0x0
 3872 0263 00       		.byte	0x0
 3873 0264 00       		.byte	0x0
 3874              		.section	.debug_pubnames,"",%progbits
 3875 0000 CD000000 		.4byte	0xcd
 3876 0004 0200     		.2byte	0x2
 3877 0006 00000000 		.4byte	.Ldebug_info0
 3878 000a 0F0A0000 		.4byte	0xa0f
 3879 000e 10050000 		.4byte	0x510
 3880 0012 63685365 		.ascii	"chSemInit\000"
 3880      6D496E69 
 3880      7400
 3881 001c 4B050000 		.4byte	0x54b
 3882 0020 63685365 		.ascii	"chSemResetI\000"
 3882      6D526573 
 3882      65744900 
 3883 002c B5050000 		.4byte	0x5b5
 3884 0030 63685365 		.ascii	"chSemReset\000"
 3884      6D526573 
 3884      657400
 3885 003b 20060000 		.4byte	0x620
 3886 003f 63685365 		.ascii	"chSemWaitS\000"
 3886      6D576169 
 3886      745300
 3887 004a 6E060000 		.4byte	0x66e
 3888 004e 63685365 		.ascii	"chSemWait\000"
 3888      6D576169 
 3888      7400
 3889 0058 DB060000 		.4byte	0x6db
 3890 005c 63685365 		.ascii	"chSemWaitTimeoutS\000"
 3890      6D576169 
 3890      7454696D 
 3890      656F7574 
 3890      5300
 3891 006e 35070000 		.4byte	0x735
 3892 0072 63685365 		.ascii	"chSemWaitTimeout\000"
 3892      6D576169 
 3892      7454696D 
 3892      656F7574 
 3892      00
 3893 0083 B5070000 		.4byte	0x7b5
 3894 0087 63685365 		.ascii	"chSemSignal\000"
 3894      6D536967 
 3894      6E616C00 
ARM GAS  C:\Users\DNIEL~1\AppData\Local\Temp\cctsnRq7.s 			page 71


 3895 0093 3C080000 		.4byte	0x83c
 3896 0097 63685365 		.ascii	"chSemSignalI\000"
 3896      6D536967 
 3896      6E616C49 
 3896      00
 3897 00a4 A2080000 		.4byte	0x8a2
 3898 00a8 63685365 		.ascii	"chSemAddCounterI\000"
 3898      6D416464 
 3898      436F756E 
 3898      74657249 
 3898      00
 3899 00b9 03090000 		.4byte	0x903
 3900 00bd 63685365 		.ascii	"chSemSignalWait\000"
 3900      6D536967 
 3900      6E616C57 
 3900      61697400 
 3901 00cd 00000000 		.4byte	0x0
 3902              		.section	.debug_pubtypes,"",%progbits
 3903 0000 59010000 		.4byte	0x159
 3904 0004 0200     		.2byte	0x2
 3905 0006 00000000 		.4byte	.Ldebug_info0
 3906 000a 0F0A0000 		.4byte	0xa0f
 3907 000e 3E000000 		.4byte	0x3e
 3908 0012 75696E74 		.ascii	"uint8_t\000"
 3908      385F7400 
 3909 001a 5E000000 		.4byte	0x5e
 3910 001e 696E7433 		.ascii	"int32_t\000"
 3910      325F7400 
 3911 0026 70000000 		.4byte	0x70
 3912 002a 75696E74 		.ascii	"uint32_t\000"
 3912      33325F74 
 3912      00
 3913 0033 89000000 		.4byte	0x89
 3914 0037 75696E74 		.ascii	"uint64_t\000"
 3914      36345F74 
 3914      00
 3915 0040 9B000000 		.4byte	0x9b
 3916 0044 746D6F64 		.ascii	"tmode_t\000"
 3916      655F7400 
 3917 004c A6000000 		.4byte	0xa6
 3918 0050 74737461 		.ascii	"tstate_t\000"
 3918      74655F74 
 3918      00
 3919 0059 B1000000 		.4byte	0xb1
 3920 005d 74726566 		.ascii	"trefs_t\000"
 3920      735F7400 
 3921 0065 BC000000 		.4byte	0xbc
 3922 0069 74736C69 		.ascii	"tslices_t\000"
 3922      6365735F 
 3922      7400
 3923 0073 C7000000 		.4byte	0xc7
 3924 0077 74707269 		.ascii	"tprio_t\000"
 3924      6F5F7400 
 3925 007f D2000000 		.4byte	0xd2
 3926 0083 6D73675F 		.ascii	"msg_t\000"
 3926      7400
 3927 0089 DD000000 		.4byte	0xdd
ARM GAS  C:\Users\DNIEL~1\AppData\Local\Temp\cctsnRq7.s 			page 72


 3928 008d 6576656E 		.ascii	"eventmask_t\000"
 3928      746D6173 
 3928      6B5F7400 
 3929 0099 E8000000 		.4byte	0xe8
 3930 009d 73797374 		.ascii	"systime_t\000"
 3930      696D655F 
 3930      7400
 3931 00a7 F3000000 		.4byte	0xf3
 3932 00ab 636E745F 		.ascii	"cnt_t\000"
 3932      7400
 3933 00b1 FE000000 		.4byte	0xfe
 3934 00b5 54687265 		.ascii	"Thread\000"
 3934      616400
 3935 00bc 67020000 		.4byte	0x267
 3936 00c0 54687265 		.ascii	"ThreadsQueue\000"
 3936      61647351 
 3936      75657565 
 3936      00
 3937 00cd 89020000 		.4byte	0x289
 3938 00d1 54687265 		.ascii	"ThreadsList\000"
 3938      6164734C 
 3938      69737400 
 3939 00dd 94020000 		.4byte	0x294
 3940 00e1 72656761 		.ascii	"regarm_t\000"
 3940      726D5F74 
 3940      00
 3941 00ea A1020000 		.4byte	0x2a1
 3942 00ee 73746B61 		.ascii	"stkalign_t\000"
 3942      6C69676E 
 3942      5F7400
 3943 00f9 AC020000 		.4byte	0x2ac
 3944 00fd 696E7463 		.ascii	"intctx\000"
 3944      747800
 3945 0104 3A030000 		.4byte	0x33a
 3946 0108 636F6E74 		.ascii	"context\000"
 3946      65787400 
 3947 0110 BF030000 		.4byte	0x3bf
 3948 0114 52656164 		.ascii	"ReadyList\000"
 3948      794C6973 
 3948      7400
 3949 011e CA030000 		.4byte	0x3ca
 3950 0122 53656D61 		.ascii	"Semaphore\000"
 3950      70686F72 
 3950      6500
 3951 012c F3030000 		.4byte	0x3f3
 3952 0130 53656D61 		.ascii	"Semaphore\000"
 3952      70686F72 
 3952      6500
 3953 013a FE030000 		.4byte	0x3fe
 3954 013e 4D757465 		.ascii	"Mutex\000"
 3954      7800
 3955 0144 3B040000 		.4byte	0x43b
 3956 0148 4D757465 		.ascii	"Mutex\000"
 3956      7800
 3957 014e 09010000 		.4byte	0x109
 3958 0152 54687265 		.ascii	"Thread\000"
 3958      616400
ARM GAS  C:\Users\DNIEL~1\AppData\Local\Temp\cctsnRq7.s 			page 73


 3959 0159 00000000 		.4byte	0x0
 3960              		.section	.debug_aranges,"",%progbits
 3961 0000 6C000000 		.4byte	0x6c
 3962 0004 0200     		.2byte	0x2
 3963 0006 00000000 		.4byte	.Ldebug_info0
 3964 000a 04       		.byte	0x4
 3965 000b 00       		.byte	0x0
 3966 000c 0000     		.2byte	0x0
 3967 000e 0000     		.2byte	0x0
 3968 0010 00000000 		.4byte	.LFB7
 3969 0014 28000000 		.4byte	.LFE7-.LFB7
 3970 0018 00000000 		.4byte	.LFB9
 3971 001c A4000000 		.4byte	.LFE9-.LFB9
 3972 0020 00000000 		.4byte	.LFB8
 3973 0024 28000000 		.4byte	.LFE8-.LFB8
 3974 0028 00000000 		.4byte	.LFB11
 3975 002c 6C000000 		.4byte	.LFE11-.LFB11
 3976 0030 00000000 		.4byte	.LFB10
 3977 0034 24000000 		.4byte	.LFE10-.LFB10
 3978 0038 00000000 		.4byte	.LFB13
 3979 003c 78000000 		.4byte	.LFE13-.LFB13
 3980 0040 00000000 		.4byte	.LFB12
 3981 0044 28000000 		.4byte	.LFE12-.LFB12
 3982 0048 00000000 		.4byte	.LFB14
 3983 004c 80000000 		.4byte	.LFE14-.LFB14
 3984 0050 00000000 		.4byte	.LFB15
 3985 0054 60000000 		.4byte	.LFE15-.LFB15
 3986 0058 00000000 		.4byte	.LFB16
 3987 005c D4000000 		.4byte	.LFE16-.LFB16
 3988 0060 00000000 		.4byte	.LFB17
 3989 0064 E4000000 		.4byte	.LFE17-.LFB17
 3990 0068 00000000 		.4byte	0x0
 3991 006c 00000000 		.4byte	0x0
 3992              		.section	.debug_ranges,"",%progbits
 3993              	.Ldebug_ranges0:
 3994 0000 2E000000 		.4byte	.LBB24
 3995 0004 30000000 		.4byte	.LBE24
 3996 0008 72000000 		.4byte	.LBB41
 3997 000c 7A000000 		.4byte	.LBE41
 3998 0010 68000000 		.4byte	.LBB40
 3999 0014 6C000000 		.4byte	.LBE40
 4000 0018 64000000 		.4byte	.LBB39
 4001 001c 66000000 		.4byte	.LBE39
 4002 0020 60000000 		.4byte	.LBB38
 4003 0024 62000000 		.4byte	.LBE38
 4004 0028 50000000 		.4byte	.LBB37
 4005 002c 56000000 		.4byte	.LBE37
 4006 0030 4C000000 		.4byte	.LBB36
 4007 0034 4E000000 		.4byte	.LBE36
 4008 0038 38000000 		.4byte	.LBB35
 4009 003c 3C000000 		.4byte	.LBE35
 4010 0040 34000000 		.4byte	.LBB34
 4011 0044 36000000 		.4byte	.LBE34
 4012 0048 00000000 		.4byte	0x0
 4013 004c 00000000 		.4byte	0x0
 4014 0050 2E000000 		.4byte	.LBB29
 4015 0054 30000000 		.4byte	.LBE29
ARM GAS  C:\Users\DNIEL~1\AppData\Local\Temp\cctsnRq7.s 			page 74


 4016 0058 72000000 		.4byte	.LBB33
 4017 005c 7A000000 		.4byte	.LBE33
 4018 0060 68000000 		.4byte	.LBB25
 4019 0064 6C000000 		.4byte	.LBE25
 4020 0068 64000000 		.4byte	.LBB32
 4021 006c 66000000 		.4byte	.LBE32
 4022 0070 60000000 		.4byte	.LBB26
 4023 0074 62000000 		.4byte	.LBE26
 4024 0078 50000000 		.4byte	.LBB31
 4025 007c 56000000 		.4byte	.LBE31
 4026 0080 4C000000 		.4byte	.LBB27
 4027 0084 4E000000 		.4byte	.LBE27
 4028 0088 38000000 		.4byte	.LBB30
 4029 008c 3C000000 		.4byte	.LBE30
 4030 0090 34000000 		.4byte	.LBB28
 4031 0094 36000000 		.4byte	.LBE28
 4032 0098 00000000 		.4byte	0x0
 4033 009c 00000000 		.4byte	0x0
 4034 00a0 02000000 		.4byte	.LBB46
 4035 00a4 04000000 		.4byte	.LBE46
 4036 00a8 06000000 		.4byte	.LBB47
 4037 00ac 0A000000 		.4byte	.LBE47
 4038 00b0 00000000 		.4byte	0x0
 4039 00b4 00000000 		.4byte	0x0
 4040 00b8 1A000000 		.4byte	.LBB53
 4041 00bc 20000000 		.4byte	.LBE53
 4042 00c0 40000000 		.4byte	.LBB55
 4043 00c4 46000000 		.4byte	.LBE55
 4044 00c8 00000000 		.4byte	0x0
 4045 00cc 00000000 		.4byte	0x0
 4046 00d0 32000000 		.4byte	.LBB54
 4047 00d4 38000000 		.4byte	.LBE54
 4048 00d8 66000000 		.4byte	.LBB60
 4049 00dc 6C000000 		.4byte	.LBE60
 4050 00e0 00000000 		.4byte	0x0
 4051 00e4 00000000 		.4byte	0x0
 4052 00e8 54000000 		.4byte	.LBB56
 4053 00ec 56000000 		.4byte	.LBE56
 4054 00f0 58000000 		.4byte	.LBB59
 4055 00f4 5E000000 		.4byte	.LBE59
 4056 00f8 00000000 		.4byte	0x0
 4057 00fc 00000000 		.4byte	0x0
 4058 0100 54000000 		.4byte	.LBB57
 4059 0104 56000000 		.4byte	.LBE57
 4060 0108 58000000 		.4byte	.LBB58
 4061 010c 5E000000 		.4byte	.LBE58
 4062 0110 00000000 		.4byte	0x0
 4063 0114 00000000 		.4byte	0x0
 4064 0118 38000000 		.4byte	.LBB61
 4065 011c 46000000 		.4byte	.LBE61
 4066 0120 4A000000 		.4byte	.LBB68
 4067 0124 4E000000 		.4byte	.LBE68
 4068 0128 00000000 		.4byte	0x0
 4069 012c 00000000 		.4byte	0x0
 4070 0130 38000000 		.4byte	.LBB64
 4071 0134 3A000000 		.4byte	.LBE64
 4072 0138 40000000 		.4byte	.LBB62
ARM GAS  C:\Users\DNIEL~1\AppData\Local\Temp\cctsnRq7.s 			page 75


 4073 013c 44000000 		.4byte	.LBE62
 4074 0140 3C000000 		.4byte	.LBB63
 4075 0144 3E000000 		.4byte	.LBE63
 4076 0148 00000000 		.4byte	0x0
 4077 014c 00000000 		.4byte	0x0
 4078 0150 38000000 		.4byte	.LBB66
 4079 0154 3A000000 		.4byte	.LBE66
 4080 0158 40000000 		.4byte	.LBB67
 4081 015c 44000000 		.4byte	.LBE67
 4082 0160 3C000000 		.4byte	.LBB65
 4083 0164 3E000000 		.4byte	.LBE65
 4084 0168 00000000 		.4byte	0x0
 4085 016c 00000000 		.4byte	0x0
 4086 0170 6A000000 		.4byte	.LBB69
 4087 0174 72000000 		.4byte	.LBE69
 4088 0178 B8000000 		.4byte	.LBB76
 4089 017c C0000000 		.4byte	.LBE76
 4090 0180 A8000000 		.4byte	.LBB75
 4091 0184 B0000000 		.4byte	.LBE75
 4092 0188 82000000 		.4byte	.LBB74
 4093 018c 8A000000 		.4byte	.LBE74
 4094 0190 00000000 		.4byte	0x0
 4095 0194 00000000 		.4byte	0x0
 4096 0198 6A000000 		.4byte	.LBB71
 4097 019c 72000000 		.4byte	.LBE71
 4098 01a0 B8000000 		.4byte	.LBB73
 4099 01a4 C0000000 		.4byte	.LBE73
 4100 01a8 A8000000 		.4byte	.LBB70
 4101 01ac B0000000 		.4byte	.LBE70
 4102 01b0 82000000 		.4byte	.LBB72
 4103 01b4 8A000000 		.4byte	.LBE72
 4104 01b8 00000000 		.4byte	0x0
 4105 01bc 00000000 		.4byte	0x0
 4106 01c0 32000000 		.4byte	.LBB77
 4107 01c4 38000000 		.4byte	.LBE77
 4108 01c8 76000000 		.4byte	.LBB79
 4109 01cc 7C000000 		.4byte	.LBE79
 4110 01d0 00000000 		.4byte	0x0
 4111 01d4 00000000 		.4byte	0x0
 4112 01d8 5A000000 		.4byte	.LBB78
 4113 01dc 60000000 		.4byte	.LBE78
 4114 01e0 C0000000 		.4byte	.LBB87
 4115 01e4 C6000000 		.4byte	.LBE87
 4116 01e8 00000000 		.4byte	0x0
 4117 01ec 00000000 		.4byte	0x0
 4118 01f0 A6000000 		.4byte	.LBB83
 4119 01f4 A8000000 		.4byte	.LBE83
 4120 01f8 AC000000 		.4byte	.LBB86
 4121 01fc B4000000 		.4byte	.LBE86
 4122 0200 00000000 		.4byte	0x0
 4123 0204 00000000 		.4byte	0x0
 4124 0208 00000000 		.4byte	.LFB7
 4125 020c 28000000 		.4byte	.LFE7
 4126 0210 00000000 		.4byte	.LFB9
 4127 0214 A4000000 		.4byte	.LFE9
 4128 0218 00000000 		.4byte	.LFB8
 4129 021c 28000000 		.4byte	.LFE8
ARM GAS  C:\Users\DNIEL~1\AppData\Local\Temp\cctsnRq7.s 			page 76


 4130 0220 00000000 		.4byte	.LFB11
 4131 0224 6C000000 		.4byte	.LFE11
 4132 0228 00000000 		.4byte	.LFB10
 4133 022c 24000000 		.4byte	.LFE10
 4134 0230 00000000 		.4byte	.LFB13
 4135 0234 78000000 		.4byte	.LFE13
 4136 0238 00000000 		.4byte	.LFB12
 4137 023c 28000000 		.4byte	.LFE12
 4138 0240 00000000 		.4byte	.LFB14
 4139 0244 80000000 		.4byte	.LFE14
 4140 0248 00000000 		.4byte	.LFB15
 4141 024c 60000000 		.4byte	.LFE15
 4142 0250 00000000 		.4byte	.LFB16
 4143 0254 D4000000 		.4byte	.LFE16
 4144 0258 00000000 		.4byte	.LFB17
 4145 025c E4000000 		.4byte	.LFE17
 4146 0260 00000000 		.4byte	0x0
 4147 0264 00000000 		.4byte	0x0
 4148              		.section	.debug_str,"MS",%progbits,1
 4149              	.LASF38:
 4150 0000 705F6D73 		.ascii	"p_msg\000"
 4150      6700
 4151              	.LASF86:
 4152 0006 71756575 		.ascii	"queue_insert\000"
 4152      655F696E 
 4152      73657274 
 4152      00
 4153              	.LASF79:
 4154 0013 63685365 		.ascii	"chSemSignalI\000"
 4154      6D536967 
 4154      6E616C49 
 4154      00
 4155              	.LASF63:
 4156 0020 7264796D 		.ascii	"rdymsg\000"
 4156      736700
 4157              	.LASF11:
 4158 0027 75696E74 		.ascii	"uint64_t\000"
 4158      36345F74 
 4158      00
 4159              	.LASF12:
 4160 0030 6C6F6E67 		.ascii	"long long unsigned int\000"
 4160      206C6F6E 
 4160      6720756E 
 4160      7369676E 
 4160      65642069 
 4161              	.LASF64:
 4162 0047 65786974 		.ascii	"exitcode\000"
 4162      636F6465 
 4162      00
 4163              	.LASF80:
 4164 0050 63685365 		.ascii	"chSemAddCounterI\000"
 4164      6D416464 
 4164      436F756E 
 4164      74657249 
 4164      00
 4165              	.LASF25:
 4166 0061 705F7072 		.ascii	"p_prio\000"
ARM GAS  C:\Users\DNIEL~1\AppData\Local\Temp\cctsnRq7.s 			page 77


 4166      696F00
 4167              	.LASF10:
 4168 0068 6C6F6E67 		.ascii	"long long int\000"
 4168      206C6F6E 
 4168      6720696E 
 4168      7400
 4169              	.LASF1:
 4170 0076 7369676E 		.ascii	"signed char\000"
 4170      65642063 
 4170      68617200 
 4171              	.LASF81:
 4172 0082 63685365 		.ascii	"chSemSignalWait\000"
 4172      6D536967 
 4172      6E616C57 
 4172      61697400 
 4173              	.LASF42:
 4174 0092 705F6D70 		.ascii	"p_mpool\000"
 4174      6F6F6C00 
 4175              	.LASF60:
 4176 009a 6D5F7175 		.ascii	"m_queue\000"
 4176      65756500 
 4177              	.LASF16:
 4178 00a2 74736C69 		.ascii	"tslices_t\000"
 4178      6365735F 
 4178      7400
 4179              	.LASF7:
 4180 00ac 6C6F6E67 		.ascii	"long int\000"
 4180      20696E74 
 4180      00
 4181              	.LASF14:
 4182 00b5 74737461 		.ascii	"tstate_t\000"
 4182      74655F74 
 4182      00
 4183              	.LASF78:
 4184 00be 63685365 		.ascii	"chSemSignal\000"
 4184      6D536967 
 4184      6E616C00 
 4185              	.LASF27:
 4186 00ca 705F6E65 		.ascii	"p_newer\000"
 4186      77657200 
 4187              	.LASF57:
 4188 00d2 735F7175 		.ascii	"s_queue\000"
 4188      65756500 
 4189              	.LASF52:
 4190 00da 725F6E65 		.ascii	"r_newer\000"
 4190      77657200 
 4191              	.LASF45:
 4192 00e2 72656761 		.ascii	"regarm_t\000"
 4192      726D5F74 
 4192      00
 4193              	.LASF21:
 4194 00eb 636E745F 		.ascii	"cnt_t\000"
 4194      7400
 4195              	.LASF30:
 4196 00f1 705F7374 		.ascii	"p_stklimit\000"
 4196      6B6C696D 
 4196      697400
ARM GAS  C:\Users\DNIEL~1\AppData\Local\Temp\cctsnRq7.s 			page 78


 4197              	.LASF0:
 4198 00fc 756E7369 		.ascii	"unsigned int\000"
 4198      676E6564 
 4198      20696E74 
 4198      00
 4199              	.LASF77:
 4200 0109 63685365 		.ascii	"chSemWaitTimeout\000"
 4200      6D576169 
 4200      7454696D 
 4200      656F7574 
 4200      00
 4201              	.LASF9:
 4202 011a 6C6F6E67 		.ascii	"long unsigned int\000"
 4202      20756E73 
 4202      69676E65 
 4202      6420696E 
 4202      7400
 4203              	.LASF58:
 4204 012c 735F636E 		.ascii	"s_cnt\000"
 4204      7400
 4205              	.LASF48:
 4206 0132 636F6E74 		.ascii	"context\000"
 4206      65787400 
 4207              	.LASF4:
 4208 013a 73686F72 		.ascii	"short unsigned int\000"
 4208      7420756E 
 4208      7369676E 
 4208      65642069 
 4208      6E7400
 4209              	.LASF72:
 4210 014d 63685365 		.ascii	"chSemReset\000"
 4210      6D526573 
 4210      657400
 4211              	.LASF18:
 4212 0158 6D73675F 		.ascii	"msg_t\000"
 4212      7400
 4213              	.LASF13:
 4214 015e 746D6F64 		.ascii	"tmode_t\000"
 4214      655F7400 
 4215              	.LASF44:
 4216 0166 54687265 		.ascii	"ThreadsList\000"
 4216      6164734C 
 4216      69737400 
 4217              	.LASF19:
 4218 0172 6576656E 		.ascii	"eventmask_t\000"
 4218      746D6173 
 4218      6B5F7400 
 4219              	.LASF59:
 4220 017e 4D757465 		.ascii	"Mutex\000"
 4220      7800
 4221              	.LASF46:
 4222 0184 73746B61 		.ascii	"stkalign_t\000"
 4222      6C69676E 
 4222      5F7400
 4223              	.LASF28:
 4224 018f 705F6F6C 		.ascii	"p_older\000"
 4224      64657200 
ARM GAS  C:\Users\DNIEL~1\AppData\Local\Temp\cctsnRq7.s 			page 79


 4225              	.LASF51:
 4226 0197 725F6374 		.ascii	"r_ctx\000"
 4226      7800
 4227              	.LASF43:
 4228 019d 54687265 		.ascii	"ThreadsQueue\000"
 4228      61647351 
 4228      75657565 
 4228      00
 4229              	.LASF76:
 4230 01aa 74696D65 		.ascii	"time\000"
 4230      00
 4231              	.LASF54:
 4232 01af 725F6375 		.ascii	"r_current\000"
 4232      7272656E 
 4232      7400
 4233              	.LASF53:
 4234 01b9 725F6F6C 		.ascii	"r_older\000"
 4234      64657200 
 4235              	.LASF34:
 4236 01c1 705F7072 		.ascii	"p_preempt\000"
 4236      65656D70 
 4236      7400
 4237              	.LASF85:
 4238 01cb 433A5C55 		.ascii	"C:\\Users\\D\341niel\\Dropbox\\Solar Racing\\Szoftv"
 4238      73657273 
 4238      5C44E16E 
 4238      69656C5C 
 4238      44726F70 
 4239 01f6 65725C4D 		.ascii	"er\\Modulux\\Modulux_v0\\modulux\\firmware\000"
 4239      6F64756C 
 4239      75785C4D 
 4239      6F64756C 
 4239      75785F76 
 4240              	.LASF15:
 4241 021d 74726566 		.ascii	"trefs_t\000"
 4241      735F7400 
 4242              	.LASF24:
 4243 0225 705F7072 		.ascii	"p_prev\000"
 4243      657600
 4244              	.LASF17:
 4245 022c 74707269 		.ascii	"tprio_t\000"
 4245      6F5F7400 
 4246              	.LASF6:
 4247 0234 696E7433 		.ascii	"int32_t\000"
 4247      325F7400 
 4248              	.LASF2:
 4249 023c 756E7369 		.ascii	"unsigned char\000"
 4249      676E6564 
 4249      20636861 
 4249      7200
 4250              	.LASF40:
 4251 024a 705F6D74 		.ascii	"p_mtxlist\000"
 4251      786C6973 
 4251      7400
 4252              	.LASF3:
 4253 0254 73686F72 		.ascii	"short int\000"
 4253      7420696E 
ARM GAS  C:\Users\DNIEL~1\AppData\Local\Temp\cctsnRq7.s 			page 80


 4253      7400
 4254              	.LASF31:
 4255 025e 705F7374 		.ascii	"p_state\000"
 4255      61746500 
 4256              	.LASF84:
 4257 0266 2E2E2F2E 		.ascii	"../../../ChibiOS/os/kernel/src/chsem.c\000"
 4257      2E2F2E2E 
 4257      2F436869 
 4257      62694F53 
 4257      2F6F732F 
 4258              	.LASF50:
 4259 028d 725F7072 		.ascii	"r_prio\000"
 4259      696F00
 4260              	.LASF66:
 4261 0294 65776D61 		.ascii	"ewmask\000"
 4261      736B00
 4262              	.LASF23:
 4263 029b 705F6E65 		.ascii	"p_next\000"
 4263      787400
 4264              	.LASF32:
 4265 02a2 705F666C 		.ascii	"p_flags\000"
 4265      61677300 
 4266              	.LASF73:
 4267 02aa 63685365 		.ascii	"chSemWaitS\000"
 4267      6D576169 
 4267      745300
 4268              	.LASF22:
 4269 02b5 54687265 		.ascii	"Thread\000"
 4269      616400
 4270              	.LASF39:
 4271 02bc 705F6570 		.ascii	"p_epending\000"
 4271      656E6469 
 4271      6E6700
 4272              	.LASF8:
 4273 02c7 75696E74 		.ascii	"uint32_t\000"
 4273      33325F74 
 4273      00
 4274              	.LASF49:
 4275 02d0 725F7175 		.ascii	"r_queue\000"
 4275      65756500 
 4276              	.LASF67:
 4277 02d8 63686172 		.ascii	"char\000"
 4277      00
 4278              	.LASF69:
 4279 02dd 6669666F 		.ascii	"fifo_remove\000"
 4279      5F72656D 
 4279      6F766500 
 4280              	.LASF75:
 4281 02e9 63685365 		.ascii	"chSemWaitTimeoutS\000"
 4281      6D576169 
 4281      7454696D 
 4281      656F7574 
 4281      5300
 4282              	.LASF62:
 4283 02fb 6D5F6E65 		.ascii	"m_next\000"
 4283      787400
 4284              	.LASF20:
ARM GAS  C:\Users\DNIEL~1\AppData\Local\Temp\cctsnRq7.s 			page 81


 4285 0302 73797374 		.ascii	"systime_t\000"
 4285      696D655F 
 4285      7400
 4286              	.LASF41:
 4287 030c 705F7265 		.ascii	"p_realprio\000"
 4287      616C7072 
 4287      696F00
 4288              	.LASF74:
 4289 0317 63685365 		.ascii	"chSemWait\000"
 4289      6D576169 
 4289      7400
 4290              	.LASF35:
 4291 0321 705F7469 		.ascii	"p_time\000"
 4291      6D6500
 4292              	.LASF68:
 4293 0328 6C69666F 		.ascii	"lifo_remove\000"
 4293      5F72656D 
 4293      6F766500 
 4294              	.LASF47:
 4295 0334 696E7463 		.ascii	"intctx\000"
 4295      747800
 4296              	.LASF37:
 4297 033b 705F6D73 		.ascii	"p_msgqueue\000"
 4297      67717565 
 4297      756500
 4298              	.LASF56:
 4299 0346 53656D61 		.ascii	"Semaphore\000"
 4299      70686F72 
 4299      6500
 4300              	.LASF33:
 4301 0350 705F7265 		.ascii	"p_refs\000"
 4301      667300
 4302              	.LASF55:
 4303 0357 52656164 		.ascii	"ReadyList\000"
 4303      794C6973 
 4303      7400
 4304              	.LASF71:
 4305 0361 63685365 		.ascii	"chSemResetI\000"
 4305      6D526573 
 4305      65744900 
 4306              	.LASF82:
 4307 036d 726C6973 		.ascii	"rlist\000"
 4307      7400
 4308              	.LASF5:
 4309 0373 75696E74 		.ascii	"uint8_t\000"
 4309      385F7400 
 4310              	.LASF65:
 4311 037b 77746F62 		.ascii	"wtobjp\000"
 4311      6A7000
 4312              	.LASF83:
 4313 0382 474E5520 		.ascii	"GNU C 4.5.2\000"
 4313      4320342E 
 4313      352E3200 
 4314              	.LASF29:
 4315 038e 705F6E61 		.ascii	"p_name\000"
 4315      6D6500
 4316              	.LASF61:
ARM GAS  C:\Users\DNIEL~1\AppData\Local\Temp\cctsnRq7.s 			page 82


 4317 0395 6D5F6F77 		.ascii	"m_owner\000"
 4317      6E657200 
 4318              	.LASF26:
 4319 039d 705F6374 		.ascii	"p_ctx\000"
 4319      7800
 4320              	.LASF36:
 4321 03a3 705F7761 		.ascii	"p_waiting\000"
 4321      6974696E 
 4321      6700
 4322              	.LASF70:
 4323 03ad 63685365 		.ascii	"chSemInit\000"
 4323      6D496E69 
 4323      7400
 4324              		.ident	"GCC: (Sourcery G++ Lite 2011.03-42) 4.5.2"
ARM GAS  C:\Users\DNIEL~1\AppData\Local\Temp\cctsnRq7.s 			page 83


DEFINED SYMBOLS
                            *ABS*:00000000 chsem.c
C:\Users\DNIEL~1\AppData\Local\Temp\cctsnRq7.s:24     .text.chSemInit:00000000 $t
C:\Users\DNIEL~1\AppData\Local\Temp\cctsnRq7.s:30     .text.chSemInit:00000000 chSemInit
C:\Users\DNIEL~1\AppData\Local\Temp\cctsnRq7.s:77     .text.chSemInit:00000024 $d
C:\Users\DNIEL~1\AppData\Local\Temp\cctsnRq7.s:82     .text.chSemResetI:00000000 $t
C:\Users\DNIEL~1\AppData\Local\Temp\cctsnRq7.s:88     .text.chSemResetI:00000000 chSemResetI
C:\Users\DNIEL~1\AppData\Local\Temp\cctsnRq7.s:267    .text.chSemResetI:0000009c $d
C:\Users\DNIEL~1\AppData\Local\Temp\cctsnRq7.s:273    .text.chSemReset:00000000 $t
C:\Users\DNIEL~1\AppData\Local\Temp\cctsnRq7.s:279    .text.chSemReset:00000000 chSemReset
C:\Users\DNIEL~1\AppData\Local\Temp\cctsnRq7.s:331    .text.chSemWaitS:00000000 $t
C:\Users\DNIEL~1\AppData\Local\Temp\cctsnRq7.s:337    .text.chSemWaitS:00000000 chSemWaitS
C:\Users\DNIEL~1\AppData\Local\Temp\cctsnRq7.s:432    .text.chSemWaitS:00000060 $d
C:\Users\DNIEL~1\AppData\Local\Temp\cctsnRq7.s:439    .text.chSemWait:00000000 $t
C:\Users\DNIEL~1\AppData\Local\Temp\cctsnRq7.s:445    .text.chSemWait:00000000 chSemWait
C:\Users\DNIEL~1\AppData\Local\Temp\cctsnRq7.s:498    .text.chSemWaitTimeoutS:00000000 $t
C:\Users\DNIEL~1\AppData\Local\Temp\cctsnRq7.s:504    .text.chSemWaitTimeoutS:00000000 chSemWaitTimeoutS
C:\Users\DNIEL~1\AppData\Local\Temp\cctsnRq7.s:608    .text.chSemWaitTimeoutS:0000006c $d
C:\Users\DNIEL~1\AppData\Local\Temp\cctsnRq7.s:615    .text.chSemWaitTimeout:00000000 $t
C:\Users\DNIEL~1\AppData\Local\Temp\cctsnRq7.s:621    .text.chSemWaitTimeout:00000000 chSemWaitTimeout
C:\Users\DNIEL~1\AppData\Local\Temp\cctsnRq7.s:675    .text.chSemSignal:00000000 $t
C:\Users\DNIEL~1\AppData\Local\Temp\cctsnRq7.s:681    .text.chSemSignal:00000000 chSemSignal
C:\Users\DNIEL~1\AppData\Local\Temp\cctsnRq7.s:810    .text.chSemSignal:00000078 $d
C:\Users\DNIEL~1\AppData\Local\Temp\cctsnRq7.s:816    .text.chSemSignalI:00000000 $t
C:\Users\DNIEL~1\AppData\Local\Temp\cctsnRq7.s:822    .text.chSemSignalI:00000000 chSemSignalI
C:\Users\DNIEL~1\AppData\Local\Temp\cctsnRq7.s:919    .text.chSemSignalI:00000058 $d
C:\Users\DNIEL~1\AppData\Local\Temp\cctsnRq7.s:925    .text.chSemAddCounterI:00000000 $t
C:\Users\DNIEL~1\AppData\Local\Temp\cctsnRq7.s:931    .text.chSemAddCounterI:00000000 chSemAddCounterI
C:\Users\DNIEL~1\AppData\Local\Temp\cctsnRq7.s:1122   .text.chSemAddCounterI:000000cc $d
C:\Users\DNIEL~1\AppData\Local\Temp\cctsnRq7.s:1128   .text.chSemSignalWait:00000000 $t
C:\Users\DNIEL~1\AppData\Local\Temp\cctsnRq7.s:1134   .text.chSemSignalWait:00000000 chSemSignalWait
C:\Users\DNIEL~1\AppData\Local\Temp\cctsnRq7.s:1349   .text.chSemSignalWait:000000d4 $d
C:\Users\DNIEL~1\AppData\Local\Temp\cctsnRq7.s:1357   .rodata.str1.4:00000000 $d
                     .debug_frame:00000010 $d
C:\Users\DNIEL~1\AppData\Local\Temp\cctsnRq7.s:81     .text.chSemInit:00000028 $t
C:\Users\DNIEL~1\AppData\Local\Temp\cctsnRq7.s:272    .text.chSemResetI:000000a4 $t
C:\Users\DNIEL~1\AppData\Local\Temp\cctsnRq7.s:438    .text.chSemWaitS:0000006c $t
C:\Users\DNIEL~1\AppData\Local\Temp\cctsnRq7.s:614    .text.chSemWaitTimeoutS:00000078 $t
C:\Users\DNIEL~1\AppData\Local\Temp\cctsnRq7.s:1127   .text.chSemAddCounterI:000000d4 $t
C:\Users\DNIEL~1\AppData\Local\Temp\cctsnRq7.s:1356   .text.chSemSignalWait:000000e4 $t

UNDEFINED SYMBOLS
chDbgPanic
chDbgCheckClassI
chSchReadyI
dbg_check_lock
chSchRescheduleS
dbg_check_unlock
chDbgCheckClassS
chSchGoSleepS
rlist
chSchGoSleepTimeoutS
chSchWakeupS
