ARM GAS  C:\Users\DNIEL~1\AppData\Local\Temp\cctsnRq7.s 			page 1


   1              		.syntax unified
   2              		.cpu cortex-m3
   3              		.fpu softvfp
   4              		.eabi_attribute 20, 1
   5              		.eabi_attribute 21, 1
   6              		.eabi_attribute 23, 3
   7              		.eabi_attribute 24, 1
   8              		.eabi_attribute 25, 1
   9              		.eabi_attribute 26, 1
  10              		.eabi_attribute 30, 2
  11              		.eabi_attribute 18, 4
  12              		.thumb
  13              		.file	"chsem.c"
  20 0000 C0040000 		.text
  20      02007501 
  20      00000201 
  20      FB0E0D00 
  20      01010101 
  21              	.Ltext0:
  22              		.cfi_sections	.debug_frame
  23              		.section	.text.chSemInit,"ax",%progbits
  24              		.align	2
  25              		.p2align 4,,15
  26              		.global	chSemInit
  27              		.thumb
  28              		.thumb_func
  29              		.type	chSemInit, %function
  30              	chSemInit:
  31              	.LFB7:
  32              		.file 1 "../../../ChibiOS/os/kernel/src/chsem.c"
  33              		.loc 1 79 0
  34              		.cfi_startproc
  35              		@ args = 0, pretend = 0, frame = 0
  36              		@ frame_needed = 0, uses_anonymous_args = 0
  37              	.LVL0:
  38 0000 38B5     		push	{r3, r4, r5, lr}
  39              	.LCFI0:
  40              		.cfi_def_cfa_offset 16
  41              		.loc 1 81 0
  42 0002 0446     		mov	r4, r0
  43              		.cfi_offset 14, -4
  44              		.cfi_offset 5, -8
  45              		.cfi_offset 4, -12
  46              		.cfi_offset 3, -16
  47              		.loc 1 79 0
  48 0004 0D46     		mov	r5, r1
  49              		.loc 1 81 0
  50 0006 28B1     		cbz	r0, .L2
  51              		.loc 1 81 0 is_stmt 0 discriminator 2
  52 0008 0029     		cmp	r1, #0
  53 000a 03DB     		blt	.L2
ARM GAS  C:\Users\DNIEL~1\AppData\Local\Temp\cctsnRq7.s 			page 2


  54              		.loc 1 83 0 is_stmt 1
  55 000c 6460     		str	r4, [r4, #4]
  56 000e 2460     		str	r4, [r4, #0]
  57              		.loc 1 84 0
  58 0010 A560     		str	r5, [r4, #8]
  59              		.loc 1 85 0
  60 0012 38BD     		pop	{r3, r4, r5, pc}
  61              	.L2:
  62              		.loc 1 81 0 discriminator 1
  63 0014 0348     		ldr	r0, .L5
  64              	.LVL1:
  65 0016 FFF7FEFF 		bl	chDbgPanic
  66              	.LVL2:
  67              		.loc 1 83 0 discriminator 1
  68 001a 6460     		str	r4, [r4, #4]
  69 001c 2460     		str	r4, [r4, #0]
  70              		.loc 1 84 0 discriminator 1
  71 001e A560     		str	r5, [r4, #8]
  72              		.loc 1 85 0 discriminator 1
  73 0020 38BD     		pop	{r3, r4, r5, pc}
  74              	.L6:
  75 0022 00BF     		.align	2
  76              	.L5:
  77 0024 00000000 		.word	.LC0
  78              		.cfi_endproc
  79              	.LFE7:
  80              		.size	chSemInit, .-chSemInit
  81 0028 AFF30080 		.section	.text.chSemResetI,"ax",%progbits
  81      AFF30080 
  82              		.align	2
  83              		.p2align 4,,15
  84              		.global	chSemResetI
  85              		.thumb
  86              		.thumb_func
  87              		.type	chSemResetI, %function
  88              	chSemResetI:
  89              	.LFB9:
  90              		.loc 1 129 0
  91              		.cfi_startproc
  92              		@ args = 0, pretend = 0, frame = 0
  93              		@ frame_needed = 0, uses_anonymous_args = 0
  94              	.LVL3:
  95 0000 F8B5     		push	{r3, r4, r5, r6, r7, lr}
  96              	.LCFI1:
  97              		.cfi_def_cfa_offset 24
  98              		.loc 1 129 0
  99 0002 0446     		mov	r4, r0
 100              		.cfi_offset 14, -4
 101              		.cfi_offset 7, -8
 102              		.cfi_offset 6, -12
 103              		.cfi_offset 5, -16
 104              		.cfi_offset 4, -20
 105              		.cfi_offset 3, -24
 106 0004 0E46     		mov	r6, r1
 107              		.loc 1 132 0
 108 0006 FFF7FEFF 		bl	chDbgCheckClassI
 109              	.LVL4:
ARM GAS  C:\Users\DNIEL~1\AppData\Local\Temp\cctsnRq7.s 			page 3


 110              		.loc 1 133 0
 111 000a 002C     		cmp	r4, #0
 112 000c 3FD0     		beq	.L8
 113              		.loc 1 133 0 is_stmt 0 discriminator 2
 114 000e 002E     		cmp	r6, #0
 115 0010 3DDB     		blt	.L8
 116              	.L9:
 117              		.loc 1 134 0 is_stmt 1
 118 0012 A568     		ldr	r5, [r4, #8]
 119 0014 002D     		cmp	r5, #0
 120 0016 36DB     		blt	.L10
 121              		.loc 1 134 0 is_stmt 0 discriminator 2
 122 0018 2368     		ldr	r3, [r4, #0]
 123 001a A342     		cmp	r3, r4
 124 001c 03D0     		beq	.L12
 125              	.L11:
 126              		.loc 1 134 0 discriminator 3
 127 001e 1F48     		ldr	r0, .L24
 128 0020 FFF7FEFF 		bl	chDbgPanic
 129 0024 A568     		ldr	r5, [r4, #8]
 130              	.L12:
 131              	.LVL5:
 132              		.loc 1 141 0 is_stmt 1
 133 0026 0135     		adds	r5, r5, #1
 134              	.LVL6:
 135 0028 002D     		cmp	r5, #0
 136              		.loc 1 140 0
 137 002a A660     		str	r6, [r4, #8]
 138              	.LVL7:
 139              		.loc 1 141 0
 140 002c 2ADC     		bgt	.L7
 141              	.LBB24:
 142              	.LBB29:
 143              		.file 2 "../../../ChibiOS/os/kernel/include/chinline.h"
 144              		.loc 2 60 0
 145 002e 6068     		ldr	r0, [r4, #4]
 146              	.LBE29:
 147              	.LBE24:
 148              		.loc 1 142 0
 149 0030 6FF00107 		mvn	r7, #1
 150              	.LBB34:
 151              	.LBB28:
 152              		.loc 2 62 0
 153 0034 4168     		ldr	r1, [r0, #4]
 154              	.LBE28:
 155              	.LBE34:
 156              		.loc 1 141 0
 157 0036 6E1C     		adds	r6, r5, #1
 158              	.LVL8:
 159              	.LBB35:
 160              	.LBB30:
 161              		.loc 2 62 0
 162 0038 6160     		str	r1, [r4, #4]
 163 003a 0C60     		str	r4, [r1, #0]
 164              	.LBE30:
 165              	.LBE35:
 166              		.loc 1 142 0
ARM GAS  C:\Users\DNIEL~1\AppData\Local\Temp\cctsnRq7.s 			page 4


 167 003c FFF7FEFF 		bl	chSchReadyI
 168              	.LVL9:
 169 0040 05F00103 		and	r3, r5, #1
 170              	.LVL10:
 171 0044 8762     		str	r7, [r0, #40]
 172              	.LVL11:
 173              		.loc 1 141 0
 174 0046 002D     		cmp	r5, #0
 175 0048 25D0     		beq	.L22
 176 004a 4BB1     		cbz	r3, .L15
 177              	.LBB36:
 178              	.LBB27:
 179              		.loc 2 60 0
 180 004c 6068     		ldr	r0, [r4, #4]
 181              	.LBE27:
 182              	.LBE36:
 183              		.loc 1 141 0
 184 004e 0136     		adds	r6, r6, #1
 185              	.LBB37:
 186              	.LBB31:
 187              		.loc 2 62 0
 188 0050 4168     		ldr	r1, [r0, #4]
 189 0052 6160     		str	r1, [r4, #4]
 190 0054 0C60     		str	r4, [r1, #0]
 191              	.LBE31:
 192              	.LBE37:
 193              		.loc 1 142 0
 194 0056 FFF7FEFF 		bl	chSchReadyI
 195              		.loc 1 141 0
 196 005a 012E     		cmp	r6, #1
 197              		.loc 1 142 0
 198 005c 8762     		str	r7, [r0, #40]
 199              		.loc 1 141 0
 200 005e 1BD0     		beq	.L23
 201              	.L15:
 202              	.LBB38:
 203              	.LBB26:
 204              		.loc 2 60 0
 205 0060 6068     		ldr	r0, [r4, #4]
 206              	.LBE26:
 207              	.LBE38:
 208              		.loc 1 141 0
 209 0062 751C     		adds	r5, r6, #1
 210              	.LBB39:
 211              	.LBB32:
 212              		.loc 2 62 0
 213 0064 4368     		ldr	r3, [r0, #4]
 214              	.LBE32:
 215              	.LBE39:
 216              		.loc 1 141 0
 217 0066 0236     		adds	r6, r6, #2
 218              	.LBB40:
 219              	.LBB25:
 220              		.loc 2 62 0
 221 0068 6360     		str	r3, [r4, #4]
 222 006a 1C60     		str	r4, [r3, #0]
 223              	.LBE25:
ARM GAS  C:\Users\DNIEL~1\AppData\Local\Temp\cctsnRq7.s 			page 5


 224              	.LBE40:
 225              		.loc 1 142 0
 226 006c FFF7FEFF 		bl	chSchReadyI
 227 0070 8762     		str	r7, [r0, #40]
 228              	.LBB41:
 229              	.LBB33:
 230              		.loc 2 60 0
 231 0072 6068     		ldr	r0, [r4, #4]
 232              		.loc 2 62 0
 233 0074 4268     		ldr	r2, [r0, #4]
 234 0076 6260     		str	r2, [r4, #4]
 235 0078 1460     		str	r4, [r2, #0]
 236              	.LBE33:
 237              	.LBE41:
 238              		.loc 1 142 0
 239 007a FFF7FEFF 		bl	chSchReadyI
 240 007e 8762     		str	r7, [r0, #40]
 241              		.loc 1 141 0
 242 0080 002D     		cmp	r5, #0
 243 0082 EDD1     		bne	.L15
 244              	.LVL12:
 245              	.L7:
 246 0084 F8BD     		pop	{r3, r4, r5, r6, r7, pc}
 247              	.LVL13:
 248              	.L10:
 249              		.loc 1 134 0 discriminator 4
 250 0086 2068     		ldr	r0, [r4, #0]
 251 0088 A042     		cmp	r0, r4
 252 008a CCD1     		bne	.L12
 253 008c C7E7     		b	.L11
 254              	.L8:
 255              		.loc 1 133 0 discriminator 1
 256 008e 0448     		ldr	r0, .L24+4
 257 0090 FFF7FEFF 		bl	chDbgPanic
 258 0094 BDE7     		b	.L9
 259              	.LVL14:
 260              	.L22:
 261 0096 F8BD     		pop	{r3, r4, r5, r6, r7, pc}
 262              	.L23:
 263 0098 F8BD     		pop	{r3, r4, r5, r6, r7, pc}
 264              	.L25:
 265 009a 00BF     		.align	2
 266              	.L24:
 267 009c 20000000 		.word	.LC2
 268 00a0 10000000 		.word	.LC1
 269              		.cfi_endproc
 270              	.LFE9:
 271              		.size	chSemResetI, .-chSemResetI
 272 00a4 AFF30080 		.section	.text.chSemReset,"ax",%progbits
 272      AFF30080 
 272      AFF30080 
 273              		.align	2
 274              		.p2align 4,,15
 275              		.global	chSemReset
 276              		.thumb
 277              		.thumb_func
 278              		.type	chSemReset, %function
ARM GAS  C:\Users\DNIEL~1\AppData\Local\Temp\cctsnRq7.s 			page 6


 279              	chSemReset:
 280              	.LFB8:
 281              		.loc 1 102 0
 282              		.cfi_startproc
 283              		@ args = 0, pretend = 0, frame = 0
 284              		@ frame_needed = 0, uses_anonymous_args = 0
 285              	.LVL15:
 286 0000 38B5     		push	{r3, r4, r5, lr}
 287              	.LCFI2:
 288              		.cfi_def_cfa_offset 16
 289              		.loc 1 102 0
 290 0002 0546     		mov	r5, r0
 291              		.cfi_offset 14, -4
 292              		.cfi_offset 5, -8
 293              		.cfi_offset 4, -12
 294              		.cfi_offset 3, -16
 295 0004 0C46     		mov	r4, r1
 296              	.LBB42:
 297              		.loc 1 104 0
 298 0006 2023     		movs	r3, #32
 299              	.LVL16:
 300              	@ 104 "../../../ChibiOS/os/kernel/src/chsem.c" 1
 301 0008 83F31188 		msr     BASEPRI, r3
 302              	@ 0 "" 2
 303              	.LVL17:
 304              		.thumb
 305              	.LBE42:
 306 000c FFF7FEFF 		bl	dbg_check_lock
 307              	.LVL18:
 308              		.loc 1 105 0
 309 0010 2846     		mov	r0, r5
 310 0012 2146     		mov	r1, r4
 311 0014 FFF7FEFF 		bl	chSemResetI
 312              		.loc 1 106 0
 313 0018 FFF7FEFF 		bl	chSchRescheduleS
 314              		.loc 1 107 0
 315 001c FFF7FEFF 		bl	dbg_check_unlock
 316              	.LBB43:
 317 0020 0023     		movs	r3, #0
 318              	.LVL19:
 319              	@ 107 "../../../ChibiOS/os/kernel/src/chsem.c" 1
 320 0022 83F31188 		msr     BASEPRI, r3
 321              	@ 0 "" 2
 322              	.LVL20:
 323              		.thumb
 324              	.LBE43:
 325              		.loc 1 108 0
 326 0026 38BD     		pop	{r3, r4, r5, pc}
 327              		.cfi_endproc
 328              	.LFE8:
 329              		.size	chSemReset, .-chSemReset
 330 0028 AFF30080 		.section	.text.chSemWaitS,"ax",%progbits
 330      AFF30080 
 331              		.align	2
 332              		.p2align 4,,15
 333              		.global	chSemWaitS
 334              		.thumb
ARM GAS  C:\Users\DNIEL~1\AppData\Local\Temp\cctsnRq7.s 			page 7


 335              		.thumb_func
 336              		.type	chSemWaitS, %function
 337              	chSemWaitS:
 338              	.LFB11:
 339              		.loc 1 178 0
 340              		.cfi_startproc
 341              		@ args = 0, pretend = 0, frame = 0
 342              		@ frame_needed = 0, uses_anonymous_args = 0
 343              	.LVL21:
 344 0000 38B5     		push	{r3, r4, r5, lr}
 345              	.LCFI3:
 346              		.cfi_def_cfa_offset 16
 347              		.loc 1 178 0
 348 0002 0446     		mov	r4, r0
 349              		.cfi_offset 14, -4
 350              		.cfi_offset 5, -8
 351              		.cfi_offset 4, -12
 352              		.cfi_offset 3, -16
 353              		.loc 1 180 0
 354 0004 FFF7FEFF 		bl	chDbgCheckClassS
 355              	.LVL22:
 356              		.loc 1 181 0
 357 0008 002C     		cmp	r4, #0
 358 000a 24D0     		beq	.L35
 359              	.L28:
 360              		.loc 1 182 0
 361 000c A368     		ldr	r3, [r4, #8]
 362 000e 002B     		cmp	r3, #0
 363 0010 0CDB     		blt	.L29
 364              		.loc 1 182 0 is_stmt 0 discriminator 2
 365 0012 2268     		ldr	r2, [r4, #0]
 366 0014 A242     		cmp	r2, r4
 367 0016 03D0     		beq	.L31
 368              	.L30:
 369              		.loc 1 182 0 discriminator 3
 370 0018 1148     		ldr	r0, .L37
 371 001a FFF7FEFF 		bl	chDbgPanic
 372 001e A368     		ldr	r3, [r4, #8]
 373              	.L31:
 374              		.loc 1 187 0 is_stmt 1
 375 0020 013B     		subs	r3, r3, #1
 376 0022 002B     		cmp	r3, #0
 377 0024 A360     		str	r3, [r4, #8]
 378 0026 08DB     		blt	.L36
 379              	.L33:
 380              		.loc 1 193 0
 381 0028 0020     		movs	r0, #0
 382              		.loc 1 194 0
 383 002a 38BD     		pop	{r3, r4, r5, pc}
 384              	.L29:
 385              		.loc 1 182 0 discriminator 4
 386 002c 2068     		ldr	r0, [r4, #0]
 387 002e A042     		cmp	r0, r4
 388 0030 F2D0     		beq	.L30
 389              		.loc 1 187 0
 390 0032 013B     		subs	r3, r3, #1
 391 0034 002B     		cmp	r3, #0
ARM GAS  C:\Users\DNIEL~1\AppData\Local\Temp\cctsnRq7.s 			page 8


 392 0036 A360     		str	r3, [r4, #8]
 393 0038 F6DA     		bge	.L33
 394              	.L36:
 395              		.loc 1 188 0
 396 003a 0A4D     		ldr	r5, .L37+4
 397              		.loc 1 190 0
 398 003c 0320     		movs	r0, #3
 399              		.loc 1 188 0
 400 003e AB69     		ldr	r3, [r5, #24]
 401 0040 9C62     		str	r4, [r3, #40]
 402              	.LVL23:
 403              	.LBB44:
 404              	.LBB45:
 405              		.loc 2 48 0
 406 0042 6268     		ldr	r2, [r4, #4]
 407              		.loc 2 47 0
 408 0044 1C60     		str	r4, [r3, #0]
 409              		.loc 2 48 0
 410 0046 5A60     		str	r2, [r3, #4]
 411              		.loc 2 49 0
 412 0048 6360     		str	r3, [r4, #4]
 413 004a 1360     		str	r3, [r2, #0]
 414              	.LBE45:
 415              	.LBE44:
 416              		.loc 1 190 0
 417 004c FFF7FEFF 		bl	chSchGoSleepS
 418              	.LVL24:
 419              		.loc 1 191 0
 420 0050 A969     		ldr	r1, [r5, #24]
 421 0052 886A     		ldr	r0, [r1, #40]
 422 0054 38BD     		pop	{r3, r4, r5, pc}
 423              	.LVL25:
 424              	.L35:
 425              		.loc 1 181 0 discriminator 1
 426 0056 0448     		ldr	r0, .L37+8
 427 0058 FFF7FEFF 		bl	chDbgPanic
 428 005c D6E7     		b	.L28
 429              	.L38:
 430 005e 00BF     		.align	2
 431              	.L37:
 432 0060 44000000 		.word	.LC4
 433 0064 00000000 		.word	rlist
 434 0068 34000000 		.word	.LC3
 435              		.cfi_endproc
 436              	.LFE11:
 437              		.size	chSemWaitS, .-chSemWaitS
 438 006c AFF30080 		.section	.text.chSemWait,"ax",%progbits
 439              		.align	2
 440              		.p2align 4,,15
 441              		.global	chSemWait
 442              		.thumb
 443              		.thumb_func
 444              		.type	chSemWait, %function
 445              	chSemWait:
 446              	.LFB10:
 447              		.loc 1 157 0
 448              		.cfi_startproc
ARM GAS  C:\Users\DNIEL~1\AppData\Local\Temp\cctsnRq7.s 			page 9


 449              		@ args = 0, pretend = 0, frame = 0
 450              		@ frame_needed = 0, uses_anonymous_args = 0
 451              	.LVL26:
 452 0000 10B5     		push	{r4, lr}
 453              	.LCFI4:
 454              		.cfi_def_cfa_offset 8
 455              	.LBB46:
 456              		.loc 1 160 0
 457 0002 2023     		movs	r3, #32
 458              	.LVL27:
 459              	.LBE46:
 460              		.loc 1 157 0
 461 0004 0446     		mov	r4, r0
 462              		.cfi_offset 14, -4
 463              		.cfi_offset 4, -8
 464              	.LBB47:
 465              		.loc 1 160 0
 466              	@ 160 "../../../ChibiOS/os/kernel/src/chsem.c" 1
 467 0006 83F31188 		msr     BASEPRI, r3
 468              	@ 0 "" 2
 469              	.LVL28:
 470              		.thumb
 471              	.LBE47:
 472 000a FFF7FEFF 		bl	dbg_check_lock
 473              	.LVL29:
 474              		.loc 1 161 0
 475 000e 2046     		mov	r0, r4
 476 0010 FFF7FEFF 		bl	chSemWaitS
 477 0014 0446     		mov	r4, r0
 478              	.LVL30:
 479              		.loc 1 162 0
 480 0016 FFF7FEFF 		bl	dbg_check_unlock
 481              	.LVL31:
 482              	.LBB48:
 483 001a 0023     		movs	r3, #0
 484              	.LVL32:
 485              	@ 162 "../../../ChibiOS/os/kernel/src/chsem.c" 1
 486 001c 83F31188 		msr     BASEPRI, r3
 487              	@ 0 "" 2
 488              	.LVL33:
 489              		.thumb
 490              	.LBE48:
 491              		.loc 1 164 0
 492 0020 2046     		mov	r0, r4
 493 0022 10BD     		pop	{r4, pc}
 494              		.cfi_endproc
 495              	.LFE10:
 496              		.size	chSemWait, .-chSemWait
 497 0024 AFF30080 		.section	.text.chSemWaitTimeoutS,"ax",%progbits
 497      AFF30080 
 497      AFF30080 
 498              		.align	2
 499              		.p2align 4,,15
 500              		.global	chSemWaitTimeoutS
 501              		.thumb
 502              		.thumb_func
 503              		.type	chSemWaitTimeoutS, %function
ARM GAS  C:\Users\DNIEL~1\AppData\Local\Temp\cctsnRq7.s 			page 10


 504              	chSemWaitTimeoutS:
 505              	.LFB13:
 506              		.loc 1 243 0
 507              		.cfi_startproc
 508              		@ args = 0, pretend = 0, frame = 0
 509              		@ frame_needed = 0, uses_anonymous_args = 0
 510              	.LVL34:
 511 0000 70B5     		push	{r4, r5, r6, lr}
 512              	.LCFI5:
 513              		.cfi_def_cfa_offset 16
 514              		.loc 1 243 0
 515 0002 0446     		mov	r4, r0
 516              		.cfi_offset 14, -4
 517              		.cfi_offset 6, -8
 518              		.cfi_offset 5, -12
 519              		.cfi_offset 4, -16
 520 0004 0D46     		mov	r5, r1
 521              		.loc 1 245 0
 522 0006 FFF7FEFF 		bl	chDbgCheckClassS
 523              	.LVL35:
 524              		.loc 1 246 0
 525 000a 002C     		cmp	r4, #0
 526 000c 25D0     		beq	.L49
 527              	.L41:
 528              		.loc 1 247 0
 529 000e A368     		ldr	r3, [r4, #8]
 530 0010 002B     		cmp	r3, #0
 531 0012 0CDB     		blt	.L42
 532              		.loc 1 247 0 is_stmt 0 discriminator 2
 533 0014 2268     		ldr	r2, [r4, #0]
 534 0016 A242     		cmp	r2, r4
 535 0018 03D0     		beq	.L44
 536              	.L43:
 537              		.loc 1 247 0 discriminator 3
 538 001a 1448     		ldr	r0, .L52
 539 001c FFF7FEFF 		bl	chDbgPanic
 540 0020 A368     		ldr	r3, [r4, #8]
 541              	.L44:
 542              		.loc 1 252 0 is_stmt 1
 543 0022 591E     		subs	r1, r3, #1
 544 0024 0029     		cmp	r1, #0
 545 0026 A160     		str	r1, [r4, #8]
 546 0028 08DB     		blt	.L50
 547              	.L47:
 548              		.loc 1 261 0
 549 002a 0020     		movs	r0, #0
 550              		.loc 1 262 0
 551 002c 70BD     		pop	{r4, r5, r6, pc}
 552              	.L42:
 553              		.loc 1 247 0 discriminator 4
 554 002e 2068     		ldr	r0, [r4, #0]
 555 0030 A042     		cmp	r0, r4
 556 0032 F2D0     		beq	.L43
 557              		.loc 1 252 0
 558 0034 591E     		subs	r1, r3, #1
 559 0036 0029     		cmp	r1, #0
 560 0038 A160     		str	r1, [r4, #8]
ARM GAS  C:\Users\DNIEL~1\AppData\Local\Temp\cctsnRq7.s 			page 11


 561 003a F6DA     		bge	.L47
 562              	.L50:
 563              		.loc 1 253 0
 564 003c 8DB1     		cbz	r5, .L51
 565              		.loc 1 257 0
 566 003e 0C49     		ldr	r1, .L52+4
 567              		.loc 1 259 0
 568 0040 0320     		movs	r0, #3
 569              		.loc 1 257 0
 570 0042 8B69     		ldr	r3, [r1, #24]
 571              		.loc 1 259 0
 572 0044 2946     		mov	r1, r5
 573              		.loc 1 257 0
 574 0046 9C62     		str	r4, [r3, #40]
 575              	.LVL36:
 576              	.LBB49:
 577              	.LBB50:
 578              		.loc 2 48 0
 579 0048 6268     		ldr	r2, [r4, #4]
 580              		.loc 2 47 0
 581 004a 1C60     		str	r4, [r3, #0]
 582              		.loc 2 48 0
 583 004c 5A60     		str	r2, [r3, #4]
 584              		.loc 2 49 0
 585 004e 6360     		str	r3, [r4, #4]
 586 0050 1360     		str	r3, [r2, #0]
 587              	.LBE50:
 588              	.LBE49:
 589              		.loc 1 262 0
 590 0052 BDE87040 		pop	{r4, r5, r6, lr}
 591              		.loc 1 259 0
 592 0056 FFF7FEBF 		b	chSchGoSleepTimeoutS
 593              	.LVL37:
 594              	.L49:
 595              		.loc 1 246 0 discriminator 1
 596 005a 0648     		ldr	r0, .L52+8
 597 005c FFF7FEFF 		bl	chDbgPanic
 598 0060 D5E7     		b	.L41
 599              	.L51:
 600              		.loc 1 254 0
 601 0062 A360     		str	r3, [r4, #8]
 602              		.loc 1 255 0
 603 0064 4FF0FF30 		mov	r0, #-1
 604 0068 70BD     		pop	{r4, r5, r6, pc}
 605              	.L53:
 606 006a 00BF     		.align	2
 607              	.L52:
 608 006c 70000000 		.word	.LC6
 609 0070 00000000 		.word	rlist
 610 0074 58000000 		.word	.LC5
 611              		.cfi_endproc
 612              	.LFE13:
 613              		.size	chSemWaitTimeoutS, .-chSemWaitTimeoutS
 614 0078 AFF30080 		.section	.text.chSemWaitTimeout,"ax",%progbits
 614      AFF30080 
 615              		.align	2
 616              		.p2align 4,,15
ARM GAS  C:\Users\DNIEL~1\AppData\Local\Temp\cctsnRq7.s 			page 12


 617              		.global	chSemWaitTimeout
 618              		.thumb
 619              		.thumb_func
 620              		.type	chSemWaitTimeout, %function
 621              	chSemWaitTimeout:
 622              	.LFB12:
 623              		.loc 1 215 0
 624              		.cfi_startproc
 625              		@ args = 0, pretend = 0, frame = 0
 626              		@ frame_needed = 0, uses_anonymous_args = 0
 627              	.LVL38:
 628 0000 38B5     		push	{r3, r4, r5, lr}
 629              	.LCFI6:
 630              		.cfi_def_cfa_offset 16
 631              		.loc 1 215 0
 632 0002 0546     		mov	r5, r0
 633              		.cfi_offset 14, -4
 634              		.cfi_offset 5, -8
 635              		.cfi_offset 4, -12
 636              		.cfi_offset 3, -16
 637 0004 0C46     		mov	r4, r1
 638              	.LBB51:
 639              		.loc 1 218 0
 640 0006 2023     		movs	r3, #32
 641              	.LVL39:
 642              	@ 218 "../../../ChibiOS/os/kernel/src/chsem.c" 1
 643 0008 83F31188 		msr     BASEPRI, r3
 644              	@ 0 "" 2
 645              	.LVL40:
 646              		.thumb
 647              	.LBE51:
 648 000c FFF7FEFF 		bl	dbg_check_lock
 649              	.LVL41:
 650              		.loc 1 219 0
 651 0010 2146     		mov	r1, r4
 652 0012 2846     		mov	r0, r5
 653 0014 FFF7FEFF 		bl	chSemWaitTimeoutS
 654 0018 0446     		mov	r4, r0
 655              	.LVL42:
 656              		.loc 1 220 0
 657 001a FFF7FEFF 		bl	dbg_check_unlock
 658              	.LVL43:
 659              	.LBB52:
 660 001e 0023     		movs	r3, #0
 661              	.LVL44:
 662              	@ 220 "../../../ChibiOS/os/kernel/src/chsem.c" 1
 663 0020 83F31188 		msr     BASEPRI, r3
 664              	@ 0 "" 2
 665              	.LVL45:
 666              		.thumb
 667              	.LBE52:
 668              		.loc 1 222 0
 669 0024 2046     		mov	r0, r4
 670 0026 38BD     		pop	{r3, r4, r5, pc}
 671              		.cfi_endproc
 672              	.LFE12:
 673              		.size	chSemWaitTimeout, .-chSemWaitTimeout
ARM GAS  C:\Users\DNIEL~1\AppData\Local\Temp\cctsnRq7.s 			page 13


 674 0028 AFF30080 		.section	.text.chSemSignal,"ax",%progbits
 674      AFF30080 
 675              		.align	2
 676              		.p2align 4,,15
 677              		.global	chSemSignal
 678              		.thumb
 679              		.thumb_func
 680              		.type	chSemSignal, %function
 681              	chSemSignal:
 682              	.LFB14:
 683              		.loc 1 271 0
 684              		.cfi_startproc
 685              		@ args = 0, pretend = 0, frame = 0
 686              		@ frame_needed = 0, uses_anonymous_args = 0
 687              	.LVL46:
 688 0000 10B5     		push	{r4, lr}
 689              	.LCFI7:
 690              		.cfi_def_cfa_offset 8
 691              		.loc 1 273 0
 692 0002 0446     		mov	r4, r0
 693              		.cfi_offset 14, -4
 694              		.cfi_offset 4, -8
 695 0004 0028     		cmp	r0, #0
 696 0006 32D0     		beq	.L62
 697              	.LVL47:
 698              	.L56:
 699              		.loc 1 274 0
 700 0008 A368     		ldr	r3, [r4, #8]
 701 000a 002B     		cmp	r3, #0
 702 000c 15DB     		blt	.L57
 703              		.loc 1 274 0 is_stmt 0 discriminator 2
 704 000e 2068     		ldr	r0, [r4, #0]
 705 0010 A042     		cmp	r0, r4
 706 0012 02D0     		beq	.L59
 707              	.L58:
 708              		.loc 1 274 0 discriminator 3
 709 0014 1848     		ldr	r0, .L64
 710 0016 FFF7FEFF 		bl	chDbgPanic
 711              	.L59:
 712              	.LBB53:
 713              		.loc 1 279 0 is_stmt 1
 714 001a 2023     		movs	r3, #32
 715              	.LVL48:
 716              	@ 279 "../../../ChibiOS/os/kernel/src/chsem.c" 1
 717 001c 83F31188 		msr     BASEPRI, r3
 718              	@ 0 "" 2
 719              	.LVL49:
 720              		.thumb
 721              	.LBE53:
 722 0020 FFF7FEFF 		bl	dbg_check_lock
 723              	.LVL50:
 724              		.loc 1 280 0
 725 0024 A368     		ldr	r3, [r4, #8]
 726 0026 5A1C     		adds	r2, r3, #1
 727 0028 002A     		cmp	r2, #0
 728 002a A260     		str	r2, [r4, #8]
 729 002c 12DD     		ble	.L63
ARM GAS  C:\Users\DNIEL~1\AppData\Local\Temp\cctsnRq7.s 			page 14


 730              	.L60:
 731              		.loc 1 282 0
 732 002e FFF7FEFF 		bl	dbg_check_unlock
 733              	.LBB54:
 734 0032 0023     		movs	r3, #0
 735              	.LVL51:
 736              	@ 282 "../../../ChibiOS/os/kernel/src/chsem.c" 1
 737 0034 83F31188 		msr     BASEPRI, r3
 738              	@ 0 "" 2
 739              	.LVL52:
 740              		.thumb
 741              	.LBE54:
 742              		.loc 1 283 0
 743 0038 10BD     		pop	{r4, pc}
 744              	.LVL53:
 745              	.L57:
 746              		.loc 1 274 0 discriminator 4
 747 003a 2168     		ldr	r1, [r4, #0]
 748 003c A142     		cmp	r1, r4
 749 003e E9D0     		beq	.L58
 750              	.LBB55:
 751              		.loc 1 279 0
 752 0040 2023     		movs	r3, #32
 753              	@ 279 "../../../ChibiOS/os/kernel/src/chsem.c" 1
 754 0042 83F31188 		msr     BASEPRI, r3
 755              	@ 0 "" 2
 756              	.LVL54:
 757              		.thumb
 758              	.LBE55:
 759 0046 FFF7FEFF 		bl	dbg_check_lock
 760              	.LVL55:
 761              		.loc 1 280 0
 762 004a A368     		ldr	r3, [r4, #8]
 763 004c 5A1C     		adds	r2, r3, #1
 764 004e 002A     		cmp	r2, #0
 765 0050 A260     		str	r2, [r4, #8]
 766 0052 ECDC     		bgt	.L60
 767              	.L63:
 768              	.LVL56:
 769              	.LBB56:
 770              	.LBB57:
 771              		.loc 2 53 0
 772 0054 2068     		ldr	r0, [r4, #0]
 773              	.LVL57:
 774              	.LBE57:
 775              	.LBE56:
 776              		.loc 1 281 0
 777 0056 0021     		movs	r1, #0
 778              	.LBB59:
 779              	.LBB58:
 780              		.loc 2 55 0
 781 0058 0268     		ldr	r2, [r0, #0]
 782 005a 2260     		str	r2, [r4, #0]
 783 005c 5460     		str	r4, [r2, #4]
 784              	.LBE58:
 785              	.LBE59:
 786              		.loc 1 281 0
ARM GAS  C:\Users\DNIEL~1\AppData\Local\Temp\cctsnRq7.s 			page 15


 787 005e FFF7FEFF 		bl	chSchWakeupS
 788              	.LVL58:
 789              		.loc 1 282 0
 790 0062 FFF7FEFF 		bl	dbg_check_unlock
 791              	.LBB60:
 792 0066 0023     		movs	r3, #0
 793              	@ 282 "../../../ChibiOS/os/kernel/src/chsem.c" 1
 794 0068 83F31188 		msr     BASEPRI, r3
 795              	@ 0 "" 2
 796              	.LVL59:
 797              		.thumb
 798              	.LBE60:
 799              		.loc 1 283 0
 800 006c 10BD     		pop	{r4, pc}
 801              	.LVL60:
 802              	.L62:
 803              		.loc 1 273 0 discriminator 1
 804 006e 0348     		ldr	r0, .L64+4
 805 0070 FFF7FEFF 		bl	chDbgPanic
 806 0074 C8E7     		b	.L56
 807              	.L65:
 808 0076 00BF     		.align	2
 809              	.L64:
 810 0078 98000000 		.word	.LC8
 811 007c 88000000 		.word	.LC7
 812              		.cfi_endproc
 813              	.LFE14:
 814              		.size	chSemSignal, .-chSemSignal
 815              		.section	.text.chSemSignalI,"ax",%progbits
 816              		.align	2
 817              		.p2align 4,,15
 818              		.global	chSemSignalI
 819              		.thumb
 820              		.thumb_func
 821              		.type	chSemSignalI, %function
 822              	chSemSignalI:
 823              	.LFB15:
 824              		.loc 1 296 0
 825              		.cfi_startproc
 826              		@ args = 0, pretend = 0, frame = 0
 827              		@ frame_needed = 0, uses_anonymous_args = 0
 828              	.LVL61:
 829 0000 10B5     		push	{r4, lr}
 830              	.LCFI8:
 831              		.cfi_def_cfa_offset 8
 832              		.loc 1 296 0
 833 0002 0446     		mov	r4, r0
 834              		.cfi_offset 14, -4
 835              		.cfi_offset 4, -8
 836              		.loc 1 298 0
 837 0004 FFF7FEFF 		bl	chDbgCheckClassI
 838              	.LVL62:
 839              		.loc 1 299 0
 840 0008 002C     		cmp	r4, #0
 841 000a 20D0     		beq	.L73
 842              	.L67:
 843              		.loc 1 300 0
ARM GAS  C:\Users\DNIEL~1\AppData\Local\Temp\cctsnRq7.s 			page 16


 844 000c A368     		ldr	r3, [r4, #8]
 845 000e 002B     		cmp	r3, #0
 846 0010 0BDB     		blt	.L68
 847              		.loc 1 300 0 is_stmt 0 discriminator 2
 848 0012 2268     		ldr	r2, [r4, #0]
 849 0014 A242     		cmp	r2, r4
 850 0016 03D0     		beq	.L70
 851              	.L69:
 852              		.loc 1 300 0 discriminator 3
 853 0018 0F48     		ldr	r0, .L75
 854 001a FFF7FEFF 		bl	chDbgPanic
 855 001e A368     		ldr	r3, [r4, #8]
 856              	.L70:
 857              		.loc 1 305 0 is_stmt 1
 858 0020 0133     		adds	r3, r3, #1
 859 0022 002B     		cmp	r3, #0
 860 0024 A360     		str	r3, [r4, #8]
 861 0026 07DD     		ble	.L74
 862              	.L66:
 863 0028 10BD     		pop	{r4, pc}
 864              	.L68:
 865              		.loc 1 300 0 discriminator 4
 866 002a 2068     		ldr	r0, [r4, #0]
 867 002c A042     		cmp	r0, r4
 868 002e F3D0     		beq	.L69
 869              		.loc 1 305 0
 870 0030 0133     		adds	r3, r3, #1
 871 0032 002B     		cmp	r3, #0
 872 0034 A360     		str	r3, [r4, #8]
 873 0036 F7DC     		bgt	.L66
 874              	.L74:
 875              	.LVL63:
 876              	.LBB61:
 877              	.LBB64:
 878              	.LBB66:
 879              		.loc 2 53 0
 880 0038 2368     		ldr	r3, [r4, #0]
 881              	.LVL64:
 882              	.LBE66:
 883              	.LBE64:
 884              		.loc 1 309 0
 885 003a 0021     		movs	r1, #0
 886              	.LBB63:
 887              	.LBB65:
 888              		.loc 2 55 0
 889 003c 1A68     		ldr	r2, [r3, #0]
 890              	.LBE65:
 891              	.LBE63:
 892              		.loc 1 310 0
 893 003e 1846     		mov	r0, r3
 894              	.LBB62:
 895              	.LBB67:
 896              		.loc 2 55 0
 897 0040 2260     		str	r2, [r4, #0]
 898 0042 5460     		str	r4, [r2, #4]
 899              	.LBE67:
 900              	.LBE62:
ARM GAS  C:\Users\DNIEL~1\AppData\Local\Temp\cctsnRq7.s 			page 17


 901              		.loc 1 309 0
 902 0044 9962     		str	r1, [r3, #40]
 903              	.LBE61:
 904              		.loc 1 312 0
 905 0046 BDE81040 		pop	{r4, lr}
 906              	.LBB68:
 907              		.loc 1 310 0
 908 004a FFF7FEBF 		b	chSchReadyI
 909              	.LVL65:
 910              	.L73:
 911              	.LBE68:
 912              		.loc 1 299 0 discriminator 1
 913 004e 0348     		ldr	r0, .L75+4
 914 0050 FFF7FEFF 		bl	chDbgPanic
 915 0054 DAE7     		b	.L67
 916              	.L76:
 917 0056 00BF     		.align	2
 918              	.L75:
 919 0058 C0000000 		.word	.LC10
 920 005c AC000000 		.word	.LC9
 921              		.cfi_endproc
 922              	.LFE15:
 923              		.size	chSemSignalI, .-chSemSignalI
 924              		.section	.text.chSemAddCounterI,"ax",%progbits
 925              		.align	2
 926              		.p2align 4,,15
 927              		.global	chSemAddCounterI
 928              		.thumb
 929              		.thumb_func
 930              		.type	chSemAddCounterI, %function
 931              	chSemAddCounterI:
 932              	.LFB16:
 933              		.loc 1 327 0
 934              		.cfi_startproc
 935              		@ args = 0, pretend = 0, frame = 0
 936              		@ frame_needed = 0, uses_anonymous_args = 0
 937              	.LVL66:
 938 0000 F8B5     		push	{r3, r4, r5, r6, r7, lr}
 939              	.LCFI9:
 940              		.cfi_def_cfa_offset 24
 941              		.loc 1 327 0
 942 0002 0446     		mov	r4, r0
 943              		.cfi_offset 14, -4
 944              		.cfi_offset 7, -8
 945              		.cfi_offset 6, -12
 946              		.cfi_offset 5, -16
 947              		.cfi_offset 4, -20
 948              		.cfi_offset 3, -24
 949 0004 0D46     		mov	r5, r1
 950              		.loc 1 329 0
 951 0006 FFF7FEFF 		bl	chDbgCheckClassI
 952              	.LVL67:
 953              		.loc 1 330 0
 954 000a 002C     		cmp	r4, #0
 955 000c 48D0     		beq	.L78
 956              		.loc 1 330 0 is_stmt 0 discriminator 2
 957 000e 002D     		cmp	r5, #0
ARM GAS  C:\Users\DNIEL~1\AppData\Local\Temp\cctsnRq7.s 			page 18


 958 0010 46DD     		ble	.L78
 959              	.L79:
 960              		.loc 1 331 0 is_stmt 1
 961 0012 A368     		ldr	r3, [r4, #8]
 962 0014 002B     		cmp	r3, #0
 963 0016 3FDB     		blt	.L80
 964              		.loc 1 331 0 is_stmt 0 discriminator 2
 965 0018 2068     		ldr	r0, [r4, #0]
 966 001a A042     		cmp	r0, r4
 967 001c 02D0     		beq	.L82
 968              	.L81:
 969              		.loc 1 331 0 discriminator 3
 970 001e 2B48     		ldr	r0, .L104
 971 0020 FFF7FEFF 		bl	chDbgPanic
 972              	.L82:
 973              		.loc 1 336 0 is_stmt 1 discriminator 1
 974 0024 002D     		cmp	r5, #0
 975 0026 36DD     		ble	.L77
 976              		.loc 1 337 0
 977 0028 A668     		ldr	r6, [r4, #8]
 978 002a 6F1E     		subs	r7, r5, #1
 979 002c 721C     		adds	r2, r6, #1
 980              		.loc 1 338 0
 981 002e 0026     		movs	r6, #0
 982              		.loc 1 337 0
 983 0030 B242     		cmp	r2, r6
 984 0032 A260     		str	r2, [r4, #8]
 985 0034 07F00107 		and	r7, r7, #1
 986 0038 36DD     		ble	.L98
 987              	.L88:
 988              	.LVL68:
 989              		.loc 1 336 0
 990 003a 013D     		subs	r5, r5, #1
 991 003c 2BD0     		beq	.L77
 992 003e 77B1     		cbz	r7, .L86
 993              		.loc 1 337 0
 994 0040 A268     		ldr	r2, [r4, #8]
 995 0042 501C     		adds	r0, r2, #1
 996 0044 0028     		cmp	r0, #0
 997 0046 A060     		str	r0, [r4, #8]
 998 0048 36DD     		ble	.L99
 999              	.L90:
 1000              		.loc 1 336 0
 1001 004a 013D     		subs	r5, r5, #1
 1002 004c 07D1     		bne	.L86
 1003 004e 3BE0     		b	.L103
 1004              	.L84:
 1005              		.loc 1 337 0
 1006 0050 A368     		ldr	r3, [r4, #8]
 1007 0052 5A1C     		adds	r2, r3, #1
 1008 0054 002A     		cmp	r2, #0
 1009 0056 A260     		str	r2, [r4, #8]
 1010 0058 13DD     		ble	.L101
 1011              	.L93:
 1012              		.loc 1 336 0
 1013 005a 013D     		subs	r5, r5, #1
 1014 005c 1AD0     		beq	.L102
ARM GAS  C:\Users\DNIEL~1\AppData\Local\Temp\cctsnRq7.s 			page 19


 1015              	.L86:
 1016              		.loc 1 337 0
 1017 005e A068     		ldr	r0, [r4, #8]
 1018              		.loc 1 339 0
 1019 0060 013D     		subs	r5, r5, #1
 1020              		.loc 1 337 0
 1021 0062 431C     		adds	r3, r0, #1
 1022 0064 002B     		cmp	r3, #0
 1023 0066 A360     		str	r3, [r4, #8]
 1024 0068 F2DC     		bgt	.L84
 1025              	.LVL69:
 1026              	.LBB69:
 1027              	.LBB71:
 1028              		.loc 2 53 0
 1029 006a 2068     		ldr	r0, [r4, #0]
 1030              	.LVL70:
 1031              		.loc 2 55 0
 1032 006c 0168     		ldr	r1, [r0, #0]
 1033 006e 2160     		str	r1, [r4, #0]
 1034 0070 4C60     		str	r4, [r1, #4]
 1035              	.LBE71:
 1036              	.LBE69:
 1037              		.loc 1 338 0
 1038 0072 FFF7FEFF 		bl	chSchReadyI
 1039              	.LVL71:
 1040 0076 8662     		str	r6, [r0, #40]
 1041              		.loc 1 337 0
 1042 0078 A368     		ldr	r3, [r4, #8]
 1043 007a 5A1C     		adds	r2, r3, #1
 1044 007c 002A     		cmp	r2, #0
 1045 007e A260     		str	r2, [r4, #8]
 1046 0080 EBDC     		bgt	.L93
 1047              	.LVL72:
 1048              	.L101:
 1049              	.LBB74:
 1050              	.LBB72:
 1051              		.loc 2 53 0
 1052 0082 2068     		ldr	r0, [r4, #0]
 1053              		.loc 2 55 0
 1054 0084 0168     		ldr	r1, [r0, #0]
 1055 0086 2160     		str	r1, [r4, #0]
 1056 0088 4C60     		str	r4, [r1, #4]
 1057              	.LBE72:
 1058              	.LBE74:
 1059              		.loc 1 338 0
 1060 008a FFF7FEFF 		bl	chSchReadyI
 1061              		.loc 1 336 0
 1062 008e 013D     		subs	r5, r5, #1
 1063              		.loc 1 338 0
 1064 0090 8662     		str	r6, [r0, #40]
 1065              		.loc 1 336 0
 1066 0092 E4D1     		bne	.L86
 1067              	.LVL73:
 1068              	.L102:
 1069 0094 F8BD     		pop	{r3, r4, r5, r6, r7, pc}
 1070              	.L77:
 1071 0096 F8BD     		pop	{r3, r4, r5, r6, r7, pc}
ARM GAS  C:\Users\DNIEL~1\AppData\Local\Temp\cctsnRq7.s 			page 20


 1072              	.LVL74:
 1073              	.L80:
 1074              		.loc 1 331 0 discriminator 4
 1075 0098 2168     		ldr	r1, [r4, #0]
 1076 009a A142     		cmp	r1, r4
 1077 009c C2D1     		bne	.L82
 1078 009e BEE7     		b	.L81
 1079              	.L78:
 1080              		.loc 1 330 0 discriminator 1
 1081 00a0 0B48     		ldr	r0, .L104+4
 1082 00a2 FFF7FEFF 		bl	chDbgPanic
 1083 00a6 B4E7     		b	.L79
 1084              	.L98:
 1085              	.LVL75:
 1086              	.LBB75:
 1087              	.LBB70:
 1088              		.loc 2 53 0
 1089 00a8 2068     		ldr	r0, [r4, #0]
 1090              		.loc 2 55 0
 1091 00aa 0168     		ldr	r1, [r0, #0]
 1092 00ac 2160     		str	r1, [r4, #0]
 1093 00ae 4C60     		str	r4, [r1, #4]
 1094              	.LBE70:
 1095              	.LBE75:
 1096              		.loc 1 338 0
 1097 00b0 FFF7FEFF 		bl	chSchReadyI
 1098 00b4 8662     		str	r6, [r0, #40]
 1099 00b6 C0E7     		b	.L88
 1100              	.LVL76:
 1101              	.L99:
 1102              	.LBB76:
 1103              	.LBB73:
 1104              		.loc 2 53 0
 1105 00b8 2068     		ldr	r0, [r4, #0]
 1106              		.loc 2 55 0
 1107 00ba 0368     		ldr	r3, [r0, #0]
 1108 00bc 2360     		str	r3, [r4, #0]
 1109 00be 5C60     		str	r4, [r3, #4]
 1110              	.LBE73:
 1111              	.LBE76:
 1112              		.loc 1 338 0
 1113 00c0 FFF7FEFF 		bl	chSchReadyI
 1114 00c4 8662     		str	r6, [r0, #40]
 1115 00c6 C0E7     		b	.L90
 1116              	.LVL77:
 1117              	.L103:
 1118 00c8 F8BD     		pop	{r3, r4, r5, r6, r7, pc}
 1119              	.L105:
 1120 00ca 00BF     		.align	2
 1121              	.L104:
 1122 00cc EC000000 		.word	.LC12
 1123 00d0 D4000000 		.word	.LC11
 1124              		.cfi_endproc
 1125              	.LFE16:
 1126              		.size	chSemAddCounterI, .-chSemAddCounterI
 1127 00d4 AFF30080 		.section	.text.chSemSignalWait,"ax",%progbits
 1127      AFF30080 
ARM GAS  C:\Users\DNIEL~1\AppData\Local\Temp\cctsnRq7.s 			page 21


 1127      AFF30080 
 1128              		.align	2
 1129              		.p2align 4,,15
 1130              		.global	chSemSignalWait
 1131              		.thumb
 1132              		.thumb_func
 1133              		.type	chSemSignalWait, %function
 1134              	chSemSignalWait:
 1135              	.LFB17:
 1136              		.loc 1 359 0
 1137              		.cfi_startproc
 1138              		@ args = 0, pretend = 0, frame = 0
 1139              		@ frame_needed = 0, uses_anonymous_args = 0
 1140              	.LVL78:
 1141 0000 38B5     		push	{r3, r4, r5, lr}
 1142              	.LCFI10:
 1143              		.cfi_def_cfa_offset 16
 1144              		.loc 1 362 0
 1145 0002 0446     		mov	r4, r0
 1146              		.cfi_offset 14, -4
 1147              		.cfi_offset 5, -8
 1148              		.cfi_offset 4, -12
 1149              		.cfi_offset 3, -16
 1150              		.loc 1 359 0
 1151 0004 0D46     		mov	r5, r1
 1152              		.loc 1 362 0
 1153 0006 0028     		cmp	r0, #0
 1154 0008 5FD0     		beq	.L107
 1155              		.loc 1 362 0 is_stmt 0 discriminator 2
 1156 000a 0029     		cmp	r1, #0
 1157 000c 5DD0     		beq	.L107
 1158              	.LVL79:
 1159              	.L108:
 1160              		.loc 1 363 0 is_stmt 1
 1161 000e A368     		ldr	r3, [r4, #8]
 1162 0010 002B     		cmp	r3, #0
 1163 0012 27DB     		blt	.L109
 1164              		.loc 1 363 0 is_stmt 0 discriminator 2
 1165 0014 2068     		ldr	r0, [r4, #0]
 1166 0016 A042     		cmp	r0, r4
 1167 0018 02D0     		beq	.L111
 1168              	.L110:
 1169              		.loc 1 363 0 discriminator 3
 1170 001a 2E48     		ldr	r0, .L123
 1171 001c FFF7FEFF 		bl	chDbgPanic
 1172              	.L111:
 1173              		.loc 1 367 0 is_stmt 1
 1174 0020 AA68     		ldr	r2, [r5, #8]
 1175 0022 002A     		cmp	r2, #0
 1176 0024 24DB     		blt	.L112
 1177              	.L122:
 1178              		.loc 1 367 0 is_stmt 0 discriminator 2
 1179 0026 2B68     		ldr	r3, [r5, #0]
 1180 0028 AB42     		cmp	r3, r5
 1181 002a 02D0     		beq	.L114
 1182              	.L113:
 1183              		.loc 1 367 0 discriminator 3
ARM GAS  C:\Users\DNIEL~1\AppData\Local\Temp\cctsnRq7.s 			page 22


 1184 002c 2A48     		ldr	r0, .L123+4
 1185 002e FFF7FEFF 		bl	chDbgPanic
 1186              	.L114:
 1187              	.LBB77:
 1188              		.loc 1 372 0 is_stmt 1
 1189 0032 2023     		movs	r3, #32
 1190              	.LVL80:
 1191              	@ 372 "../../../ChibiOS/os/kernel/src/chsem.c" 1
 1192 0034 83F31188 		msr     BASEPRI, r3
 1193              	@ 0 "" 2
 1194              	.LVL81:
 1195              		.thumb
 1196              	.LBE77:
 1197 0038 FFF7FEFF 		bl	dbg_check_lock
 1198              	.LVL82:
 1199              		.loc 1 373 0
 1200 003c A268     		ldr	r2, [r4, #8]
 1201 003e 511C     		adds	r1, r2, #1
 1202 0040 0029     		cmp	r1, #0
 1203 0042 A160     		str	r1, [r4, #8]
 1204 0044 21DD     		ble	.L120
 1205              	.L115:
 1206              		.loc 1 375 0
 1207 0046 A968     		ldr	r1, [r5, #8]
 1208 0048 481E     		subs	r0, r1, #1
 1209 004a 0028     		cmp	r0, #0
 1210 004c A860     		str	r0, [r5, #8]
 1211 004e 29DB     		blt	.L121
 1212              	.LVL83:
 1213              	.L116:
 1214              		.loc 1 383 0
 1215 0050 FFF7FEFF 		bl	chSchRescheduleS
 1216              	.LVL84:
 1217              		.loc 1 384 0
 1218 0054 0024     		movs	r4, #0
 1219              	.LVL85:
 1220              		.loc 1 386 0
 1221 0056 FFF7FEFF 		bl	dbg_check_unlock
 1222              	.LBB78:
 1223 005a 0023     		movs	r3, #0
 1224              	.LVL86:
 1225              	@ 386 "../../../ChibiOS/os/kernel/src/chsem.c" 1
 1226 005c 83F31188 		msr     BASEPRI, r3
 1227              	@ 0 "" 2
 1228              	.LVL87:
 1229              		.thumb
 1230              	.LBE78:
 1231              		.loc 1 388 0
 1232 0060 2046     		mov	r0, r4
 1233 0062 38BD     		pop	{r3, r4, r5, pc}
 1234              	.LVL88:
 1235              	.L109:
 1236              		.loc 1 363 0 discriminator 4
 1237 0064 2168     		ldr	r1, [r4, #0]
 1238 0066 A142     		cmp	r1, r4
 1239 0068 D7D0     		beq	.L110
 1240              		.loc 1 367 0
ARM GAS  C:\Users\DNIEL~1\AppData\Local\Temp\cctsnRq7.s 			page 23


 1241 006a AA68     		ldr	r2, [r5, #8]
 1242 006c 002A     		cmp	r2, #0
 1243 006e DADA     		bge	.L122
 1244              	.L112:
 1245              		.loc 1 367 0 is_stmt 0 discriminator 4
 1246 0070 2868     		ldr	r0, [r5, #0]
 1247 0072 A842     		cmp	r0, r5
 1248 0074 DAD0     		beq	.L113
 1249              	.LBB79:
 1250              		.loc 1 372 0 is_stmt 1
 1251 0076 2023     		movs	r3, #32
 1252              	@ 372 "../../../ChibiOS/os/kernel/src/chsem.c" 1
 1253 0078 83F31188 		msr     BASEPRI, r3
 1254              	@ 0 "" 2
 1255              	.LVL89:
 1256              		.thumb
 1257              	.LBE79:
 1258 007c FFF7FEFF 		bl	dbg_check_lock
 1259              	.LVL90:
 1260              		.loc 1 373 0
 1261 0080 A268     		ldr	r2, [r4, #8]
 1262 0082 511C     		adds	r1, r2, #1
 1263 0084 0029     		cmp	r1, #0
 1264 0086 A160     		str	r1, [r4, #8]
 1265 0088 DDDC     		bgt	.L115
 1266              	.L120:
 1267              	.LVL91:
 1268              	.LBB80:
 1269              	.LBB81:
 1270              		.loc 2 53 0
 1271 008a 2068     		ldr	r0, [r4, #0]
 1272              	.LVL92:
 1273              		.loc 2 55 0
 1274 008c 0368     		ldr	r3, [r0, #0]
 1275 008e 2360     		str	r3, [r4, #0]
 1276 0090 5C60     		str	r4, [r3, #4]
 1277              	.LBE81:
 1278              	.LBE80:
 1279              		.loc 1 374 0
 1280 0092 FFF7FEFF 		bl	chSchReadyI
 1281              	.LVL93:
 1282 0096 0024     		movs	r4, #0
 1283              	.LVL94:
 1284 0098 8462     		str	r4, [r0, #40]
 1285              		.loc 1 375 0
 1286 009a A968     		ldr	r1, [r5, #8]
 1287 009c 481E     		subs	r0, r1, #1
 1288 009e 0028     		cmp	r0, #0
 1289 00a0 A860     		str	r0, [r5, #8]
 1290 00a2 D5DA     		bge	.L116
 1291              	.L121:
 1292              	.LBB82:
 1293              		.loc 1 376 0
 1294 00a4 0D4A     		ldr	r2, .L123+8
 1295              	.LBB83:
 1296              	.LBB84:
 1297              		.loc 2 48 0
ARM GAS  C:\Users\DNIEL~1\AppData\Local\Temp\cctsnRq7.s 			page 24


 1298 00a6 6B68     		ldr	r3, [r5, #4]
 1299              	.LBE84:
 1300              	.LBE83:
 1301              		.loc 1 376 0
 1302 00a8 9469     		ldr	r4, [r2, #24]
 1303              	.LVL95:
 1304              		.loc 1 379 0
 1305 00aa 0320     		movs	r0, #3
 1306              	.LBB86:
 1307              	.LBB85:
 1308              		.loc 2 47 0
 1309 00ac 2560     		str	r5, [r4, #0]
 1310              		.loc 2 48 0
 1311 00ae 6360     		str	r3, [r4, #4]
 1312              		.loc 2 49 0
 1313 00b0 6C60     		str	r4, [r5, #4]
 1314 00b2 1C60     		str	r4, [r3, #0]
 1315              	.LBE85:
 1316              	.LBE86:
 1317              		.loc 1 378 0
 1318 00b4 A562     		str	r5, [r4, #40]
 1319              		.loc 1 379 0
 1320 00b6 FFF7FEFF 		bl	chSchGoSleepS
 1321              	.LVL96:
 1322              		.loc 1 380 0
 1323 00ba A46A     		ldr	r4, [r4, #40]
 1324              	.LVL97:
 1325              	.LBE82:
 1326              		.loc 1 386 0
 1327 00bc FFF7FEFF 		bl	dbg_check_unlock
 1328              	.LBB87:
 1329 00c0 0023     		movs	r3, #0
 1330              	@ 386 "../../../ChibiOS/os/kernel/src/chsem.c" 1
 1331 00c2 83F31188 		msr     BASEPRI, r3
 1332              	@ 0 "" 2
 1333              	.LVL98:
 1334              		.thumb
 1335              	.LBE87:
 1336              		.loc 1 388 0
 1337 00c6 2046     		mov	r0, r4
 1338 00c8 38BD     		pop	{r3, r4, r5, pc}
 1339              	.LVL99:
 1340              	.L107:
 1341              		.loc 1 362 0 discriminator 1
 1342 00ca 0548     		ldr	r0, .L123+12
 1343              	.LVL100:
 1344 00cc FFF7FEFF 		bl	chDbgPanic
 1345 00d0 9DE7     		b	.L108
 1346              	.L124:
 1347 00d2 00BF     		.align	2
 1348              	.L123:
 1349 00d4 18010000 		.word	.LC14
 1350 00d8 30010000 		.word	.LC15
 1351 00dc 00000000 		.word	rlist
 1352 00e0 04010000 		.word	.LC13
 1353              		.cfi_endproc
 1354              	.LFE17:
ARM GAS  C:\Users\DNIEL~1\AppData\Local\Temp\cctsnRq7.s 			page 25


 1355              		.size	chSemSignalWait, .-chSemSignalWait
 1356 00e4 AFF30080 		.section	.rodata.str1.4,"aMS",%progbits,1
 1356      AFF30080 
 1356      AFF30080 
 1357              		.align	2
 1358              	.LC0:
 1359 0000 22636853 		.ascii	"\"chSemInit\"()\000"
 1359      656D496E 
 1359      69742228 
 1359      2900
 1360 000e 0000     		.space	2
 1361              	.LC1:
 1362 0010 22636853 		.ascii	"\"chSemResetI\"()\000"
 1362      656D5265 
 1362      73657449 
 1362      22282900 
 1363              	.LC2:
 1364 0020 63685365 		.ascii	"chSemResetI(), #1\000"
 1364      6D526573 
 1364      65744928 
 1364      292C2023 
 1364      3100
 1365 0032 0000     		.space	2
 1366              	.LC3:
 1367 0034 22636853 		.ascii	"\"chSemWaitS\"()\000"
 1367      656D5761 
 1367      69745322 
 1367      282900
 1368 0043 00       		.space	1
 1369              	.LC4:
 1370 0044 63685365 		.ascii	"chSemWaitS(), #1\000"
 1370      6D576169 
 1370      74532829 
 1370      2C202331 
 1370      00
 1371 0055 000000   		.space	3
 1372              	.LC5:
 1373 0058 22636853 		.ascii	"\"chSemWaitTimeoutS\"()\000"
 1373      656D5761 
 1373      69745469 
 1373      6D656F75 
 1373      74532228 
 1374 006e 0000     		.space	2
 1375              	.LC6:
 1376 0070 63685365 		.ascii	"chSemWaitTimeoutS(), #1\000"
 1376      6D576169 
 1376      7454696D 
 1376      656F7574 
 1376      5328292C 
 1377              	.LC7:
 1378 0088 22636853 		.ascii	"\"chSemSignal\"()\000"
 1378      656D5369 
 1378      676E616C 
 1378      22282900 
 1379              	.LC8:
 1380 0098 63685365 		.ascii	"chSemSignal(), #1\000"
 1380      6D536967 
ARM GAS  C:\Users\DNIEL~1\AppData\Local\Temp\cctsnRq7.s 			page 26


 1380      6E616C28 
 1380      292C2023 
 1380      3100
 1381 00aa 0000     		.space	2
 1382              	.LC9:
 1383 00ac 22636853 		.ascii	"\"chSemSignalI\"()\000"
 1383      656D5369 
 1383      676E616C 
 1383      49222829 
 1383      00
 1384 00bd 000000   		.space	3
 1385              	.LC10:
 1386 00c0 63685365 		.ascii	"chSemSignalI(), #1\000"
 1386      6D536967 
 1386      6E616C49 
 1386      28292C20 
 1386      233100
 1387 00d3 00       		.space	1
 1388              	.LC11:
 1389 00d4 22636853 		.ascii	"\"chSemAddCounterI\"()\000"
 1389      656D4164 
 1389      64436F75 
 1389      6E746572 
 1389      49222829 
 1390 00e9 000000   		.space	3
 1391              	.LC12:
 1392 00ec 63685365 		.ascii	"chSemAddCounterI(), #1\000"
 1392      6D416464 
 1392      436F756E 
 1392      74657249 
 1392      28292C20 
 1393 0103 00       		.space	1
 1394              	.LC13:
 1395 0104 22636853 		.ascii	"\"chSemSignalWait\"()\000"
 1395      656D5369 
 1395      676E616C 
 1395      57616974 
 1395      22282900 
 1396              	.LC14:
 1397 0118 63685365 		.ascii	"chSemSignalWait(), #1\000"
 1397      6D536967 
 1397      6E616C57 
 1397      61697428 
 1397      292C2023 
 1398 012e 0000     		.space	2
 1399              	.LC15:
 1400 0130 63685365 		.ascii	"chSemSignalWait(), #2\000"
 1400      6D536967 
 1400      6E616C57 
 1400      61697428 
 1400      292C2023 
 1401 0146 0000     		.text
 1402              	.Letext0: