ARM GAS  C:\Users\srich\AppData\Local\Temp\ccQ87DuB.s 			page 1


   1              		.syntax unified
   2              		.cpu cortex-m4
   3              		.fpu softvfp
   4              		.eabi_attribute 20, 1
   5              		.eabi_attribute 21, 1
   6              		.eabi_attribute 23, 3
   7              		.eabi_attribute 24, 1
   8              		.eabi_attribute 25, 1
   9              		.eabi_attribute 26, 1
  10              		.eabi_attribute 30, 2
  11              		.eabi_attribute 34, 1
  12              		.eabi_attribute 18, 4
  13              		.thumb
  14              		.file	"chsys.c"
  15              		.text
  16              	.Ltext0:
  17              		.cfi_sections	.debug_frame
  18              		.section	.text._idle_thread,"ax",%progbits
  19              		.align	2
  20              		.p2align 4,,15
  21              		.global	_idle_thread
  22              		.thumb
  23              		.thumb_func
  24              		.type	_idle_thread, %function
  25              	_idle_thread:
  26              	.LFB7:
  27              		.file 1 "c:\\ChibiStudio\\chibios/os/kernel/src/chsys.c"
  28              		.loc 1 61 0
  29              		.cfi_startproc
  30              		@ args = 0, pretend = 0, frame = 0
  31              		@ frame_needed = 0, uses_anonymous_args = 0
  32              		@ link register save eliminated.
  33              	.LVL0:
  34              		.loc 1 64 0
  35 0000 024B     		ldr	r3, .L4
  36 0002 034A     		ldr	r2, .L4+4
  37 0004 9869     		ldr	r0, [r3, #24]
  38              	.LVL1:
  39 0006 8261     		str	r2, [r0, #24]
  40              	.L2:
  41 0008 FEE7     		b	.L2
  42              	.L5:
  43 000a 00BF     		.align	2
  44              	.L4:
  45 000c 00000000 		.word	rlist
  46 0010 00000000 		.word	.LC0
  47              		.cfi_endproc
  48              	.LFE7:
  49              		.size	_idle_thread, .-_idle_thread
  50 0014 AFF30080 		.section	.text.chSysInit,"ax",%progbits
  50      AFF30080 
  50      AFF30080 
  51              		.align	2
  52              		.p2align 4,,15
  53              		.global	chSysInit
  54              		.thumb
  55              		.thumb_func
ARM GAS  C:\Users\srich\AppData\Local\Temp\ccQ87DuB.s 			page 2


  56              		.type	chSysInit, %function
  57              	chSysInit:
  58              	.LFB8:
  59              		.loc 1 84 0
  60              		.cfi_startproc
  61              		@ args = 0, pretend = 0, frame = 0
  62              		@ frame_needed = 0, uses_anonymous_args = 0
  63 0000 00B5     		push	{lr}
  64              	.LCFI0:
  65              		.cfi_def_cfa_offset 4
  66              		.cfi_offset 14, -4
  67 0002 83B0     		sub	sp, sp, #12
  68              	.LCFI1:
  69              		.cfi_def_cfa_offset 16
  70              		.loc 1 90 0
  71 0004 FFF7FEFF 		bl	_port_init
  72              	.LVL2:
  73              		.loc 1 91 0
  74 0008 FFF7FEFF 		bl	_scheduler_init
  75              	.LVL3:
  76              		.loc 1 92 0
  77 000c FFF7FEFF 		bl	_vt_init
  78              	.LVL4:
  79              		.loc 1 94 0
  80 0010 FFF7FEFF 		bl	_core_init
  81              	.LVL5:
  82              		.loc 1 97 0
  83 0014 FFF7FEFF 		bl	_heap_init
  84              	.LVL6:
  85              		.loc 1 104 0
  86 0018 40F20000 		movw	r0, #:lower16:.LANCHOR0
  87 001c 4021     		movs	r1, #64
  88 001e C0F20000 		movt	r0, #:upper16:.LANCHOR0
  89 0022 FFF7FEFF 		bl	_thread_init
  90              	.LVL7:
  91 0026 40F20001 		movw	r1, #:lower16:rlist
  92 002a C0F20001 		movt	r1, #:upper16:rlist
  93              		.loc 1 105 0
  94 002e 0122     		movs	r2, #1
  95              		.loc 1 104 0
  96 0030 8861     		str	r0, [r1, #24]
  97              		.loc 1 105 0
  98 0032 0277     		strb	r2, [r0, #28]
  99              	.LBB2:
 100              		.loc 1 111 0
 101 0034 0023     		movs	r3, #0
 102              	.LVL8:
 103              	@ 111 "c:\ChibiStudio\chibios/os/kernel/src/chsys.c" 1
 104 0036 83F31188 		msr     BASEPRI, r3                    
 105 003a 62B6     		cpsie   i
 106              	@ 0 "" 2
 107              	.LVL9:
 108              		.thumb
 109              	.LBE2:
 110              		.loc 1 115 0
 111 003c 40F20000 		movw	r0, #:lower16:ch_debug
 112 0040 8969     		ldr	r1, [r1, #24]
ARM GAS  C:\Users\srich\AppData\Local\Temp\ccQ87DuB.s 			page 3


 113 0042 C0F20000 		movt	r0, #:upper16:ch_debug
 114 0046 8861     		str	r0, [r1, #24]
 115              		.loc 1 121 0
 116 0048 0093     		str	r3, [sp, #0]
 117 004a 40F20000 		movw	r0, #:lower16:.LANCHOR1
 118 004e 40F20003 		movw	r3, #:lower16:_idle_thread
 119              	.LVL10:
 120 0052 E021     		movs	r1, #224
 121 0054 C0F20003 		movt	r3, #:upper16:_idle_thread
 122 0058 C0F20000 		movt	r0, #:upper16:.LANCHOR1
 123 005c FFF7FEFF 		bl	chThdCreateStatic
 124              	.LVL11:
 125              		.loc 1 124 0
 126 0060 03B0     		add	sp, sp, #12
 127 0062 00BD     		pop	{pc}
 128              		.cfi_endproc
 129              	.LFE8:
 130              		.size	chSysInit, .-chSysInit
 131 0064 AFF30080 		.section	.text.chSysTimerHandlerI,"ax",%progbits
 131      AFF30080 
 131      AFF30080 
 132              		.align	2
 133              		.p2align 4,,15
 134              		.global	chSysTimerHandlerI
 135              		.thumb
 136              		.thumb_func
 137              		.type	chSysTimerHandlerI, %function
 138              	chSysTimerHandlerI:
 139              	.LFB9:
 140              		.loc 1 137 0
 141              		.cfi_startproc
 142              		@ args = 0, pretend = 0, frame = 0
 143              		@ frame_needed = 0, uses_anonymous_args = 0
 144 0000 38B5     		push	{r3, r4, r5, lr}
 145              	.LCFI2:
 146              		.cfi_def_cfa_offset 16
 147              		.cfi_offset 3, -16
 148              		.cfi_offset 4, -12
 149              		.cfi_offset 5, -8
 150              		.cfi_offset 14, -4
 151              		.loc 1 143 0
 152 0002 134B     		ldr	r3, .L20
 153 0004 9869     		ldr	r0, [r3, #24]
 154 0006 C27F     		ldrb	r2, [r0, #31]	@ zero_extendqisi2
 155 0008 0AB1     		cbz	r2, .L8
 156              		.loc 1 145 0
 157 000a 511E     		subs	r1, r2, #1
 158 000c C177     		strb	r1, [r0, #31]
 159              	.L8:
 160              		.loc 1 148 0
 161 000e 036A     		ldr	r3, [r0, #32]
 162              		.loc 1 150 0
 163 0010 104C     		ldr	r4, .L20+4
 164              		.loc 1 148 0
 165 0012 5A1C     		adds	r2, r3, #1
 166 0014 0262     		str	r2, [r0, #32]
 167              		.loc 1 150 0
ARM GAS  C:\Users\srich\AppData\Local\Temp\ccQ87DuB.s 			page 4


 168 0016 E068     		ldr	r0, [r4, #12]
 169 0018 2268     		ldr	r2, [r4, #0]
 170 001a 411C     		adds	r1, r0, #1
 171 001c A242     		cmp	r2, r4
 172 001e E160     		str	r1, [r4, #12]
 173 0020 14D0     		beq	.L7
 174              	.LBB3:
 175              		.loc 1 150 0 is_stmt 0 discriminator 1
 176 0022 9568     		ldr	r5, [r2, #8]
 177 0024 013D     		subs	r5, r5, #1
 178 0026 9560     		str	r5, [r2, #8]
 179              	.LVL12:
 180 0028 85B9     		cbnz	r5, .L7
 181              	.LVL13:
 182              	.L16:
 183              	.LBB4:
 184              		.loc 1 150 0 discriminator 3
 185 002a 1368     		ldr	r3, [r2, #0]
 186              	.LVL14:
 187 002c D168     		ldr	r1, [r2, #12]
 188              	.LVL15:
 189 002e 5C60     		str	r4, [r3, #4]
 190 0030 2360     		str	r3, [r4, #0]
 191 0032 D560     		str	r5, [r2, #12]
 192              	.LBB5:
 193 0034 0023     		movs	r3, #0
 194              	.LVL16:
 195              	@ 150 "c:\ChibiStudio\chibios/os/kernel/src/chsys.c" 1
 196 0036 83F31188 		msr     BASEPRI, r3
 197              	@ 0 "" 2
 198              	.LVL17:
 199              		.thumb
 200              	.LBE5:
 201 003a 1069     		ldr	r0, [r2, #16]
 202 003c 8847     		blx	r1
 203              	.LVL18:
 204              	.LBB6:
 205 003e 2023     		movs	r3, #32
 206              	@ 150 "c:\ChibiStudio\chibios/os/kernel/src/chsys.c" 1
 207 0040 83F31188 		msr     BASEPRI, r3
 208              	@ 0 "" 2
 209              	.LVL19:
 210              		.thumb
 211              	.LBE6:
 212              	.LBE4:
 213 0044 2268     		ldr	r2, [r4, #0]
 214              	.LVL20:
 215 0046 9068     		ldr	r0, [r2, #8]
 216 0048 0028     		cmp	r0, #0
 217 004a EED0     		beq	.L16
 218              	.LVL21:
 219              	.L7:
 220 004c 38BD     		pop	{r3, r4, r5, pc}
 221              	.L21:
 222 004e 00BF     		.align	2
 223              	.L20:
 224 0050 00000000 		.word	rlist
ARM GAS  C:\Users\srich\AppData\Local\Temp\ccQ87DuB.s 			page 5


 225 0054 00000000 		.word	vtlist
 226              	.LBE3:
 227              		.cfi_endproc
 228              	.LFE9:
 229              		.size	chSysTimerHandlerI, .-chSysTimerHandlerI
 230              		.global	_idle_thread_wa
 231 0058 AFF30080 		.section	.bss.mainthread.4773,"aw",%nobits
 231      AFF30080 
 232              		.align	2
 233              		.set	.LANCHOR0,. + 0
 234              		.type	mainthread.4773, %object
 235              		.size	mainthread.4773, 72
 236              	mainthread.4773:
 237 0000 00000000 		.space	72
 237      00000000 
 237      00000000 
 237      00000000 
 237      00000000 
 238              		.section	.rodata.str1.4,"aMS",%progbits,1
 239              		.align	2
 240              	.LC0:
 241 0000 69646C65 		.ascii	"idle\000"
 241      00
 242 0005 000000   		.section	.bss._idle_thread_wa,"aw",%nobits
 243              		.align	3
 244              		.set	.LANCHOR1,. + 0
 245              		.type	_idle_thread_wa, %object
 246              		.size	_idle_thread_wa, 224
 247              	_idle_thread_wa:
 248 0000 00000000 		.space	224
 248      00000000 
 248      00000000 
 248      00000000 
 248      00000000 
 249              		.text
 250              	.Letext0:
 251              		.file 2 "c:\\chibistudio\\tools\\gnu tools arm embedded\\4.7 2014q2\\bin\\../lib/gcc/arm-none-eabi
 252              		.file 3 "c:\\chibistudio\\tools\\gnu tools arm embedded\\4.7 2014q2\\bin\\../lib/gcc/arm-none-eabi
 253              		.file 4 "c:\\ChibiStudio\\chibios/os/ports/GCC/ARMCMx/chtypes.h"
 254              		.file 5 "c:\\ChibiStudio\\chibios/os/kernel/include/chlists.h"
 255              		.file 6 "c:\\ChibiStudio\\chibios/os/kernel/include/chthreads.h"
 256              		.file 7 "c:\\ChibiStudio\\chibios/os/ports/GCC/ARMCMx/chcore_v7m.h"
 257              		.file 8 "c:\\ChibiStudio\\chibios/os/kernel/include/chvt.h"
 258              		.file 9 "c:\\ChibiStudio\\chibios/os/kernel/include/chschd.h"
 259              		.file 10 "c:\\ChibiStudio\\chibios/os/kernel/include/chmtx.h"
 260              		.file 11 "c:\\ChibiStudio\\chibios/os/kernel/include/chregistry.h"
 261              		.file 12 "c:\\ChibiStudio\\chibios/os/kernel/include/chmemcore.h"
 262              		.file 13 "c:\\ChibiStudio\\chibios/os/kernel/include/chheap.h"
 263              		.section	.debug_info,"",%progbits
 264              	.Ldebug_info0:
 265 0000 A2080000 		.4byte	0x8a2
 266 0004 0200     		.2byte	0x2
 267 0006 00000000 		.4byte	.Ldebug_abbrev0
 268 000a 04       		.byte	0x4
 269 000b 01       		.uleb128 0x1
 270 000c 74020000 		.4byte	.LASF109
 271 0010 01       		.byte	0x1
ARM GAS  C:\Users\srich\AppData\Local\Temp\ccQ87DuB.s 			page 6


 272 0011 02020000 		.4byte	.LASF110
 273 0015 00000000 		.4byte	.Ldebug_ranges0+0
 274 0019 00000000 		.4byte	0
 275 001d 00000000 		.4byte	0
 276 0021 00000000 		.4byte	.Ldebug_line0
 277 0025 02       		.uleb128 0x2
 278 0026 04       		.byte	0x4
 279 0027 05       		.byte	0x5
 280 0028 696E7400 		.ascii	"int\000"
 281 002c 03       		.uleb128 0x3
 282 002d 1B000000 		.4byte	.LASF2
 283 0031 02       		.byte	0x2
 284 0032 D5       		.byte	0xd5
 285 0033 37000000 		.4byte	0x37
 286 0037 04       		.uleb128 0x4
 287 0038 04       		.byte	0x4
 288 0039 07       		.byte	0x7
 289 003a 65010000 		.4byte	.LASF0
 290 003e 04       		.uleb128 0x4
 291 003f 01       		.byte	0x1
 292 0040 06       		.byte	0x6
 293 0041 B7000000 		.4byte	.LASF1
 294 0045 03       		.uleb128 0x3
 295 0046 76040000 		.4byte	.LASF3
 296 004a 03       		.byte	0x3
 297 004b 2A       		.byte	0x2a
 298 004c 50000000 		.4byte	0x50
 299 0050 04       		.uleb128 0x4
 300 0051 01       		.byte	0x1
 301 0052 08       		.byte	0x8
 302 0053 2F030000 		.4byte	.LASF4
 303 0057 04       		.uleb128 0x4
 304 0058 02       		.byte	0x2
 305 0059 05       		.byte	0x5
 306 005a 52030000 		.4byte	.LASF5
 307 005e 03       		.uleb128 0x3
 308 005f 0C010000 		.4byte	.LASF6
 309 0063 03       		.byte	0x3
 310 0064 36       		.byte	0x36
 311 0065 69000000 		.4byte	0x69
 312 0069 04       		.uleb128 0x4
 313 006a 02       		.byte	0x2
 314 006b 07       		.byte	0x7
 315 006c B8010000 		.4byte	.LASF7
 316 0070 03       		.uleb128 0x3
 317 0071 27030000 		.4byte	.LASF8
 318 0075 03       		.byte	0x3
 319 0076 4F       		.byte	0x4f
 320 0077 7B000000 		.4byte	0x7b
 321 007b 04       		.uleb128 0x4
 322 007c 04       		.byte	0x4
 323 007d 05       		.byte	0x5
 324 007e FA000000 		.4byte	.LASF9
 325 0082 03       		.uleb128 0x3
 326 0083 C5030000 		.4byte	.LASF10
 327 0087 03       		.byte	0x3
 328 0088 50       		.byte	0x50
ARM GAS  C:\Users\srich\AppData\Local\Temp\ccQ87DuB.s 			page 7


 329 0089 8D000000 		.4byte	0x8d
 330 008d 04       		.uleb128 0x4
 331 008e 04       		.byte	0x4
 332 008f 07       		.byte	0x7
 333 0090 87010000 		.4byte	.LASF11
 334 0094 04       		.uleb128 0x4
 335 0095 08       		.byte	0x8
 336 0096 05       		.byte	0x5
 337 0097 A9000000 		.4byte	.LASF12
 338 009b 03       		.uleb128 0x3
 339 009c 29000000 		.4byte	.LASF13
 340 00a0 03       		.byte	0x3
 341 00a1 78       		.byte	0x78
 342 00a2 A6000000 		.4byte	0xa6
 343 00a6 04       		.uleb128 0x4
 344 00a7 08       		.byte	0x8
 345 00a8 07       		.byte	0x7
 346 00a9 4C000000 		.4byte	.LASF14
 347 00ad 04       		.uleb128 0x4
 348 00ae 01       		.byte	0x1
 349 00af 02       		.byte	0x2
 350 00b0 21030000 		.4byte	.LASF15
 351 00b4 03       		.uleb128 0x3
 352 00b5 D1010000 		.4byte	.LASF16
 353 00b9 04       		.byte	0x4
 354 00ba 2C       		.byte	0x2c
 355 00bb 45000000 		.4byte	0x45
 356 00bf 03       		.uleb128 0x3
 357 00c0 03010000 		.4byte	.LASF17
 358 00c4 04       		.byte	0x4
 359 00c5 2D       		.byte	0x2d
 360 00c6 45000000 		.4byte	0x45
 361 00ca 03       		.uleb128 0x3
 362 00cb FF020000 		.4byte	.LASF18
 363 00cf 04       		.byte	0x4
 364 00d0 2E       		.byte	0x2e
 365 00d1 45000000 		.4byte	0x45
 366 00d5 03       		.uleb128 0x3
 367 00d6 F0000000 		.4byte	.LASF19
 368 00da 04       		.byte	0x4
 369 00db 2F       		.byte	0x2f
 370 00dc 45000000 		.4byte	0x45
 371 00e0 03       		.uleb128 0x3
 372 00e1 19030000 		.4byte	.LASF20
 373 00e5 04       		.byte	0x4
 374 00e6 30       		.byte	0x30
 375 00e7 82000000 		.4byte	0x82
 376 00eb 03       		.uleb128 0x3
 377 00ec CB010000 		.4byte	.LASF21
 378 00f0 04       		.byte	0x4
 379 00f1 31       		.byte	0x31
 380 00f2 70000000 		.4byte	0x70
 381 00f6 03       		.uleb128 0x3
 382 00f7 E5010000 		.4byte	.LASF22
 383 00fb 04       		.byte	0x4
 384 00fc 33       		.byte	0x33
 385 00fd 82000000 		.4byte	0x82
ARM GAS  C:\Users\srich\AppData\Local\Temp\ccQ87DuB.s 			page 8


 386 0101 03       		.uleb128 0x3
 387 0102 FB030000 		.4byte	.LASF23
 388 0106 04       		.byte	0x4
 389 0107 35       		.byte	0x35
 390 0108 82000000 		.4byte	0x82
 391 010c 03       		.uleb128 0x3
 392 010d A6030000 		.4byte	.LASF24
 393 0111 05       		.byte	0x5
 394 0112 2A       		.byte	0x2a
 395 0113 17010000 		.4byte	0x117
 396 0117 05       		.uleb128 0x5
 397 0118 A6030000 		.4byte	.LASF24
 398 011c 48       		.byte	0x48
 399 011d 06       		.byte	0x6
 400 011e 5E       		.byte	0x5e
 401 011f 3C020000 		.4byte	0x23c
 402 0123 06       		.uleb128 0x6
 403 0124 88030000 		.4byte	.LASF25
 404 0128 06       		.byte	0x6
 405 0129 5F       		.byte	0x5f
 406 012a 61020000 		.4byte	0x261
 407 012e 02       		.byte	0x2
 408 012f 23       		.byte	0x23
 409 0130 00       		.uleb128 0
 410 0131 06       		.uleb128 0x6
 411 0132 12030000 		.4byte	.LASF26
 412 0136 06       		.byte	0x6
 413 0137 61       		.byte	0x61
 414 0138 61020000 		.4byte	0x261
 415 013c 02       		.byte	0x2
 416 013d 23       		.byte	0x23
 417 013e 04       		.uleb128 0x4
 418 013f 06       		.uleb128 0x6
 419 0140 85000000 		.4byte	.LASF27
 420 0144 06       		.byte	0x6
 421 0145 63       		.byte	0x63
 422 0146 E0000000 		.4byte	0xe0
 423 014a 02       		.byte	0x2
 424 014b 23       		.byte	0x23
 425 014c 08       		.uleb128 0x8
 426 014d 06       		.uleb128 0x6
 427 014e BC040000 		.4byte	.LASF28
 428 0152 06       		.byte	0x6
 429 0153 64       		.byte	0x64
 430 0154 3A030000 		.4byte	0x33a
 431 0158 02       		.byte	0x2
 432 0159 23       		.byte	0x23
 433 015a 0C       		.uleb128 0xc
 434 015b 06       		.uleb128 0x6
 435 015c 1F010000 		.4byte	.LASF29
 436 0160 06       		.byte	0x6
 437 0161 66       		.byte	0x66
 438 0162 61020000 		.4byte	0x261
 439 0166 02       		.byte	0x2
 440 0167 23       		.byte	0x23
 441 0168 10       		.uleb128 0x10
 442 0169 06       		.uleb128 0x6
ARM GAS  C:\Users\srich\AppData\Local\Temp\ccQ87DuB.s 			page 9


 443 016a BD020000 		.4byte	.LASF30
 444 016e 06       		.byte	0x6
 445 016f 67       		.byte	0x67
 446 0170 61020000 		.4byte	0x261
 447 0174 02       		.byte	0x2
 448 0175 23       		.byte	0x23
 449 0176 14       		.uleb128 0x14
 450 0177 06       		.uleb128 0x6
 451 0178 90040000 		.4byte	.LASF31
 452 017c 06       		.byte	0x6
 453 017d 6E       		.byte	0x6e
 454 017e 1B050000 		.4byte	0x51b
 455 0182 02       		.byte	0x2
 456 0183 23       		.byte	0x23
 457 0184 18       		.uleb128 0x18
 458 0185 06       		.uleb128 0x6
 459 0186 5C030000 		.4byte	.LASF32
 460 018a 06       		.byte	0x6
 461 018b 79       		.byte	0x79
 462 018c BF000000 		.4byte	0xbf
 463 0190 02       		.byte	0x2
 464 0191 23       		.byte	0x23
 465 0192 1C       		.uleb128 0x1c
 466 0193 06       		.uleb128 0x6
 467 0194 9E030000 		.4byte	.LASF33
 468 0198 06       		.byte	0x6
 469 0199 7D       		.byte	0x7d
 470 019a B4000000 		.4byte	0xb4
 471 019e 02       		.byte	0x2
 472 019f 23       		.byte	0x23
 473 01a0 1D       		.uleb128 0x1d
 474 01a1 06       		.uleb128 0x6
 475 01a2 4D040000 		.4byte	.LASF34
 476 01a6 06       		.byte	0x6
 477 01a7 82       		.byte	0x82
 478 01a8 CA000000 		.4byte	0xca
 479 01ac 02       		.byte	0x2
 480 01ad 23       		.byte	0x23
 481 01ae 1E       		.uleb128 0x1e
 482 01af 06       		.uleb128 0x6
 483 01b0 64030000 		.4byte	.LASF35
 484 01b4 06       		.byte	0x6
 485 01b5 88       		.byte	0x88
 486 01b6 D5000000 		.4byte	0xd5
 487 01ba 02       		.byte	0x2
 488 01bb 23       		.byte	0x23
 489 01bc 1F       		.uleb128 0x1f
 490 01bd 06       		.uleb128 0x6
 491 01be 22040000 		.4byte	.LASF36
 492 01c2 06       		.byte	0x6
 493 01c3 8F       		.byte	0x8f
 494 01c4 26040000 		.4byte	0x426
 495 01c8 02       		.byte	0x2
 496 01c9 23       		.byte	0x23
 497 01ca 20       		.uleb128 0x20
 498 01cb 07       		.uleb128 0x7
 499 01cc 705F7500 		.ascii	"p_u\000"
ARM GAS  C:\Users\srich\AppData\Local\Temp\ccQ87DuB.s 			page 10


 500 01d0 06       		.byte	0x6
 501 01d1 B4       		.byte	0xb4
 502 01d2 E6040000 		.4byte	0x4e6
 503 01d6 02       		.byte	0x2
 504 01d7 23       		.byte	0x23
 505 01d8 24       		.uleb128 0x24
 506 01d9 06       		.uleb128 0x6
 507 01da C2040000 		.4byte	.LASF37
 508 01de 06       		.byte	0x6
 509 01df B9       		.byte	0xb9
 510 01e0 89020000 		.4byte	0x289
 511 01e4 02       		.byte	0x2
 512 01e5 23       		.byte	0x23
 513 01e6 28       		.uleb128 0x28
 514 01e7 06       		.uleb128 0x6
 515 01e8 30040000 		.4byte	.LASF38
 516 01ec 06       		.byte	0x6
 517 01ed BF       		.byte	0xbf
 518 01ee 67020000 		.4byte	0x267
 519 01f2 02       		.byte	0x2
 520 01f3 23       		.byte	0x23
 521 01f4 2C       		.uleb128 0x2c
 522 01f5 06       		.uleb128 0x6
 523 01f6 15000000 		.4byte	.LASF39
 524 01fa 06       		.byte	0x6
 525 01fb C3       		.byte	0xc3
 526 01fc EB000000 		.4byte	0xeb
 527 0200 02       		.byte	0x2
 528 0201 23       		.byte	0x23
 529 0202 34       		.uleb128 0x34
 530 0203 06       		.uleb128 0x6
 531 0204 BA030000 		.4byte	.LASF40
 532 0208 06       		.byte	0x6
 533 0209 C9       		.byte	0xc9
 534 020a F6000000 		.4byte	0xf6
 535 020e 02       		.byte	0x2
 536 020f 23       		.byte	0x23
 537 0210 38       		.uleb128 0x38
 538 0211 06       		.uleb128 0x6
 539 0212 48030000 		.4byte	.LASF41
 540 0216 06       		.byte	0x6
 541 0217 D0       		.byte	0xd0
 542 0218 2D050000 		.4byte	0x52d
 543 021c 02       		.byte	0x2
 544 021d 23       		.byte	0x23
 545 021e 3C       		.uleb128 0x3c
 546 021f 06       		.uleb128 0x6
 547 0220 05040000 		.4byte	.LASF42
 548 0224 06       		.byte	0x6
 549 0225 D4       		.byte	0xd4
 550 0226 E0000000 		.4byte	0xe0
 551 022a 02       		.byte	0x2
 552 022b 23       		.byte	0x23
 553 022c 40       		.uleb128 0x40
 554 022d 06       		.uleb128 0x6
 555 022e E0000000 		.4byte	.LASF43
 556 0232 06       		.byte	0x6
ARM GAS  C:\Users\srich\AppData\Local\Temp\ccQ87DuB.s 			page 11


 557 0233 DA       		.byte	0xda
 558 0234 9F020000 		.4byte	0x29f
 559 0238 02       		.byte	0x2
 560 0239 23       		.byte	0x23
 561 023a 44       		.uleb128 0x44
 562 023b 00       		.byte	0
 563 023c 08       		.uleb128 0x8
 564 023d 08       		.byte	0x8
 565 023e 05       		.byte	0x5
 566 023f 61       		.byte	0x61
 567 0240 61020000 		.4byte	0x261
 568 0244 06       		.uleb128 0x6
 569 0245 88030000 		.4byte	.LASF25
 570 0249 05       		.byte	0x5
 571 024a 62       		.byte	0x62
 572 024b 61020000 		.4byte	0x261
 573 024f 02       		.byte	0x2
 574 0250 23       		.byte	0x23
 575 0251 00       		.uleb128 0
 576 0252 06       		.uleb128 0x6
 577 0253 12030000 		.4byte	.LASF26
 578 0257 05       		.byte	0x5
 579 0258 64       		.byte	0x64
 580 0259 61020000 		.4byte	0x261
 581 025d 02       		.byte	0x2
 582 025e 23       		.byte	0x23
 583 025f 04       		.uleb128 0x4
 584 0260 00       		.byte	0
 585 0261 09       		.uleb128 0x9
 586 0262 04       		.byte	0x4
 587 0263 0C010000 		.4byte	0x10c
 588 0267 03       		.uleb128 0x3
 589 0268 CB020000 		.4byte	.LASF44
 590 026c 05       		.byte	0x5
 591 026d 66       		.byte	0x66
 592 026e 3C020000 		.4byte	0x23c
 593 0272 08       		.uleb128 0x8
 594 0273 04       		.byte	0x4
 595 0274 05       		.byte	0x5
 596 0275 6B       		.byte	0x6b
 597 0276 89020000 		.4byte	0x289
 598 027a 06       		.uleb128 0x6
 599 027b 88030000 		.4byte	.LASF25
 600 027f 05       		.byte	0x5
 601 0280 6D       		.byte	0x6d
 602 0281 61020000 		.4byte	0x261
 603 0285 02       		.byte	0x2
 604 0286 23       		.byte	0x23
 605 0287 00       		.uleb128 0
 606 0288 00       		.byte	0
 607 0289 03       		.uleb128 0x3
 608 028a D9010000 		.4byte	.LASF45
 609 028e 05       		.byte	0x5
 610 028f 70       		.byte	0x70
 611 0290 72020000 		.4byte	0x272
 612 0294 03       		.uleb128 0x3
 613 0295 3F010000 		.4byte	.LASF46
ARM GAS  C:\Users\srich\AppData\Local\Temp\ccQ87DuB.s 			page 12


 614 0299 07       		.byte	0x7
 615 029a E5       		.byte	0xe5
 616 029b 9F020000 		.4byte	0x29f
 617 029f 0A       		.uleb128 0xa
 618 02a0 04       		.byte	0x4
 619 02a1 03       		.uleb128 0x3
 620 02a2 F7010000 		.4byte	.LASF47
 621 02a6 07       		.byte	0x7
 622 02a7 EB       		.byte	0xeb
 623 02a8 9B000000 		.4byte	0x9b
 624 02ac 0B       		.uleb128 0xb
 625 02ad 29040000 		.4byte	.LASF48
 626 02b1 24       		.byte	0x24
 627 02b2 07       		.byte	0x7
 628 02b3 0C01     		.2byte	0x10c
 629 02b5 3A030000 		.4byte	0x33a
 630 02b9 0C       		.uleb128 0xc
 631 02ba 723400   		.ascii	"r4\000"
 632 02bd 07       		.byte	0x7
 633 02be 1F01     		.2byte	0x11f
 634 02c0 94020000 		.4byte	0x294
 635 02c4 02       		.byte	0x2
 636 02c5 23       		.byte	0x23
 637 02c6 00       		.uleb128 0
 638 02c7 0C       		.uleb128 0xc
 639 02c8 723500   		.ascii	"r5\000"
 640 02cb 07       		.byte	0x7
 641 02cc 2001     		.2byte	0x120
 642 02ce 94020000 		.4byte	0x294
 643 02d2 02       		.byte	0x2
 644 02d3 23       		.byte	0x23
 645 02d4 04       		.uleb128 0x4
 646 02d5 0C       		.uleb128 0xc
 647 02d6 723600   		.ascii	"r6\000"
 648 02d9 07       		.byte	0x7
 649 02da 2101     		.2byte	0x121
 650 02dc 94020000 		.4byte	0x294
 651 02e0 02       		.byte	0x2
 652 02e1 23       		.byte	0x23
 653 02e2 08       		.uleb128 0x8
 654 02e3 0C       		.uleb128 0xc
 655 02e4 723700   		.ascii	"r7\000"
 656 02e7 07       		.byte	0x7
 657 02e8 2201     		.2byte	0x122
 658 02ea 94020000 		.4byte	0x294
 659 02ee 02       		.byte	0x2
 660 02ef 23       		.byte	0x23
 661 02f0 0C       		.uleb128 0xc
 662 02f1 0C       		.uleb128 0xc
 663 02f2 723800   		.ascii	"r8\000"
 664 02f5 07       		.byte	0x7
 665 02f6 2301     		.2byte	0x123
 666 02f8 94020000 		.4byte	0x294
 667 02fc 02       		.byte	0x2
 668 02fd 23       		.byte	0x23
 669 02fe 10       		.uleb128 0x10
 670 02ff 0C       		.uleb128 0xc
ARM GAS  C:\Users\srich\AppData\Local\Temp\ccQ87DuB.s 			page 13


 671 0300 723900   		.ascii	"r9\000"
 672 0303 07       		.byte	0x7
 673 0304 2401     		.2byte	0x124
 674 0306 94020000 		.4byte	0x294
 675 030a 02       		.byte	0x2
 676 030b 23       		.byte	0x23
 677 030c 14       		.uleb128 0x14
 678 030d 0C       		.uleb128 0xc
 679 030e 72313000 		.ascii	"r10\000"
 680 0312 07       		.byte	0x7
 681 0313 2501     		.2byte	0x125
 682 0315 94020000 		.4byte	0x294
 683 0319 02       		.byte	0x2
 684 031a 23       		.byte	0x23
 685 031b 18       		.uleb128 0x18
 686 031c 0C       		.uleb128 0xc
 687 031d 72313100 		.ascii	"r11\000"
 688 0321 07       		.byte	0x7
 689 0322 2601     		.2byte	0x126
 690 0324 94020000 		.4byte	0x294
 691 0328 02       		.byte	0x2
 692 0329 23       		.byte	0x23
 693 032a 1C       		.uleb128 0x1c
 694 032b 0C       		.uleb128 0xc
 695 032c 6C7200   		.ascii	"lr\000"
 696 032f 07       		.byte	0x7
 697 0330 2701     		.2byte	0x127
 698 0332 94020000 		.4byte	0x294
 699 0336 02       		.byte	0x2
 700 0337 23       		.byte	0x23
 701 0338 20       		.uleb128 0x20
 702 0339 00       		.byte	0
 703 033a 0B       		.uleb128 0xb
 704 033b B0010000 		.4byte	.LASF49
 705 033f 04       		.byte	0x4
 706 0340 07       		.byte	0x7
 707 0341 3101     		.2byte	0x131
 708 0343 57030000 		.4byte	0x357
 709 0347 0C       		.uleb128 0xc
 710 0348 72313300 		.ascii	"r13\000"
 711 034c 07       		.byte	0x7
 712 034d 3201     		.2byte	0x132
 713 034f 57030000 		.4byte	0x357
 714 0353 02       		.byte	0x2
 715 0354 23       		.byte	0x23
 716 0355 00       		.uleb128 0
 717 0356 00       		.byte	0
 718 0357 09       		.uleb128 0x9
 719 0358 04       		.byte	0x4
 720 0359 AC020000 		.4byte	0x2ac
 721 035d 04       		.uleb128 0x4
 722 035e 04       		.byte	0x4
 723 035f 07       		.byte	0x7
 724 0360 4B020000 		.4byte	.LASF50
 725 0364 03       		.uleb128 0x3
 726 0365 10040000 		.4byte	.LASF51
 727 0369 08       		.byte	0x8
ARM GAS  C:\Users\srich\AppData\Local\Temp\ccQ87DuB.s 			page 14


 728 036a 58       		.byte	0x58
 729 036b 6F030000 		.4byte	0x36f
 730 036f 09       		.uleb128 0x9
 731 0370 04       		.byte	0x4
 732 0371 75030000 		.4byte	0x375
 733 0375 0D       		.uleb128 0xd
 734 0376 01       		.byte	0x1
 735 0377 81030000 		.4byte	0x381
 736 037b 0E       		.uleb128 0xe
 737 037c 9F020000 		.4byte	0x29f
 738 0380 00       		.byte	0
 739 0381 03       		.uleb128 0x3
 740 0382 E2030000 		.4byte	.LASF52
 741 0386 08       		.byte	0x8
 742 0387 5D       		.byte	0x5d
 743 0388 8C030000 		.4byte	0x38c
 744 038c 05       		.uleb128 0x5
 745 038d E2030000 		.4byte	.LASF52
 746 0391 14       		.byte	0x14
 747 0392 08       		.byte	0x8
 748 0393 64       		.byte	0x64
 749 0394 DF030000 		.4byte	0x3df
 750 0398 06       		.uleb128 0x6
 751 0399 7F010000 		.4byte	.LASF53
 752 039d 08       		.byte	0x8
 753 039e 65       		.byte	0x65
 754 039f DF030000 		.4byte	0x3df
 755 03a3 02       		.byte	0x2
 756 03a4 23       		.byte	0x23
 757 03a5 00       		.uleb128 0
 758 03a6 06       		.uleb128 0x6
 759 03a7 48010000 		.4byte	.LASF54
 760 03ab 08       		.byte	0x8
 761 03ac 67       		.byte	0x67
 762 03ad DF030000 		.4byte	0x3df
 763 03b1 02       		.byte	0x2
 764 03b2 23       		.byte	0x23
 765 03b3 04       		.uleb128 0x4
 766 03b4 06       		.uleb128 0x6
 767 03b5 43020000 		.4byte	.LASF55
 768 03b9 08       		.byte	0x8
 769 03ba 69       		.byte	0x69
 770 03bb 01010000 		.4byte	0x101
 771 03bf 02       		.byte	0x2
 772 03c0 23       		.byte	0x23
 773 03c1 08       		.uleb128 0x8
 774 03c2 06       		.uleb128 0x6
 775 03c3 54020000 		.4byte	.LASF56
 776 03c7 08       		.byte	0x8
 777 03c8 6A       		.byte	0x6a
 778 03c9 64030000 		.4byte	0x364
 779 03cd 02       		.byte	0x2
 780 03ce 23       		.byte	0x23
 781 03cf 0C       		.uleb128 0xc
 782 03d0 06       		.uleb128 0x6
 783 03d1 3B040000 		.4byte	.LASF57
 784 03d5 08       		.byte	0x8
ARM GAS  C:\Users\srich\AppData\Local\Temp\ccQ87DuB.s 			page 15


 785 03d6 6C       		.byte	0x6c
 786 03d7 9F020000 		.4byte	0x29f
 787 03db 02       		.byte	0x2
 788 03dc 23       		.byte	0x23
 789 03dd 10       		.uleb128 0x10
 790 03de 00       		.byte	0
 791 03df 09       		.uleb128 0x9
 792 03e0 04       		.byte	0x4
 793 03e1 81030000 		.4byte	0x381
 794 03e5 08       		.uleb128 0x8
 795 03e6 10       		.byte	0x10
 796 03e7 08       		.byte	0x8
 797 03e8 76       		.byte	0x76
 798 03e9 26040000 		.4byte	0x426
 799 03ed 06       		.uleb128 0x6
 800 03ee 7F010000 		.4byte	.LASF53
 801 03f2 08       		.byte	0x8
 802 03f3 77       		.byte	0x77
 803 03f4 DF030000 		.4byte	0x3df
 804 03f8 02       		.byte	0x2
 805 03f9 23       		.byte	0x23
 806 03fa 00       		.uleb128 0
 807 03fb 06       		.uleb128 0x6
 808 03fc 48010000 		.4byte	.LASF54
 809 0400 08       		.byte	0x8
 810 0401 79       		.byte	0x79
 811 0402 DF030000 		.4byte	0x3df
 812 0406 02       		.byte	0x2
 813 0407 23       		.byte	0x23
 814 0408 04       		.uleb128 0x4
 815 0409 06       		.uleb128 0x6
 816 040a 43020000 		.4byte	.LASF55
 817 040e 08       		.byte	0x8
 818 040f 7B       		.byte	0x7b
 819 0410 01010000 		.4byte	0x101
 820 0414 02       		.byte	0x2
 821 0415 23       		.byte	0x23
 822 0416 08       		.uleb128 0x8
 823 0417 06       		.uleb128 0x6
 824 0418 97040000 		.4byte	.LASF58
 825 041c 08       		.byte	0x8
 826 041d 7C       		.byte	0x7c
 827 041e 26040000 		.4byte	0x426
 828 0422 02       		.byte	0x2
 829 0423 23       		.byte	0x23
 830 0424 0C       		.uleb128 0xc
 831 0425 00       		.byte	0
 832 0426 0F       		.uleb128 0xf
 833 0427 01010000 		.4byte	0x101
 834 042b 03       		.uleb128 0x3
 835 042c AD040000 		.4byte	.LASF59
 836 0430 08       		.byte	0x8
 837 0431 7D       		.byte	0x7d
 838 0432 E5030000 		.4byte	0x3e5
 839 0436 08       		.uleb128 0x8
 840 0437 1C       		.byte	0x1c
 841 0438 09       		.byte	0x9
ARM GAS  C:\Users\srich\AppData\Local\Temp\ccQ87DuB.s 			page 16


 842 0439 5E       		.byte	0x5e
 843 043a 93040000 		.4byte	0x493
 844 043e 06       		.uleb128 0x6
 845 043f DA030000 		.4byte	.LASF60
 846 0443 09       		.byte	0x9
 847 0444 5F       		.byte	0x5f
 848 0445 67020000 		.4byte	0x267
 849 0449 02       		.byte	0x2
 850 044a 23       		.byte	0x23
 851 044b 00       		.uleb128 0
 852 044c 06       		.uleb128 0x6
 853 044d 7A030000 		.4byte	.LASF61
 854 0451 09       		.byte	0x9
 855 0452 60       		.byte	0x60
 856 0453 E0000000 		.4byte	0xe0
 857 0457 02       		.byte	0x2
 858 0458 23       		.byte	0x23
 859 0459 08       		.uleb128 0x8
 860 045a 06       		.uleb128 0x6
 861 045b C5020000 		.4byte	.LASF62
 862 045f 09       		.byte	0x9
 863 0460 62       		.byte	0x62
 864 0461 3A030000 		.4byte	0x33a
 865 0465 02       		.byte	0x2
 866 0466 23       		.byte	0x23
 867 0467 0C       		.uleb128 0xc
 868 0468 06       		.uleb128 0x6
 869 0469 37010000 		.4byte	.LASF63
 870 046d 09       		.byte	0x9
 871 046e 65       		.byte	0x65
 872 046f 61020000 		.4byte	0x261
 873 0473 02       		.byte	0x2
 874 0474 23       		.byte	0x23
 875 0475 10       		.uleb128 0x10
 876 0476 06       		.uleb128 0x6
 877 0477 EA020000 		.4byte	.LASF64
 878 047b 09       		.byte	0x9
 879 047c 66       		.byte	0x66
 880 047d 61020000 		.4byte	0x261
 881 0481 02       		.byte	0x2
 882 0482 23       		.byte	0x23
 883 0483 14       		.uleb128 0x14
 884 0484 06       		.uleb128 0x6
 885 0485 E0020000 		.4byte	.LASF65
 886 0489 09       		.byte	0x9
 887 048a 69       		.byte	0x69
 888 048b 61020000 		.4byte	0x261
 889 048f 02       		.byte	0x2
 890 0490 23       		.byte	0x23
 891 0491 18       		.uleb128 0x18
 892 0492 00       		.byte	0
 893 0493 03       		.uleb128 0x3
 894 0494 54040000 		.4byte	.LASF66
 895 0498 09       		.byte	0x9
 896 0499 6B       		.byte	0x6b
 897 049a 36040000 		.4byte	0x436
 898 049e 05       		.uleb128 0x5
ARM GAS  C:\Users\srich\AppData\Local\Temp\ccQ87DuB.s 			page 17


 899 049f F1010000 		.4byte	.LASF67
 900 04a3 10       		.byte	0x10
 901 04a4 0A       		.byte	0xa
 902 04a5 2C       		.byte	0x2c
 903 04a6 D5040000 		.4byte	0x4d5
 904 04aa 06       		.uleb128 0x6
 905 04ab E8000000 		.4byte	.LASF68
 906 04af 0A       		.byte	0xa
 907 04b0 2D       		.byte	0x2d
 908 04b1 67020000 		.4byte	0x267
 909 04b5 02       		.byte	0x2
 910 04b6 23       		.byte	0x23
 911 04b7 00       		.uleb128 0
 912 04b8 06       		.uleb128 0x6
 913 04b9 B4040000 		.4byte	.LASF69
 914 04bd 0A       		.byte	0xa
 915 04be 2F       		.byte	0x2f
 916 04bf 61020000 		.4byte	0x261
 917 04c3 02       		.byte	0x2
 918 04c4 23       		.byte	0x23
 919 04c5 08       		.uleb128 0x8
 920 04c6 06       		.uleb128 0x6
 921 04c7 F4030000 		.4byte	.LASF70
 922 04cb 0A       		.byte	0xa
 923 04cc 31       		.byte	0x31
 924 04cd D5040000 		.4byte	0x4d5
 925 04d1 02       		.byte	0x2
 926 04d2 23       		.byte	0x23
 927 04d3 0C       		.uleb128 0xc
 928 04d4 00       		.byte	0
 929 04d5 09       		.uleb128 0x9
 930 04d6 04       		.byte	0x4
 931 04d7 9E040000 		.4byte	0x49e
 932 04db 03       		.uleb128 0x3
 933 04dc F1010000 		.4byte	.LASF67
 934 04e0 0A       		.byte	0xa
 935 04e1 33       		.byte	0x33
 936 04e2 9E040000 		.4byte	0x49e
 937 04e6 10       		.uleb128 0x10
 938 04e7 04       		.byte	0x4
 939 04e8 06       		.byte	0x6
 940 04e9 96       		.byte	0x96
 941 04ea 1B050000 		.4byte	0x51b
 942 04ee 11       		.uleb128 0x11
 943 04ef 22000000 		.4byte	.LASF71
 944 04f3 06       		.byte	0x6
 945 04f4 9D       		.byte	0x9d
 946 04f5 EB000000 		.4byte	0xeb
 947 04f9 11       		.uleb128 0x11
 948 04fa 71000000 		.4byte	.LASF72
 949 04fe 06       		.byte	0x6
 950 04ff A4       		.byte	0xa4
 951 0500 EB000000 		.4byte	0xeb
 952 0504 11       		.uleb128 0x11
 953 0505 89040000 		.4byte	.LASF73
 954 0509 06       		.byte	0x6
 955 050a AB       		.byte	0xab
ARM GAS  C:\Users\srich\AppData\Local\Temp\ccQ87DuB.s 			page 18


 956 050b 9F020000 		.4byte	0x29f
 957 050f 11       		.uleb128 0x11
 958 0510 81030000 		.4byte	.LASF74
 959 0514 06       		.byte	0x6
 960 0515 B2       		.byte	0xb2
 961 0516 F6000000 		.4byte	0xf6
 962 051a 00       		.byte	0
 963 051b 09       		.uleb128 0x9
 964 051c 04       		.byte	0x4
 965 051d 21050000 		.4byte	0x521
 966 0521 12       		.uleb128 0x12
 967 0522 26050000 		.4byte	0x526
 968 0526 04       		.uleb128 0x4
 969 0527 01       		.byte	0x1
 970 0528 08       		.byte	0x8
 971 0529 EF030000 		.4byte	.LASF75
 972 052d 09       		.uleb128 0x9
 973 052e 04       		.byte	0x4
 974 052f DB040000 		.4byte	0x4db
 975 0533 03       		.uleb128 0x3
 976 0534 00000000 		.4byte	.LASF76
 977 0538 06       		.byte	0x6
 978 0539 E5       		.byte	0xe5
 979 053a 3E050000 		.4byte	0x53e
 980 053e 09       		.uleb128 0x9
 981 053f 04       		.byte	0x4
 982 0540 44050000 		.4byte	0x544
 983 0544 13       		.uleb128 0x13
 984 0545 01       		.byte	0x1
 985 0546 EB000000 		.4byte	0xeb
 986 054a 54050000 		.4byte	0x554
 987 054e 0E       		.uleb128 0xe
 988 054f 9F020000 		.4byte	0x29f
 989 0553 00       		.byte	0
 990 0554 08       		.uleb128 0x8
 991 0555 16       		.byte	0x16
 992 0556 0B       		.byte	0xb
 993 0557 2C       		.byte	0x2c
 994 0558 59060000 		.4byte	0x659
 995 055c 06       		.uleb128 0x6
 996 055d A2010000 		.4byte	.LASF77
 997 0561 0B       		.byte	0xb
 998 0562 2D       		.byte	0x2d
 999 0563 59060000 		.4byte	0x659
 1000 0567 02       		.byte	0x2
 1001 0568 23       		.byte	0x23
 1002 0569 00       		.uleb128 0
 1003 056a 06       		.uleb128 0x6
 1004 056b 2F020000 		.4byte	.LASF78
 1005 056f 0B       		.byte	0xb
 1006 0570 2E       		.byte	0x2e
 1007 0571 45000000 		.4byte	0x45
 1008 0575 02       		.byte	0x2
 1009 0576 23       		.byte	0x23
 1010 0577 04       		.uleb128 0x4
 1011 0578 06       		.uleb128 0x6
 1012 0579 D8020000 		.4byte	.LASF79
ARM GAS  C:\Users\srich\AppData\Local\Temp\ccQ87DuB.s 			page 19


 1013 057d 0B       		.byte	0xb
 1014 057e 2F       		.byte	0x2f
 1015 057f 45000000 		.4byte	0x45
 1016 0583 02       		.byte	0x2
 1017 0584 23       		.byte	0x23
 1018 0585 05       		.uleb128 0x5
 1019 0586 06       		.uleb128 0x6
 1020 0587 A2040000 		.4byte	.LASF80
 1021 058b 0B       		.byte	0xb
 1022 058c 30       		.byte	0x30
 1023 058d 5E000000 		.4byte	0x5e
 1024 0591 02       		.byte	0x2
 1025 0592 23       		.byte	0x23
 1026 0593 06       		.uleb128 0x6
 1027 0594 06       		.uleb128 0x6
 1028 0595 07030000 		.4byte	.LASF81
 1029 0599 0B       		.byte	0xb
 1030 059a 31       		.byte	0x31
 1031 059b 45000000 		.4byte	0x45
 1032 059f 02       		.byte	0x2
 1033 05a0 23       		.byte	0x23
 1034 05a1 08       		.uleb128 0x8
 1035 05a2 06       		.uleb128 0x6
 1036 05a3 5C020000 		.4byte	.LASF82
 1037 05a7 0B       		.byte	0xb
 1038 05a8 32       		.byte	0x32
 1039 05a9 45000000 		.4byte	0x45
 1040 05ad 02       		.byte	0x2
 1041 05ae 23       		.byte	0x23
 1042 05af 09       		.uleb128 0x9
 1043 05b0 06       		.uleb128 0x6
 1044 05b1 63000000 		.4byte	.LASF83
 1045 05b5 0B       		.byte	0xb
 1046 05b6 33       		.byte	0x33
 1047 05b7 45000000 		.4byte	0x45
 1048 05bb 02       		.byte	0x2
 1049 05bc 23       		.byte	0x23
 1050 05bd 0A       		.uleb128 0xa
 1051 05be 06       		.uleb128 0x6
 1052 05bf CE030000 		.4byte	.LASF84
 1053 05c3 0B       		.byte	0xb
 1054 05c4 34       		.byte	0x34
 1055 05c5 45000000 		.4byte	0x45
 1056 05c9 02       		.byte	0x2
 1057 05ca 23       		.byte	0x23
 1058 05cb 0B       		.uleb128 0xb
 1059 05cc 06       		.uleb128 0x6
 1060 05cd 42040000 		.4byte	.LASF85
 1061 05d1 0B       		.byte	0xb
 1062 05d2 35       		.byte	0x35
 1063 05d3 45000000 		.4byte	0x45
 1064 05d7 02       		.byte	0x2
 1065 05d8 23       		.byte	0x23
 1066 05d9 0C       		.uleb128 0xc
 1067 05da 06       		.uleb128 0x6
 1068 05db AD030000 		.4byte	.LASF86
 1069 05df 0B       		.byte	0xb
ARM GAS  C:\Users\srich\AppData\Local\Temp\ccQ87DuB.s 			page 20


 1070 05e0 36       		.byte	0x36
 1071 05e1 45000000 		.4byte	0x45
 1072 05e5 02       		.byte	0x2
 1073 05e6 23       		.byte	0x23
 1074 05e7 0D       		.uleb128 0xd
 1075 05e8 06       		.uleb128 0x6
 1076 05e9 08000000 		.4byte	.LASF87
 1077 05ed 0B       		.byte	0xb
 1078 05ee 37       		.byte	0x37
 1079 05ef 45000000 		.4byte	0x45
 1080 05f3 02       		.byte	0x2
 1081 05f4 23       		.byte	0x23
 1082 05f5 0E       		.uleb128 0xe
 1083 05f6 06       		.uleb128 0x6
 1084 05f7 68020000 		.4byte	.LASF88
 1085 05fb 0B       		.byte	0xb
 1086 05fc 38       		.byte	0x38
 1087 05fd 45000000 		.4byte	0x45
 1088 0601 02       		.byte	0x2
 1089 0602 23       		.byte	0x23
 1090 0603 0F       		.uleb128 0xf
 1091 0604 06       		.uleb128 0x6
 1092 0605 C3000000 		.4byte	.LASF89
 1093 0609 0B       		.byte	0xb
 1094 060a 39       		.byte	0x39
 1095 060b 45000000 		.4byte	0x45
 1096 060f 02       		.byte	0x2
 1097 0610 23       		.byte	0x23
 1098 0611 10       		.uleb128 0x10
 1099 0612 06       		.uleb128 0x6
 1100 0613 8C000000 		.4byte	.LASF90
 1101 0617 0B       		.byte	0xb
 1102 0618 3B       		.byte	0x3b
 1103 0619 45000000 		.4byte	0x45
 1104 061d 02       		.byte	0x2
 1105 061e 23       		.byte	0x23
 1106 061f 11       		.uleb128 0x11
 1107 0620 06       		.uleb128 0x6
 1108 0621 D3000000 		.4byte	.LASF91
 1109 0625 0B       		.byte	0xb
 1110 0626 3C       		.byte	0x3c
 1111 0627 45000000 		.4byte	0x45
 1112 062b 02       		.byte	0x2
 1113 062c 23       		.byte	0x23
 1114 062d 12       		.uleb128 0x12
 1115 062e 06       		.uleb128 0x6
 1116 062f 37020000 		.4byte	.LASF92
 1117 0633 0B       		.byte	0xb
 1118 0634 3D       		.byte	0x3d
 1119 0635 45000000 		.4byte	0x45
 1120 0639 02       		.byte	0x2
 1121 063a 23       		.byte	0x23
 1122 063b 13       		.uleb128 0x13
 1123 063c 06       		.uleb128 0x6
 1124 063d 8F030000 		.4byte	.LASF93
 1125 0641 0B       		.byte	0xb
 1126 0642 3E       		.byte	0x3e
ARM GAS  C:\Users\srich\AppData\Local\Temp\ccQ87DuB.s 			page 21


 1127 0643 45000000 		.4byte	0x45
 1128 0647 02       		.byte	0x2
 1129 0648 23       		.byte	0x23
 1130 0649 14       		.uleb128 0x14
 1131 064a 06       		.uleb128 0x6
 1132 064b 6E030000 		.4byte	.LASF94
 1133 064f 0B       		.byte	0xb
 1134 0650 40       		.byte	0x40
 1135 0651 45000000 		.4byte	0x45
 1136 0655 02       		.byte	0x2
 1137 0656 23       		.byte	0x23
 1138 0657 15       		.uleb128 0x15
 1139 0658 00       		.byte	0
 1140 0659 14       		.uleb128 0x14
 1141 065a 26050000 		.4byte	0x526
 1142 065e 69060000 		.4byte	0x669
 1143 0662 15       		.uleb128 0x15
 1144 0663 5D030000 		.4byte	0x35d
 1145 0667 03       		.byte	0x3
 1146 0668 00       		.byte	0
 1147 0669 03       		.uleb128 0x3
 1148 066a 15010000 		.4byte	.LASF95
 1149 066e 0B       		.byte	0xb
 1150 066f 41       		.byte	0x41
 1151 0670 54050000 		.4byte	0x554
 1152 0674 16       		.uleb128 0x16
 1153 0675 01       		.byte	0x1
 1154 0676 F2020000 		.4byte	.LASF96
 1155 067a 01       		.byte	0x1
 1156 067b 3D       		.byte	0x3d
 1157 067c 01       		.byte	0x1
 1158 067d 00000000 		.4byte	.LFB7
 1159 0681 14000000 		.4byte	.LFE7
 1160 0685 02       		.byte	0x2
 1161 0686 7D       		.byte	0x7d
 1162 0687 00       		.sleb128 0
 1163 0688 01       		.byte	0x1
 1164 0689 9B060000 		.4byte	0x69b
 1165 068d 17       		.uleb128 0x17
 1166 068e 7000     		.ascii	"p\000"
 1167 0690 01       		.byte	0x1
 1168 0691 3D       		.byte	0x3d
 1169 0692 9F020000 		.4byte	0x29f
 1170 0696 00000000 		.4byte	.LLST0
 1171 069a 00       		.byte	0
 1172 069b 18       		.uleb128 0x18
 1173 069c 01       		.byte	0x1
 1174 069d 50010000 		.4byte	.LASF97
 1175 06a1 01       		.byte	0x1
 1176 06a2 54       		.byte	0x54
 1177 06a3 01       		.byte	0x1
 1178 06a4 00000000 		.4byte	.LFB8
 1179 06a8 64000000 		.4byte	.LFE8
 1180 06ac 21000000 		.4byte	.LLST1
 1181 06b0 01       		.byte	0x1
 1182 06b1 5B070000 		.4byte	0x75b
 1183 06b5 19       		.uleb128 0x19
ARM GAS  C:\Users\srich\AppData\Local\Temp\ccQ87DuB.s 			page 22


 1184 06b6 7A000000 		.4byte	.LASF98
 1185 06ba 01       		.byte	0x1
 1186 06bb 55       		.byte	0x55
 1187 06bc 0C010000 		.4byte	0x10c
 1188 06c0 05       		.byte	0x5
 1189 06c1 03       		.byte	0x3
 1190 06c2 00000000 		.4byte	mainthread.4773
 1191 06c6 1A       		.uleb128 0x1a
 1192 06c7 34000000 		.4byte	.LBB2
 1193 06cb 3C000000 		.4byte	.LBE2
 1194 06cf E3060000 		.4byte	0x6e3
 1195 06d3 1B       		.uleb128 0x1b
 1196 06d4 746D7000 		.ascii	"tmp\000"
 1197 06d8 01       		.byte	0x1
 1198 06d9 6F       		.byte	0x6f
 1199 06da 82000000 		.4byte	0x82
 1200 06de 4D000000 		.4byte	.LLST2
 1201 06e2 00       		.byte	0
 1202 06e3 1C       		.uleb128 0x1c
 1203 06e4 08000000 		.4byte	.LVL2
 1204 06e8 2B080000 		.4byte	0x82b
 1205 06ec 1C       		.uleb128 0x1c
 1206 06ed 0C000000 		.4byte	.LVL3
 1207 06f1 36080000 		.4byte	0x836
 1208 06f5 1C       		.uleb128 0x1c
 1209 06f6 10000000 		.4byte	.LVL4
 1210 06fa 40080000 		.4byte	0x840
 1211 06fe 1C       		.uleb128 0x1c
 1212 06ff 14000000 		.4byte	.LVL5
 1213 0703 4A080000 		.4byte	0x84a
 1214 0707 1C       		.uleb128 0x1c
 1215 0708 18000000 		.4byte	.LVL6
 1216 070c 54080000 		.4byte	0x854
 1217 0710 1D       		.uleb128 0x1d
 1218 0711 26000000 		.4byte	.LVL7
 1219 0715 5E080000 		.4byte	0x85e
 1220 0719 2D070000 		.4byte	0x72d
 1221 071d 1E       		.uleb128 0x1e
 1222 071e 01       		.byte	0x1
 1223 071f 51       		.byte	0x51
 1224 0720 02       		.byte	0x2
 1225 0721 08       		.byte	0x8
 1226 0722 40       		.byte	0x40
 1227 0723 1E       		.uleb128 0x1e
 1228 0724 01       		.byte	0x1
 1229 0725 50       		.byte	0x50
 1230 0726 05       		.byte	0x5
 1231 0727 03       		.byte	0x3
 1232 0728 00000000 		.4byte	.LANCHOR0
 1233 072c 00       		.byte	0
 1234 072d 1F       		.uleb128 0x1f
 1235 072e 60000000 		.4byte	.LVL11
 1236 0732 7C080000 		.4byte	0x87c
 1237 0736 1E       		.uleb128 0x1e
 1238 0737 01       		.byte	0x1
 1239 0738 53       		.byte	0x53
 1240 0739 05       		.byte	0x5
ARM GAS  C:\Users\srich\AppData\Local\Temp\ccQ87DuB.s 			page 23


 1241 073a 03       		.byte	0x3
 1242 073b 00000000 		.4byte	_idle_thread
 1243 073f 1E       		.uleb128 0x1e
 1244 0740 01       		.byte	0x1
 1245 0741 52       		.byte	0x52
 1246 0742 01       		.byte	0x1
 1247 0743 31       		.byte	0x31
 1248 0744 1E       		.uleb128 0x1e
 1249 0745 01       		.byte	0x1
 1250 0746 51       		.byte	0x51
 1251 0747 02       		.byte	0x2
 1252 0748 08       		.byte	0x8
 1253 0749 E0       		.byte	0xe0
 1254 074a 1E       		.uleb128 0x1e
 1255 074b 01       		.byte	0x1
 1256 074c 50       		.byte	0x50
 1257 074d 05       		.byte	0x5
 1258 074e 03       		.byte	0x3
 1259 074f 00000000 		.4byte	.LANCHOR1
 1260 0753 1E       		.uleb128 0x1e
 1261 0754 02       		.byte	0x2
 1262 0755 7D       		.byte	0x7d
 1263 0756 00       		.sleb128 0
 1264 0757 01       		.byte	0x1
 1265 0758 30       		.byte	0x30
 1266 0759 00       		.byte	0
 1267 075a 00       		.byte	0
 1268 075b 20       		.uleb128 0x20
 1269 075c 01       		.byte	0x1
 1270 075d 39000000 		.4byte	.LASF99
 1271 0761 01       		.byte	0x1
 1272 0762 89       		.byte	0x89
 1273 0763 01       		.byte	0x1
 1274 0764 00000000 		.4byte	.LFB9
 1275 0768 58000000 		.4byte	.LFE9
 1276 076c 60000000 		.4byte	.LLST3
 1277 0770 01       		.byte	0x1
 1278 0771 DD070000 		.4byte	0x7dd
 1279 0775 21       		.uleb128 0x21
 1280 0776 22000000 		.4byte	.LBB3
 1281 077a 58000000 		.4byte	.LBE3
 1282 077e 1B       		.uleb128 0x1b
 1283 077f 76747000 		.ascii	"vtp\000"
 1284 0783 01       		.byte	0x1
 1285 0784 96       		.byte	0x96
 1286 0785 DF030000 		.4byte	0x3df
 1287 0789 80000000 		.4byte	.LLST4
 1288 078d 21       		.uleb128 0x21
 1289 078e 2A000000 		.4byte	.LBB4
 1290 0792 44000000 		.4byte	.LBE4
 1291 0796 1B       		.uleb128 0x1b
 1292 0797 666E00   		.ascii	"fn\000"
 1293 079a 01       		.byte	0x1
 1294 079b 96       		.byte	0x96
 1295 079c 64030000 		.4byte	0x364
 1296 07a0 9E000000 		.4byte	.LLST5
 1297 07a4 1A       		.uleb128 0x1a
ARM GAS  C:\Users\srich\AppData\Local\Temp\ccQ87DuB.s 			page 24


 1298 07a5 34000000 		.4byte	.LBB5
 1299 07a9 3A000000 		.4byte	.LBE5
 1300 07ad C1070000 		.4byte	0x7c1
 1301 07b1 1B       		.uleb128 0x1b
 1302 07b2 746D7000 		.ascii	"tmp\000"
 1303 07b6 01       		.byte	0x1
 1304 07b7 96       		.byte	0x96
 1305 07b8 82000000 		.4byte	0x82
 1306 07bc B1000000 		.4byte	.LLST6
 1307 07c0 00       		.byte	0
 1308 07c1 21       		.uleb128 0x21
 1309 07c2 3E000000 		.4byte	.LBB6
 1310 07c6 44000000 		.4byte	.LBE6
 1311 07ca 1B       		.uleb128 0x1b
 1312 07cb 746D7000 		.ascii	"tmp\000"
 1313 07cf 01       		.byte	0x1
 1314 07d0 96       		.byte	0x96
 1315 07d1 82000000 		.4byte	0x82
 1316 07d5 C4000000 		.4byte	.LLST7
 1317 07d9 00       		.byte	0
 1318 07da 00       		.byte	0
 1319 07db 00       		.byte	0
 1320 07dc 00       		.byte	0
 1321 07dd 22       		.uleb128 0x22
 1322 07de 32000000 		.4byte	.LASF100
 1323 07e2 08       		.byte	0x8
 1324 07e3 F5       		.byte	0xf5
 1325 07e4 2B040000 		.4byte	0x42b
 1326 07e8 01       		.byte	0x1
 1327 07e9 01       		.byte	0x1
 1328 07ea 22       		.uleb128 0x22
 1329 07eb 70040000 		.4byte	.LASF101
 1330 07ef 09       		.byte	0x9
 1331 07f0 6F       		.byte	0x6f
 1332 07f1 93040000 		.4byte	0x493
 1333 07f5 01       		.byte	0x1
 1334 07f6 01       		.byte	0x1
 1335 07f7 22       		.uleb128 0x22
 1336 07f8 99010000 		.4byte	.LASF102
 1337 07fc 0B       		.byte	0xb
 1338 07fd 7E       		.byte	0x7e
 1339 07fe 04080000 		.4byte	0x804
 1340 0802 01       		.byte	0x1
 1341 0803 01       		.byte	0x1
 1342 0804 12       		.uleb128 0x12
 1343 0805 69060000 		.4byte	0x669
 1344 0809 14       		.uleb128 0x14
 1345 080a A1020000 		.4byte	0x2a1
 1346 080e 19080000 		.4byte	0x819
 1347 0812 15       		.uleb128 0x15
 1348 0813 5D030000 		.4byte	0x35d
 1349 0817 1B       		.byte	0x1b
 1350 0818 00       		.byte	0
 1351 0819 23       		.uleb128 0x23
 1352 081a 27010000 		.4byte	.LASF103
 1353 081e 01       		.byte	0x1
 1354 081f 31       		.byte	0x31
ARM GAS  C:\Users\srich\AppData\Local\Temp\ccQ87DuB.s 			page 25


 1355 0820 09080000 		.4byte	0x809
 1356 0824 01       		.byte	0x1
 1357 0825 05       		.byte	0x5
 1358 0826 03       		.byte	0x3
 1359 0827 00000000 		.4byte	_idle_thread_wa
 1360 082b 24       		.uleb128 0x24
 1361 082c 01       		.byte	0x1
 1362 082d 7E040000 		.4byte	.LASF104
 1363 0831 07       		.byte	0x7
 1364 0832 0202     		.2byte	0x202
 1365 0834 01       		.byte	0x1
 1366 0835 01       		.byte	0x1
 1367 0836 25       		.uleb128 0x25
 1368 0837 01       		.byte	0x1
 1369 0838 99000000 		.4byte	.LASF105
 1370 083c 09       		.byte	0x9
 1371 083d 8E       		.byte	0x8e
 1372 083e 01       		.byte	0x1
 1373 083f 01       		.byte	0x1
 1374 0840 25       		.uleb128 0x25
 1375 0841 01       		.byte	0x1
 1376 0842 19040000 		.4byte	.LASF106
 1377 0846 08       		.byte	0x8
 1378 0847 FD       		.byte	0xfd
 1379 0848 01       		.byte	0x1
 1380 0849 01       		.byte	0x1
 1381 084a 25       		.uleb128 0x25
 1382 084b 01       		.byte	0x1
 1383 084c 3D030000 		.4byte	.LASF107
 1384 0850 0C       		.byte	0xc
 1385 0851 51       		.byte	0x51
 1386 0852 01       		.byte	0x1
 1387 0853 01       		.byte	0x1
 1388 0854 25       		.uleb128 0x25
 1389 0855 01       		.byte	0x1
 1390 0856 5A010000 		.4byte	.LASF108
 1391 085a 0D       		.byte	0xd
 1392 085b 55       		.byte	0x55
 1393 085c 01       		.byte	0x1
 1394 085d 01       		.byte	0x1
 1395 085e 26       		.uleb128 0x26
 1396 085f 01       		.byte	0x1
 1397 0860 72010000 		.4byte	.LASF111
 1398 0864 06       		.byte	0x6
 1399 0865 6A01     		.2byte	0x16a
 1400 0867 01       		.byte	0x1
 1401 0868 61020000 		.4byte	0x261
 1402 086c 01       		.byte	0x1
 1403 086d 7C080000 		.4byte	0x87c
 1404 0871 0E       		.uleb128 0xe
 1405 0872 61020000 		.4byte	0x261
 1406 0876 0E       		.uleb128 0xe
 1407 0877 E0000000 		.4byte	0xe0
 1408 087b 00       		.byte	0
 1409 087c 27       		.uleb128 0x27
 1410 087d 01       		.byte	0x1
 1411 087e 5E040000 		.4byte	.LASF112
ARM GAS  C:\Users\srich\AppData\Local\Temp\ccQ87DuB.s 			page 26


 1412 0882 06       		.byte	0x6
 1413 0883 7001     		.2byte	0x170
 1414 0885 01       		.byte	0x1
 1415 0886 61020000 		.4byte	0x261
 1416 088a 01       		.byte	0x1
 1417 088b 0E       		.uleb128 0xe
 1418 088c 9F020000 		.4byte	0x29f
 1419 0890 0E       		.uleb128 0xe
 1420 0891 2C000000 		.4byte	0x2c
 1421 0895 0E       		.uleb128 0xe
 1422 0896 E0000000 		.4byte	0xe0
 1423 089a 0E       		.uleb128 0xe
 1424 089b 33050000 		.4byte	0x533
 1425 089f 0E       		.uleb128 0xe
 1426 08a0 9F020000 		.4byte	0x29f
 1427 08a4 00       		.byte	0
 1428 08a5 00       		.byte	0
 1429              		.section	.debug_abbrev,"",%progbits
 1430              	.Ldebug_abbrev0:
 1431 0000 01       		.uleb128 0x1
 1432 0001 11       		.uleb128 0x11
 1433 0002 01       		.byte	0x1
 1434 0003 25       		.uleb128 0x25
 1435 0004 0E       		.uleb128 0xe
 1436 0005 13       		.uleb128 0x13
 1437 0006 0B       		.uleb128 0xb
 1438 0007 03       		.uleb128 0x3
 1439 0008 0E       		.uleb128 0xe
 1440 0009 55       		.uleb128 0x55
 1441 000a 06       		.uleb128 0x6
 1442 000b 11       		.uleb128 0x11
 1443 000c 01       		.uleb128 0x1
 1444 000d 52       		.uleb128 0x52
 1445 000e 01       		.uleb128 0x1
 1446 000f 10       		.uleb128 0x10
 1447 0010 06       		.uleb128 0x6
 1448 0011 00       		.byte	0
 1449 0012 00       		.byte	0
 1450 0013 02       		.uleb128 0x2
 1451 0014 24       		.uleb128 0x24
 1452 0015 00       		.byte	0
 1453 0016 0B       		.uleb128 0xb
 1454 0017 0B       		.uleb128 0xb
 1455 0018 3E       		.uleb128 0x3e
 1456 0019 0B       		.uleb128 0xb
 1457 001a 03       		.uleb128 0x3
 1458 001b 08       		.uleb128 0x8
 1459 001c 00       		.byte	0
 1460 001d 00       		.byte	0
 1461 001e 03       		.uleb128 0x3
 1462 001f 16       		.uleb128 0x16
 1463 0020 00       		.byte	0
 1464 0021 03       		.uleb128 0x3
 1465 0022 0E       		.uleb128 0xe
 1466 0023 3A       		.uleb128 0x3a
 1467 0024 0B       		.uleb128 0xb
 1468 0025 3B       		.uleb128 0x3b
ARM GAS  C:\Users\srich\AppData\Local\Temp\ccQ87DuB.s 			page 27


 1469 0026 0B       		.uleb128 0xb
 1470 0027 49       		.uleb128 0x49
 1471 0028 13       		.uleb128 0x13
 1472 0029 00       		.byte	0
 1473 002a 00       		.byte	0
 1474 002b 04       		.uleb128 0x4
 1475 002c 24       		.uleb128 0x24
 1476 002d 00       		.byte	0
 1477 002e 0B       		.uleb128 0xb
 1478 002f 0B       		.uleb128 0xb
 1479 0030 3E       		.uleb128 0x3e
 1480 0031 0B       		.uleb128 0xb
 1481 0032 03       		.uleb128 0x3
 1482 0033 0E       		.uleb128 0xe
 1483 0034 00       		.byte	0
 1484 0035 00       		.byte	0
 1485 0036 05       		.uleb128 0x5
 1486 0037 13       		.uleb128 0x13
 1487 0038 01       		.byte	0x1
 1488 0039 03       		.uleb128 0x3
 1489 003a 0E       		.uleb128 0xe
 1490 003b 0B       		.uleb128 0xb
 1491 003c 0B       		.uleb128 0xb
 1492 003d 3A       		.uleb128 0x3a
 1493 003e 0B       		.uleb128 0xb
 1494 003f 3B       		.uleb128 0x3b
 1495 0040 0B       		.uleb128 0xb
 1496 0041 01       		.uleb128 0x1
 1497 0042 13       		.uleb128 0x13
 1498 0043 00       		.byte	0
 1499 0044 00       		.byte	0
 1500 0045 06       		.uleb128 0x6
 1501 0046 0D       		.uleb128 0xd
 1502 0047 00       		.byte	0
 1503 0048 03       		.uleb128 0x3
 1504 0049 0E       		.uleb128 0xe
 1505 004a 3A       		.uleb128 0x3a
 1506 004b 0B       		.uleb128 0xb
 1507 004c 3B       		.uleb128 0x3b
 1508 004d 0B       		.uleb128 0xb
 1509 004e 49       		.uleb128 0x49
 1510 004f 13       		.uleb128 0x13
 1511 0050 38       		.uleb128 0x38
 1512 0051 0A       		.uleb128 0xa
 1513 0052 00       		.byte	0
 1514 0053 00       		.byte	0
 1515 0054 07       		.uleb128 0x7
 1516 0055 0D       		.uleb128 0xd
 1517 0056 00       		.byte	0
 1518 0057 03       		.uleb128 0x3
 1519 0058 08       		.uleb128 0x8
 1520 0059 3A       		.uleb128 0x3a
 1521 005a 0B       		.uleb128 0xb
 1522 005b 3B       		.uleb128 0x3b
 1523 005c 0B       		.uleb128 0xb
 1524 005d 49       		.uleb128 0x49
 1525 005e 13       		.uleb128 0x13
ARM GAS  C:\Users\srich\AppData\Local\Temp\ccQ87DuB.s 			page 28


 1526 005f 38       		.uleb128 0x38
 1527 0060 0A       		.uleb128 0xa
 1528 0061 00       		.byte	0
 1529 0062 00       		.byte	0
 1530 0063 08       		.uleb128 0x8
 1531 0064 13       		.uleb128 0x13
 1532 0065 01       		.byte	0x1
 1533 0066 0B       		.uleb128 0xb
 1534 0067 0B       		.uleb128 0xb
 1535 0068 3A       		.uleb128 0x3a
 1536 0069 0B       		.uleb128 0xb
 1537 006a 3B       		.uleb128 0x3b
 1538 006b 0B       		.uleb128 0xb
 1539 006c 01       		.uleb128 0x1
 1540 006d 13       		.uleb128 0x13
 1541 006e 00       		.byte	0
 1542 006f 00       		.byte	0
 1543 0070 09       		.uleb128 0x9
 1544 0071 0F       		.uleb128 0xf
 1545 0072 00       		.byte	0
 1546 0073 0B       		.uleb128 0xb
 1547 0074 0B       		.uleb128 0xb
 1548 0075 49       		.uleb128 0x49
 1549 0076 13       		.uleb128 0x13
 1550 0077 00       		.byte	0
 1551 0078 00       		.byte	0
 1552 0079 0A       		.uleb128 0xa
 1553 007a 0F       		.uleb128 0xf
 1554 007b 00       		.byte	0
 1555 007c 0B       		.uleb128 0xb
 1556 007d 0B       		.uleb128 0xb
 1557 007e 00       		.byte	0
 1558 007f 00       		.byte	0
 1559 0080 0B       		.uleb128 0xb
 1560 0081 13       		.uleb128 0x13
 1561 0082 01       		.byte	0x1
 1562 0083 03       		.uleb128 0x3
 1563 0084 0E       		.uleb128 0xe
 1564 0085 0B       		.uleb128 0xb
 1565 0086 0B       		.uleb128 0xb
 1566 0087 3A       		.uleb128 0x3a
 1567 0088 0B       		.uleb128 0xb
 1568 0089 3B       		.uleb128 0x3b
 1569 008a 05       		.uleb128 0x5
 1570 008b 01       		.uleb128 0x1
 1571 008c 13       		.uleb128 0x13
 1572 008d 00       		.byte	0
 1573 008e 00       		.byte	0
 1574 008f 0C       		.uleb128 0xc
 1575 0090 0D       		.uleb128 0xd
 1576 0091 00       		.byte	0
 1577 0092 03       		.uleb128 0x3
 1578 0093 08       		.uleb128 0x8
 1579 0094 3A       		.uleb128 0x3a
 1580 0095 0B       		.uleb128 0xb
 1581 0096 3B       		.uleb128 0x3b
 1582 0097 05       		.uleb128 0x5
ARM GAS  C:\Users\srich\AppData\Local\Temp\ccQ87DuB.s 			page 29


 1583 0098 49       		.uleb128 0x49
 1584 0099 13       		.uleb128 0x13
 1585 009a 38       		.uleb128 0x38
 1586 009b 0A       		.uleb128 0xa
 1587 009c 00       		.byte	0
 1588 009d 00       		.byte	0
 1589 009e 0D       		.uleb128 0xd
 1590 009f 15       		.uleb128 0x15
 1591 00a0 01       		.byte	0x1
 1592 00a1 27       		.uleb128 0x27
 1593 00a2 0C       		.uleb128 0xc
 1594 00a3 01       		.uleb128 0x1
 1595 00a4 13       		.uleb128 0x13
 1596 00a5 00       		.byte	0
 1597 00a6 00       		.byte	0
 1598 00a7 0E       		.uleb128 0xe
 1599 00a8 05       		.uleb128 0x5
 1600 00a9 00       		.byte	0
 1601 00aa 49       		.uleb128 0x49
 1602 00ab 13       		.uleb128 0x13
 1603 00ac 00       		.byte	0
 1604 00ad 00       		.byte	0
 1605 00ae 0F       		.uleb128 0xf
 1606 00af 35       		.uleb128 0x35
 1607 00b0 00       		.byte	0
 1608 00b1 49       		.uleb128 0x49
 1609 00b2 13       		.uleb128 0x13
 1610 00b3 00       		.byte	0
 1611 00b4 00       		.byte	0
 1612 00b5 10       		.uleb128 0x10
 1613 00b6 17       		.uleb128 0x17
 1614 00b7 01       		.byte	0x1
 1615 00b8 0B       		.uleb128 0xb
 1616 00b9 0B       		.uleb128 0xb
 1617 00ba 3A       		.uleb128 0x3a
 1618 00bb 0B       		.uleb128 0xb
 1619 00bc 3B       		.uleb128 0x3b
 1620 00bd 0B       		.uleb128 0xb
 1621 00be 01       		.uleb128 0x1
 1622 00bf 13       		.uleb128 0x13
 1623 00c0 00       		.byte	0
 1624 00c1 00       		.byte	0
 1625 00c2 11       		.uleb128 0x11
 1626 00c3 0D       		.uleb128 0xd
 1627 00c4 00       		.byte	0
 1628 00c5 03       		.uleb128 0x3
 1629 00c6 0E       		.uleb128 0xe
 1630 00c7 3A       		.uleb128 0x3a
 1631 00c8 0B       		.uleb128 0xb
 1632 00c9 3B       		.uleb128 0x3b
 1633 00ca 0B       		.uleb128 0xb
 1634 00cb 49       		.uleb128 0x49
 1635 00cc 13       		.uleb128 0x13
 1636 00cd 00       		.byte	0
 1637 00ce 00       		.byte	0
 1638 00cf 12       		.uleb128 0x12
 1639 00d0 26       		.uleb128 0x26
ARM GAS  C:\Users\srich\AppData\Local\Temp\ccQ87DuB.s 			page 30


 1640 00d1 00       		.byte	0
 1641 00d2 49       		.uleb128 0x49
 1642 00d3 13       		.uleb128 0x13
 1643 00d4 00       		.byte	0
 1644 00d5 00       		.byte	0
 1645 00d6 13       		.uleb128 0x13
 1646 00d7 15       		.uleb128 0x15
 1647 00d8 01       		.byte	0x1
 1648 00d9 27       		.uleb128 0x27
 1649 00da 0C       		.uleb128 0xc
 1650 00db 49       		.uleb128 0x49
 1651 00dc 13       		.uleb128 0x13
 1652 00dd 01       		.uleb128 0x1
 1653 00de 13       		.uleb128 0x13
 1654 00df 00       		.byte	0
 1655 00e0 00       		.byte	0
 1656 00e1 14       		.uleb128 0x14
 1657 00e2 01       		.uleb128 0x1
 1658 00e3 01       		.byte	0x1
 1659 00e4 49       		.uleb128 0x49
 1660 00e5 13       		.uleb128 0x13
 1661 00e6 01       		.uleb128 0x1
 1662 00e7 13       		.uleb128 0x13
 1663 00e8 00       		.byte	0
 1664 00e9 00       		.byte	0
 1665 00ea 15       		.uleb128 0x15
 1666 00eb 21       		.uleb128 0x21
 1667 00ec 00       		.byte	0
 1668 00ed 49       		.uleb128 0x49
 1669 00ee 13       		.uleb128 0x13
 1670 00ef 2F       		.uleb128 0x2f
 1671 00f0 0B       		.uleb128 0xb
 1672 00f1 00       		.byte	0
 1673 00f2 00       		.byte	0
 1674 00f3 16       		.uleb128 0x16
 1675 00f4 2E       		.uleb128 0x2e
 1676 00f5 01       		.byte	0x1
 1677 00f6 3F       		.uleb128 0x3f
 1678 00f7 0C       		.uleb128 0xc
 1679 00f8 03       		.uleb128 0x3
 1680 00f9 0E       		.uleb128 0xe
 1681 00fa 3A       		.uleb128 0x3a
 1682 00fb 0B       		.uleb128 0xb
 1683 00fc 3B       		.uleb128 0x3b
 1684 00fd 0B       		.uleb128 0xb
 1685 00fe 27       		.uleb128 0x27
 1686 00ff 0C       		.uleb128 0xc
 1687 0100 11       		.uleb128 0x11
 1688 0101 01       		.uleb128 0x1
 1689 0102 12       		.uleb128 0x12
 1690 0103 01       		.uleb128 0x1
 1691 0104 40       		.uleb128 0x40
 1692 0105 0A       		.uleb128 0xa
 1693 0106 9742     		.uleb128 0x2117
 1694 0108 0C       		.uleb128 0xc
 1695 0109 01       		.uleb128 0x1
 1696 010a 13       		.uleb128 0x13
ARM GAS  C:\Users\srich\AppData\Local\Temp\ccQ87DuB.s 			page 31


 1697 010b 00       		.byte	0
 1698 010c 00       		.byte	0
 1699 010d 17       		.uleb128 0x17
 1700 010e 05       		.uleb128 0x5
 1701 010f 00       		.byte	0
 1702 0110 03       		.uleb128 0x3
 1703 0111 08       		.uleb128 0x8
 1704 0112 3A       		.uleb128 0x3a
 1705 0113 0B       		.uleb128 0xb
 1706 0114 3B       		.uleb128 0x3b
 1707 0115 0B       		.uleb128 0xb
 1708 0116 49       		.uleb128 0x49
 1709 0117 13       		.uleb128 0x13
 1710 0118 02       		.uleb128 0x2
 1711 0119 06       		.uleb128 0x6
 1712 011a 00       		.byte	0
 1713 011b 00       		.byte	0
 1714 011c 18       		.uleb128 0x18
 1715 011d 2E       		.uleb128 0x2e
 1716 011e 01       		.byte	0x1
 1717 011f 3F       		.uleb128 0x3f
 1718 0120 0C       		.uleb128 0xc
 1719 0121 03       		.uleb128 0x3
 1720 0122 0E       		.uleb128 0xe
 1721 0123 3A       		.uleb128 0x3a
 1722 0124 0B       		.uleb128 0xb
 1723 0125 3B       		.uleb128 0x3b
 1724 0126 0B       		.uleb128 0xb
 1725 0127 27       		.uleb128 0x27
 1726 0128 0C       		.uleb128 0xc
 1727 0129 11       		.uleb128 0x11
 1728 012a 01       		.uleb128 0x1
 1729 012b 12       		.uleb128 0x12
 1730 012c 01       		.uleb128 0x1
 1731 012d 40       		.uleb128 0x40
 1732 012e 06       		.uleb128 0x6
 1733 012f 9742     		.uleb128 0x2117
 1734 0131 0C       		.uleb128 0xc
 1735 0132 01       		.uleb128 0x1
 1736 0133 13       		.uleb128 0x13
 1737 0134 00       		.byte	0
 1738 0135 00       		.byte	0
 1739 0136 19       		.uleb128 0x19
 1740 0137 34       		.uleb128 0x34
 1741 0138 00       		.byte	0
 1742 0139 03       		.uleb128 0x3
 1743 013a 0E       		.uleb128 0xe
 1744 013b 3A       		.uleb128 0x3a
 1745 013c 0B       		.uleb128 0xb
 1746 013d 3B       		.uleb128 0x3b
 1747 013e 0B       		.uleb128 0xb
 1748 013f 49       		.uleb128 0x49
 1749 0140 13       		.uleb128 0x13
 1750 0141 02       		.uleb128 0x2
 1751 0142 0A       		.uleb128 0xa
 1752 0143 00       		.byte	0
 1753 0144 00       		.byte	0
ARM GAS  C:\Users\srich\AppData\Local\Temp\ccQ87DuB.s 			page 32


 1754 0145 1A       		.uleb128 0x1a
 1755 0146 0B       		.uleb128 0xb
 1756 0147 01       		.byte	0x1
 1757 0148 11       		.uleb128 0x11
 1758 0149 01       		.uleb128 0x1
 1759 014a 12       		.uleb128 0x12
 1760 014b 01       		.uleb128 0x1
 1761 014c 01       		.uleb128 0x1
 1762 014d 13       		.uleb128 0x13
 1763 014e 00       		.byte	0
 1764 014f 00       		.byte	0
 1765 0150 1B       		.uleb128 0x1b
 1766 0151 34       		.uleb128 0x34
 1767 0152 00       		.byte	0
 1768 0153 03       		.uleb128 0x3
 1769 0154 08       		.uleb128 0x8
 1770 0155 3A       		.uleb128 0x3a
 1771 0156 0B       		.uleb128 0xb
 1772 0157 3B       		.uleb128 0x3b
 1773 0158 0B       		.uleb128 0xb
 1774 0159 49       		.uleb128 0x49
 1775 015a 13       		.uleb128 0x13
 1776 015b 02       		.uleb128 0x2
 1777 015c 06       		.uleb128 0x6
 1778 015d 00       		.byte	0
 1779 015e 00       		.byte	0
 1780 015f 1C       		.uleb128 0x1c
 1781 0160 898201   		.uleb128 0x4109
 1782 0163 00       		.byte	0
 1783 0164 11       		.uleb128 0x11
 1784 0165 01       		.uleb128 0x1
 1785 0166 31       		.uleb128 0x31
 1786 0167 13       		.uleb128 0x13
 1787 0168 00       		.byte	0
 1788 0169 00       		.byte	0
 1789 016a 1D       		.uleb128 0x1d
 1790 016b 898201   		.uleb128 0x4109
 1791 016e 01       		.byte	0x1
 1792 016f 11       		.uleb128 0x11
 1793 0170 01       		.uleb128 0x1
 1794 0171 31       		.uleb128 0x31
 1795 0172 13       		.uleb128 0x13
 1796 0173 01       		.uleb128 0x1
 1797 0174 13       		.uleb128 0x13
 1798 0175 00       		.byte	0
 1799 0176 00       		.byte	0
 1800 0177 1E       		.uleb128 0x1e
 1801 0178 8A8201   		.uleb128 0x410a
 1802 017b 00       		.byte	0
 1803 017c 02       		.uleb128 0x2
 1804 017d 0A       		.uleb128 0xa
 1805 017e 9142     		.uleb128 0x2111
 1806 0180 0A       		.uleb128 0xa
 1807 0181 00       		.byte	0
 1808 0182 00       		.byte	0
 1809 0183 1F       		.uleb128 0x1f
 1810 0184 898201   		.uleb128 0x4109
ARM GAS  C:\Users\srich\AppData\Local\Temp\ccQ87DuB.s 			page 33


 1811 0187 01       		.byte	0x1
 1812 0188 11       		.uleb128 0x11
 1813 0189 01       		.uleb128 0x1
 1814 018a 31       		.uleb128 0x31
 1815 018b 13       		.uleb128 0x13
 1816 018c 00       		.byte	0
 1817 018d 00       		.byte	0
 1818 018e 20       		.uleb128 0x20
 1819 018f 2E       		.uleb128 0x2e
 1820 0190 01       		.byte	0x1
 1821 0191 3F       		.uleb128 0x3f
 1822 0192 0C       		.uleb128 0xc
 1823 0193 03       		.uleb128 0x3
 1824 0194 0E       		.uleb128 0xe
 1825 0195 3A       		.uleb128 0x3a
 1826 0196 0B       		.uleb128 0xb
 1827 0197 3B       		.uleb128 0x3b
 1828 0198 0B       		.uleb128 0xb
 1829 0199 27       		.uleb128 0x27
 1830 019a 0C       		.uleb128 0xc
 1831 019b 11       		.uleb128 0x11
 1832 019c 01       		.uleb128 0x1
 1833 019d 12       		.uleb128 0x12
 1834 019e 01       		.uleb128 0x1
 1835 019f 40       		.uleb128 0x40
 1836 01a0 06       		.uleb128 0x6
 1837 01a1 9642     		.uleb128 0x2116
 1838 01a3 0C       		.uleb128 0xc
 1839 01a4 01       		.uleb128 0x1
 1840 01a5 13       		.uleb128 0x13
 1841 01a6 00       		.byte	0
 1842 01a7 00       		.byte	0
 1843 01a8 21       		.uleb128 0x21
 1844 01a9 0B       		.uleb128 0xb
 1845 01aa 01       		.byte	0x1
 1846 01ab 11       		.uleb128 0x11
 1847 01ac 01       		.uleb128 0x1
 1848 01ad 12       		.uleb128 0x12
 1849 01ae 01       		.uleb128 0x1
 1850 01af 00       		.byte	0
 1851 01b0 00       		.byte	0
 1852 01b1 22       		.uleb128 0x22
 1853 01b2 34       		.uleb128 0x34
 1854 01b3 00       		.byte	0
 1855 01b4 03       		.uleb128 0x3
 1856 01b5 0E       		.uleb128 0xe
 1857 01b6 3A       		.uleb128 0x3a
 1858 01b7 0B       		.uleb128 0xb
 1859 01b8 3B       		.uleb128 0x3b
 1860 01b9 0B       		.uleb128 0xb
 1861 01ba 49       		.uleb128 0x49
 1862 01bb 13       		.uleb128 0x13
 1863 01bc 3F       		.uleb128 0x3f
 1864 01bd 0C       		.uleb128 0xc
 1865 01be 3C       		.uleb128 0x3c
 1866 01bf 0C       		.uleb128 0xc
 1867 01c0 00       		.byte	0
ARM GAS  C:\Users\srich\AppData\Local\Temp\ccQ87DuB.s 			page 34


 1868 01c1 00       		.byte	0
 1869 01c2 23       		.uleb128 0x23
 1870 01c3 34       		.uleb128 0x34
 1871 01c4 00       		.byte	0
 1872 01c5 03       		.uleb128 0x3
 1873 01c6 0E       		.uleb128 0xe
 1874 01c7 3A       		.uleb128 0x3a
 1875 01c8 0B       		.uleb128 0xb
 1876 01c9 3B       		.uleb128 0x3b
 1877 01ca 0B       		.uleb128 0xb
 1878 01cb 49       		.uleb128 0x49
 1879 01cc 13       		.uleb128 0x13
 1880 01cd 3F       		.uleb128 0x3f
 1881 01ce 0C       		.uleb128 0xc
 1882 01cf 02       		.uleb128 0x2
 1883 01d0 0A       		.uleb128 0xa
 1884 01d1 00       		.byte	0
 1885 01d2 00       		.byte	0
 1886 01d3 24       		.uleb128 0x24
 1887 01d4 2E       		.uleb128 0x2e
 1888 01d5 00       		.byte	0
 1889 01d6 3F       		.uleb128 0x3f
 1890 01d7 0C       		.uleb128 0xc
 1891 01d8 03       		.uleb128 0x3
 1892 01d9 0E       		.uleb128 0xe
 1893 01da 3A       		.uleb128 0x3a
 1894 01db 0B       		.uleb128 0xb
 1895 01dc 3B       		.uleb128 0x3b
 1896 01dd 05       		.uleb128 0x5
 1897 01de 27       		.uleb128 0x27
 1898 01df 0C       		.uleb128 0xc
 1899 01e0 3C       		.uleb128 0x3c
 1900 01e1 0C       		.uleb128 0xc
 1901 01e2 00       		.byte	0
 1902 01e3 00       		.byte	0
 1903 01e4 25       		.uleb128 0x25
 1904 01e5 2E       		.uleb128 0x2e
 1905 01e6 00       		.byte	0
 1906 01e7 3F       		.uleb128 0x3f
 1907 01e8 0C       		.uleb128 0xc
 1908 01e9 03       		.uleb128 0x3
 1909 01ea 0E       		.uleb128 0xe
 1910 01eb 3A       		.uleb128 0x3a
 1911 01ec 0B       		.uleb128 0xb
 1912 01ed 3B       		.uleb128 0x3b
 1913 01ee 0B       		.uleb128 0xb
 1914 01ef 27       		.uleb128 0x27
 1915 01f0 0C       		.uleb128 0xc
 1916 01f1 3C       		.uleb128 0x3c
 1917 01f2 0C       		.uleb128 0xc
 1918 01f3 00       		.byte	0
 1919 01f4 00       		.byte	0
 1920 01f5 26       		.uleb128 0x26
 1921 01f6 2E       		.uleb128 0x2e
 1922 01f7 01       		.byte	0x1
 1923 01f8 3F       		.uleb128 0x3f
 1924 01f9 0C       		.uleb128 0xc
ARM GAS  C:\Users\srich\AppData\Local\Temp\ccQ87DuB.s 			page 35


 1925 01fa 03       		.uleb128 0x3
 1926 01fb 0E       		.uleb128 0xe
 1927 01fc 3A       		.uleb128 0x3a
 1928 01fd 0B       		.uleb128 0xb
 1929 01fe 3B       		.uleb128 0x3b
 1930 01ff 05       		.uleb128 0x5
 1931 0200 27       		.uleb128 0x27
 1932 0201 0C       		.uleb128 0xc
 1933 0202 49       		.uleb128 0x49
 1934 0203 13       		.uleb128 0x13
 1935 0204 3C       		.uleb128 0x3c
 1936 0205 0C       		.uleb128 0xc
 1937 0206 01       		.uleb128 0x1
 1938 0207 13       		.uleb128 0x13
 1939 0208 00       		.byte	0
 1940 0209 00       		.byte	0
 1941 020a 27       		.uleb128 0x27
 1942 020b 2E       		.uleb128 0x2e
 1943 020c 01       		.byte	0x1
 1944 020d 3F       		.uleb128 0x3f
 1945 020e 0C       		.uleb128 0xc
 1946 020f 03       		.uleb128 0x3
 1947 0210 0E       		.uleb128 0xe
 1948 0211 3A       		.uleb128 0x3a
 1949 0212 0B       		.uleb128 0xb
 1950 0213 3B       		.uleb128 0x3b
 1951 0214 05       		.uleb128 0x5
 1952 0215 27       		.uleb128 0x27
 1953 0216 0C       		.uleb128 0xc
 1954 0217 49       		.uleb128 0x49
 1955 0218 13       		.uleb128 0x13
 1956 0219 3C       		.uleb128 0x3c
 1957 021a 0C       		.uleb128 0xc
 1958 021b 00       		.byte	0
 1959 021c 00       		.byte	0
 1960 021d 00       		.byte	0
 1961              		.section	.debug_loc,"",%progbits
 1962              	.Ldebug_loc0:
 1963              	.LLST0:
 1964 0000 00000000 		.4byte	.LVL0
 1965 0004 06000000 		.4byte	.LVL1
 1966 0008 0100     		.2byte	0x1
 1967 000a 50       		.byte	0x50
 1968 000b 06000000 		.4byte	.LVL1
 1969 000f 14000000 		.4byte	.LFE7
 1970 0013 0400     		.2byte	0x4
 1971 0015 F3       		.byte	0xf3
 1972 0016 01       		.uleb128 0x1
 1973 0017 50       		.byte	0x50
 1974 0018 9F       		.byte	0x9f
 1975 0019 00000000 		.4byte	0
 1976 001d 00000000 		.4byte	0
 1977              	.LLST1:
 1978 0021 00000000 		.4byte	.LFB8
 1979 0025 02000000 		.4byte	.LCFI0
 1980 0029 0200     		.2byte	0x2
 1981 002b 7D       		.byte	0x7d
ARM GAS  C:\Users\srich\AppData\Local\Temp\ccQ87DuB.s 			page 36


 1982 002c 00       		.sleb128 0
 1983 002d 02000000 		.4byte	.LCFI0
 1984 0031 04000000 		.4byte	.LCFI1
 1985 0035 0200     		.2byte	0x2
 1986 0037 7D       		.byte	0x7d
 1987 0038 04       		.sleb128 4
 1988 0039 04000000 		.4byte	.LCFI1
 1989 003d 64000000 		.4byte	.LFE8
 1990 0041 0200     		.2byte	0x2
 1991 0043 7D       		.byte	0x7d
 1992 0044 10       		.sleb128 16
 1993 0045 00000000 		.4byte	0
 1994 0049 00000000 		.4byte	0
 1995              	.LLST2:
 1996 004d 3C000000 		.4byte	.LVL9
 1997 0051 52000000 		.4byte	.LVL10
 1998 0055 0100     		.2byte	0x1
 1999 0057 53       		.byte	0x53
 2000 0058 00000000 		.4byte	0
 2001 005c 00000000 		.4byte	0
 2002              	.LLST3:
 2003 0060 00000000 		.4byte	.LFB9
 2004 0064 02000000 		.4byte	.LCFI2
 2005 0068 0200     		.2byte	0x2
 2006 006a 7D       		.byte	0x7d
 2007 006b 00       		.sleb128 0
 2008 006c 02000000 		.4byte	.LCFI2
 2009 0070 58000000 		.4byte	.LFE9
 2010 0074 0200     		.2byte	0x2
 2011 0076 7D       		.byte	0x7d
 2012 0077 10       		.sleb128 16
 2013 0078 00000000 		.4byte	0
 2014 007c 00000000 		.4byte	0
 2015              	.LLST4:
 2016 0080 28000000 		.4byte	.LVL12
 2017 0084 3D000000 		.4byte	.LVL18-1
 2018 0088 0100     		.2byte	0x1
 2019 008a 52       		.byte	0x52
 2020 008b 46000000 		.4byte	.LVL20
 2021 008f 4C000000 		.4byte	.LVL21
 2022 0093 0100     		.2byte	0x1
 2023 0095 52       		.byte	0x52
 2024 0096 00000000 		.4byte	0
 2025 009a 00000000 		.4byte	0
 2026              	.LLST5:
 2027 009e 2E000000 		.4byte	.LVL15
 2028 00a2 3D000000 		.4byte	.LVL18-1
 2029 00a6 0100     		.2byte	0x1
 2030 00a8 51       		.byte	0x51
 2031 00a9 00000000 		.4byte	0
 2032 00ad 00000000 		.4byte	0
 2033              	.LLST6:
 2034 00b1 3A000000 		.4byte	.LVL17
 2035 00b5 3D000000 		.4byte	.LVL18-1
 2036 00b9 0100     		.2byte	0x1
 2037 00bb 53       		.byte	0x53
 2038 00bc 00000000 		.4byte	0
ARM GAS  C:\Users\srich\AppData\Local\Temp\ccQ87DuB.s 			page 37


 2039 00c0 00000000 		.4byte	0
 2040              	.LLST7:
 2041 00c4 2A000000 		.4byte	.LVL13
 2042 00c8 2C000000 		.4byte	.LVL14
 2043 00cc 0100     		.2byte	0x1
 2044 00ce 53       		.byte	0x53
 2045 00cf 44000000 		.4byte	.LVL19
 2046 00d3 58000000 		.4byte	.LFE9
 2047 00d7 0100     		.2byte	0x1
 2048 00d9 53       		.byte	0x53
 2049 00da 00000000 		.4byte	0
 2050 00de 00000000 		.4byte	0
 2051              		.section	.debug_aranges,"",%progbits
 2052 0000 2C000000 		.4byte	0x2c
 2053 0004 0200     		.2byte	0x2
 2054 0006 00000000 		.4byte	.Ldebug_info0
 2055 000a 04       		.byte	0x4
 2056 000b 00       		.byte	0
 2057 000c 0000     		.2byte	0
 2058 000e 0000     		.2byte	0
 2059 0010 00000000 		.4byte	.LFB7
 2060 0014 14000000 		.4byte	.LFE7-.LFB7
 2061 0018 00000000 		.4byte	.LFB8
 2062 001c 64000000 		.4byte	.LFE8-.LFB8
 2063 0020 00000000 		.4byte	.LFB9
 2064 0024 58000000 		.4byte	.LFE9-.LFB9
 2065 0028 00000000 		.4byte	0
 2066 002c 00000000 		.4byte	0
 2067              		.section	.debug_ranges,"",%progbits
 2068              	.Ldebug_ranges0:
 2069 0000 00000000 		.4byte	.LFB7
 2070 0004 14000000 		.4byte	.LFE7
 2071 0008 00000000 		.4byte	.LFB8
 2072 000c 64000000 		.4byte	.LFE8
 2073 0010 00000000 		.4byte	.LFB9
 2074 0014 58000000 		.4byte	.LFE9
 2075 0018 00000000 		.4byte	0
 2076 001c 00000000 		.4byte	0
 2077              		.section	.debug_line,"",%progbits
 2078              	.Ldebug_line0:
 2079 0000 66020000 		.section	.debug_str,"MS",%progbits,1
 2079      02001202 
 2079      00000201 
 2079      FB0E0D00 
 2079      01010101 
 2080              	.LASF76:
 2081 0000 7466756E 		.ascii	"tfunc_t\000"
 2081      635F7400 
 2082              	.LASF87:
 2083 0008 63665F6F 		.ascii	"cf_off_older\000"
 2083      66665F6F 
 2083      6C646572 
 2083      00
 2084              	.LASF39:
 2085 0015 705F6D73 		.ascii	"p_msg\000"
 2085      6700
 2086              	.LASF2:
ARM GAS  C:\Users\srich\AppData\Local\Temp\ccQ87DuB.s 			page 38


 2087 001b 73697A65 		.ascii	"size_t\000"
 2087      5F7400
 2088              	.LASF71:
 2089 0022 7264796D 		.ascii	"rdymsg\000"
 2089      736700
 2090              	.LASF13:
 2091 0029 75696E74 		.ascii	"uint64_t\000"
 2091      36345F74 
 2091      00
 2092              	.LASF100:
 2093 0032 76746C69 		.ascii	"vtlist\000"
 2093      737400
 2094              	.LASF99:
 2095 0039 63685379 		.ascii	"chSysTimerHandlerI\000"
 2095      7354696D 
 2095      65724861 
 2095      6E646C65 
 2095      724900
 2096              	.LASF14:
 2097 004c 6C6F6E67 		.ascii	"long long unsigned int\000"
 2097      206C6F6E 
 2097      6720756E 
 2097      7369676E 
 2097      65642069 
 2098              	.LASF83:
 2099 0063 63685F74 		.ascii	"ch_threadsize\000"
 2099      68726561 
 2099      6473697A 
 2099      6500
 2100              	.LASF72:
 2101 0071 65786974 		.ascii	"exitcode\000"
 2101      636F6465 
 2101      00
 2102              	.LASF98:
 2103 007a 6D61696E 		.ascii	"mainthread\000"
 2103      74687265 
 2103      616400
 2104              	.LASF27:
 2105 0085 705F7072 		.ascii	"p_prio\000"
 2105      696F00
 2106              	.LASF90:
 2107 008c 63665F6F 		.ascii	"cf_off_state\000"
 2107      66665F73 
 2107      74617465 
 2107      00
 2108              	.LASF105:
 2109 0099 5F736368 		.ascii	"_scheduler_init\000"
 2109      6564756C 
 2109      65725F69 
 2109      6E697400 
 2110              	.LASF12:
 2111 00a9 6C6F6E67 		.ascii	"long long int\000"
 2111      206C6F6E 
 2111      6720696E 
 2111      7400
 2112              	.LASF1:
 2113 00b7 7369676E 		.ascii	"signed char\000"
ARM GAS  C:\Users\srich\AppData\Local\Temp\ccQ87DuB.s 			page 39


 2113      65642063 
 2113      68617200 
 2114              	.LASF89:
 2115 00c3 63665F6F 		.ascii	"cf_off_stklimit\000"
 2115      66665F73 
 2115      746B6C69 
 2115      6D697400 
 2116              	.LASF91:
 2117 00d3 63665F6F 		.ascii	"cf_off_flags\000"
 2117      66665F66 
 2117      6C616773 
 2117      00
 2118              	.LASF43:
 2119 00e0 705F6D70 		.ascii	"p_mpool\000"
 2119      6F6F6C00 
 2120              	.LASF68:
 2121 00e8 6D5F7175 		.ascii	"m_queue\000"
 2121      65756500 
 2122              	.LASF19:
 2123 00f0 74736C69 		.ascii	"tslices_t\000"
 2123      6365735F 
 2123      7400
 2124              	.LASF9:
 2125 00fa 6C6F6E67 		.ascii	"long int\000"
 2125      20696E74 
 2125      00
 2126              	.LASF17:
 2127 0103 74737461 		.ascii	"tstate_t\000"
 2127      74655F74 
 2127      00
 2128              	.LASF6:
 2129 010c 75696E74 		.ascii	"uint16_t\000"
 2129      31365F74 
 2129      00
 2130              	.LASF95:
 2131 0115 63686465 		.ascii	"chdebug_t\000"
 2131      6275675F 
 2131      7400
 2132              	.LASF29:
 2133 011f 705F6E65 		.ascii	"p_newer\000"
 2133      77657200 
 2134              	.LASF103:
 2135 0127 5F69646C 		.ascii	"_idle_thread_wa\000"
 2135      655F7468 
 2135      72656164 
 2135      5F776100 
 2136              	.LASF63:
 2137 0137 725F6E65 		.ascii	"r_newer\000"
 2137      77657200 
 2138              	.LASF46:
 2139 013f 72656761 		.ascii	"regarm_t\000"
 2139      726D5F74 
 2139      00
 2140              	.LASF54:
 2141 0148 76745F70 		.ascii	"vt_prev\000"
 2141      72657600 
 2142              	.LASF97:
ARM GAS  C:\Users\srich\AppData\Local\Temp\ccQ87DuB.s 			page 40


 2143 0150 63685379 		.ascii	"chSysInit\000"
 2143      73496E69 
 2143      7400
 2144              	.LASF108:
 2145 015a 5F686561 		.ascii	"_heap_init\000"
 2145      705F696E 
 2145      697400
 2146              	.LASF0:
 2147 0165 756E7369 		.ascii	"unsigned int\000"
 2147      676E6564 
 2147      20696E74 
 2147      00
 2148              	.LASF111:
 2149 0172 5F746872 		.ascii	"_thread_init\000"
 2149      6561645F 
 2149      696E6974 
 2149      00
 2150              	.LASF53:
 2151 017f 76745F6E 		.ascii	"vt_next\000"
 2151      65787400 
 2152              	.LASF11:
 2153 0187 6C6F6E67 		.ascii	"long unsigned int\000"
 2153      20756E73 
 2153      69676E65 
 2153      6420696E 
 2153      7400
 2154              	.LASF102:
 2155 0199 63685F64 		.ascii	"ch_debug\000"
 2155      65627567 
 2155      00
 2156              	.LASF77:
 2157 01a2 63685F69 		.ascii	"ch_identifier\000"
 2157      64656E74 
 2157      69666965 
 2157      7200
 2158              	.LASF49:
 2159 01b0 636F6E74 		.ascii	"context\000"
 2159      65787400 
 2160              	.LASF7:
 2161 01b8 73686F72 		.ascii	"short unsigned int\000"
 2161      7420756E 
 2161      7369676E 
 2161      65642069 
 2161      6E7400
 2162              	.LASF21:
 2163 01cb 6D73675F 		.ascii	"msg_t\000"
 2163      7400
 2164              	.LASF16:
 2165 01d1 746D6F64 		.ascii	"tmode_t\000"
 2165      655F7400 
 2166              	.LASF45:
 2167 01d9 54687265 		.ascii	"ThreadsList\000"
 2167      6164734C 
 2167      69737400 
 2168              	.LASF22:
 2169 01e5 6576656E 		.ascii	"eventmask_t\000"
 2169      746D6173 
ARM GAS  C:\Users\srich\AppData\Local\Temp\ccQ87DuB.s 			page 41


 2169      6B5F7400 
 2170              	.LASF67:
 2171 01f1 4D757465 		.ascii	"Mutex\000"
 2171      7800
 2172              	.LASF47:
 2173 01f7 73746B61 		.ascii	"stkalign_t\000"
 2173      6C69676E 
 2173      5F7400
 2174              	.LASF110:
 2175 0202 633A5C43 		.ascii	"c:\\ChibiStudio\\chibios/os/kernel/src/chsys.c\000"
 2175      68696269 
 2175      53747564 
 2175      696F5C63 
 2175      68696269 
 2176              	.LASF78:
 2177 022f 63685F7A 		.ascii	"ch_zero\000"
 2177      65726F00 
 2178              	.LASF92:
 2179 0237 63665F6F 		.ascii	"cf_off_refs\000"
 2179      66665F72 
 2179      65667300 
 2180              	.LASF55:
 2181 0243 76745F74 		.ascii	"vt_time\000"
 2181      696D6500 
 2182              	.LASF50:
 2183 024b 73697A65 		.ascii	"sizetype\000"
 2183      74797065 
 2183      00
 2184              	.LASF56:
 2185 0254 76745F66 		.ascii	"vt_func\000"
 2185      756E6300 
 2186              	.LASF82:
 2187 025c 63685F74 		.ascii	"ch_timesize\000"
 2187      696D6573 
 2187      697A6500 
 2188              	.LASF88:
 2189 0268 63665F6F 		.ascii	"cf_off_name\000"
 2189      66665F6E 
 2189      616D6500 
 2190              	.LASF109:
 2191 0274 474E5520 		.ascii	"GNU C 4.7.4 20140401 (release) [ARM/embedded-4_7-br"
 2191      4320342E 
 2191      372E3420 
 2191      32303134 
 2191      30343031 
 2192 02a7 616E6368 		.ascii	"anch revision 209195]\000"
 2192      20726576 
 2192      6973696F 
 2192      6E203230 
 2192      39313935 
 2193              	.LASF30:
 2194 02bd 705F6F6C 		.ascii	"p_older\000"
 2194      64657200 
 2195              	.LASF62:
 2196 02c5 725F6374 		.ascii	"r_ctx\000"
 2196      7800
 2197              	.LASF44:
ARM GAS  C:\Users\srich\AppData\Local\Temp\ccQ87DuB.s 			page 42


 2198 02cb 54687265 		.ascii	"ThreadsQueue\000"
 2198      61647351 
 2198      75657565 
 2198      00
 2199              	.LASF79:
 2200 02d8 63685F73 		.ascii	"ch_size\000"
 2200      697A6500 
 2201              	.LASF65:
 2202 02e0 725F6375 		.ascii	"r_current\000"
 2202      7272656E 
 2202      7400
 2203              	.LASF64:
 2204 02ea 725F6F6C 		.ascii	"r_older\000"
 2204      64657200 
 2205              	.LASF96:
 2206 02f2 5F69646C 		.ascii	"_idle_thread\000"
 2206      655F7468 
 2206      72656164 
 2206      00
 2207              	.LASF18:
 2208 02ff 74726566 		.ascii	"trefs_t\000"
 2208      735F7400 
 2209              	.LASF81:
 2210 0307 63685F70 		.ascii	"ch_ptrsize\000"
 2210      74727369 
 2210      7A6500
 2211              	.LASF26:
 2212 0312 705F7072 		.ascii	"p_prev\000"
 2212      657600
 2213              	.LASF20:
 2214 0319 74707269 		.ascii	"tprio_t\000"
 2214      6F5F7400 
 2215              	.LASF15:
 2216 0321 5F426F6F 		.ascii	"_Bool\000"
 2216      6C00
 2217              	.LASF8:
 2218 0327 696E7433 		.ascii	"int32_t\000"
 2218      325F7400 
 2219              	.LASF4:
 2220 032f 756E7369 		.ascii	"unsigned char\000"
 2220      676E6564 
 2220      20636861 
 2220      7200
 2221              	.LASF107:
 2222 033d 5F636F72 		.ascii	"_core_init\000"
 2222      655F696E 
 2222      697400
 2223              	.LASF41:
 2224 0348 705F6D74 		.ascii	"p_mtxlist\000"
 2224      786C6973 
 2224      7400
 2225              	.LASF5:
 2226 0352 73686F72 		.ascii	"short int\000"
 2226      7420696E 
 2226      7400
 2227              	.LASF32:
 2228 035c 705F7374 		.ascii	"p_state\000"
ARM GAS  C:\Users\srich\AppData\Local\Temp\ccQ87DuB.s 			page 43


 2228      61746500 
 2229              	.LASF35:
 2230 0364 705F7072 		.ascii	"p_preempt\000"
 2230      65656D70 
 2230      7400
 2231              	.LASF94:
 2232 036e 63665F6F 		.ascii	"cf_off_time\000"
 2232      66665F74 
 2232      696D6500 
 2233              	.LASF61:
 2234 037a 725F7072 		.ascii	"r_prio\000"
 2234      696F00
 2235              	.LASF74:
 2236 0381 65776D61 		.ascii	"ewmask\000"
 2236      736B00
 2237              	.LASF25:
 2238 0388 705F6E65 		.ascii	"p_next\000"
 2238      787400
 2239              	.LASF93:
 2240 038f 63665F6F 		.ascii	"cf_off_preempt\000"
 2240      66665F70 
 2240      7265656D 
 2240      707400
 2241              	.LASF33:
 2242 039e 705F666C 		.ascii	"p_flags\000"
 2242      61677300 
 2243              	.LASF24:
 2244 03a6 54687265 		.ascii	"Thread\000"
 2244      616400
 2245              	.LASF86:
 2246 03ad 63665F6F 		.ascii	"cf_off_newer\000"
 2246      66665F6E 
 2246      65776572 
 2246      00
 2247              	.LASF40:
 2248 03ba 705F6570 		.ascii	"p_epending\000"
 2248      656E6469 
 2248      6E6700
 2249              	.LASF10:
 2250 03c5 75696E74 		.ascii	"uint32_t\000"
 2250      33325F74 
 2250      00
 2251              	.LASF84:
 2252 03ce 63665F6F 		.ascii	"cf_off_prio\000"
 2252      66665F70 
 2252      72696F00 
 2253              	.LASF60:
 2254 03da 725F7175 		.ascii	"r_queue\000"
 2254      65756500 
 2255              	.LASF52:
 2256 03e2 56697274 		.ascii	"VirtualTimer\000"
 2256      75616C54 
 2256      696D6572 
 2256      00
 2257              	.LASF75:
 2258 03ef 63686172 		.ascii	"char\000"
 2258      00
ARM GAS  C:\Users\srich\AppData\Local\Temp\ccQ87DuB.s 			page 44


 2259              	.LASF70:
 2260 03f4 6D5F6E65 		.ascii	"m_next\000"
 2260      787400
 2261              	.LASF23:
 2262 03fb 73797374 		.ascii	"systime_t\000"
 2262      696D655F 
 2262      7400
 2263              	.LASF42:
 2264 0405 705F7265 		.ascii	"p_realprio\000"
 2264      616C7072 
 2264      696F00
 2265              	.LASF51:
 2266 0410 76746675 		.ascii	"vtfunc_t\000"
 2266      6E635F74 
 2266      00
 2267              	.LASF106:
 2268 0419 5F76745F 		.ascii	"_vt_init\000"
 2268      696E6974 
 2268      00
 2269              	.LASF36:
 2270 0422 705F7469 		.ascii	"p_time\000"
 2270      6D6500
 2271              	.LASF48:
 2272 0429 696E7463 		.ascii	"intctx\000"
 2272      747800
 2273              	.LASF38:
 2274 0430 705F6D73 		.ascii	"p_msgqueue\000"
 2274      67717565 
 2274      756500
 2275              	.LASF57:
 2276 043b 76745F70 		.ascii	"vt_par\000"
 2276      617200
 2277              	.LASF85:
 2278 0442 63665F6F 		.ascii	"cf_off_ctx\000"
 2278      66665F63 
 2278      747800
 2279              	.LASF34:
 2280 044d 705F7265 		.ascii	"p_refs\000"
 2280      667300
 2281              	.LASF66:
 2282 0454 52656164 		.ascii	"ReadyList\000"
 2282      794C6973 
 2282      7400
 2283              	.LASF112:
 2284 045e 63685468 		.ascii	"chThdCreateStatic\000"
 2284      64437265 
 2284      61746553 
 2284      74617469 
 2284      6300
 2285              	.LASF101:
 2286 0470 726C6973 		.ascii	"rlist\000"
 2286      7400
 2287              	.LASF3:
 2288 0476 75696E74 		.ascii	"uint8_t\000"
 2288      385F7400 
 2289              	.LASF104:
 2290 047e 5F706F72 		.ascii	"_port_init\000"
ARM GAS  C:\Users\srich\AppData\Local\Temp\ccQ87DuB.s 			page 45


 2290      745F696E 
 2290      697400
 2291              	.LASF73:
 2292 0489 77746F62 		.ascii	"wtobjp\000"
 2292      6A7000
 2293              	.LASF31:
 2294 0490 705F6E61 		.ascii	"p_name\000"
 2294      6D6500
 2295              	.LASF58:
 2296 0497 76745F73 		.ascii	"vt_systime\000"
 2296      79737469 
 2296      6D6500
 2297              	.LASF80:
 2298 04a2 63685F76 		.ascii	"ch_version\000"
 2298      65727369 
 2298      6F6E00
 2299              	.LASF59:
 2300 04ad 56544C69 		.ascii	"VTList\000"
 2300      737400
 2301              	.LASF69:
 2302 04b4 6D5F6F77 		.ascii	"m_owner\000"
 2302      6E657200 
 2303              	.LASF28:
 2304 04bc 705F6374 		.ascii	"p_ctx\000"
 2304      7800
 2305              	.LASF37:
 2306 04c2 705F7761 		.ascii	"p_waiting\000"
 2306      6974696E 
 2306      6700
 2307              		.ident	"GCC: (GNU Tools for ARM Embedded Processors) 4.7.4 20140401 (release) [ARM/embedded-4_7-br
ARM GAS  C:\Users\srich\AppData\Local\Temp\ccQ87DuB.s 			page 46


DEFINED SYMBOLS
                            *ABS*:00000000 chsys.c
C:\Users\srich\AppData\Local\Temp\ccQ87DuB.s:19     .text._idle_thread:00000000 $t
C:\Users\srich\AppData\Local\Temp\ccQ87DuB.s:25     .text._idle_thread:00000000 _idle_thread
C:\Users\srich\AppData\Local\Temp\ccQ87DuB.s:45     .text._idle_thread:0000000c $d
C:\Users\srich\AppData\Local\Temp\ccQ87DuB.s:51     .text.chSysInit:00000000 $t
C:\Users\srich\AppData\Local\Temp\ccQ87DuB.s:57     .text.chSysInit:00000000 chSysInit
C:\Users\srich\AppData\Local\Temp\ccQ87DuB.s:233    .bss.mainthread.4773:00000000 .LANCHOR0
C:\Users\srich\AppData\Local\Temp\ccQ87DuB.s:244    .bss._idle_thread_wa:00000000 .LANCHOR1
C:\Users\srich\AppData\Local\Temp\ccQ87DuB.s:132    .text.chSysTimerHandlerI:00000000 $t
C:\Users\srich\AppData\Local\Temp\ccQ87DuB.s:138    .text.chSysTimerHandlerI:00000000 chSysTimerHandlerI
C:\Users\srich\AppData\Local\Temp\ccQ87DuB.s:224    .text.chSysTimerHandlerI:00000050 $d
C:\Users\srich\AppData\Local\Temp\ccQ87DuB.s:247    .bss._idle_thread_wa:00000000 _idle_thread_wa
C:\Users\srich\AppData\Local\Temp\ccQ87DuB.s:232    .bss.mainthread.4773:00000000 $d
C:\Users\srich\AppData\Local\Temp\ccQ87DuB.s:236    .bss.mainthread.4773:00000000 mainthread.4773
C:\Users\srich\AppData\Local\Temp\ccQ87DuB.s:239    .rodata.str1.4:00000000 $d
C:\Users\srich\AppData\Local\Temp\ccQ87DuB.s:243    .bss._idle_thread_wa:00000000 $d
                     .debug_frame:00000010 $d
C:\Users\srich\AppData\Local\Temp\ccQ87DuB.s:50     .text._idle_thread:00000014 $t
C:\Users\srich\AppData\Local\Temp\ccQ87DuB.s:231    .text.chSysTimerHandlerI:00000058 $t

UNDEFINED SYMBOLS
rlist
_port_init
_scheduler_init
_vt_init
_core_init
_heap_init
_thread_init
ch_debug
chThdCreateStatic
vtlist
