ARM GAS  C:\Users\srich\AppData\Local\Temp\ccQ87DuB.s 			page 1


   1              		.syntax unified
   2              		.cpu cortex-m4
   3              		.fpu softvfp
   4              		.eabi_attribute 20, 1
   5              		.eabi_attribute 21, 1
   6              		.eabi_attribute 23, 3
   7              		.eabi_attribute 24, 1
   8              		.eabi_attribute 25, 1
   9              		.eabi_attribute 26, 1
  10              		.eabi_attribute 30, 2
  11              		.eabi_attribute 34, 1
  12              		.eabi_attribute 18, 4
  13              		.thumb
  14              		.file	"chsys.c"
  15              		.text
  16              	.Ltext0:
  17              		.cfi_sections	.debug_frame
  18              		.section	.text._idle_thread,"ax",%progbits
  19              		.align	2
  20              		.p2align 4,,15
  21              		.global	_idle_thread
  22              		.thumb
  23              		.thumb_func
  24              		.type	_idle_thread, %function
  25              	_idle_thread:
  26              	.LFB7:
  27              		.file 1 "c:\\ChibiStudio\\chibios/os/kernel/src/chsys.c"
  28              		.loc 1 61 0
  29              		.cfi_startproc
  30              		@ args = 0, pretend = 0, frame = 0
  31              		@ frame_needed = 0, uses_anonymous_args = 0
  32              		@ link register save eliminated.
  33              	.LVL0:
  34              		.loc 1 64 0
  35 0000 024B     		ldr	r3, .L4
  36 0002 034A     		ldr	r2, .L4+4
  37 0004 9869     		ldr	r0, [r3, #24]
  38              	.LVL1:
  39 0006 8261     		str	r2, [r0, #24]
  40              	.L2:
  41 0008 FEE7     		b	.L2
  42              	.L5:
  43 000a 00BF     		.align	2
  44              	.L4:
  45 000c 00000000 		.word	rlist
  46 0010 00000000 		.word	.LC0
  47              		.cfi_endproc
  48              	.LFE7:
  49              		.size	_idle_thread, .-_idle_thread
  50 0014 AFF30080 		.section	.text.chSysInit,"ax",%progbits
  50      AFF30080 
  50      AFF30080 
  51              		.align	2
  52              		.p2align 4,,15
  53              		.global	chSysInit
  54              		.thumb
  55              		.thumb_func
ARM GAS  C:\Users\srich\AppData\Local\Temp\ccQ87DuB.s 			page 2


  56              		.type	chSysInit, %function
  57              	chSysInit:
  58              	.LFB8:
  59              		.loc 1 84 0
  60              		.cfi_startproc
  61              		@ args = 0, pretend = 0, frame = 0
  62              		@ frame_needed = 0, uses_anonymous_args = 0
  63 0000 00B5     		push	{lr}
  64              	.LCFI0:
  65              		.cfi_def_cfa_offset 4
  66              		.cfi_offset 14, -4
  67 0002 83B0     		sub	sp, sp, #12
  68              	.LCFI1:
  69              		.cfi_def_cfa_offset 16
  70              		.loc 1 90 0
  71 0004 FFF7FEFF 		bl	_port_init
  72              	.LVL2:
  73              		.loc 1 91 0
  74 0008 FFF7FEFF 		bl	_scheduler_init
  75              	.LVL3:
  76              		.loc 1 92 0
  77 000c FFF7FEFF 		bl	_vt_init
  78              	.LVL4:
  79              		.loc 1 94 0
  80 0010 FFF7FEFF 		bl	_core_init
  81              	.LVL5:
  82              		.loc 1 97 0
  83 0014 FFF7FEFF 		bl	_heap_init
  84              	.LVL6:
  85              		.loc 1 104 0
  86 0018 40F20000 		movw	r0, #:lower16:.LANCHOR0
  87 001c 4021     		movs	r1, #64
  88 001e C0F20000 		movt	r0, #:upper16:.LANCHOR0
  89 0022 FFF7FEFF 		bl	_thread_init
  90              	.LVL7:
  91 0026 40F20001 		movw	r1, #:lower16:rlist
  92 002a C0F20001 		movt	r1, #:upper16:rlist
  93              		.loc 1 105 0
  94 002e 0122     		movs	r2, #1
  95              		.loc 1 104 0
  96 0030 8861     		str	r0, [r1, #24]
  97              		.loc 1 105 0
  98 0032 0277     		strb	r2, [r0, #28]
  99              	.LBB2:
 100              		.loc 1 111 0
 101 0034 0023     		movs	r3, #0
 102              	.LVL8:
 103              	@ 111 "c:\ChibiStudio\chibios/os/kernel/src/chsys.c" 1
 104 0036 83F31188 		msr     BASEPRI, r3                    
 105 003a 62B6     		cpsie   i
 106              	@ 0 "" 2
 107              	.LVL9:
 108              		.thumb
 109              	.LBE2:
 110              		.loc 1 115 0
 111 003c 40F20000 		movw	r0, #:lower16:ch_debug
 112 0040 8969     		ldr	r1, [r1, #24]
ARM GAS  C:\Users\srich\AppData\Local\Temp\ccQ87DuB.s 			page 3


 113 0042 C0F20000 		movt	r0, #:upper16:ch_debug
 114 0046 8861     		str	r0, [r1, #24]
 115              		.loc 1 121 0
 116 0048 0093     		str	r3, [sp, #0]
 117 004a 40F20000 		movw	r0, #:lower16:.LANCHOR1
 118 004e 40F20003 		movw	r3, #:lower16:_idle_thread
 119              	.LVL10:
 120 0052 E021     		movs	r1, #224
 121 0054 C0F20003 		movt	r3, #:upper16:_idle_thread
 122 0058 C0F20000 		movt	r0, #:upper16:.LANCHOR1
 123 005c FFF7FEFF 		bl	chThdCreateStatic
 124              	.LVL11:
 125              		.loc 1 124 0
 126 0060 03B0     		add	sp, sp, #12
 127 0062 00BD     		pop	{pc}
 128              		.cfi_endproc
 129              	.LFE8:
 130              		.size	chSysInit, .-chSysInit
 131 0064 AFF30080 		.section	.text.chSysTimerHandlerI,"ax",%progbits
 131      AFF30080 
 131      AFF30080 
 132              		.align	2
 133              		.p2align 4,,15
 134              		.global	chSysTimerHandlerI
 135              		.thumb
 136              		.thumb_func
 137              		.type	chSysTimerHandlerI, %function
 138              	chSysTimerHandlerI:
 139              	.LFB9:
 140              		.loc 1 137 0
 141              		.cfi_startproc
 142              		@ args = 0, pretend = 0, frame = 0
 143              		@ frame_needed = 0, uses_anonymous_args = 0
 144 0000 38B5     		push	{r3, r4, r5, lr}
 145              	.LCFI2:
 146              		.cfi_def_cfa_offset 16
 147              		.cfi_offset 3, -16
 148              		.cfi_offset 4, -12
 149              		.cfi_offset 5, -8
 150              		.cfi_offset 14, -4
 151              		.loc 1 143 0
 152 0002 134B     		ldr	r3, .L20
 153 0004 9869     		ldr	r0, [r3, #24]
 154 0006 C27F     		ldrb	r2, [r0, #31]	@ zero_extendqisi2
 155 0008 0AB1     		cbz	r2, .L8
 156              		.loc 1 145 0
 157 000a 511E     		subs	r1, r2, #1
 158 000c C177     		strb	r1, [r0, #31]
 159              	.L8:
 160              		.loc 1 148 0
 161 000e 036A     		ldr	r3, [r0, #32]
 162              		.loc 1 150 0
 163 0010 104C     		ldr	r4, .L20+4
 164              		.loc 1 148 0
 165 0012 5A1C     		adds	r2, r3, #1
 166 0014 0262     		str	r2, [r0, #32]
 167              		.loc 1 150 0
ARM GAS  C:\Users\srich\AppData\Local\Temp\ccQ87DuB.s 			page 4


 168 0016 E068     		ldr	r0, [r4, #12]
 169 0018 2268     		ldr	r2, [r4, #0]
 170 001a 411C     		adds	r1, r0, #1
 171 001c A242     		cmp	r2, r4
 172 001e E160     		str	r1, [r4, #12]
 173 0020 14D0     		beq	.L7
 174              	.LBB3:
 175              		.loc 1 150 0 is_stmt 0 discriminator 1
 176 0022 9568     		ldr	r5, [r2, #8]
 177 0024 013D     		subs	r5, r5, #1
 178 0026 9560     		str	r5, [r2, #8]
 179              	.LVL12:
 180 0028 85B9     		cbnz	r5, .L7
 181              	.LVL13:
 182              	.L16:
 183              	.LBB4:
 184              		.loc 1 150 0 discriminator 3
 185 002a 1368     		ldr	r3, [r2, #0]
 186              	.LVL14:
 187 002c D168     		ldr	r1, [r2, #12]
 188              	.LVL15:
 189 002e 5C60     		str	r4, [r3, #4]
 190 0030 2360     		str	r3, [r4, #0]
 191 0032 D560     		str	r5, [r2, #12]
 192              	.LBB5:
 193 0034 0023     		movs	r3, #0
 194              	.LVL16:
 195              	@ 150 "c:\ChibiStudio\chibios/os/kernel/src/chsys.c" 1
 196 0036 83F31188 		msr     BASEPRI, r3
 197              	@ 0 "" 2
 198              	.LVL17:
 199              		.thumb
 200              	.LBE5:
 201 003a 1069     		ldr	r0, [r2, #16]
 202 003c 8847     		blx	r1
 203              	.LVL18:
 204              	.LBB6:
 205 003e 2023     		movs	r3, #32
 206              	@ 150 "c:\ChibiStudio\chibios/os/kernel/src/chsys.c" 1
 207 0040 83F31188 		msr     BASEPRI, r3
 208              	@ 0 "" 2
 209              	.LVL19:
 210              		.thumb
 211              	.LBE6:
 212              	.LBE4:
 213 0044 2268     		ldr	r2, [r4, #0]
 214              	.LVL20:
 215 0046 9068     		ldr	r0, [r2, #8]
 216 0048 0028     		cmp	r0, #0
 217 004a EED0     		beq	.L16
 218              	.LVL21:
 219              	.L7:
 220 004c 38BD     		pop	{r3, r4, r5, pc}
 221              	.L21:
 222 004e 00BF     		.align	2
 223              	.L20:
 224 0050 00000000 		.word	rlist
ARM GAS  C:\Users\srich\AppData\Local\Temp\ccQ87DuB.s 			page 5


 225 0054 00000000 		.word	vtlist
 226              	.LBE3:
 227              		.cfi_endproc
 228              	.LFE9:
 229              		.size	chSysTimerHandlerI, .-chSysTimerHandlerI
 230              		.global	_idle_thread_wa
 231 0058 AFF30080 		.section	.bss.mainthread.4773,"aw",%nobits
 231      AFF30080 
 232              		.align	2
 233              		.set	.LANCHOR0,. + 0
 234              		.type	mainthread.4773, %object
 235              		.size	mainthread.4773, 72
 236              	mainthread.4773:
 237 0000 00000000 		.space	72
 237      00000000 
 237      00000000 
 237      00000000 
 237      00000000 
 238              		.section	.rodata.str1.4,"aMS",%progbits,1
 239              		.align	2
 240              	.LC0:
 241 0000 69646C65 		.ascii	"idle\000"
 241      00
 242 0005 000000   		.section	.bss._idle_thread_wa,"aw",%nobits
 243              		.align	3
 244              		.set	.LANCHOR1,. + 0
 245              		.type	_idle_thread_wa, %object
 246              		.size	_idle_thread_wa, 224
 247              	_idle_thread_wa:
 248 0000 00000000 		.space	224
 248      00000000 
 248      00000000 
 248      00000000 
 248      00000000 
 249              		.text
 250              	.Letext0:
 251              		.file 2 "c:\\chibistudio\\tools\\gnu tools arm embedded\\4.7 2014q2\\bin\\../lib/gcc/arm-none-eabi
 252              		.file 3 "c:\\chibistudio\\tools\\gnu tools arm embedded\\4.7 2014q2\\bin\\../lib/gcc/arm-none-eabi
 253              		.file 4 "c:\\ChibiStudio\\chibios/os/ports/GCC/ARMCMx/chtypes.h"
 254              		.file 5 "c:\\ChibiStudio\\chibios/os/kernel/include/chlists.h"
 255              		.file 6 "c:\\ChibiStudio\\chibios/os/kernel/include/chthreads.h"
 256              		.file 7 "c:\\ChibiStudio\\chibios/os/ports/GCC/ARMCMx/chcore_v7m.h"
 257              		.file 8 "c:\\ChibiStudio\\chibios/os/kernel/include/chvt.h"
 258              		.file 9 "c:\\ChibiStudio\\chibios/os/kernel/include/chschd.h"
 259              		.file 10 "c:\\ChibiStudio\\chibios/os/kernel/include/chmtx.h"
 260              		.file 11 "c:\\ChibiStudio\\chibios/os/kernel/include/chregistry.h"
 261              		.file 12 "c:\\ChibiStudio\\chibios/os/kernel/include/chmemcore.h"
 262              		.file 13 "c:\\ChibiStudio\\chibios/os/kernel/include/chheap.h"