ARM GAS  C:\Users\DNIEL~1\AppData\Local\Temp\ccsHMJp3.s 			page 1


   1              		.syntax unified
   2              		.cpu cortex-m4
   3              		.fpu softvfp
   4              		.eabi_attribute 20, 1
   5              		.eabi_attribute 21, 1
   6              		.eabi_attribute 23, 3
   7              		.eabi_attribute 24, 1
   8              		.eabi_attribute 25, 1
   9              		.eabi_attribute 26, 1
  10              		.eabi_attribute 30, 2
  11              		.eabi_attribute 18, 4
  12              		.thumb
  13              		.file	"console.c"
  14              		.section	.debug_abbrev,"",%progbits
  15              	.Ldebug_abbrev0:
  16              		.section	.debug_info,"",%progbits
  17              	.Ldebug_info0:
  18              		.section	.debug_line,"",%progbits
  19              	.Ldebug_line0:
  20 0000 17040000 		.text
  20      02001503 
  20      00000201 
  20      FB0E0D00 
  20      01010101 
  21              	.Ltext0:
  22              		.cfi_sections	.debug_frame
  23              		.section	.text.chprintf,"ax",%progbits
  24              		.align	2
  25              		.p2align 4,,15
  26              		.thumb
  27              		.thumb_func
  28              		.type	chprintf, %function
  29              	chprintf:
  30              	.LFB118:
  31              		.file 1 "../../../Chibios/os/various/chprintf.h"
  32              		.loc 1 69 0
  33              		.cfi_startproc
  34              		@ args = 4, pretend = 12, frame = 8
  35              		@ frame_needed = 0, uses_anonymous_args = 1
  36              	.LVL0:
  37 0000 0EB4     		push	{r1, r2, r3}
  38              	.LCFI0:
  39              		.cfi_def_cfa_offset 12
  40 0002 00B5     		push	{lr}
  41              	.LCFI1:
  42              		.cfi_def_cfa_offset 16
  43 0004 82B0     		sub	sp, sp, #8
  44              	.LCFI2:
  45              		.cfi_def_cfa_offset 24
  46              		.loc 1 69 0
  47 0006 03AB     		add	r3, sp, #12
  48              		.cfi_offset 14, -16
  49              		.cfi_offset 3, -4
  50              		.cfi_offset 2, -8
  51              		.cfi_offset 1, -12
  52 0008 53F8041B 		ldr	r1, [r3], #4
  53              		.loc 1 73 0
ARM GAS  C:\Users\DNIEL~1\AppData\Local\Temp\ccsHMJp3.s 			page 2


  54 000c 1A46     		mov	r2, r3
  55              		.loc 1 72 0
  56 000e 0193     		str	r3, [sp, #4]
  57              		.loc 1 73 0
  58 0010 FFF7FEFF 		bl	chvprintf
  59              	.LVL1:
  60              		.loc 1 75 0
  61 0014 02B0     		add	sp, sp, #8
  62 0016 5DF804EB 		pop	{lr}
  63 001a 03B0     		add	sp, sp, #12
  64 001c 7047     		bx	lr
  65              		.cfi_endproc
  66              	.LFE118:
  67              		.size	chprintf, .-chprintf
  68 001e 00BF     		.section	.text.cmd_test,"ax",%progbits
  69              		.align	2
  70              		.p2align 4,,15
  71              		.global	cmd_test
  72              		.thumb
  73              		.thumb_func
  74              		.type	cmd_test, %function
  75              	cmd_test:
  76              	.LFB126:
  77              		.file 2 "src/console.c"
  78              		.loc 2 122 0
  79              		.cfi_startproc
  80              		@ args = 0, pretend = 0, frame = 0
  81              		@ frame_needed = 0, uses_anonymous_args = 0
  82              	.LVL2:
  83 0000 10B5     		push	{r4, lr}
  84              	.LCFI3:
  85              		.cfi_def_cfa_offset 8
  86              		.loc 2 126 0
  87 0002 0029     		cmp	r1, #0
  88              		.loc 2 122 0
  89 0004 82B0     		sub	sp, sp, #8
  90              	.LCFI4:
  91              		.cfi_def_cfa_offset 16
  92              		.loc 2 122 0
  93 0006 0446     		mov	r4, r0
  94              		.cfi_offset 14, -4
  95              		.cfi_offset 4, -8
  96              		.loc 2 126 0
  97 0008 05DD     		ble	.L3
  98              		.loc 2 127 0
  99 000a 0E49     		ldr	r1, .L7
 100              	.LVL3:
 101              		.loc 2 137 0
 102 000c 02B0     		add	sp, sp, #8
 103 000e BDE81040 		pop	{r4, lr}
 104              		.loc 2 127 0
 105 0012 FFF7FEBF 		b	chprintf
 106              	.LVL4:
 107              	.L3:
 108              		.loc 2 130 0
 109 0016 0C49     		ldr	r1, .L7+4
 110              	.LVL5:
ARM GAS  C:\Users\DNIEL~1\AppData\Local\Temp\ccsHMJp3.s 			page 3


 111 0018 0C4B     		ldr	r3, .L7+8
 112 001a 8A69     		ldr	r2, [r1, #24]
 113              	.LVL6:
 114 001c 4FF4E871 		mov	r1, #464
 115 0020 9268     		ldr	r2, [r2, #8]
 116 0022 0090     		str	r0, [sp, #0]
 117 0024 0020     		movs	r0, #0
 118 0026 FFF7FEFF 		bl	chThdCreateFromHeap
 119              	.LVL7:
 120              		.loc 2 132 0
 121 002a 20B1     		cbz	r0, .L6
 122              		.loc 2 137 0
 123 002c 02B0     		add	sp, sp, #8
 124 002e BDE81040 		pop	{r4, lr}
 125              		.loc 2 136 0
 126 0032 FFF7FEBF 		b	chThdWait
 127              	.LVL8:
 128              	.L6:
 129              		.loc 2 133 0
 130 0036 0649     		ldr	r1, .L7+12
 131 0038 2046     		mov	r0, r4
 132              	.LVL9:
 133              		.loc 2 137 0
 134 003a 02B0     		add	sp, sp, #8
 135 003c BDE81040 		pop	{r4, lr}
 136              		.loc 2 133 0
 137 0040 FFF7FEBF 		b	chprintf
 138              	.L8:
 139              		.align	2
 140              	.L7:
 141 0044 00000000 		.word	.LC0
 142 0048 00000000 		.word	rlist
 143 004c 00000000 		.word	TestThread
 144 0050 10000000 		.word	.LC1
 145              		.cfi_endproc
 146              	.LFE126:
 147              		.size	cmd_test, .-cmd_test
 148 0054 AFF30080 		.section	.text.cmd_threads,"ax",%progbits
 148      AFF30080 
 148      AFF30080 
 149              		.align	2
 150              		.p2align 4,,15
 151              		.global	cmd_threads
 152              		.thumb
 153              		.thumb_func
 154              		.type	cmd_threads, %function
 155              	cmd_threads:
 156              	.LFB125:
 157              		.loc 2 102 0
 158              		.cfi_startproc
 159              		@ args = 0, pretend = 0, frame = 0
 160              		@ frame_needed = 0, uses_anonymous_args = 0
 161              	.LVL10:
 162 0000 F0B5     		push	{r4, r5, r6, r7, lr}
 163              	.LCFI5:
 164              		.cfi_def_cfa_offset 20
 165              		.loc 2 107 0
ARM GAS  C:\Users\DNIEL~1\AppData\Local\Temp\ccsHMJp3.s 			page 4


 166 0002 0029     		cmp	r1, #0
 167              		.loc 2 102 0
 168 0004 85B0     		sub	sp, sp, #20
 169              	.LCFI6:
 170              		.cfi_def_cfa_offset 40
 171              		.loc 2 102 0
 172 0006 0546     		mov	r5, r0
 173              		.cfi_offset 14, -4
 174              		.cfi_offset 7, -8
 175              		.cfi_offset 6, -12
 176              		.cfi_offset 5, -16
 177              		.cfi_offset 4, -20
 178              		.loc 2 107 0
 179 0008 05DD     		ble	.L10
 180              		.loc 2 108 0
 181 000a 1349     		ldr	r1, .L13
 182              	.LVL11:
 183              		.loc 2 120 0
 184 000c 05B0     		add	sp, sp, #20
 185 000e BDE8F040 		pop	{r4, r5, r6, r7, lr}
 186              		.loc 2 108 0
 187 0012 FFF7FEBF 		b	chprintf
 188              	.LVL12:
 189              	.L10:
 190              		.loc 2 111 0
 191 0016 1149     		ldr	r1, .L13+4
 192              	.LVL13:
 193 0018 114E     		ldr	r6, .L13+8
 194 001a FFF7FEFF 		bl	chprintf
 195              	.LVL14:
 196              		.loc 2 112 0
 197 001e FFF7FEFF 		bl	chRegFirstThread
 198 0022 0446     		mov	r4, r0
 199              	.LVL15:
 200              	.L11:
 201              		.loc 2 114 0 discriminator 1
 202 0024 A168     		ldr	r1, [r4, #8]
 203 0026 E368     		ldr	r3, [r4, #12]
 204 0028 206A     		ldr	r0, [r4, #32]
 205              	.LVL16:
 206 002a 0091     		str	r1, [sp, #0]
 207              		.loc 2 116 0 discriminator 1
 208 002c A27F     		ldrb	r2, [r4, #30]	@ zero_extendqisi2
 209              		.loc 2 114 0 discriminator 1
 210 002e 0D49     		ldr	r1, .L13+12
 211              		.loc 2 116 0 discriminator 1
 212 0030 571E     		subs	r7, r2, #1
 213              		.loc 2 114 0 discriminator 1
 214 0032 0197     		str	r7, [sp, #4]
 215 0034 227F     		ldrb	r2, [r4, #28]	@ zero_extendqisi2
 216 0036 0390     		str	r0, [sp, #12]
 217 0038 56F82270 		ldr	r7, [r6, r2, lsl #2]
 218 003c 2846     		mov	r0, r5
 219 003e 2246     		mov	r2, r4
 220 0040 0297     		str	r7, [sp, #8]
 221 0042 FFF7FEFF 		bl	chprintf
 222              		.loc 2 118 0 discriminator 1
ARM GAS  C:\Users\DNIEL~1\AppData\Local\Temp\ccsHMJp3.s 			page 5


 223 0046 2046     		mov	r0, r4
 224 0048 FFF7FEFF 		bl	chRegNextThread
 225              	.LVL17:
 226              		.loc 2 119 0 discriminator 1
 227 004c 0446     		mov	r4, r0
 228 004e 0028     		cmp	r0, #0
 229 0050 E8D1     		bne	.L11
 230              		.loc 2 120 0
 231 0052 05B0     		add	sp, sp, #20
 232 0054 F0BD     		pop	{r4, r5, r6, r7, pc}
 233              	.L14:
 234 0056 00BF     		.align	2
 235              	.L13:
 236 0058 20000000 		.word	.LC2
 237 005c 34000000 		.word	.LC3
 238 0060 00000000 		.word	.LANCHOR0
 239 0064 64000000 		.word	.LC4
 240              		.cfi_endproc
 241              	.LFE125:
 242              		.size	cmd_threads, .-cmd_threads
 243 0068 AFF30080 		.section	.text.cmd_mem,"ax",%progbits
 243      AFF30080 
 244              		.align	2
 245              		.p2align 4,,15
 246              		.global	cmd_mem
 247              		.thumb
 248              		.thumb_func
 249              		.type	cmd_mem, %function
 250              	cmd_mem:
 251              	.LFB124:
 252              		.loc 2 88 0
 253              		.cfi_startproc
 254              		@ args = 0, pretend = 0, frame = 8
 255              		@ frame_needed = 0, uses_anonymous_args = 0
 256              	.LVL18:
 257 0000 30B5     		push	{r4, r5, lr}
 258              	.LCFI7:
 259              		.cfi_def_cfa_offset 12
 260              		.loc 2 92 0
 261 0002 0029     		cmp	r1, #0
 262              		.loc 2 88 0
 263 0004 83B0     		sub	sp, sp, #12
 264              	.LCFI8:
 265              		.cfi_def_cfa_offset 24
 266              		.loc 2 88 0
 267 0006 0446     		mov	r4, r0
 268              		.cfi_offset 14, -4
 269              		.cfi_offset 5, -8
 270              		.cfi_offset 4, -12
 271              		.loc 2 92 0
 272 0008 04DD     		ble	.L16
 273              		.loc 2 93 0
 274 000a 0E49     		ldr	r1, .L18
 275              	.LVL19:
 276 000c FFF7FEFF 		bl	chprintf
 277              	.LVL20:
 278              	.L15:
ARM GAS  C:\Users\DNIEL~1\AppData\Local\Temp\ccsHMJp3.s 			page 6


 279              		.loc 2 100 0
 280 0010 03B0     		add	sp, sp, #12
 281 0012 30BD     		pop	{r4, r5, pc}
 282              	.LVL21:
 283              	.L16:
 284              		.loc 2 96 0
 285 0014 01A9     		add	r1, sp, #4
 286              	.LVL22:
 287 0016 0020     		movs	r0, #0
 288 0018 FFF7FEFF 		bl	chHeapStatus
 289              	.LVL23:
 290 001c 0546     		mov	r5, r0
 291              	.LVL24:
 292              		.loc 2 97 0
 293 001e FFF7FEFF 		bl	chCoreStatus
 294              	.LVL25:
 295 0022 0949     		ldr	r1, .L18+4
 296 0024 0246     		mov	r2, r0
 297 0026 2046     		mov	r0, r4
 298 0028 FFF7FEFF 		bl	chprintf
 299              		.loc 2 98 0
 300 002c 2046     		mov	r0, r4
 301 002e 2A46     		mov	r2, r5
 302 0030 0649     		ldr	r1, .L18+8
 303 0032 FFF7FEFF 		bl	chprintf
 304              		.loc 2 99 0
 305 0036 2046     		mov	r0, r4
 306 0038 0549     		ldr	r1, .L18+12
 307              	.LVL26:
 308 003a 019A     		ldr	r2, [sp, #4]
 309 003c FFF7FEFF 		bl	chprintf
 310 0040 E6E7     		b	.L15
 311              	.L19:
 312 0042 00BF     		.align	2
 313              	.L18:
 314 0044 84000000 		.word	.LC5
 315 0048 94000000 		.word	.LC6
 316 004c B4000000 		.word	.LC7
 317 0050 CC000000 		.word	.LC8
 318              		.cfi_endproc
 319              	.LFE124:
 320              		.size	cmd_mem, .-cmd_mem
 321 0054 AFF30080 		.section	.text._getpid,"ax",%progbits
 321      AFF30080 
 321      AFF30080 
 322              		.align	2
 323              		.p2align 4,,15
 324              		.global	_getpid
 325              		.thumb
 326              		.thumb_func
 327              		.type	_getpid, %function
 328              	_getpid:
 329              	.LFB119:
 330              		.loc 2 23 0
 331              		.cfi_startproc
 332              		@ args = 0, pretend = 0, frame = 0
 333              		@ frame_needed = 0, uses_anonymous_args = 0
ARM GAS  C:\Users\DNIEL~1\AppData\Local\Temp\ccsHMJp3.s 			page 7


 334              		@ link register save eliminated.
 335              		.loc 2 23 0
 336 0000 0120     		movs	r0, #1
 337 0002 7047     		bx	lr
 338              		.cfi_endproc
 339              	.LFE119:
 340              		.size	_getpid, .-_getpid
 341 0004 AFF30080 		.section	.text._exit,"ax",%progbits
 341      AFF30080 
 341      AFF30080 
 342              		.align	2
 343              		.p2align 4,,15
 344              		.global	_exit
 345              		.thumb
 346              		.thumb_func
 347              		.type	_exit, %function
 348              	_exit:
 349              	.LFB120:
 350              		.loc 2 25 0
 351              		.cfi_startproc
 352              		@ Volatile: function does not return.
 353              		@ args = 0, pretend = 0, frame = 0
 354              		@ frame_needed = 0, uses_anonymous_args = 0
 355              		@ link register save eliminated.
 356              	.LVL27:
 357              		.loc 2 25 0
 358 0000 7047     		bx	lr
 359              		.cfi_endproc
 360              	.LFE120:
 361              		.size	_exit, .-_exit
 362 0002 00BFAFF3 		.section	.text._kill,"ax",%progbits
 362      0080AFF3 
 362      0080AFF3 
 362      0080
 363              		.align	2
 364              		.p2align 4,,15
 365              		.global	_kill
 366              		.thumb
 367              		.thumb_func
 368              		.type	_kill, %function
 369              	_kill:
 370              	.LFB121:
 371              		.loc 2 30 0
 372              		.cfi_startproc
 373              		@ args = 0, pretend = 0, frame = 0
 374              		@ frame_needed = 0, uses_anonymous_args = 0
 375              		@ link register save eliminated.
 376              	.LVL28:
 377              		.loc 2 33 0
 378 0000 024B     		ldr	r3, .L23
 379 0002 1622     		movs	r2, #22
 380 0004 1A60     		str	r2, [r3, #0]
 381              		.loc 2 35 0
 382 0006 4FF0FF30 		mov	r0, #-1
 383              	.LVL29:
 384 000a 7047     		bx	lr
 385              	.L24:
ARM GAS  C:\Users\DNIEL~1\AppData\Local\Temp\ccsHMJp3.s 			page 8


 386              		.align	2
 387              	.L23:
 388 000c 00000000 		.word	errno
 389              		.cfi_endproc
 390              	.LFE121:
 391              		.size	_kill, .-_kill
 392              		.section	.text.consoleInit,"ax",%progbits
 393              		.align	2
 394              		.p2align 4,,15
 395              		.global	consoleInit
 396              		.thumb
 397              		.thumb_func
 398              		.type	consoleInit, %function
 399              	consoleInit:
 400              	.LFB122:
 401              		.loc 2 70 0
 402              		.cfi_startproc
 403              		@ args = 0, pretend = 0, frame = 0
 404              		@ frame_needed = 0, uses_anonymous_args = 0
 405 0000 08B5     		push	{r3, lr}
 406              	.LCFI9:
 407              		.cfi_def_cfa_offset 8
 408              		.loc 2 73 0
 409 0002 0548     		ldr	r0, .L26
 410 0004 0549     		ldr	r1, .L26+4
 411              		.cfi_offset 14, -4
 412              		.cfi_offset 3, -8
 413 0006 FFF7FEFF 		bl	sdStart
 414              		.loc 2 74 0
 415 000a FFF7FEFF 		bl	shellInit
 416              		.loc 2 75 0
 417 000e 044B     		ldr	r3, .L26+8
 418 0010 0022     		movs	r2, #0
 419 0012 1A60     		str	r2, [r3, #0]
 420              		.loc 2 76 0
 421 0014 08BD     		pop	{r3, pc}
 422              	.L27:
 423 0016 00BF     		.align	2
 424              	.L26:
 425 0018 00000000 		.word	SD1
 426 001c 00000000 		.word	.LANCHOR1
 427 0020 00000000 		.word	.LANCHOR2
 428              		.cfi_endproc
 429              	.LFE122:
 430              		.size	consoleInit, .-consoleInit
 431 0024 AFF30080 		.section	.text.consoleStart,"ax",%progbits
 431      AFF30080 
 431      AFF30080 
 432              		.align	2
 433              		.p2align 4,,15
 434              		.global	consoleStart
 435              		.thumb
 436              		.thumb_func
 437              		.type	consoleStart, %function
 438              	consoleStart:
 439              	.LFB123:
 440              		.loc 2 78 0
ARM GAS  C:\Users\DNIEL~1\AppData\Local\Temp\ccsHMJp3.s 			page 9


 441              		.cfi_startproc
 442              		@ args = 0, pretend = 0, frame = 0
 443              		@ frame_needed = 0, uses_anonymous_args = 0
 444 0000 10B5     		push	{r4, lr}
 445              	.LCFI10:
 446              		.cfi_def_cfa_offset 8
 447              		.loc 2 79 0
 448 0002 0A4C     		ldr	r4, .L33
 449              		.cfi_offset 14, -4
 450              		.cfi_offset 4, -8
 451 0004 2068     		ldr	r0, [r4, #0]
 452 0006 40B1     		cbz	r0, .L31
 453              		.loc 2 82 0
 454 0008 037F     		ldrb	r3, [r0, #28]	@ zero_extendqisi2
 455 000a 0E2B     		cmp	r3, #14
 456 000c 00D0     		beq	.L32
 457 000e 10BD     		pop	{r4, pc}
 458              	.L32:
 459              		.loc 2 83 0
 460 0010 FFF7FEFF 		bl	chThdRelease
 461              		.loc 2 84 0
 462 0014 0020     		movs	r0, #0
 463 0016 2060     		str	r0, [r4, #0]
 464 0018 10BD     		pop	{r4, pc}
 465              	.L31:
 466              		.loc 2 80 0
 467 001a 0548     		ldr	r0, .L33+4
 468 001c 4FF41D61 		mov	r1, #2512
 469 0020 4022     		movs	r2, #64
 470 0022 FFF7FEFF 		bl	shellCreate
 471 0026 2060     		str	r0, [r4, #0]
 472 0028 10BD     		pop	{r4, pc}
 473              	.L34:
 474 002a 00BF     		.align	2
 475              	.L33:
 476 002c 00000000 		.word	.LANCHOR2
 477 0030 00000000 		.word	.LANCHOR3
 478              		.cfi_endproc
 479              	.LFE123:
 480              		.size	consoleStart, .-consoleStart
 481              		.global	consoleThread
 482 0034 AFF30080 		.section	.rodata.commands,"a",%progbits
 482      AFF30080 
 482      AFF30080 
 483              		.align	2
 484              		.type	commands, %object
 485              		.size	commands, 64
 486              	commands:
 487 0000 70010000 		.word	.LC24
 488 0004 00000000 		.word	cmd_mem
 489 0008 74010000 		.word	.LC25
 490 000c 00000000 		.word	cmd_threads
 491 0010 7C010000 		.word	.LC26
 492 0014 00000000 		.word	cmd_test
 493 0018 84010000 		.word	.LC27
 494 001c 00000000 		.word	cmd_can_commvalues
 495 0020 90010000 		.word	.LC28
ARM GAS  C:\Users\DNIEL~1\AppData\Local\Temp\ccsHMJp3.s 			page 10


 496 0024 00000000 		.word	cmd_one_virevalues
 497 0028 9C010000 		.word	.LC29
 498 002c 00000000 		.word	cmd_ds18b20_values
 499 0030 A4010000 		.word	.LC30
 500 0034 00000000 		.word	cmd_lightblink
 501 0038 00000000 		.word	0
 502 003c 00000000 		.word	0
 503              		.section	.bss.consoleThread,"aw",%nobits
 504              		.align	2
 505              		.set	.LANCHOR2,. + 0
 506              		.type	consoleThread, %object
 507              		.size	consoleThread, 4
 508              	consoleThread:
 509 0000 00000000 		.space	4
 510              		.section	.rodata.str1.4,"aMS",%progbits,1
 511              		.align	2
 512              	.LC0:
 513 0000 55736167 		.ascii	"Usage: test\015\012\000"
 513      653A2074 
 513      6573740D 
 513      0A00
 514 000e 0000     		.space	2
 515              	.LC1:
 516 0010 6F757420 		.ascii	"out of memory\015\012\000"
 516      6F66206D 
 516      656D6F72 
 516      790D0A00 
 517              	.LC2:
 518 0020 55736167 		.ascii	"Usage: threads\015\012\000"
 518      653A2074 
 518      68726561 
 518      64730D0A 
 518      00
 519 0031 000000   		.space	3
 520              	.LC3:
 521 0034 20202020 		.ascii	"    addr    stack prio refs     state time\015\012\000"
 521      61646472 
 521      20202020 
 521      73746163 
 521      6B207072 
 522 0061 000000   		.space	3
 523              	.LC4:
 524 0064 252E386C 		.ascii	"%.8lx %.8lx %4lu %4lu %9s %lu\015\012\000"
 524      7820252E 
 524      386C7820 
 524      25346C75 
 524      2025346C 
 525              	.LC5:
 526 0084 55736167 		.ascii	"Usage: mem\015\012\000"
 526      653A206D 
 526      656D0D0A 
 526      00
 527 0091 000000   		.space	3
 528              	.LC6:
 529 0094 636F7265 		.ascii	"core free memory : %u bytes\015\012\000"
 529      20667265 
 529      65206D65 
ARM GAS  C:\Users\DNIEL~1\AppData\Local\Temp\ccsHMJp3.s 			page 11


 529      6D6F7279 
 529      203A2025 
 530 00b2 0000     		.space	2
 531              	.LC7:
 532 00b4 68656170 		.ascii	"heap fragments   : %u\015\012\000"
 532      20667261 
 532      676D656E 
 532      74732020 
 532      203A2025 
 533              	.LC8:
 534 00cc 68656170 		.ascii	"heap free total  : %u bytes\015\012\000"
 534      20667265 
 534      6520746F 
 534      74616C20 
 534      203A2025 
 535 00ea 0000     		.space	2
 536              	.LC9:
 537 00ec 52454144 		.ascii	"READY\000"
 537      5900
 538 00f2 0000     		.space	2
 539              	.LC10:
 540 00f4 43555252 		.ascii	"CURRENT\000"
 540      454E5400 
 541              	.LC11:
 542 00fc 53555350 		.ascii	"SUSPENDED\000"
 542      454E4445 
 542      4400
 543 0106 0000     		.space	2
 544              	.LC12:
 545 0108 57545345 		.ascii	"WTSEM\000"
 545      4D00
 546 010e 0000     		.space	2
 547              	.LC13:
 548 0110 57544D54 		.ascii	"WTMTX\000"
 548      5800
 549 0116 0000     		.space	2
 550              	.LC14:
 551 0118 5754434F 		.ascii	"WTCOND\000"
 551      4E4400
 552 011f 00       		.space	1
 553              	.LC15:
 554 0120 534C4545 		.ascii	"SLEEPING\000"
 554      50494E47 
 554      00
 555 0129 000000   		.space	3
 556              	.LC16:
 557 012c 57544558 		.ascii	"WTEXIT\000"
 557      495400
 558 0133 00       		.space	1
 559              	.LC17:
 560 0134 57544F52 		.ascii	"WTOREVT\000"
 560      45565400 
 561              	.LC18:
 562 013c 5754414E 		.ascii	"WTANDEVT\000"
 562      44455654 
 562      00
 563 0145 000000   		.space	3
ARM GAS  C:\Users\DNIEL~1\AppData\Local\Temp\ccsHMJp3.s 			page 12


 564              	.LC19:
 565 0148 534E444D 		.ascii	"SNDMSGQ\000"
 565      53475100 
 566              	.LC20:
 567 0150 534E444D 		.ascii	"SNDMSG\000"
 567      534700
 568 0157 00       		.space	1
 569              	.LC21:
 570 0158 57544D53 		.ascii	"WTMSG\000"
 570      4700
 571 015e 0000     		.space	2
 572              	.LC22:
 573 0160 57545155 		.ascii	"WTQUEUE\000"
 573      45554500 
 574              	.LC23:
 575 0168 46494E41 		.ascii	"FINAL\000"
 575      4C00
 576 016e 0000     		.space	2
 577              	.LC24:
 578 0170 6D656D00 		.ascii	"mem\000"
 579              	.LC25:
 580 0174 74687265 		.ascii	"threads\000"
 580      61647300 
 581              	.LC26:
 582 017c 74657374 		.ascii	"test\000"
 582      00
 583 0181 000000   		.space	3
 584              	.LC27:
 585 0184 63616E76 		.ascii	"canvalues\000"
 585      616C7565 
 585      7300
 586 018e 0000     		.space	2
 587              	.LC28:
 588 0190 6F6E655F 		.ascii	"one_vire\000"
 588      76697265 
 588      00
 589 0199 000000   		.space	3
 590              	.LC29:
 591 019c 64733138 		.ascii	"ds18b20\000"
 591      62323000 
 592              	.LC30:
 593 01a4 6C696768 		.ascii	"light\000"
 593      7400
 594 01aa 0000     		.section	.rodata.shell_cfg1,"a",%progbits
 595              		.align	2
 596              		.set	.LANCHOR3,. + 0
 597              		.type	shell_cfg1, %object
 598              		.size	shell_cfg1, 8
 599              	shell_cfg1:
 600 0000 00000000 		.word	SD1
 601 0004 00000000 		.word	commands
 602              		.section	.data.ser_cfg,"aw",%progbits
 603              		.align	2
 604              		.set	.LANCHOR1,. + 0
 605              		.type	ser_cfg, %object
 606              		.size	ser_cfg, 12
 607              	ser_cfg:
ARM GAS  C:\Users\DNIEL~1\AppData\Local\Temp\ccsHMJp3.s 			page 13


 608 0000 00C20100 		.word	115200
 609 0004 0000     		.short	0
 610 0006 0000     		.short	0
 611 0008 0000     		.short	0
 612 000a 0000     		.space	2
 613              		.section	.rodata.states.8595,"a",%progbits
 614              		.align	2
 615              		.set	.LANCHOR0,. + 0
 616              		.type	states.8595, %object
 617              		.size	states.8595, 60
 618              	states.8595:
 619 0000 EC000000 		.word	.LC9
 620 0004 F4000000 		.word	.LC10
 621 0008 FC000000 		.word	.LC11
 622 000c 08010000 		.word	.LC12
 623 0010 10010000 		.word	.LC13
 624 0014 18010000 		.word	.LC14
 625 0018 20010000 		.word	.LC15
 626 001c 2C010000 		.word	.LC16
 627 0020 34010000 		.word	.LC17
 628 0024 3C010000 		.word	.LC18
 629 0028 48010000 		.word	.LC19
 630 002c 50010000 		.word	.LC20
 631 0030 58010000 		.word	.LC21
 632 0034 60010000 		.word	.LC22
 633 0038 68010000 		.word	.LC23
 634              		.text
 635              	.Letext0:
 636              		.section	.debug_loc,"",%progbits
 637              	.Ldebug_loc0:
 638              	.LLST0:
 639 0000 00000000 		.4byte	.LFB118
 640 0004 02000000 		.4byte	.LCFI0
 641 0008 0200     		.2byte	0x2
 642 000a 7D       		.byte	0x7d
 643 000b 00       		.sleb128 0
 644 000c 02000000 		.4byte	.LCFI0
 645 0010 04000000 		.4byte	.LCFI1
 646 0014 0200     		.2byte	0x2
 647 0016 7D       		.byte	0x7d
 648 0017 0C       		.sleb128 12
 649 0018 04000000 		.4byte	.LCFI1
 650 001c 06000000 		.4byte	.LCFI2
 651 0020 0200     		.2byte	0x2
 652 0022 7D       		.byte	0x7d
 653 0023 10       		.sleb128 16
 654 0024 06000000 		.4byte	.LCFI2
 655 0028 1E000000 		.4byte	.LFE118
 656 002c 0200     		.2byte	0x2
 657 002e 7D       		.byte	0x7d
 658 002f 18       		.sleb128 24
 659 0030 00000000 		.4byte	0x0
 660 0034 00000000 		.4byte	0x0
 661              	.LLST1:
 662 0038 00000000 		.4byte	.LVL0
 663 003c 13000000 		.4byte	.LVL1-1
 664 0040 0100     		.2byte	0x1
ARM GAS  C:\Users\DNIEL~1\AppData\Local\Temp\ccsHMJp3.s 			page 14


 665 0042 50       		.byte	0x50
 666 0043 00000000 		.4byte	0x0
 667 0047 00000000 		.4byte	0x0
 668              	.LLST2:
 669 004b 00000000 		.4byte	.LFB126
 670 004f 02000000 		.4byte	.LCFI3
 671 0053 0200     		.2byte	0x2
 672 0055 7D       		.byte	0x7d
 673 0056 00       		.sleb128 0
 674 0057 02000000 		.4byte	.LCFI3
 675 005b 06000000 		.4byte	.LCFI4
 676 005f 0200     		.2byte	0x2
 677 0061 7D       		.byte	0x7d
 678 0062 08       		.sleb128 8
 679 0063 06000000 		.4byte	.LCFI4
 680 0067 54000000 		.4byte	.LFE126
 681 006b 0200     		.2byte	0x2
 682 006d 7D       		.byte	0x7d
 683 006e 10       		.sleb128 16
 684 006f 00000000 		.4byte	0x0
 685 0073 00000000 		.4byte	0x0
 686              	.LLST3:
 687 0077 00000000 		.4byte	.LVL2
 688 007b 15000000 		.4byte	.LVL4-1
 689 007f 0100     		.2byte	0x1
 690 0081 50       		.byte	0x50
 691 0082 15000000 		.4byte	.LVL4-1
 692 0086 54000000 		.4byte	.LFE126
 693 008a 0100     		.2byte	0x1
 694 008c 54       		.byte	0x54
 695 008d 00000000 		.4byte	0x0
 696 0091 00000000 		.4byte	0x0
 697              	.LLST4:
 698 0095 00000000 		.4byte	.LVL2
 699 0099 0C000000 		.4byte	.LVL3
 700 009d 0100     		.2byte	0x1
 701 009f 51       		.byte	0x51
 702 00a0 16000000 		.4byte	.LVL4
 703 00a4 18000000 		.4byte	.LVL5
 704 00a8 0100     		.2byte	0x1
 705 00aa 51       		.byte	0x51
 706 00ab 00000000 		.4byte	0x0
 707 00af 00000000 		.4byte	0x0
 708              	.LLST5:
 709 00b3 00000000 		.4byte	.LVL2
 710 00b7 15000000 		.4byte	.LVL4-1
 711 00bb 0100     		.2byte	0x1
 712 00bd 52       		.byte	0x52
 713 00be 16000000 		.4byte	.LVL4
 714 00c2 1C000000 		.4byte	.LVL6
 715 00c6 0100     		.2byte	0x1
 716 00c8 52       		.byte	0x52
 717 00c9 00000000 		.4byte	0x0
 718 00cd 00000000 		.4byte	0x0
 719              	.LLST6:
 720 00d1 2A000000 		.4byte	.LVL7
 721 00d5 35000000 		.4byte	.LVL8-1
ARM GAS  C:\Users\DNIEL~1\AppData\Local\Temp\ccsHMJp3.s 			page 15


 722 00d9 0100     		.2byte	0x1
 723 00db 50       		.byte	0x50
 724 00dc 36000000 		.4byte	.LVL8
 725 00e0 3A000000 		.4byte	.LVL9
 726 00e4 0100     		.2byte	0x1
 727 00e6 50       		.byte	0x50
 728 00e7 00000000 		.4byte	0x0
 729 00eb 00000000 		.4byte	0x0
 730              	.LLST7:
 731 00ef 00000000 		.4byte	.LFB125
 732 00f3 02000000 		.4byte	.LCFI5
 733 00f7 0200     		.2byte	0x2
 734 00f9 7D       		.byte	0x7d
 735 00fa 00       		.sleb128 0
 736 00fb 02000000 		.4byte	.LCFI5
 737 00ff 06000000 		.4byte	.LCFI6
 738 0103 0200     		.2byte	0x2
 739 0105 7D       		.byte	0x7d
 740 0106 14       		.sleb128 20
 741 0107 06000000 		.4byte	.LCFI6
 742 010b 68000000 		.4byte	.LFE125
 743 010f 0200     		.2byte	0x2
 744 0111 7D       		.byte	0x7d
 745 0112 28       		.sleb128 40
 746 0113 00000000 		.4byte	0x0
 747 0117 00000000 		.4byte	0x0
 748              	.LLST8:
 749 011b 00000000 		.4byte	.LVL10
 750 011f 15000000 		.4byte	.LVL12-1
 751 0123 0100     		.2byte	0x1
 752 0125 50       		.byte	0x50
 753 0126 15000000 		.4byte	.LVL12-1
 754 012a 68000000 		.4byte	.LFE125
 755 012e 0100     		.2byte	0x1
 756 0130 55       		.byte	0x55
 757 0131 00000000 		.4byte	0x0
 758 0135 00000000 		.4byte	0x0
 759              	.LLST9:
 760 0139 00000000 		.4byte	.LVL10
 761 013d 0C000000 		.4byte	.LVL11
 762 0141 0100     		.2byte	0x1
 763 0143 51       		.byte	0x51
 764 0144 16000000 		.4byte	.LVL12
 765 0148 18000000 		.4byte	.LVL13
 766 014c 0100     		.2byte	0x1
 767 014e 51       		.byte	0x51
 768 014f 00000000 		.4byte	0x0
 769 0153 00000000 		.4byte	0x0
 770              	.LLST10:
 771 0157 00000000 		.4byte	.LVL10
 772 015b 15000000 		.4byte	.LVL12-1
 773 015f 0100     		.2byte	0x1
 774 0161 52       		.byte	0x52
 775 0162 16000000 		.4byte	.LVL12
 776 0166 1D000000 		.4byte	.LVL14-1
 777 016a 0100     		.2byte	0x1
 778 016c 52       		.byte	0x52
ARM GAS  C:\Users\DNIEL~1\AppData\Local\Temp\ccsHMJp3.s 			page 16


 779 016d 00000000 		.4byte	0x0
 780 0171 00000000 		.4byte	0x0
 781              	.LLST11:
 782 0175 24000000 		.4byte	.LVL15
 783 0179 2A000000 		.4byte	.LVL16
 784 017d 0100     		.2byte	0x1
 785 017f 50       		.byte	0x50
 786 0180 2A000000 		.4byte	.LVL16
 787 0184 4C000000 		.4byte	.LVL17
 788 0188 0100     		.2byte	0x1
 789 018a 54       		.byte	0x54
 790 018b 4C000000 		.4byte	.LVL17
 791 018f 68000000 		.4byte	.LFE125
 792 0193 0100     		.2byte	0x1
 793 0195 50       		.byte	0x50
 794 0196 00000000 		.4byte	0x0
 795 019a 00000000 		.4byte	0x0
 796              	.LLST12:
 797 019e 00000000 		.4byte	.LFB124
 798 01a2 02000000 		.4byte	.LCFI7
 799 01a6 0200     		.2byte	0x2
 800 01a8 7D       		.byte	0x7d
 801 01a9 00       		.sleb128 0
 802 01aa 02000000 		.4byte	.LCFI7
 803 01ae 06000000 		.4byte	.LCFI8
 804 01b2 0200     		.2byte	0x2
 805 01b4 7D       		.byte	0x7d
 806 01b5 0C       		.sleb128 12
 807 01b6 06000000 		.4byte	.LCFI8
 808 01ba 54000000 		.4byte	.LFE124
 809 01be 0200     		.2byte	0x2
 810 01c0 7D       		.byte	0x7d
 811 01c1 18       		.sleb128 24
 812 01c2 00000000 		.4byte	0x0
 813 01c6 00000000 		.4byte	0x0
 814              	.LLST13:
 815 01ca 00000000 		.4byte	.LVL18
 816 01ce 0F000000 		.4byte	.LVL20-1
 817 01d2 0100     		.2byte	0x1
 818 01d4 50       		.byte	0x50
 819 01d5 0F000000 		.4byte	.LVL20-1
 820 01d9 54000000 		.4byte	.LFE124
 821 01dd 0100     		.2byte	0x1
 822 01df 54       		.byte	0x54
 823 01e0 00000000 		.4byte	0x0
 824 01e4 00000000 		.4byte	0x0
 825              	.LLST14:
 826 01e8 00000000 		.4byte	.LVL18
 827 01ec 0C000000 		.4byte	.LVL19
 828 01f0 0100     		.2byte	0x1
 829 01f2 51       		.byte	0x51
 830 01f3 14000000 		.4byte	.LVL21
 831 01f7 16000000 		.4byte	.LVL22
 832 01fb 0100     		.2byte	0x1
 833 01fd 51       		.byte	0x51
 834 01fe 00000000 		.4byte	0x0
 835 0202 00000000 		.4byte	0x0
ARM GAS  C:\Users\DNIEL~1\AppData\Local\Temp\ccsHMJp3.s 			page 17


 836              	.LLST15:
 837 0206 00000000 		.4byte	.LVL18
 838 020a 0F000000 		.4byte	.LVL20-1
 839 020e 0100     		.2byte	0x1
 840 0210 52       		.byte	0x52
 841 0211 14000000 		.4byte	.LVL21
 842 0215 1B000000 		.4byte	.LVL23-1
 843 0219 0100     		.2byte	0x1
 844 021b 52       		.byte	0x52
 845 021c 00000000 		.4byte	0x0
 846 0220 00000000 		.4byte	0x0
 847              	.LLST16:
 848 0224 1E000000 		.4byte	.LVL24
 849 0228 21000000 		.4byte	.LVL25-1
 850 022c 0100     		.2byte	0x1
 851 022e 50       		.byte	0x50
 852 022f 21000000 		.4byte	.LVL25-1
 853 0233 54000000 		.4byte	.LFE124
 854 0237 0100     		.2byte	0x1
 855 0239 55       		.byte	0x55
 856 023a 00000000 		.4byte	0x0
 857 023e 00000000 		.4byte	0x0
 858              	.LLST17:
 859 0242 10000000 		.4byte	.LVL20
 860 0246 14000000 		.4byte	.LVL21
 861 024a 0200     		.2byte	0x2
 862 024c 91       		.byte	0x91
 863 024d 6C       		.sleb128 -20
 864 024e 3A000000 		.4byte	.LVL26
 865 0252 54000000 		.4byte	.LFE124
 866 0256 0200     		.2byte	0x2
 867 0258 91       		.byte	0x91
 868 0259 6C       		.sleb128 -20
 869 025a 00000000 		.4byte	0x0
 870 025e 00000000 		.4byte	0x0
 871              	.LLST18:
 872 0262 00000000 		.4byte	.LVL28
 873 0266 0A000000 		.4byte	.LVL29
 874 026a 0100     		.2byte	0x1
 875 026c 50       		.byte	0x50
 876 026d 00000000 		.4byte	0x0
 877 0271 00000000 		.4byte	0x0
 878              	.LLST19:
 879 0275 00000000 		.4byte	.LFB122
 880 0279 02000000 		.4byte	.LCFI9
 881 027d 0200     		.2byte	0x2
 882 027f 7D       		.byte	0x7d
 883 0280 00       		.sleb128 0
 884 0281 02000000 		.4byte	.LCFI9
 885 0285 24000000 		.4byte	.LFE122
 886 0289 0200     		.2byte	0x2
 887 028b 7D       		.byte	0x7d
 888 028c 08       		.sleb128 8
 889 028d 00000000 		.4byte	0x0
 890 0291 00000000 		.4byte	0x0
 891              	.LLST20:
 892 0295 00000000 		.4byte	.LFB123
ARM GAS  C:\Users\DNIEL~1\AppData\Local\Temp\ccsHMJp3.s 			page 18


 893 0299 02000000 		.4byte	.LCFI10
 894 029d 0200     		.2byte	0x2
 895 029f 7D       		.byte	0x7d
 896 02a0 00       		.sleb128 0
 897 02a1 02000000 		.4byte	.LCFI10
 898 02a5 34000000 		.4byte	.LFE123
 899 02a9 0200     		.2byte	0x2
 900 02ab 7D       		.byte	0x7d
 901 02ac 08       		.sleb128 8
 902 02ad 00000000 		.4byte	0x0
 903 02b1 00000000 		.4byte	0x0
 904              		.file 3 "c:\\program files (x86)\\codesourcery\\sourcery g++ lite\\bin\\../lib/gcc/arm-none-eabi/4
 905              		.file 4 "c:\\program files (x86)\\codesourcery\\sourcery g++ lite\\bin\\../lib/gcc/arm-none-eabi/4
 906              		.file 5 "../../../Chibios/os/ports/GCC/ARMCMx/chtypes.h"
 907              		.file 6 "../../../Chibios/os/kernel/include/chlists.h"
 908              		.file 7 "../../../Chibios/os/kernel/include/chthreads.h"
 909              		.file 8 "../../../Chibios/os/ports/GCC/ARMCMx/chcore_v7m.h"
 910              		.file 9 "../../../Chibios/os/kernel/include/chschd.h"
 911              		.file 10 "../../../Chibios/os/kernel/include/chmtx.h"
 912              		.file 11 "../../../Chibios/os/kernel/include/chevents.h"
 913              		.file 12 "../../../Chibios/os/kernel/include/chqueues.h"
 914              		.file 13 "../../../Chibios/os/kernel/include/chstreams.h"
 915              		.file 14 "../../../Chibios/os/hal/platforms/STM32F4xx/stm32f4xx.h"
 916              		.file 15 "../../../Chibios/os/hal/include/serial.h"
 917              		.file 16 "../../../Chibios/os/hal/platforms/STM32/USARTv1/serial_lld.h"
 918              		.file 17 "../../../Chibios/os/various/shell.h"
 919              		.file 18 "c:\\program files (x86)\\codesourcery\\sourcery g++ lite\\bin\\../lib/gcc/arm-none-eabi/
 920              		.file 19 "<built-in>"
 921              		.file 20 "../../../Chibios/os/ports/common/ARMCMx/CMSIS/include/core_cm4.h"
 922              		.section	.debug_info
 923 0000 680D0000 		.4byte	0xd68
 924 0004 0200     		.2byte	0x2
 925 0006 00000000 		.4byte	.Ldebug_abbrev0
 926 000a 04       		.byte	0x4
 927 000b 01       		.uleb128 0x1
 928 000c 74050000 		.4byte	.LASF145
 929 0010 01       		.byte	0x1
 930 0011 76020000 		.4byte	.LASF146
 931 0015 AF000000 		.4byte	.LASF147
 932 0019 00000000 		.4byte	0x0
 933 001d 00000000 		.4byte	0x0
 934 0021 00000000 		.4byte	.Ldebug_ranges0+0x0
 935 0025 00000000 		.4byte	.Ldebug_line0
 936 0029 02       		.uleb128 0x2
 937 002a 01       		.byte	0x1
 938 002b 06       		.byte	0x6
 939 002c A3000000 		.4byte	.LASF0
 940 0030 02       		.uleb128 0x2
 941 0031 01       		.byte	0x1
 942 0032 08       		.byte	0x8
 943 0033 A6030000 		.4byte	.LASF1
 944 0037 02       		.uleb128 0x2
 945 0038 02       		.byte	0x2
 946 0039 05       		.byte	0x5
 947 003a DB030000 		.4byte	.LASF2
 948 003e 02       		.uleb128 0x2
 949 003f 02       		.byte	0x2
ARM GAS  C:\Users\DNIEL~1\AppData\Local\Temp\ccsHMJp3.s 			page 19


 950 0040 07       		.byte	0x7
 951 0041 64010000 		.4byte	.LASF3
 952 0045 03       		.uleb128 0x3
 953 0046 04       		.byte	0x4
 954 0047 05       		.byte	0x5
 955 0048 696E7400 		.ascii	"int\000"
 956 004c 02       		.uleb128 0x2
 957 004d 04       		.byte	0x4
 958 004e 07       		.byte	0x7
 959 004f BF010000 		.4byte	.LASF4
 960 0053 02       		.uleb128 0x2
 961 0054 08       		.byte	0x8
 962 0055 05       		.byte	0x5
 963 0056 95000000 		.4byte	.LASF5
 964 005a 02       		.uleb128 0x2
 965 005b 08       		.byte	0x8
 966 005c 07       		.byte	0x7
 967 005d 3B000000 		.4byte	.LASF6
 968 0061 02       		.uleb128 0x2
 969 0062 04       		.byte	0x4
 970 0063 05       		.byte	0x5
 971 0064 0D010000 		.4byte	.LASF7
 972 0068 04       		.uleb128 0x4
 973 0069 04       		.byte	0x4
 974 006a 02       		.uleb128 0x2
 975 006b 04       		.byte	0x4
 976 006c 07       		.byte	0x7
 977 006d 8A040000 		.4byte	.LASF8
 978 0071 05       		.uleb128 0x5
 979 0072 04       		.byte	0x4
 980 0073 77000000 		.4byte	0x77
 981 0077 02       		.uleb128 0x2
 982 0078 01       		.byte	0x1
 983 0079 08       		.byte	0x8
 984 007a A1040000 		.4byte	.LASF9
 985 007e 05       		.uleb128 0x5
 986 007f 04       		.byte	0x4
 987 0080 84000000 		.4byte	0x84
 988 0084 06       		.uleb128 0x6
 989 0085 77000000 		.4byte	0x77
 990 0089 07       		.uleb128 0x7
 991 008a 00000000 		.4byte	.LASF10
 992 008e 03       		.byte	0x3
 993 008f D3       		.byte	0xd3
 994 0090 4C000000 		.4byte	0x4c
 995 0094 07       		.uleb128 0x7
 996 0095 40050000 		.4byte	.LASF11
 997 0099 04       		.byte	0x4
 998 009a 2A       		.byte	0x2a
 999 009b 30000000 		.4byte	0x30
 1000 009f 07       		.uleb128 0x7
 1001 00a0 CC010000 		.4byte	.LASF12
 1002 00a4 04       		.byte	0x4
 1003 00a5 36       		.byte	0x36
 1004 00a6 3E000000 		.4byte	0x3e
 1005 00aa 07       		.uleb128 0x7
 1006 00ab 9E030000 		.4byte	.LASF13
ARM GAS  C:\Users\DNIEL~1\AppData\Local\Temp\ccsHMJp3.s 			page 20


 1007 00af 04       		.byte	0x4
 1008 00b0 4F       		.byte	0x4f
 1009 00b1 61000000 		.4byte	0x61
 1010 00b5 07       		.uleb128 0x7
 1011 00b6 62040000 		.4byte	.LASF14
 1012 00ba 04       		.byte	0x4
 1013 00bb 50       		.byte	0x50
 1014 00bc 6A000000 		.4byte	0x6a
 1015 00c0 02       		.uleb128 0x2
 1016 00c1 01       		.byte	0x1
 1017 00c2 02       		.byte	0x2
 1018 00c3 98030000 		.4byte	.LASF15
 1019 00c7 07       		.uleb128 0x7
 1020 00c8 45020000 		.4byte	.LASF16
 1021 00cc 05       		.byte	0x5
 1022 00cd 2C       		.byte	0x2c
 1023 00ce 94000000 		.4byte	0x94
 1024 00d2 07       		.uleb128 0x7
 1025 00d3 23010000 		.4byte	.LASF17
 1026 00d7 05       		.byte	0x5
 1027 00d8 2D       		.byte	0x2d
 1028 00d9 94000000 		.4byte	0x94
 1029 00dd 07       		.uleb128 0x7
 1030 00de 3D030000 		.4byte	.LASF18
 1031 00e2 05       		.byte	0x5
 1032 00e3 2E       		.byte	0x2e
 1033 00e4 94000000 		.4byte	0x94
 1034 00e8 07       		.uleb128 0x7
 1035 00e9 FD000000 		.4byte	.LASF19
 1036 00ed 05       		.byte	0x5
 1037 00ee 2F       		.byte	0x2f
 1038 00ef 94000000 		.4byte	0x94
 1039 00f3 07       		.uleb128 0x7
 1040 00f4 88030000 		.4byte	.LASF20
 1041 00f8 05       		.byte	0x5
 1042 00f9 30       		.byte	0x30
 1043 00fa B5000000 		.4byte	0xb5
 1044 00fe 07       		.uleb128 0x7
 1045 00ff 23020000 		.4byte	.LASF21
 1046 0103 05       		.byte	0x5
 1047 0104 31       		.byte	0x31
 1048 0105 AA000000 		.4byte	0xaa
 1049 0109 07       		.uleb128 0x7
 1050 010a 59020000 		.4byte	.LASF22
 1051 010e 05       		.byte	0x5
 1052 010f 33       		.byte	0x33
 1053 0110 B5000000 		.4byte	0xb5
 1054 0114 07       		.uleb128 0x7
 1055 0115 F8040000 		.4byte	.LASF23
 1056 0119 05       		.byte	0x5
 1057 011a 34       		.byte	0x34
 1058 011b B5000000 		.4byte	0xb5
 1059 011f 07       		.uleb128 0x7
 1060 0120 B4040000 		.4byte	.LASF24
 1061 0124 05       		.byte	0x5
 1062 0125 35       		.byte	0x35
 1063 0126 B5000000 		.4byte	0xb5
ARM GAS  C:\Users\DNIEL~1\AppData\Local\Temp\ccsHMJp3.s 			page 21


 1064 012a 07       		.uleb128 0x7
 1065 012b 3C040000 		.4byte	.LASF25
 1066 012f 06       		.byte	0x6
 1067 0130 2A       		.byte	0x2a
 1068 0131 35010000 		.4byte	0x135
 1069 0135 08       		.uleb128 0x8
 1070 0136 3C040000 		.4byte	.LASF25
 1071 013a 48       		.byte	0x48
 1072 013b 07       		.byte	0x7
 1073 013c 5E       		.byte	0x5e
 1074 013d 5A020000 		.4byte	0x25a
 1075 0141 09       		.uleb128 0x9
 1076 0142 05040000 		.4byte	.LASF26
 1077 0146 07       		.byte	0x7
 1078 0147 5F       		.byte	0x5f
 1079 0148 7F020000 		.4byte	0x27f
 1080 014c 02       		.byte	0x2
 1081 014d 23       		.byte	0x23
 1082 014e 00       		.uleb128 0x0
 1083 014f 09       		.uleb128 0x9
 1084 0150 77030000 		.4byte	.LASF27
 1085 0154 07       		.byte	0x7
 1086 0155 61       		.byte	0x61
 1087 0156 7F020000 		.4byte	0x27f
 1088 015a 02       		.byte	0x2
 1089 015b 23       		.byte	0x23
 1090 015c 04       		.uleb128 0x4
 1091 015d 09       		.uleb128 0x9
 1092 015e 82000000 		.4byte	.LASF28
 1093 0162 07       		.byte	0x7
 1094 0163 63       		.byte	0x63
 1095 0164 F3000000 		.4byte	0xf3
 1096 0168 02       		.byte	0x2
 1097 0169 23       		.byte	0x23
 1098 016a 08       		.uleb128 0x8
 1099 016b 09       		.uleb128 0x9
 1100 016c 9A050000 		.4byte	.LASF29
 1101 0170 07       		.byte	0x7
 1102 0171 64       		.byte	0x64
 1103 0172 4B030000 		.4byte	0x34b
 1104 0176 02       		.byte	0x2
 1105 0177 23       		.byte	0x23
 1106 0178 0C       		.uleb128 0xc
 1107 0179 09       		.uleb128 0x9
 1108 017a 5C010000 		.4byte	.LASF30
 1109 017e 07       		.byte	0x7
 1110 017f 66       		.byte	0x66
 1111 0180 7F020000 		.4byte	0x27f
 1112 0184 02       		.byte	0x2
 1113 0185 23       		.byte	0x23
 1114 0186 10       		.uleb128 0x10
 1115 0187 09       		.uleb128 0x9
 1116 0188 E8020000 		.4byte	.LASF31
 1117 018c 07       		.byte	0x7
 1118 018d 67       		.byte	0x67
 1119 018e 7F020000 		.4byte	0x27f
 1120 0192 02       		.byte	0x2
ARM GAS  C:\Users\DNIEL~1\AppData\Local\Temp\ccsHMJp3.s 			page 22


 1121 0193 23       		.byte	0x23
 1122 0194 14       		.uleb128 0x14
 1123 0195 09       		.uleb128 0x9
 1124 0196 18050000 		.4byte	.LASF32
 1125 019a 07       		.byte	0x7
 1126 019b 6E       		.byte	0x6e
 1127 019c 7E000000 		.4byte	0x7e
 1128 01a0 02       		.byte	0x2
 1129 01a1 23       		.byte	0x23
 1130 01a2 18       		.uleb128 0x18
 1131 01a3 09       		.uleb128 0x9
 1132 01a4 E5030000 		.4byte	.LASF33
 1133 01a8 07       		.byte	0x7
 1134 01a9 79       		.byte	0x79
 1135 01aa D2000000 		.4byte	0xd2
 1136 01ae 02       		.byte	0x2
 1137 01af 23       		.byte	0x23
 1138 01b0 1C       		.uleb128 0x1c
 1139 01b1 09       		.uleb128 0x9
 1140 01b2 24040000 		.4byte	.LASF34
 1141 01b6 07       		.byte	0x7
 1142 01b7 7D       		.byte	0x7d
 1143 01b8 C7000000 		.4byte	0xc7
 1144 01bc 02       		.byte	0x2
 1145 01bd 23       		.byte	0x23
 1146 01be 1D       		.uleb128 0x1d
 1147 01bf 09       		.uleb128 0x9
 1148 01c0 36010000 		.4byte	.LASF35
 1149 01c4 07       		.byte	0x7
 1150 01c5 82       		.byte	0x82
 1151 01c6 DD000000 		.4byte	0xdd
 1152 01ca 02       		.byte	0x2
 1153 01cb 23       		.byte	0x23
 1154 01cc 1E       		.uleb128 0x1e
 1155 01cd 09       		.uleb128 0x9
 1156 01ce ED030000 		.4byte	.LASF36
 1157 01d2 07       		.byte	0x7
 1158 01d3 88       		.byte	0x88
 1159 01d4 E8000000 		.4byte	0xe8
 1160 01d8 02       		.byte	0x2
 1161 01d9 23       		.byte	0x23
 1162 01da 1F       		.uleb128 0x1f
 1163 01db 09       		.uleb128 0x9
 1164 01dc 4E010000 		.4byte	.LASF37
 1165 01e0 07       		.byte	0x7
 1166 01e1 8F       		.byte	0x8f
 1167 01e2 6E030000 		.4byte	0x36e
 1168 01e6 02       		.byte	0x2
 1169 01e7 23       		.byte	0x23
 1170 01e8 20       		.uleb128 0x20
 1171 01e9 0A       		.uleb128 0xa
 1172 01ea 705F7500 		.ascii	"p_u\000"
 1173 01ee 07       		.byte	0x7
 1174 01ef B4       		.byte	0xb4
 1175 01f0 9F040000 		.4byte	0x49f
 1176 01f4 02       		.byte	0x2
 1177 01f5 23       		.byte	0x23
ARM GAS  C:\Users\DNIEL~1\AppData\Local\Temp\ccsHMJp3.s 			page 23


 1178 01f6 24       		.uleb128 0x24
 1179 01f7 09       		.uleb128 0x9
 1180 01f8 A0050000 		.4byte	.LASF38
 1181 01fc 07       		.byte	0x7
 1182 01fd B9       		.byte	0xb9
 1183 01fe A7020000 		.4byte	0x2a7
 1184 0202 02       		.byte	0x2
 1185 0203 23       		.byte	0x23
 1186 0204 28       		.uleb128 0x28
 1187 0205 09       		.uleb128 0x9
 1188 0206 00020000 		.4byte	.LASF39
 1189 020a 07       		.byte	0x7
 1190 020b BF       		.byte	0xbf
 1191 020c 85020000 		.4byte	0x285
 1192 0210 02       		.byte	0x2
 1193 0211 23       		.byte	0x23
 1194 0212 2C       		.uleb128 0x2c
 1195 0213 09       		.uleb128 0x9
 1196 0214 85050000 		.4byte	.LASF40
 1197 0218 07       		.byte	0x7
 1198 0219 C3       		.byte	0xc3
 1199 021a FE000000 		.4byte	0xfe
 1200 021e 02       		.byte	0x2
 1201 021f 23       		.byte	0x23
 1202 0220 34       		.uleb128 0x34
 1203 0221 09       		.uleb128 0x9
 1204 0222 43040000 		.4byte	.LASF41
 1205 0226 07       		.byte	0x7
 1206 0227 C9       		.byte	0xc9
 1207 0228 09010000 		.4byte	0x109
 1208 022c 02       		.byte	0x2
 1209 022d 23       		.byte	0x23
 1210 022e 38       		.uleb128 0x38
 1211 022f 09       		.uleb128 0x9
 1212 0230 D1030000 		.4byte	.LASF42
 1213 0234 07       		.byte	0x7
 1214 0235 D0       		.byte	0xd0
 1215 0236 D4040000 		.4byte	0x4d4
 1216 023a 02       		.byte	0x2
 1217 023b 23       		.byte	0x23
 1218 023c 3C       		.uleb128 0x3c
 1219 023d 09       		.uleb128 0x9
 1220 023e BE040000 		.4byte	.LASF43
 1221 0242 07       		.byte	0x7
 1222 0243 D4       		.byte	0xd4
 1223 0244 F3000000 		.4byte	0xf3
 1224 0248 02       		.byte	0x2
 1225 0249 23       		.byte	0x23
 1226 024a 40       		.uleb128 0x40
 1227 024b 09       		.uleb128 0x9
 1228 024c EA000000 		.4byte	.LASF44
 1229 0250 07       		.byte	0x7
 1230 0251 DA       		.byte	0xda
 1231 0252 68000000 		.4byte	0x68
 1232 0256 02       		.byte	0x2
 1233 0257 23       		.byte	0x23
 1234 0258 44       		.uleb128 0x44
ARM GAS  C:\Users\DNIEL~1\AppData\Local\Temp\ccsHMJp3.s 			page 24


 1235 0259 00       		.byte	0x0
 1236 025a 0B       		.uleb128 0xb
 1237 025b 08       		.byte	0x8
 1238 025c 06       		.byte	0x6
 1239 025d 61       		.byte	0x61
 1240 025e 7F020000 		.4byte	0x27f
 1241 0262 09       		.uleb128 0x9
 1242 0263 05040000 		.4byte	.LASF26
 1243 0267 06       		.byte	0x6
 1244 0268 62       		.byte	0x62
 1245 0269 7F020000 		.4byte	0x27f
 1246 026d 02       		.byte	0x2
 1247 026e 23       		.byte	0x23
 1248 026f 00       		.uleb128 0x0
 1249 0270 09       		.uleb128 0x9
 1250 0271 77030000 		.4byte	.LASF27
 1251 0275 06       		.byte	0x6
 1252 0276 64       		.byte	0x64
 1253 0277 7F020000 		.4byte	0x27f
 1254 027b 02       		.byte	0x2
 1255 027c 23       		.byte	0x23
 1256 027d 04       		.uleb128 0x4
 1257 027e 00       		.byte	0x0
 1258 027f 05       		.uleb128 0x5
 1259 0280 04       		.byte	0x4
 1260 0281 2A010000 		.4byte	0x12a
 1261 0285 07       		.uleb128 0x7
 1262 0286 F6020000 		.4byte	.LASF45
 1263 028a 06       		.byte	0x6
 1264 028b 66       		.byte	0x66
 1265 028c 5A020000 		.4byte	0x25a
 1266 0290 0B       		.uleb128 0xb
 1267 0291 04       		.byte	0x4
 1268 0292 06       		.byte	0x6
 1269 0293 6B       		.byte	0x6b
 1270 0294 A7020000 		.4byte	0x2a7
 1271 0298 09       		.uleb128 0x9
 1272 0299 05040000 		.4byte	.LASF26
 1273 029d 06       		.byte	0x6
 1274 029e 6D       		.byte	0x6d
 1275 029f 7F020000 		.4byte	0x27f
 1276 02a3 02       		.byte	0x2
 1277 02a4 23       		.byte	0x23
 1278 02a5 00       		.uleb128 0x0
 1279 02a6 00       		.byte	0x0
 1280 02a7 07       		.uleb128 0x7
 1281 02a8 4D020000 		.4byte	.LASF46
 1282 02ac 06       		.byte	0x6
 1283 02ad 70       		.byte	0x70
 1284 02ae 90020000 		.4byte	0x290
 1285 02b2 07       		.uleb128 0x7
 1286 02b3 87010000 		.4byte	.LASF47
 1287 02b7 08       		.byte	0x8
 1288 02b8 E5       		.byte	0xe5
 1289 02b9 68000000 		.4byte	0x68
 1290 02bd 0C       		.uleb128 0xc
 1291 02be E8040000 		.4byte	.LASF48
ARM GAS  C:\Users\DNIEL~1\AppData\Local\Temp\ccsHMJp3.s 			page 25


 1292 02c2 24       		.byte	0x24
 1293 02c3 08       		.byte	0x8
 1294 02c4 0C01     		.2byte	0x10c
 1295 02c6 4B030000 		.4byte	0x34b
 1296 02ca 0D       		.uleb128 0xd
 1297 02cb 723400   		.ascii	"r4\000"
 1298 02ce 08       		.byte	0x8
 1299 02cf 1F01     		.2byte	0x11f
 1300 02d1 B2020000 		.4byte	0x2b2
 1301 02d5 02       		.byte	0x2
 1302 02d6 23       		.byte	0x23
 1303 02d7 00       		.uleb128 0x0
 1304 02d8 0D       		.uleb128 0xd
 1305 02d9 723500   		.ascii	"r5\000"
 1306 02dc 08       		.byte	0x8
 1307 02dd 2001     		.2byte	0x120
 1308 02df B2020000 		.4byte	0x2b2
 1309 02e3 02       		.byte	0x2
 1310 02e4 23       		.byte	0x23
 1311 02e5 04       		.uleb128 0x4
 1312 02e6 0D       		.uleb128 0xd
 1313 02e7 723600   		.ascii	"r6\000"
 1314 02ea 08       		.byte	0x8
 1315 02eb 2101     		.2byte	0x121
 1316 02ed B2020000 		.4byte	0x2b2
 1317 02f1 02       		.byte	0x2
 1318 02f2 23       		.byte	0x23
 1319 02f3 08       		.uleb128 0x8
 1320 02f4 0D       		.uleb128 0xd
 1321 02f5 723700   		.ascii	"r7\000"
 1322 02f8 08       		.byte	0x8
 1323 02f9 2201     		.2byte	0x122
 1324 02fb B2020000 		.4byte	0x2b2
 1325 02ff 02       		.byte	0x2
 1326 0300 23       		.byte	0x23
 1327 0301 0C       		.uleb128 0xc
 1328 0302 0D       		.uleb128 0xd
 1329 0303 723800   		.ascii	"r8\000"
 1330 0306 08       		.byte	0x8
 1331 0307 2301     		.2byte	0x123
 1332 0309 B2020000 		.4byte	0x2b2
 1333 030d 02       		.byte	0x2
 1334 030e 23       		.byte	0x23
 1335 030f 10       		.uleb128 0x10
 1336 0310 0D       		.uleb128 0xd
 1337 0311 723900   		.ascii	"r9\000"
 1338 0314 08       		.byte	0x8
 1339 0315 2401     		.2byte	0x124
 1340 0317 B2020000 		.4byte	0x2b2
 1341 031b 02       		.byte	0x2
 1342 031c 23       		.byte	0x23
 1343 031d 14       		.uleb128 0x14
 1344 031e 0D       		.uleb128 0xd
 1345 031f 72313000 		.ascii	"r10\000"
 1346 0323 08       		.byte	0x8
 1347 0324 2501     		.2byte	0x125
 1348 0326 B2020000 		.4byte	0x2b2
ARM GAS  C:\Users\DNIEL~1\AppData\Local\Temp\ccsHMJp3.s 			page 26


 1349 032a 02       		.byte	0x2
 1350 032b 23       		.byte	0x23
 1351 032c 18       		.uleb128 0x18
 1352 032d 0D       		.uleb128 0xd
 1353 032e 72313100 		.ascii	"r11\000"
 1354 0332 08       		.byte	0x8
 1355 0333 2601     		.2byte	0x126
 1356 0335 B2020000 		.4byte	0x2b2
 1357 0339 02       		.byte	0x2
 1358 033a 23       		.byte	0x23
 1359 033b 1C       		.uleb128 0x1c
 1360 033c 0D       		.uleb128 0xd
 1361 033d 6C7200   		.ascii	"lr\000"
 1362 0340 08       		.byte	0x8
 1363 0341 2701     		.2byte	0x127
 1364 0343 B2020000 		.4byte	0x2b2
 1365 0347 02       		.byte	0x2
 1366 0348 23       		.byte	0x23
 1367 0349 20       		.uleb128 0x20
 1368 034a 00       		.byte	0x0
 1369 034b 0C       		.uleb128 0xc
 1370 034c E0040000 		.4byte	.LASF49
 1371 0350 04       		.byte	0x4
 1372 0351 08       		.byte	0x8
 1373 0352 3101     		.2byte	0x131
 1374 0354 68030000 		.4byte	0x368
 1375 0358 0D       		.uleb128 0xd
 1376 0359 72313300 		.ascii	"r13\000"
 1377 035d 08       		.byte	0x8
 1378 035e 3201     		.2byte	0x132
 1379 0360 68030000 		.4byte	0x368
 1380 0364 02       		.byte	0x2
 1381 0365 23       		.byte	0x23
 1382 0366 00       		.uleb128 0x0
 1383 0367 00       		.byte	0x0
 1384 0368 05       		.uleb128 0x5
 1385 0369 04       		.byte	0x4
 1386 036a BD020000 		.4byte	0x2bd
 1387 036e 0E       		.uleb128 0xe
 1388 036f 1F010000 		.4byte	0x11f
 1389 0373 0B       		.uleb128 0xb
 1390 0374 1C       		.byte	0x1c
 1391 0375 09       		.byte	0x9
 1392 0376 5E       		.byte	0x5e
 1393 0377 D0030000 		.4byte	0x3d0
 1394 037b 09       		.uleb128 0x9
 1395 037c 6B040000 		.4byte	.LASF50
 1396 0380 09       		.byte	0x9
 1397 0381 5F       		.byte	0x5f
 1398 0382 85020000 		.4byte	0x285
 1399 0386 02       		.byte	0x2
 1400 0387 23       		.byte	0x23
 1401 0388 00       		.uleb128 0x0
 1402 0389 09       		.uleb128 0x9
 1403 038a F7030000 		.4byte	.LASF51
 1404 038e 09       		.byte	0x9
 1405 038f 60       		.byte	0x60
ARM GAS  C:\Users\DNIEL~1\AppData\Local\Temp\ccsHMJp3.s 			page 27


 1406 0390 F3000000 		.4byte	0xf3
 1407 0394 02       		.byte	0x2
 1408 0395 23       		.byte	0x23
 1409 0396 08       		.uleb128 0x8
 1410 0397 09       		.uleb128 0x9
 1411 0398 F0020000 		.4byte	.LASF52
 1412 039c 09       		.byte	0x9
 1413 039d 62       		.byte	0x62
 1414 039e 4B030000 		.4byte	0x34b
 1415 03a2 02       		.byte	0x2
 1416 03a3 23       		.byte	0x23
 1417 03a4 0C       		.uleb128 0xc
 1418 03a5 09       		.uleb128 0x9
 1419 03a6 7F010000 		.4byte	.LASF53
 1420 03aa 09       		.byte	0x9
 1421 03ab 65       		.byte	0x65
 1422 03ac 7F020000 		.4byte	0x27f
 1423 03b0 02       		.byte	0x2
 1424 03b1 23       		.byte	0x23
 1425 03b2 10       		.uleb128 0x10
 1426 03b3 09       		.uleb128 0x9
 1427 03b4 18030000 		.4byte	.LASF54
 1428 03b8 09       		.byte	0x9
 1429 03b9 66       		.byte	0x66
 1430 03ba 7F020000 		.4byte	0x27f
 1431 03be 02       		.byte	0x2
 1432 03bf 23       		.byte	0x23
 1433 03c0 14       		.uleb128 0x14
 1434 03c1 09       		.uleb128 0x9
 1435 03c2 0E030000 		.4byte	.LASF55
 1436 03c6 09       		.byte	0x9
 1437 03c7 69       		.byte	0x69
 1438 03c8 7F020000 		.4byte	0x27f
 1439 03cc 02       		.byte	0x2
 1440 03cd 23       		.byte	0x23
 1441 03ce 18       		.uleb128 0x18
 1442 03cf 00       		.byte	0x0
 1443 03d0 07       		.uleb128 0x7
 1444 03d1 27050000 		.4byte	.LASF56
 1445 03d5 09       		.byte	0x9
 1446 03d6 6B       		.byte	0x6b
 1447 03d7 73030000 		.4byte	0x373
 1448 03db 08       		.uleb128 0x8
 1449 03dc CB020000 		.4byte	.LASF57
 1450 03e0 10       		.byte	0x10
 1451 03e1 0A       		.byte	0xa
 1452 03e2 2C       		.byte	0x2c
 1453 03e3 12040000 		.4byte	0x412
 1454 03e7 09       		.uleb128 0x9
 1455 03e8 B4030000 		.4byte	.LASF58
 1456 03ec 0A       		.byte	0xa
 1457 03ed 2D       		.byte	0x2d
 1458 03ee 85020000 		.4byte	0x285
 1459 03f2 02       		.byte	0x2
 1460 03f3 23       		.byte	0x23
 1461 03f4 00       		.uleb128 0x0
 1462 03f5 09       		.uleb128 0x9
ARM GAS  C:\Users\DNIEL~1\AppData\Local\Temp\ccsHMJp3.s 			page 28


 1463 03f6 92050000 		.4byte	.LASF59
 1464 03fa 0A       		.byte	0xa
 1465 03fb 2F       		.byte	0x2f
 1466 03fc 7F020000 		.4byte	0x27f
 1467 0400 02       		.byte	0x2
 1468 0401 23       		.byte	0x23
 1469 0402 08       		.uleb128 0x8
 1470 0403 09       		.uleb128 0x9
 1471 0404 AD040000 		.4byte	.LASF60
 1472 0408 0A       		.byte	0xa
 1473 0409 31       		.byte	0x31
 1474 040a 12040000 		.4byte	0x412
 1475 040e 02       		.byte	0x2
 1476 040f 23       		.byte	0x23
 1477 0410 0C       		.uleb128 0xc
 1478 0411 00       		.byte	0x0
 1479 0412 05       		.uleb128 0x5
 1480 0413 04       		.byte	0x4
 1481 0414 DB030000 		.4byte	0x3db
 1482 0418 07       		.uleb128 0x7
 1483 0419 CB020000 		.4byte	.LASF57
 1484 041d 0A       		.byte	0xa
 1485 041e 33       		.byte	0x33
 1486 041f DB030000 		.4byte	0x3db
 1487 0423 07       		.uleb128 0x7
 1488 0424 5F050000 		.4byte	.LASF61
 1489 0428 0B       		.byte	0xb
 1490 0429 2C       		.byte	0x2c
 1491 042a 2E040000 		.4byte	0x42e
 1492 042e 08       		.uleb128 0x8
 1493 042f 5F050000 		.4byte	.LASF61
 1494 0433 10       		.byte	0x10
 1495 0434 0B       		.byte	0xb
 1496 0435 31       		.byte	0x31
 1497 0436 73040000 		.4byte	0x473
 1498 043a 09       		.uleb128 0x9
 1499 043b 2C040000 		.4byte	.LASF62
 1500 043f 0B       		.byte	0xb
 1501 0440 32       		.byte	0x32
 1502 0441 73040000 		.4byte	0x473
 1503 0445 02       		.byte	0x2
 1504 0446 23       		.byte	0x23
 1505 0447 00       		.uleb128 0x0
 1506 0448 09       		.uleb128 0x9
 1507 0449 BC030000 		.4byte	.LASF63
 1508 044d 0B       		.byte	0xb
 1509 044e 35       		.byte	0x35
 1510 044f 7F020000 		.4byte	0x27f
 1511 0453 02       		.byte	0x2
 1512 0454 23       		.byte	0x23
 1513 0455 04       		.uleb128 0x4
 1514 0456 09       		.uleb128 0x9
 1515 0457 E0020000 		.4byte	.LASF64
 1516 045b 0B       		.byte	0xb
 1517 045c 37       		.byte	0x37
 1518 045d 09010000 		.4byte	0x109
 1519 0461 02       		.byte	0x2
ARM GAS  C:\Users\DNIEL~1\AppData\Local\Temp\ccsHMJp3.s 			page 29


 1520 0462 23       		.byte	0x23
 1521 0463 08       		.uleb128 0x8
 1522 0464 09       		.uleb128 0x9
 1523 0465 C8030000 		.4byte	.LASF65
 1524 0469 0B       		.byte	0xb
 1525 046a 3A       		.byte	0x3a
 1526 046b 14010000 		.4byte	0x114
 1527 046f 02       		.byte	0x2
 1528 0470 23       		.byte	0x23
 1529 0471 0C       		.uleb128 0xc
 1530 0472 00       		.byte	0x0
 1531 0473 05       		.uleb128 0x5
 1532 0474 04       		.byte	0x4
 1533 0475 23040000 		.4byte	0x423
 1534 0479 08       		.uleb128 0x8
 1535 047a 98010000 		.4byte	.LASF66
 1536 047e 04       		.byte	0x4
 1537 047f 0B       		.byte	0xb
 1538 0480 41       		.byte	0x41
 1539 0481 94040000 		.4byte	0x494
 1540 0485 09       		.uleb128 0x9
 1541 0486 1F050000 		.4byte	.LASF67
 1542 048a 0B       		.byte	0xb
 1543 048b 42       		.byte	0x42
 1544 048c 73040000 		.4byte	0x473
 1545 0490 02       		.byte	0x2
 1546 0491 23       		.byte	0x23
 1547 0492 00       		.uleb128 0x0
 1548 0493 00       		.byte	0x0
 1549 0494 07       		.uleb128 0x7
 1550 0495 98010000 		.4byte	.LASF66
 1551 0499 0B       		.byte	0xb
 1552 049a 45       		.byte	0x45
 1553 049b 79040000 		.4byte	0x479
 1554 049f 0F       		.uleb128 0xf
 1555 04a0 04       		.byte	0x4
 1556 04a1 07       		.byte	0x7
 1557 04a2 96       		.byte	0x96
 1558 04a3 D4040000 		.4byte	0x4d4
 1559 04a7 10       		.uleb128 0x10
 1560 04a8 07000000 		.4byte	.LASF68
 1561 04ac 07       		.byte	0x7
 1562 04ad 9D       		.byte	0x9d
 1563 04ae FE000000 		.4byte	0xfe
 1564 04b2 10       		.uleb128 0x10
 1565 04b3 60000000 		.4byte	.LASF69
 1566 04b7 07       		.byte	0x7
 1567 04b8 A4       		.byte	0xa4
 1568 04b9 FE000000 		.4byte	0xfe
 1569 04bd 10       		.uleb128 0x10
 1570 04be 6D050000 		.4byte	.LASF70
 1571 04c2 07       		.byte	0x7
 1572 04c3 AB       		.byte	0xab
 1573 04c4 68000000 		.4byte	0x68
 1574 04c8 10       		.uleb128 0x10
 1575 04c9 FE030000 		.4byte	.LASF71
 1576 04cd 07       		.byte	0x7
ARM GAS  C:\Users\DNIEL~1\AppData\Local\Temp\ccsHMJp3.s 			page 30


 1577 04ce B2       		.byte	0xb2
 1578 04cf 09010000 		.4byte	0x109
 1579 04d3 00       		.byte	0x0
 1580 04d4 05       		.uleb128 0x5
 1581 04d5 04       		.byte	0x4
 1582 04d6 18040000 		.4byte	0x418
 1583 04da 05       		.uleb128 0x5
 1584 04db 04       		.byte	0x4
 1585 04dc E0040000 		.4byte	0x4e0
 1586 04e0 11       		.uleb128 0x11
 1587 04e1 01       		.byte	0x1
 1588 04e2 FE000000 		.4byte	0xfe
 1589 04e6 F0040000 		.4byte	0x4f0
 1590 04ea 12       		.uleb128 0x12
 1591 04eb 68000000 		.4byte	0x68
 1592 04ef 00       		.byte	0x0
 1593 04f0 07       		.uleb128 0x7
 1594 04f1 8E020000 		.4byte	.LASF72
 1595 04f5 0C       		.byte	0xc
 1596 04f6 37       		.byte	0x37
 1597 04f7 FB040000 		.4byte	0x4fb
 1598 04fb 08       		.uleb128 0x8
 1599 04fc 8E020000 		.4byte	.LASF72
 1600 0500 24       		.byte	0x24
 1601 0501 0C       		.byte	0xc
 1602 0502 45       		.byte	0x45
 1603 0503 78050000 		.4byte	0x578
 1604 0507 09       		.uleb128 0x9
 1605 0508 33030000 		.4byte	.LASF73
 1606 050c 0C       		.byte	0xc
 1607 050d 46       		.byte	0x46
 1608 050e 85020000 		.4byte	0x285
 1609 0512 02       		.byte	0x2
 1610 0513 23       		.byte	0x23
 1611 0514 00       		.uleb128 0x0
 1612 0515 09       		.uleb128 0x9
 1613 0516 B5020000 		.4byte	.LASF74
 1614 051a 0C       		.byte	0xc
 1615 051b 47       		.byte	0x47
 1616 051c 89000000 		.4byte	0x89
 1617 0520 02       		.byte	0x2
 1618 0521 23       		.byte	0x23
 1619 0522 08       		.uleb128 0x8
 1620 0523 09       		.uleb128 0x9
 1621 0524 3D010000 		.4byte	.LASF75
 1622 0528 0C       		.byte	0xc
 1623 0529 48       		.byte	0x48
 1624 052a 9B050000 		.4byte	0x59b
 1625 052e 02       		.byte	0x2
 1626 052f 23       		.byte	0x23
 1627 0530 0C       		.uleb128 0xc
 1628 0531 09       		.uleb128 0x9
 1629 0532 12050000 		.4byte	.LASF76
 1630 0536 0C       		.byte	0xc
 1631 0537 49       		.byte	0x49
 1632 0538 9B050000 		.4byte	0x59b
 1633 053c 02       		.byte	0x2
ARM GAS  C:\Users\DNIEL~1\AppData\Local\Temp\ccsHMJp3.s 			page 31


 1634 053d 23       		.byte	0x23
 1635 053e 10       		.uleb128 0x10
 1636 053f 09       		.uleb128 0x9
 1637 0540 1B020000 		.4byte	.LASF77
 1638 0544 0C       		.byte	0xc
 1639 0545 4B       		.byte	0x4b
 1640 0546 9B050000 		.4byte	0x59b
 1641 054a 02       		.byte	0x2
 1642 054b 23       		.byte	0x23
 1643 054c 14       		.uleb128 0x14
 1644 054d 09       		.uleb128 0x9
 1645 054e 90030000 		.4byte	.LASF78
 1646 0552 0C       		.byte	0xc
 1647 0553 4C       		.byte	0x4c
 1648 0554 9B050000 		.4byte	0x59b
 1649 0558 02       		.byte	0x2
 1650 0559 23       		.byte	0x23
 1651 055a 18       		.uleb128 0x18
 1652 055b 09       		.uleb128 0x9
 1653 055c 31050000 		.4byte	.LASF79
 1654 0560 0C       		.byte	0xc
 1655 0561 4D       		.byte	0x4d
 1656 0562 78050000 		.4byte	0x578
 1657 0566 02       		.byte	0x2
 1658 0567 23       		.byte	0x23
 1659 0568 1C       		.uleb128 0x1c
 1660 0569 09       		.uleb128 0x9
 1661 056a 8B050000 		.4byte	.LASF80
 1662 056e 0C       		.byte	0xc
 1663 056f 4E       		.byte	0x4e
 1664 0570 68000000 		.4byte	0x68
 1665 0574 02       		.byte	0x2
 1666 0575 23       		.byte	0x23
 1667 0576 20       		.uleb128 0x20
 1668 0577 00       		.byte	0x0
 1669 0578 07       		.uleb128 0x7
 1670 0579 84020000 		.4byte	.LASF81
 1671 057d 0C       		.byte	0xc
 1672 057e 3A       		.byte	0x3a
 1673 057f 83050000 		.4byte	0x583
 1674 0583 05       		.uleb128 0x5
 1675 0584 04       		.byte	0x4
 1676 0585 89050000 		.4byte	0x589
 1677 0589 13       		.uleb128 0x13
 1678 058a 01       		.byte	0x1
 1679 058b 95050000 		.4byte	0x595
 1680 058f 12       		.uleb128 0x12
 1681 0590 95050000 		.4byte	0x595
 1682 0594 00       		.byte	0x0
 1683 0595 05       		.uleb128 0x5
 1684 0596 04       		.byte	0x4
 1685 0597 F0040000 		.4byte	0x4f0
 1686 059b 05       		.uleb128 0x5
 1687 059c 04       		.byte	0x4
 1688 059d 94000000 		.4byte	0x94
 1689 05a1 07       		.uleb128 0x7
 1690 05a2 65020000 		.4byte	.LASF82
ARM GAS  C:\Users\DNIEL~1\AppData\Local\Temp\ccsHMJp3.s 			page 32


 1691 05a6 0C       		.byte	0xc
 1692 05a7 82       		.byte	0x82
 1693 05a8 F0040000 		.4byte	0x4f0
 1694 05ac 07       		.uleb128 0x7
 1695 05ad 0E000000 		.4byte	.LASF83
 1696 05b1 0C       		.byte	0xc
 1697 05b2 F5       		.byte	0xf5
 1698 05b3 F0040000 		.4byte	0x4f0
 1699 05b7 08       		.uleb128 0x8
 1700 05b8 0C040000 		.4byte	.LASF84
 1701 05bc 10       		.byte	0x10
 1702 05bd 0D       		.byte	0xd
 1703 05be 48       		.byte	0x48
 1704 05bf FC050000 		.4byte	0x5fc
 1705 05c3 09       		.uleb128 0x9
 1706 05c4 A1020000 		.4byte	.LASF85
 1707 05c8 0D       		.byte	0xd
 1708 05c9 49       		.byte	0x49
 1709 05ca 21060000 		.4byte	0x621
 1710 05ce 02       		.byte	0x2
 1711 05cf 23       		.byte	0x23
 1712 05d0 00       		.uleb128 0x0
 1713 05d1 09       		.uleb128 0x9
 1714 05d2 9C040000 		.4byte	.LASF86
 1715 05d6 0D       		.byte	0xd
 1716 05d7 49       		.byte	0x49
 1717 05d8 41060000 		.4byte	0x641
 1718 05dc 02       		.byte	0x2
 1719 05dd 23       		.byte	0x23
 1720 05de 04       		.uleb128 0x4
 1721 05df 0A       		.uleb128 0xa
 1722 05e0 70757400 		.ascii	"put\000"
 1723 05e4 0D       		.byte	0xd
 1724 05e5 49       		.byte	0x49
 1725 05e6 5C060000 		.4byte	0x65c
 1726 05ea 02       		.byte	0x2
 1727 05eb 23       		.byte	0x23
 1728 05ec 08       		.uleb128 0x8
 1729 05ed 0A       		.uleb128 0xa
 1730 05ee 67657400 		.ascii	"get\000"
 1731 05f2 0D       		.byte	0xd
 1732 05f3 49       		.byte	0x49
 1733 05f4 DA040000 		.4byte	0x4da
 1734 05f8 02       		.byte	0x2
 1735 05f9 23       		.byte	0x23
 1736 05fa 0C       		.uleb128 0xc
 1737 05fb 00       		.byte	0x0
 1738 05fc 11       		.uleb128 0x11
 1739 05fd 01       		.byte	0x1
 1740 05fe 89000000 		.4byte	0x89
 1741 0602 16060000 		.4byte	0x616
 1742 0606 12       		.uleb128 0x12
 1743 0607 68000000 		.4byte	0x68
 1744 060b 12       		.uleb128 0x12
 1745 060c 16060000 		.4byte	0x616
 1746 0610 12       		.uleb128 0x12
 1747 0611 89000000 		.4byte	0x89
ARM GAS  C:\Users\DNIEL~1\AppData\Local\Temp\ccsHMJp3.s 			page 33


 1748 0615 00       		.byte	0x0
 1749 0616 05       		.uleb128 0x5
 1750 0617 04       		.byte	0x4
 1751 0618 1C060000 		.4byte	0x61c
 1752 061c 06       		.uleb128 0x6
 1753 061d 94000000 		.4byte	0x94
 1754 0621 05       		.uleb128 0x5
 1755 0622 04       		.byte	0x4
 1756 0623 FC050000 		.4byte	0x5fc
 1757 0627 11       		.uleb128 0x11
 1758 0628 01       		.byte	0x1
 1759 0629 89000000 		.4byte	0x89
 1760 062d 41060000 		.4byte	0x641
 1761 0631 12       		.uleb128 0x12
 1762 0632 68000000 		.4byte	0x68
 1763 0636 12       		.uleb128 0x12
 1764 0637 9B050000 		.4byte	0x59b
 1765 063b 12       		.uleb128 0x12
 1766 063c 89000000 		.4byte	0x89
 1767 0640 00       		.byte	0x0
 1768 0641 05       		.uleb128 0x5
 1769 0642 04       		.byte	0x4
 1770 0643 27060000 		.4byte	0x627
 1771 0647 11       		.uleb128 0x11
 1772 0648 01       		.byte	0x1
 1773 0649 FE000000 		.4byte	0xfe
 1774 064d 5C060000 		.4byte	0x65c
 1775 0651 12       		.uleb128 0x12
 1776 0652 68000000 		.4byte	0x68
 1777 0656 12       		.uleb128 0x12
 1778 0657 94000000 		.4byte	0x94
 1779 065b 00       		.byte	0x0
 1780 065c 05       		.uleb128 0x5
 1781 065d 04       		.byte	0x4
 1782 065e 47060000 		.4byte	0x647
 1783 0662 0B       		.uleb128 0xb
 1784 0663 04       		.byte	0x4
 1785 0664 0D       		.byte	0xd
 1786 0665 51       		.byte	0x51
 1787 0666 79060000 		.4byte	0x679
 1788 066a 0A       		.uleb128 0xa
 1789 066b 766D7400 		.ascii	"vmt\000"
 1790 066f 0D       		.byte	0xd
 1791 0670 53       		.byte	0x53
 1792 0671 79060000 		.4byte	0x679
 1793 0675 02       		.byte	0x2
 1794 0676 23       		.byte	0x23
 1795 0677 00       		.uleb128 0x0
 1796 0678 00       		.byte	0x0
 1797 0679 05       		.uleb128 0x5
 1798 067a 04       		.byte	0x4
 1799 067b 7F060000 		.4byte	0x67f
 1800 067f 06       		.uleb128 0x6
 1801 0680 B7050000 		.4byte	0x5b7
 1802 0684 07       		.uleb128 0x7
 1803 0685 A4010000 		.4byte	.LASF87
 1804 0689 0D       		.byte	0xd
ARM GAS  C:\Users\DNIEL~1\AppData\Local\Temp\ccsHMJp3.s 			page 34


 1805 068a 55       		.byte	0x55
 1806 068b 62060000 		.4byte	0x662
 1807 068f 0E       		.uleb128 0xe
 1808 0690 9F000000 		.4byte	0x9f
 1809 0694 0E       		.uleb128 0xe
 1810 0695 AA000000 		.4byte	0xaa
 1811 0699 14       		.uleb128 0x14
 1812 069a 1C       		.byte	0x1c
 1813 069b 0E       		.byte	0xe
 1814 069c 2905     		.2byte	0x529
 1815 069e 73070000 		.4byte	0x773
 1816 06a2 0D       		.uleb128 0xd
 1817 06a3 535200   		.ascii	"SR\000"
 1818 06a6 0E       		.byte	0xe
 1819 06a7 2B05     		.2byte	0x52b
 1820 06a9 8F060000 		.4byte	0x68f
 1821 06ad 02       		.byte	0x2
 1822 06ae 23       		.byte	0x23
 1823 06af 00       		.uleb128 0x0
 1824 06b0 15       		.uleb128 0x15
 1825 06b1 45030000 		.4byte	.LASF88
 1826 06b5 0E       		.byte	0xe
 1827 06b6 2C05     		.2byte	0x52c
 1828 06b8 9F000000 		.4byte	0x9f
 1829 06bc 02       		.byte	0x2
 1830 06bd 23       		.byte	0x23
 1831 06be 02       		.uleb128 0x2
 1832 06bf 0D       		.uleb128 0xd
 1833 06c0 445200   		.ascii	"DR\000"
 1834 06c3 0E       		.byte	0xe
 1835 06c4 2D05     		.2byte	0x52d
 1836 06c6 8F060000 		.4byte	0x68f
 1837 06ca 02       		.byte	0x2
 1838 06cb 23       		.byte	0x23
 1839 06cc 04       		.uleb128 0x4
 1840 06cd 15       		.uleb128 0x15
 1841 06ce 4F030000 		.4byte	.LASF89
 1842 06d2 0E       		.byte	0xe
 1843 06d3 2E05     		.2byte	0x52e
 1844 06d5 9F000000 		.4byte	0x9f
 1845 06d9 02       		.byte	0x2
 1846 06da 23       		.byte	0x23
 1847 06db 06       		.uleb128 0x6
 1848 06dc 0D       		.uleb128 0xd
 1849 06dd 42525200 		.ascii	"BRR\000"
 1850 06e1 0E       		.byte	0xe
 1851 06e2 2F05     		.2byte	0x52f
 1852 06e4 8F060000 		.4byte	0x68f
 1853 06e8 02       		.byte	0x2
 1854 06e9 23       		.byte	0x23
 1855 06ea 08       		.uleb128 0x8
 1856 06eb 15       		.uleb128 0x15
 1857 06ec 59030000 		.4byte	.LASF90
 1858 06f0 0E       		.byte	0xe
 1859 06f1 3005     		.2byte	0x530
 1860 06f3 9F000000 		.4byte	0x9f
 1861 06f7 02       		.byte	0x2
ARM GAS  C:\Users\DNIEL~1\AppData\Local\Temp\ccsHMJp3.s 			page 35


 1862 06f8 23       		.byte	0x23
 1863 06f9 0A       		.uleb128 0xa
 1864 06fa 0D       		.uleb128 0xd
 1865 06fb 43523100 		.ascii	"CR1\000"
 1866 06ff 0E       		.byte	0xe
 1867 0700 3105     		.2byte	0x531
 1868 0702 8F060000 		.4byte	0x68f
 1869 0706 02       		.byte	0x2
 1870 0707 23       		.byte	0x23
 1871 0708 0C       		.uleb128 0xc
 1872 0709 15       		.uleb128 0x15
 1873 070a 63030000 		.4byte	.LASF91
 1874 070e 0E       		.byte	0xe
 1875 070f 3205     		.2byte	0x532
 1876 0711 9F000000 		.4byte	0x9f
 1877 0715 02       		.byte	0x2
 1878 0716 23       		.byte	0x23
 1879 0717 0E       		.uleb128 0xe
 1880 0718 0D       		.uleb128 0xd
 1881 0719 43523200 		.ascii	"CR2\000"
 1882 071d 0E       		.byte	0xe
 1883 071e 3305     		.2byte	0x533
 1884 0720 8F060000 		.4byte	0x68f
 1885 0724 02       		.byte	0x2
 1886 0725 23       		.byte	0x23
 1887 0726 10       		.uleb128 0x10
 1888 0727 15       		.uleb128 0x15
 1889 0728 6D030000 		.4byte	.LASF92
 1890 072c 0E       		.byte	0xe
 1891 072d 3405     		.2byte	0x534
 1892 072f 9F000000 		.4byte	0x9f
 1893 0733 02       		.byte	0x2
 1894 0734 23       		.byte	0x23
 1895 0735 12       		.uleb128 0x12
 1896 0736 0D       		.uleb128 0xd
 1897 0737 43523300 		.ascii	"CR3\000"
 1898 073b 0E       		.byte	0xe
 1899 073c 3505     		.2byte	0x535
 1900 073e 8F060000 		.4byte	0x68f
 1901 0742 02       		.byte	0x2
 1902 0743 23       		.byte	0x23
 1903 0744 14       		.uleb128 0x14
 1904 0745 15       		.uleb128 0x15
 1905 0746 58040000 		.4byte	.LASF93
 1906 074a 0E       		.byte	0xe
 1907 074b 3605     		.2byte	0x536
 1908 074d 9F000000 		.4byte	0x9f
 1909 0751 02       		.byte	0x2
 1910 0752 23       		.byte	0x23
 1911 0753 16       		.uleb128 0x16
 1912 0754 15       		.uleb128 0x15
 1913 0755 E5000000 		.4byte	.LASF94
 1914 0759 0E       		.byte	0xe
 1915 075a 3705     		.2byte	0x537
 1916 075c 8F060000 		.4byte	0x68f
 1917 0760 02       		.byte	0x2
 1918 0761 23       		.byte	0x23
ARM GAS  C:\Users\DNIEL~1\AppData\Local\Temp\ccsHMJp3.s 			page 36


 1919 0762 18       		.uleb128 0x18
 1920 0763 15       		.uleb128 0x15
 1921 0764 7E030000 		.4byte	.LASF95
 1922 0768 0E       		.byte	0xe
 1923 0769 3805     		.2byte	0x538
 1924 076b 9F000000 		.4byte	0x9f
 1925 076f 02       		.byte	0x2
 1926 0770 23       		.byte	0x23
 1927 0771 1A       		.uleb128 0x1a
 1928 0772 00       		.byte	0x0
 1929 0773 16       		.uleb128 0x16
 1930 0774 30020000 		.4byte	.LASF96
 1931 0778 0E       		.byte	0xe
 1932 0779 3905     		.2byte	0x539
 1933 077b 99060000 		.4byte	0x699
 1934 077f 11       		.uleb128 0x11
 1935 0780 01       		.byte	0x1
 1936 0781 FE000000 		.4byte	0xfe
 1937 0785 99070000 		.4byte	0x799
 1938 0789 12       		.uleb128 0x12
 1939 078a 68000000 		.4byte	0x68
 1940 078e 12       		.uleb128 0x12
 1941 078f 94000000 		.4byte	0x94
 1942 0793 12       		.uleb128 0x12
 1943 0794 1F010000 		.4byte	0x11f
 1944 0798 00       		.byte	0x0
 1945 0799 05       		.uleb128 0x5
 1946 079a 04       		.byte	0x4
 1947 079b 7F070000 		.4byte	0x77f
 1948 079f 11       		.uleb128 0x11
 1949 07a0 01       		.byte	0x1
 1950 07a1 FE000000 		.4byte	0xfe
 1951 07a5 B4070000 		.4byte	0x7b4
 1952 07a9 12       		.uleb128 0x12
 1953 07aa 68000000 		.4byte	0x68
 1954 07ae 12       		.uleb128 0x12
 1955 07af 1F010000 		.4byte	0x11f
 1956 07b3 00       		.byte	0x0
 1957 07b4 05       		.uleb128 0x5
 1958 07b5 04       		.byte	0x4
 1959 07b6 9F070000 		.4byte	0x79f
 1960 07ba 11       		.uleb128 0x11
 1961 07bb 01       		.byte	0x1
 1962 07bc 89000000 		.4byte	0x89
 1963 07c0 D9070000 		.4byte	0x7d9
 1964 07c4 12       		.uleb128 0x12
 1965 07c5 68000000 		.4byte	0x68
 1966 07c9 12       		.uleb128 0x12
 1967 07ca 16060000 		.4byte	0x616
 1968 07ce 12       		.uleb128 0x12
 1969 07cf 89000000 		.4byte	0x89
 1970 07d3 12       		.uleb128 0x12
 1971 07d4 1F010000 		.4byte	0x11f
 1972 07d8 00       		.byte	0x0
 1973 07d9 05       		.uleb128 0x5
 1974 07da 04       		.byte	0x4
 1975 07db BA070000 		.4byte	0x7ba
ARM GAS  C:\Users\DNIEL~1\AppData\Local\Temp\ccsHMJp3.s 			page 37


 1976 07df 11       		.uleb128 0x11
 1977 07e0 01       		.byte	0x1
 1978 07e1 89000000 		.4byte	0x89
 1979 07e5 FE070000 		.4byte	0x7fe
 1980 07e9 12       		.uleb128 0x12
 1981 07ea 68000000 		.4byte	0x68
 1982 07ee 12       		.uleb128 0x12
 1983 07ef 9B050000 		.4byte	0x59b
 1984 07f3 12       		.uleb128 0x12
 1985 07f4 89000000 		.4byte	0x89
 1986 07f8 12       		.uleb128 0x12
 1987 07f9 1F010000 		.4byte	0x11f
 1988 07fd 00       		.byte	0x0
 1989 07fe 05       		.uleb128 0x5
 1990 07ff 04       		.byte	0x4
 1991 0800 DF070000 		.4byte	0x7df
 1992 0804 17       		.uleb128 0x17
 1993 0805 01       		.byte	0x1
 1994 0806 0F       		.byte	0xf
 1995 0807 64       		.byte	0x64
 1996 0808 1F080000 		.4byte	0x81f
 1997 080c 18       		.uleb128 0x18
 1998 080d 4E040000 		.4byte	.LASF97
 1999 0811 00       		.sleb128 0
 2000 0812 18       		.uleb128 0x18
 2001 0813 34040000 		.4byte	.LASF98
 2002 0817 01       		.sleb128 1
 2003 0818 18       		.uleb128 0x18
 2004 0819 EF040000 		.4byte	.LASF99
 2005 081d 02       		.sleb128 2
 2006 081e 00       		.byte	0x0
 2007 081f 07       		.uleb128 0x7
 2008 0820 73040000 		.4byte	.LASF100
 2009 0824 0F       		.byte	0xf
 2010 0825 68       		.byte	0x68
 2011 0826 04080000 		.4byte	0x804
 2012 082a 07       		.uleb128 0x7
 2013 082b 7D040000 		.4byte	.LASF101
 2014 082f 0F       		.byte	0xf
 2015 0830 6D       		.byte	0x6d
 2016 0831 35080000 		.4byte	0x835
 2017 0835 08       		.uleb128 0x8
 2018 0836 7D040000 		.4byte	.LASF101
 2019 083a 78       		.byte	0x78
 2020 083b 0F       		.byte	0xf
 2021 083c 87       		.byte	0x87
 2022 083d B0080000 		.4byte	0x8b0
 2023 0841 0A       		.uleb128 0xa
 2024 0842 766D7400 		.ascii	"vmt\000"
 2025 0846 0F       		.byte	0xf
 2026 0847 89       		.byte	0x89
 2027 0848 79090000 		.4byte	0x979
 2028 084c 02       		.byte	0x2
 2029 084d 23       		.byte	0x23
 2030 084e 00       		.uleb128 0x0
 2031 084f 09       		.uleb128 0x9
 2032 0850 10020000 		.4byte	.LASF102
ARM GAS  C:\Users\DNIEL~1\AppData\Local\Temp\ccsHMJp3.s 			page 38


 2033 0854 0F       		.byte	0xf
 2034 0855 8A       		.byte	0x8a
 2035 0856 94040000 		.4byte	0x494
 2036 085a 02       		.byte	0x2
 2037 085b 23       		.byte	0x23
 2038 085c 04       		.uleb128 0x4
 2039 085d 09       		.uleb128 0x9
 2040 085e 07010000 		.4byte	.LASF103
 2041 0862 0F       		.byte	0xf
 2042 0863 8A       		.byte	0x8a
 2043 0864 1F080000 		.4byte	0x81f
 2044 0868 02       		.byte	0x2
 2045 0869 23       		.byte	0x23
 2046 086a 08       		.uleb128 0x8
 2047 086b 09       		.uleb128 0x9
 2048 086c F9010000 		.4byte	.LASF104
 2049 0870 0F       		.byte	0xf
 2050 0871 8A       		.byte	0x8a
 2051 0872 A1050000 		.4byte	0x5a1
 2052 0876 02       		.byte	0x2
 2053 0877 23       		.byte	0x23
 2054 0878 0C       		.uleb128 0xc
 2055 0879 09       		.uleb128 0x9
 2056 087a 29020000 		.4byte	.LASF105
 2057 087e 0F       		.byte	0xf
 2058 087f 8A       		.byte	0x8a
 2059 0880 AC050000 		.4byte	0x5ac
 2060 0884 02       		.byte	0x2
 2061 0885 23       		.byte	0x23
 2062 0886 30       		.uleb128 0x30
 2063 0887 0A       		.uleb128 0xa
 2064 0888 696200   		.ascii	"ib\000"
 2065 088b 0F       		.byte	0xf
 2066 088c 8A       		.byte	0x8a
 2067 088d 84090000 		.4byte	0x984
 2068 0891 02       		.byte	0x2
 2069 0892 23       		.byte	0x23
 2070 0893 54       		.uleb128 0x54
 2071 0894 0A       		.uleb128 0xa
 2072 0895 6F6200   		.ascii	"ob\000"
 2073 0898 0F       		.byte	0xf
 2074 0899 8A       		.byte	0x8a
 2075 089a 84090000 		.4byte	0x984
 2076 089e 02       		.byte	0x2
 2077 089f 23       		.byte	0x23
 2078 08a0 64       		.uleb128 0x64
 2079 08a1 09       		.uleb128 0x9
 2080 08a2 B9010000 		.4byte	.LASF106
 2081 08a6 0F       		.byte	0xf
 2082 08a7 8A       		.byte	0x8a
 2083 08a8 94090000 		.4byte	0x994
 2084 08ac 02       		.byte	0x2
 2085 08ad 23       		.byte	0x23
 2086 08ae 74       		.uleb128 0x74
 2087 08af 00       		.byte	0x0
 2088 08b0 0B       		.uleb128 0xb
 2089 08b1 0C       		.byte	0xc
ARM GAS  C:\Users\DNIEL~1\AppData\Local\Temp\ccsHMJp3.s 			page 39


 2090 08b2 10       		.byte	0x10
 2091 08b3 D7       		.byte	0xd7
 2092 08b4 F1080000 		.4byte	0x8f1
 2093 08b8 09       		.uleb128 0x9
 2094 08b9 70020000 		.4byte	.LASF107
 2095 08bd 10       		.byte	0x10
 2096 08be DB       		.byte	0xdb
 2097 08bf B5000000 		.4byte	0xb5
 2098 08c3 02       		.byte	0x2
 2099 08c4 23       		.byte	0x23
 2100 08c5 00       		.uleb128 0x0
 2101 08c6 0A       		.uleb128 0xa
 2102 08c7 63723100 		.ascii	"cr1\000"
 2103 08cb 10       		.byte	0x10
 2104 08cc E0       		.byte	0xe0
 2105 08cd 9F000000 		.4byte	0x9f
 2106 08d1 02       		.byte	0x2
 2107 08d2 23       		.byte	0x23
 2108 08d3 04       		.uleb128 0x4
 2109 08d4 0A       		.uleb128 0xa
 2110 08d5 63723200 		.ascii	"cr2\000"
 2111 08d9 10       		.byte	0x10
 2112 08da E4       		.byte	0xe4
 2113 08db 9F000000 		.4byte	0x9f
 2114 08df 02       		.byte	0x2
 2115 08e0 23       		.byte	0x23
 2116 08e1 06       		.uleb128 0x6
 2117 08e2 0A       		.uleb128 0xa
 2118 08e3 63723300 		.ascii	"cr3\000"
 2119 08e7 10       		.byte	0x10
 2120 08e8 E8       		.byte	0xe8
 2121 08e9 9F000000 		.4byte	0x9f
 2122 08ed 02       		.byte	0x2
 2123 08ee 23       		.byte	0x23
 2124 08ef 08       		.uleb128 0x8
 2125 08f0 00       		.byte	0x0
 2126 08f1 07       		.uleb128 0x7
 2127 08f2 20030000 		.4byte	.LASF108
 2128 08f6 10       		.byte	0x10
 2129 08f7 E9       		.byte	0xe9
 2130 08f8 B0080000 		.4byte	0x8b0
 2131 08fc 08       		.uleb128 0x8
 2132 08fd D5010000 		.4byte	.LASF109
 2133 0901 20       		.byte	0x20
 2134 0902 0F       		.byte	0xf
 2135 0903 7C       		.byte	0x7c
 2136 0904 79090000 		.4byte	0x979
 2137 0908 09       		.uleb128 0x9
 2138 0909 A1020000 		.4byte	.LASF85
 2139 090d 0F       		.byte	0xf
 2140 090e 7D       		.byte	0x7d
 2141 090f 21060000 		.4byte	0x621
 2142 0913 02       		.byte	0x2
 2143 0914 23       		.byte	0x23
 2144 0915 00       		.uleb128 0x0
 2145 0916 09       		.uleb128 0x9
 2146 0917 9C040000 		.4byte	.LASF86
ARM GAS  C:\Users\DNIEL~1\AppData\Local\Temp\ccsHMJp3.s 			page 40


 2147 091b 0F       		.byte	0xf
 2148 091c 7D       		.byte	0x7d
 2149 091d 41060000 		.4byte	0x641
 2150 0921 02       		.byte	0x2
 2151 0922 23       		.byte	0x23
 2152 0923 04       		.uleb128 0x4
 2153 0924 0A       		.uleb128 0xa
 2154 0925 70757400 		.ascii	"put\000"
 2155 0929 0F       		.byte	0xf
 2156 092a 7D       		.byte	0x7d
 2157 092b 5C060000 		.4byte	0x65c
 2158 092f 02       		.byte	0x2
 2159 0930 23       		.byte	0x23
 2160 0931 08       		.uleb128 0x8
 2161 0932 0A       		.uleb128 0xa
 2162 0933 67657400 		.ascii	"get\000"
 2163 0937 0F       		.byte	0xf
 2164 0938 7D       		.byte	0x7d
 2165 0939 DA040000 		.4byte	0x4da
 2166 093d 02       		.byte	0x2
 2167 093e 23       		.byte	0x23
 2168 093f 0C       		.uleb128 0xc
 2169 0940 09       		.uleb128 0x9
 2170 0941 A7020000 		.4byte	.LASF110
 2171 0945 0F       		.byte	0xf
 2172 0946 7D       		.byte	0x7d
 2173 0947 99070000 		.4byte	0x799
 2174 094b 02       		.byte	0x2
 2175 094c 23       		.byte	0x23
 2176 094d 10       		.uleb128 0x10
 2177 094e 09       		.uleb128 0x9
 2178 094f 0B020000 		.4byte	.LASF111
 2179 0953 0F       		.byte	0xf
 2180 0954 7D       		.byte	0x7d
 2181 0955 B4070000 		.4byte	0x7b4
 2182 0959 02       		.byte	0x2
 2183 095a 23       		.byte	0x23
 2184 095b 14       		.uleb128 0x14
 2185 095c 09       		.uleb128 0x9
 2186 095d 3E020000 		.4byte	.LASF112
 2187 0961 0F       		.byte	0xf
 2188 0962 7D       		.byte	0x7d
 2189 0963 D9070000 		.4byte	0x7d9
 2190 0967 02       		.byte	0x2
 2191 0968 23       		.byte	0x23
 2192 0969 18       		.uleb128 0x18
 2193 096a 09       		.uleb128 0x9
 2194 096b 89000000 		.4byte	.LASF113
 2195 096f 0F       		.byte	0xf
 2196 0970 7D       		.byte	0x7d
 2197 0971 FE070000 		.4byte	0x7fe
 2198 0975 02       		.byte	0x2
 2199 0976 23       		.byte	0x23
 2200 0977 1C       		.uleb128 0x1c
 2201 0978 00       		.byte	0x0
 2202 0979 05       		.uleb128 0x5
 2203 097a 04       		.byte	0x4
ARM GAS  C:\Users\DNIEL~1\AppData\Local\Temp\ccsHMJp3.s 			page 41


 2204 097b 7F090000 		.4byte	0x97f
 2205 097f 06       		.uleb128 0x6
 2206 0980 FC080000 		.4byte	0x8fc
 2207 0984 19       		.uleb128 0x19
 2208 0985 94000000 		.4byte	0x94
 2209 0989 94090000 		.4byte	0x994
 2210 098d 1A       		.uleb128 0x1a
 2211 098e 4C000000 		.4byte	0x4c
 2212 0992 0F       		.byte	0xf
 2213 0993 00       		.byte	0x0
 2214 0994 05       		.uleb128 0x5
 2215 0995 04       		.byte	0x4
 2216 0996 73070000 		.4byte	0x773
 2217 099a 07       		.uleb128 0x7
 2218 099b 03030000 		.4byte	.LASF114
 2219 099f 11       		.byte	0x11
 2220 09a0 2D       		.byte	0x2d
 2221 09a1 A5090000 		.4byte	0x9a5
 2222 09a5 05       		.uleb128 0x5
 2223 09a6 04       		.byte	0x4
 2224 09a7 AB090000 		.4byte	0x9ab
 2225 09ab 13       		.uleb128 0x13
 2226 09ac 01       		.byte	0x1
 2227 09ad C1090000 		.4byte	0x9c1
 2228 09b1 12       		.uleb128 0x12
 2229 09b2 C1090000 		.4byte	0x9c1
 2230 09b6 12       		.uleb128 0x12
 2231 09b7 45000000 		.4byte	0x45
 2232 09bb 12       		.uleb128 0x12
 2233 09bc C7090000 		.4byte	0x9c7
 2234 09c0 00       		.byte	0x0
 2235 09c1 05       		.uleb128 0x5
 2236 09c2 04       		.byte	0x4
 2237 09c3 84060000 		.4byte	0x684
 2238 09c7 05       		.uleb128 0x5
 2239 09c8 04       		.byte	0x4
 2240 09c9 71000000 		.4byte	0x71
 2241 09cd 0B       		.uleb128 0xb
 2242 09ce 08       		.byte	0x8
 2243 09cf 11       		.byte	0x11
 2244 09d0 32       		.byte	0x32
 2245 09d1 F2090000 		.4byte	0x9f2
 2246 09d5 09       		.uleb128 0x9
 2247 09d6 90010000 		.4byte	.LASF115
 2248 09da 11       		.byte	0x11
 2249 09db 33       		.byte	0x33
 2250 09dc 7E000000 		.4byte	0x7e
 2251 09e0 02       		.byte	0x2
 2252 09e1 23       		.byte	0x23
 2253 09e2 00       		.uleb128 0x0
 2254 09e3 09       		.uleb128 0x9
 2255 09e4 48050000 		.4byte	.LASF116
 2256 09e8 11       		.byte	0x11
 2257 09e9 34       		.byte	0x34
 2258 09ea 9A090000 		.4byte	0x99a
 2259 09ee 02       		.byte	0x2
 2260 09ef 23       		.byte	0x23
ARM GAS  C:\Users\DNIEL~1\AppData\Local\Temp\ccsHMJp3.s 			page 42


 2261 09f0 04       		.uleb128 0x4
 2262 09f1 00       		.byte	0x0
 2263 09f2 07       		.uleb128 0x7
 2264 09f3 16010000 		.4byte	.LASF117
 2265 09f7 11       		.byte	0x11
 2266 09f8 35       		.byte	0x35
 2267 09f9 CD090000 		.4byte	0x9cd
 2268 09fd 0B       		.uleb128 0xb
 2269 09fe 08       		.byte	0x8
 2270 09ff 11       		.byte	0x11
 2271 0a00 3A       		.byte	0x3a
 2272 0a01 220A0000 		.4byte	0xa22
 2273 0a05 09       		.uleb128 0x9
 2274 0a06 F2000000 		.4byte	.LASF118
 2275 0a0a 11       		.byte	0x11
 2276 0a0b 3B       		.byte	0x3b
 2277 0a0c C1090000 		.4byte	0x9c1
 2278 0a10 02       		.byte	0x2
 2279 0a11 23       		.byte	0x23
 2280 0a12 00       		.uleb128 0x0
 2281 0a13 09       		.uleb128 0x9
 2282 0a14 ED010000 		.4byte	.LASF119
 2283 0a18 11       		.byte	0x11
 2284 0a19 3D       		.byte	0x3d
 2285 0a1a 220A0000 		.4byte	0xa22
 2286 0a1e 02       		.byte	0x2
 2287 0a1f 23       		.byte	0x23
 2288 0a20 04       		.uleb128 0x4
 2289 0a21 00       		.byte	0x0
 2290 0a22 05       		.uleb128 0x5
 2291 0a23 04       		.byte	0x4
 2292 0a24 280A0000 		.4byte	0xa28
 2293 0a28 06       		.uleb128 0x6
 2294 0a29 F2090000 		.4byte	0x9f2
 2295 0a2d 07       		.uleb128 0x7
 2296 0a2e C9040000 		.4byte	.LASF120
 2297 0a32 11       		.byte	0x11
 2298 0a33 3F       		.byte	0x3f
 2299 0a34 FD090000 		.4byte	0x9fd
 2300 0a38 07       		.uleb128 0x7
 2301 0a39 D1020000 		.4byte	.LASF121
 2302 0a3d 12       		.byte	0x12
 2303 0a3e 28       		.byte	0x28
 2304 0a3f 430A0000 		.4byte	0xa43
 2305 0a43 08       		.uleb128 0x8
 2306 0a44 2C010000 		.4byte	.LASF122
 2307 0a48 04       		.byte	0x4
 2308 0a49 13       		.byte	0x13
 2309 0a4a 00       		.byte	0x0
 2310 0a4b 5D0A0000 		.4byte	0xa5d
 2311 0a4f 1B       		.uleb128 0x1b
 2312 0a50 DB040000 		.4byte	.LASF123
 2313 0a54 68000000 		.4byte	0x68
 2314 0a58 02       		.byte	0x2
 2315 0a59 23       		.byte	0x23
 2316 0a5a 00       		.uleb128 0x0
 2317 0a5b 01       		.byte	0x1
ARM GAS  C:\Users\DNIEL~1\AppData\Local\Temp\ccsHMJp3.s 			page 43


 2318 0a5c 00       		.byte	0x0
 2319 0a5d 07       		.uleb128 0x7
 2320 0a5e 1A000000 		.4byte	.LASF124
 2321 0a62 12       		.byte	0x12
 2322 0a63 66       		.byte	0x66
 2323 0a64 380A0000 		.4byte	0xa38
 2324 0a68 02       		.uleb128 0x2
 2325 0a69 08       		.byte	0x8
 2326 0a6a 04       		.byte	0x4
 2327 0a6b 55010000 		.4byte	.LASF125
 2328 0a6f 02       		.uleb128 0x2
 2329 0a70 04       		.byte	0x4
 2330 0a71 04       		.byte	0x4
 2331 0a72 2D030000 		.4byte	.LASF126
 2332 0a76 02       		.uleb128 0x2
 2333 0a77 08       		.byte	0x8
 2334 0a78 04       		.byte	0x4
 2335 0a79 BF020000 		.4byte	.LASF127
 2336 0a7d 1C       		.uleb128 0x1c
 2337 0a7e AA050000 		.4byte	.LASF148
 2338 0a82 01       		.byte	0x1
 2339 0a83 45       		.byte	0x45
 2340 0a84 01       		.byte	0x1
 2341 0a85 00000000 		.4byte	.LFB118
 2342 0a89 1E000000 		.4byte	.LFE118
 2343 0a8d 00000000 		.4byte	.LLST0
 2344 0a91 C10A0000 		.4byte	0xac1
 2345 0a95 1D       		.uleb128 0x1d
 2346 0a96 63687000 		.ascii	"chp\000"
 2347 0a9a 01       		.byte	0x1
 2348 0a9b 45       		.byte	0x45
 2349 0a9c C1090000 		.4byte	0x9c1
 2350 0aa0 38000000 		.4byte	.LLST1
 2351 0aa4 1E       		.uleb128 0x1e
 2352 0aa5 666D7400 		.ascii	"fmt\000"
 2353 0aa9 01       		.byte	0x1
 2354 0aaa 45       		.byte	0x45
 2355 0aab 7E000000 		.4byte	0x7e
 2356 0aaf 02       		.byte	0x2
 2357 0ab0 91       		.byte	0x91
 2358 0ab1 74       		.sleb128 -12
 2359 0ab2 1F       		.uleb128 0x1f
 2360 0ab3 20       		.uleb128 0x20
 2361 0ab4 617000   		.ascii	"ap\000"
 2362 0ab7 01       		.byte	0x1
 2363 0ab8 46       		.byte	0x46
 2364 0ab9 5D0A0000 		.4byte	0xa5d
 2365 0abd 02       		.byte	0x2
 2366 0abe 91       		.byte	0x91
 2367 0abf 6C       		.sleb128 -20
 2368 0ac0 00       		.byte	0x0
 2369 0ac1 21       		.uleb128 0x21
 2370 0ac2 01       		.byte	0x1
 2371 0ac3 AC020000 		.4byte	.LASF130
 2372 0ac7 02       		.byte	0x2
 2373 0ac8 7A       		.byte	0x7a
 2374 0ac9 01       		.byte	0x1
ARM GAS  C:\Users\DNIEL~1\AppData\Local\Temp\ccsHMJp3.s 			page 44


 2375 0aca 00000000 		.4byte	.LFB126
 2376 0ace 54000000 		.4byte	.LFE126
 2377 0ad2 4B000000 		.4byte	.LLST2
 2378 0ad6 160B0000 		.4byte	0xb16
 2379 0ada 1D       		.uleb128 0x1d
 2380 0adb 63687000 		.ascii	"chp\000"
 2381 0adf 02       		.byte	0x2
 2382 0ae0 7A       		.byte	0x7a
 2383 0ae1 C1090000 		.4byte	0x9c1
 2384 0ae5 77000000 		.4byte	.LLST3
 2385 0ae9 22       		.uleb128 0x22
 2386 0aea 80050000 		.4byte	.LASF128
 2387 0aee 02       		.byte	0x2
 2388 0aef 7A       		.byte	0x7a
 2389 0af0 45000000 		.4byte	0x45
 2390 0af4 95000000 		.4byte	.LLST4
 2391 0af8 22       		.uleb128 0x22
 2392 0af9 0D050000 		.4byte	.LASF129
 2393 0afd 02       		.byte	0x2
 2394 0afe 7A       		.byte	0x7a
 2395 0aff C7090000 		.4byte	0x9c7
 2396 0b03 B3000000 		.4byte	.LLST5
 2397 0b07 23       		.uleb128 0x23
 2398 0b08 747000   		.ascii	"tp\000"
 2399 0b0b 02       		.byte	0x2
 2400 0b0c 7B       		.byte	0x7b
 2401 0b0d 7F020000 		.4byte	0x27f
 2402 0b11 D1000000 		.4byte	.LLST6
 2403 0b15 00       		.byte	0x0
 2404 0b16 21       		.uleb128 0x21
 2405 0b17 01       		.byte	0x1
 2406 0b18 22000000 		.4byte	.LASF131
 2407 0b1c 02       		.byte	0x2
 2408 0b1d 66       		.byte	0x66
 2409 0b1e 01       		.byte	0x1
 2410 0b1f 00000000 		.4byte	.LFB125
 2411 0b23 68000000 		.4byte	.LFE125
 2412 0b27 EF000000 		.4byte	.LLST7
 2413 0b2b 7C0B0000 		.4byte	0xb7c
 2414 0b2f 1D       		.uleb128 0x1d
 2415 0b30 63687000 		.ascii	"chp\000"
 2416 0b34 02       		.byte	0x2
 2417 0b35 66       		.byte	0x66
 2418 0b36 C1090000 		.4byte	0x9c1
 2419 0b3a 1B010000 		.4byte	.LLST8
 2420 0b3e 22       		.uleb128 0x22
 2421 0b3f 80050000 		.4byte	.LASF128
 2422 0b43 02       		.byte	0x2
 2423 0b44 66       		.byte	0x66
 2424 0b45 45000000 		.4byte	0x45
 2425 0b49 39010000 		.4byte	.LLST9
 2426 0b4d 22       		.uleb128 0x22
 2427 0b4e 0D050000 		.4byte	.LASF129
 2428 0b52 02       		.byte	0x2
 2429 0b53 66       		.byte	0x66
 2430 0b54 C7090000 		.4byte	0x9c7
 2431 0b58 57010000 		.4byte	.LLST10
ARM GAS  C:\Users\DNIEL~1\AppData\Local\Temp\ccsHMJp3.s 			page 45


 2432 0b5c 24       		.uleb128 0x24
 2433 0b5d A6040000 		.4byte	.LASF132
 2434 0b61 02       		.byte	0x2
 2435 0b62 67       		.byte	0x67
 2436 0b63 8C0B0000 		.4byte	0xb8c
 2437 0b67 05       		.byte	0x5
 2438 0b68 03       		.byte	0x3
 2439 0b69 00000000 		.4byte	states.8595
 2440 0b6d 23       		.uleb128 0x23
 2441 0b6e 747000   		.ascii	"tp\000"
 2442 0b71 02       		.byte	0x2
 2443 0b72 68       		.byte	0x68
 2444 0b73 7F020000 		.4byte	0x27f
 2445 0b77 75010000 		.4byte	.LLST11
 2446 0b7b 00       		.byte	0x0
 2447 0b7c 19       		.uleb128 0x19
 2448 0b7d 7E000000 		.4byte	0x7e
 2449 0b81 8C0B0000 		.4byte	0xb8c
 2450 0b85 1A       		.uleb128 0x1a
 2451 0b86 4C000000 		.4byte	0x4c
 2452 0b8a 0E       		.byte	0xe
 2453 0b8b 00       		.byte	0x0
 2454 0b8c 06       		.uleb128 0x6
 2455 0b8d 7C0B0000 		.4byte	0xb7c
 2456 0b91 21       		.uleb128 0x21
 2457 0b92 01       		.byte	0x1
 2458 0b93 E5010000 		.4byte	.LASF133
 2459 0b97 02       		.byte	0x2
 2460 0b98 58       		.byte	0x58
 2461 0b99 01       		.byte	0x1
 2462 0b9a 00000000 		.4byte	.LFB124
 2463 0b9e 54000000 		.4byte	.LFE124
 2464 0ba2 9E010000 		.4byte	.LLST12
 2465 0ba6 F40B0000 		.4byte	0xbf4
 2466 0baa 1D       		.uleb128 0x1d
 2467 0bab 63687000 		.ascii	"chp\000"
 2468 0baf 02       		.byte	0x2
 2469 0bb0 58       		.byte	0x58
 2470 0bb1 C1090000 		.4byte	0x9c1
 2471 0bb5 CA010000 		.4byte	.LLST13
 2472 0bb9 22       		.uleb128 0x22
 2473 0bba 80050000 		.4byte	.LASF128
 2474 0bbe 02       		.byte	0x2
 2475 0bbf 58       		.byte	0x58
 2476 0bc0 45000000 		.4byte	0x45
 2477 0bc4 E8010000 		.4byte	.LLST14
 2478 0bc8 22       		.uleb128 0x22
 2479 0bc9 0D050000 		.4byte	.LASF129
 2480 0bcd 02       		.byte	0x2
 2481 0bce 58       		.byte	0x58
 2482 0bcf C7090000 		.4byte	0x9c7
 2483 0bd3 06020000 		.4byte	.LLST15
 2484 0bd7 23       		.uleb128 0x23
 2485 0bd8 6E00     		.ascii	"n\000"
 2486 0bda 02       		.byte	0x2
 2487 0bdb 59       		.byte	0x59
 2488 0bdc 89000000 		.4byte	0x89
ARM GAS  C:\Users\DNIEL~1\AppData\Local\Temp\ccsHMJp3.s 			page 46


 2489 0be0 24020000 		.4byte	.LLST16
 2490 0be4 25       		.uleb128 0x25
 2491 0be5 16020000 		.4byte	.LASF134
 2492 0be9 02       		.byte	0x2
 2493 0bea 59       		.byte	0x59
 2494 0beb 89000000 		.4byte	0x89
 2495 0bef 42020000 		.4byte	.LLST17
 2496 0bf3 00       		.byte	0x0
 2497 0bf4 26       		.uleb128 0x26
 2498 0bf5 01       		.byte	0x1
 2499 0bf6 46010000 		.4byte	.LASF149
 2500 0bfa 02       		.byte	0x2
 2501 0bfb 17       		.byte	0x17
 2502 0bfc 01       		.byte	0x1
 2503 0bfd 45000000 		.4byte	0x45
 2504 0c01 00000000 		.4byte	.LFB119
 2505 0c05 04000000 		.4byte	.LFE119
 2506 0c09 02       		.byte	0x2
 2507 0c0a 7D       		.byte	0x7d
 2508 0c0b 00       		.sleb128 0
 2509 0c0c 27       		.uleb128 0x27
 2510 0c0d 01       		.byte	0x1
 2511 0c0e 8F000000 		.4byte	.LASF135
 2512 0c12 02       		.byte	0x2
 2513 0c13 19       		.byte	0x19
 2514 0c14 01       		.byte	0x1
 2515 0c15 00000000 		.4byte	.LFB120
 2516 0c19 02000000 		.4byte	.LFE120
 2517 0c1d 02       		.byte	0x2
 2518 0c1e 7D       		.byte	0x7d
 2519 0c1f 00       		.sleb128 0
 2520 0c20 300C0000 		.4byte	0xc30
 2521 0c24 1E       		.uleb128 0x1e
 2522 0c25 6900     		.ascii	"i\000"
 2523 0c27 02       		.byte	0x2
 2524 0c28 19       		.byte	0x19
 2525 0c29 45000000 		.4byte	0x45
 2526 0c2d 01       		.byte	0x1
 2527 0c2e 50       		.byte	0x50
 2528 0c2f 00       		.byte	0x0
 2529 0c30 28       		.uleb128 0x28
 2530 0c31 01       		.byte	0x1
 2531 0c32 D5040000 		.4byte	.LASF150
 2532 0c36 02       		.byte	0x2
 2533 0c37 1E       		.byte	0x1e
 2534 0c38 01       		.byte	0x1
 2535 0c39 45000000 		.4byte	0x45
 2536 0c3d 00000000 		.4byte	.LFB121
 2537 0c41 10000000 		.4byte	.LFE121
 2538 0c45 02       		.byte	0x2
 2539 0c46 7D       		.byte	0x7d
 2540 0c47 00       		.sleb128 0
 2541 0c48 690C0000 		.4byte	0xc69
 2542 0c4c 1D       		.uleb128 0x1d
 2543 0c4d 70696400 		.ascii	"pid\000"
 2544 0c51 02       		.byte	0x2
 2545 0c52 1E       		.byte	0x1e
ARM GAS  C:\Users\DNIEL~1\AppData\Local\Temp\ccsHMJp3.s 			page 47


 2546 0c53 45000000 		.4byte	0x45
 2547 0c57 62020000 		.4byte	.LLST18
 2548 0c5b 1E       		.uleb128 0x1e
 2549 0c5c 73696700 		.ascii	"sig\000"
 2550 0c60 02       		.byte	0x2
 2551 0c61 1E       		.byte	0x1e
 2552 0c62 45000000 		.4byte	0x45
 2553 0c66 01       		.byte	0x1
 2554 0c67 51       		.byte	0x51
 2555 0c68 00       		.byte	0x0
 2556 0c69 29       		.uleb128 0x29
 2557 0c6a 01       		.byte	0x1
 2558 0c6b 76000000 		.4byte	.LASF136
 2559 0c6f 02       		.byte	0x2
 2560 0c70 46       		.byte	0x46
 2561 0c71 01       		.byte	0x1
 2562 0c72 00000000 		.4byte	.LFB122
 2563 0c76 24000000 		.4byte	.LFE122
 2564 0c7a 75020000 		.4byte	.LLST19
 2565 0c7e 29       		.uleb128 0x29
 2566 0c7f 01       		.byte	0x1
 2567 0c80 2E000000 		.4byte	.LASF137
 2568 0c84 02       		.byte	0x2
 2569 0c85 4E       		.byte	0x4e
 2570 0c86 01       		.byte	0x1
 2571 0c87 00000000 		.4byte	.LFB123
 2572 0c8b 34000000 		.4byte	.LFE123
 2573 0c8f 95020000 		.4byte	.LLST20
 2574 0c93 2A       		.uleb128 0x2a
 2575 0c94 3A050000 		.4byte	.LASF138
 2576 0c98 09       		.byte	0x9
 2577 0c99 6F       		.byte	0x6f
 2578 0c9a D0030000 		.4byte	0x3d0
 2579 0c9e 01       		.byte	0x1
 2580 0c9f 01       		.byte	0x1
 2581 0ca0 2B       		.uleb128 0x2b
 2582 0ca1 69000000 		.4byte	.LASF139
 2583 0ca5 14       		.byte	0x14
 2584 0ca6 9806     		.2byte	0x698
 2585 0ca8 94060000 		.4byte	0x694
 2586 0cac 01       		.byte	0x1
 2587 0cad 01       		.byte	0x1
 2588 0cae 2C       		.uleb128 0x2c
 2589 0caf 53443100 		.ascii	"SD1\000"
 2590 0cb3 10       		.byte	0x10
 2591 0cb4 0F01     		.2byte	0x10f
 2592 0cb6 2A080000 		.4byte	0x82a
 2593 0cba 01       		.byte	0x1
 2594 0cbb 01       		.byte	0x1
 2595 0cbc 2A       		.uleb128 0x2a
 2596 0cbd 9B020000 		.4byte	.LASF140
 2597 0cc1 02       		.byte	0x2
 2598 0cc2 1D       		.byte	0x1d
 2599 0cc3 45000000 		.4byte	0x45
 2600 0cc7 01       		.byte	0x1
 2601 0cc8 01       		.byte	0x1
 2602 0cc9 24       		.uleb128 0x24
ARM GAS  C:\Users\DNIEL~1\AppData\Local\Temp\ccsHMJp3.s 			page 48


 2603 0cca 77010000 		.4byte	.LASF141
 2604 0cce 02       		.byte	0x2
 2605 0ccf 28       		.byte	0x28
 2606 0cd0 F1080000 		.4byte	0x8f1
 2607 0cd4 05       		.byte	0x5
 2608 0cd5 03       		.byte	0x3
 2609 0cd6 00000000 		.4byte	ser_cfg
 2610 0cda 2A       		.uleb128 0x2a
 2611 0cdb 52000000 		.4byte	.LASF142
 2612 0cdf 02       		.byte	0x2
 2613 0ce0 33       		.byte	0x33
 2614 0ce1 7F020000 		.4byte	0x27f
 2615 0ce5 01       		.byte	0x1
 2616 0ce6 01       		.byte	0x1
 2617 0ce7 19       		.uleb128 0x19
 2618 0ce8 F2090000 		.4byte	0x9f2
 2619 0cec F70C0000 		.4byte	0xcf7
 2620 0cf0 1A       		.uleb128 0x1a
 2621 0cf1 4C000000 		.4byte	0x4c
 2622 0cf5 07       		.byte	0x7
 2623 0cf6 00       		.byte	0x0
 2624 0cf7 24       		.uleb128 0x24
 2625 0cf8 04050000 		.4byte	.LASF143
 2626 0cfc 02       		.byte	0x2
 2627 0cfd 35       		.byte	0x35
 2628 0cfe 080D0000 		.4byte	0xd08
 2629 0d02 05       		.byte	0x5
 2630 0d03 03       		.byte	0x3
 2631 0d04 00000000 		.4byte	commands
 2632 0d08 06       		.uleb128 0x6
 2633 0d09 E70C0000 		.4byte	0xce7
 2634 0d0d 24       		.uleb128 0x24
 2635 0d0e 54050000 		.4byte	.LASF144
 2636 0d12 02       		.byte	0x2
 2637 0d13 41       		.byte	0x41
 2638 0d14 1E0D0000 		.4byte	0xd1e
 2639 0d18 05       		.byte	0x5
 2640 0d19 03       		.byte	0x3
 2641 0d1a 00000000 		.4byte	shell_cfg1
 2642 0d1e 06       		.uleb128 0x6
 2643 0d1f 2D0A0000 		.4byte	0xa2d
 2644 0d23 2A       		.uleb128 0x2a
 2645 0d24 3A050000 		.4byte	.LASF138
 2646 0d28 09       		.byte	0x9
 2647 0d29 6F       		.byte	0x6f
 2648 0d2a D0030000 		.4byte	0x3d0
 2649 0d2e 01       		.byte	0x1
 2650 0d2f 01       		.byte	0x1
 2651 0d30 2B       		.uleb128 0x2b
 2652 0d31 69000000 		.4byte	.LASF139
 2653 0d35 14       		.byte	0x14
 2654 0d36 9806     		.2byte	0x698
 2655 0d38 94060000 		.4byte	0x694
 2656 0d3c 01       		.byte	0x1
 2657 0d3d 01       		.byte	0x1
 2658 0d3e 2C       		.uleb128 0x2c
 2659 0d3f 53443100 		.ascii	"SD1\000"
ARM GAS  C:\Users\DNIEL~1\AppData\Local\Temp\ccsHMJp3.s 			page 49


 2660 0d43 10       		.byte	0x10
 2661 0d44 0F01     		.2byte	0x10f
 2662 0d46 2A080000 		.4byte	0x82a
 2663 0d4a 01       		.byte	0x1
 2664 0d4b 01       		.byte	0x1
 2665 0d4c 2A       		.uleb128 0x2a
 2666 0d4d 9B020000 		.4byte	.LASF140
 2667 0d51 02       		.byte	0x2
 2668 0d52 1D       		.byte	0x1d
 2669 0d53 45000000 		.4byte	0x45
 2670 0d57 01       		.byte	0x1
 2671 0d58 01       		.byte	0x1
 2672 0d59 2D       		.uleb128 0x2d
 2673 0d5a 52000000 		.4byte	.LASF142
 2674 0d5e 02       		.byte	0x2
 2675 0d5f 33       		.byte	0x33
 2676 0d60 7F020000 		.4byte	0x27f
 2677 0d64 01       		.byte	0x1
 2678 0d65 05       		.byte	0x5
 2679 0d66 03       		.byte	0x3
 2680 0d67 00000000 		.4byte	consoleThread
 2681 0d6b 00       		.byte	0x0
 2682              		.section	.debug_abbrev
 2683 0000 01       		.uleb128 0x1
 2684 0001 11       		.uleb128 0x11
 2685 0002 01       		.byte	0x1
 2686 0003 25       		.uleb128 0x25
 2687 0004 0E       		.uleb128 0xe
 2688 0005 13       		.uleb128 0x13
 2689 0006 0B       		.uleb128 0xb
 2690 0007 03       		.uleb128 0x3
 2691 0008 0E       		.uleb128 0xe
 2692 0009 1B       		.uleb128 0x1b
 2693 000a 0E       		.uleb128 0xe
 2694 000b 11       		.uleb128 0x11
 2695 000c 01       		.uleb128 0x1
 2696 000d 52       		.uleb128 0x52
 2697 000e 01       		.uleb128 0x1
 2698 000f 55       		.uleb128 0x55
 2699 0010 06       		.uleb128 0x6
 2700 0011 10       		.uleb128 0x10
 2701 0012 06       		.uleb128 0x6
 2702 0013 00       		.byte	0x0
 2703 0014 00       		.byte	0x0
 2704 0015 02       		.uleb128 0x2
 2705 0016 24       		.uleb128 0x24
 2706 0017 00       		.byte	0x0
 2707 0018 0B       		.uleb128 0xb
 2708 0019 0B       		.uleb128 0xb
 2709 001a 3E       		.uleb128 0x3e
 2710 001b 0B       		.uleb128 0xb
 2711 001c 03       		.uleb128 0x3
 2712 001d 0E       		.uleb128 0xe
 2713 001e 00       		.byte	0x0
 2714 001f 00       		.byte	0x0
 2715 0020 03       		.uleb128 0x3
 2716 0021 24       		.uleb128 0x24
ARM GAS  C:\Users\DNIEL~1\AppData\Local\Temp\ccsHMJp3.s 			page 50


 2717 0022 00       		.byte	0x0
 2718 0023 0B       		.uleb128 0xb
 2719 0024 0B       		.uleb128 0xb
 2720 0025 3E       		.uleb128 0x3e
 2721 0026 0B       		.uleb128 0xb
 2722 0027 03       		.uleb128 0x3
 2723 0028 08       		.uleb128 0x8
 2724 0029 00       		.byte	0x0
 2725 002a 00       		.byte	0x0
 2726 002b 04       		.uleb128 0x4
 2727 002c 0F       		.uleb128 0xf
 2728 002d 00       		.byte	0x0
 2729 002e 0B       		.uleb128 0xb
 2730 002f 0B       		.uleb128 0xb
 2731 0030 00       		.byte	0x0
 2732 0031 00       		.byte	0x0
 2733 0032 05       		.uleb128 0x5
 2734 0033 0F       		.uleb128 0xf
 2735 0034 00       		.byte	0x0
 2736 0035 0B       		.uleb128 0xb
 2737 0036 0B       		.uleb128 0xb
 2738 0037 49       		.uleb128 0x49
 2739 0038 13       		.uleb128 0x13
 2740 0039 00       		.byte	0x0
 2741 003a 00       		.byte	0x0
 2742 003b 06       		.uleb128 0x6
 2743 003c 26       		.uleb128 0x26
 2744 003d 00       		.byte	0x0
 2745 003e 49       		.uleb128 0x49
 2746 003f 13       		.uleb128 0x13
 2747 0040 00       		.byte	0x0
 2748 0041 00       		.byte	0x0
 2749 0042 07       		.uleb128 0x7
 2750 0043 16       		.uleb128 0x16
 2751 0044 00       		.byte	0x0
 2752 0045 03       		.uleb128 0x3
 2753 0046 0E       		.uleb128 0xe
 2754 0047 3A       		.uleb128 0x3a
 2755 0048 0B       		.uleb128 0xb
 2756 0049 3B       		.uleb128 0x3b
 2757 004a 0B       		.uleb128 0xb
 2758 004b 49       		.uleb128 0x49
 2759 004c 13       		.uleb128 0x13
 2760 004d 00       		.byte	0x0
 2761 004e 00       		.byte	0x0
 2762 004f 08       		.uleb128 0x8
 2763 0050 13       		.uleb128 0x13
 2764 0051 01       		.byte	0x1
 2765 0052 03       		.uleb128 0x3
 2766 0053 0E       		.uleb128 0xe
 2767 0054 0B       		.uleb128 0xb
 2768 0055 0B       		.uleb128 0xb
 2769 0056 3A       		.uleb128 0x3a
 2770 0057 0B       		.uleb128 0xb
 2771 0058 3B       		.uleb128 0x3b
 2772 0059 0B       		.uleb128 0xb
 2773 005a 01       		.uleb128 0x1
ARM GAS  C:\Users\DNIEL~1\AppData\Local\Temp\ccsHMJp3.s 			page 51


 2774 005b 13       		.uleb128 0x13
 2775 005c 00       		.byte	0x0
 2776 005d 00       		.byte	0x0
 2777 005e 09       		.uleb128 0x9
 2778 005f 0D       		.uleb128 0xd
 2779 0060 00       		.byte	0x0
 2780 0061 03       		.uleb128 0x3
 2781 0062 0E       		.uleb128 0xe
 2782 0063 3A       		.uleb128 0x3a
 2783 0064 0B       		.uleb128 0xb
 2784 0065 3B       		.uleb128 0x3b
 2785 0066 0B       		.uleb128 0xb
 2786 0067 49       		.uleb128 0x49
 2787 0068 13       		.uleb128 0x13
 2788 0069 38       		.uleb128 0x38
 2789 006a 0A       		.uleb128 0xa
 2790 006b 00       		.byte	0x0
 2791 006c 00       		.byte	0x0
 2792 006d 0A       		.uleb128 0xa
 2793 006e 0D       		.uleb128 0xd
 2794 006f 00       		.byte	0x0
 2795 0070 03       		.uleb128 0x3
 2796 0071 08       		.uleb128 0x8
 2797 0072 3A       		.uleb128 0x3a
 2798 0073 0B       		.uleb128 0xb
 2799 0074 3B       		.uleb128 0x3b
 2800 0075 0B       		.uleb128 0xb
 2801 0076 49       		.uleb128 0x49
 2802 0077 13       		.uleb128 0x13
 2803 0078 38       		.uleb128 0x38
 2804 0079 0A       		.uleb128 0xa
 2805 007a 00       		.byte	0x0
 2806 007b 00       		.byte	0x0
 2807 007c 0B       		.uleb128 0xb
 2808 007d 13       		.uleb128 0x13
 2809 007e 01       		.byte	0x1
 2810 007f 0B       		.uleb128 0xb
 2811 0080 0B       		.uleb128 0xb
 2812 0081 3A       		.uleb128 0x3a
 2813 0082 0B       		.uleb128 0xb
 2814 0083 3B       		.uleb128 0x3b
 2815 0084 0B       		.uleb128 0xb
 2816 0085 01       		.uleb128 0x1
 2817 0086 13       		.uleb128 0x13
 2818 0087 00       		.byte	0x0
 2819 0088 00       		.byte	0x0
 2820 0089 0C       		.uleb128 0xc
 2821 008a 13       		.uleb128 0x13
 2822 008b 01       		.byte	0x1
 2823 008c 03       		.uleb128 0x3
 2824 008d 0E       		.uleb128 0xe
 2825 008e 0B       		.uleb128 0xb
 2826 008f 0B       		.uleb128 0xb
 2827 0090 3A       		.uleb128 0x3a
 2828 0091 0B       		.uleb128 0xb
 2829 0092 3B       		.uleb128 0x3b
 2830 0093 05       		.uleb128 0x5
ARM GAS  C:\Users\DNIEL~1\AppData\Local\Temp\ccsHMJp3.s 			page 52


 2831 0094 01       		.uleb128 0x1
 2832 0095 13       		.uleb128 0x13
 2833 0096 00       		.byte	0x0
 2834 0097 00       		.byte	0x0
 2835 0098 0D       		.uleb128 0xd
 2836 0099 0D       		.uleb128 0xd
 2837 009a 00       		.byte	0x0
 2838 009b 03       		.uleb128 0x3
 2839 009c 08       		.uleb128 0x8
 2840 009d 3A       		.uleb128 0x3a
 2841 009e 0B       		.uleb128 0xb
 2842 009f 3B       		.uleb128 0x3b
 2843 00a0 05       		.uleb128 0x5
 2844 00a1 49       		.uleb128 0x49
 2845 00a2 13       		.uleb128 0x13
 2846 00a3 38       		.uleb128 0x38
 2847 00a4 0A       		.uleb128 0xa
 2848 00a5 00       		.byte	0x0
 2849 00a6 00       		.byte	0x0
 2850 00a7 0E       		.uleb128 0xe
 2851 00a8 35       		.uleb128 0x35
 2852 00a9 00       		.byte	0x0
 2853 00aa 49       		.uleb128 0x49
 2854 00ab 13       		.uleb128 0x13
 2855 00ac 00       		.byte	0x0
 2856 00ad 00       		.byte	0x0
 2857 00ae 0F       		.uleb128 0xf
 2858 00af 17       		.uleb128 0x17
 2859 00b0 01       		.byte	0x1
 2860 00b1 0B       		.uleb128 0xb
 2861 00b2 0B       		.uleb128 0xb
 2862 00b3 3A       		.uleb128 0x3a
 2863 00b4 0B       		.uleb128 0xb
 2864 00b5 3B       		.uleb128 0x3b
 2865 00b6 0B       		.uleb128 0xb
 2866 00b7 01       		.uleb128 0x1
 2867 00b8 13       		.uleb128 0x13
 2868 00b9 00       		.byte	0x0
 2869 00ba 00       		.byte	0x0
 2870 00bb 10       		.uleb128 0x10
 2871 00bc 0D       		.uleb128 0xd
 2872 00bd 00       		.byte	0x0
 2873 00be 03       		.uleb128 0x3
 2874 00bf 0E       		.uleb128 0xe
 2875 00c0 3A       		.uleb128 0x3a
 2876 00c1 0B       		.uleb128 0xb
 2877 00c2 3B       		.uleb128 0x3b
 2878 00c3 0B       		.uleb128 0xb
 2879 00c4 49       		.uleb128 0x49
 2880 00c5 13       		.uleb128 0x13
 2881 00c6 00       		.byte	0x0
 2882 00c7 00       		.byte	0x0
 2883 00c8 11       		.uleb128 0x11
 2884 00c9 15       		.uleb128 0x15
 2885 00ca 01       		.byte	0x1
 2886 00cb 27       		.uleb128 0x27
 2887 00cc 0C       		.uleb128 0xc
ARM GAS  C:\Users\DNIEL~1\AppData\Local\Temp\ccsHMJp3.s 			page 53


 2888 00cd 49       		.uleb128 0x49
 2889 00ce 13       		.uleb128 0x13
 2890 00cf 01       		.uleb128 0x1
 2891 00d0 13       		.uleb128 0x13
 2892 00d1 00       		.byte	0x0
 2893 00d2 00       		.byte	0x0
 2894 00d3 12       		.uleb128 0x12
 2895 00d4 05       		.uleb128 0x5
 2896 00d5 00       		.byte	0x0
 2897 00d6 49       		.uleb128 0x49
 2898 00d7 13       		.uleb128 0x13
 2899 00d8 00       		.byte	0x0
 2900 00d9 00       		.byte	0x0
 2901 00da 13       		.uleb128 0x13
 2902 00db 15       		.uleb128 0x15
 2903 00dc 01       		.byte	0x1
 2904 00dd 27       		.uleb128 0x27
 2905 00de 0C       		.uleb128 0xc
 2906 00df 01       		.uleb128 0x1
 2907 00e0 13       		.uleb128 0x13
 2908 00e1 00       		.byte	0x0
 2909 00e2 00       		.byte	0x0
 2910 00e3 14       		.uleb128 0x14
 2911 00e4 13       		.uleb128 0x13
 2912 00e5 01       		.byte	0x1
 2913 00e6 0B       		.uleb128 0xb
 2914 00e7 0B       		.uleb128 0xb
 2915 00e8 3A       		.uleb128 0x3a
 2916 00e9 0B       		.uleb128 0xb
 2917 00ea 3B       		.uleb128 0x3b
 2918 00eb 05       		.uleb128 0x5
 2919 00ec 01       		.uleb128 0x1
 2920 00ed 13       		.uleb128 0x13
 2921 00ee 00       		.byte	0x0
 2922 00ef 00       		.byte	0x0
 2923 00f0 15       		.uleb128 0x15
 2924 00f1 0D       		.uleb128 0xd
 2925 00f2 00       		.byte	0x0
 2926 00f3 03       		.uleb128 0x3
 2927 00f4 0E       		.uleb128 0xe
 2928 00f5 3A       		.uleb128 0x3a
 2929 00f6 0B       		.uleb128 0xb
 2930 00f7 3B       		.uleb128 0x3b
 2931 00f8 05       		.uleb128 0x5
 2932 00f9 49       		.uleb128 0x49
 2933 00fa 13       		.uleb128 0x13
 2934 00fb 38       		.uleb128 0x38
 2935 00fc 0A       		.uleb128 0xa
 2936 00fd 00       		.byte	0x0
 2937 00fe 00       		.byte	0x0
 2938 00ff 16       		.uleb128 0x16
 2939 0100 16       		.uleb128 0x16
 2940 0101 00       		.byte	0x0
 2941 0102 03       		.uleb128 0x3
 2942 0103 0E       		.uleb128 0xe
 2943 0104 3A       		.uleb128 0x3a
 2944 0105 0B       		.uleb128 0xb
ARM GAS  C:\Users\DNIEL~1\AppData\Local\Temp\ccsHMJp3.s 			page 54


 2945 0106 3B       		.uleb128 0x3b
 2946 0107 05       		.uleb128 0x5
 2947 0108 49       		.uleb128 0x49
 2948 0109 13       		.uleb128 0x13
 2949 010a 00       		.byte	0x0
 2950 010b 00       		.byte	0x0
 2951 010c 17       		.uleb128 0x17
 2952 010d 04       		.uleb128 0x4
 2953 010e 01       		.byte	0x1
 2954 010f 0B       		.uleb128 0xb
 2955 0110 0B       		.uleb128 0xb
 2956 0111 3A       		.uleb128 0x3a
 2957 0112 0B       		.uleb128 0xb
 2958 0113 3B       		.uleb128 0x3b
 2959 0114 0B       		.uleb128 0xb
 2960 0115 01       		.uleb128 0x1
 2961 0116 13       		.uleb128 0x13
 2962 0117 00       		.byte	0x0
 2963 0118 00       		.byte	0x0
 2964 0119 18       		.uleb128 0x18
 2965 011a 28       		.uleb128 0x28
 2966 011b 00       		.byte	0x0
 2967 011c 03       		.uleb128 0x3
 2968 011d 0E       		.uleb128 0xe
 2969 011e 1C       		.uleb128 0x1c
 2970 011f 0D       		.uleb128 0xd
 2971 0120 00       		.byte	0x0
 2972 0121 00       		.byte	0x0
 2973 0122 19       		.uleb128 0x19
 2974 0123 01       		.uleb128 0x1
 2975 0124 01       		.byte	0x1
 2976 0125 49       		.uleb128 0x49
 2977 0126 13       		.uleb128 0x13
 2978 0127 01       		.uleb128 0x1
 2979 0128 13       		.uleb128 0x13
 2980 0129 00       		.byte	0x0
 2981 012a 00       		.byte	0x0
 2982 012b 1A       		.uleb128 0x1a
 2983 012c 21       		.uleb128 0x21
 2984 012d 00       		.byte	0x0
 2985 012e 49       		.uleb128 0x49
 2986 012f 13       		.uleb128 0x13
 2987 0130 2F       		.uleb128 0x2f
 2988 0131 0B       		.uleb128 0xb
 2989 0132 00       		.byte	0x0
 2990 0133 00       		.byte	0x0
 2991 0134 1B       		.uleb128 0x1b
 2992 0135 0D       		.uleb128 0xd
 2993 0136 00       		.byte	0x0
 2994 0137 03       		.uleb128 0x3
 2995 0138 0E       		.uleb128 0xe
 2996 0139 49       		.uleb128 0x49
 2997 013a 13       		.uleb128 0x13
 2998 013b 38       		.uleb128 0x38
 2999 013c 0A       		.uleb128 0xa
 3000 013d 34       		.uleb128 0x34
 3001 013e 0C       		.uleb128 0xc
ARM GAS  C:\Users\DNIEL~1\AppData\Local\Temp\ccsHMJp3.s 			page 55


 3002 013f 00       		.byte	0x0
 3003 0140 00       		.byte	0x0
 3004 0141 1C       		.uleb128 0x1c
 3005 0142 2E       		.uleb128 0x2e
 3006 0143 01       		.byte	0x1
 3007 0144 03       		.uleb128 0x3
 3008 0145 0E       		.uleb128 0xe
 3009 0146 3A       		.uleb128 0x3a
 3010 0147 0B       		.uleb128 0xb
 3011 0148 3B       		.uleb128 0x3b
 3012 0149 0B       		.uleb128 0xb
 3013 014a 27       		.uleb128 0x27
 3014 014b 0C       		.uleb128 0xc
 3015 014c 11       		.uleb128 0x11
 3016 014d 01       		.uleb128 0x1
 3017 014e 12       		.uleb128 0x12
 3018 014f 01       		.uleb128 0x1
 3019 0150 40       		.uleb128 0x40
 3020 0151 06       		.uleb128 0x6
 3021 0152 01       		.uleb128 0x1
 3022 0153 13       		.uleb128 0x13
 3023 0154 00       		.byte	0x0
 3024 0155 00       		.byte	0x0
 3025 0156 1D       		.uleb128 0x1d
 3026 0157 05       		.uleb128 0x5
 3027 0158 00       		.byte	0x0
 3028 0159 03       		.uleb128 0x3
 3029 015a 08       		.uleb128 0x8
 3030 015b 3A       		.uleb128 0x3a
 3031 015c 0B       		.uleb128 0xb
 3032 015d 3B       		.uleb128 0x3b
 3033 015e 0B       		.uleb128 0xb
 3034 015f 49       		.uleb128 0x49
 3035 0160 13       		.uleb128 0x13
 3036 0161 02       		.uleb128 0x2
 3037 0162 06       		.uleb128 0x6
 3038 0163 00       		.byte	0x0
 3039 0164 00       		.byte	0x0
 3040 0165 1E       		.uleb128 0x1e
 3041 0166 05       		.uleb128 0x5
 3042 0167 00       		.byte	0x0
 3043 0168 03       		.uleb128 0x3
 3044 0169 08       		.uleb128 0x8
 3045 016a 3A       		.uleb128 0x3a
 3046 016b 0B       		.uleb128 0xb
 3047 016c 3B       		.uleb128 0x3b
 3048 016d 0B       		.uleb128 0xb
 3049 016e 49       		.uleb128 0x49
 3050 016f 13       		.uleb128 0x13
 3051 0170 02       		.uleb128 0x2
 3052 0171 0A       		.uleb128 0xa
 3053 0172 00       		.byte	0x0
 3054 0173 00       		.byte	0x0
 3055 0174 1F       		.uleb128 0x1f
 3056 0175 18       		.uleb128 0x18
 3057 0176 00       		.byte	0x0
 3058 0177 00       		.byte	0x0
ARM GAS  C:\Users\DNIEL~1\AppData\Local\Temp\ccsHMJp3.s 			page 56


 3059 0178 00       		.byte	0x0
 3060 0179 20       		.uleb128 0x20
 3061 017a 34       		.uleb128 0x34
 3062 017b 00       		.byte	0x0
 3063 017c 03       		.uleb128 0x3
 3064 017d 08       		.uleb128 0x8
 3065 017e 3A       		.uleb128 0x3a
 3066 017f 0B       		.uleb128 0xb
 3067 0180 3B       		.uleb128 0x3b
 3068 0181 0B       		.uleb128 0xb
 3069 0182 49       		.uleb128 0x49
 3070 0183 13       		.uleb128 0x13
 3071 0184 02       		.uleb128 0x2
 3072 0185 0A       		.uleb128 0xa
 3073 0186 00       		.byte	0x0
 3074 0187 00       		.byte	0x0
 3075 0188 21       		.uleb128 0x21
 3076 0189 2E       		.uleb128 0x2e
 3077 018a 01       		.byte	0x1
 3078 018b 3F       		.uleb128 0x3f
 3079 018c 0C       		.uleb128 0xc
 3080 018d 03       		.uleb128 0x3
 3081 018e 0E       		.uleb128 0xe
 3082 018f 3A       		.uleb128 0x3a
 3083 0190 0B       		.uleb128 0xb
 3084 0191 3B       		.uleb128 0x3b
 3085 0192 0B       		.uleb128 0xb
 3086 0193 27       		.uleb128 0x27
 3087 0194 0C       		.uleb128 0xc
 3088 0195 11       		.uleb128 0x11
 3089 0196 01       		.uleb128 0x1
 3090 0197 12       		.uleb128 0x12
 3091 0198 01       		.uleb128 0x1
 3092 0199 40       		.uleb128 0x40
 3093 019a 06       		.uleb128 0x6
 3094 019b 01       		.uleb128 0x1
 3095 019c 13       		.uleb128 0x13
 3096 019d 00       		.byte	0x0
 3097 019e 00       		.byte	0x0
 3098 019f 22       		.uleb128 0x22
 3099 01a0 05       		.uleb128 0x5
 3100 01a1 00       		.byte	0x0
 3101 01a2 03       		.uleb128 0x3
 3102 01a3 0E       		.uleb128 0xe
 3103 01a4 3A       		.uleb128 0x3a
 3104 01a5 0B       		.uleb128 0xb
 3105 01a6 3B       		.uleb128 0x3b
 3106 01a7 0B       		.uleb128 0xb
 3107 01a8 49       		.uleb128 0x49
 3108 01a9 13       		.uleb128 0x13
 3109 01aa 02       		.uleb128 0x2
 3110 01ab 06       		.uleb128 0x6
 3111 01ac 00       		.byte	0x0
 3112 01ad 00       		.byte	0x0
 3113 01ae 23       		.uleb128 0x23
 3114 01af 34       		.uleb128 0x34
 3115 01b0 00       		.byte	0x0
ARM GAS  C:\Users\DNIEL~1\AppData\Local\Temp\ccsHMJp3.s 			page 57


 3116 01b1 03       		.uleb128 0x3
 3117 01b2 08       		.uleb128 0x8
 3118 01b3 3A       		.uleb128 0x3a
 3119 01b4 0B       		.uleb128 0xb
 3120 01b5 3B       		.uleb128 0x3b
 3121 01b6 0B       		.uleb128 0xb
 3122 01b7 49       		.uleb128 0x49
 3123 01b8 13       		.uleb128 0x13
 3124 01b9 02       		.uleb128 0x2
 3125 01ba 06       		.uleb128 0x6
 3126 01bb 00       		.byte	0x0
 3127 01bc 00       		.byte	0x0
 3128 01bd 24       		.uleb128 0x24
 3129 01be 34       		.uleb128 0x34
 3130 01bf 00       		.byte	0x0
 3131 01c0 03       		.uleb128 0x3
 3132 01c1 0E       		.uleb128 0xe
 3133 01c2 3A       		.uleb128 0x3a
 3134 01c3 0B       		.uleb128 0xb
 3135 01c4 3B       		.uleb128 0x3b
 3136 01c5 0B       		.uleb128 0xb
 3137 01c6 49       		.uleb128 0x49
 3138 01c7 13       		.uleb128 0x13
 3139 01c8 02       		.uleb128 0x2
 3140 01c9 0A       		.uleb128 0xa
 3141 01ca 00       		.byte	0x0
 3142 01cb 00       		.byte	0x0
 3143 01cc 25       		.uleb128 0x25
 3144 01cd 34       		.uleb128 0x34
 3145 01ce 00       		.byte	0x0
 3146 01cf 03       		.uleb128 0x3
 3147 01d0 0E       		.uleb128 0xe
 3148 01d1 3A       		.uleb128 0x3a
 3149 01d2 0B       		.uleb128 0xb
 3150 01d3 3B       		.uleb128 0x3b
 3151 01d4 0B       		.uleb128 0xb
 3152 01d5 49       		.uleb128 0x49
 3153 01d6 13       		.uleb128 0x13
 3154 01d7 02       		.uleb128 0x2
 3155 01d8 06       		.uleb128 0x6
 3156 01d9 00       		.byte	0x0
 3157 01da 00       		.byte	0x0
 3158 01db 26       		.uleb128 0x26
 3159 01dc 2E       		.uleb128 0x2e
 3160 01dd 00       		.byte	0x0
 3161 01de 3F       		.uleb128 0x3f
 3162 01df 0C       		.uleb128 0xc
 3163 01e0 03       		.uleb128 0x3
 3164 01e1 0E       		.uleb128 0xe
 3165 01e2 3A       		.uleb128 0x3a
 3166 01e3 0B       		.uleb128 0xb
 3167 01e4 3B       		.uleb128 0x3b
 3168 01e5 0B       		.uleb128 0xb
 3169 01e6 27       		.uleb128 0x27
 3170 01e7 0C       		.uleb128 0xc
 3171 01e8 49       		.uleb128 0x49
 3172 01e9 13       		.uleb128 0x13
ARM GAS  C:\Users\DNIEL~1\AppData\Local\Temp\ccsHMJp3.s 			page 58


 3173 01ea 11       		.uleb128 0x11
 3174 01eb 01       		.uleb128 0x1
 3175 01ec 12       		.uleb128 0x12
 3176 01ed 01       		.uleb128 0x1
 3177 01ee 40       		.uleb128 0x40
 3178 01ef 0A       		.uleb128 0xa
 3179 01f0 00       		.byte	0x0
 3180 01f1 00       		.byte	0x0
 3181 01f2 27       		.uleb128 0x27
 3182 01f3 2E       		.uleb128 0x2e
 3183 01f4 01       		.byte	0x1
 3184 01f5 3F       		.uleb128 0x3f
 3185 01f6 0C       		.uleb128 0xc
 3186 01f7 03       		.uleb128 0x3
 3187 01f8 0E       		.uleb128 0xe
 3188 01f9 3A       		.uleb128 0x3a
 3189 01fa 0B       		.uleb128 0xb
 3190 01fb 3B       		.uleb128 0x3b
 3191 01fc 0B       		.uleb128 0xb
 3192 01fd 27       		.uleb128 0x27
 3193 01fe 0C       		.uleb128 0xc
 3194 01ff 11       		.uleb128 0x11
 3195 0200 01       		.uleb128 0x1
 3196 0201 12       		.uleb128 0x12
 3197 0202 01       		.uleb128 0x1
 3198 0203 40       		.uleb128 0x40
 3199 0204 0A       		.uleb128 0xa
 3200 0205 01       		.uleb128 0x1
 3201 0206 13       		.uleb128 0x13
 3202 0207 00       		.byte	0x0
 3203 0208 00       		.byte	0x0
 3204 0209 28       		.uleb128 0x28
 3205 020a 2E       		.uleb128 0x2e
 3206 020b 01       		.byte	0x1
 3207 020c 3F       		.uleb128 0x3f
 3208 020d 0C       		.uleb128 0xc
 3209 020e 03       		.uleb128 0x3
 3210 020f 0E       		.uleb128 0xe
 3211 0210 3A       		.uleb128 0x3a
 3212 0211 0B       		.uleb128 0xb
 3213 0212 3B       		.uleb128 0x3b
 3214 0213 0B       		.uleb128 0xb
 3215 0214 27       		.uleb128 0x27
 3216 0215 0C       		.uleb128 0xc
 3217 0216 49       		.uleb128 0x49
 3218 0217 13       		.uleb128 0x13
 3219 0218 11       		.uleb128 0x11
 3220 0219 01       		.uleb128 0x1
 3221 021a 12       		.uleb128 0x12
 3222 021b 01       		.uleb128 0x1
 3223 021c 40       		.uleb128 0x40
 3224 021d 0A       		.uleb128 0xa
 3225 021e 01       		.uleb128 0x1
 3226 021f 13       		.uleb128 0x13
 3227 0220 00       		.byte	0x0
 3228 0221 00       		.byte	0x0
 3229 0222 29       		.uleb128 0x29
ARM GAS  C:\Users\DNIEL~1\AppData\Local\Temp\ccsHMJp3.s 			page 59


 3230 0223 2E       		.uleb128 0x2e
 3231 0224 00       		.byte	0x0
 3232 0225 3F       		.uleb128 0x3f
 3233 0226 0C       		.uleb128 0xc
 3234 0227 03       		.uleb128 0x3
 3235 0228 0E       		.uleb128 0xe
 3236 0229 3A       		.uleb128 0x3a
 3237 022a 0B       		.uleb128 0xb
 3238 022b 3B       		.uleb128 0x3b
 3239 022c 0B       		.uleb128 0xb
 3240 022d 27       		.uleb128 0x27
 3241 022e 0C       		.uleb128 0xc
 3242 022f 11       		.uleb128 0x11
 3243 0230 01       		.uleb128 0x1
 3244 0231 12       		.uleb128 0x12
 3245 0232 01       		.uleb128 0x1
 3246 0233 40       		.uleb128 0x40
 3247 0234 06       		.uleb128 0x6
 3248 0235 00       		.byte	0x0
 3249 0236 00       		.byte	0x0
 3250 0237 2A       		.uleb128 0x2a
 3251 0238 34       		.uleb128 0x34
 3252 0239 00       		.byte	0x0
 3253 023a 03       		.uleb128 0x3
 3254 023b 0E       		.uleb128 0xe
 3255 023c 3A       		.uleb128 0x3a
 3256 023d 0B       		.uleb128 0xb
 3257 023e 3B       		.uleb128 0x3b
 3258 023f 0B       		.uleb128 0xb
 3259 0240 49       		.uleb128 0x49
 3260 0241 13       		.uleb128 0x13
 3261 0242 3F       		.uleb128 0x3f
 3262 0243 0C       		.uleb128 0xc
 3263 0244 3C       		.uleb128 0x3c
 3264 0245 0C       		.uleb128 0xc
 3265 0246 00       		.byte	0x0
 3266 0247 00       		.byte	0x0
 3267 0248 2B       		.uleb128 0x2b
 3268 0249 34       		.uleb128 0x34
 3269 024a 00       		.byte	0x0
 3270 024b 03       		.uleb128 0x3
 3271 024c 0E       		.uleb128 0xe
 3272 024d 3A       		.uleb128 0x3a
 3273 024e 0B       		.uleb128 0xb
 3274 024f 3B       		.uleb128 0x3b
 3275 0250 05       		.uleb128 0x5
 3276 0251 49       		.uleb128 0x49
 3277 0252 13       		.uleb128 0x13
 3278 0253 3F       		.uleb128 0x3f
 3279 0254 0C       		.uleb128 0xc
 3280 0255 3C       		.uleb128 0x3c
 3281 0256 0C       		.uleb128 0xc
 3282 0257 00       		.byte	0x0
 3283 0258 00       		.byte	0x0
 3284 0259 2C       		.uleb128 0x2c
 3285 025a 34       		.uleb128 0x34
 3286 025b 00       		.byte	0x0
ARM GAS  C:\Users\DNIEL~1\AppData\Local\Temp\ccsHMJp3.s 			page 60


 3287 025c 03       		.uleb128 0x3
 3288 025d 08       		.uleb128 0x8
 3289 025e 3A       		.uleb128 0x3a
 3290 025f 0B       		.uleb128 0xb
 3291 0260 3B       		.uleb128 0x3b
 3292 0261 05       		.uleb128 0x5
 3293 0262 49       		.uleb128 0x49
 3294 0263 13       		.uleb128 0x13
 3295 0264 3F       		.uleb128 0x3f
 3296 0265 0C       		.uleb128 0xc
 3297 0266 3C       		.uleb128 0x3c
 3298 0267 0C       		.uleb128 0xc
 3299 0268 00       		.byte	0x0
 3300 0269 00       		.byte	0x0
 3301 026a 2D       		.uleb128 0x2d
 3302 026b 34       		.uleb128 0x34
 3303 026c 00       		.byte	0x0
 3304 026d 03       		.uleb128 0x3
 3305 026e 0E       		.uleb128 0xe
 3306 026f 3A       		.uleb128 0x3a
 3307 0270 0B       		.uleb128 0xb
 3308 0271 3B       		.uleb128 0x3b
 3309 0272 0B       		.uleb128 0xb
 3310 0273 49       		.uleb128 0x49
 3311 0274 13       		.uleb128 0x13
 3312 0275 3F       		.uleb128 0x3f
 3313 0276 0C       		.uleb128 0xc
 3314 0277 02       		.uleb128 0x2
 3315 0278 0A       		.uleb128 0xa
 3316 0279 00       		.byte	0x0
 3317 027a 00       		.byte	0x0
 3318 027b 00       		.byte	0x0
 3319              		.section	.debug_pubnames,"",%progbits
 3320 0000 8A000000 		.4byte	0x8a
 3321 0004 0200     		.2byte	0x2
 3322 0006 00000000 		.4byte	.Ldebug_info0
 3323 000a 6C0D0000 		.4byte	0xd6c
 3324 000e C10A0000 		.4byte	0xac1
 3325 0012 636D645F 		.ascii	"cmd_test\000"
 3325      74657374 
 3325      00
 3326 001b 160B0000 		.4byte	0xb16
 3327 001f 636D645F 		.ascii	"cmd_threads\000"
 3327      74687265 
 3327      61647300 
 3328 002b 910B0000 		.4byte	0xb91
 3329 002f 636D645F 		.ascii	"cmd_mem\000"
 3329      6D656D00 
 3330 0037 F40B0000 		.4byte	0xbf4
 3331 003b 5F676574 		.ascii	"_getpid\000"
 3331      70696400 
 3332 0043 0C0C0000 		.4byte	0xc0c
 3333 0047 5F657869 		.ascii	"_exit\000"
 3333      7400
 3334 004d 300C0000 		.4byte	0xc30
 3335 0051 5F6B696C 		.ascii	"_kill\000"
 3335      6C00
ARM GAS  C:\Users\DNIEL~1\AppData\Local\Temp\ccsHMJp3.s 			page 61


 3336 0057 690C0000 		.4byte	0xc69
 3337 005b 636F6E73 		.ascii	"consoleInit\000"
 3337      6F6C6549 
 3337      6E697400 
 3338 0067 7E0C0000 		.4byte	0xc7e
 3339 006b 636F6E73 		.ascii	"consoleStart\000"
 3339      6F6C6553 
 3339      74617274 
 3339      00
 3340 0078 590D0000 		.4byte	0xd59
 3341 007c 636F6E73 		.ascii	"consoleThread\000"
 3341      6F6C6554 
 3341      68726561 
 3341      6400
 3342 008a 00000000 		.4byte	0x0
 3343              		.section	.debug_pubtypes,"",%progbits
 3344 0000 CB020000 		.4byte	0x2cb
 3345 0004 0200     		.2byte	0x2
 3346 0006 00000000 		.4byte	.Ldebug_info0
 3347 000a 6C0D0000 		.4byte	0xd6c
 3348 000e 89000000 		.4byte	0x89
 3349 0012 73697A65 		.ascii	"size_t\000"
 3349      5F7400
 3350 0019 94000000 		.4byte	0x94
 3351 001d 75696E74 		.ascii	"uint8_t\000"
 3351      385F7400 
 3352 0025 9F000000 		.4byte	0x9f
 3353 0029 75696E74 		.ascii	"uint16_t\000"
 3353      31365F74 
 3353      00
 3354 0032 AA000000 		.4byte	0xaa
 3355 0036 696E7433 		.ascii	"int32_t\000"
 3355      325F7400 
 3356 003e B5000000 		.4byte	0xb5
 3357 0042 75696E74 		.ascii	"uint32_t\000"
 3357      33325F74 
 3357      00
 3358 004b C7000000 		.4byte	0xc7
 3359 004f 746D6F64 		.ascii	"tmode_t\000"
 3359      655F7400 
 3360 0057 D2000000 		.4byte	0xd2
 3361 005b 74737461 		.ascii	"tstate_t\000"
 3361      74655F74 
 3361      00
 3362 0064 DD000000 		.4byte	0xdd
 3363 0068 74726566 		.ascii	"trefs_t\000"
 3363      735F7400 
 3364 0070 E8000000 		.4byte	0xe8
 3365 0074 74736C69 		.ascii	"tslices_t\000"
 3365      6365735F 
 3365      7400
 3366 007e F3000000 		.4byte	0xf3
 3367 0082 74707269 		.ascii	"tprio_t\000"
 3367      6F5F7400 
 3368 008a FE000000 		.4byte	0xfe
 3369 008e 6D73675F 		.ascii	"msg_t\000"
 3369      7400
ARM GAS  C:\Users\DNIEL~1\AppData\Local\Temp\ccsHMJp3.s 			page 62


 3370 0094 09010000 		.4byte	0x109
 3371 0098 6576656E 		.ascii	"eventmask_t\000"
 3371      746D6173 
 3371      6B5F7400 
 3372 00a4 14010000 		.4byte	0x114
 3373 00a8 666C6167 		.ascii	"flagsmask_t\000"
 3373      736D6173 
 3373      6B5F7400 
 3374 00b4 1F010000 		.4byte	0x11f
 3375 00b8 73797374 		.ascii	"systime_t\000"
 3375      696D655F 
 3375      7400
 3376 00c2 2A010000 		.4byte	0x12a
 3377 00c6 54687265 		.ascii	"Thread\000"
 3377      616400
 3378 00cd 85020000 		.4byte	0x285
 3379 00d1 54687265 		.ascii	"ThreadsQueue\000"
 3379      61647351 
 3379      75657565 
 3379      00
 3380 00de A7020000 		.4byte	0x2a7
 3381 00e2 54687265 		.ascii	"ThreadsList\000"
 3381      6164734C 
 3381      69737400 
 3382 00ee B2020000 		.4byte	0x2b2
 3383 00f2 72656761 		.ascii	"regarm_t\000"
 3383      726D5F74 
 3383      00
 3384 00fb BD020000 		.4byte	0x2bd
 3385 00ff 696E7463 		.ascii	"intctx\000"
 3385      747800
 3386 0106 4B030000 		.4byte	0x34b
 3387 010a 636F6E74 		.ascii	"context\000"
 3387      65787400 
 3388 0112 D0030000 		.4byte	0x3d0
 3389 0116 52656164 		.ascii	"ReadyList\000"
 3389      794C6973 
 3389      7400
 3390 0120 DB030000 		.4byte	0x3db
 3391 0124 4D757465 		.ascii	"Mutex\000"
 3391      7800
 3392 012a 18040000 		.4byte	0x418
 3393 012e 4D757465 		.ascii	"Mutex\000"
 3393      7800
 3394 0134 23040000 		.4byte	0x423
 3395 0138 4576656E 		.ascii	"EventListener\000"
 3395      744C6973 
 3395      74656E65 
 3395      7200
 3396 0146 2E040000 		.4byte	0x42e
 3397 014a 4576656E 		.ascii	"EventListener\000"
 3397      744C6973 
 3397      74656E65 
 3397      7200
 3398 0158 79040000 		.4byte	0x479
 3399 015c 4576656E 		.ascii	"EventSource\000"
 3399      74536F75 
ARM GAS  C:\Users\DNIEL~1\AppData\Local\Temp\ccsHMJp3.s 			page 63


 3399      72636500 
 3400 0168 94040000 		.4byte	0x494
 3401 016c 4576656E 		.ascii	"EventSource\000"
 3401      74536F75 
 3401      72636500 
 3402 0178 35010000 		.4byte	0x135
 3403 017c 54687265 		.ascii	"Thread\000"
 3403      616400
 3404 0183 F0040000 		.4byte	0x4f0
 3405 0187 47656E65 		.ascii	"GenericQueue\000"
 3405      72696351 
 3405      75657565 
 3405      00
 3406 0194 78050000 		.4byte	0x578
 3407 0198 716E6F74 		.ascii	"qnotify_t\000"
 3407      6966795F 
 3407      7400
 3408 01a2 FB040000 		.4byte	0x4fb
 3409 01a6 47656E65 		.ascii	"GenericQueue\000"
 3409      72696351 
 3409      75657565 
 3409      00
 3410 01b3 A1050000 		.4byte	0x5a1
 3411 01b7 496E7075 		.ascii	"InputQueue\000"
 3411      74517565 
 3411      756500
 3412 01c2 AC050000 		.4byte	0x5ac
 3413 01c6 4F757470 		.ascii	"OutputQueue\000"
 3413      75745175 
 3413      65756500 
 3414 01d2 B7050000 		.4byte	0x5b7
 3415 01d6 42617365 		.ascii	"BaseSequentialStreamVMT\000"
 3415      53657175 
 3415      656E7469 
 3415      616C5374 
 3415      7265616D 
 3416 01ee 84060000 		.4byte	0x684
 3417 01f2 42617365 		.ascii	"BaseSequentialStream\000"
 3417      53657175 
 3417      656E7469 
 3417      616C5374 
 3417      7265616D 
 3418 0207 73070000 		.4byte	0x773
 3419 020b 55534152 		.ascii	"USART_TypeDef\000"
 3419      545F5479 
 3419      70654465 
 3419      6600
 3420 0219 1F080000 		.4byte	0x81f
 3421 021d 73647374 		.ascii	"sdstate_t\000"
 3421      6174655F 
 3421      7400
 3422 0227 2A080000 		.4byte	0x82a
 3423 022b 53657269 		.ascii	"SerialDriver\000"
 3423      616C4472 
 3423      69766572 
 3423      00
 3424 0238 F1080000 		.4byte	0x8f1
ARM GAS  C:\Users\DNIEL~1\AppData\Local\Temp\ccsHMJp3.s 			page 64


 3425 023c 53657269 		.ascii	"SerialConfig\000"
 3425      616C436F 
 3425      6E666967 
 3425      00
 3426 0249 FC080000 		.4byte	0x8fc
 3427 024d 53657269 		.ascii	"SerialDriverVMT\000"
 3427      616C4472 
 3427      69766572 
 3427      564D5400 
 3428 025d 35080000 		.4byte	0x835
 3429 0261 53657269 		.ascii	"SerialDriver\000"
 3429      616C4472 
 3429      69766572 
 3429      00
 3430 026e 9A090000 		.4byte	0x99a
 3431 0272 7368656C 		.ascii	"shellcmd_t\000"
 3431      6C636D64 
 3431      5F7400
 3432 027d F2090000 		.4byte	0x9f2
 3433 0281 5368656C 		.ascii	"ShellCommand\000"
 3433      6C436F6D 
 3433      6D616E64 
 3433      00
 3434 028e 2D0A0000 		.4byte	0xa2d
 3435 0292 5368656C 		.ascii	"ShellConfig\000"
 3435      6C436F6E 
 3435      66696700 
 3436 029e 430A0000 		.4byte	0xa43
 3437 02a2 5F5F7661 		.ascii	"__va_list\000"
 3437      5F6C6973 
 3437      7400
 3438 02ac 380A0000 		.4byte	0xa38
 3439 02b0 5F5F676E 		.ascii	"__gnuc_va_list\000"
 3439      75635F76 
 3439      615F6C69 
 3439      737400
 3440 02bf 5D0A0000 		.4byte	0xa5d
 3441 02c3 76615F6C 		.ascii	"va_list\000"
 3441      69737400 
 3442 02cb 00000000 		.4byte	0x0
 3443              		.section	.debug_aranges,"",%progbits
 3444 0000 5C000000 		.4byte	0x5c
 3445 0004 0200     		.2byte	0x2
 3446 0006 00000000 		.4byte	.Ldebug_info0
 3447 000a 04       		.byte	0x4
 3448 000b 00       		.byte	0x0
 3449 000c 0000     		.2byte	0x0
 3450 000e 0000     		.2byte	0x0
 3451 0010 00000000 		.4byte	.LFB118
 3452 0014 1E000000 		.4byte	.LFE118-.LFB118
 3453 0018 00000000 		.4byte	.LFB126
 3454 001c 54000000 		.4byte	.LFE126-.LFB126
 3455 0020 00000000 		.4byte	.LFB125
 3456 0024 68000000 		.4byte	.LFE125-.LFB125
 3457 0028 00000000 		.4byte	.LFB124
 3458 002c 54000000 		.4byte	.LFE124-.LFB124
 3459 0030 00000000 		.4byte	.LFB119
ARM GAS  C:\Users\DNIEL~1\AppData\Local\Temp\ccsHMJp3.s 			page 65


 3460 0034 04000000 		.4byte	.LFE119-.LFB119
 3461 0038 00000000 		.4byte	.LFB120
 3462 003c 02000000 		.4byte	.LFE120-.LFB120
 3463 0040 00000000 		.4byte	.LFB121
 3464 0044 10000000 		.4byte	.LFE121-.LFB121
 3465 0048 00000000 		.4byte	.LFB122
 3466 004c 24000000 		.4byte	.LFE122-.LFB122
 3467 0050 00000000 		.4byte	.LFB123
 3468 0054 34000000 		.4byte	.LFE123-.LFB123
 3469 0058 00000000 		.4byte	0x0
 3470 005c 00000000 		.4byte	0x0
 3471              		.section	.debug_ranges,"",%progbits
 3472              	.Ldebug_ranges0:
 3473 0000 00000000 		.4byte	.LFB118
 3474 0004 1E000000 		.4byte	.LFE118
 3475 0008 00000000 		.4byte	.LFB126
 3476 000c 54000000 		.4byte	.LFE126
 3477 0010 00000000 		.4byte	.LFB125
 3478 0014 68000000 		.4byte	.LFE125
 3479 0018 00000000 		.4byte	.LFB124
 3480 001c 54000000 		.4byte	.LFE124
 3481 0020 00000000 		.4byte	.LFB119
 3482 0024 04000000 		.4byte	.LFE119
 3483 0028 00000000 		.4byte	.LFB120
 3484 002c 02000000 		.4byte	.LFE120
 3485 0030 00000000 		.4byte	.LFB121
 3486 0034 10000000 		.4byte	.LFE121
 3487 0038 00000000 		.4byte	.LFB122
 3488 003c 24000000 		.4byte	.LFE122
 3489 0040 00000000 		.4byte	.LFB123
 3490 0044 34000000 		.4byte	.LFE123
 3491 0048 00000000 		.4byte	0x0
 3492 004c 00000000 		.4byte	0x0
 3493              		.section	.debug_str,"MS",%progbits,1
 3494              	.LASF10:
 3495 0000 73697A65 		.ascii	"size_t\000"
 3495      5F7400
 3496              	.LASF68:
 3497 0007 7264796D 		.ascii	"rdymsg\000"
 3497      736700
 3498              	.LASF83:
 3499 000e 4F757470 		.ascii	"OutputQueue\000"
 3499      75745175 
 3499      65756500 
 3500              	.LASF124:
 3501 001a 76615F6C 		.ascii	"va_list\000"
 3501      69737400 
 3502              	.LASF131:
 3503 0022 636D645F 		.ascii	"cmd_threads\000"
 3503      74687265 
 3503      61647300 
 3504              	.LASF137:
 3505 002e 636F6E73 		.ascii	"consoleStart\000"
 3505      6F6C6553 
 3505      74617274 
 3505      00
 3506              	.LASF6:
ARM GAS  C:\Users\DNIEL~1\AppData\Local\Temp\ccsHMJp3.s 			page 66


 3507 003b 6C6F6E67 		.ascii	"long long unsigned int\000"
 3507      206C6F6E 
 3507      6720756E 
 3507      7369676E 
 3507      65642069 
 3508              	.LASF142:
 3509 0052 636F6E73 		.ascii	"consoleThread\000"
 3509      6F6C6554 
 3509      68726561 
 3509      6400
 3510              	.LASF69:
 3511 0060 65786974 		.ascii	"exitcode\000"
 3511      636F6465 
 3511      00
 3512              	.LASF139:
 3513 0069 49544D5F 		.ascii	"ITM_RxBuffer\000"
 3513      52784275 
 3513      66666572 
 3513      00
 3514              	.LASF136:
 3515 0076 636F6E73 		.ascii	"consoleInit\000"
 3515      6F6C6549 
 3515      6E697400 
 3516              	.LASF28:
 3517 0082 705F7072 		.ascii	"p_prio\000"
 3517      696F00
 3518              	.LASF113:
 3519 0089 72656164 		.ascii	"readt\000"
 3519      7400
 3520              	.LASF135:
 3521 008f 5F657869 		.ascii	"_exit\000"
 3521      7400
 3522              	.LASF5:
 3523 0095 6C6F6E67 		.ascii	"long long int\000"
 3523      206C6F6E 
 3523      6720696E 
 3523      7400
 3524              	.LASF0:
 3525 00a3 7369676E 		.ascii	"signed char\000"
 3525      65642063 
 3525      68617200 
 3526              	.LASF147:
 3527 00af 433A5C44 		.ascii	"C:\\Dani\\MegaLux\\Repo\\Modulux\\Modulux\\modulux\\"
 3527      616E695C 
 3527      4D656761 
 3527      4C75785C 
 3527      5265706F 
 3528 00dc 6669726D 		.ascii	"firmware\000"
 3528      77617265 
 3528      00
 3529              	.LASF94:
 3530 00e5 47545052 		.ascii	"GTPR\000"
 3530      00
 3531              	.LASF44:
 3532 00ea 705F6D70 		.ascii	"p_mpool\000"
 3532      6F6F6C00 
 3533              	.LASF118:
ARM GAS  C:\Users\DNIEL~1\AppData\Local\Temp\ccsHMJp3.s 			page 67


 3534 00f2 73635F63 		.ascii	"sc_channel\000"
 3534      68616E6E 
 3534      656C00
 3535              	.LASF19:
 3536 00fd 74736C69 		.ascii	"tslices_t\000"
 3536      6365735F 
 3536      7400
 3537              	.LASF103:
 3538 0107 73746174 		.ascii	"state\000"
 3538      6500
 3539              	.LASF7:
 3540 010d 6C6F6E67 		.ascii	"long int\000"
 3540      20696E74 
 3540      00
 3541              	.LASF117:
 3542 0116 5368656C 		.ascii	"ShellCommand\000"
 3542      6C436F6D 
 3542      6D616E64 
 3542      00
 3543              	.LASF17:
 3544 0123 74737461 		.ascii	"tstate_t\000"
 3544      74655F74 
 3544      00
 3545              	.LASF122:
 3546 012c 5F5F7661 		.ascii	"__va_list\000"
 3546      5F6C6973 
 3546      7400
 3547              	.LASF35:
 3548 0136 705F7265 		.ascii	"p_refs\000"
 3548      667300
 3549              	.LASF75:
 3550 013d 715F6275 		.ascii	"q_buffer\000"
 3550      66666572 
 3550      00
 3551              	.LASF149:
 3552 0146 5F676574 		.ascii	"_getpid\000"
 3552      70696400 
 3553              	.LASF37:
 3554 014e 705F7469 		.ascii	"p_time\000"
 3554      6D6500
 3555              	.LASF125:
 3556 0155 646F7562 		.ascii	"double\000"
 3556      6C6500
 3557              	.LASF30:
 3558 015c 705F6E65 		.ascii	"p_newer\000"
 3558      77657200 
 3559              	.LASF3:
 3560 0164 73686F72 		.ascii	"short unsigned int\000"
 3560      7420756E 
 3560      7369676E 
 3560      65642069 
 3560      6E7400
 3561              	.LASF141:
 3562 0177 7365725F 		.ascii	"ser_cfg\000"
 3562      63666700 
 3563              	.LASF53:
 3564 017f 725F6E65 		.ascii	"r_newer\000"
ARM GAS  C:\Users\DNIEL~1\AppData\Local\Temp\ccsHMJp3.s 			page 68


 3564      77657200 
 3565              	.LASF47:
 3566 0187 72656761 		.ascii	"regarm_t\000"
 3566      726D5F74 
 3566      00
 3567              	.LASF115:
 3568 0190 73635F6E 		.ascii	"sc_name\000"
 3568      616D6500 
 3569              	.LASF66:
 3570 0198 4576656E 		.ascii	"EventSource\000"
 3570      74536F75 
 3570      72636500 
 3571              	.LASF87:
 3572 01a4 42617365 		.ascii	"BaseSequentialStream\000"
 3572      53657175 
 3572      656E7469 
 3572      616C5374 
 3572      7265616D 
 3573              	.LASF106:
 3574 01b9 75736172 		.ascii	"usart\000"
 3574      7400
 3575              	.LASF4:
 3576 01bf 756E7369 		.ascii	"unsigned int\000"
 3576      676E6564 
 3576      20696E74 
 3576      00
 3577              	.LASF12:
 3578 01cc 75696E74 		.ascii	"uint16_t\000"
 3578      31365F74 
 3578      00
 3579              	.LASF109:
 3580 01d5 53657269 		.ascii	"SerialDriverVMT\000"
 3580      616C4472 
 3580      69766572 
 3580      564D5400 
 3581              	.LASF133:
 3582 01e5 636D645F 		.ascii	"cmd_mem\000"
 3582      6D656D00 
 3583              	.LASF119:
 3584 01ed 73635F63 		.ascii	"sc_commands\000"
 3584      6F6D6D61 
 3584      6E647300 
 3585              	.LASF104:
 3586 01f9 69717565 		.ascii	"iqueue\000"
 3586      756500
 3587              	.LASF39:
 3588 0200 705F6D73 		.ascii	"p_msgqueue\000"
 3588      67717565 
 3588      756500
 3589              	.LASF111:
 3590 020b 67657474 		.ascii	"gett\000"
 3590      00
 3591              	.LASF102:
 3592 0210 6576656E 		.ascii	"event\000"
 3592      7400
 3593              	.LASF134:
 3594 0216 73697A65 		.ascii	"size\000"
ARM GAS  C:\Users\DNIEL~1\AppData\Local\Temp\ccsHMJp3.s 			page 69


 3594      00
 3595              	.LASF77:
 3596 021b 715F7772 		.ascii	"q_wrptr\000"
 3596      70747200 
 3597              	.LASF21:
 3598 0223 6D73675F 		.ascii	"msg_t\000"
 3598      7400
 3599              	.LASF105:
 3600 0229 6F717565 		.ascii	"oqueue\000"
 3600      756500
 3601              	.LASF96:
 3602 0230 55534152 		.ascii	"USART_TypeDef\000"
 3602      545F5479 
 3602      70654465 
 3602      6600
 3603              	.LASF112:
 3604 023e 77726974 		.ascii	"writet\000"
 3604      657400
 3605              	.LASF16:
 3606 0245 746D6F64 		.ascii	"tmode_t\000"
 3606      655F7400 
 3607              	.LASF46:
 3608 024d 54687265 		.ascii	"ThreadsList\000"
 3608      6164734C 
 3608      69737400 
 3609              	.LASF22:
 3610 0259 6576656E 		.ascii	"eventmask_t\000"
 3610      746D6173 
 3610      6B5F7400 
 3611              	.LASF82:
 3612 0265 496E7075 		.ascii	"InputQueue\000"
 3612      74517565 
 3612      756500
 3613              	.LASF107:
 3614 0270 73706565 		.ascii	"speed\000"
 3614      6400
 3615              	.LASF146:
 3616 0276 7372632F 		.ascii	"src/console.c\000"
 3616      636F6E73 
 3616      6F6C652E 
 3616      6300
 3617              	.LASF81:
 3618 0284 716E6F74 		.ascii	"qnotify_t\000"
 3618      6966795F 
 3618      7400
 3619              	.LASF72:
 3620 028e 47656E65 		.ascii	"GenericQueue\000"
 3620      72696351 
 3620      75657565 
 3620      00
 3621              	.LASF140:
 3622 029b 6572726E 		.ascii	"errno\000"
 3622      6F00
 3623              	.LASF85:
 3624 02a1 77726974 		.ascii	"write\000"
 3624      6500
 3625              	.LASF110:
ARM GAS  C:\Users\DNIEL~1\AppData\Local\Temp\ccsHMJp3.s 			page 70


 3626 02a7 70757474 		.ascii	"putt\000"
 3626      00
 3627              	.LASF130:
 3628 02ac 636D645F 		.ascii	"cmd_test\000"
 3628      74657374 
 3628      00
 3629              	.LASF74:
 3630 02b5 715F636F 		.ascii	"q_counter\000"
 3630      756E7465 
 3630      7200
 3631              	.LASF127:
 3632 02bf 6C6F6E67 		.ascii	"long double\000"
 3632      20646F75 
 3632      626C6500 
 3633              	.LASF57:
 3634 02cb 4D757465 		.ascii	"Mutex\000"
 3634      7800
 3635              	.LASF121:
 3636 02d1 5F5F676E 		.ascii	"__gnuc_va_list\000"
 3636      75635F76 
 3636      615F6C69 
 3636      737400
 3637              	.LASF64:
 3638 02e0 656C5F6D 		.ascii	"el_mask\000"
 3638      61736B00 
 3639              	.LASF31:
 3640 02e8 705F6F6C 		.ascii	"p_older\000"
 3640      64657200 
 3641              	.LASF52:
 3642 02f0 725F6374 		.ascii	"r_ctx\000"
 3642      7800
 3643              	.LASF45:
 3644 02f6 54687265 		.ascii	"ThreadsQueue\000"
 3644      61647351 
 3644      75657565 
 3644      00
 3645              	.LASF114:
 3646 0303 7368656C 		.ascii	"shellcmd_t\000"
 3646      6C636D64 
 3646      5F7400
 3647              	.LASF55:
 3648 030e 725F6375 		.ascii	"r_current\000"
 3648      7272656E 
 3648      7400
 3649              	.LASF54:
 3650 0318 725F6F6C 		.ascii	"r_older\000"
 3650      64657200 
 3651              	.LASF108:
 3652 0320 53657269 		.ascii	"SerialConfig\000"
 3652      616C436F 
 3652      6E666967 
 3652      00
 3653              	.LASF126:
 3654 032d 666C6F61 		.ascii	"float\000"
 3654      7400
 3655              	.LASF73:
 3656 0333 715F7761 		.ascii	"q_waiting\000"
ARM GAS  C:\Users\DNIEL~1\AppData\Local\Temp\ccsHMJp3.s 			page 71


 3656      6974696E 
 3656      6700
 3657              	.LASF18:
 3658 033d 74726566 		.ascii	"trefs_t\000"
 3658      735F7400 
 3659              	.LASF88:
 3660 0345 52455345 		.ascii	"RESERVED0\000"
 3660      52564544 
 3660      3000
 3661              	.LASF89:
 3662 034f 52455345 		.ascii	"RESERVED1\000"
 3662      52564544 
 3662      3100
 3663              	.LASF90:
 3664 0359 52455345 		.ascii	"RESERVED2\000"
 3664      52564544 
 3664      3200
 3665              	.LASF91:
 3666 0363 52455345 		.ascii	"RESERVED3\000"
 3666      52564544 
 3666      3300
 3667              	.LASF92:
 3668 036d 52455345 		.ascii	"RESERVED4\000"
 3668      52564544 
 3668      3400
 3669              	.LASF27:
 3670 0377 705F7072 		.ascii	"p_prev\000"
 3670      657600
 3671              	.LASF95:
 3672 037e 52455345 		.ascii	"RESERVED6\000"
 3672      52564544 
 3672      3600
 3673              	.LASF20:
 3674 0388 74707269 		.ascii	"tprio_t\000"
 3674      6F5F7400 
 3675              	.LASF78:
 3676 0390 715F7264 		.ascii	"q_rdptr\000"
 3676      70747200 
 3677              	.LASF15:
 3678 0398 5F426F6F 		.ascii	"_Bool\000"
 3678      6C00
 3679              	.LASF13:
 3680 039e 696E7433 		.ascii	"int32_t\000"
 3680      325F7400 
 3681              	.LASF1:
 3682 03a6 756E7369 		.ascii	"unsigned char\000"
 3682      676E6564 
 3682      20636861 
 3682      7200
 3683              	.LASF58:
 3684 03b4 6D5F7175 		.ascii	"m_queue\000"
 3684      65756500 
 3685              	.LASF63:
 3686 03bc 656C5F6C 		.ascii	"el_listener\000"
 3686      69737465 
 3686      6E657200 
 3687              	.LASF65:
ARM GAS  C:\Users\DNIEL~1\AppData\Local\Temp\ccsHMJp3.s 			page 72


 3688 03c8 656C5F66 		.ascii	"el_flags\000"
 3688      6C616773 
 3688      00
 3689              	.LASF42:
 3690 03d1 705F6D74 		.ascii	"p_mtxlist\000"
 3690      786C6973 
 3690      7400
 3691              	.LASF2:
 3692 03db 73686F72 		.ascii	"short int\000"
 3692      7420696E 
 3692      7400
 3693              	.LASF33:
 3694 03e5 705F7374 		.ascii	"p_state\000"
 3694      61746500 
 3695              	.LASF36:
 3696 03ed 705F7072 		.ascii	"p_preempt\000"
 3696      65656D70 
 3696      7400
 3697              	.LASF51:
 3698 03f7 725F7072 		.ascii	"r_prio\000"
 3698      696F00
 3699              	.LASF71:
 3700 03fe 65776D61 		.ascii	"ewmask\000"
 3700      736B00
 3701              	.LASF26:
 3702 0405 705F6E65 		.ascii	"p_next\000"
 3702      787400
 3703              	.LASF84:
 3704 040c 42617365 		.ascii	"BaseSequentialStreamVMT\000"
 3704      53657175 
 3704      656E7469 
 3704      616C5374 
 3704      7265616D 
 3705              	.LASF34:
 3706 0424 705F666C 		.ascii	"p_flags\000"
 3706      61677300 
 3707              	.LASF62:
 3708 042c 656C5F6E 		.ascii	"el_next\000"
 3708      65787400 
 3709              	.LASF98:
 3710 0434 53445F53 		.ascii	"SD_STOP\000"
 3710      544F5000 
 3711              	.LASF25:
 3712 043c 54687265 		.ascii	"Thread\000"
 3712      616400
 3713              	.LASF41:
 3714 0443 705F6570 		.ascii	"p_epending\000"
 3714      656E6469 
 3714      6E6700
 3715              	.LASF97:
 3716 044e 53445F55 		.ascii	"SD_UNINIT\000"
 3716      4E494E49 
 3716      5400
 3717              	.LASF93:
 3718 0458 52455345 		.ascii	"RESERVED5\000"
 3718      52564544 
 3718      3500
ARM GAS  C:\Users\DNIEL~1\AppData\Local\Temp\ccsHMJp3.s 			page 73


 3719              	.LASF14:
 3720 0462 75696E74 		.ascii	"uint32_t\000"
 3720      33325F74 
 3720      00
 3721              	.LASF50:
 3722 046b 725F7175 		.ascii	"r_queue\000"
 3722      65756500 
 3723              	.LASF100:
 3724 0473 73647374 		.ascii	"sdstate_t\000"
 3724      6174655F 
 3724      7400
 3725              	.LASF101:
 3726 047d 53657269 		.ascii	"SerialDriver\000"
 3726      616C4472 
 3726      69766572 
 3726      00
 3727              	.LASF8:
 3728 048a 6C6F6E67 		.ascii	"long unsigned int\000"
 3728      20756E73 
 3728      69676E65 
 3728      6420696E 
 3728      7400
 3729              	.LASF86:
 3730 049c 72656164 		.ascii	"read\000"
 3730      00
 3731              	.LASF9:
 3732 04a1 63686172 		.ascii	"char\000"
 3732      00
 3733              	.LASF132:
 3734 04a6 73746174 		.ascii	"states\000"
 3734      657300
 3735              	.LASF60:
 3736 04ad 6D5F6E65 		.ascii	"m_next\000"
 3736      787400
 3737              	.LASF24:
 3738 04b4 73797374 		.ascii	"systime_t\000"
 3738      696D655F 
 3738      7400
 3739              	.LASF43:
 3740 04be 705F7265 		.ascii	"p_realprio\000"
 3740      616C7072 
 3740      696F00
 3741              	.LASF120:
 3742 04c9 5368656C 		.ascii	"ShellConfig\000"
 3742      6C436F6E 
 3742      66696700 
 3743              	.LASF150:
 3744 04d5 5F6B696C 		.ascii	"_kill\000"
 3744      6C00
 3745              	.LASF123:
 3746 04db 5F5F6170 		.ascii	"__ap\000"
 3746      00
 3747              	.LASF49:
 3748 04e0 636F6E74 		.ascii	"context\000"
 3748      65787400 
 3749              	.LASF48:
 3750 04e8 696E7463 		.ascii	"intctx\000"
ARM GAS  C:\Users\DNIEL~1\AppData\Local\Temp\ccsHMJp3.s 			page 74


 3750      747800
 3751              	.LASF99:
 3752 04ef 53445F52 		.ascii	"SD_READY\000"
 3752      45414459 
 3752      00
 3753              	.LASF23:
 3754 04f8 666C6167 		.ascii	"flagsmask_t\000"
 3754      736D6173 
 3754      6B5F7400 
 3755              	.LASF143:
 3756 0504 636F6D6D 		.ascii	"commands\000"
 3756      616E6473 
 3756      00
 3757              	.LASF129:
 3758 050d 61726776 		.ascii	"argv\000"
 3758      00
 3759              	.LASF76:
 3760 0512 715F746F 		.ascii	"q_top\000"
 3760      7000
 3761              	.LASF32:
 3762 0518 705F6E61 		.ascii	"p_name\000"
 3762      6D6500
 3763              	.LASF67:
 3764 051f 65735F6E 		.ascii	"es_next\000"
 3764      65787400 
 3765              	.LASF56:
 3766 0527 52656164 		.ascii	"ReadyList\000"
 3766      794C6973 
 3766      7400
 3767              	.LASF79:
 3768 0531 715F6E6F 		.ascii	"q_notify\000"
 3768      74696679 
 3768      00
 3769              	.LASF138:
 3770 053a 726C6973 		.ascii	"rlist\000"
 3770      7400
 3771              	.LASF11:
 3772 0540 75696E74 		.ascii	"uint8_t\000"
 3772      385F7400 
 3773              	.LASF116:
 3774 0548 73635F66 		.ascii	"sc_function\000"
 3774      756E6374 
 3774      696F6E00 
 3775              	.LASF144:
 3776 0554 7368656C 		.ascii	"shell_cfg1\000"
 3776      6C5F6366 
 3776      673100
 3777              	.LASF61:
 3778 055f 4576656E 		.ascii	"EventListener\000"
 3778      744C6973 
 3778      74656E65 
 3778      7200
 3779              	.LASF70:
 3780 056d 77746F62 		.ascii	"wtobjp\000"
 3780      6A7000
 3781              	.LASF145:
 3782 0574 474E5520 		.ascii	"GNU C 4.5.2\000"
ARM GAS  C:\Users\DNIEL~1\AppData\Local\Temp\ccsHMJp3.s 			page 75


 3782      4320342E 
 3782      352E3200 
 3783              	.LASF128:
 3784 0580 61726763 		.ascii	"argc\000"
 3784      00
 3785              	.LASF40:
 3786 0585 705F6D73 		.ascii	"p_msg\000"
 3786      6700
 3787              	.LASF80:
 3788 058b 715F6C69 		.ascii	"q_link\000"
 3788      6E6B00
 3789              	.LASF59:
 3790 0592 6D5F6F77 		.ascii	"m_owner\000"
 3790      6E657200 
 3791              	.LASF29:
 3792 059a 705F6374 		.ascii	"p_ctx\000"
 3792      7800
 3793              	.LASF38:
 3794 05a0 705F7761 		.ascii	"p_waiting\000"
 3794      6974696E 
 3794      6700
 3795              	.LASF148:
 3796 05aa 63687072 		.ascii	"chprintf\000"
 3796      696E7466 
 3796      00
 3797              		.ident	"GCC: (Sourcery G++ Lite 2011.03-42) 4.5.2"
ARM GAS  C:\Users\DNIEL~1\AppData\Local\Temp\ccsHMJp3.s 			page 76


DEFINED SYMBOLS
                            *ABS*:00000000 console.c
C:\Users\DNIEL~1\AppData\Local\Temp\ccsHMJp3.s:24     .text.chprintf:00000000 $t
C:\Users\DNIEL~1\AppData\Local\Temp\ccsHMJp3.s:29     .text.chprintf:00000000 chprintf
C:\Users\DNIEL~1\AppData\Local\Temp\ccsHMJp3.s:69     .text.cmd_test:00000000 $t
C:\Users\DNIEL~1\AppData\Local\Temp\ccsHMJp3.s:75     .text.cmd_test:00000000 cmd_test
C:\Users\DNIEL~1\AppData\Local\Temp\ccsHMJp3.s:141    .text.cmd_test:00000044 $d
C:\Users\DNIEL~1\AppData\Local\Temp\ccsHMJp3.s:149    .text.cmd_threads:00000000 $t
C:\Users\DNIEL~1\AppData\Local\Temp\ccsHMJp3.s:155    .text.cmd_threads:00000000 cmd_threads
C:\Users\DNIEL~1\AppData\Local\Temp\ccsHMJp3.s:236    .text.cmd_threads:00000058 $d
C:\Users\DNIEL~1\AppData\Local\Temp\ccsHMJp3.s:244    .text.cmd_mem:00000000 $t
C:\Users\DNIEL~1\AppData\Local\Temp\ccsHMJp3.s:250    .text.cmd_mem:00000000 cmd_mem
C:\Users\DNIEL~1\AppData\Local\Temp\ccsHMJp3.s:314    .text.cmd_mem:00000044 $d
C:\Users\DNIEL~1\AppData\Local\Temp\ccsHMJp3.s:322    .text._getpid:00000000 $t
C:\Users\DNIEL~1\AppData\Local\Temp\ccsHMJp3.s:328    .text._getpid:00000000 _getpid
C:\Users\DNIEL~1\AppData\Local\Temp\ccsHMJp3.s:342    .text._exit:00000000 $t
C:\Users\DNIEL~1\AppData\Local\Temp\ccsHMJp3.s:348    .text._exit:00000000 _exit
C:\Users\DNIEL~1\AppData\Local\Temp\ccsHMJp3.s:363    .text._kill:00000000 $t
C:\Users\DNIEL~1\AppData\Local\Temp\ccsHMJp3.s:369    .text._kill:00000000 _kill
C:\Users\DNIEL~1\AppData\Local\Temp\ccsHMJp3.s:388    .text._kill:0000000c $d
C:\Users\DNIEL~1\AppData\Local\Temp\ccsHMJp3.s:393    .text.consoleInit:00000000 $t
C:\Users\DNIEL~1\AppData\Local\Temp\ccsHMJp3.s:399    .text.consoleInit:00000000 consoleInit
C:\Users\DNIEL~1\AppData\Local\Temp\ccsHMJp3.s:425    .text.consoleInit:00000018 $d
C:\Users\DNIEL~1\AppData\Local\Temp\ccsHMJp3.s:432    .text.consoleStart:00000000 $t
C:\Users\DNIEL~1\AppData\Local\Temp\ccsHMJp3.s:438    .text.consoleStart:00000000 consoleStart
C:\Users\DNIEL~1\AppData\Local\Temp\ccsHMJp3.s:476    .text.consoleStart:0000002c $d
C:\Users\DNIEL~1\AppData\Local\Temp\ccsHMJp3.s:508    .bss.consoleThread:00000000 consoleThread
C:\Users\DNIEL~1\AppData\Local\Temp\ccsHMJp3.s:483    .rodata.commands:00000000 $d
C:\Users\DNIEL~1\AppData\Local\Temp\ccsHMJp3.s:486    .rodata.commands:00000000 commands
C:\Users\DNIEL~1\AppData\Local\Temp\ccsHMJp3.s:504    .bss.consoleThread:00000000 $d
C:\Users\DNIEL~1\AppData\Local\Temp\ccsHMJp3.s:511    .rodata.str1.4:00000000 $d
C:\Users\DNIEL~1\AppData\Local\Temp\ccsHMJp3.s:595    .rodata.shell_cfg1:00000000 $d
C:\Users\DNIEL~1\AppData\Local\Temp\ccsHMJp3.s:599    .rodata.shell_cfg1:00000000 shell_cfg1
C:\Users\DNIEL~1\AppData\Local\Temp\ccsHMJp3.s:603    .data.ser_cfg:00000000 $d
C:\Users\DNIEL~1\AppData\Local\Temp\ccsHMJp3.s:607    .data.ser_cfg:00000000 ser_cfg
C:\Users\DNIEL~1\AppData\Local\Temp\ccsHMJp3.s:614    .rodata.states.8595:00000000 $d
C:\Users\DNIEL~1\AppData\Local\Temp\ccsHMJp3.s:618    .rodata.states.8595:00000000 states.8595
                     .debug_frame:00000010 $d
C:\Users\DNIEL~1\AppData\Local\Temp\ccsHMJp3.s:148    .text.cmd_test:00000054 $t
C:\Users\DNIEL~1\AppData\Local\Temp\ccsHMJp3.s:243    .text.cmd_threads:00000068 $t
C:\Users\DNIEL~1\AppData\Local\Temp\ccsHMJp3.s:321    .text.cmd_mem:00000054 $t
C:\Users\DNIEL~1\AppData\Local\Temp\ccsHMJp3.s:431    .text.consoleInit:00000024 $t
C:\Users\DNIEL~1\AppData\Local\Temp\ccsHMJp3.s:482    .text.consoleStart:00000034 $t

UNDEFINED SYMBOLS
chvprintf
chThdCreateFromHeap
chThdWait
rlist
TestThread
chRegFirstThread
chRegNextThread
chHeapStatus
chCoreStatus
errno
sdStart
shellInit
ARM GAS  C:\Users\DNIEL~1\AppData\Local\Temp\ccsHMJp3.s 			page 77


SD1
chThdRelease
shellCreate
cmd_can_commvalues
cmd_one_virevalues
cmd_ds18b20_values
cmd_lightblink
