ARM GAS  C:\Users\DNIEL~1\AppData\Local\Temp\ccKBBRz2.s 			page 1


   1              		.syntax unified
   2              		.cpu cortex-m3
   3              		.fpu softvfp
   4              		.eabi_attribute 20, 1
   5              		.eabi_attribute 21, 1
   6              		.eabi_attribute 23, 3
   7              		.eabi_attribute 24, 1
   8              		.eabi_attribute 25, 1
   9              		.eabi_attribute 26, 1
  10              		.eabi_attribute 30, 2
  11              		.eabi_attribute 18, 4
  12              		.thumb
  13              		.file	"console.c"
  20 0000 C1030000 		.text
  20      0200E502 
  20      00000201 
  20      FB0E0D00 
  20      01010101 
  21              	.Ltext0:
  22              		.cfi_sections	.debug_frame
  23              		.section	.text.cmd_test,"ax",%progbits
  24              		.align	2
  25              		.p2align 4,,15
  26              		.global	cmd_test
  27              		.thumb
  28              		.thumb_func
  29              		.type	cmd_test, %function
  30              	cmd_test:
  31              	.LFB125:
  32              		.file 1 "src/console.c"
  33              		.loc 1 114 0
  34              		.cfi_startproc
  35              		@ args = 0, pretend = 0, frame = 0
  36              		@ frame_needed = 0, uses_anonymous_args = 0
  37              	.LVL0:
  38 0000 10B5     		push	{r4, lr}
  39              	.LCFI0:
  40              		.cfi_def_cfa_offset 8
  41              		.loc 1 118 0
  42 0002 0029     		cmp	r1, #0
  43              		.loc 1 114 0
  44 0004 82B0     		sub	sp, sp, #8
  45              	.LCFI1:
  46              		.cfi_def_cfa_offset 16
  47              		.loc 1 114 0
  48 0006 0446     		mov	r4, r0
  49              		.cfi_offset 14, -4
  50              		.cfi_offset 4, -8
  51              		.loc 1 118 0
  52 0008 05DD     		ble	.L2
  53              		.loc 1 119 0
ARM GAS  C:\Users\DNIEL~1\AppData\Local\Temp\ccKBBRz2.s 			page 2


  54 000a 0E49     		ldr	r1, .L6
  55              	.LVL1:
  56              		.loc 1 129 0
  57 000c 02B0     		add	sp, sp, #8
  58 000e BDE81040 		pop	{r4, lr}
  59              		.loc 1 119 0
  60 0012 FFF7FEBF 		b	chprintf
  61              	.LVL2:
  62              	.L2:
  63              		.loc 1 122 0
  64 0016 0C49     		ldr	r1, .L6+4
  65              	.LVL3:
  66 0018 0020     		movs	r0, #0
  67 001a 8B69     		ldr	r3, [r1, #24]
  68 001c 4FF4D871 		mov	r1, #432
  69 0020 9A68     		ldr	r2, [r3, #8]
  70              	.LVL4:
  71 0022 0A4B     		ldr	r3, .L6+8
  72 0024 0094     		str	r4, [sp, #0]
  73 0026 FFF7FEFF 		bl	chThdCreateFromHeap
  74              	.LVL5:
  75              		.loc 1 124 0
  76 002a 20B1     		cbz	r0, .L5
  77              		.loc 1 129 0
  78 002c 02B0     		add	sp, sp, #8
  79 002e BDE81040 		pop	{r4, lr}
  80              		.loc 1 128 0
  81 0032 FFF7FEBF 		b	chThdWait
  82              	.LVL6:
  83              	.L5:
  84              		.loc 1 125 0
  85 0036 0649     		ldr	r1, .L6+12
  86 0038 2046     		mov	r0, r4
  87              	.LVL7:
  88              		.loc 1 129 0
  89 003a 02B0     		add	sp, sp, #8
  90 003c BDE81040 		pop	{r4, lr}
  91              		.loc 1 125 0
  92 0040 FFF7FEBF 		b	chprintf
  93              	.L7:
  94              		.align	2
  95              	.L6:
  96 0044 00000000 		.word	.LC0
  97 0048 00000000 		.word	rlist
  98 004c 00000000 		.word	TestThread
  99 0050 10000000 		.word	.LC1
 100              		.cfi_endproc
 101              	.LFE125:
 102              		.size	cmd_test, .-cmd_test
 103 0054 AFF30080 		.section	.text.cmd_threads,"ax",%progbits
 103      AFF30080 
 103      AFF30080 
 104              		.align	2
 105              		.p2align 4,,15
 106              		.global	cmd_threads
 107              		.thumb
 108              		.thumb_func
ARM GAS  C:\Users\DNIEL~1\AppData\Local\Temp\ccKBBRz2.s 			page 3


 109              		.type	cmd_threads, %function
 110              	cmd_threads:
 111              	.LFB124:
 112              		.loc 1 94 0
 113              		.cfi_startproc
 114              		@ args = 0, pretend = 0, frame = 0
 115              		@ frame_needed = 0, uses_anonymous_args = 0
 116              	.LVL8:
 117 0000 F0B5     		push	{r4, r5, r6, r7, lr}
 118              	.LCFI2:
 119              		.cfi_def_cfa_offset 20
 120              		.loc 1 99 0
 121 0002 0029     		cmp	r1, #0
 122              		.loc 1 94 0
 123 0004 85B0     		sub	sp, sp, #20
 124              	.LCFI3:
 125              		.cfi_def_cfa_offset 40
 126              		.loc 1 94 0
 127 0006 0546     		mov	r5, r0
 128              		.cfi_offset 14, -4
 129              		.cfi_offset 7, -8
 130              		.cfi_offset 6, -12
 131              		.cfi_offset 5, -16
 132              		.cfi_offset 4, -20
 133              		.loc 1 99 0
 134 0008 05DD     		ble	.L9
 135              		.loc 1 100 0
 136 000a 1449     		ldr	r1, .L12
 137              	.LVL9:
 138              		.loc 1 112 0
 139 000c 05B0     		add	sp, sp, #20
 140 000e BDE8F040 		pop	{r4, r5, r6, r7, lr}
 141              		.loc 1 100 0
 142 0012 FFF7FEBF 		b	chprintf
 143              	.LVL10:
 144              	.L9:
 145              		.loc 1 103 0
 146 0016 1249     		ldr	r1, .L12+4
 147              	.LVL11:
 148 0018 FFF7FEFF 		bl	chprintf
 149              	.LVL12:
 150              		.loc 1 104 0
 151 001c FFF7FEFF 		bl	chRegFirstThread
 152 0020 104E     		ldr	r6, .L12+8
 153 0022 0446     		mov	r4, r0
 154              	.LVL13:
 155              	.L10:
 156              		.loc 1 106 0 discriminator 1
 157 0024 A168     		ldr	r1, [r4, #8]
 158 0026 E368     		ldr	r3, [r4, #12]
 159 0028 676A     		ldr	r7, [r4, #36]
 160 002a 0091     		str	r1, [sp, #0]
 161              		.loc 1 108 0 discriminator 1
 162 002c 94F82200 		ldrb	r0, [r4, #34]	@ zero_extendqisi2
 163              	.LVL14:
 164              		.loc 1 106 0 discriminator 1
 165 0030 0D49     		ldr	r1, .L12+12
ARM GAS  C:\Users\DNIEL~1\AppData\Local\Temp\ccKBBRz2.s 			page 4


 166              		.loc 1 108 0 discriminator 1
 167 0032 421E     		subs	r2, r0, #1
 168              		.loc 1 106 0 discriminator 1
 169 0034 0192     		str	r2, [sp, #4]
 170 0036 94F82000 		ldrb	r0, [r4, #32]	@ zero_extendqisi2
 171 003a 2246     		mov	r2, r4
 172 003c 56F820E0 		ldr	lr, [r6, r0, lsl #2]
 173 0040 2846     		mov	r0, r5
 174 0042 CDF808E0 		str	lr, [sp, #8]
 175 0046 0397     		str	r7, [sp, #12]
 176 0048 FFF7FEFF 		bl	chprintf
 177              		.loc 1 110 0 discriminator 1
 178 004c 2046     		mov	r0, r4
 179 004e FFF7FEFF 		bl	chRegNextThread
 180              	.LVL15:
 181              		.loc 1 111 0 discriminator 1
 182 0052 0446     		mov	r4, r0
 183 0054 0028     		cmp	r0, #0
 184 0056 E5D1     		bne	.L10
 185              		.loc 1 112 0
 186 0058 05B0     		add	sp, sp, #20
 187 005a F0BD     		pop	{r4, r5, r6, r7, pc}
 188              	.L13:
 189              		.align	2
 190              	.L12:
 191 005c 20000000 		.word	.LC2
 192 0060 34000000 		.word	.LC3
 193 0064 00000000 		.word	.LANCHOR0
 194 0068 64000000 		.word	.LC4
 195              		.cfi_endproc
 196              	.LFE124:
 197              		.size	cmd_threads, .-cmd_threads
 198 006c AFF30080 		.section	.text.cmd_mem,"ax",%progbits
 199              		.align	2
 200              		.p2align 4,,15
 201              		.global	cmd_mem
 202              		.thumb
 203              		.thumb_func
 204              		.type	cmd_mem, %function
 205              	cmd_mem:
 206              	.LFB123:
 207              		.loc 1 80 0
 208              		.cfi_startproc
 209              		@ args = 0, pretend = 0, frame = 8
 210              		@ frame_needed = 0, uses_anonymous_args = 0
 211              	.LVL16:
 212 0000 30B5     		push	{r4, r5, lr}
 213              	.LCFI4:
 214              		.cfi_def_cfa_offset 12
 215              		.loc 1 84 0
 216 0002 0029     		cmp	r1, #0
 217              		.loc 1 80 0
 218 0004 83B0     		sub	sp, sp, #12
 219              	.LCFI5:
 220              		.cfi_def_cfa_offset 24
 221              		.loc 1 80 0
 222 0006 0446     		mov	r4, r0
ARM GAS  C:\Users\DNIEL~1\AppData\Local\Temp\ccKBBRz2.s 			page 5


 223              		.cfi_offset 14, -4
 224              		.cfi_offset 5, -8
 225              		.cfi_offset 4, -12
 226              		.loc 1 84 0
 227 0008 04DD     		ble	.L15
 228              		.loc 1 85 0
 229 000a 0E49     		ldr	r1, .L17
 230              	.LVL17:
 231 000c FFF7FEFF 		bl	chprintf
 232              	.LVL18:
 233              	.L14:
 234              		.loc 1 92 0
 235 0010 03B0     		add	sp, sp, #12
 236 0012 30BD     		pop	{r4, r5, pc}
 237              	.LVL19:
 238              	.L15:
 239              		.loc 1 88 0
 240 0014 01A9     		add	r1, sp, #4
 241              	.LVL20:
 242 0016 0020     		movs	r0, #0
 243 0018 FFF7FEFF 		bl	chHeapStatus
 244              	.LVL21:
 245 001c 0546     		mov	r5, r0
 246              	.LVL22:
 247              		.loc 1 89 0
 248 001e FFF7FEFF 		bl	chCoreStatus
 249              	.LVL23:
 250 0022 0949     		ldr	r1, .L17+4
 251 0024 0246     		mov	r2, r0
 252 0026 2046     		mov	r0, r4
 253 0028 FFF7FEFF 		bl	chprintf
 254              		.loc 1 90 0
 255 002c 2046     		mov	r0, r4
 256 002e 2A46     		mov	r2, r5
 257 0030 0649     		ldr	r1, .L17+8
 258 0032 FFF7FEFF 		bl	chprintf
 259              		.loc 1 91 0
 260 0036 2046     		mov	r0, r4
 261 0038 0549     		ldr	r1, .L17+12
 262              	.LVL24:
 263 003a 019A     		ldr	r2, [sp, #4]
 264 003c FFF7FEFF 		bl	chprintf
 265 0040 E6E7     		b	.L14
 266              	.L18:
 267 0042 00BF     		.align	2
 268              	.L17:
 269 0044 84000000 		.word	.LC5
 270 0048 94000000 		.word	.LC6
 271 004c B4000000 		.word	.LC7
 272 0050 CC000000 		.word	.LC8
 273              		.cfi_endproc
 274              	.LFE123:
 275              		.size	cmd_mem, .-cmd_mem
 276 0054 AFF30080 		.section	.text._getpid,"ax",%progbits
 276      AFF30080 
 276      AFF30080 
 277              		.align	2
ARM GAS  C:\Users\DNIEL~1\AppData\Local\Temp\ccKBBRz2.s 			page 6


 278              		.p2align 4,,15
 279              		.global	_getpid
 280              		.thumb
 281              		.thumb_func
 282              		.type	_getpid, %function
 283              	_getpid:
 284              	.LFB118:
 285              		.loc 1 19 0
 286              		.cfi_startproc
 287              		@ args = 0, pretend = 0, frame = 0
 288              		@ frame_needed = 0, uses_anonymous_args = 0
 289              		@ link register save eliminated.
 290              		.loc 1 19 0
 291 0000 0120     		movs	r0, #1
 292 0002 7047     		bx	lr
 293              		.cfi_endproc
 294              	.LFE118:
 295              		.size	_getpid, .-_getpid
 296 0004 AFF30080 		.section	.text._exit,"ax",%progbits
 296      AFF30080 
 296      AFF30080 
 297              		.align	2
 298              		.p2align 4,,15
 299              		.global	_exit
 300              		.thumb
 301              		.thumb_func
 302              		.type	_exit, %function
 303              	_exit:
 304              	.LFB119:
 305              		.loc 1 21 0
 306              		.cfi_startproc
 307              		@ Volatile: function does not return.
 308              		@ args = 0, pretend = 0, frame = 0
 309              		@ frame_needed = 0, uses_anonymous_args = 0
 310              		@ link register save eliminated.
 311              	.LVL25:
 312              		.loc 1 21 0
 313 0000 7047     		bx	lr
 314              		.cfi_endproc
 315              	.LFE119:
 316              		.size	_exit, .-_exit
 317 0002 00BFAFF3 		.section	.text._kill,"ax",%progbits
 317      0080AFF3 
 317      0080AFF3 
 317      0080
 318              		.align	2
 319              		.p2align 4,,15
 320              		.global	_kill
 321              		.thumb
 322              		.thumb_func
 323              		.type	_kill, %function
 324              	_kill:
 325              	.LFB120:
 326              		.loc 1 26 0
 327              		.cfi_startproc
 328              		@ args = 0, pretend = 0, frame = 0
 329              		@ frame_needed = 0, uses_anonymous_args = 0
ARM GAS  C:\Users\DNIEL~1\AppData\Local\Temp\ccKBBRz2.s 			page 7


 330              		@ link register save eliminated.
 331              	.LVL26:
 332              		.loc 1 29 0
 333 0000 024B     		ldr	r3, .L22
 334 0002 1622     		movs	r2, #22
 335 0004 1A60     		str	r2, [r3, #0]
 336              		.loc 1 31 0
 337 0006 4FF0FF30 		mov	r0, #-1
 338              	.LVL27:
 339 000a 7047     		bx	lr
 340              	.L23:
 341              		.align	2
 342              	.L22:
 343 000c 00000000 		.word	errno
 344              		.cfi_endproc
 345              	.LFE120:
 346              		.size	_kill, .-_kill
 347              		.section	.text.consoleInit,"ax",%progbits
 348              		.align	2
 349              		.p2align 4,,15
 350              		.global	consoleInit
 351              		.thumb
 352              		.thumb_func
 353              		.type	consoleInit, %function
 354              	consoleInit:
 355              	.LFB121:
 356              		.loc 1 62 0
 357              		.cfi_startproc
 358              		@ args = 0, pretend = 0, frame = 0
 359              		@ frame_needed = 0, uses_anonymous_args = 0
 360 0000 08B5     		push	{r3, lr}
 361              	.LCFI6:
 362              		.cfi_def_cfa_offset 8
 363              		.loc 1 65 0
 364 0002 0548     		ldr	r0, .L25
 365 0004 0549     		ldr	r1, .L25+4
 366              		.cfi_offset 14, -4
 367              		.cfi_offset 3, -8
 368 0006 FFF7FEFF 		bl	sdStart
 369              		.loc 1 66 0
 370 000a FFF7FEFF 		bl	shellInit
 371              		.loc 1 67 0
 372 000e 044B     		ldr	r3, .L25+8
 373 0010 0022     		movs	r2, #0
 374 0012 1A60     		str	r2, [r3, #0]
 375              		.loc 1 68 0
 376 0014 08BD     		pop	{r3, pc}
 377              	.L26:
 378 0016 00BF     		.align	2
 379              	.L25:
 380 0018 00000000 		.word	SD1
 381 001c 00000000 		.word	.LANCHOR1
 382 0020 00000000 		.word	.LANCHOR2
 383              		.cfi_endproc
 384              	.LFE121:
 385              		.size	consoleInit, .-consoleInit
 386 0024 AFF30080 		.section	.text.consoleStart,"ax",%progbits
ARM GAS  C:\Users\DNIEL~1\AppData\Local\Temp\ccKBBRz2.s 			page 8


 386      AFF30080 
 386      AFF30080 
 387              		.align	2
 388              		.p2align 4,,15
 389              		.global	consoleStart
 390              		.thumb
 391              		.thumb_func
 392              		.type	consoleStart, %function
 393              	consoleStart:
 394              	.LFB122:
 395              		.loc 1 70 0
 396              		.cfi_startproc
 397              		@ args = 0, pretend = 0, frame = 0
 398              		@ frame_needed = 0, uses_anonymous_args = 0
 399 0000 10B5     		push	{r4, lr}
 400              	.LCFI7:
 401              		.cfi_def_cfa_offset 8
 402              		.loc 1 71 0
 403 0002 0A4C     		ldr	r4, .L32
 404              		.cfi_offset 14, -4
 405              		.cfi_offset 4, -8
 406 0004 2068     		ldr	r0, [r4, #0]
 407 0006 48B1     		cbz	r0, .L30
 408              		.loc 1 74 0
 409 0008 90F82030 		ldrb	r3, [r0, #32]	@ zero_extendqisi2
 410 000c 0E2B     		cmp	r3, #14
 411 000e 00D0     		beq	.L31
 412 0010 10BD     		pop	{r4, pc}
 413              	.L31:
 414              		.loc 1 75 0
 415 0012 FFF7FEFF 		bl	chThdRelease
 416              		.loc 1 76 0
 417 0016 0020     		movs	r0, #0
 418 0018 2060     		str	r0, [r4, #0]
 419 001a 10BD     		pop	{r4, pc}
 420              	.L30:
 421              		.loc 1 72 0
 422 001c 0448     		ldr	r0, .L32+4
 423 001e 4FF41B61 		mov	r1, #2480
 424 0022 4022     		movs	r2, #64
 425 0024 FFF7FEFF 		bl	shellCreate
 426 0028 2060     		str	r0, [r4, #0]
 427 002a 10BD     		pop	{r4, pc}
 428              	.L33:
 429              		.align	2
 430              	.L32:
 431 002c 00000000 		.word	.LANCHOR2
 432 0030 00000000 		.word	.LANCHOR3
 433              		.cfi_endproc
 434              	.LFE122:
 435              		.size	consoleStart, .-consoleStart
 436              		.global	consoleThread
 437 0034 AFF30080 		.section	.rodata.commands,"a",%progbits
 437      AFF30080 
 437      AFF30080 
 438              		.align	2
 439              		.type	commands, %object
ARM GAS  C:\Users\DNIEL~1\AppData\Local\Temp\ccKBBRz2.s 			page 9


 440              		.size	commands, 32
 441              	commands:
 442 0000 70010000 		.word	.LC24
 443 0004 00000000 		.word	cmd_mem
 444 0008 74010000 		.word	.LC25
 445 000c 00000000 		.word	cmd_threads
 446 0010 7C010000 		.word	.LC26
 447 0014 00000000 		.word	cmd_test
 448 0018 00000000 		.word	0
 449 001c 00000000 		.word	0
 450              		.section	.bss.consoleThread,"aw",%nobits
 451              		.align	2
 452              		.set	.LANCHOR2,. + 0
 453              		.type	consoleThread, %object
 454              		.size	consoleThread, 4
 455              	consoleThread:
 456 0000 00000000 		.space	4
 457              		.section	.rodata.states.7297,"a",%progbits
 458              		.align	2
 459              		.set	.LANCHOR0,. + 0
 460              		.type	states.7297, %object
 461              		.size	states.7297, 60
 462              	states.7297:
 463 0000 EC000000 		.word	.LC9
 464 0004 F4000000 		.word	.LC10
 465 0008 FC000000 		.word	.LC11
 466 000c 08010000 		.word	.LC12
 467 0010 10010000 		.word	.LC13
 468 0014 18010000 		.word	.LC14
 469 0018 20010000 		.word	.LC15
 470 001c 2C010000 		.word	.LC16
 471 0020 34010000 		.word	.LC17
 472 0024 3C010000 		.word	.LC18
 473 0028 48010000 		.word	.LC19
 474 002c 50010000 		.word	.LC20
 475 0030 58010000 		.word	.LC21
 476 0034 60010000 		.word	.LC22
 477 0038 68010000 		.word	.LC23
 478              		.section	.rodata.str1.4,"aMS",%progbits,1
 479              		.align	2
 480              	.LC0:
 481 0000 55736167 		.ascii	"Usage: test\015\012\000"
 481      653A2074 
 481      6573740D 
 481      0A00
 482 000e 0000     		.space	2
 483              	.LC1:
 484 0010 6F757420 		.ascii	"out of memory\015\012\000"
 484      6F66206D 
 484      656D6F72 
 484      790D0A00 
 485              	.LC2:
 486 0020 55736167 		.ascii	"Usage: threads\015\012\000"
 486      653A2074 
 486      68726561 
 486      64730D0A 
 486      00
ARM GAS  C:\Users\DNIEL~1\AppData\Local\Temp\ccKBBRz2.s 			page 10


 487 0031 000000   		.space	3
 488              	.LC3:
 489 0034 20202020 		.ascii	"    addr    stack prio refs     state time\015\012\000"
 489      61646472 
 489      20202020 
 489      73746163 
 489      6B207072 
 490 0061 000000   		.space	3
 491              	.LC4:
 492 0064 252E386C 		.ascii	"%.8lx %.8lx %4lu %4lu %9s %lu\015\012\000"
 492      7820252E 
 492      386C7820 
 492      25346C75 
 492      2025346C 
 493              	.LC5:
 494 0084 55736167 		.ascii	"Usage: mem\015\012\000"
 494      653A206D 
 494      656D0D0A 
 494      00
 495 0091 000000   		.space	3
 496              	.LC6:
 497 0094 636F7265 		.ascii	"core free memory : %u bytes\015\012\000"
 497      20667265 
 497      65206D65 
 497      6D6F7279 
 497      203A2025 
 498 00b2 0000     		.space	2
 499              	.LC7:
 500 00b4 68656170 		.ascii	"heap fragments   : %u\015\012\000"
 500      20667261 
 500      676D656E 
 500      74732020 
 500      203A2025 
 501              	.LC8:
 502 00cc 68656170 		.ascii	"heap free total  : %u bytes\015\012\000"
 502      20667265 
 502      6520746F 
 502      74616C20 
 502      203A2025 
 503 00ea 0000     		.space	2
 504              	.LC9:
 505 00ec 52454144 		.ascii	"READY\000"
 505      5900
 506 00f2 0000     		.space	2
 507              	.LC10:
 508 00f4 43555252 		.ascii	"CURRENT\000"
 508      454E5400 
 509              	.LC11:
 510 00fc 53555350 		.ascii	"SUSPENDED\000"
 510      454E4445 
 510      4400
 511 0106 0000     		.space	2
 512              	.LC12:
 513 0108 57545345 		.ascii	"WTSEM\000"
 513      4D00
 514 010e 0000     		.space	2
 515              	.LC13:
ARM GAS  C:\Users\DNIEL~1\AppData\Local\Temp\ccKBBRz2.s 			page 11


 516 0110 57544D54 		.ascii	"WTMTX\000"
 516      5800
 517 0116 0000     		.space	2
 518              	.LC14:
 519 0118 5754434F 		.ascii	"WTCOND\000"
 519      4E4400
 520 011f 00       		.space	1
 521              	.LC15:
 522 0120 534C4545 		.ascii	"SLEEPING\000"
 522      50494E47 
 522      00
 523 0129 000000   		.space	3
 524              	.LC16:
 525 012c 57544558 		.ascii	"WTEXIT\000"
 525      495400
 526 0133 00       		.space	1
 527              	.LC17:
 528 0134 57544F52 		.ascii	"WTOREVT\000"
 528      45565400 
 529              	.LC18:
 530 013c 5754414E 		.ascii	"WTANDEVT\000"
 530      44455654 
 530      00
 531 0145 000000   		.space	3
 532              	.LC19:
 533 0148 534E444D 		.ascii	"SNDMSGQ\000"
 533      53475100 
 534              	.LC20:
 535 0150 534E444D 		.ascii	"SNDMSG\000"
 535      534700
 536 0157 00       		.space	1
 537              	.LC21:
 538 0158 57544D53 		.ascii	"WTMSG\000"
 538      4700
 539 015e 0000     		.space	2
 540              	.LC22:
 541 0160 57545155 		.ascii	"WTQUEUE\000"
 541      45554500 
 542              	.LC23:
 543 0168 46494E41 		.ascii	"FINAL\000"
 543      4C00
 544 016e 0000     		.space	2
 545              	.LC24:
 546 0170 6D656D00 		.ascii	"mem\000"
 547              	.LC25:
 548 0174 74687265 		.ascii	"threads\000"
 548      61647300 
 549              	.LC26:
 550 017c 74657374 		.ascii	"test\000"
 550      00
 551 0181 000000   		.section	.rodata.shell_cfg1,"a",%progbits
 552              		.align	2
 553              		.set	.LANCHOR3,. + 0
 554              		.type	shell_cfg1, %object
 555              		.size	shell_cfg1, 8
 556              	shell_cfg1:
 557 0000 00000000 		.word	SD1
ARM GAS  C:\Users\DNIEL~1\AppData\Local\Temp\ccKBBRz2.s 			page 12


 558 0004 00000000 		.word	commands
 559              		.section	.data.ser_cfg,"aw",%progbits
 560              		.align	2
 561              		.set	.LANCHOR1,. + 0
 562              		.type	ser_cfg, %object
 563              		.size	ser_cfg, 12
 564              	ser_cfg:
 565 0000 00C20100 		.word	115200
 566 0004 0000     		.short	0
 567 0006 0000     		.short	0
 568 0008 0000     		.short	0
 569 000a 0000     		.space	2
 570              		.text
 571              	.Letext0: