ARM GAS  C:\Users\DNIEL~1\AppData\Local\Temp\ccBEW71h.s 			page 1


   1              		.syntax unified
   2              		.cpu cortex-m4
   3              		.fpu softvfp
   4              		.eabi_attribute 20, 1
   5              		.eabi_attribute 21, 1
   6              		.eabi_attribute 23, 3
   7              		.eabi_attribute 24, 1
   8              		.eabi_attribute 25, 1
   9              		.eabi_attribute 26, 1
  10              		.eabi_attribute 30, 2
  11              		.eabi_attribute 18, 4
  12              		.thumb
  13              		.file	"ds18b20.c"
  14              		.section	.debug_abbrev,"",%progbits
  15              	.Ldebug_abbrev0:
  16              		.section	.debug_info,"",%progbits
  17              	.Ldebug_info0:
  18              		.section	.debug_line,"",%progbits
  19              	.Ldebug_line0:
  20 0000 63040000 		.text
  20      02009601 
  20      00000201 
  20      FB0E0D00 
  20      01010101 
  21              	.Ltext0:
  22              		.cfi_sections	.debug_frame
  23              		.section	.text.Delay_us,"ax",%progbits
  24              		.align	2
  25              		.p2align 4,,15
  26              		.thumb
  27              		.thumb_func
  28              		.type	Delay_us, %function
  29              	Delay_us:
  30              	.LFB122:
  31              		.file 1 "src/ds18b20.c"
  32              		.loc 1 36 0
  33              		.cfi_startproc
  34              		@ args = 0, pretend = 0, frame = 0
  35              		@ frame_needed = 0, uses_anonymous_args = 0
  36              	.LVL0:
  37 0000 38B5     		push	{r3, r4, r5, lr}
  38              	.LCFI0:
  39              		.cfi_def_cfa_offset 16
  40              	.LBB6:
  41              		.loc 1 37 0
  42 0002 2023     		movs	r3, #32
  43              		.cfi_offset 14, -4
  44              		.cfi_offset 5, -8
  45              		.cfi_offset 4, -12
  46              		.cfi_offset 3, -16
  47              	.LVL1:
  48              	@ 37 "src/ds18b20.c" 1
  49 0004 83F31188 		msr     BASEPRI, r3
  50              	@ 0 "" 2
  51              	.LVL2:
  52              		.thumb
  53              	.LBE6:
ARM GAS  C:\Users\DNIEL~1\AppData\Local\Temp\ccBEW71h.s 			page 2


  54              		.loc 1 39 0
  55 0008 084B     		ldr	r3, .L5
  56              	.LVL3:
  57 000a 5C68     		ldr	r4, [r3, #4]
  58              	.LVL4:
  59              		.loc 1 40 0
  60 000c A825     		movs	r5, #168
  61 000e 05FB0045 		mla	r5, r5, r0, r4
  62              	.LVL5:
  63              		.loc 1 41 0
  64 0012 00E0     		b	.L2
  65              	.LVL6:
  66              	.L3:
  67              		.loc 1 42 0
  68              	@ 42 "src/ds18b20.c" 1
  69 0014 00BF     		nop
  70              	@ 0 "" 2
  71              		.thumb
  72              	.L2:
  73              		.loc 1 41 0 discriminator 1
  74 0016 2046     		mov	r0, r4
  75 0018 2946     		mov	r1, r5
  76 001a FFF7FEFF 		bl	halIsCounterWithin
  77 001e 0028     		cmp	r0, #0
  78 0020 F8D1     		bne	.L3
  79              	.LBB7:
  80              		.loc 1 44 0
  81 0022 0346     		mov	r3, r0
  82              	.LVL7:
  83              	@ 44 "src/ds18b20.c" 1
  84 0024 83F31188 		msr     BASEPRI, r3
  85              	@ 0 "" 2
  86              	.LVL8:
  87              		.thumb
  88              	.LBE7:
  89              		.loc 1 45 0
  90 0028 38BD     		pop	{r3, r4, r5, pc}
  91              	.L6:
  92 002a 00BF     		.align	2
  93              	.L5:
  94 002c 001000E0 		.word	-536866816
  95              		.cfi_endproc
  96              	.LFE122:
  97              		.size	Delay_us, .-Delay_us
  98              		.section	.text.OneWire_DataPinInput,"ax",%progbits
  99              		.align	2
 100              		.p2align 4,,15
 101              		.global	OneWire_DataPinInput
 102              		.thumb
 103              		.thumb_func
 104              		.type	OneWire_DataPinInput, %function
 105              	OneWire_DataPinInput:
 106              	.LFB118:
 107              		.loc 1 7 0
 108              		.cfi_startproc
 109              		@ args = 0, pretend = 0, frame = 0
 110              		@ frame_needed = 0, uses_anonymous_args = 0
ARM GAS  C:\Users\DNIEL~1\AppData\Local\Temp\ccBEW71h.s 			page 3


 111              		@ link register save eliminated.
 112              		.loc 1 8 0
 113 0000 0248     		ldr	r0, .L8
 114 0002 0221     		movs	r1, #2
 115 0004 0022     		movs	r2, #0
 116              		.loc 1 9 0
 117              		.loc 1 8 0
 118 0006 FFF7FEBF 		b	_pal_lld_setgroupmode
 119              	.L9:
 120 000a 00BF     		.align	2
 121              	.L8:
 122 000c 00100240 		.word	1073876992
 123              		.cfi_endproc
 124              	.LFE118:
 125              		.size	OneWire_DataPinInput, .-OneWire_DataPinInput
 126              		.section	.text.OneWire_DataPinOutput,"ax",%progbits
 127              		.align	2
 128              		.p2align 4,,15
 129              		.global	OneWire_DataPinOutput
 130              		.thumb
 131              		.thumb_func
 132              		.type	OneWire_DataPinOutput, %function
 133              	OneWire_DataPinOutput:
 134              	.LFB119:
 135              		.loc 1 12 0
 136              		.cfi_startproc
 137              		@ args = 0, pretend = 0, frame = 0
 138              		@ frame_needed = 0, uses_anonymous_args = 0
 139              		@ link register save eliminated.
 140              		.loc 1 13 0
 141 0000 0248     		ldr	r0, .L11
 142 0002 0221     		movs	r1, #2
 143 0004 0122     		movs	r2, #1
 144              		.loc 1 14 0
 145              		.loc 1 13 0
 146 0006 FFF7FEBF 		b	_pal_lld_setgroupmode
 147              	.L12:
 148 000a 00BF     		.align	2
 149              	.L11:
 150 000c 00100240 		.word	1073876992
 151              		.cfi_endproc
 152              	.LFE119:
 153              		.size	OneWire_DataPinOutput, .-OneWire_DataPinOutput
 154              		.section	.text.OneWire_SetBusLine,"ax",%progbits
 155              		.align	2
 156              		.p2align 4,,15
 157              		.global	OneWire_SetBusLine
 158              		.thumb
 159              		.thumb_func
 160              		.type	OneWire_SetBusLine, %function
 161              	OneWire_SetBusLine:
 162              	.LFB120:
 163              		.loc 1 17 0
 164              		.cfi_startproc
 165              		@ args = 0, pretend = 0, frame = 0
 166              		@ frame_needed = 0, uses_anonymous_args = 0
 167              	.LVL9:
ARM GAS  C:\Users\DNIEL~1\AppData\Local\Temp\ccBEW71h.s 			page 4


 168 0000 08B5     		push	{r3, lr}
 169              	.LCFI1:
 170              		.cfi_def_cfa_offset 8
 171              		.loc 1 18 0
 172 0002 30B9     		cbnz	r0, .L16
 173              		.cfi_offset 14, -4
 174              		.cfi_offset 3, -8
 175              		.loc 1 25 0
 176 0004 FFF7FEFF 		bl	OneWire_DataPinOutput
 177              	.LVL10:
 178              		.loc 1 26 0
 179 0008 0549     		ldr	r1, .L17
 180 000a 4FF40030 		mov	r0, #131072
 181 000e 8861     		str	r0, [r1, #24]
 182 0010 08BD     		pop	{r3, pc}
 183              	.LVL11:
 184              	.L16:
 185              		.loc 1 20 0
 186 0012 FFF7FEFF 		bl	OneWire_DataPinInput
 187              	.LVL12:
 188              		.loc 1 21 0
 189 0016 024B     		ldr	r3, .L17
 190 0018 0222     		movs	r2, #2
 191 001a 9A61     		str	r2, [r3, #24]
 192 001c 08BD     		pop	{r3, pc}
 193              	.L18:
 194 001e 00BF     		.align	2
 195              	.L17:
 196 0020 00100240 		.word	1073876992
 197              		.cfi_endproc
 198              	.LFE120:
 199              		.size	OneWire_SetBusLine, .-OneWire_SetBusLine
 200 0024 AFF30080 		.section	.text.OneWire_GetBusLine,"ax",%progbits
 200      AFF30080 
 200      AFF30080 
 201              		.align	2
 202              		.p2align 4,,15
 203              		.global	OneWire_GetBusLine
 204              		.thumb
 205              		.thumb_func
 206              		.type	OneWire_GetBusLine, %function
 207              	OneWire_GetBusLine:
 208              	.LFB121:
 209              		.loc 1 31 0
 210              		.cfi_startproc
 211              		@ args = 0, pretend = 0, frame = 0
 212              		@ frame_needed = 0, uses_anonymous_args = 0
 213              		@ link register save eliminated.
 214              		.loc 1 32 0
 215 0000 024B     		ldr	r3, .L20
 216 0002 1869     		ldr	r0, [r3, #16]
 217              		.loc 1 33 0
 218 0004 C0F34000 		ubfx	r0, r0, #1, #1
 219 0008 7047     		bx	lr
 220              	.L21:
 221 000a 00BF     		.align	2
 222              	.L20:
ARM GAS  C:\Users\DNIEL~1\AppData\Local\Temp\ccBEW71h.s 			page 5


 223 000c 00100240 		.word	1073876992
 224              		.cfi_endproc
 225              	.LFE121:
 226              		.size	OneWire_GetBusLine, .-OneWire_GetBusLine
 227              		.section	.text.OneWire_ReadBit,"ax",%progbits
 228              		.align	2
 229              		.p2align 4,,15
 230              		.global	OneWire_ReadBit
 231              		.thumb
 232              		.thumb_func
 233              		.type	OneWire_ReadBit, %function
 234              	OneWire_ReadBit:
 235              	.LFB123:
 236              		.loc 1 48 0
 237              		.cfi_startproc
 238              		@ args = 0, pretend = 0, frame = 0
 239              		@ frame_needed = 0, uses_anonymous_args = 0
 240              	.LVL13:
 241 0000 10B5     		push	{r4, lr}
 242              	.LCFI2:
 243              		.cfi_def_cfa_offset 8
 244              		.loc 1 51 0
 245 0002 0020     		movs	r0, #0
 246              		.cfi_offset 14, -4
 247              		.cfi_offset 4, -8
 248 0004 FFF7FEFF 		bl	OneWire_SetBusLine
 249              		.loc 1 52 0
 250 0008 0220     		movs	r0, #2
 251 000a FFF7FEFF 		bl	Delay_us
 252              		.loc 1 53 0
 253 000e 0120     		movs	r0, #1
 254 0010 FFF7FEFF 		bl	OneWire_SetBusLine
 255              		.loc 1 54 0
 256 0014 0F20     		movs	r0, #15
 257 0016 FFF7FEFF 		bl	Delay_us
 258              	.LBB8:
 259              	.LBB9:
 260              		.loc 1 32 0
 261 001a 044B     		ldr	r3, .L23
 262 001c 1C69     		ldr	r4, [r3, #16]
 263              	.LVL14:
 264              	.LBE9:
 265              	.LBE8:
 266              		.loc 1 57 0
 267 001e 2620     		movs	r0, #38
 268 0020 FFF7FEFF 		bl	Delay_us
 269              		.loc 1 60 0
 270 0024 C4F34000 		ubfx	r0, r4, #1, #1
 271 0028 10BD     		pop	{r4, pc}
 272              	.L24:
 273 002a 00BF     		.align	2
 274              	.L23:
 275 002c 00100240 		.word	1073876992
 276              		.cfi_endproc
 277              	.LFE123:
 278              		.size	OneWire_ReadBit, .-OneWire_ReadBit
 279              		.section	.text.OneWire_WriteBit,"ax",%progbits
ARM GAS  C:\Users\DNIEL~1\AppData\Local\Temp\ccBEW71h.s 			page 6


 280              		.align	2
 281              		.p2align 4,,15
 282              		.global	OneWire_WriteBit
 283              		.thumb
 284              		.thumb_func
 285              		.type	OneWire_WriteBit, %function
 286              	OneWire_WriteBit:
 287              	.LFB124:
 288              		.loc 1 63 0
 289              		.cfi_startproc
 290              		@ args = 0, pretend = 0, frame = 0
 291              		@ frame_needed = 0, uses_anonymous_args = 0
 292              	.LVL15:
 293 0000 10B5     		push	{r4, lr}
 294              	.LCFI3:
 295              		.cfi_def_cfa_offset 8
 296              		.loc 1 63 0
 297 0002 0446     		mov	r4, r0
 298              		.cfi_offset 14, -4
 299              		.cfi_offset 4, -8
 300              		.loc 1 64 0
 301 0004 0020     		movs	r0, #0
 302              	.LVL16:
 303 0006 FFF7FEFF 		bl	OneWire_SetBusLine
 304              		.loc 1 65 0
 305 000a 0220     		movs	r0, #2
 306 000c FFF7FEFF 		bl	Delay_us
 307              		.loc 1 66 0
 308 0010 64B9     		cbnz	r4, .L28
 309              		.loc 1 69 0
 310 0012 2046     		mov	r0, r4
 311 0014 FFF7FEFF 		bl	OneWire_SetBusLine
 312              	.L27:
 313              		.loc 1 70 0
 314 0018 3A20     		movs	r0, #58
 315 001a FFF7FEFF 		bl	Delay_us
 316              		.loc 1 71 0
 317 001e FFF7FEFF 		bl	OneWire_DataPinInput
 318              		.loc 1 72 0
 319 0022 0120     		movs	r0, #1
 320              		.loc 1 73 0
 321 0024 BDE81040 		pop	{r4, lr}
 322              		.loc 1 72 0
 323 0028 FFF7FEBF 		b	OneWire_SetBusLine
 324              	.L28:
 325              		.loc 1 67 0
 326 002c 0120     		movs	r0, #1
 327 002e FFF7FEFF 		bl	OneWire_SetBusLine
 328 0032 F1E7     		b	.L27
 329              		.cfi_endproc
 330              	.LFE124:
 331              		.size	OneWire_WriteBit, .-OneWire_WriteBit
 332 0034 AFF30080 		.section	.text.OneWire_WriteByte,"ax",%progbits
 332      AFF30080 
 332      AFF30080 
 333              		.align	2
 334              		.p2align 4,,15
ARM GAS  C:\Users\DNIEL~1\AppData\Local\Temp\ccBEW71h.s 			page 7


 335              		.global	OneWire_WriteByte
 336              		.thumb
 337              		.thumb_func
 338              		.type	OneWire_WriteByte, %function
 339              	OneWire_WriteByte:
 340              	.LFB125:
 341              		.loc 1 76 0
 342              		.cfi_startproc
 343              		@ args = 0, pretend = 0, frame = 0
 344              		@ frame_needed = 0, uses_anonymous_args = 0
 345              	.LVL17:
 346 0000 0146     		mov	r1, r0
 347              	.LVL18:
 348 0002 70B5     		push	{r4, r5, r6, lr}
 349              	.LCFI4:
 350              		.cfi_def_cfa_offset 16
 351              		.loc 1 81 0
 352 0004 00F00100 		and	r0, r0, #1
 353              	.LVL19:
 354              		.loc 1 82 0
 355 0008 4D08     		lsrs	r5, r1, #1
 356              		.cfi_offset 14, -4
 357              		.cfi_offset 6, -8
 358              		.cfi_offset 5, -12
 359              		.cfi_offset 4, -16
 360 000a 6C08     		lsrs	r4, r5, #1
 361              		.loc 1 81 0
 362 000c FFF7FEFF 		bl	OneWire_WriteBit
 363              	.LVL20:
 364 0010 05F00100 		and	r0, r5, #1
 365 0014 FFF7FEFF 		bl	OneWire_WriteBit
 366              	.LVL21:
 367              		.loc 1 82 0
 368 0018 6508     		lsrs	r5, r4, #1
 369              		.loc 1 81 0
 370 001a 04F00100 		and	r0, r4, #1
 371 001e FFF7FEFF 		bl	OneWire_WriteBit
 372              	.LVL22:
 373              		.loc 1 82 0
 374 0022 6C08     		lsrs	r4, r5, #1
 375              		.loc 1 81 0
 376 0024 05F00100 		and	r0, r5, #1
 377 0028 FFF7FEFF 		bl	OneWire_WriteBit
 378              	.LVL23:
 379              		.loc 1 82 0
 380 002c 6508     		lsrs	r5, r4, #1
 381              		.loc 1 81 0
 382 002e 04F00100 		and	r0, r4, #1
 383 0032 FFF7FEFF 		bl	OneWire_WriteBit
 384              	.LVL24:
 385              		.loc 1 82 0
 386 0036 6C08     		lsrs	r4, r5, #1
 387              		.loc 1 81 0
 388 0038 05F00100 		and	r0, r5, #1
 389 003c FFF7FEFF 		bl	OneWire_WriteBit
 390              	.LVL25:
 391 0040 04F00100 		and	r0, r4, #1
ARM GAS  C:\Users\DNIEL~1\AppData\Local\Temp\ccBEW71h.s 			page 8


 392 0044 FFF7FEFF 		bl	OneWire_WriteBit
 393              	.LVL26:
 394 0048 6008     		lsrs	r0, r4, #1
 395              		.loc 1 84 0
 396 004a BDE87040 		pop	{r4, r5, r6, lr}
 397              		.loc 1 81 0
 398 004e FFF7FEBF 		b	OneWire_WriteBit
 399              		.cfi_endproc
 400              	.LFE125:
 401              		.size	OneWire_WriteByte, .-OneWire_WriteByte
 402 0052 00BFAFF3 		.section	.text.OneWire_ReadByte,"ax",%progbits
 402      0080AFF3 
 402      0080AFF3 
 402      0080
 403              		.align	2
 404              		.p2align 4,,15
 405              		.global	OneWire_ReadByte
 406              		.thumb
 407              		.thumb_func
 408              		.type	OneWire_ReadByte, %function
 409              	OneWire_ReadByte:
 410              	.LFB126:
 411              		.loc 1 87 0
 412              		.cfi_startproc
 413              		@ args = 0, pretend = 0, frame = 0
 414              		@ frame_needed = 0, uses_anonymous_args = 0
 415              	.LVL27:
 416 0000 10B5     		push	{r4, lr}
 417              	.LCFI5:
 418              		.cfi_def_cfa_offset 8
 419              		.loc 1 92 0
 420              		.cfi_offset 14, -4
 421              		.cfi_offset 4, -8
 422 0002 FFF7FEFF 		bl	OneWire_ReadBit
 423              	.LVL28:
 424              		.loc 1 94 0
 425 0006 0028     		cmp	r0, #0
 426 0008 14BF     		ite	ne
 427 000a 4024     		movne	r4, #64
 428 000c 0024     		moveq	r4, #0
 429              	.LVL29:
 430              		.loc 1 92 0
 431 000e FFF7FEFF 		bl	OneWire_ReadBit
 432 0012 10B1     		cbz	r0, .L32
 433              		.loc 1 93 0
 434 0014 64F07F04 		orn	r4, r4, #127
 435              	.LVL30:
 436 0018 E4B2     		uxtb	r4, r4
 437              	.LVL31:
 438              	.L32:
 439              		.loc 1 94 0
 440 001a 6408     		lsrs	r4, r4, #1
 441              	.LVL32:
 442              		.loc 1 92 0
 443 001c FFF7FEFF 		bl	OneWire_ReadBit
 444 0020 10B1     		cbz	r0, .L33
 445              		.loc 1 93 0
ARM GAS  C:\Users\DNIEL~1\AppData\Local\Temp\ccBEW71h.s 			page 9


 446 0022 64F07F00 		orn	r0, r4, #127
 447 0026 C4B2     		uxtb	r4, r0
 448              	.LVL33:
 449              	.L33:
 450              		.loc 1 94 0
 451 0028 6408     		lsrs	r4, r4, #1
 452              	.LVL34:
 453              		.loc 1 92 0
 454 002a FFF7FEFF 		bl	OneWire_ReadBit
 455 002e 10B1     		cbz	r0, .L34
 456              		.loc 1 93 0
 457 0030 64F07F01 		orn	r1, r4, #127
 458 0034 CCB2     		uxtb	r4, r1
 459              	.LVL35:
 460              	.L34:
 461              		.loc 1 94 0
 462 0036 6408     		lsrs	r4, r4, #1
 463              	.LVL36:
 464              		.loc 1 92 0
 465 0038 FFF7FEFF 		bl	OneWire_ReadBit
 466 003c 10B1     		cbz	r0, .L35
 467              		.loc 1 93 0
 468 003e 64F07F02 		orn	r2, r4, #127
 469 0042 D4B2     		uxtb	r4, r2
 470              	.LVL37:
 471              	.L35:
 472              		.loc 1 94 0
 473 0044 6408     		lsrs	r4, r4, #1
 474              	.LVL38:
 475              		.loc 1 92 0
 476 0046 FFF7FEFF 		bl	OneWire_ReadBit
 477 004a 10B1     		cbz	r0, .L36
 478              		.loc 1 93 0
 479 004c 64F07F03 		orn	r3, r4, #127
 480 0050 DCB2     		uxtb	r4, r3
 481              	.LVL39:
 482              	.L36:
 483              		.loc 1 94 0
 484 0052 6408     		lsrs	r4, r4, #1
 485              	.LVL40:
 486              		.loc 1 92 0
 487 0054 FFF7FEFF 		bl	OneWire_ReadBit
 488 0058 18B1     		cbz	r0, .L37
 489              		.loc 1 93 0
 490 005a 64F07F0C 		orn	ip, r4, #127
 491 005e 5FFA8CF4 		uxtb	r4, ip
 492              	.LVL41:
 493              	.L37:
 494              		.loc 1 94 0
 495 0062 6408     		lsrs	r4, r4, #1
 496              	.LVL42:
 497              		.loc 1 96 0
 498 0064 FFF7FEFF 		bl	OneWire_ReadBit
 499 0068 18B1     		cbz	r0, .L38
 500              		.loc 1 97 0
 501 006a 64F07F0E 		orn	lr, r4, #127
 502 006e 5FFA8EF4 		uxtb	r4, lr
ARM GAS  C:\Users\DNIEL~1\AppData\Local\Temp\ccBEW71h.s 			page 10


 503              	.LVL43:
 504              	.L38:
 505              		.loc 1 100 0
 506 0072 2046     		mov	r0, r4
 507 0074 10BD     		pop	{r4, pc}
 508              		.cfi_endproc
 509              	.LFE126:
 510              		.size	OneWire_ReadByte, .-OneWire_ReadByte
 511 0076 00BFAFF3 		.section	.text.OneWire_Reset,"ax",%progbits
 511      0080AFF3 
 511      0080
 512              		.align	2
 513              		.p2align 4,,15
 514              		.global	OneWire_Reset
 515              		.thumb
 516              		.thumb_func
 517              		.type	OneWire_Reset, %function
 518              	OneWire_Reset:
 519              	.LFB127:
 520              		.loc 1 103 0
 521              		.cfi_startproc
 522              		@ args = 0, pretend = 0, frame = 0
 523              		@ frame_needed = 0, uses_anonymous_args = 0
 524 0000 08B5     		push	{r3, lr}
 525              	.LCFI6:
 526              		.cfi_def_cfa_offset 8
 527              		.loc 1 104 0
 528 0002 0020     		movs	r0, #0
 529              		.cfi_offset 14, -4
 530              		.cfi_offset 3, -8
 531 0004 FFF7FEFF 		bl	OneWire_SetBusLine
 532              		.loc 1 105 0
 533 0008 4FF4FA70 		mov	r0, #500
 534 000c FFF7FEFF 		bl	Delay_us
 535              		.loc 1 106 0
 536 0010 0120     		movs	r0, #1
 537 0012 FFF7FEFF 		bl	OneWire_SetBusLine
 538              		.loc 1 107 0
 539 0016 5020     		movs	r0, #80
 540 0018 FFF7FEFF 		bl	Delay_us
 541              	.LBB10:
 542              	.LBB11:
 543              		.loc 1 32 0
 544 001c 0648     		ldr	r0, .L44
 545 001e 0369     		ldr	r3, [r0, #16]
 546              	.LBE11:
 547              	.LBE10:
 548              		.loc 1 108 0
 549 0020 13F0020F 		tst	r3, #2
 550 0024 01D0     		beq	.L43
 551              		.loc 1 113 0
 552 0026 0020     		movs	r0, #0
 553              		.loc 1 114 0
 554 0028 08BD     		pop	{r3, pc}
 555              	.L43:
 556              		.loc 1 110 0
 557 002a 4FF4C870 		mov	r0, #400
ARM GAS  C:\Users\DNIEL~1\AppData\Local\Temp\ccBEW71h.s 			page 11


 558 002e FFF7FEFF 		bl	Delay_us
 559              		.loc 1 111 0
 560 0032 0120     		movs	r0, #1
 561 0034 08BD     		pop	{r3, pc}
 562              	.L45:
 563 0036 00BF     		.align	2
 564              	.L44:
 565 0038 00100240 		.word	1073876992
 566              		.cfi_endproc
 567              	.LFE127:
 568              		.size	OneWire_Reset, .-OneWire_Reset
 569 003c AFF30080 		.section	.text.DS18B20_Init,"ax",%progbits
 570              		.align	2
 571              		.p2align 4,,15
 572              		.global	DS18B20_Init
 573              		.thumb
 574              		.thumb_func
 575              		.type	DS18B20_Init, %function
 576              	DS18B20_Init:
 577              	.LFB128:
 578              		.loc 1 117 0
 579              		.cfi_startproc
 580              		@ args = 0, pretend = 0, frame = 0
 581              		@ frame_needed = 0, uses_anonymous_args = 0
 582 0000 10B5     		push	{r4, lr}
 583              	.LCFI7:
 584              		.cfi_def_cfa_offset 8
 585              		.loc 1 118 0
 586 0002 0548     		ldr	r0, .L47
 587 0004 0221     		movs	r1, #2
 588 0006 0022     		movs	r2, #0
 589              		.cfi_offset 14, -4
 590              		.cfi_offset 4, -8
 591 0008 FFF7FEFF 		bl	_pal_lld_setgroupmode
 592              		.loc 1 120 0
 593 000c FFF7FEFF 		bl	OneWire_DataPinInput
 594              		.loc 1 122 0
 595 0010 BDE81040 		pop	{r4, lr}
 596              		.loc 1 121 0
 597 0014 FFF7FEBF 		b	OneWire_Reset
 598              	.L48:
 599              		.align	2
 600              	.L47:
 601 0018 00100240 		.word	1073876992
 602              		.cfi_endproc
 603              	.LFE128:
 604              		.size	DS18B20_Init, .-DS18B20_Init
 605 001c AFF30080 		.section	.text.DS18B20_StartConversion,"ax",%progbits
 606              		.align	2
 607              		.p2align 4,,15
 608              		.global	DS18B20_StartConversion
 609              		.thumb
 610              		.thumb_func
 611              		.type	DS18B20_StartConversion, %function
 612              	DS18B20_StartConversion:
 613              	.LFB130:
 614              		.loc 1 159 0
ARM GAS  C:\Users\DNIEL~1\AppData\Local\Temp\ccBEW71h.s 			page 12


 615              		.cfi_startproc
 616              		@ args = 0, pretend = 0, frame = 0
 617              		@ frame_needed = 0, uses_anonymous_args = 0
 618              	.LVL44:
 619 0000 70B5     		push	{r4, r5, r6, lr}
 620              	.LCFI8:
 621              		.cfi_def_cfa_offset 16
 622              		.loc 1 159 0
 623 0002 0446     		mov	r4, r0
 624              		.cfi_offset 14, -4
 625              		.cfi_offset 6, -8
 626              		.cfi_offset 5, -12
 627              		.cfi_offset 4, -16
 628              		.loc 1 160 0
 629 0004 FFF7FEFF 		bl	OneWire_Reset
 630              	.LVL45:
 631              		.loc 1 161 0
 632 0008 002C     		cmp	r4, #0
 633 000a 24D0     		beq	.L52
 634              	.LBB12:
 635              		.loc 1 171 0
 636 000c 144D     		ldr	r5, .L53
 637              		.loc 1 167 0
 638 000e 661E     		subs	r6, r4, #1
 639              		.loc 1 171 0
 640 0010 05EBC604 		add	r4, r5, r6, lsl #3
 641              		.loc 1 167 0
 642 0014 5520     		movs	r0, #85
 643 0016 FFF7FEFF 		bl	OneWire_WriteByte
 644              	.LVL46:
 645              		.loc 1 171 0
 646 001a 15F83600 		ldrb	r0, [r5, r6, lsl #3]	@ zero_extendqisi2
 647 001e FFF7FEFF 		bl	OneWire_WriteByte
 648              	.LVL47:
 649 0022 6078     		ldrb	r0, [r4, #1]	@ zero_extendqisi2
 650 0024 FFF7FEFF 		bl	OneWire_WriteByte
 651              	.LVL48:
 652 0028 A078     		ldrb	r0, [r4, #2]	@ zero_extendqisi2
 653 002a FFF7FEFF 		bl	OneWire_WriteByte
 654              	.LVL49:
 655 002e E078     		ldrb	r0, [r4, #3]	@ zero_extendqisi2
 656 0030 FFF7FEFF 		bl	OneWire_WriteByte
 657              	.LVL50:
 658 0034 2079     		ldrb	r0, [r4, #4]	@ zero_extendqisi2
 659 0036 FFF7FEFF 		bl	OneWire_WriteByte
 660              	.LVL51:
 661 003a 6079     		ldrb	r0, [r4, #5]	@ zero_extendqisi2
 662 003c FFF7FEFF 		bl	OneWire_WriteByte
 663              	.LVL52:
 664 0040 A079     		ldrb	r0, [r4, #6]	@ zero_extendqisi2
 665 0042 FFF7FEFF 		bl	OneWire_WriteByte
 666              	.LVL53:
 667 0046 E079     		ldrb	r0, [r4, #7]	@ zero_extendqisi2
 668 0048 FFF7FEFF 		bl	OneWire_WriteByte
 669              	.LVL54:
 670              	.L51:
 671              	.LBE12:
ARM GAS  C:\Users\DNIEL~1\AppData\Local\Temp\ccBEW71h.s 			page 13


 672              		.loc 1 174 0
 673 004c 4420     		movs	r0, #68
 674              		.loc 1 175 0
 675 004e BDE87040 		pop	{r4, r5, r6, lr}
 676              		.loc 1 174 0
 677 0052 FFF7FEBF 		b	OneWire_WriteByte
 678              	.L52:
 679              		.loc 1 163 0
 680 0056 CC20     		movs	r0, #204
 681 0058 FFF7FEFF 		bl	OneWire_WriteByte
 682 005c F6E7     		b	.L51
 683              	.L54:
 684 005e 00BF     		.align	2
 685              	.L53:
 686 0060 00000000 		.word	.LANCHOR0
 687              		.cfi_endproc
 688              	.LFE130:
 689              		.size	DS18B20_StartConversion, .-DS18B20_StartConversion
 690              		.global	__aeabi_i2f
 691              		.global	__aeabi_fmul
 692 0064 AFF30080 		.section	.text.DS18B20_GetTemp,"ax",%progbits
 692      AFF30080 
 692      AFF30080 
 693              		.align	2
 694              		.p2align 4,,15
 695              		.global	DS18B20_GetTemp
 696              		.thumb
 697              		.thumb_func
 698              		.type	DS18B20_GetTemp, %function
 699              	DS18B20_GetTemp:
 700              	.LFB129:
 701              		.loc 1 125 0
 702              		.cfi_startproc
 703              		@ args = 0, pretend = 0, frame = 0
 704              		@ frame_needed = 0, uses_anonymous_args = 0
 705              	.LVL55:
 706 0000 F8B5     		push	{r3, r4, r5, r6, r7, lr}
 707              	.LCFI9:
 708              		.cfi_def_cfa_offset 24
 709              		.loc 1 125 0
 710 0002 0446     		mov	r4, r0
 711              		.cfi_offset 14, -4
 712              		.cfi_offset 7, -8
 713              		.cfi_offset 6, -12
 714              		.cfi_offset 5, -16
 715              		.cfi_offset 4, -20
 716              		.cfi_offset 3, -24
 717              		.loc 1 129 0
 718 0004 FFF7FEFF 		bl	OneWire_Reset
 719              	.LVL56:
 720              		.loc 1 130 0
 721 0008 D4B9     		cbnz	r4, .L56
 722              		.loc 1 132 0
 723 000a CC20     		movs	r0, #204
 724 000c FFF7FEFF 		bl	OneWire_WriteByte
 725              	.L57:
 726              		.loc 1 143 0
ARM GAS  C:\Users\DNIEL~1\AppData\Local\Temp\ccBEW71h.s 			page 14


 727 0010 BE20     		movs	r0, #190
 728 0012 FFF7FEFF 		bl	OneWire_WriteByte
 729              		.loc 1 145 0
 730 0016 FFF7FEFF 		bl	OneWire_ReadByte
 731 001a 0546     		mov	r5, r0
 732              	.LVL57:
 733              		.loc 1 146 0
 734 001c FFF7FEFF 		bl	OneWire_ReadByte
 735              	.LVL58:
 736              		.loc 1 148 0
 737 0020 05B9     		cbnz	r5, .L58
 738              		.loc 1 148 0 is_stmt 0 discriminator 1
 739 0022 70B3     		cbz	r0, .L60
 740              	.L58:
 741              		.loc 1 150 0 is_stmt 1
 742 0024 45EA0020 		orr	r0, r5, r0, lsl #8
 743              	.LVL59:
 744 0028 FFF7FEFF 		bl	__aeabi_i2f
 745              	.LVL60:
 746              		.loc 1 151 0
 747 002c 4FF07651 		mov	r1, #1031798784
 748 0030 FFF7FEFF 		bl	__aeabi_fmul
 749 0034 0546     		mov	r5, r0
 750              	.LVL61:
 751              		.loc 1 153 0
 752 0036 2046     		mov	r0, r4
 753              	.LVL62:
 754 0038 FFF7FEFF 		bl	DS18B20_StartConversion
 755              		.loc 1 156 0
 756 003c 2846     		mov	r0, r5
 757 003e F8BD     		pop	{r3, r4, r5, r6, r7, pc}
 758              	.LVL63:
 759              	.L56:
 760              	.LBB13:
 761              		.loc 1 140 0
 762 0040 114E     		ldr	r6, .L61
 763              		.loc 1 136 0
 764 0042 671E     		subs	r7, r4, #1
 765              		.loc 1 140 0
 766 0044 06EBC705 		add	r5, r6, r7, lsl #3
 767              		.loc 1 136 0
 768 0048 5520     		movs	r0, #85
 769 004a FFF7FEFF 		bl	OneWire_WriteByte
 770              	.LVL64:
 771              		.loc 1 140 0
 772 004e 16F83700 		ldrb	r0, [r6, r7, lsl #3]	@ zero_extendqisi2
 773 0052 FFF7FEFF 		bl	OneWire_WriteByte
 774              	.LVL65:
 775 0056 6878     		ldrb	r0, [r5, #1]	@ zero_extendqisi2
 776 0058 FFF7FEFF 		bl	OneWire_WriteByte
 777              	.LVL66:
 778 005c A878     		ldrb	r0, [r5, #2]	@ zero_extendqisi2
 779 005e FFF7FEFF 		bl	OneWire_WriteByte
 780              	.LVL67:
 781 0062 E878     		ldrb	r0, [r5, #3]	@ zero_extendqisi2
 782 0064 FFF7FEFF 		bl	OneWire_WriteByte
 783              	.LVL68:
ARM GAS  C:\Users\DNIEL~1\AppData\Local\Temp\ccBEW71h.s 			page 15


 784 0068 2879     		ldrb	r0, [r5, #4]	@ zero_extendqisi2
 785 006a FFF7FEFF 		bl	OneWire_WriteByte
 786              	.LVL69:
 787 006e 6879     		ldrb	r0, [r5, #5]	@ zero_extendqisi2
 788 0070 FFF7FEFF 		bl	OneWire_WriteByte
 789              	.LVL70:
 790 0074 A879     		ldrb	r0, [r5, #6]	@ zero_extendqisi2
 791 0076 FFF7FEFF 		bl	OneWire_WriteByte
 792              	.LVL71:
 793 007a E879     		ldrb	r0, [r5, #7]	@ zero_extendqisi2
 794 007c FFF7FEFF 		bl	OneWire_WriteByte
 795              	.LVL72:
 796 0080 C6E7     		b	.L57
 797              	.LVL73:
 798              	.L60:
 799              	.LBE13:
 800              		.loc 1 148 0
 801 0082 0025     		movs	r5, #0
 802              	.LVL74:
 803              		.loc 1 156 0
 804 0084 2846     		mov	r0, r5
 805              	.LVL75:
 806 0086 F8BD     		pop	{r3, r4, r5, r6, r7, pc}
 807              	.L62:
 808              		.align	2
 809              	.L61:
 810 0088 00000000 		.word	.LANCHOR0
 811              		.cfi_endproc
 812              	.LFE129:
 813              		.size	DS18B20_GetTemp, .-DS18B20_GetTemp
 814 008c AFF30080 		.section	.text.OneWire_SearchROM,"ax",%progbits
 815              		.align	2
 816              		.p2align 4,,15
 817              		.global	OneWire_SearchROM
 818              		.thumb
 819              		.thumb_func
 820              		.type	OneWire_SearchROM, %function
 821              	OneWire_SearchROM:
 822              	.LFB131:
 823              		.loc 1 178 0
 824              		.cfi_startproc
 825              		@ args = 0, pretend = 0, frame = 0
 826              		@ frame_needed = 0, uses_anonymous_args = 0
 827              	.LVL76:
 828 0000 2DE9F047 		push	{r4, r5, r6, r7, r8, r9, sl, lr}
 829              	.LCFI10:
 830              		.cfi_def_cfa_offset 32
 831              		.loc 1 178 0
 832 0004 0446     		mov	r4, r0
 833              		.cfi_offset 14, -4
 834              		.cfi_offset 10, -8
 835              		.cfi_offset 9, -12
 836              		.cfi_offset 8, -16
 837              		.cfi_offset 7, -20
 838              		.cfi_offset 6, -24
 839              		.cfi_offset 5, -28
 840              		.cfi_offset 4, -32
ARM GAS  C:\Users\DNIEL~1\AppData\Local\Temp\ccBEW71h.s 			page 16


 841 0006 0D46     		mov	r5, r1
 842              		.loc 1 181 0
 843 0008 FFF7FEFF 		bl	OneWire_Reset
 844              	.LVL77:
 845 000c 18B9     		cbnz	r0, .L146
 846              		.loc 1 182 0
 847 000e FF27     		movs	r7, #255
 848              	.LVL78:
 849              	.L64:
 850              		.loc 1 221 0
 851 0010 3846     		mov	r0, r7
 852 0012 BDE8F087 		pop	{r4, r5, r6, r7, r8, r9, sl, pc}
 853              	.LVL79:
 854              	.L146:
 855              		.loc 1 184 0
 856 0016 F020     		movs	r0, #240
 857 0018 FFF7FEFF 		bl	OneWire_WriteByte
 858              	.LVL80:
 859              		.loc 1 193 0
 860 001c FFF7FEFF 		bl	OneWire_ReadBit
 861              		.loc 1 177 0
 862 0020 0135     		adds	r5, r5, #1
 863              	.LVL81:
 864 0022 4FF03909 		mov	r9, #57
 865              		.loc 1 185 0
 866 0026 0027     		movs	r7, #0
 867              		.loc 1 187 0
 868 0028 4026     		movs	r6, #64
 869              	.LVL82:
 870              		.loc 1 193 0
 871 002a 8046     		mov	r8, r0
 872              	.LVL83:
 873              		.loc 1 194 0
 874 002c FFF7FEFF 		bl	OneWire_ReadBit
 875              	.LVL84:
 876 0030 0028     		cmp	r0, #0
 877 0032 00F0C280 		beq	.L147
 878              	.LVL85:
 879              	.L65:
 880              		.loc 1 196 0
 881 0036 B8F1000F 		cmp	r8, #0
 882 003a 40F0E781 		bne	.L134
 883              	.L70:
 884              	.LVL86:
 885              		.loc 1 210 0
 886 003e 0020     		movs	r0, #0
 887 0040 FFF7FEFF 		bl	OneWire_WriteBit
 888              		.loc 1 211 0
 889 0044 15F8010C 		ldrb	r0, [r5, #-1]	@ zero_extendqisi2
 890 0048 4308     		lsrs	r3, r0, #1
 891 004a 05F8013C 		strb	r3, [r5, #-1]
 892              		.loc 1 193 0
 893 004e FFF7FEFF 		bl	OneWire_ReadBit
 894              		.loc 1 196 0
 895 0052 06F1FF3A 		add	sl, r6, #-1
 896 0056 5FFA8AFA 		uxtb	sl, sl
 897              	.LVL87:
ARM GAS  C:\Users\DNIEL~1\AppData\Local\Temp\ccBEW71h.s 			page 17


 898              		.loc 1 193 0
 899 005a 8046     		mov	r8, r0
 900              	.LVL88:
 901              		.loc 1 194 0
 902 005c FFF7FEFF 		bl	OneWire_ReadBit
 903              	.LVL89:
 904 0060 0028     		cmp	r0, #0
 905 0062 00F0D180 		beq	.L148
 906              	.LVL90:
 907              	.L71:
 908              		.loc 1 196 0
 909 0066 B8F1000F 		cmp	r8, #0
 910 006a 40F0CF81 		bne	.L134
 911              	.L76:
 912              	.LVL91:
 913              		.loc 1 210 0
 914 006e 0020     		movs	r0, #0
 915 0070 FFF7FEFF 		bl	OneWire_WriteBit
 916              		.loc 1 211 0
 917 0074 15F8011C 		ldrb	r1, [r5, #-1]	@ zero_extendqisi2
 918 0078 4808     		lsrs	r0, r1, #1
 919 007a 05F8010C 		strb	r0, [r5, #-1]
 920              		.loc 1 193 0
 921 007e FFF7FEFF 		bl	OneWire_ReadBit
 922              		.loc 1 196 0
 923 0082 A6F10208 		sub	r8, r6, #2
 924 0086 5FFA88FA 		uxtb	sl, r8
 925              	.LVL92:
 926              		.loc 1 193 0
 927 008a 8046     		mov	r8, r0
 928              	.LVL93:
 929              		.loc 1 194 0
 930 008c FFF7FEFF 		bl	OneWire_ReadBit
 931              	.LVL94:
 932 0090 0028     		cmp	r0, #0
 933 0092 00F0E080 		beq	.L149
 934              	.LVL95:
 935              	.L77:
 936              		.loc 1 196 0
 937 0096 B8F1000F 		cmp	r8, #0
 938 009a 40F0B781 		bne	.L134
 939              	.L82:
 940              	.LVL96:
 941              		.loc 1 210 0
 942 009e 0020     		movs	r0, #0
 943 00a0 FFF7FEFF 		bl	OneWire_WriteBit
 944              		.loc 1 211 0
 945 00a4 15F8011C 		ldrb	r1, [r5, #-1]	@ zero_extendqisi2
 946 00a8 4808     		lsrs	r0, r1, #1
 947              		.loc 1 196 0
 948 00aa A6F1030E 		sub	lr, r6, #3
 949              		.loc 1 211 0
 950 00ae 05F8010C 		strb	r0, [r5, #-1]
 951              		.loc 1 196 0
 952 00b2 5FFA8EFA 		uxtb	sl, lr
 953              	.LVL97:
 954              		.loc 1 193 0
ARM GAS  C:\Users\DNIEL~1\AppData\Local\Temp\ccBEW71h.s 			page 18


 955 00b6 FFF7FEFF 		bl	OneWire_ReadBit
 956 00ba 8046     		mov	r8, r0
 957              	.LVL98:
 958              		.loc 1 194 0
 959 00bc FFF7FEFF 		bl	OneWire_ReadBit
 960              	.LVL99:
 961 00c0 0028     		cmp	r0, #0
 962 00c2 00F0EF80 		beq	.L150
 963              	.LVL100:
 964              	.L83:
 965              		.loc 1 196 0
 966 00c6 B8F1000F 		cmp	r8, #0
 967 00ca 40F09F81 		bne	.L134
 968              	.L88:
 969              	.LVL101:
 970              		.loc 1 210 0
 971 00ce 0020     		movs	r0, #0
 972 00d0 FFF7FEFF 		bl	OneWire_WriteBit
 973              		.loc 1 211 0
 974 00d4 15F8011C 		ldrb	r1, [r5, #-1]	@ zero_extendqisi2
 975 00d8 4808     		lsrs	r0, r1, #1
 976 00da 05F8010C 		strb	r0, [r5, #-1]
 977              		.loc 1 193 0
 978 00de FFF7FEFF 		bl	OneWire_ReadBit
 979              		.loc 1 196 0
 980 00e2 A6F1040A 		sub	sl, r6, #4
 981 00e6 5FFA8AFA 		uxtb	sl, sl
 982              	.LVL102:
 983              		.loc 1 193 0
 984 00ea 8046     		mov	r8, r0
 985              	.LVL103:
 986              		.loc 1 194 0
 987 00ec FFF7FEFF 		bl	OneWire_ReadBit
 988              	.LVL104:
 989 00f0 0028     		cmp	r0, #0
 990 00f2 00F0FE80 		beq	.L151
 991              	.LVL105:
 992              	.L89:
 993              		.loc 1 196 0
 994 00f6 B8F1000F 		cmp	r8, #0
 995 00fa 40F08781 		bne	.L134
 996              	.L94:
 997              	.LVL106:
 998              		.loc 1 210 0
 999 00fe 0020     		movs	r0, #0
 1000 0100 FFF7FEFF 		bl	OneWire_WriteBit
 1001              		.loc 1 211 0
 1002 0104 15F8011C 		ldrb	r1, [r5, #-1]	@ zero_extendqisi2
 1003 0108 4808     		lsrs	r0, r1, #1
 1004              		.loc 1 196 0
 1005 010a A6F1050C 		sub	ip, r6, #5
 1006              		.loc 1 211 0
 1007 010e 05F8010C 		strb	r0, [r5, #-1]
 1008              		.loc 1 196 0
 1009 0112 5FFA8CFA 		uxtb	sl, ip
 1010              	.LVL107:
 1011              		.loc 1 193 0
ARM GAS  C:\Users\DNIEL~1\AppData\Local\Temp\ccBEW71h.s 			page 19


 1012 0116 FFF7FEFF 		bl	OneWire_ReadBit
 1013 011a 8046     		mov	r8, r0
 1014              	.LVL108:
 1015              		.loc 1 194 0
 1016 011c FFF7FEFF 		bl	OneWire_ReadBit
 1017              	.LVL109:
 1018 0120 0028     		cmp	r0, #0
 1019 0122 00F00D81 		beq	.L152
 1020              	.LVL110:
 1021              	.L95:
 1022              		.loc 1 196 0
 1023 0126 B8F1000F 		cmp	r8, #0
 1024 012a 40F06F81 		bne	.L134
 1025              	.L100:
 1026              	.LVL111:
 1027              		.loc 1 210 0
 1028 012e 0020     		movs	r0, #0
 1029 0130 FFF7FEFF 		bl	OneWire_WriteBit
 1030              		.loc 1 211 0
 1031 0134 15F8011C 		ldrb	r1, [r5, #-1]	@ zero_extendqisi2
 1032 0138 4808     		lsrs	r0, r1, #1
 1033              		.loc 1 196 0
 1034 013a A6F1060E 		sub	lr, r6, #6
 1035              		.loc 1 211 0
 1036 013e 05F8010C 		strb	r0, [r5, #-1]
 1037              		.loc 1 196 0
 1038 0142 5FFA8EFA 		uxtb	sl, lr
 1039              	.LVL112:
 1040              		.loc 1 193 0
 1041 0146 FFF7FEFF 		bl	OneWire_ReadBit
 1042 014a 8046     		mov	r8, r0
 1043              	.LVL113:
 1044              		.loc 1 194 0
 1045 014c FFF7FEFF 		bl	OneWire_ReadBit
 1046              	.LVL114:
 1047 0150 0028     		cmp	r0, #0
 1048 0152 00F01C81 		beq	.L153
 1049              	.LVL115:
 1050              	.L101:
 1051              		.loc 1 196 0
 1052 0156 B8F1000F 		cmp	r8, #0
 1053 015a 40F05781 		bne	.L134
 1054              	.L106:
 1055              	.LVL116:
 1056              		.loc 1 210 0
 1057 015e 0020     		movs	r0, #0
 1058 0160 FFF7FEFF 		bl	OneWire_WriteBit
 1059              		.loc 1 211 0
 1060 0164 15F8011C 		ldrb	r1, [r5, #-1]	@ zero_extendqisi2
 1061 0168 4808     		lsrs	r0, r1, #1
 1062 016a 05F8010C 		strb	r0, [r5, #-1]
 1063              	.LVL117:
 1064              		.loc 1 193 0
 1065 016e FFF7FEFF 		bl	OneWire_ReadBit
 1066 0172 8046     		mov	r8, r0
 1067              	.LVL118:
 1068              		.loc 1 194 0
ARM GAS  C:\Users\DNIEL~1\AppData\Local\Temp\ccBEW71h.s 			page 20


 1069 0174 FFF7FEFF 		bl	OneWire_ReadBit
 1070              	.LVL119:
 1071 0178 0028     		cmp	r0, #0
 1072 017a 00F02B81 		beq	.L107
 1073              	.LVL120:
 1074              	.L154:
 1075              		.loc 1 196 0
 1076 017e B8F1000F 		cmp	r8, #0
 1077 0182 40F04381 		bne	.L134
 1078              	.L108:
 1079              	.LVL121:
 1080              		.loc 1 210 0
 1081 0186 0020     		movs	r0, #0
 1082 0188 FFF7FEFF 		bl	OneWire_WriteBit
 1083              		.loc 1 211 0
 1084 018c 15F8011C 		ldrb	r1, [r5, #-1]	@ zero_extendqisi2
 1085 0190 4808     		lsrs	r0, r1, #1
 1086 0192 05F8010C 		strb	r0, [r5, #-1]
 1087              	.LVL122:
 1088              	.L111:
 1089 0196 083E     		subs	r6, r6, #8
 1090 0198 A9F10809 		sub	r9, r9, #8
 1091              	.LVL123:
 1092 019c F6B2     		uxtb	r6, r6
 1093 019e 0135     		adds	r5, r5, #1
 1094 01a0 5FFA89F9 		uxtb	r9, r9
 1095              	.LVL124:
 1096              		.loc 1 219 0
 1097 01a4 002E     		cmp	r6, #0
 1098 01a6 3FF433AF 		beq	.L64
 1099              	.LVL125:
 1100              		.loc 1 193 0
 1101 01aa FFF7FEFF 		bl	OneWire_ReadBit
 1102 01ae 8046     		mov	r8, r0
 1103              	.LVL126:
 1104              		.loc 1 194 0
 1105 01b0 FFF7FEFF 		bl	OneWire_ReadBit
 1106              	.LVL127:
 1107 01b4 0028     		cmp	r0, #0
 1108 01b6 7FF43EAF 		bne	.L65
 1109              	.LVL128:
 1110              	.L147:
 1111              		.loc 1 201 0
 1112 01ba B8F1000F 		cmp	r8, #0
 1113 01be 0DD1     		bne	.L69
 1114              		.loc 1 203 0
 1115 01c0 A642     		cmp	r6, r4
 1116 01c2 08D3     		bcc	.L114
 1117 01c4 15F8018C 		ldrb	r8, [r5, #-1]	@ zero_extendqisi2
 1118 01c8 18F0010F 		tst	r8, #1
 1119 01cc 3FF437AF 		beq	.L70
 1120 01d0 A642     		cmp	r6, r4
 1121 01d2 3FF434AF 		beq	.L70
 1122              	.L114:
 1123 01d6 3746     		mov	r7, r6
 1124              		.loc 1 205 0
 1125 01d8 4FF00108 		mov	r8, #1
ARM GAS  C:\Users\DNIEL~1\AppData\Local\Temp\ccBEW71h.s 			page 21


 1126              	.L69:
 1127              	.LVL129:
 1128              		.loc 1 210 0
 1129 01dc 4046     		mov	r0, r8
 1130 01de FFF7FEFF 		bl	OneWire_WriteBit
 1131              		.loc 1 211 0
 1132 01e2 15F8013C 		ldrb	r3, [r5, #-1]	@ zero_extendqisi2
 1133 01e6 5A08     		lsrs	r2, r3, #1
 1134              		.loc 1 213 0
 1135 01e8 62F07F01 		orn	r1, r2, #127
 1136 01ec 05F8011C 		strb	r1, [r5, #-1]
 1137              		.loc 1 193 0
 1138 01f0 FFF7FEFF 		bl	OneWire_ReadBit
 1139              		.loc 1 196 0
 1140 01f4 06F1FF3A 		add	sl, r6, #-1
 1141 01f8 5FFA8AFA 		uxtb	sl, sl
 1142              	.LVL130:
 1143              		.loc 1 193 0
 1144 01fc 8046     		mov	r8, r0
 1145              	.LVL131:
 1146              		.loc 1 194 0
 1147 01fe FFF7FEFF 		bl	OneWire_ReadBit
 1148              	.LVL132:
 1149 0202 0028     		cmp	r0, #0
 1150 0204 7FF42FAF 		bne	.L71
 1151              	.LVL133:
 1152              	.L148:
 1153              		.loc 1 201 0
 1154 0208 B8F1000F 		cmp	r8, #0
 1155 020c 0DD1     		bne	.L75
 1156              		.loc 1 203 0
 1157 020e 5445     		cmp	r4, sl
 1158 0210 08D8     		bhi	.L117
 1159 0212 15F801EC 		ldrb	lr, [r5, #-1]	@ zero_extendqisi2
 1160 0216 1EF0010F 		tst	lr, #1
 1161 021a 3FF428AF 		beq	.L76
 1162 021e 5445     		cmp	r4, sl
 1163 0220 3FF425AF 		beq	.L76
 1164              	.L117:
 1165              		.loc 1 214 0
 1166 0224 5746     		mov	r7, sl
 1167              		.loc 1 205 0
 1168 0226 4FF00108 		mov	r8, #1
 1169              	.L75:
 1170              	.LVL134:
 1171              		.loc 1 210 0
 1172 022a 4046     		mov	r0, r8
 1173 022c FFF7FEFF 		bl	OneWire_WriteBit
 1174              		.loc 1 211 0
 1175 0230 15F8013C 		ldrb	r3, [r5, #-1]	@ zero_extendqisi2
 1176 0234 5A08     		lsrs	r2, r3, #1
 1177              		.loc 1 213 0
 1178 0236 62F07F0C 		orn	ip, r2, #127
 1179 023a 05F801CC 		strb	ip, [r5, #-1]
 1180              		.loc 1 193 0
 1181 023e FFF7FEFF 		bl	OneWire_ReadBit
 1182              		.loc 1 196 0
ARM GAS  C:\Users\DNIEL~1\AppData\Local\Temp\ccBEW71h.s 			page 22


 1183 0242 A6F10208 		sub	r8, r6, #2
 1184              	.LVL135:
 1185 0246 5FFA88FA 		uxtb	sl, r8
 1186              	.LVL136:
 1187              		.loc 1 193 0
 1188 024a 8046     		mov	r8, r0
 1189              	.LVL137:
 1190              		.loc 1 194 0
 1191 024c FFF7FEFF 		bl	OneWire_ReadBit
 1192              	.LVL138:
 1193 0250 0028     		cmp	r0, #0
 1194 0252 7FF420AF 		bne	.L77
 1195              	.LVL139:
 1196              	.L149:
 1197              		.loc 1 201 0
 1198 0256 B8F1000F 		cmp	r8, #0
 1199 025a 0DD1     		bne	.L81
 1200              		.loc 1 203 0
 1201 025c 5445     		cmp	r4, sl
 1202 025e 08D8     		bhi	.L120
 1203 0260 15F801CC 		ldrb	ip, [r5, #-1]	@ zero_extendqisi2
 1204 0264 1CF0010F 		tst	ip, #1
 1205 0268 3FF419AF 		beq	.L82
 1206 026c 5445     		cmp	r4, sl
 1207 026e 3FF416AF 		beq	.L82
 1208              	.L120:
 1209              		.loc 1 214 0
 1210 0272 5746     		mov	r7, sl
 1211              		.loc 1 205 0
 1212 0274 4FF00108 		mov	r8, #1
 1213              	.L81:
 1214              	.LVL140:
 1215              		.loc 1 210 0
 1216 0278 4046     		mov	r0, r8
 1217 027a FFF7FEFF 		bl	OneWire_WriteBit
 1218              		.loc 1 211 0
 1219 027e 15F8013C 		ldrb	r3, [r5, #-1]	@ zero_extendqisi2
 1220 0282 5A08     		lsrs	r2, r3, #1
 1221              		.loc 1 213 0
 1222 0284 62F07F0A 		orn	sl, r2, #127
 1223 0288 05F801AC 		strb	sl, [r5, #-1]
 1224              		.loc 1 196 0
 1225 028c A6F1030E 		sub	lr, r6, #3
 1226 0290 5FFA8EFA 		uxtb	sl, lr
 1227              	.LVL141:
 1228              		.loc 1 193 0
 1229 0294 FFF7FEFF 		bl	OneWire_ReadBit
 1230 0298 8046     		mov	r8, r0
 1231              	.LVL142:
 1232              		.loc 1 194 0
 1233 029a FFF7FEFF 		bl	OneWire_ReadBit
 1234              	.LVL143:
 1235 029e 0028     		cmp	r0, #0
 1236 02a0 7FF411AF 		bne	.L83
 1237              	.LVL144:
 1238              	.L150:
 1239              		.loc 1 201 0
ARM GAS  C:\Users\DNIEL~1\AppData\Local\Temp\ccBEW71h.s 			page 23


 1240 02a4 B8F1000F 		cmp	r8, #0
 1241 02a8 0DD1     		bne	.L87
 1242              		.loc 1 203 0
 1243 02aa 5445     		cmp	r4, sl
 1244 02ac 08D8     		bhi	.L123
 1245 02ae 15F801CC 		ldrb	ip, [r5, #-1]	@ zero_extendqisi2
 1246 02b2 1CF0010F 		tst	ip, #1
 1247 02b6 3FF40AAF 		beq	.L88
 1248 02ba 5445     		cmp	r4, sl
 1249 02bc 3FF407AF 		beq	.L88
 1250              	.L123:
 1251              		.loc 1 214 0
 1252 02c0 5746     		mov	r7, sl
 1253              		.loc 1 205 0
 1254 02c2 4FF00108 		mov	r8, #1
 1255              	.L87:
 1256              	.LVL145:
 1257              		.loc 1 210 0
 1258 02c6 4046     		mov	r0, r8
 1259 02c8 FFF7FEFF 		bl	OneWire_WriteBit
 1260              		.loc 1 211 0
 1261 02cc 15F8013C 		ldrb	r3, [r5, #-1]	@ zero_extendqisi2
 1262 02d0 5A08     		lsrs	r2, r3, #1
 1263              		.loc 1 213 0
 1264 02d2 62F07F08 		orn	r8, r2, #127
 1265              	.LVL146:
 1266 02d6 05F8018C 		strb	r8, [r5, #-1]
 1267              		.loc 1 193 0
 1268 02da FFF7FEFF 		bl	OneWire_ReadBit
 1269              		.loc 1 196 0
 1270 02de A6F1040A 		sub	sl, r6, #4
 1271 02e2 5FFA8AFA 		uxtb	sl, sl
 1272              	.LVL147:
 1273              		.loc 1 193 0
 1274 02e6 8046     		mov	r8, r0
 1275              	.LVL148:
 1276              		.loc 1 194 0
 1277 02e8 FFF7FEFF 		bl	OneWire_ReadBit
 1278              	.LVL149:
 1279 02ec 0028     		cmp	r0, #0
 1280 02ee 7FF402AF 		bne	.L89
 1281              	.LVL150:
 1282              	.L151:
 1283              		.loc 1 201 0
 1284 02f2 B8F1000F 		cmp	r8, #0
 1285 02f6 0DD1     		bne	.L93
 1286              		.loc 1 203 0
 1287 02f8 5445     		cmp	r4, sl
 1288 02fa 08D8     		bhi	.L126
 1289 02fc 15F801EC 		ldrb	lr, [r5, #-1]	@ zero_extendqisi2
 1290 0300 1EF0010F 		tst	lr, #1
 1291 0304 3FF4FBAE 		beq	.L94
 1292 0308 5445     		cmp	r4, sl
 1293 030a 3FF4F8AE 		beq	.L94
 1294              	.L126:
 1295              		.loc 1 214 0
 1296 030e 5746     		mov	r7, sl
ARM GAS  C:\Users\DNIEL~1\AppData\Local\Temp\ccBEW71h.s 			page 24


 1297              		.loc 1 205 0
 1298 0310 4FF00108 		mov	r8, #1
 1299              	.L93:
 1300              	.LVL151:
 1301              		.loc 1 210 0
 1302 0314 4046     		mov	r0, r8
 1303 0316 FFF7FEFF 		bl	OneWire_WriteBit
 1304              		.loc 1 211 0
 1305 031a 15F8013C 		ldrb	r3, [r5, #-1]	@ zero_extendqisi2
 1306 031e 5A08     		lsrs	r2, r3, #1
 1307              		.loc 1 213 0
 1308 0320 62F07F08 		orn	r8, r2, #127
 1309              	.LVL152:
 1310 0324 05F8018C 		strb	r8, [r5, #-1]
 1311              		.loc 1 196 0
 1312 0328 A6F1050C 		sub	ip, r6, #5
 1313 032c 5FFA8CFA 		uxtb	sl, ip
 1314              	.LVL153:
 1315              		.loc 1 193 0
 1316 0330 FFF7FEFF 		bl	OneWire_ReadBit
 1317 0334 8046     		mov	r8, r0
 1318              	.LVL154:
 1319              		.loc 1 194 0
 1320 0336 FFF7FEFF 		bl	OneWire_ReadBit
 1321              	.LVL155:
 1322 033a 0028     		cmp	r0, #0
 1323 033c 7FF4F3AE 		bne	.L95
 1324              	.LVL156:
 1325              	.L152:
 1326              		.loc 1 201 0
 1327 0340 B8F1000F 		cmp	r8, #0
 1328 0344 0DD1     		bne	.L99
 1329              		.loc 1 203 0
 1330 0346 5445     		cmp	r4, sl
 1331 0348 08D8     		bhi	.L129
 1332 034a 15F8018C 		ldrb	r8, [r5, #-1]	@ zero_extendqisi2
 1333 034e 18F0010F 		tst	r8, #1
 1334 0352 3FF4ECAE 		beq	.L100
 1335 0356 5445     		cmp	r4, sl
 1336 0358 3FF4E9AE 		beq	.L100
 1337              	.L129:
 1338              		.loc 1 214 0
 1339 035c 5746     		mov	r7, sl
 1340              		.loc 1 205 0
 1341 035e 4FF00108 		mov	r8, #1
 1342              	.L99:
 1343              	.LVL157:
 1344              		.loc 1 210 0
 1345 0362 4046     		mov	r0, r8
 1346 0364 FFF7FEFF 		bl	OneWire_WriteBit
 1347              		.loc 1 211 0
 1348 0368 15F8013C 		ldrb	r3, [r5, #-1]	@ zero_extendqisi2
 1349 036c 5A08     		lsrs	r2, r3, #1
 1350              		.loc 1 213 0
 1351 036e 62F07F0A 		orn	sl, r2, #127
 1352 0372 05F801AC 		strb	sl, [r5, #-1]
 1353              		.loc 1 196 0
ARM GAS  C:\Users\DNIEL~1\AppData\Local\Temp\ccBEW71h.s 			page 25


 1354 0376 A6F1060E 		sub	lr, r6, #6
 1355 037a 5FFA8EFA 		uxtb	sl, lr
 1356              	.LVL158:
 1357              		.loc 1 193 0
 1358 037e FFF7FEFF 		bl	OneWire_ReadBit
 1359 0382 8046     		mov	r8, r0
 1360              	.LVL159:
 1361              		.loc 1 194 0
 1362 0384 FFF7FEFF 		bl	OneWire_ReadBit
 1363              	.LVL160:
 1364 0388 0028     		cmp	r0, #0
 1365 038a 7FF4E4AE 		bne	.L101
 1366              	.LVL161:
 1367              	.L153:
 1368              		.loc 1 201 0
 1369 038e B8F1000F 		cmp	r8, #0
 1370 0392 0DD1     		bne	.L105
 1371              		.loc 1 203 0
 1372 0394 5445     		cmp	r4, sl
 1373 0396 08D8     		bhi	.L132
 1374 0398 15F8018C 		ldrb	r8, [r5, #-1]	@ zero_extendqisi2
 1375 039c 18F0010F 		tst	r8, #1
 1376 03a0 3FF4DDAE 		beq	.L106
 1377 03a4 5445     		cmp	r4, sl
 1378 03a6 3FF4DAAE 		beq	.L106
 1379              	.L132:
 1380              		.loc 1 214 0
 1381 03aa 5746     		mov	r7, sl
 1382              		.loc 1 205 0
 1383 03ac 4FF00108 		mov	r8, #1
 1384              	.L105:
 1385              	.LVL162:
 1386              		.loc 1 210 0
 1387 03b0 4046     		mov	r0, r8
 1388 03b2 FFF7FEFF 		bl	OneWire_WriteBit
 1389              		.loc 1 211 0
 1390 03b6 15F8013C 		ldrb	r3, [r5, #-1]	@ zero_extendqisi2
 1391 03ba 5A08     		lsrs	r2, r3, #1
 1392              		.loc 1 213 0
 1393 03bc 62F07F0C 		orn	ip, r2, #127
 1394 03c0 05F801CC 		strb	ip, [r5, #-1]
 1395              	.LVL163:
 1396              		.loc 1 193 0
 1397 03c4 FFF7FEFF 		bl	OneWire_ReadBit
 1398 03c8 8046     		mov	r8, r0
 1399              	.LVL164:
 1400              		.loc 1 194 0
 1401 03ca FFF7FEFF 		bl	OneWire_ReadBit
 1402              	.LVL165:
 1403 03ce 0028     		cmp	r0, #0
 1404 03d0 7FF4D5AE 		bne	.L154
 1405              	.LVL166:
 1406              	.L107:
 1407              		.loc 1 201 0
 1408 03d4 B8F1000F 		cmp	r8, #0
 1409 03d8 0DD1     		bne	.L109
 1410              		.loc 1 203 0
ARM GAS  C:\Users\DNIEL~1\AppData\Local\Temp\ccBEW71h.s 			page 26


 1411 03da 4C45     		cmp	r4, r9
 1412 03dc 08D8     		bhi	.L136
 1413              		.loc 1 203 0 is_stmt 0 discriminator 1
 1414 03de 15F801EC 		ldrb	lr, [r5, #-1]	@ zero_extendqisi2
 1415 03e2 1EF0010F 		tst	lr, #1
 1416 03e6 3FF4CEAE 		beq	.L108
 1417 03ea 4C45     		cmp	r4, r9
 1418 03ec 3FF4CBAE 		beq	.L108
 1419              	.L136:
 1420              		.loc 1 203 0
 1421 03f0 4F46     		mov	r7, r9
 1422              		.loc 1 205 0 is_stmt 1
 1423 03f2 4FF00108 		mov	r8, #1
 1424              	.L109:
 1425              	.LVL167:
 1426              		.loc 1 210 0
 1427 03f6 4046     		mov	r0, r8
 1428 03f8 FFF7FEFF 		bl	OneWire_WriteBit
 1429              		.loc 1 211 0
 1430 03fc 15F8013C 		ldrb	r3, [r5, #-1]	@ zero_extendqisi2
 1431 0400 5A08     		lsrs	r2, r3, #1
 1432              		.loc 1 213 0
 1433 0402 62F07F0C 		orn	ip, r2, #127
 1434 0406 05F801CC 		strb	ip, [r5, #-1]
 1435 040a C4E6     		b	.L111
 1436              	.LVL168:
 1437              	.L134:
 1438              		.loc 1 197 0
 1439 040c FE27     		movs	r7, #254
 1440              		.loc 1 221 0
 1441 040e 3846     		mov	r0, r7
 1442 0410 BDE8F087 		pop	{r4, r5, r6, r7, r8, r9, sl, pc}
 1443              		.cfi_endproc
 1444              	.LFE131:
 1445              		.size	OneWire_SearchROM, .-OneWire_SearchROM
 1446 0414 AFF30080 		.section	.text.OneWire_FindROM,"ax",%progbits
 1446      AFF30080 
 1446      AFF30080 
 1447              		.align	2
 1448              		.p2align 4,,15
 1449              		.global	OneWire_FindROM
 1450              		.thumb
 1451              		.thumb_func
 1452              		.type	OneWire_FindROM, %function
 1453              	OneWire_FindROM:
 1454              	.LFB132:
 1455              		.loc 1 224 0
 1456              		.cfi_startproc
 1457              		@ args = 0, pretend = 0, frame = 0
 1458              		@ frame_needed = 0, uses_anonymous_args = 0
 1459              	.LVL169:
 1460 0000 10B5     		push	{r4, lr}
 1461              	.LCFI11:
 1462              		.cfi_def_cfa_offset 8
 1463              		.loc 1 224 0
 1464 0002 0446     		mov	r4, r0
 1465              		.cfi_offset 14, -4
ARM GAS  C:\Users\DNIEL~1\AppData\Local\Temp\ccBEW71h.s 			page 27


 1466              		.cfi_offset 4, -8
 1467              		.loc 1 227 0
 1468 0004 0078     		ldrb	r0, [r0, #0]	@ zero_extendqisi2
 1469              	.LVL170:
 1470 0006 FFF7FEFF 		bl	OneWire_SearchROM
 1471              	.LVL171:
 1472 000a 2070     		strb	r0, [r4, #0]
 1473              		.loc 1 231 0
 1474 000c 10BD     		pop	{r4, pc}
 1475              		.cfi_endproc
 1476              	.LFE132:
 1477              		.size	OneWire_FindROM, .-OneWire_FindROM
 1478 000e 00BF     		.section	.text.DS18B20_GetROM,"ax",%progbits
 1479              		.align	2
 1480              		.p2align 4,,15
 1481              		.global	DS18B20_GetROM
 1482              		.thumb
 1483              		.thumb_func
 1484              		.type	DS18B20_GetROM, %function
 1485              	DS18B20_GetROM:
 1486              	.LFB133:
 1487              		.loc 1 234 0
 1488              		.cfi_startproc
 1489              		@ args = 0, pretend = 0, frame = 0
 1490              		@ frame_needed = 0, uses_anonymous_args = 0
 1491              		@ link register save eliminated.
 1492              	.LVL172:
 1493              		.loc 1 235 0
 1494 0000 104A     		ldr	r2, .L158
 1495 0002 1378     		ldrb	r3, [r2, #0]	@ zero_extendqisi2
 1496 0004 8342     		cmp	r3, r0
 1497 0006 1CD3     		bcc	.L156
 1498              		.loc 1 235 0 is_stmt 0 discriminator 2
 1499 0008 D8B1     		cbz	r0, .L156
 1500              		.loc 1 235 0
 1501 000a 0138     		subs	r0, r0, #1
 1502              	.LVL173:
 1503              		.loc 1 239 0 is_stmt 1
 1504 000c 0E4B     		ldr	r3, .L158+4
 1505 000e 13F83020 		ldrb	r2, [r3, r0, lsl #3]	@ zero_extendqisi2
 1506 0012 03EBC00C 		add	ip, r3, r0, lsl #3
 1507 0016 0A70     		strb	r2, [r1, #0]
 1508              	.LVL174:
 1509 0018 9CF80100 		ldrb	r0, [ip, #1]	@ zero_extendqisi2
 1510 001c 4870     		strb	r0, [r1, #1]
 1511              	.LVL175:
 1512 001e 9CF80220 		ldrb	r2, [ip, #2]	@ zero_extendqisi2
 1513 0022 8A70     		strb	r2, [r1, #2]
 1514              	.LVL176:
 1515 0024 9CF80330 		ldrb	r3, [ip, #3]	@ zero_extendqisi2
 1516 0028 CB70     		strb	r3, [r1, #3]
 1517              	.LVL177:
 1518 002a 9CF80400 		ldrb	r0, [ip, #4]	@ zero_extendqisi2
 1519 002e 0871     		strb	r0, [r1, #4]
 1520              	.LVL178:
 1521 0030 9CF80520 		ldrb	r2, [ip, #5]	@ zero_extendqisi2
 1522 0034 4A71     		strb	r2, [r1, #5]
ARM GAS  C:\Users\DNIEL~1\AppData\Local\Temp\ccBEW71h.s 			page 28


 1523              	.LVL179:
 1524 0036 9CF80630 		ldrb	r3, [ip, #6]	@ zero_extendqisi2
 1525 003a 8B71     		strb	r3, [r1, #6]
 1526              	.LVL180:
 1527 003c 9CF80700 		ldrb	r0, [ip, #7]	@ zero_extendqisi2
 1528 0040 C871     		strb	r0, [r1, #7]
 1529              	.LVL181:
 1530              	.L156:
 1531 0042 7047     		bx	lr
 1532              	.L159:
 1533              		.align	2
 1534              	.L158:
 1535 0044 00000000 		.word	.LANCHOR1
 1536 0048 00000000 		.word	.LANCHOR0
 1537              		.cfi_endproc
 1538              	.LFE133:
 1539              		.size	DS18B20_GetROM, .-DS18B20_GetROM
 1540 004c AFF30080 		.section	.text.DS18B20_ScanBus,"ax",%progbits
 1541              		.align	2
 1542              		.p2align 4,,15
 1543              		.global	DS18B20_ScanBus
 1544              		.thumb
 1545              		.thumb_func
 1546              		.type	DS18B20_ScanBus, %function
 1547              	DS18B20_ScanBus:
 1548              	.LFB134:
 1549              		.loc 1 243 0
 1550              		.cfi_startproc
 1551              		@ args = 0, pretend = 0, frame = 56
 1552              		@ frame_needed = 0, uses_anonymous_args = 0
 1553 0000 2DE9F04F 		push	{r4, r5, r6, r7, r8, r9, sl, fp, lr}
 1554              	.LCFI12:
 1555              		.cfi_def_cfa_offset 36
 1556              		.loc 1 248 0
 1557 0004 3F4C     		ldr	r4, .L165
 1558              		.cfi_offset 14, -4
 1559              		.cfi_offset 11, -8
 1560              		.cfi_offset 10, -12
 1561              		.cfi_offset 9, -16
 1562              		.cfi_offset 8, -20
 1563              		.cfi_offset 7, -24
 1564              		.cfi_offset 6, -28
 1565              		.cfi_offset 5, -32
 1566              		.cfi_offset 4, -36
 1567 0006 0020     		movs	r0, #0
 1568 0008 2070     		strb	r0, [r4, #0]
 1569              		.loc 1 250 0
 1570 000a 2378     		ldrb	r3, [r4, #0]	@ zero_extendqisi2
 1571              		.loc 1 243 0
 1572 000c 8FB0     		sub	sp, sp, #60
 1573              	.LCFI13:
 1574              		.cfi_def_cfa_offset 96
 1575              		.loc 1 250 0
 1576 000e FF22     		movs	r2, #255
 1577 0010 042B     		cmp	r3, #4
 1578 0012 8DF83720 		strb	r2, [sp, #55]
 1579              	.LVL182:
ARM GAS  C:\Users\DNIEL~1\AppData\Local\Temp\ccBEW71h.s 			page 29


 1580 0016 70D8     		bhi	.L161
 1581              		.loc 1 256 0
 1582 0018 3B4D     		ldr	r5, .L165+4
 1583 001a 63E0     		b	.L162
 1584              	.L164:
 1585 001c 9DF82DB0 		ldrb	fp, [sp, #45]	@ zero_extendqisi2
 1586 0020 9DF82E90 		ldrb	r9, [sp, #46]	@ zero_extendqisi2
 1587 0024 CDF80CB0 		str	fp, [sp, #12]
 1588 0028 CDF81090 		str	r9, [sp, #16]
 1589 002c 9DF82FB0 		ldrb	fp, [sp, #47]	@ zero_extendqisi2
 1590 0030 9DF83090 		ldrb	r9, [sp, #48]	@ zero_extendqisi2
 1591 0034 94F80080 		ldrb	r8, [r4, #0]	@ zero_extendqisi2
 1592 0038 94F800C0 		ldrb	ip, [r4, #0]	@ zero_extendqisi2
 1593 003c 2778     		ldrb	r7, [r4, #0]	@ zero_extendqisi2
 1594 003e 2078     		ldrb	r0, [r4, #0]	@ zero_extendqisi2
 1595 0040 2678     		ldrb	r6, [r4, #0]	@ zero_extendqisi2
 1596 0042 2178     		ldrb	r1, [r4, #0]	@ zero_extendqisi2
 1597 0044 94F800E0 		ldrb	lr, [r4, #0]	@ zero_extendqisi2
 1598 0048 2278     		ldrb	r2, [r4, #0]	@ zero_extendqisi2
 1599              		.loc 1 258 0
 1600 004a 94F800A0 		ldrb	sl, [r4, #0]	@ zero_extendqisi2
 1601              		.loc 1 256 0
 1602 004e CDF814B0 		str	fp, [sp, #20]
 1603 0052 CDF81890 		str	r9, [sp, #24]
 1604 0056 9DF831B0 		ldrb	fp, [sp, #49]	@ zero_extendqisi2
 1605 005a 9DF83290 		ldrb	r9, [sp, #50]	@ zero_extendqisi2
 1606              		.loc 1 258 0
 1607 005e CDF804A0 		str	sl, [sp, #4]
 1608              		.loc 1 256 0
 1609 0062 CDF81CB0 		str	fp, [sp, #28]
 1610 0066 CDF82090 		str	r9, [sp, #32]
 1611 006a 9DF833B0 		ldrb	fp, [sp, #51]	@ zero_extendqisi2
 1612              		.loc 1 258 0
 1613 006e DDF80490 		ldr	r9, [sp, #4]
 1614              		.loc 1 256 0
 1615 0072 9DF82CA0 		ldrb	sl, [sp, #44]	@ zero_extendqisi2
 1616 0076 CDF824B0 		str	fp, [sp, #36]
 1617              		.loc 1 258 0
 1618 007a 09F1010B 		add	fp, r9, #1
 1619              		.loc 1 256 0
 1620 007e 05F838A0 		strb	sl, [r5, r8, lsl #3]
 1621              	.LVL183:
 1622              		.loc 1 258 0
 1623 0082 84F800B0 		strb	fp, [r4, #0]
 1624              		.loc 1 256 0
 1625 0086 05EBCC08 		add	r8, r5, ip, lsl #3
 1626 008a DDF80CA0 		ldr	sl, [sp, #12]
 1627 008e DDF810B0 		ldr	fp, [sp, #16]
 1628 0092 88F801A0 		strb	sl, [r8, #1]
 1629              	.LVL184:
 1630 0096 05EBC70C 		add	ip, r5, r7, lsl #3
 1631 009a 05EBC007 		add	r7, r5, r0, lsl #3
 1632 009e 8CF802B0 		strb	fp, [ip, #2]
 1633              	.LVL185:
 1634 00a2 DDF814C0 		ldr	ip, [sp, #20]
 1635 00a6 05EBC100 		add	r0, r5, r1, lsl #3
 1636 00aa 87F803C0 		strb	ip, [r7, #3]
ARM GAS  C:\Users\DNIEL~1\AppData\Local\Temp\ccBEW71h.s 			page 30


 1637              	.LVL186:
 1638 00ae 05EBCE01 		add	r1, r5, lr, lsl #3
 1639 00b2 05EBC606 		add	r6, r5, r6, lsl #3
 1640 00b6 05EBC20E 		add	lr, r5, r2, lsl #3
 1641 00ba 069F     		ldr	r7, [sp, #24]
 1642 00bc DDF81C80 		ldr	r8, [sp, #28]
 1643 00c0 DDF82090 		ldr	r9, [sp, #32]
 1644 00c4 DDF824A0 		ldr	sl, [sp, #36]
 1645 00c8 3771     		strb	r7, [r6, #4]
 1646              	.LVL187:
 1647 00ca 80F80580 		strb	r8, [r0, #5]
 1648              	.LVL188:
 1649 00ce 81F80690 		strb	r9, [r1, #6]
 1650              	.LVL189:
 1651 00d2 8EF807A0 		strb	sl, [lr, #7]
 1652              	.LVL190:
 1653              		.loc 1 250 0
 1654 00d6 83B1     		cbz	r3, .L161
 1655              		.loc 1 250 0 is_stmt 0 discriminator 2
 1656 00d8 DFF828B0 		ldr	fp, .L165
 1657 00dc 9BF80030 		ldrb	r3, [fp, #0]	@ zero_extendqisi2
 1658 00e0 042B     		cmp	r3, #4
 1659 00e2 0AD8     		bhi	.L161
 1660              	.LVL191:
 1661              	.L162:
 1662              		.loc 1 252 0 is_stmt 1
 1663 00e4 0BA9     		add	r1, sp, #44
 1664 00e6 0DF13700 		add	r0, sp, #55
 1665 00ea FFF7FEFF 		bl	OneWire_FindROM
 1666              		.loc 1 253 0
 1667 00ee 9DF83730 		ldrb	r3, [sp, #55]	@ zero_extendqisi2
 1668 00f2 9A1C     		adds	r2, r3, #2
 1669 00f4 D1B2     		uxtb	r1, r2
 1670 00f6 0129     		cmp	r1, #1
 1671 00f8 90D8     		bhi	.L164
 1672              	.L161:
 1673              		.loc 1 260 0
 1674 00fa 2078     		ldrb	r0, [r4, #0]	@ zero_extendqisi2
 1675              		.loc 1 261 0
 1676 00fc 0FB0     		add	sp, sp, #60
 1677 00fe BDE8F08F 		pop	{r4, r5, r6, r7, r8, r9, sl, fp, pc}
 1678              	.L166:
 1679 0102 00BF     		.align	2
 1680              	.L165:
 1681 0104 00000000 		.word	.LANCHOR1
 1682 0108 00000000 		.word	.LANCHOR0
 1683              		.cfi_endproc
 1684              	.LFE134:
 1685              		.size	DS18B20_ScanBus, .-DS18B20_ScanBus
 1686              		.global	DS18B20_SERIAL_NUMBER
 1687              		.global	SensorCount
 1688 010c AFF30080 		.section	.bss.SensorCount,"aw",%nobits
 1689              		.set	.LANCHOR1,. + 0
 1690              		.type	SensorCount, %object
 1691              		.size	SensorCount, 1
 1692              	SensorCount:
 1693 0000 00       		.space	1
ARM GAS  C:\Users\DNIEL~1\AppData\Local\Temp\ccBEW71h.s 			page 31


 1694              		.section	.bss.DS18B20_SERIAL_NUMBER,"aw",%nobits
 1695              		.align	2
 1696              		.set	.LANCHOR0,. + 0
 1697              		.type	DS18B20_SERIAL_NUMBER, %object
 1698              		.size	DS18B20_SERIAL_NUMBER, 40
 1699              	DS18B20_SERIAL_NUMBER:
 1700 0000 00000000 		.space	40
 1700      00000000 
 1700      00000000 
 1700      00000000 
 1700      00000000 
 1701              		.text
 1702              	.Letext0:
 1703              		.section	.debug_loc,"",%progbits
 1704              	.Ldebug_loc0:
 1705              	.LLST0:
 1706 0000 00000000 		.4byte	.LFB122
 1707 0004 02000000 		.4byte	.LCFI0
 1708 0008 0200     		.2byte	0x2
 1709 000a 7D       		.byte	0x7d
 1710 000b 00       		.sleb128 0
 1711 000c 02000000 		.4byte	.LCFI0
 1712 0010 30000000 		.4byte	.LFE122
 1713 0014 0200     		.2byte	0x2
 1714 0016 7D       		.byte	0x7d
 1715 0017 10       		.sleb128 16
 1716 0018 00000000 		.4byte	0x0
 1717 001c 00000000 		.4byte	0x0
 1718              	.LLST1:
 1719 0020 00000000 		.4byte	.LVL0
 1720 0024 14000000 		.4byte	.LVL6
 1721 0028 0100     		.2byte	0x1
 1722 002a 50       		.byte	0x50
 1723 002b 00000000 		.4byte	0x0
 1724 002f 00000000 		.4byte	0x0
 1725              	.LLST2:
 1726 0033 08000000 		.4byte	.LVL2
 1727 0037 0A000000 		.4byte	.LVL3
 1728 003b 0100     		.2byte	0x1
 1729 003d 53       		.byte	0x53
 1730 003e 00000000 		.4byte	0x0
 1731 0042 00000000 		.4byte	0x0
 1732              	.LLST3:
 1733 0046 28000000 		.4byte	.LVL8
 1734 004a 30000000 		.4byte	.LFE122
 1735 004e 0100     		.2byte	0x1
 1736 0050 53       		.byte	0x53
 1737 0051 00000000 		.4byte	0x0
 1738 0055 00000000 		.4byte	0x0
 1739              	.LLST4:
 1740 0059 00000000 		.4byte	.LFB120
 1741 005d 02000000 		.4byte	.LCFI1
 1742 0061 0200     		.2byte	0x2
 1743 0063 7D       		.byte	0x7d
 1744 0064 00       		.sleb128 0
 1745 0065 02000000 		.4byte	.LCFI1
 1746 0069 24000000 		.4byte	.LFE120
ARM GAS  C:\Users\DNIEL~1\AppData\Local\Temp\ccBEW71h.s 			page 32


 1747 006d 0200     		.2byte	0x2
 1748 006f 7D       		.byte	0x7d
 1749 0070 08       		.sleb128 8
 1750 0071 00000000 		.4byte	0x0
 1751 0075 00000000 		.4byte	0x0
 1752              	.LLST5:
 1753 0079 00000000 		.4byte	.LVL9
 1754 007d 07000000 		.4byte	.LVL10-1
 1755 0081 0100     		.2byte	0x1
 1756 0083 50       		.byte	0x50
 1757 0084 12000000 		.4byte	.LVL11
 1758 0088 15000000 		.4byte	.LVL12-1
 1759 008c 0100     		.2byte	0x1
 1760 008e 50       		.byte	0x50
 1761 008f 00000000 		.4byte	0x0
 1762 0093 00000000 		.4byte	0x0
 1763              	.LLST6:
 1764 0097 00000000 		.4byte	.LFB123
 1765 009b 02000000 		.4byte	.LCFI2
 1766 009f 0200     		.2byte	0x2
 1767 00a1 7D       		.byte	0x7d
 1768 00a2 00       		.sleb128 0
 1769 00a3 02000000 		.4byte	.LCFI2
 1770 00a7 30000000 		.4byte	.LFE123
 1771 00ab 0200     		.2byte	0x2
 1772 00ad 7D       		.byte	0x7d
 1773 00ae 08       		.sleb128 8
 1774 00af 00000000 		.4byte	0x0
 1775 00b3 00000000 		.4byte	0x0
 1776              	.LLST7:
 1777 00b7 00000000 		.4byte	.LVL13
 1778 00bb 1E000000 		.4byte	.LVL14
 1779 00bf 0200     		.2byte	0x2
 1780 00c1 30       		.byte	0x30
 1781 00c2 9F       		.byte	0x9f
 1782 00c3 1E000000 		.4byte	.LVL14
 1783 00c7 30000000 		.4byte	.LFE123
 1784 00cb 0700     		.2byte	0x7
 1785 00cd 74       		.byte	0x74
 1786 00ce 00       		.sleb128 0
 1787 00cf 31       		.byte	0x31
 1788 00d0 25       		.byte	0x25
 1789 00d1 31       		.byte	0x31
 1790 00d2 1A       		.byte	0x1a
 1791 00d3 9F       		.byte	0x9f
 1792 00d4 00000000 		.4byte	0x0
 1793 00d8 00000000 		.4byte	0x0
 1794              	.LLST8:
 1795 00dc 00000000 		.4byte	.LFB124
 1796 00e0 02000000 		.4byte	.LCFI3
 1797 00e4 0200     		.2byte	0x2
 1798 00e6 7D       		.byte	0x7d
 1799 00e7 00       		.sleb128 0
 1800 00e8 02000000 		.4byte	.LCFI3
 1801 00ec 34000000 		.4byte	.LFE124
 1802 00f0 0200     		.2byte	0x2
 1803 00f2 7D       		.byte	0x7d
ARM GAS  C:\Users\DNIEL~1\AppData\Local\Temp\ccBEW71h.s 			page 33


 1804 00f3 08       		.sleb128 8
 1805 00f4 00000000 		.4byte	0x0
 1806 00f8 00000000 		.4byte	0x0
 1807              	.LLST9:
 1808 00fc 00000000 		.4byte	.LVL15
 1809 0100 06000000 		.4byte	.LVL16
 1810 0104 0100     		.2byte	0x1
 1811 0106 50       		.byte	0x50
 1812 0107 00000000 		.4byte	0x0
 1813 010b 00000000 		.4byte	0x0
 1814              	.LLST10:
 1815 010f 00000000 		.4byte	.LFB125
 1816 0113 04000000 		.4byte	.LCFI4
 1817 0117 0200     		.2byte	0x2
 1818 0119 7D       		.byte	0x7d
 1819 011a 00       		.sleb128 0
 1820 011b 04000000 		.4byte	.LCFI4
 1821 011f 52000000 		.4byte	.LFE125
 1822 0123 0200     		.2byte	0x2
 1823 0125 7D       		.byte	0x7d
 1824 0126 10       		.sleb128 16
 1825 0127 00000000 		.4byte	0x0
 1826 012b 00000000 		.4byte	0x0
 1827              	.LLST11:
 1828 012f 00000000 		.4byte	.LVL17
 1829 0133 08000000 		.4byte	.LVL19
 1830 0137 0100     		.2byte	0x1
 1831 0139 50       		.byte	0x50
 1832 013a 00000000 		.4byte	0x0
 1833 013e 00000000 		.4byte	0x0
 1834              	.LLST12:
 1835 0142 02000000 		.4byte	.LVL18
 1836 0146 08000000 		.4byte	.LVL19
 1837 014a 0100     		.2byte	0x1
 1838 014c 50       		.byte	0x50
 1839 014d 08000000 		.4byte	.LVL19
 1840 0151 0F000000 		.4byte	.LVL20-1
 1841 0155 0100     		.2byte	0x1
 1842 0157 51       		.byte	0x51
 1843 0158 10000000 		.4byte	.LVL20
 1844 015c 18000000 		.4byte	.LVL21
 1845 0160 0100     		.2byte	0x1
 1846 0162 55       		.byte	0x55
 1847 0163 18000000 		.4byte	.LVL21
 1848 0167 22000000 		.4byte	.LVL22
 1849 016b 0100     		.2byte	0x1
 1850 016d 54       		.byte	0x54
 1851 016e 22000000 		.4byte	.LVL22
 1852 0172 2C000000 		.4byte	.LVL23
 1853 0176 0100     		.2byte	0x1
 1854 0178 55       		.byte	0x55
 1855 0179 2C000000 		.4byte	.LVL23
 1856 017d 36000000 		.4byte	.LVL24
 1857 0181 0100     		.2byte	0x1
 1858 0183 54       		.byte	0x54
 1859 0184 36000000 		.4byte	.LVL24
 1860 0188 40000000 		.4byte	.LVL25
ARM GAS  C:\Users\DNIEL~1\AppData\Local\Temp\ccBEW71h.s 			page 34


 1861 018c 0100     		.2byte	0x1
 1862 018e 55       		.byte	0x55
 1863 018f 40000000 		.4byte	.LVL25
 1864 0193 48000000 		.4byte	.LVL26
 1865 0197 0100     		.2byte	0x1
 1866 0199 54       		.byte	0x54
 1867 019a 48000000 		.4byte	.LVL26
 1868 019e 52000000 		.4byte	.LFE125
 1869 01a2 0500     		.2byte	0x5
 1870 01a4 74       		.byte	0x74
 1871 01a5 00       		.sleb128 0
 1872 01a6 31       		.byte	0x31
 1873 01a7 25       		.byte	0x25
 1874 01a8 9F       		.byte	0x9f
 1875 01a9 00000000 		.4byte	0x0
 1876 01ad 00000000 		.4byte	0x0
 1877              	.LLST13:
 1878 01b1 00000000 		.4byte	.LVL17
 1879 01b5 10000000 		.4byte	.LVL20
 1880 01b9 0200     		.2byte	0x2
 1881 01bb 30       		.byte	0x30
 1882 01bc 9F       		.byte	0x9f
 1883 01bd 10000000 		.4byte	.LVL20
 1884 01c1 18000000 		.4byte	.LVL21
 1885 01c5 0200     		.2byte	0x2
 1886 01c7 31       		.byte	0x31
 1887 01c8 9F       		.byte	0x9f
 1888 01c9 18000000 		.4byte	.LVL21
 1889 01cd 22000000 		.4byte	.LVL22
 1890 01d1 0200     		.2byte	0x2
 1891 01d3 32       		.byte	0x32
 1892 01d4 9F       		.byte	0x9f
 1893 01d5 22000000 		.4byte	.LVL22
 1894 01d9 2C000000 		.4byte	.LVL23
 1895 01dd 0200     		.2byte	0x2
 1896 01df 33       		.byte	0x33
 1897 01e0 9F       		.byte	0x9f
 1898 01e1 2C000000 		.4byte	.LVL23
 1899 01e5 36000000 		.4byte	.LVL24
 1900 01e9 0200     		.2byte	0x2
 1901 01eb 34       		.byte	0x34
 1902 01ec 9F       		.byte	0x9f
 1903 01ed 36000000 		.4byte	.LVL24
 1904 01f1 40000000 		.4byte	.LVL25
 1905 01f5 0200     		.2byte	0x2
 1906 01f7 35       		.byte	0x35
 1907 01f8 9F       		.byte	0x9f
 1908 01f9 48000000 		.4byte	.LVL26
 1909 01fd 52000000 		.4byte	.LFE125
 1910 0201 0200     		.2byte	0x2
 1911 0203 37       		.byte	0x37
 1912 0204 9F       		.byte	0x9f
 1913 0205 00000000 		.4byte	0x0
 1914 0209 00000000 		.4byte	0x0
 1915              	.LLST14:
 1916 020d 00000000 		.4byte	.LFB126
 1917 0211 02000000 		.4byte	.LCFI5
ARM GAS  C:\Users\DNIEL~1\AppData\Local\Temp\ccBEW71h.s 			page 35


 1918 0215 0200     		.2byte	0x2
 1919 0217 7D       		.byte	0x7d
 1920 0218 00       		.sleb128 0
 1921 0219 02000000 		.4byte	.LCFI5
 1922 021d 76000000 		.4byte	.LFE126
 1923 0221 0200     		.2byte	0x2
 1924 0223 7D       		.byte	0x7d
 1925 0224 08       		.sleb128 8
 1926 0225 00000000 		.4byte	0x0
 1927 0229 00000000 		.4byte	0x0
 1928              	.LLST15:
 1929 022d 00000000 		.4byte	.LVL27
 1930 0231 06000000 		.4byte	.LVL28
 1931 0235 0200     		.2byte	0x2
 1932 0237 30       		.byte	0x30
 1933 0238 9F       		.byte	0x9f
 1934 0239 0E000000 		.4byte	.LVL29
 1935 023d 18000000 		.4byte	.LVL30
 1936 0241 0100     		.2byte	0x1
 1937 0243 54       		.byte	0x54
 1938 0244 1A000000 		.4byte	.LVL31
 1939 0248 1C000000 		.4byte	.LVL32
 1940 024c 0100     		.2byte	0x1
 1941 024e 54       		.byte	0x54
 1942 024f 1C000000 		.4byte	.LVL32
 1943 0253 28000000 		.4byte	.LVL33
 1944 0257 0100     		.2byte	0x1
 1945 0259 54       		.byte	0x54
 1946 025a 28000000 		.4byte	.LVL33
 1947 025e 2A000000 		.4byte	.LVL34
 1948 0262 0100     		.2byte	0x1
 1949 0264 54       		.byte	0x54
 1950 0265 2A000000 		.4byte	.LVL34
 1951 0269 36000000 		.4byte	.LVL35
 1952 026d 0100     		.2byte	0x1
 1953 026f 54       		.byte	0x54
 1954 0270 36000000 		.4byte	.LVL35
 1955 0274 38000000 		.4byte	.LVL36
 1956 0278 0100     		.2byte	0x1
 1957 027a 54       		.byte	0x54
 1958 027b 38000000 		.4byte	.LVL36
 1959 027f 44000000 		.4byte	.LVL37
 1960 0283 0100     		.2byte	0x1
 1961 0285 54       		.byte	0x54
 1962 0286 44000000 		.4byte	.LVL37
 1963 028a 46000000 		.4byte	.LVL38
 1964 028e 0100     		.2byte	0x1
 1965 0290 54       		.byte	0x54
 1966 0291 46000000 		.4byte	.LVL38
 1967 0295 52000000 		.4byte	.LVL39
 1968 0299 0100     		.2byte	0x1
 1969 029b 54       		.byte	0x54
 1970 029c 52000000 		.4byte	.LVL39
 1971 02a0 54000000 		.4byte	.LVL40
 1972 02a4 0100     		.2byte	0x1
 1973 02a6 54       		.byte	0x54
 1974 02a7 54000000 		.4byte	.LVL40
ARM GAS  C:\Users\DNIEL~1\AppData\Local\Temp\ccBEW71h.s 			page 36


 1975 02ab 62000000 		.4byte	.LVL41
 1976 02af 0100     		.2byte	0x1
 1977 02b1 54       		.byte	0x54
 1978 02b2 62000000 		.4byte	.LVL41
 1979 02b6 64000000 		.4byte	.LVL42
 1980 02ba 0100     		.2byte	0x1
 1981 02bc 54       		.byte	0x54
 1982 02bd 64000000 		.4byte	.LVL42
 1983 02c1 72000000 		.4byte	.LVL43
 1984 02c5 0100     		.2byte	0x1
 1985 02c7 54       		.byte	0x54
 1986 02c8 72000000 		.4byte	.LVL43
 1987 02cc 76000000 		.4byte	.LFE126
 1988 02d0 0100     		.2byte	0x1
 1989 02d2 54       		.byte	0x54
 1990 02d3 00000000 		.4byte	0x0
 1991 02d7 00000000 		.4byte	0x0
 1992              	.LLST16:
 1993 02db 00000000 		.4byte	.LVL27
 1994 02df 0E000000 		.4byte	.LVL29
 1995 02e3 0200     		.2byte	0x2
 1996 02e5 30       		.byte	0x30
 1997 02e6 9F       		.byte	0x9f
 1998 02e7 0E000000 		.4byte	.LVL29
 1999 02eb 1C000000 		.4byte	.LVL32
 2000 02ef 0200     		.2byte	0x2
 2001 02f1 31       		.byte	0x31
 2002 02f2 9F       		.byte	0x9f
 2003 02f3 1C000000 		.4byte	.LVL32
 2004 02f7 2A000000 		.4byte	.LVL34
 2005 02fb 0200     		.2byte	0x2
 2006 02fd 32       		.byte	0x32
 2007 02fe 9F       		.byte	0x9f
 2008 02ff 2A000000 		.4byte	.LVL34
 2009 0303 38000000 		.4byte	.LVL36
 2010 0307 0200     		.2byte	0x2
 2011 0309 33       		.byte	0x33
 2012 030a 9F       		.byte	0x9f
 2013 030b 38000000 		.4byte	.LVL36
 2014 030f 46000000 		.4byte	.LVL38
 2015 0313 0200     		.2byte	0x2
 2016 0315 34       		.byte	0x34
 2017 0316 9F       		.byte	0x9f
 2018 0317 46000000 		.4byte	.LVL38
 2019 031b 54000000 		.4byte	.LVL40
 2020 031f 0200     		.2byte	0x2
 2021 0321 35       		.byte	0x35
 2022 0322 9F       		.byte	0x9f
 2023 0323 54000000 		.4byte	.LVL40
 2024 0327 64000000 		.4byte	.LVL42
 2025 032b 0200     		.2byte	0x2
 2026 032d 36       		.byte	0x36
 2027 032e 9F       		.byte	0x9f
 2028 032f 64000000 		.4byte	.LVL42
 2029 0333 76000000 		.4byte	.LFE126
 2030 0337 0200     		.2byte	0x2
 2031 0339 37       		.byte	0x37
ARM GAS  C:\Users\DNIEL~1\AppData\Local\Temp\ccBEW71h.s 			page 37


 2032 033a 9F       		.byte	0x9f
 2033 033b 00000000 		.4byte	0x0
 2034 033f 00000000 		.4byte	0x0
 2035              	.LLST17:
 2036 0343 00000000 		.4byte	.LFB127
 2037 0347 02000000 		.4byte	.LCFI6
 2038 034b 0200     		.2byte	0x2
 2039 034d 7D       		.byte	0x7d
 2040 034e 00       		.sleb128 0
 2041 034f 02000000 		.4byte	.LCFI6
 2042 0353 3C000000 		.4byte	.LFE127
 2043 0357 0200     		.2byte	0x2
 2044 0359 7D       		.byte	0x7d
 2045 035a 08       		.sleb128 8
 2046 035b 00000000 		.4byte	0x0
 2047 035f 00000000 		.4byte	0x0
 2048              	.LLST18:
 2049 0363 00000000 		.4byte	.LFB128
 2050 0367 02000000 		.4byte	.LCFI7
 2051 036b 0200     		.2byte	0x2
 2052 036d 7D       		.byte	0x7d
 2053 036e 00       		.sleb128 0
 2054 036f 02000000 		.4byte	.LCFI7
 2055 0373 1C000000 		.4byte	.LFE128
 2056 0377 0200     		.2byte	0x2
 2057 0379 7D       		.byte	0x7d
 2058 037a 08       		.sleb128 8
 2059 037b 00000000 		.4byte	0x0
 2060 037f 00000000 		.4byte	0x0
 2061              	.LLST19:
 2062 0383 00000000 		.4byte	.LFB130
 2063 0387 02000000 		.4byte	.LCFI8
 2064 038b 0200     		.2byte	0x2
 2065 038d 7D       		.byte	0x7d
 2066 038e 00       		.sleb128 0
 2067 038f 02000000 		.4byte	.LCFI8
 2068 0393 64000000 		.4byte	.LFE130
 2069 0397 0200     		.2byte	0x2
 2070 0399 7D       		.byte	0x7d
 2071 039a 10       		.sleb128 16
 2072 039b 00000000 		.4byte	0x0
 2073 039f 00000000 		.4byte	0x0
 2074              	.LLST20:
 2075 03a3 00000000 		.4byte	.LVL44
 2076 03a7 07000000 		.4byte	.LVL45-1
 2077 03ab 0100     		.2byte	0x1
 2078 03ad 50       		.byte	0x50
 2079 03ae 00000000 		.4byte	0x0
 2080 03b2 00000000 		.4byte	0x0
 2081              	.LLST21:
 2082 03b6 1A000000 		.4byte	.LVL46
 2083 03ba 22000000 		.4byte	.LVL47
 2084 03be 0200     		.2byte	0x2
 2085 03c0 30       		.byte	0x30
 2086 03c1 9F       		.byte	0x9f
 2087 03c2 22000000 		.4byte	.LVL47
 2088 03c6 28000000 		.4byte	.LVL48
ARM GAS  C:\Users\DNIEL~1\AppData\Local\Temp\ccBEW71h.s 			page 38


 2089 03ca 0200     		.2byte	0x2
 2090 03cc 31       		.byte	0x31
 2091 03cd 9F       		.byte	0x9f
 2092 03ce 28000000 		.4byte	.LVL48
 2093 03d2 2E000000 		.4byte	.LVL49
 2094 03d6 0200     		.2byte	0x2
 2095 03d8 32       		.byte	0x32
 2096 03d9 9F       		.byte	0x9f
 2097 03da 2E000000 		.4byte	.LVL49
 2098 03de 34000000 		.4byte	.LVL50
 2099 03e2 0200     		.2byte	0x2
 2100 03e4 33       		.byte	0x33
 2101 03e5 9F       		.byte	0x9f
 2102 03e6 34000000 		.4byte	.LVL50
 2103 03ea 3A000000 		.4byte	.LVL51
 2104 03ee 0200     		.2byte	0x2
 2105 03f0 34       		.byte	0x34
 2106 03f1 9F       		.byte	0x9f
 2107 03f2 3A000000 		.4byte	.LVL51
 2108 03f6 40000000 		.4byte	.LVL52
 2109 03fa 0200     		.2byte	0x2
 2110 03fc 35       		.byte	0x35
 2111 03fd 9F       		.byte	0x9f
 2112 03fe 40000000 		.4byte	.LVL52
 2113 0402 46000000 		.4byte	.LVL53
 2114 0406 0200     		.2byte	0x2
 2115 0408 36       		.byte	0x36
 2116 0409 9F       		.byte	0x9f
 2117 040a 46000000 		.4byte	.LVL53
 2118 040e 4C000000 		.4byte	.LVL54
 2119 0412 0200     		.2byte	0x2
 2120 0414 37       		.byte	0x37
 2121 0415 9F       		.byte	0x9f
 2122 0416 00000000 		.4byte	0x0
 2123 041a 00000000 		.4byte	0x0
 2124              	.LLST22:
 2125 041e 00000000 		.4byte	.LFB129
 2126 0422 02000000 		.4byte	.LCFI9
 2127 0426 0200     		.2byte	0x2
 2128 0428 7D       		.byte	0x7d
 2129 0429 00       		.sleb128 0
 2130 042a 02000000 		.4byte	.LCFI9
 2131 042e 8C000000 		.4byte	.LFE129
 2132 0432 0200     		.2byte	0x2
 2133 0434 7D       		.byte	0x7d
 2134 0435 18       		.sleb128 24
 2135 0436 00000000 		.4byte	0x0
 2136 043a 00000000 		.4byte	0x0
 2137              	.LLST23:
 2138 043e 00000000 		.4byte	.LVL55
 2139 0442 07000000 		.4byte	.LVL56-1
 2140 0446 0100     		.2byte	0x1
 2141 0448 50       		.byte	0x50
 2142 0449 00000000 		.4byte	0x0
 2143 044d 00000000 		.4byte	0x0
 2144              	.LLST24:
 2145 0451 1C000000 		.4byte	.LVL57
ARM GAS  C:\Users\DNIEL~1\AppData\Local\Temp\ccBEW71h.s 			page 39


 2146 0455 1F000000 		.4byte	.LVL58-1
 2147 0459 0100     		.2byte	0x1
 2148 045b 50       		.byte	0x50
 2149 045c 1F000000 		.4byte	.LVL58-1
 2150 0460 36000000 		.4byte	.LVL61
 2151 0464 0100     		.2byte	0x1
 2152 0466 55       		.byte	0x55
 2153 0467 82000000 		.4byte	.LVL73
 2154 046b 84000000 		.4byte	.LVL74
 2155 046f 0100     		.2byte	0x1
 2156 0471 55       		.byte	0x55
 2157 0472 00000000 		.4byte	0x0
 2158 0476 00000000 		.4byte	0x0
 2159              	.LLST25:
 2160 047a 20000000 		.4byte	.LVL58
 2161 047e 28000000 		.4byte	.LVL59
 2162 0482 0100     		.2byte	0x1
 2163 0484 50       		.byte	0x50
 2164 0485 82000000 		.4byte	.LVL73
 2165 0489 86000000 		.4byte	.LVL75
 2166 048d 0100     		.2byte	0x1
 2167 048f 50       		.byte	0x50
 2168 0490 00000000 		.4byte	0x0
 2169 0494 00000000 		.4byte	0x0
 2170              	.LLST26:
 2171 0498 00000000 		.4byte	.LVL55
 2172 049c 2C000000 		.4byte	.LVL60
 2173 04a0 0600     		.2byte	0x6
 2174 04a2 9E       		.byte	0x9e
 2175 04a3 04       		.uleb128 0x4
 2176 04a4 00000000 		.4byte	0x0
 2177 04a8 36000000 		.4byte	.LVL61
 2178 04ac 38000000 		.4byte	.LVL62
 2179 04b0 0100     		.2byte	0x1
 2180 04b2 50       		.byte	0x50
 2181 04b3 38000000 		.4byte	.LVL62
 2182 04b7 40000000 		.4byte	.LVL63
 2183 04bb 0100     		.2byte	0x1
 2184 04bd 55       		.byte	0x55
 2185 04be 40000000 		.4byte	.LVL63
 2186 04c2 8C000000 		.4byte	.LFE129
 2187 04c6 0600     		.2byte	0x6
 2188 04c8 9E       		.byte	0x9e
 2189 04c9 04       		.uleb128 0x4
 2190 04ca 00000000 		.4byte	0x0
 2191 04ce 00000000 		.4byte	0x0
 2192 04d2 00000000 		.4byte	0x0
 2193              	.LLST27:
 2194 04d6 4E000000 		.4byte	.LVL64
 2195 04da 56000000 		.4byte	.LVL65
 2196 04de 0200     		.2byte	0x2
 2197 04e0 30       		.byte	0x30
 2198 04e1 9F       		.byte	0x9f
 2199 04e2 56000000 		.4byte	.LVL65
 2200 04e6 5C000000 		.4byte	.LVL66
 2201 04ea 0200     		.2byte	0x2
 2202 04ec 31       		.byte	0x31
ARM GAS  C:\Users\DNIEL~1\AppData\Local\Temp\ccBEW71h.s 			page 40


 2203 04ed 9F       		.byte	0x9f
 2204 04ee 5C000000 		.4byte	.LVL66
 2205 04f2 62000000 		.4byte	.LVL67
 2206 04f6 0200     		.2byte	0x2
 2207 04f8 32       		.byte	0x32
 2208 04f9 9F       		.byte	0x9f
 2209 04fa 62000000 		.4byte	.LVL67
 2210 04fe 68000000 		.4byte	.LVL68
 2211 0502 0200     		.2byte	0x2
 2212 0504 33       		.byte	0x33
 2213 0505 9F       		.byte	0x9f
 2214 0506 68000000 		.4byte	.LVL68
 2215 050a 6E000000 		.4byte	.LVL69
 2216 050e 0200     		.2byte	0x2
 2217 0510 34       		.byte	0x34
 2218 0511 9F       		.byte	0x9f
 2219 0512 6E000000 		.4byte	.LVL69
 2220 0516 74000000 		.4byte	.LVL70
 2221 051a 0200     		.2byte	0x2
 2222 051c 35       		.byte	0x35
 2223 051d 9F       		.byte	0x9f
 2224 051e 74000000 		.4byte	.LVL70
 2225 0522 7A000000 		.4byte	.LVL71
 2226 0526 0200     		.2byte	0x2
 2227 0528 36       		.byte	0x36
 2228 0529 9F       		.byte	0x9f
 2229 052a 7A000000 		.4byte	.LVL71
 2230 052e 80000000 		.4byte	.LVL72
 2231 0532 0200     		.2byte	0x2
 2232 0534 37       		.byte	0x37
 2233 0535 9F       		.byte	0x9f
 2234 0536 80000000 		.4byte	.LVL72
 2235 053a 82000000 		.4byte	.LVL73
 2236 053e 0200     		.2byte	0x2
 2237 0540 38       		.byte	0x38
 2238 0541 9F       		.byte	0x9f
 2239 0542 00000000 		.4byte	0x0
 2240 0546 00000000 		.4byte	0x0
 2241              	.LLST28:
 2242 054a 00000000 		.4byte	.LFB131
 2243 054e 04000000 		.4byte	.LCFI10
 2244 0552 0200     		.2byte	0x2
 2245 0554 7D       		.byte	0x7d
 2246 0555 00       		.sleb128 0
 2247 0556 04000000 		.4byte	.LCFI10
 2248 055a 14040000 		.4byte	.LFE131
 2249 055e 0200     		.2byte	0x2
 2250 0560 7D       		.byte	0x7d
 2251 0561 20       		.sleb128 32
 2252 0562 00000000 		.4byte	0x0
 2253 0566 00000000 		.4byte	0x0
 2254              	.LLST29:
 2255 056a 00000000 		.4byte	.LVL76
 2256 056e 0B000000 		.4byte	.LVL77-1
 2257 0572 0100     		.2byte	0x1
 2258 0574 50       		.byte	0x50
 2259 0575 00000000 		.4byte	0x0
ARM GAS  C:\Users\DNIEL~1\AppData\Local\Temp\ccBEW71h.s 			page 41


 2260 0579 00000000 		.4byte	0x0
 2261              	.LLST30:
 2262 057d 00000000 		.4byte	.LVL76
 2263 0581 0B000000 		.4byte	.LVL77-1
 2264 0585 0100     		.2byte	0x1
 2265 0587 51       		.byte	0x51
 2266 0588 0B000000 		.4byte	.LVL77-1
 2267 058c 10000000 		.4byte	.LVL78
 2268 0590 0100     		.2byte	0x1
 2269 0592 55       		.byte	0x55
 2270 0593 16000000 		.4byte	.LVL79
 2271 0597 22000000 		.4byte	.LVL81
 2272 059b 0100     		.2byte	0x1
 2273 059d 55       		.byte	0x55
 2274 059e 22000000 		.4byte	.LVL81
 2275 05a2 2A000000 		.4byte	.LVL82
 2276 05a6 0300     		.2byte	0x3
 2277 05a8 75       		.byte	0x75
 2278 05a9 7F       		.sleb128 -1
 2279 05aa 9F       		.byte	0x9f
 2280 05ab 00000000 		.4byte	0x0
 2281 05af 00000000 		.4byte	0x0
 2282              	.LLST31:
 2283 05b3 1C000000 		.4byte	.LVL80
 2284 05b7 2A000000 		.4byte	.LVL82
 2285 05bb 0300     		.2byte	0x3
 2286 05bd 08       		.byte	0x8
 2287 05be 40       		.byte	0x40
 2288 05bf 9F       		.byte	0x9f
 2289 05c0 2A000000 		.4byte	.LVL82
 2290 05c4 36000000 		.4byte	.LVL85
 2291 05c8 0100     		.2byte	0x1
 2292 05ca 56       		.byte	0x56
 2293 05cb 5A000000 		.4byte	.LVL87
 2294 05cf 66000000 		.4byte	.LVL90
 2295 05d3 0100     		.2byte	0x1
 2296 05d5 5A       		.byte	0x5a
 2297 05d6 8A000000 		.4byte	.LVL92
 2298 05da 96000000 		.4byte	.LVL95
 2299 05de 0100     		.2byte	0x1
 2300 05e0 5A       		.byte	0x5a
 2301 05e1 B6000000 		.4byte	.LVL97
 2302 05e5 C6000000 		.4byte	.LVL100
 2303 05e9 0100     		.2byte	0x1
 2304 05eb 5A       		.byte	0x5a
 2305 05ec EA000000 		.4byte	.LVL102
 2306 05f0 F6000000 		.4byte	.LVL105
 2307 05f4 0100     		.2byte	0x1
 2308 05f6 5A       		.byte	0x5a
 2309 05f7 16010000 		.4byte	.LVL107
 2310 05fb 26010000 		.4byte	.LVL110
 2311 05ff 0100     		.2byte	0x1
 2312 0601 5A       		.byte	0x5a
 2313 0602 46010000 		.4byte	.LVL112
 2314 0606 56010000 		.4byte	.LVL115
 2315 060a 0100     		.2byte	0x1
 2316 060c 5A       		.byte	0x5a
ARM GAS  C:\Users\DNIEL~1\AppData\Local\Temp\ccBEW71h.s 			page 42


 2317 060d 6E010000 		.4byte	.LVL117
 2318 0611 7E010000 		.4byte	.LVL120
 2319 0615 0100     		.2byte	0x1
 2320 0617 59       		.byte	0x59
 2321 0618 96010000 		.4byte	.LVL122
 2322 061c 9C010000 		.4byte	.LVL123
 2323 0620 0300     		.2byte	0x3
 2324 0622 79       		.byte	0x79
 2325 0623 7F       		.sleb128 -1
 2326 0624 9F       		.byte	0x9f
 2327 0625 9C010000 		.4byte	.LVL123
 2328 0629 A4010000 		.4byte	.LVL124
 2329 062d 0300     		.2byte	0x3
 2330 062f 79       		.byte	0x79
 2331 0630 07       		.sleb128 7
 2332 0631 9F       		.byte	0x9f
 2333 0632 AA010000 		.4byte	.LVL125
 2334 0636 BA010000 		.4byte	.LVL128
 2335 063a 0100     		.2byte	0x1
 2336 063c 56       		.byte	0x56
 2337 063d FC010000 		.4byte	.LVL130
 2338 0641 08020000 		.4byte	.LVL133
 2339 0645 0100     		.2byte	0x1
 2340 0647 5A       		.byte	0x5a
 2341 0648 4A020000 		.4byte	.LVL136
 2342 064c 56020000 		.4byte	.LVL139
 2343 0650 0100     		.2byte	0x1
 2344 0652 5A       		.byte	0x5a
 2345 0653 94020000 		.4byte	.LVL141
 2346 0657 A4020000 		.4byte	.LVL144
 2347 065b 0100     		.2byte	0x1
 2348 065d 5A       		.byte	0x5a
 2349 065e E6020000 		.4byte	.LVL147
 2350 0662 F2020000 		.4byte	.LVL150
 2351 0666 0100     		.2byte	0x1
 2352 0668 5A       		.byte	0x5a
 2353 0669 30030000 		.4byte	.LVL153
 2354 066d 40030000 		.4byte	.LVL156
 2355 0671 0100     		.2byte	0x1
 2356 0673 5A       		.byte	0x5a
 2357 0674 7E030000 		.4byte	.LVL158
 2358 0678 8E030000 		.4byte	.LVL161
 2359 067c 0100     		.2byte	0x1
 2360 067e 5A       		.byte	0x5a
 2361 067f C4030000 		.4byte	.LVL163
 2362 0683 D4030000 		.4byte	.LVL166
 2363 0687 0100     		.2byte	0x1
 2364 0689 59       		.byte	0x59
 2365 068a 00000000 		.4byte	0x0
 2366 068e 00000000 		.4byte	0x0
 2367              	.LLST32:
 2368 0692 2A000000 		.4byte	.LVL82
 2369 0696 5A000000 		.4byte	.LVL87
 2370 069a 0200     		.2byte	0x2
 2371 069c 38       		.byte	0x38
 2372 069d 9F       		.byte	0x9f
 2373 069e 5A000000 		.4byte	.LVL87
ARM GAS  C:\Users\DNIEL~1\AppData\Local\Temp\ccBEW71h.s 			page 43


 2374 06a2 8A000000 		.4byte	.LVL92
 2375 06a6 0200     		.2byte	0x2
 2376 06a8 37       		.byte	0x37
 2377 06a9 9F       		.byte	0x9f
 2378 06aa 8A000000 		.4byte	.LVL92
 2379 06ae 96000000 		.4byte	.LVL95
 2380 06b2 0200     		.2byte	0x2
 2381 06b4 36       		.byte	0x36
 2382 06b5 9F       		.byte	0x9f
 2383 06b6 B6000000 		.4byte	.LVL97
 2384 06ba C6000000 		.4byte	.LVL100
 2385 06be 0200     		.2byte	0x2
 2386 06c0 35       		.byte	0x35
 2387 06c1 9F       		.byte	0x9f
 2388 06c2 6E010000 		.4byte	.LVL117
 2389 06c6 96010000 		.4byte	.LVL122
 2390 06ca 0200     		.2byte	0x2
 2391 06cc 31       		.byte	0x31
 2392 06cd 9F       		.byte	0x9f
 2393 06ce 96010000 		.4byte	.LVL122
 2394 06d2 AA010000 		.4byte	.LVL125
 2395 06d6 0200     		.2byte	0x2
 2396 06d8 30       		.byte	0x30
 2397 06d9 9F       		.byte	0x9f
 2398 06da AA010000 		.4byte	.LVL125
 2399 06de FC010000 		.4byte	.LVL130
 2400 06e2 0200     		.2byte	0x2
 2401 06e4 38       		.byte	0x38
 2402 06e5 9F       		.byte	0x9f
 2403 06e6 FC010000 		.4byte	.LVL130
 2404 06ea 4A020000 		.4byte	.LVL136
 2405 06ee 0200     		.2byte	0x2
 2406 06f0 37       		.byte	0x37
 2407 06f1 9F       		.byte	0x9f
 2408 06f2 4A020000 		.4byte	.LVL136
 2409 06f6 56020000 		.4byte	.LVL139
 2410 06fa 0200     		.2byte	0x2
 2411 06fc 36       		.byte	0x36
 2412 06fd 9F       		.byte	0x9f
 2413 06fe 94020000 		.4byte	.LVL141
 2414 0702 A4020000 		.4byte	.LVL144
 2415 0706 0200     		.2byte	0x2
 2416 0708 35       		.byte	0x35
 2417 0709 9F       		.byte	0x9f
 2418 070a C4030000 		.4byte	.LVL163
 2419 070e 0C040000 		.4byte	.LVL168
 2420 0712 0200     		.2byte	0x2
 2421 0714 31       		.byte	0x31
 2422 0715 9F       		.byte	0x9f
 2423 0716 00000000 		.4byte	0x0
 2424 071a 00000000 		.4byte	0x0
 2425              	.LLST33:
 2426 071e 1C000000 		.4byte	.LVL80
 2427 0722 2A000000 		.4byte	.LVL82
 2428 0726 0200     		.2byte	0x2
 2429 0728 30       		.byte	0x30
 2430 0729 9F       		.byte	0x9f
ARM GAS  C:\Users\DNIEL~1\AppData\Local\Temp\ccBEW71h.s 			page 44


 2431 072a 00000000 		.4byte	0x0
 2432 072e 00000000 		.4byte	0x0
 2433              	.LLST34:
 2434 0732 2C000000 		.4byte	.LVL83
 2435 0736 2F000000 		.4byte	.LVL84-1
 2436 073a 0100     		.2byte	0x1
 2437 073c 50       		.byte	0x50
 2438 073d 2F000000 		.4byte	.LVL84-1
 2439 0741 36000000 		.4byte	.LVL85
 2440 0745 0100     		.2byte	0x1
 2441 0747 58       		.byte	0x58
 2442 0748 3E000000 		.4byte	.LVL86
 2443 074c 5C000000 		.4byte	.LVL88
 2444 0750 0200     		.2byte	0x2
 2445 0752 30       		.byte	0x30
 2446 0753 9F       		.byte	0x9f
 2447 0754 5C000000 		.4byte	.LVL88
 2448 0758 5F000000 		.4byte	.LVL89-1
 2449 075c 0100     		.2byte	0x1
 2450 075e 50       		.byte	0x50
 2451 075f 5F000000 		.4byte	.LVL89-1
 2452 0763 66000000 		.4byte	.LVL90
 2453 0767 0100     		.2byte	0x1
 2454 0769 58       		.byte	0x58
 2455 076a 6E000000 		.4byte	.LVL91
 2456 076e 8C000000 		.4byte	.LVL93
 2457 0772 0200     		.2byte	0x2
 2458 0774 30       		.byte	0x30
 2459 0775 9F       		.byte	0x9f
 2460 0776 8C000000 		.4byte	.LVL93
 2461 077a 8F000000 		.4byte	.LVL94-1
 2462 077e 0100     		.2byte	0x1
 2463 0780 50       		.byte	0x50
 2464 0781 8F000000 		.4byte	.LVL94-1
 2465 0785 96000000 		.4byte	.LVL95
 2466 0789 0100     		.2byte	0x1
 2467 078b 58       		.byte	0x58
 2468 078c 9E000000 		.4byte	.LVL96
 2469 0790 BC000000 		.4byte	.LVL98
 2470 0794 0200     		.2byte	0x2
 2471 0796 30       		.byte	0x30
 2472 0797 9F       		.byte	0x9f
 2473 0798 BC000000 		.4byte	.LVL98
 2474 079c BF000000 		.4byte	.LVL99-1
 2475 07a0 0100     		.2byte	0x1
 2476 07a2 50       		.byte	0x50
 2477 07a3 BF000000 		.4byte	.LVL99-1
 2478 07a7 C6000000 		.4byte	.LVL100
 2479 07ab 0100     		.2byte	0x1
 2480 07ad 58       		.byte	0x58
 2481 07ae CE000000 		.4byte	.LVL101
 2482 07b2 EC000000 		.4byte	.LVL103
 2483 07b6 0200     		.2byte	0x2
 2484 07b8 30       		.byte	0x30
 2485 07b9 9F       		.byte	0x9f
 2486 07ba EC000000 		.4byte	.LVL103
 2487 07be EF000000 		.4byte	.LVL104-1
ARM GAS  C:\Users\DNIEL~1\AppData\Local\Temp\ccBEW71h.s 			page 45


 2488 07c2 0100     		.2byte	0x1
 2489 07c4 50       		.byte	0x50
 2490 07c5 EF000000 		.4byte	.LVL104-1
 2491 07c9 F6000000 		.4byte	.LVL105
 2492 07cd 0100     		.2byte	0x1
 2493 07cf 58       		.byte	0x58
 2494 07d0 FE000000 		.4byte	.LVL106
 2495 07d4 1C010000 		.4byte	.LVL108
 2496 07d8 0200     		.2byte	0x2
 2497 07da 30       		.byte	0x30
 2498 07db 9F       		.byte	0x9f
 2499 07dc 1C010000 		.4byte	.LVL108
 2500 07e0 1F010000 		.4byte	.LVL109-1
 2501 07e4 0100     		.2byte	0x1
 2502 07e6 50       		.byte	0x50
 2503 07e7 1F010000 		.4byte	.LVL109-1
 2504 07eb 26010000 		.4byte	.LVL110
 2505 07ef 0100     		.2byte	0x1
 2506 07f1 58       		.byte	0x58
 2507 07f2 2E010000 		.4byte	.LVL111
 2508 07f6 4C010000 		.4byte	.LVL113
 2509 07fa 0200     		.2byte	0x2
 2510 07fc 30       		.byte	0x30
 2511 07fd 9F       		.byte	0x9f
 2512 07fe 4C010000 		.4byte	.LVL113
 2513 0802 4F010000 		.4byte	.LVL114-1
 2514 0806 0100     		.2byte	0x1
 2515 0808 50       		.byte	0x50
 2516 0809 4F010000 		.4byte	.LVL114-1
 2517 080d 56010000 		.4byte	.LVL115
 2518 0811 0100     		.2byte	0x1
 2519 0813 58       		.byte	0x58
 2520 0814 5E010000 		.4byte	.LVL116
 2521 0818 74010000 		.4byte	.LVL118
 2522 081c 0200     		.2byte	0x2
 2523 081e 30       		.byte	0x30
 2524 081f 9F       		.byte	0x9f
 2525 0820 74010000 		.4byte	.LVL118
 2526 0824 77010000 		.4byte	.LVL119-1
 2527 0828 0100     		.2byte	0x1
 2528 082a 50       		.byte	0x50
 2529 082b 77010000 		.4byte	.LVL119-1
 2530 082f 7E010000 		.4byte	.LVL120
 2531 0833 0100     		.2byte	0x1
 2532 0835 58       		.byte	0x58
 2533 0836 86010000 		.4byte	.LVL121
 2534 083a 96010000 		.4byte	.LVL122
 2535 083e 0200     		.2byte	0x2
 2536 0840 30       		.byte	0x30
 2537 0841 9F       		.byte	0x9f
 2538 0842 B0010000 		.4byte	.LVL126
 2539 0846 B3010000 		.4byte	.LVL127-1
 2540 084a 0100     		.2byte	0x1
 2541 084c 50       		.byte	0x50
 2542 084d B3010000 		.4byte	.LVL127-1
 2543 0851 BA010000 		.4byte	.LVL128
 2544 0855 0100     		.2byte	0x1
ARM GAS  C:\Users\DNIEL~1\AppData\Local\Temp\ccBEW71h.s 			page 46


 2545 0857 58       		.byte	0x58
 2546 0858 DC010000 		.4byte	.LVL129
 2547 085c FE010000 		.4byte	.LVL131
 2548 0860 0100     		.2byte	0x1
 2549 0862 58       		.byte	0x58
 2550 0863 FE010000 		.4byte	.LVL131
 2551 0867 01020000 		.4byte	.LVL132-1
 2552 086b 0100     		.2byte	0x1
 2553 086d 50       		.byte	0x50
 2554 086e 01020000 		.4byte	.LVL132-1
 2555 0872 08020000 		.4byte	.LVL133
 2556 0876 0100     		.2byte	0x1
 2557 0878 58       		.byte	0x58
 2558 0879 2A020000 		.4byte	.LVL134
 2559 087d 46020000 		.4byte	.LVL135
 2560 0881 0100     		.2byte	0x1
 2561 0883 58       		.byte	0x58
 2562 0884 4C020000 		.4byte	.LVL137
 2563 0888 4F020000 		.4byte	.LVL138-1
 2564 088c 0100     		.2byte	0x1
 2565 088e 50       		.byte	0x50
 2566 088f 4F020000 		.4byte	.LVL138-1
 2567 0893 56020000 		.4byte	.LVL139
 2568 0897 0100     		.2byte	0x1
 2569 0899 58       		.byte	0x58
 2570 089a 78020000 		.4byte	.LVL140
 2571 089e 9A020000 		.4byte	.LVL142
 2572 08a2 0100     		.2byte	0x1
 2573 08a4 58       		.byte	0x58
 2574 08a5 9A020000 		.4byte	.LVL142
 2575 08a9 9D020000 		.4byte	.LVL143-1
 2576 08ad 0100     		.2byte	0x1
 2577 08af 50       		.byte	0x50
 2578 08b0 9D020000 		.4byte	.LVL143-1
 2579 08b4 A4020000 		.4byte	.LVL144
 2580 08b8 0100     		.2byte	0x1
 2581 08ba 58       		.byte	0x58
 2582 08bb C6020000 		.4byte	.LVL145
 2583 08bf D6020000 		.4byte	.LVL146
 2584 08c3 0100     		.2byte	0x1
 2585 08c5 58       		.byte	0x58
 2586 08c6 E8020000 		.4byte	.LVL148
 2587 08ca EB020000 		.4byte	.LVL149-1
 2588 08ce 0100     		.2byte	0x1
 2589 08d0 50       		.byte	0x50
 2590 08d1 EB020000 		.4byte	.LVL149-1
 2591 08d5 F2020000 		.4byte	.LVL150
 2592 08d9 0100     		.2byte	0x1
 2593 08db 58       		.byte	0x58
 2594 08dc 14030000 		.4byte	.LVL151
 2595 08e0 24030000 		.4byte	.LVL152
 2596 08e4 0100     		.2byte	0x1
 2597 08e6 58       		.byte	0x58
 2598 08e7 36030000 		.4byte	.LVL154
 2599 08eb 39030000 		.4byte	.LVL155-1
 2600 08ef 0100     		.2byte	0x1
 2601 08f1 50       		.byte	0x50
ARM GAS  C:\Users\DNIEL~1\AppData\Local\Temp\ccBEW71h.s 			page 47


 2602 08f2 39030000 		.4byte	.LVL155-1
 2603 08f6 40030000 		.4byte	.LVL156
 2604 08fa 0100     		.2byte	0x1
 2605 08fc 58       		.byte	0x58
 2606 08fd 62030000 		.4byte	.LVL157
 2607 0901 84030000 		.4byte	.LVL159
 2608 0905 0100     		.2byte	0x1
 2609 0907 58       		.byte	0x58
 2610 0908 84030000 		.4byte	.LVL159
 2611 090c 87030000 		.4byte	.LVL160-1
 2612 0910 0100     		.2byte	0x1
 2613 0912 50       		.byte	0x50
 2614 0913 87030000 		.4byte	.LVL160-1
 2615 0917 8E030000 		.4byte	.LVL161
 2616 091b 0100     		.2byte	0x1
 2617 091d 58       		.byte	0x58
 2618 091e B0030000 		.4byte	.LVL162
 2619 0922 CA030000 		.4byte	.LVL164
 2620 0926 0100     		.2byte	0x1
 2621 0928 58       		.byte	0x58
 2622 0929 CA030000 		.4byte	.LVL164
 2623 092d CD030000 		.4byte	.LVL165-1
 2624 0931 0100     		.2byte	0x1
 2625 0933 50       		.byte	0x50
 2626 0934 CD030000 		.4byte	.LVL165-1
 2627 0938 D4030000 		.4byte	.LVL166
 2628 093c 0100     		.2byte	0x1
 2629 093e 58       		.byte	0x58
 2630 093f F6030000 		.4byte	.LVL167
 2631 0943 0C040000 		.4byte	.LVL168
 2632 0947 0100     		.2byte	0x1
 2633 0949 58       		.byte	0x58
 2634 094a 00000000 		.4byte	0x0
 2635 094e 00000000 		.4byte	0x0
 2636              	.LLST35:
 2637 0952 00000000 		.4byte	.LFB132
 2638 0956 02000000 		.4byte	.LCFI11
 2639 095a 0200     		.2byte	0x2
 2640 095c 7D       		.byte	0x7d
 2641 095d 00       		.sleb128 0
 2642 095e 02000000 		.4byte	.LCFI11
 2643 0962 0E000000 		.4byte	.LFE132
 2644 0966 0200     		.2byte	0x2
 2645 0968 7D       		.byte	0x7d
 2646 0969 08       		.sleb128 8
 2647 096a 00000000 		.4byte	0x0
 2648 096e 00000000 		.4byte	0x0
 2649              	.LLST36:
 2650 0972 00000000 		.4byte	.LVL169
 2651 0976 06000000 		.4byte	.LVL170
 2652 097a 0100     		.2byte	0x1
 2653 097c 50       		.byte	0x50
 2654 097d 06000000 		.4byte	.LVL170
 2655 0981 0E000000 		.4byte	.LFE132
 2656 0985 0100     		.2byte	0x1
 2657 0987 54       		.byte	0x54
 2658 0988 00000000 		.4byte	0x0
ARM GAS  C:\Users\DNIEL~1\AppData\Local\Temp\ccBEW71h.s 			page 48


 2659 098c 00000000 		.4byte	0x0
 2660              	.LLST37:
 2661 0990 00000000 		.4byte	.LVL169
 2662 0994 09000000 		.4byte	.LVL171-1
 2663 0998 0100     		.2byte	0x1
 2664 099a 51       		.byte	0x51
 2665 099b 00000000 		.4byte	0x0
 2666 099f 00000000 		.4byte	0x0
 2667              	.LLST38:
 2668 09a3 00000000 		.4byte	.LVL172
 2669 09a7 0C000000 		.4byte	.LVL173
 2670 09ab 0100     		.2byte	0x1
 2671 09ad 50       		.byte	0x50
 2672 09ae 00000000 		.4byte	0x0
 2673 09b2 00000000 		.4byte	0x0
 2674              	.LLST39:
 2675 09b6 18000000 		.4byte	.LVL174
 2676 09ba 1E000000 		.4byte	.LVL175
 2677 09be 0200     		.2byte	0x2
 2678 09c0 31       		.byte	0x31
 2679 09c1 9F       		.byte	0x9f
 2680 09c2 1E000000 		.4byte	.LVL175
 2681 09c6 24000000 		.4byte	.LVL176
 2682 09ca 0200     		.2byte	0x2
 2683 09cc 32       		.byte	0x32
 2684 09cd 9F       		.byte	0x9f
 2685 09ce 24000000 		.4byte	.LVL176
 2686 09d2 2A000000 		.4byte	.LVL177
 2687 09d6 0200     		.2byte	0x2
 2688 09d8 33       		.byte	0x33
 2689 09d9 9F       		.byte	0x9f
 2690 09da 2A000000 		.4byte	.LVL177
 2691 09de 30000000 		.4byte	.LVL178
 2692 09e2 0200     		.2byte	0x2
 2693 09e4 34       		.byte	0x34
 2694 09e5 9F       		.byte	0x9f
 2695 09e6 30000000 		.4byte	.LVL178
 2696 09ea 36000000 		.4byte	.LVL179
 2697 09ee 0200     		.2byte	0x2
 2698 09f0 35       		.byte	0x35
 2699 09f1 9F       		.byte	0x9f
 2700 09f2 36000000 		.4byte	.LVL179
 2701 09f6 3C000000 		.4byte	.LVL180
 2702 09fa 0200     		.2byte	0x2
 2703 09fc 36       		.byte	0x36
 2704 09fd 9F       		.byte	0x9f
 2705 09fe 3C000000 		.4byte	.LVL180
 2706 0a02 42000000 		.4byte	.LVL181
 2707 0a06 0200     		.2byte	0x2
 2708 0a08 37       		.byte	0x37
 2709 0a09 9F       		.byte	0x9f
 2710 0a0a 00000000 		.4byte	0x0
 2711 0a0e 00000000 		.4byte	0x0
 2712              	.LLST40:
 2713 0a12 00000000 		.4byte	.LFB134
 2714 0a16 04000000 		.4byte	.LCFI12
 2715 0a1a 0200     		.2byte	0x2
ARM GAS  C:\Users\DNIEL~1\AppData\Local\Temp\ccBEW71h.s 			page 49


 2716 0a1c 7D       		.byte	0x7d
 2717 0a1d 00       		.sleb128 0
 2718 0a1e 04000000 		.4byte	.LCFI12
 2719 0a22 0E000000 		.4byte	.LCFI13
 2720 0a26 0200     		.2byte	0x2
 2721 0a28 7D       		.byte	0x7d
 2722 0a29 24       		.sleb128 36
 2723 0a2a 0E000000 		.4byte	.LCFI13
 2724 0a2e 0C010000 		.4byte	.LFE134
 2725 0a32 0300     		.2byte	0x3
 2726 0a34 7D       		.byte	0x7d
 2727 0a35 E000     		.sleb128 96
 2728 0a37 00000000 		.4byte	0x0
 2729 0a3b 00000000 		.4byte	0x0
 2730              	.LLST41:
 2731 0a3f 82000000 		.4byte	.LVL183
 2732 0a43 96000000 		.4byte	.LVL184
 2733 0a47 0200     		.2byte	0x2
 2734 0a49 31       		.byte	0x31
 2735 0a4a 9F       		.byte	0x9f
 2736 0a4b 96000000 		.4byte	.LVL184
 2737 0a4f A2000000 		.4byte	.LVL185
 2738 0a53 0200     		.2byte	0x2
 2739 0a55 32       		.byte	0x32
 2740 0a56 9F       		.byte	0x9f
 2741 0a57 A2000000 		.4byte	.LVL185
 2742 0a5b AE000000 		.4byte	.LVL186
 2743 0a5f 0200     		.2byte	0x2
 2744 0a61 33       		.byte	0x33
 2745 0a62 9F       		.byte	0x9f
 2746 0a63 AE000000 		.4byte	.LVL186
 2747 0a67 CA000000 		.4byte	.LVL187
 2748 0a6b 0200     		.2byte	0x2
 2749 0a6d 34       		.byte	0x34
 2750 0a6e 9F       		.byte	0x9f
 2751 0a6f CA000000 		.4byte	.LVL187
 2752 0a73 CE000000 		.4byte	.LVL188
 2753 0a77 0200     		.2byte	0x2
 2754 0a79 35       		.byte	0x35
 2755 0a7a 9F       		.byte	0x9f
 2756 0a7b CE000000 		.4byte	.LVL188
 2757 0a7f D2000000 		.4byte	.LVL189
 2758 0a83 0200     		.2byte	0x2
 2759 0a85 36       		.byte	0x36
 2760 0a86 9F       		.byte	0x9f
 2761 0a87 D2000000 		.4byte	.LVL189
 2762 0a8b D6000000 		.4byte	.LVL190
 2763 0a8f 0200     		.2byte	0x2
 2764 0a91 37       		.byte	0x37
 2765 0a92 9F       		.byte	0x9f
 2766 0a93 D6000000 		.4byte	.LVL190
 2767 0a97 E4000000 		.4byte	.LVL191
 2768 0a9b 0200     		.2byte	0x2
 2769 0a9d 38       		.byte	0x38
 2770 0a9e 9F       		.byte	0x9f
 2771 0a9f 00000000 		.4byte	0x0
 2772 0aa3 00000000 		.4byte	0x0
ARM GAS  C:\Users\DNIEL~1\AppData\Local\Temp\ccBEW71h.s 			page 50


 2773              		.file 2 "c:\\program files (x86)\\codesourcery\\sourcery g++ lite\\bin\\../lib/gcc/arm-none-eabi/4
 2774              		.file 3 "../../../Chibios/os/ports/common/ARMCMx/nvic.h"
 2775              		.file 4 "../../../Chibios/os/hal/platforms/STM32F4xx/hal_lld.h"
 2776              		.file 5 "../../../Chibios/os/hal/platforms/STM32/GPIOv2/pal_lld.h"
 2777              		.file 6 "../../../Chibios/os/ports/common/ARMCMx/CMSIS/include/core_cm4.h"
 2778              		.section	.debug_info
 2779 0000 CD060000 		.4byte	0x6cd
 2780 0004 0200     		.2byte	0x2
 2781 0006 00000000 		.4byte	.Ldebug_abbrev0
 2782 000a 04       		.byte	0x4
 2783 000b 01       		.uleb128 0x1
 2784 000c 42030000 		.4byte	.LASF68
 2785 0010 01       		.byte	0x1
 2786 0011 A7020000 		.4byte	.LASF69
 2787 0015 07030000 		.4byte	.LASF70
 2788 0019 00000000 		.4byte	0x0
 2789 001d 00000000 		.4byte	0x0
 2790 0021 00000000 		.4byte	.Ldebug_ranges0+0x0
 2791 0025 00000000 		.4byte	.Ldebug_line0
 2792 0029 02       		.uleb128 0x2
 2793 002a 04       		.byte	0x4
 2794 002b 05       		.byte	0x5
 2795 002c 696E7400 		.ascii	"int\000"
 2796 0030 03       		.uleb128 0x3
 2797 0031 04       		.byte	0x4
 2798 0032 07       		.byte	0x7
 2799 0033 93010000 		.4byte	.LASF0
 2800 0037 03       		.uleb128 0x3
 2801 0038 01       		.byte	0x1
 2802 0039 06       		.byte	0x6
 2803 003a 52010000 		.4byte	.LASF1
 2804 003e 04       		.uleb128 0x4
 2805 003f 83000000 		.4byte	.LASF3
 2806 0043 02       		.byte	0x2
 2807 0044 2A       		.byte	0x2a
 2808 0045 49000000 		.4byte	0x49
 2809 0049 03       		.uleb128 0x3
 2810 004a 01       		.byte	0x1
 2811 004b 08       		.byte	0x8
 2812 004c 3F010000 		.4byte	.LASF2
 2813 0050 04       		.uleb128 0x4
 2814 0051 F6010000 		.4byte	.LASF4
 2815 0055 02       		.byte	0x2
 2816 0056 35       		.byte	0x35
 2817 0057 5B000000 		.4byte	0x5b
 2818 005b 03       		.uleb128 0x3
 2819 005c 02       		.byte	0x2
 2820 005d 05       		.byte	0x5
 2821 005e 43000000 		.4byte	.LASF5
 2822 0062 04       		.uleb128 0x4
 2823 0063 B1010000 		.4byte	.LASF6
 2824 0067 02       		.byte	0x2
 2825 0068 36       		.byte	0x36
 2826 0069 6D000000 		.4byte	0x6d
 2827 006d 03       		.uleb128 0x3
 2828 006e 02       		.byte	0x2
 2829 006f 07       		.byte	0x7
ARM GAS  C:\Users\DNIEL~1\AppData\Local\Temp\ccBEW71h.s 			page 51


 2830 0070 C5010000 		.4byte	.LASF7
 2831 0074 04       		.uleb128 0x4
 2832 0075 EE010000 		.4byte	.LASF8
 2833 0079 02       		.byte	0x2
 2834 007a 4F       		.byte	0x4f
 2835 007b 7F000000 		.4byte	0x7f
 2836 007f 03       		.uleb128 0x3
 2837 0080 04       		.byte	0x4
 2838 0081 05       		.byte	0x5
 2839 0082 08010000 		.4byte	.LASF9
 2840 0086 04       		.uleb128 0x4
 2841 0087 75010000 		.4byte	.LASF10
 2842 008b 02       		.byte	0x2
 2843 008c 50       		.byte	0x50
 2844 008d 91000000 		.4byte	0x91
 2845 0091 03       		.uleb128 0x3
 2846 0092 04       		.byte	0x4
 2847 0093 07       		.byte	0x7
 2848 0094 3F020000 		.4byte	.LASF11
 2849 0098 03       		.uleb128 0x3
 2850 0099 08       		.byte	0x8
 2851 009a 05       		.byte	0x5
 2852 009b BB000000 		.4byte	.LASF12
 2853 009f 03       		.uleb128 0x3
 2854 00a0 08       		.byte	0x8
 2855 00a1 07       		.byte	0x7
 2856 00a2 5E010000 		.4byte	.LASF13
 2857 00a6 03       		.uleb128 0x3
 2858 00a7 01       		.byte	0x1
 2859 00a8 02       		.byte	0x2
 2860 00a9 FE010000 		.4byte	.LASF14
 2861 00ad 05       		.uleb128 0x5
 2862 00ae 3E000000 		.4byte	0x3e
 2863 00b2 05       		.uleb128 0x5
 2864 00b3 86000000 		.4byte	0x86
 2865 00b7 05       		.uleb128 0x5
 2866 00b8 91000000 		.4byte	0x91
 2867 00bc 06       		.uleb128 0x6
 2868 00bd 20       		.byte	0x20
 2869 00be 03       		.byte	0x3
 2870 00bf 0601     		.2byte	0x106
 2871 00c1 3E010000 		.4byte	0x13e
 2872 00c5 07       		.uleb128 0x7
 2873 00c6 4D010000 		.4byte	.LASF15
 2874 00ca 03       		.byte	0x3
 2875 00cb 0701     		.2byte	0x107
 2876 00cd B7000000 		.4byte	0xb7
 2877 00d1 02       		.byte	0x2
 2878 00d2 23       		.byte	0x23
 2879 00d3 00       		.uleb128 0x0
 2880 00d4 07       		.uleb128 0x7
 2881 00d5 D9000000 		.4byte	.LASF16
 2882 00d9 03       		.byte	0x3
 2883 00da 0801     		.2byte	0x108
 2884 00dc B7000000 		.4byte	0xb7
 2885 00e0 02       		.byte	0x2
 2886 00e1 23       		.byte	0x23
ARM GAS  C:\Users\DNIEL~1\AppData\Local\Temp\ccBEW71h.s 			page 52


 2887 00e2 04       		.uleb128 0x4
 2888 00e3 07       		.uleb128 0x7
 2889 00e4 20020000 		.4byte	.LASF17
 2890 00e8 03       		.byte	0x3
 2891 00e9 0901     		.2byte	0x109
 2892 00eb B7000000 		.4byte	0xb7
 2893 00ef 02       		.byte	0x2
 2894 00f0 23       		.byte	0x23
 2895 00f1 08       		.uleb128 0x8
 2896 00f2 07       		.uleb128 0x7
 2897 00f3 38010000 		.4byte	.LASF18
 2898 00f7 03       		.byte	0x3
 2899 00f8 0A01     		.2byte	0x10a
 2900 00fa B7000000 		.4byte	0xb7
 2901 00fe 02       		.byte	0x2
 2902 00ff 23       		.byte	0x23
 2903 0100 0C       		.uleb128 0xc
 2904 0101 07       		.uleb128 0x7
 2905 0102 94020000 		.4byte	.LASF19
 2906 0106 03       		.byte	0x3
 2907 0107 0B01     		.2byte	0x10b
 2908 0109 B7000000 		.4byte	0xb7
 2909 010d 02       		.byte	0x2
 2910 010e 23       		.byte	0x23
 2911 010f 10       		.uleb128 0x10
 2912 0110 07       		.uleb128 0x7
 2913 0111 C3020000 		.4byte	.LASF20
 2914 0115 03       		.byte	0x3
 2915 0116 0C01     		.2byte	0x10c
 2916 0118 B7000000 		.4byte	0xb7
 2917 011c 02       		.byte	0x2
 2918 011d 23       		.byte	0x23
 2919 011e 14       		.uleb128 0x14
 2920 011f 07       		.uleb128 0x7
 2921 0120 52000000 		.4byte	.LASF21
 2922 0124 03       		.byte	0x3
 2923 0125 0D01     		.2byte	0x10d
 2924 0127 B7000000 		.4byte	0xb7
 2925 012b 02       		.byte	0x2
 2926 012c 23       		.byte	0x23
 2927 012d 18       		.uleb128 0x18
 2928 012e 07       		.uleb128 0x7
 2929 012f 4D000000 		.4byte	.LASF22
 2930 0133 03       		.byte	0x3
 2931 0134 0E01     		.2byte	0x10e
 2932 0136 B7000000 		.4byte	0xb7
 2933 013a 02       		.byte	0x2
 2934 013b 23       		.byte	0x23
 2935 013c 1C       		.uleb128 0x1c
 2936 013d 00       		.byte	0x0
 2937 013e 08       		.uleb128 0x8
 2938 013f 11020000 		.4byte	.LASF23
 2939 0143 03       		.byte	0x3
 2940 0144 0F01     		.2byte	0x10f
 2941 0146 BC000000 		.4byte	0xbc
 2942 014a 03       		.uleb128 0x3
 2943 014b 01       		.byte	0x1
ARM GAS  C:\Users\DNIEL~1\AppData\Local\Temp\ccBEW71h.s 			page 53


 2944 014c 08       		.byte	0x8
 2945 014d D8010000 		.4byte	.LASF24
 2946 0151 09       		.uleb128 0x9
 2947 0152 04       		.byte	0x4
 2948 0153 3E000000 		.4byte	0x3e
 2949 0157 05       		.uleb128 0x5
 2950 0158 74000000 		.4byte	0x74
 2951 015c 08       		.uleb128 0x8
 2952 015d 89020000 		.4byte	.LASF25
 2953 0161 04       		.byte	0x4
 2954 0162 C006     		.2byte	0x6c0
 2955 0164 86000000 		.4byte	0x86
 2956 0168 0A       		.uleb128 0xa
 2957 0169 04       		.byte	0x4
 2958 016a 05       		.byte	0x5
 2959 016b 96       		.byte	0x96
 2960 016c 8D010000 		.4byte	0x18d
 2961 0170 0B       		.uleb128 0xb
 2962 0171 73657400 		.ascii	"set\000"
 2963 0175 05       		.byte	0x5
 2964 0176 97       		.byte	0x97
 2965 0177 62000000 		.4byte	0x62
 2966 017b 02       		.byte	0x2
 2967 017c 23       		.byte	0x23
 2968 017d 00       		.uleb128 0x0
 2969 017e 0C       		.uleb128 0xc
 2970 017f 32010000 		.4byte	.LASF26
 2971 0183 05       		.byte	0x5
 2972 0184 98       		.byte	0x98
 2973 0185 62000000 		.4byte	0x62
 2974 0189 02       		.byte	0x2
 2975 018a 23       		.byte	0x23
 2976 018b 02       		.uleb128 0x2
 2977 018c 00       		.byte	0x0
 2978 018d 0D       		.uleb128 0xd
 2979 018e 04       		.byte	0x4
 2980 018f 05       		.byte	0x5
 2981 0190 94       		.byte	0x94
 2982 0191 A8010000 		.4byte	0x1a8
 2983 0195 0E       		.uleb128 0xe
 2984 0196 5700     		.ascii	"W\000"
 2985 0198 05       		.byte	0x5
 2986 0199 95       		.byte	0x95
 2987 019a 86000000 		.4byte	0x86
 2988 019e 0E       		.uleb128 0xe
 2989 019f 4800     		.ascii	"H\000"
 2990 01a1 05       		.byte	0x5
 2991 01a2 99       		.byte	0x99
 2992 01a3 68010000 		.4byte	0x168
 2993 01a7 00       		.byte	0x0
 2994 01a8 0A       		.uleb128 0xa
 2995 01a9 28       		.byte	0x28
 2996 01aa 05       		.byte	0x5
 2997 01ab 8C       		.byte	0x8c
 2998 01ac 3D020000 		.4byte	0x23d
 2999 01b0 0C       		.uleb128 0xc
 3000 01b1 1A010000 		.4byte	.LASF27
ARM GAS  C:\Users\DNIEL~1\AppData\Local\Temp\ccBEW71h.s 			page 54


 3001 01b5 05       		.byte	0x5
 3002 01b6 8E       		.byte	0x8e
 3003 01b7 B2000000 		.4byte	0xb2
 3004 01bb 02       		.byte	0x2
 3005 01bc 23       		.byte	0x23
 3006 01bd 00       		.uleb128 0x0
 3007 01be 0C       		.uleb128 0xc
 3008 01bf 98000000 		.4byte	.LASF28
 3009 01c3 05       		.byte	0x5
 3010 01c4 8F       		.byte	0x8f
 3011 01c5 B2000000 		.4byte	0xb2
 3012 01c9 02       		.byte	0x2
 3013 01ca 23       		.byte	0x23
 3014 01cb 04       		.uleb128 0x4
 3015 01cc 0C       		.uleb128 0xc
 3016 01cd 27020000 		.4byte	.LASF29
 3017 01d1 05       		.byte	0x5
 3018 01d2 90       		.byte	0x90
 3019 01d3 B2000000 		.4byte	0xb2
 3020 01d7 02       		.byte	0x2
 3021 01d8 23       		.byte	0x23
 3022 01d9 08       		.uleb128 0x8
 3023 01da 0C       		.uleb128 0xc
 3024 01db E0000000 		.4byte	.LASF30
 3025 01df 05       		.byte	0x5
 3026 01e0 91       		.byte	0x91
 3027 01e1 B2000000 		.4byte	0xb2
 3028 01e5 02       		.byte	0x2
 3029 01e6 23       		.byte	0x23
 3030 01e7 0C       		.uleb128 0xc
 3031 01e8 0B       		.uleb128 0xb
 3032 01e9 49445200 		.ascii	"IDR\000"
 3033 01ed 05       		.byte	0x5
 3034 01ee 92       		.byte	0x92
 3035 01ef B2000000 		.4byte	0xb2
 3036 01f3 02       		.byte	0x2
 3037 01f4 23       		.byte	0x23
 3038 01f5 10       		.uleb128 0x10
 3039 01f6 0B       		.uleb128 0xb
 3040 01f7 4F445200 		.ascii	"ODR\000"
 3041 01fb 05       		.byte	0x5
 3042 01fc 93       		.byte	0x93
 3043 01fd B2000000 		.4byte	0xb2
 3044 0201 02       		.byte	0x2
 3045 0202 23       		.byte	0x23
 3046 0203 14       		.uleb128 0x14
 3047 0204 0C       		.uleb128 0xc
 3048 0205 7E000000 		.4byte	.LASF31
 3049 0209 05       		.byte	0x5
 3050 020a 9A       		.byte	0x9a
 3051 020b 3D020000 		.4byte	0x23d
 3052 020f 02       		.byte	0x2
 3053 0210 23       		.byte	0x23
 3054 0211 18       		.uleb128 0x18
 3055 0212 0C       		.uleb128 0xc
 3056 0213 3D030000 		.4byte	.LASF32
 3057 0217 05       		.byte	0x5
ARM GAS  C:\Users\DNIEL~1\AppData\Local\Temp\ccBEW71h.s 			page 55


 3058 0218 9B       		.byte	0x9b
 3059 0219 B2000000 		.4byte	0xb2
 3060 021d 02       		.byte	0x2
 3061 021e 23       		.byte	0x23
 3062 021f 1C       		.uleb128 0x1c
 3063 0220 0C       		.uleb128 0xc
 3064 0221 5A000000 		.4byte	.LASF33
 3065 0225 05       		.byte	0x5
 3066 0226 9C       		.byte	0x9c
 3067 0227 B2000000 		.4byte	0xb2
 3068 022b 02       		.byte	0x2
 3069 022c 23       		.byte	0x23
 3070 022d 20       		.uleb128 0x20
 3071 022e 0C       		.uleb128 0xc
 3072 022f BA010000 		.4byte	.LASF34
 3073 0233 05       		.byte	0x5
 3074 0234 9D       		.byte	0x9d
 3075 0235 B2000000 		.4byte	0xb2
 3076 0239 02       		.byte	0x2
 3077 023a 23       		.byte	0x23
 3078 023b 24       		.uleb128 0x24
 3079 023c 00       		.byte	0x0
 3080 023d 05       		.uleb128 0x5
 3081 023e 8D010000 		.4byte	0x18d
 3082 0242 04       		.uleb128 0x4
 3083 0243 00000000 		.4byte	.LASF35
 3084 0247 05       		.byte	0x5
 3085 0248 9E       		.byte	0x9e
 3086 0249 A8010000 		.4byte	0x1a8
 3087 024d 04       		.uleb128 0x4
 3088 024e 8B000000 		.4byte	.LASF36
 3089 0252 05       		.byte	0x5
 3090 0253 F0       		.byte	0xf0
 3091 0254 86000000 		.4byte	0x86
 3092 0258 0F       		.uleb128 0xf
 3093 0259 3E000000 		.4byte	0x3e
 3094 025d 68020000 		.4byte	0x268
 3095 0261 10       		.uleb128 0x10
 3096 0262 30000000 		.4byte	0x30
 3097 0266 07       		.byte	0x7
 3098 0267 00       		.byte	0x0
 3099 0268 11       		.uleb128 0x11
 3100 0269 01       		.byte	0x1
 3101 026a 25000000 		.4byte	.LASF71
 3102 026e 01       		.byte	0x1
 3103 026f 1E       		.byte	0x1e
 3104 0270 01       		.byte	0x1
 3105 0271 3E000000 		.4byte	0x3e
 3106 0275 01       		.byte	0x1
 3107 0276 12       		.uleb128 0x12
 3108 0277 5F000000 		.4byte	.LASF72
 3109 027b 01       		.byte	0x1
 3110 027c 23       		.byte	0x23
 3111 027d 01       		.byte	0x1
 3112 027e 00000000 		.4byte	.LFB122
 3113 0282 30000000 		.4byte	.LFE122
 3114 0286 00000000 		.4byte	.LLST0
ARM GAS  C:\Users\DNIEL~1\AppData\Local\Temp\ccBEW71h.s 			page 56


 3115 028a ED020000 		.4byte	0x2ed
 3116 028e 13       		.uleb128 0x13
 3117 028f 757300   		.ascii	"us\000"
 3118 0292 01       		.byte	0x1
 3119 0293 23       		.byte	0x23
 3120 0294 86000000 		.4byte	0x86
 3121 0298 20000000 		.4byte	.LLST1
 3122 029c 14       		.uleb128 0x14
 3123 029d BF010000 		.4byte	.LASF37
 3124 02a1 01       		.byte	0x1
 3125 02a2 27       		.byte	0x27
 3126 02a3 5C010000 		.4byte	0x15c
 3127 02a7 01       		.byte	0x1
 3128 02a8 54       		.byte	0x54
 3129 02a9 14       		.uleb128 0x14
 3130 02aa 09020000 		.4byte	.LASF38
 3131 02ae 01       		.byte	0x1
 3132 02af 28       		.byte	0x28
 3133 02b0 5C010000 		.4byte	0x15c
 3134 02b4 01       		.byte	0x1
 3135 02b5 55       		.byte	0x55
 3136 02b6 15       		.uleb128 0x15
 3137 02b7 02000000 		.4byte	.LBB6
 3138 02bb 08000000 		.4byte	.LBE6
 3139 02bf D3020000 		.4byte	0x2d3
 3140 02c3 16       		.uleb128 0x16
 3141 02c4 746D7000 		.ascii	"tmp\000"
 3142 02c8 01       		.byte	0x1
 3143 02c9 25       		.byte	0x25
 3144 02ca 86000000 		.4byte	0x86
 3145 02ce 33000000 		.4byte	.LLST2
 3146 02d2 00       		.byte	0x0
 3147 02d3 17       		.uleb128 0x17
 3148 02d4 22000000 		.4byte	.LBB7
 3149 02d8 28000000 		.4byte	.LBE7
 3150 02dc 16       		.uleb128 0x16
 3151 02dd 746D7000 		.ascii	"tmp\000"
 3152 02e1 01       		.byte	0x1
 3153 02e2 2C       		.byte	0x2c
 3154 02e3 86000000 		.4byte	0x86
 3155 02e7 46000000 		.4byte	.LLST3
 3156 02eb 00       		.byte	0x0
 3157 02ec 00       		.byte	0x0
 3158 02ed 18       		.uleb128 0x18
 3159 02ee 01       		.byte	0x1
 3160 02ef 7E010000 		.4byte	.LASF39
 3161 02f3 01       		.byte	0x1
 3162 02f4 06       		.byte	0x6
 3163 02f5 01       		.byte	0x1
 3164 02f6 00000000 		.4byte	.LFB118
 3165 02fa 10000000 		.4byte	.LFE118
 3166 02fe 02       		.byte	0x2
 3167 02ff 7D       		.byte	0x7d
 3168 0300 00       		.sleb128 0
 3169 0301 18       		.uleb128 0x18
 3170 0302 01       		.byte	0x1
 3171 0303 51020000 		.4byte	.LASF40
ARM GAS  C:\Users\DNIEL~1\AppData\Local\Temp\ccBEW71h.s 			page 57


 3172 0307 01       		.byte	0x1
 3173 0308 0B       		.byte	0xb
 3174 0309 01       		.byte	0x1
 3175 030a 00000000 		.4byte	.LFB119
 3176 030e 10000000 		.4byte	.LFE119
 3177 0312 02       		.byte	0x2
 3178 0313 7D       		.byte	0x7d
 3179 0314 00       		.sleb128 0
 3180 0315 19       		.uleb128 0x19
 3181 0316 01       		.byte	0x1
 3182 0317 F5000000 		.4byte	.LASF42
 3183 031b 01       		.byte	0x1
 3184 031c 10       		.byte	0x10
 3185 031d 01       		.byte	0x1
 3186 031e 00000000 		.4byte	.LFB120
 3187 0322 24000000 		.4byte	.LFE120
 3188 0326 59000000 		.4byte	.LLST4
 3189 032a 3E030000 		.4byte	0x33e
 3190 032e 1A       		.uleb128 0x1a
 3191 032f 3D000000 		.4byte	.LASF41
 3192 0333 01       		.byte	0x1
 3193 0334 10       		.byte	0x10
 3194 0335 3E000000 		.4byte	0x3e
 3195 0339 79000000 		.4byte	.LLST5
 3196 033d 00       		.byte	0x0
 3197 033e 1B       		.uleb128 0x1b
 3198 033f 68020000 		.4byte	0x268
 3199 0343 00000000 		.4byte	.LFB121
 3200 0347 10000000 		.4byte	.LFE121
 3201 034b 02       		.byte	0x2
 3202 034c 7D       		.byte	0x7d
 3203 034d 00       		.sleb128 0
 3204 034e 1C       		.uleb128 0x1c
 3205 034f 01       		.byte	0x1
 3206 0350 C9000000 		.4byte	.LASF47
 3207 0354 01       		.byte	0x1
 3208 0355 2F       		.byte	0x2f
 3209 0356 01       		.byte	0x1
 3210 0357 3E000000 		.4byte	0x3e
 3211 035b 00000000 		.4byte	.LFB123
 3212 035f 30000000 		.4byte	.LFE123
 3213 0363 97000000 		.4byte	.LLST6
 3214 0367 8A030000 		.4byte	0x38a
 3215 036b 16       		.uleb128 0x16
 3216 036c 62697400 		.ascii	"bit\000"
 3217 0370 01       		.byte	0x1
 3218 0371 31       		.byte	0x31
 3219 0372 3E000000 		.4byte	0x3e
 3220 0376 B7000000 		.4byte	.LLST7
 3221 037a 1D       		.uleb128 0x1d
 3222 037b 68020000 		.4byte	0x268
 3223 037f 1A000000 		.4byte	.LBB8
 3224 0383 1E000000 		.4byte	.LBE8
 3225 0387 01       		.byte	0x1
 3226 0388 37       		.byte	0x37
 3227 0389 00       		.byte	0x0
 3228 038a 19       		.uleb128 0x19
ARM GAS  C:\Users\DNIEL~1\AppData\Local\Temp\ccBEW71h.s 			page 58


 3229 038b 01       		.byte	0x1
 3230 038c A0010000 		.4byte	.LASF43
 3231 0390 01       		.byte	0x1
 3232 0391 3E       		.byte	0x3e
 3233 0392 01       		.byte	0x1
 3234 0393 00000000 		.4byte	.LFB124
 3235 0397 34000000 		.4byte	.LFE124
 3236 039b DC000000 		.4byte	.LLST8
 3237 039f B3030000 		.4byte	0x3b3
 3238 03a3 13       		.uleb128 0x13
 3239 03a4 62697400 		.ascii	"bit\000"
 3240 03a8 01       		.byte	0x1
 3241 03a9 3E       		.byte	0x3e
 3242 03aa 3E000000 		.4byte	0x3e
 3243 03ae FC000000 		.4byte	.LLST9
 3244 03b2 00       		.byte	0x0
 3245 03b3 19       		.uleb128 0x19
 3246 03b4 01       		.byte	0x1
 3247 03b5 77020000 		.4byte	.LASF44
 3248 03b9 01       		.byte	0x1
 3249 03ba 4B       		.byte	0x4b
 3250 03bb 01       		.byte	0x1
 3251 03bc 00000000 		.4byte	.LFB125
 3252 03c0 52000000 		.4byte	.LFE125
 3253 03c4 0F010000 		.4byte	.LLST10
 3254 03c8 F8030000 		.4byte	0x3f8
 3255 03cc 1A       		.uleb128 0x1a
 3256 03cd 04020000 		.4byte	.LASF45
 3257 03d1 01       		.byte	0x1
 3258 03d2 4B       		.byte	0x4b
 3259 03d3 3E000000 		.4byte	0x3e
 3260 03d7 2F010000 		.4byte	.LLST11
 3261 03db 1E       		.uleb128 0x1e
 3262 03dc 20010000 		.4byte	.LASF46
 3263 03e0 01       		.byte	0x1
 3264 03e1 4D       		.byte	0x4d
 3265 03e2 3E000000 		.4byte	0x3e
 3266 03e6 42010000 		.4byte	.LLST12
 3267 03ea 16       		.uleb128 0x16
 3268 03eb 6900     		.ascii	"i\000"
 3269 03ed 01       		.byte	0x1
 3270 03ee 4E       		.byte	0x4e
 3271 03ef 29000000 		.4byte	0x29
 3272 03f3 B1010000 		.4byte	.LLST13
 3273 03f7 00       		.byte	0x0
 3274 03f8 1C       		.uleb128 0x1c
 3275 03f9 01       		.byte	0x1
 3276 03fa DD010000 		.4byte	.LASF48
 3277 03fe 01       		.byte	0x1
 3278 03ff 56       		.byte	0x56
 3279 0400 01       		.byte	0x1
 3280 0401 3E000000 		.4byte	0x3e
 3281 0405 00000000 		.4byte	.LFB126
 3282 0409 76000000 		.4byte	.LFE126
 3283 040d 0D020000 		.4byte	.LLST14
 3284 0411 32040000 		.4byte	0x432
 3285 0415 1E       		.uleb128 0x1e
ARM GAS  C:\Users\DNIEL~1\AppData\Local\Temp\ccBEW71h.s 			page 59


 3286 0416 04020000 		.4byte	.LASF45
 3287 041a 01       		.byte	0x1
 3288 041b 58       		.byte	0x58
 3289 041c 3E000000 		.4byte	0x3e
 3290 0420 2D020000 		.4byte	.LLST15
 3291 0424 16       		.uleb128 0x16
 3292 0425 6900     		.ascii	"i\000"
 3293 0427 01       		.byte	0x1
 3294 0428 59       		.byte	0x59
 3295 0429 29000000 		.4byte	0x29
 3296 042d DB020000 		.4byte	.LLST16
 3297 0431 00       		.byte	0x0
 3298 0432 1C       		.uleb128 0x1c
 3299 0433 01       		.byte	0x1
 3300 0434 B5020000 		.4byte	.LASF49
 3301 0438 01       		.byte	0x1
 3302 0439 66       		.byte	0x66
 3303 043a 01       		.byte	0x1
 3304 043b 3E000000 		.4byte	0x3e
 3305 043f 00000000 		.4byte	.LFB127
 3306 0443 3C000000 		.4byte	.LFE127
 3307 0447 43030000 		.4byte	.LLST17
 3308 044b 5F040000 		.4byte	0x45f
 3309 044f 1D       		.uleb128 0x1d
 3310 0450 68020000 		.4byte	0x268
 3311 0454 1C000000 		.4byte	.LBB10
 3312 0458 20000000 		.4byte	.LBE10
 3313 045c 01       		.byte	0x1
 3314 045d 6C       		.byte	0x6c
 3315 045e 00       		.byte	0x0
 3316 045f 1F       		.uleb128 0x1f
 3317 0460 01       		.byte	0x1
 3318 0461 9F000000 		.4byte	.LASF50
 3319 0465 01       		.byte	0x1
 3320 0466 74       		.byte	0x74
 3321 0467 01       		.byte	0x1
 3322 0468 00000000 		.4byte	.LFB128
 3323 046c 1C000000 		.4byte	.LFE128
 3324 0470 63030000 		.4byte	.LLST18
 3325 0474 19       		.uleb128 0x19
 3326 0475 01       		.byte	0x1
 3327 0476 CA020000 		.4byte	.LASF51
 3328 047a 01       		.byte	0x1
 3329 047b 9E       		.byte	0x9e
 3330 047c 01       		.byte	0x1
 3331 047d 00000000 		.4byte	.LFB130
 3332 0481 64000000 		.4byte	.LFE130
 3333 0485 83030000 		.4byte	.LLST19
 3334 0489 B4040000 		.4byte	0x4b4
 3335 048d 1A       		.uleb128 0x1a
 3336 048e B1000000 		.4byte	.LASF52
 3337 0492 01       		.byte	0x1
 3338 0493 9E       		.byte	0x9e
 3339 0494 3E000000 		.4byte	0x3e
 3340 0498 A3030000 		.4byte	.LLST20
 3341 049c 17       		.uleb128 0x17
 3342 049d 0C000000 		.4byte	.LBB12
ARM GAS  C:\Users\DNIEL~1\AppData\Local\Temp\ccBEW71h.s 			page 60


 3343 04a1 4C000000 		.4byte	.LBE12
 3344 04a5 16       		.uleb128 0x16
 3345 04a6 6900     		.ascii	"i\000"
 3346 04a8 01       		.byte	0x1
 3347 04a9 A8       		.byte	0xa8
 3348 04aa 49000000 		.4byte	0x49
 3349 04ae B6030000 		.4byte	.LLST21
 3350 04b2 00       		.byte	0x0
 3351 04b3 00       		.byte	0x0
 3352 04b4 1C       		.uleb128 0x1c
 3353 04b5 01       		.byte	0x1
 3354 04b6 67020000 		.4byte	.LASF53
 3355 04ba 01       		.byte	0x1
 3356 04bb 7C       		.byte	0x7c
 3357 04bc 01       		.byte	0x1
 3358 04bd 23050000 		.4byte	0x523
 3359 04c1 00000000 		.4byte	.LFB129
 3360 04c5 8C000000 		.4byte	.LFE129
 3361 04c9 1E040000 		.4byte	.LLST22
 3362 04cd 23050000 		.4byte	0x523
 3363 04d1 1A       		.uleb128 0x1a
 3364 04d2 B1000000 		.4byte	.LASF52
 3365 04d6 01       		.byte	0x1
 3366 04d7 7C       		.byte	0x7c
 3367 04d8 3E000000 		.4byte	0x3e
 3368 04dc 3E040000 		.4byte	.LLST23
 3369 04e0 16       		.uleb128 0x16
 3370 04e1 544C00   		.ascii	"TL\000"
 3371 04e4 01       		.byte	0x1
 3372 04e5 7E       		.byte	0x7e
 3373 04e6 3E000000 		.4byte	0x3e
 3374 04ea 51040000 		.4byte	.LLST24
 3375 04ee 16       		.uleb128 0x16
 3376 04ef 544800   		.ascii	"TH\000"
 3377 04f2 01       		.byte	0x1
 3378 04f3 7E       		.byte	0x7e
 3379 04f4 3E000000 		.4byte	0x3e
 3380 04f8 7A040000 		.4byte	.LLST25
 3381 04fc 1E       		.uleb128 0x1e
 3382 04fd AC000000 		.4byte	.LASF54
 3383 0501 01       		.byte	0x1
 3384 0502 7F       		.byte	0x7f
 3385 0503 23050000 		.4byte	0x523
 3386 0507 98040000 		.4byte	.LLST26
 3387 050b 17       		.uleb128 0x17
 3388 050c 40000000 		.4byte	.LBB13
 3389 0510 82000000 		.4byte	.LBE13
 3390 0514 16       		.uleb128 0x16
 3391 0515 6900     		.ascii	"i\000"
 3392 0517 01       		.byte	0x1
 3393 0518 89       		.byte	0x89
 3394 0519 49000000 		.4byte	0x49
 3395 051d D6040000 		.4byte	.LLST27
 3396 0521 00       		.byte	0x0
 3397 0522 00       		.byte	0x0
 3398 0523 03       		.uleb128 0x3
 3399 0524 04       		.byte	0x4
ARM GAS  C:\Users\DNIEL~1\AppData\Local\Temp\ccBEW71h.s 			page 61


 3400 0525 04       		.byte	0x4
 3401 0526 1F000000 		.4byte	.LASF55
 3402 052a 1C       		.uleb128 0x1c
 3403 052b 01       		.byte	0x1
 3404 052c 0D000000 		.4byte	.LASF56
 3405 0530 01       		.byte	0x1
 3406 0531 B1       		.byte	0xb1
 3407 0532 01       		.byte	0x1
 3408 0533 3E000000 		.4byte	0x3e
 3409 0537 00000000 		.4byte	.LFB131
 3410 053b 14040000 		.4byte	.LFE131
 3411 053f 4A050000 		.4byte	.LLST28
 3412 0543 A1050000 		.4byte	0x5a1
 3413 0547 1A       		.uleb128 0x1a
 3414 0548 38000000 		.4byte	.LASF57
 3415 054c 01       		.byte	0x1
 3416 054d B1       		.byte	0xb1
 3417 054e 3E000000 		.4byte	0x3e
 3418 0552 6A050000 		.4byte	.LLST29
 3419 0556 13       		.uleb128 0x13
 3420 0557 696400   		.ascii	"id\000"
 3421 055a 01       		.byte	0x1
 3422 055b B1       		.byte	0xb1
 3423 055c 51010000 		.4byte	0x151
 3424 0560 7D050000 		.4byte	.LLST30
 3425 0564 1E       		.uleb128 0x1e
 3426 0565 E2020000 		.4byte	.LASF58
 3427 0569 01       		.byte	0x1
 3428 056a B3       		.byte	0xb3
 3429 056b 3E000000 		.4byte	0x3e
 3430 056f B3050000 		.4byte	.LLST31
 3431 0573 1E       		.uleb128 0x1e
 3432 0574 11010000 		.4byte	.LASF59
 3433 0578 01       		.byte	0x1
 3434 0579 B3       		.byte	0xb3
 3435 057a 3E000000 		.4byte	0x3e
 3436 057e 92060000 		.4byte	.LLST32
 3437 0582 1E       		.uleb128 0x1e
 3438 0583 9D020000 		.4byte	.LASF60
 3439 0587 01       		.byte	0x1
 3440 0588 B3       		.byte	0xb3
 3441 0589 3E000000 		.4byte	0x3e
 3442 058d 1E070000 		.4byte	.LLST33
 3443 0591 16       		.uleb128 0x16
 3444 0592 62697400 		.ascii	"bit\000"
 3445 0596 01       		.byte	0x1
 3446 0597 B3       		.byte	0xb3
 3447 0598 3E000000 		.4byte	0x3e
 3448 059c 32070000 		.4byte	.LLST34
 3449 05a0 00       		.byte	0x0
 3450 05a1 19       		.uleb128 0x19
 3451 05a2 01       		.byte	0x1
 3452 05a3 2F020000 		.4byte	.LASF61
 3453 05a7 01       		.byte	0x1
 3454 05a8 DF       		.byte	0xdf
 3455 05a9 01       		.byte	0x1
 3456 05aa 00000000 		.4byte	.LFB132
ARM GAS  C:\Users\DNIEL~1\AppData\Local\Temp\ccBEW71h.s 			page 62


 3457 05ae 0E000000 		.4byte	.LFE132
 3458 05b2 52090000 		.4byte	.LLST35
 3459 05b6 D8050000 		.4byte	0x5d8
 3460 05ba 1A       		.uleb128 0x1a
 3461 05bb 38000000 		.4byte	.LASF57
 3462 05bf 01       		.byte	0x1
 3463 05c0 DF       		.byte	0xdf
 3464 05c1 51010000 		.4byte	0x151
 3465 05c5 72090000 		.4byte	.LLST36
 3466 05c9 13       		.uleb128 0x13
 3467 05ca 696400   		.ascii	"id\000"
 3468 05cd 01       		.byte	0x1
 3469 05ce DF       		.byte	0xdf
 3470 05cf 51010000 		.4byte	0x151
 3471 05d3 90090000 		.4byte	.LLST37
 3472 05d7 00       		.byte	0x0
 3473 05d8 20       		.uleb128 0x20
 3474 05d9 01       		.byte	0x1
 3475 05da E6000000 		.4byte	.LASF62
 3476 05de 01       		.byte	0x1
 3477 05df E9       		.byte	0xe9
 3478 05e0 01       		.byte	0x1
 3479 05e1 00000000 		.4byte	.LFB133
 3480 05e5 4C000000 		.4byte	.LFE133
 3481 05e9 02       		.byte	0x2
 3482 05ea 7D       		.byte	0x7d
 3483 05eb 00       		.sleb128 0
 3484 05ec 1A060000 		.4byte	0x61a
 3485 05f0 1A       		.uleb128 0x1a
 3486 05f1 B1000000 		.4byte	.LASF52
 3487 05f5 01       		.byte	0x1
 3488 05f6 E9       		.byte	0xe9
 3489 05f7 3E000000 		.4byte	0x3e
 3490 05fb A3090000 		.4byte	.LLST38
 3491 05ff 21       		.uleb128 0x21
 3492 0600 19020000 		.4byte	.LASF63
 3493 0604 01       		.byte	0x1
 3494 0605 E9       		.byte	0xe9
 3495 0606 51010000 		.4byte	0x151
 3496 060a 01       		.byte	0x1
 3497 060b 51       		.byte	0x51
 3498 060c 16       		.uleb128 0x16
 3499 060d 6900     		.ascii	"i\000"
 3500 060f 01       		.byte	0x1
 3501 0610 ED       		.byte	0xed
 3502 0611 29000000 		.4byte	0x29
 3503 0615 B6090000 		.4byte	.LLST39
 3504 0619 00       		.byte	0x0
 3505 061a 1C       		.uleb128 0x1c
 3506 061b 01       		.byte	0x1
 3507 061c EA020000 		.4byte	.LASF64
 3508 0620 01       		.byte	0x1
 3509 0621 F2       		.byte	0xf2
 3510 0622 01       		.byte	0x1
 3511 0623 3E000000 		.4byte	0x3e
 3512 0627 00000000 		.4byte	.LFB134
 3513 062b 0C010000 		.4byte	.LFE134
ARM GAS  C:\Users\DNIEL~1\AppData\Local\Temp\ccBEW71h.s 			page 63


 3514 062f 120A0000 		.4byte	.LLST40
 3515 0633 60060000 		.4byte	0x660
 3516 0637 16       		.uleb128 0x16
 3517 0638 6900     		.ascii	"i\000"
 3518 063a 01       		.byte	0x1
 3519 063b F4       		.byte	0xf4
 3520 063c 3E000000 		.4byte	0x3e
 3521 0640 3F0A0000 		.4byte	.LLST41
 3522 0644 22       		.uleb128 0x22
 3523 0645 696400   		.ascii	"id\000"
 3524 0648 01       		.byte	0x1
 3525 0649 F5       		.byte	0xf5
 3526 064a 58020000 		.4byte	0x258
 3527 064e 02       		.byte	0x2
 3528 064f 91       		.byte	0x91
 3529 0650 4C       		.sleb128 -52
 3530 0651 14       		.uleb128 0x14
 3531 0652 38000000 		.4byte	.LASF57
 3532 0656 01       		.byte	0x1
 3533 0657 F6       		.byte	0xf6
 3534 0658 3E000000 		.4byte	0x3e
 3535 065c 02       		.byte	0x2
 3536 065d 91       		.byte	0x91
 3537 065e 57       		.sleb128 -41
 3538 065f 00       		.byte	0x0
 3539 0660 23       		.uleb128 0x23
 3540 0661 FA020000 		.4byte	.LASF65
 3541 0665 06       		.byte	0x6
 3542 0666 9806     		.2byte	0x698
 3543 0668 57010000 		.4byte	0x157
 3544 066c 01       		.byte	0x1
 3545 066d 01       		.byte	0x1
 3546 066e 0F       		.uleb128 0xf
 3547 066f 3E000000 		.4byte	0x3e
 3548 0673 84060000 		.4byte	0x684
 3549 0677 10       		.uleb128 0x10
 3550 0678 30000000 		.4byte	0x30
 3551 067c 04       		.byte	0x4
 3552 067d 10       		.uleb128 0x10
 3553 067e 30000000 		.4byte	0x30
 3554 0682 07       		.byte	0x7
 3555 0683 00       		.byte	0x0
 3556 0684 24       		.uleb128 0x24
 3557 0685 68000000 		.4byte	.LASF66
 3558 0689 01       		.byte	0x1
 3559 068a 03       		.byte	0x3
 3560 068b 6E060000 		.4byte	0x66e
 3561 068f 01       		.byte	0x1
 3562 0690 01       		.byte	0x1
 3563 0691 24       		.uleb128 0x24
 3564 0692 26010000 		.4byte	.LASF67
 3565 0696 01       		.byte	0x1
 3566 0697 04       		.byte	0x4
 3567 0698 AD000000 		.4byte	0xad
 3568 069c 01       		.byte	0x1
 3569 069d 01       		.byte	0x1
 3570 069e 23       		.uleb128 0x23
ARM GAS  C:\Users\DNIEL~1\AppData\Local\Temp\ccBEW71h.s 			page 64


 3571 069f FA020000 		.4byte	.LASF65
 3572 06a3 06       		.byte	0x6
 3573 06a4 9806     		.2byte	0x698
 3574 06a6 57010000 		.4byte	0x157
 3575 06aa 01       		.byte	0x1
 3576 06ab 01       		.byte	0x1
 3577 06ac 25       		.uleb128 0x25
 3578 06ad 68000000 		.4byte	.LASF66
 3579 06b1 01       		.byte	0x1
 3580 06b2 03       		.byte	0x3
 3581 06b3 6E060000 		.4byte	0x66e
 3582 06b7 01       		.byte	0x1
 3583 06b8 05       		.byte	0x5
 3584 06b9 03       		.byte	0x3
 3585 06ba 00000000 		.4byte	DS18B20_SERIAL_NUMBER
 3586 06be 25       		.uleb128 0x25
 3587 06bf 26010000 		.4byte	.LASF67
 3588 06c3 01       		.byte	0x1
 3589 06c4 04       		.byte	0x4
 3590 06c5 AD000000 		.4byte	0xad
 3591 06c9 01       		.byte	0x1
 3592 06ca 05       		.byte	0x5
 3593 06cb 03       		.byte	0x3
 3594 06cc 00000000 		.4byte	SensorCount
 3595 06d0 00       		.byte	0x0
 3596              		.section	.debug_abbrev
 3597 0000 01       		.uleb128 0x1
 3598 0001 11       		.uleb128 0x11
 3599 0002 01       		.byte	0x1
 3600 0003 25       		.uleb128 0x25
 3601 0004 0E       		.uleb128 0xe
 3602 0005 13       		.uleb128 0x13
 3603 0006 0B       		.uleb128 0xb
 3604 0007 03       		.uleb128 0x3
 3605 0008 0E       		.uleb128 0xe
 3606 0009 1B       		.uleb128 0x1b
 3607 000a 0E       		.uleb128 0xe
 3608 000b 11       		.uleb128 0x11
 3609 000c 01       		.uleb128 0x1
 3610 000d 52       		.uleb128 0x52
 3611 000e 01       		.uleb128 0x1
 3612 000f 55       		.uleb128 0x55
 3613 0010 06       		.uleb128 0x6
 3614 0011 10       		.uleb128 0x10
 3615 0012 06       		.uleb128 0x6
 3616 0013 00       		.byte	0x0
 3617 0014 00       		.byte	0x0
 3618 0015 02       		.uleb128 0x2
 3619 0016 24       		.uleb128 0x24
 3620 0017 00       		.byte	0x0
 3621 0018 0B       		.uleb128 0xb
 3622 0019 0B       		.uleb128 0xb
 3623 001a 3E       		.uleb128 0x3e
 3624 001b 0B       		.uleb128 0xb
 3625 001c 03       		.uleb128 0x3
 3626 001d 08       		.uleb128 0x8
 3627 001e 00       		.byte	0x0
ARM GAS  C:\Users\DNIEL~1\AppData\Local\Temp\ccBEW71h.s 			page 65


 3628 001f 00       		.byte	0x0
 3629 0020 03       		.uleb128 0x3
 3630 0021 24       		.uleb128 0x24
 3631 0022 00       		.byte	0x0
 3632 0023 0B       		.uleb128 0xb
 3633 0024 0B       		.uleb128 0xb
 3634 0025 3E       		.uleb128 0x3e
 3635 0026 0B       		.uleb128 0xb
 3636 0027 03       		.uleb128 0x3
 3637 0028 0E       		.uleb128 0xe
 3638 0029 00       		.byte	0x0
 3639 002a 00       		.byte	0x0
 3640 002b 04       		.uleb128 0x4
 3641 002c 16       		.uleb128 0x16
 3642 002d 00       		.byte	0x0
 3643 002e 03       		.uleb128 0x3
 3644 002f 0E       		.uleb128 0xe
 3645 0030 3A       		.uleb128 0x3a
 3646 0031 0B       		.uleb128 0xb
 3647 0032 3B       		.uleb128 0x3b
 3648 0033 0B       		.uleb128 0xb
 3649 0034 49       		.uleb128 0x49
 3650 0035 13       		.uleb128 0x13
 3651 0036 00       		.byte	0x0
 3652 0037 00       		.byte	0x0
 3653 0038 05       		.uleb128 0x5
 3654 0039 35       		.uleb128 0x35
 3655 003a 00       		.byte	0x0
 3656 003b 49       		.uleb128 0x49
 3657 003c 13       		.uleb128 0x13
 3658 003d 00       		.byte	0x0
 3659 003e 00       		.byte	0x0
 3660 003f 06       		.uleb128 0x6
 3661 0040 13       		.uleb128 0x13
 3662 0041 01       		.byte	0x1
 3663 0042 0B       		.uleb128 0xb
 3664 0043 0B       		.uleb128 0xb
 3665 0044 3A       		.uleb128 0x3a
 3666 0045 0B       		.uleb128 0xb
 3667 0046 3B       		.uleb128 0x3b
 3668 0047 05       		.uleb128 0x5
 3669 0048 01       		.uleb128 0x1
 3670 0049 13       		.uleb128 0x13
 3671 004a 00       		.byte	0x0
 3672 004b 00       		.byte	0x0
 3673 004c 07       		.uleb128 0x7
 3674 004d 0D       		.uleb128 0xd
 3675 004e 00       		.byte	0x0
 3676 004f 03       		.uleb128 0x3
 3677 0050 0E       		.uleb128 0xe
 3678 0051 3A       		.uleb128 0x3a
 3679 0052 0B       		.uleb128 0xb
 3680 0053 3B       		.uleb128 0x3b
 3681 0054 05       		.uleb128 0x5
 3682 0055 49       		.uleb128 0x49
 3683 0056 13       		.uleb128 0x13
 3684 0057 38       		.uleb128 0x38
ARM GAS  C:\Users\DNIEL~1\AppData\Local\Temp\ccBEW71h.s 			page 66


 3685 0058 0A       		.uleb128 0xa
 3686 0059 00       		.byte	0x0
 3687 005a 00       		.byte	0x0
 3688 005b 08       		.uleb128 0x8
 3689 005c 16       		.uleb128 0x16
 3690 005d 00       		.byte	0x0
 3691 005e 03       		.uleb128 0x3
 3692 005f 0E       		.uleb128 0xe
 3693 0060 3A       		.uleb128 0x3a
 3694 0061 0B       		.uleb128 0xb
 3695 0062 3B       		.uleb128 0x3b
 3696 0063 05       		.uleb128 0x5
 3697 0064 49       		.uleb128 0x49
 3698 0065 13       		.uleb128 0x13
 3699 0066 00       		.byte	0x0
 3700 0067 00       		.byte	0x0
 3701 0068 09       		.uleb128 0x9
 3702 0069 0F       		.uleb128 0xf
 3703 006a 00       		.byte	0x0
 3704 006b 0B       		.uleb128 0xb
 3705 006c 0B       		.uleb128 0xb
 3706 006d 49       		.uleb128 0x49
 3707 006e 13       		.uleb128 0x13
 3708 006f 00       		.byte	0x0
 3709 0070 00       		.byte	0x0
 3710 0071 0A       		.uleb128 0xa
 3711 0072 13       		.uleb128 0x13
 3712 0073 01       		.byte	0x1
 3713 0074 0B       		.uleb128 0xb
 3714 0075 0B       		.uleb128 0xb
 3715 0076 3A       		.uleb128 0x3a
 3716 0077 0B       		.uleb128 0xb
 3717 0078 3B       		.uleb128 0x3b
 3718 0079 0B       		.uleb128 0xb
 3719 007a 01       		.uleb128 0x1
 3720 007b 13       		.uleb128 0x13
 3721 007c 00       		.byte	0x0
 3722 007d 00       		.byte	0x0
 3723 007e 0B       		.uleb128 0xb
 3724 007f 0D       		.uleb128 0xd
 3725 0080 00       		.byte	0x0
 3726 0081 03       		.uleb128 0x3
 3727 0082 08       		.uleb128 0x8
 3728 0083 3A       		.uleb128 0x3a
 3729 0084 0B       		.uleb128 0xb
 3730 0085 3B       		.uleb128 0x3b
 3731 0086 0B       		.uleb128 0xb
 3732 0087 49       		.uleb128 0x49
 3733 0088 13       		.uleb128 0x13
 3734 0089 38       		.uleb128 0x38
 3735 008a 0A       		.uleb128 0xa
 3736 008b 00       		.byte	0x0
 3737 008c 00       		.byte	0x0
 3738 008d 0C       		.uleb128 0xc
 3739 008e 0D       		.uleb128 0xd
 3740 008f 00       		.byte	0x0
 3741 0090 03       		.uleb128 0x3
ARM GAS  C:\Users\DNIEL~1\AppData\Local\Temp\ccBEW71h.s 			page 67


 3742 0091 0E       		.uleb128 0xe
 3743 0092 3A       		.uleb128 0x3a
 3744 0093 0B       		.uleb128 0xb
 3745 0094 3B       		.uleb128 0x3b
 3746 0095 0B       		.uleb128 0xb
 3747 0096 49       		.uleb128 0x49
 3748 0097 13       		.uleb128 0x13
 3749 0098 38       		.uleb128 0x38
 3750 0099 0A       		.uleb128 0xa
 3751 009a 00       		.byte	0x0
 3752 009b 00       		.byte	0x0
 3753 009c 0D       		.uleb128 0xd
 3754 009d 17       		.uleb128 0x17
 3755 009e 01       		.byte	0x1
 3756 009f 0B       		.uleb128 0xb
 3757 00a0 0B       		.uleb128 0xb
 3758 00a1 3A       		.uleb128 0x3a
 3759 00a2 0B       		.uleb128 0xb
 3760 00a3 3B       		.uleb128 0x3b
 3761 00a4 0B       		.uleb128 0xb
 3762 00a5 01       		.uleb128 0x1
 3763 00a6 13       		.uleb128 0x13
 3764 00a7 00       		.byte	0x0
 3765 00a8 00       		.byte	0x0
 3766 00a9 0E       		.uleb128 0xe
 3767 00aa 0D       		.uleb128 0xd
 3768 00ab 00       		.byte	0x0
 3769 00ac 03       		.uleb128 0x3
 3770 00ad 08       		.uleb128 0x8
 3771 00ae 3A       		.uleb128 0x3a
 3772 00af 0B       		.uleb128 0xb
 3773 00b0 3B       		.uleb128 0x3b
 3774 00b1 0B       		.uleb128 0xb
 3775 00b2 49       		.uleb128 0x49
 3776 00b3 13       		.uleb128 0x13
 3777 00b4 00       		.byte	0x0
 3778 00b5 00       		.byte	0x0
 3779 00b6 0F       		.uleb128 0xf
 3780 00b7 01       		.uleb128 0x1
 3781 00b8 01       		.byte	0x1
 3782 00b9 49       		.uleb128 0x49
 3783 00ba 13       		.uleb128 0x13
 3784 00bb 01       		.uleb128 0x1
 3785 00bc 13       		.uleb128 0x13
 3786 00bd 00       		.byte	0x0
 3787 00be 00       		.byte	0x0
 3788 00bf 10       		.uleb128 0x10
 3789 00c0 21       		.uleb128 0x21
 3790 00c1 00       		.byte	0x0
 3791 00c2 49       		.uleb128 0x49
 3792 00c3 13       		.uleb128 0x13
 3793 00c4 2F       		.uleb128 0x2f
 3794 00c5 0B       		.uleb128 0xb
 3795 00c6 00       		.byte	0x0
 3796 00c7 00       		.byte	0x0
 3797 00c8 11       		.uleb128 0x11
 3798 00c9 2E       		.uleb128 0x2e
ARM GAS  C:\Users\DNIEL~1\AppData\Local\Temp\ccBEW71h.s 			page 68


 3799 00ca 00       		.byte	0x0
 3800 00cb 3F       		.uleb128 0x3f
 3801 00cc 0C       		.uleb128 0xc
 3802 00cd 03       		.uleb128 0x3
 3803 00ce 0E       		.uleb128 0xe
 3804 00cf 3A       		.uleb128 0x3a
 3805 00d0 0B       		.uleb128 0xb
 3806 00d1 3B       		.uleb128 0x3b
 3807 00d2 0B       		.uleb128 0xb
 3808 00d3 27       		.uleb128 0x27
 3809 00d4 0C       		.uleb128 0xc
 3810 00d5 49       		.uleb128 0x49
 3811 00d6 13       		.uleb128 0x13
 3812 00d7 20       		.uleb128 0x20
 3813 00d8 0B       		.uleb128 0xb
 3814 00d9 00       		.byte	0x0
 3815 00da 00       		.byte	0x0
 3816 00db 12       		.uleb128 0x12
 3817 00dc 2E       		.uleb128 0x2e
 3818 00dd 01       		.byte	0x1
 3819 00de 03       		.uleb128 0x3
 3820 00df 0E       		.uleb128 0xe
 3821 00e0 3A       		.uleb128 0x3a
 3822 00e1 0B       		.uleb128 0xb
 3823 00e2 3B       		.uleb128 0x3b
 3824 00e3 0B       		.uleb128 0xb
 3825 00e4 27       		.uleb128 0x27
 3826 00e5 0C       		.uleb128 0xc
 3827 00e6 11       		.uleb128 0x11
 3828 00e7 01       		.uleb128 0x1
 3829 00e8 12       		.uleb128 0x12
 3830 00e9 01       		.uleb128 0x1
 3831 00ea 40       		.uleb128 0x40
 3832 00eb 06       		.uleb128 0x6
 3833 00ec 01       		.uleb128 0x1
 3834 00ed 13       		.uleb128 0x13
 3835 00ee 00       		.byte	0x0
 3836 00ef 00       		.byte	0x0
 3837 00f0 13       		.uleb128 0x13
 3838 00f1 05       		.uleb128 0x5
 3839 00f2 00       		.byte	0x0
 3840 00f3 03       		.uleb128 0x3
 3841 00f4 08       		.uleb128 0x8
 3842 00f5 3A       		.uleb128 0x3a
 3843 00f6 0B       		.uleb128 0xb
 3844 00f7 3B       		.uleb128 0x3b
 3845 00f8 0B       		.uleb128 0xb
 3846 00f9 49       		.uleb128 0x49
 3847 00fa 13       		.uleb128 0x13
 3848 00fb 02       		.uleb128 0x2
 3849 00fc 06       		.uleb128 0x6
 3850 00fd 00       		.byte	0x0
 3851 00fe 00       		.byte	0x0
 3852 00ff 14       		.uleb128 0x14
 3853 0100 34       		.uleb128 0x34
 3854 0101 00       		.byte	0x0
 3855 0102 03       		.uleb128 0x3
ARM GAS  C:\Users\DNIEL~1\AppData\Local\Temp\ccBEW71h.s 			page 69


 3856 0103 0E       		.uleb128 0xe
 3857 0104 3A       		.uleb128 0x3a
 3858 0105 0B       		.uleb128 0xb
 3859 0106 3B       		.uleb128 0x3b
 3860 0107 0B       		.uleb128 0xb
 3861 0108 49       		.uleb128 0x49
 3862 0109 13       		.uleb128 0x13
 3863 010a 02       		.uleb128 0x2
 3864 010b 0A       		.uleb128 0xa
 3865 010c 00       		.byte	0x0
 3866 010d 00       		.byte	0x0
 3867 010e 15       		.uleb128 0x15
 3868 010f 0B       		.uleb128 0xb
 3869 0110 01       		.byte	0x1
 3870 0111 11       		.uleb128 0x11
 3871 0112 01       		.uleb128 0x1
 3872 0113 12       		.uleb128 0x12
 3873 0114 01       		.uleb128 0x1
 3874 0115 01       		.uleb128 0x1
 3875 0116 13       		.uleb128 0x13
 3876 0117 00       		.byte	0x0
 3877 0118 00       		.byte	0x0
 3878 0119 16       		.uleb128 0x16
 3879 011a 34       		.uleb128 0x34
 3880 011b 00       		.byte	0x0
 3881 011c 03       		.uleb128 0x3
 3882 011d 08       		.uleb128 0x8
 3883 011e 3A       		.uleb128 0x3a
 3884 011f 0B       		.uleb128 0xb
 3885 0120 3B       		.uleb128 0x3b
 3886 0121 0B       		.uleb128 0xb
 3887 0122 49       		.uleb128 0x49
 3888 0123 13       		.uleb128 0x13
 3889 0124 02       		.uleb128 0x2
 3890 0125 06       		.uleb128 0x6
 3891 0126 00       		.byte	0x0
 3892 0127 00       		.byte	0x0
 3893 0128 17       		.uleb128 0x17
 3894 0129 0B       		.uleb128 0xb
 3895 012a 01       		.byte	0x1
 3896 012b 11       		.uleb128 0x11
 3897 012c 01       		.uleb128 0x1
 3898 012d 12       		.uleb128 0x12
 3899 012e 01       		.uleb128 0x1
 3900 012f 00       		.byte	0x0
 3901 0130 00       		.byte	0x0
 3902 0131 18       		.uleb128 0x18
 3903 0132 2E       		.uleb128 0x2e
 3904 0133 00       		.byte	0x0
 3905 0134 3F       		.uleb128 0x3f
 3906 0135 0C       		.uleb128 0xc
 3907 0136 03       		.uleb128 0x3
 3908 0137 0E       		.uleb128 0xe
 3909 0138 3A       		.uleb128 0x3a
 3910 0139 0B       		.uleb128 0xb
 3911 013a 3B       		.uleb128 0x3b
 3912 013b 0B       		.uleb128 0xb
ARM GAS  C:\Users\DNIEL~1\AppData\Local\Temp\ccBEW71h.s 			page 70


 3913 013c 27       		.uleb128 0x27
 3914 013d 0C       		.uleb128 0xc
 3915 013e 11       		.uleb128 0x11
 3916 013f 01       		.uleb128 0x1
 3917 0140 12       		.uleb128 0x12
 3918 0141 01       		.uleb128 0x1
 3919 0142 40       		.uleb128 0x40
 3920 0143 0A       		.uleb128 0xa
 3921 0144 00       		.byte	0x0
 3922 0145 00       		.byte	0x0
 3923 0146 19       		.uleb128 0x19
 3924 0147 2E       		.uleb128 0x2e
 3925 0148 01       		.byte	0x1
 3926 0149 3F       		.uleb128 0x3f
 3927 014a 0C       		.uleb128 0xc
 3928 014b 03       		.uleb128 0x3
 3929 014c 0E       		.uleb128 0xe
 3930 014d 3A       		.uleb128 0x3a
 3931 014e 0B       		.uleb128 0xb
 3932 014f 3B       		.uleb128 0x3b
 3933 0150 0B       		.uleb128 0xb
 3934 0151 27       		.uleb128 0x27
 3935 0152 0C       		.uleb128 0xc
 3936 0153 11       		.uleb128 0x11
 3937 0154 01       		.uleb128 0x1
 3938 0155 12       		.uleb128 0x12
 3939 0156 01       		.uleb128 0x1
 3940 0157 40       		.uleb128 0x40
 3941 0158 06       		.uleb128 0x6
 3942 0159 01       		.uleb128 0x1
 3943 015a 13       		.uleb128 0x13
 3944 015b 00       		.byte	0x0
 3945 015c 00       		.byte	0x0
 3946 015d 1A       		.uleb128 0x1a
 3947 015e 05       		.uleb128 0x5
 3948 015f 00       		.byte	0x0
 3949 0160 03       		.uleb128 0x3
 3950 0161 0E       		.uleb128 0xe
 3951 0162 3A       		.uleb128 0x3a
 3952 0163 0B       		.uleb128 0xb
 3953 0164 3B       		.uleb128 0x3b
 3954 0165 0B       		.uleb128 0xb
 3955 0166 49       		.uleb128 0x49
 3956 0167 13       		.uleb128 0x13
 3957 0168 02       		.uleb128 0x2
 3958 0169 06       		.uleb128 0x6
 3959 016a 00       		.byte	0x0
 3960 016b 00       		.byte	0x0
 3961 016c 1B       		.uleb128 0x1b
 3962 016d 2E       		.uleb128 0x2e
 3963 016e 00       		.byte	0x0
 3964 016f 31       		.uleb128 0x31
 3965 0170 13       		.uleb128 0x13
 3966 0171 11       		.uleb128 0x11
 3967 0172 01       		.uleb128 0x1
 3968 0173 12       		.uleb128 0x12
 3969 0174 01       		.uleb128 0x1
ARM GAS  C:\Users\DNIEL~1\AppData\Local\Temp\ccBEW71h.s 			page 71


 3970 0175 40       		.uleb128 0x40
 3971 0176 0A       		.uleb128 0xa
 3972 0177 00       		.byte	0x0
 3973 0178 00       		.byte	0x0
 3974 0179 1C       		.uleb128 0x1c
 3975 017a 2E       		.uleb128 0x2e
 3976 017b 01       		.byte	0x1
 3977 017c 3F       		.uleb128 0x3f
 3978 017d 0C       		.uleb128 0xc
 3979 017e 03       		.uleb128 0x3
 3980 017f 0E       		.uleb128 0xe
 3981 0180 3A       		.uleb128 0x3a
 3982 0181 0B       		.uleb128 0xb
 3983 0182 3B       		.uleb128 0x3b
 3984 0183 0B       		.uleb128 0xb
 3985 0184 27       		.uleb128 0x27
 3986 0185 0C       		.uleb128 0xc
 3987 0186 49       		.uleb128 0x49
 3988 0187 13       		.uleb128 0x13
 3989 0188 11       		.uleb128 0x11
 3990 0189 01       		.uleb128 0x1
 3991 018a 12       		.uleb128 0x12
 3992 018b 01       		.uleb128 0x1
 3993 018c 40       		.uleb128 0x40
 3994 018d 06       		.uleb128 0x6
 3995 018e 01       		.uleb128 0x1
 3996 018f 13       		.uleb128 0x13
 3997 0190 00       		.byte	0x0
 3998 0191 00       		.byte	0x0
 3999 0192 1D       		.uleb128 0x1d
 4000 0193 1D       		.uleb128 0x1d
 4001 0194 00       		.byte	0x0
 4002 0195 31       		.uleb128 0x31
 4003 0196 13       		.uleb128 0x13
 4004 0197 11       		.uleb128 0x11
 4005 0198 01       		.uleb128 0x1
 4006 0199 12       		.uleb128 0x12
 4007 019a 01       		.uleb128 0x1
 4008 019b 58       		.uleb128 0x58
 4009 019c 0B       		.uleb128 0xb
 4010 019d 59       		.uleb128 0x59
 4011 019e 0B       		.uleb128 0xb
 4012 019f 00       		.byte	0x0
 4013 01a0 00       		.byte	0x0
 4014 01a1 1E       		.uleb128 0x1e
 4015 01a2 34       		.uleb128 0x34
 4016 01a3 00       		.byte	0x0
 4017 01a4 03       		.uleb128 0x3
 4018 01a5 0E       		.uleb128 0xe
 4019 01a6 3A       		.uleb128 0x3a
 4020 01a7 0B       		.uleb128 0xb
 4021 01a8 3B       		.uleb128 0x3b
 4022 01a9 0B       		.uleb128 0xb
 4023 01aa 49       		.uleb128 0x49
 4024 01ab 13       		.uleb128 0x13
 4025 01ac 02       		.uleb128 0x2
 4026 01ad 06       		.uleb128 0x6
ARM GAS  C:\Users\DNIEL~1\AppData\Local\Temp\ccBEW71h.s 			page 72


 4027 01ae 00       		.byte	0x0
 4028 01af 00       		.byte	0x0
 4029 01b0 1F       		.uleb128 0x1f
 4030 01b1 2E       		.uleb128 0x2e
 4031 01b2 00       		.byte	0x0
 4032 01b3 3F       		.uleb128 0x3f
 4033 01b4 0C       		.uleb128 0xc
 4034 01b5 03       		.uleb128 0x3
 4035 01b6 0E       		.uleb128 0xe
 4036 01b7 3A       		.uleb128 0x3a
 4037 01b8 0B       		.uleb128 0xb
 4038 01b9 3B       		.uleb128 0x3b
 4039 01ba 0B       		.uleb128 0xb
 4040 01bb 27       		.uleb128 0x27
 4041 01bc 0C       		.uleb128 0xc
 4042 01bd 11       		.uleb128 0x11
 4043 01be 01       		.uleb128 0x1
 4044 01bf 12       		.uleb128 0x12
 4045 01c0 01       		.uleb128 0x1
 4046 01c1 40       		.uleb128 0x40
 4047 01c2 06       		.uleb128 0x6
 4048 01c3 00       		.byte	0x0
 4049 01c4 00       		.byte	0x0
 4050 01c5 20       		.uleb128 0x20
 4051 01c6 2E       		.uleb128 0x2e
 4052 01c7 01       		.byte	0x1
 4053 01c8 3F       		.uleb128 0x3f
 4054 01c9 0C       		.uleb128 0xc
 4055 01ca 03       		.uleb128 0x3
 4056 01cb 0E       		.uleb128 0xe
 4057 01cc 3A       		.uleb128 0x3a
 4058 01cd 0B       		.uleb128 0xb
 4059 01ce 3B       		.uleb128 0x3b
 4060 01cf 0B       		.uleb128 0xb
 4061 01d0 27       		.uleb128 0x27
 4062 01d1 0C       		.uleb128 0xc
 4063 01d2 11       		.uleb128 0x11
 4064 01d3 01       		.uleb128 0x1
 4065 01d4 12       		.uleb128 0x12
 4066 01d5 01       		.uleb128 0x1
 4067 01d6 40       		.uleb128 0x40
 4068 01d7 0A       		.uleb128 0xa
 4069 01d8 01       		.uleb128 0x1
 4070 01d9 13       		.uleb128 0x13
 4071 01da 00       		.byte	0x0
 4072 01db 00       		.byte	0x0
 4073 01dc 21       		.uleb128 0x21
 4074 01dd 05       		.uleb128 0x5
 4075 01de 00       		.byte	0x0
 4076 01df 03       		.uleb128 0x3
 4077 01e0 0E       		.uleb128 0xe
 4078 01e1 3A       		.uleb128 0x3a
 4079 01e2 0B       		.uleb128 0xb
 4080 01e3 3B       		.uleb128 0x3b
 4081 01e4 0B       		.uleb128 0xb
 4082 01e5 49       		.uleb128 0x49
 4083 01e6 13       		.uleb128 0x13
ARM GAS  C:\Users\DNIEL~1\AppData\Local\Temp\ccBEW71h.s 			page 73


 4084 01e7 02       		.uleb128 0x2
 4085 01e8 0A       		.uleb128 0xa
 4086 01e9 00       		.byte	0x0
 4087 01ea 00       		.byte	0x0
 4088 01eb 22       		.uleb128 0x22
 4089 01ec 34       		.uleb128 0x34
 4090 01ed 00       		.byte	0x0
 4091 01ee 03       		.uleb128 0x3
 4092 01ef 08       		.uleb128 0x8
 4093 01f0 3A       		.uleb128 0x3a
 4094 01f1 0B       		.uleb128 0xb
 4095 01f2 3B       		.uleb128 0x3b
 4096 01f3 0B       		.uleb128 0xb
 4097 01f4 49       		.uleb128 0x49
 4098 01f5 13       		.uleb128 0x13
 4099 01f6 02       		.uleb128 0x2
 4100 01f7 0A       		.uleb128 0xa
 4101 01f8 00       		.byte	0x0
 4102 01f9 00       		.byte	0x0
 4103 01fa 23       		.uleb128 0x23
 4104 01fb 34       		.uleb128 0x34
 4105 01fc 00       		.byte	0x0
 4106 01fd 03       		.uleb128 0x3
 4107 01fe 0E       		.uleb128 0xe
 4108 01ff 3A       		.uleb128 0x3a
 4109 0200 0B       		.uleb128 0xb
 4110 0201 3B       		.uleb128 0x3b
 4111 0202 05       		.uleb128 0x5
 4112 0203 49       		.uleb128 0x49
 4113 0204 13       		.uleb128 0x13
 4114 0205 3F       		.uleb128 0x3f
 4115 0206 0C       		.uleb128 0xc
 4116 0207 3C       		.uleb128 0x3c
 4117 0208 0C       		.uleb128 0xc
 4118 0209 00       		.byte	0x0
 4119 020a 00       		.byte	0x0
 4120 020b 24       		.uleb128 0x24
 4121 020c 34       		.uleb128 0x34
 4122 020d 00       		.byte	0x0
 4123 020e 03       		.uleb128 0x3
 4124 020f 0E       		.uleb128 0xe
 4125 0210 3A       		.uleb128 0x3a
 4126 0211 0B       		.uleb128 0xb
 4127 0212 3B       		.uleb128 0x3b
 4128 0213 0B       		.uleb128 0xb
 4129 0214 49       		.uleb128 0x49
 4130 0215 13       		.uleb128 0x13
 4131 0216 3F       		.uleb128 0x3f
 4132 0217 0C       		.uleb128 0xc
 4133 0218 3C       		.uleb128 0x3c
 4134 0219 0C       		.uleb128 0xc
 4135 021a 00       		.byte	0x0
 4136 021b 00       		.byte	0x0
 4137 021c 25       		.uleb128 0x25
 4138 021d 34       		.uleb128 0x34
 4139 021e 00       		.byte	0x0
 4140 021f 03       		.uleb128 0x3
ARM GAS  C:\Users\DNIEL~1\AppData\Local\Temp\ccBEW71h.s 			page 74


 4141 0220 0E       		.uleb128 0xe
 4142 0221 3A       		.uleb128 0x3a
 4143 0222 0B       		.uleb128 0xb
 4144 0223 3B       		.uleb128 0x3b
 4145 0224 0B       		.uleb128 0xb
 4146 0225 49       		.uleb128 0x49
 4147 0226 13       		.uleb128 0x13
 4148 0227 3F       		.uleb128 0x3f
 4149 0228 0C       		.uleb128 0xc
 4150 0229 02       		.uleb128 0x2
 4151 022a 0A       		.uleb128 0xa
 4152 022b 00       		.byte	0x0
 4153 022c 00       		.byte	0x0
 4154 022d 00       		.byte	0x0
 4155              		.section	.debug_pubnames,"",%progbits
 4156 0000 91010000 		.4byte	0x191
 4157 0004 0200     		.2byte	0x2
 4158 0006 00000000 		.4byte	.Ldebug_info0
 4159 000a D1060000 		.4byte	0x6d1
 4160 000e ED020000 		.4byte	0x2ed
 4161 0012 4F6E6557 		.ascii	"OneWire_DataPinInput\000"
 4161      6972655F 
 4161      44617461 
 4161      50696E49 
 4161      6E707574 
 4162 0027 01030000 		.4byte	0x301
 4163 002b 4F6E6557 		.ascii	"OneWire_DataPinOutput\000"
 4163      6972655F 
 4163      44617461 
 4163      50696E4F 
 4163      75747075 
 4164 0041 15030000 		.4byte	0x315
 4165 0045 4F6E6557 		.ascii	"OneWire_SetBusLine\000"
 4165      6972655F 
 4165      53657442 
 4165      75734C69 
 4165      6E6500
 4166 0058 3E030000 		.4byte	0x33e
 4167 005c 4F6E6557 		.ascii	"OneWire_GetBusLine\000"
 4167      6972655F 
 4167      47657442 
 4167      75734C69 
 4167      6E6500
 4168 006f 4E030000 		.4byte	0x34e
 4169 0073 4F6E6557 		.ascii	"OneWire_ReadBit\000"
 4169      6972655F 
 4169      52656164 
 4169      42697400 
 4170 0083 8A030000 		.4byte	0x38a
 4171 0087 4F6E6557 		.ascii	"OneWire_WriteBit\000"
 4171      6972655F 
 4171      57726974 
 4171      65426974 
 4171      00
 4172 0098 B3030000 		.4byte	0x3b3
 4173 009c 4F6E6557 		.ascii	"OneWire_WriteByte\000"
 4173      6972655F 
ARM GAS  C:\Users\DNIEL~1\AppData\Local\Temp\ccBEW71h.s 			page 75


 4173      57726974 
 4173      65427974 
 4173      6500
 4174 00ae F8030000 		.4byte	0x3f8
 4175 00b2 4F6E6557 		.ascii	"OneWire_ReadByte\000"
 4175      6972655F 
 4175      52656164 
 4175      42797465 
 4175      00
 4176 00c3 32040000 		.4byte	0x432
 4177 00c7 4F6E6557 		.ascii	"OneWire_Reset\000"
 4177      6972655F 
 4177      52657365 
 4177      7400
 4178 00d5 5F040000 		.4byte	0x45f
 4179 00d9 44533138 		.ascii	"DS18B20_Init\000"
 4179      4232305F 
 4179      496E6974 
 4179      00
 4180 00e6 74040000 		.4byte	0x474
 4181 00ea 44533138 		.ascii	"DS18B20_StartConversion\000"
 4181      4232305F 
 4181      53746172 
 4181      74436F6E 
 4181      76657273 
 4182 0102 B4040000 		.4byte	0x4b4
 4183 0106 44533138 		.ascii	"DS18B20_GetTemp\000"
 4183      4232305F 
 4183      47657454 
 4183      656D7000 
 4184 0116 2A050000 		.4byte	0x52a
 4185 011a 4F6E6557 		.ascii	"OneWire_SearchROM\000"
 4185      6972655F 
 4185      53656172 
 4185      6368524F 
 4185      4D00
 4186 012c A1050000 		.4byte	0x5a1
 4187 0130 4F6E6557 		.ascii	"OneWire_FindROM\000"
 4187      6972655F 
 4187      46696E64 
 4187      524F4D00 
 4188 0140 D8050000 		.4byte	0x5d8
 4189 0144 44533138 		.ascii	"DS18B20_GetROM\000"
 4189      4232305F 
 4189      47657452 
 4189      4F4D00
 4190 0153 1A060000 		.4byte	0x61a
 4191 0157 44533138 		.ascii	"DS18B20_ScanBus\000"
 4191      4232305F 
 4191      5363616E 
 4191      42757300 
 4192 0167 AC060000 		.4byte	0x6ac
 4193 016b 44533138 		.ascii	"DS18B20_SERIAL_NUMBER\000"
 4193      4232305F 
 4193      53455249 
 4193      414C5F4E 
 4193      554D4245 
ARM GAS  C:\Users\DNIEL~1\AppData\Local\Temp\ccBEW71h.s 			page 76


 4194 0181 BE060000 		.4byte	0x6be
 4195 0185 53656E73 		.ascii	"SensorCount\000"
 4195      6F72436F 
 4195      756E7400 
 4196 0191 00000000 		.4byte	0x0
 4197              		.section	.debug_pubtypes,"",%progbits
 4198 0000 89000000 		.4byte	0x89
 4199 0004 0200     		.2byte	0x2
 4200 0006 00000000 		.4byte	.Ldebug_info0
 4201 000a D1060000 		.4byte	0x6d1
 4202 000e 3E000000 		.4byte	0x3e
 4203 0012 75696E74 		.ascii	"uint8_t\000"
 4203      385F7400 
 4204 001a 50000000 		.4byte	0x50
 4205 001e 696E7431 		.ascii	"int16_t\000"
 4205      365F7400 
 4206 0026 62000000 		.4byte	0x62
 4207 002a 75696E74 		.ascii	"uint16_t\000"
 4207      31365F74 
 4207      00
 4208 0033 74000000 		.4byte	0x74
 4209 0037 696E7433 		.ascii	"int32_t\000"
 4209      325F7400 
 4210 003f 86000000 		.4byte	0x86
 4211 0043 75696E74 		.ascii	"uint32_t\000"
 4211      33325F74 
 4211      00
 4212 004c 3E010000 		.4byte	0x13e
 4213 0050 434D785F 		.ascii	"CMx_DWT\000"
 4213      44575400 
 4214 0058 5C010000 		.4byte	0x15c
 4215 005c 68616C72 		.ascii	"halrtcnt_t\000"
 4215      74636E74 
 4215      5F7400
 4216 0067 42020000 		.4byte	0x242
 4217 006b 4750494F 		.ascii	"GPIO_TypeDef\000"
 4217      5F547970 
 4217      65446566 
 4217      00
 4218 0078 4D020000 		.4byte	0x24d
 4219 007c 696F706F 		.ascii	"ioportmask_t\000"
 4219      72746D61 
 4219      736B5F74 
 4219      00
 4220 0089 00000000 		.4byte	0x0
 4221              		.section	.debug_aranges,"",%progbits
 4222 0000 9C000000 		.4byte	0x9c
 4223 0004 0200     		.2byte	0x2
 4224 0006 00000000 		.4byte	.Ldebug_info0
 4225 000a 04       		.byte	0x4
 4226 000b 00       		.byte	0x0
 4227 000c 0000     		.2byte	0x0
 4228 000e 0000     		.2byte	0x0
 4229 0010 00000000 		.4byte	.LFB122
 4230 0014 30000000 		.4byte	.LFE122-.LFB122
 4231 0018 00000000 		.4byte	.LFB118
 4232 001c 10000000 		.4byte	.LFE118-.LFB118
ARM GAS  C:\Users\DNIEL~1\AppData\Local\Temp\ccBEW71h.s 			page 77


 4233 0020 00000000 		.4byte	.LFB119
 4234 0024 10000000 		.4byte	.LFE119-.LFB119
 4235 0028 00000000 		.4byte	.LFB120
 4236 002c 24000000 		.4byte	.LFE120-.LFB120
 4237 0030 00000000 		.4byte	.LFB121
 4238 0034 10000000 		.4byte	.LFE121-.LFB121
 4239 0038 00000000 		.4byte	.LFB123
 4240 003c 30000000 		.4byte	.LFE123-.LFB123
 4241 0040 00000000 		.4byte	.LFB124
 4242 0044 34000000 		.4byte	.LFE124-.LFB124
 4243 0048 00000000 		.4byte	.LFB125
 4244 004c 52000000 		.4byte	.LFE125-.LFB125
 4245 0050 00000000 		.4byte	.LFB126
 4246 0054 76000000 		.4byte	.LFE126-.LFB126
 4247 0058 00000000 		.4byte	.LFB127
 4248 005c 3C000000 		.4byte	.LFE127-.LFB127
 4249 0060 00000000 		.4byte	.LFB128
 4250 0064 1C000000 		.4byte	.LFE128-.LFB128
 4251 0068 00000000 		.4byte	.LFB130
 4252 006c 64000000 		.4byte	.LFE130-.LFB130
 4253 0070 00000000 		.4byte	.LFB129
 4254 0074 8C000000 		.4byte	.LFE129-.LFB129
 4255 0078 00000000 		.4byte	.LFB131
 4256 007c 14040000 		.4byte	.LFE131-.LFB131
 4257 0080 00000000 		.4byte	.LFB132
 4258 0084 0E000000 		.4byte	.LFE132-.LFB132
 4259 0088 00000000 		.4byte	.LFB133
 4260 008c 4C000000 		.4byte	.LFE133-.LFB133
 4261 0090 00000000 		.4byte	.LFB134
 4262 0094 0C010000 		.4byte	.LFE134-.LFB134
 4263 0098 00000000 		.4byte	0x0
 4264 009c 00000000 		.4byte	0x0
 4265              		.section	.debug_ranges,"",%progbits
 4266              	.Ldebug_ranges0:
 4267 0000 00000000 		.4byte	.LFB122
 4268 0004 30000000 		.4byte	.LFE122
 4269 0008 00000000 		.4byte	.LFB118
 4270 000c 10000000 		.4byte	.LFE118
 4271 0010 00000000 		.4byte	.LFB119
 4272 0014 10000000 		.4byte	.LFE119
 4273 0018 00000000 		.4byte	.LFB120
 4274 001c 24000000 		.4byte	.LFE120
 4275 0020 00000000 		.4byte	.LFB121
 4276 0024 10000000 		.4byte	.LFE121
 4277 0028 00000000 		.4byte	.LFB123
 4278 002c 30000000 		.4byte	.LFE123
 4279 0030 00000000 		.4byte	.LFB124
 4280 0034 34000000 		.4byte	.LFE124
 4281 0038 00000000 		.4byte	.LFB125
 4282 003c 52000000 		.4byte	.LFE125
 4283 0040 00000000 		.4byte	.LFB126
 4284 0044 76000000 		.4byte	.LFE126
 4285 0048 00000000 		.4byte	.LFB127
 4286 004c 3C000000 		.4byte	.LFE127
 4287 0050 00000000 		.4byte	.LFB128
 4288 0054 1C000000 		.4byte	.LFE128
 4289 0058 00000000 		.4byte	.LFB130
ARM GAS  C:\Users\DNIEL~1\AppData\Local\Temp\ccBEW71h.s 			page 78


 4290 005c 64000000 		.4byte	.LFE130
 4291 0060 00000000 		.4byte	.LFB129
 4292 0064 8C000000 		.4byte	.LFE129
 4293 0068 00000000 		.4byte	.LFB131
 4294 006c 14040000 		.4byte	.LFE131
 4295 0070 00000000 		.4byte	.LFB132
 4296 0074 0E000000 		.4byte	.LFE132
 4297 0078 00000000 		.4byte	.LFB133
 4298 007c 4C000000 		.4byte	.LFE133
 4299 0080 00000000 		.4byte	.LFB134
 4300 0084 0C010000 		.4byte	.LFE134
 4301 0088 00000000 		.4byte	0x0
 4302 008c 00000000 		.4byte	0x0
 4303              		.section	.debug_str,"MS",%progbits,1
 4304              	.LASF35:
 4305 0000 4750494F 		.ascii	"GPIO_TypeDef\000"
 4305      5F547970 
 4305      65446566 
 4305      00
 4306              	.LASF56:
 4307 000d 4F6E6557 		.ascii	"OneWire_SearchROM\000"
 4307      6972655F 
 4307      53656172 
 4307      6368524F 
 4307      4D00
 4308              	.LASF55:
 4309 001f 666C6F61 		.ascii	"float\000"
 4309      7400
 4310              	.LASF71:
 4311 0025 4F6E6557 		.ascii	"OneWire_GetBusLine\000"
 4311      6972655F 
 4311      47657442 
 4311      75734C69 
 4311      6E6500
 4312              	.LASF57:
 4313 0038 64696666 		.ascii	"diff\000"
 4313      00
 4314              	.LASF41:
 4315 003d 73746174 		.ascii	"state\000"
 4315      6500
 4316              	.LASF5:
 4317 0043 73686F72 		.ascii	"short int\000"
 4317      7420696E 
 4317      7400
 4318              	.LASF22:
 4319 004d 50435352 		.ascii	"PCSR\000"
 4319      00
 4320              	.LASF21:
 4321 0052 464F4C44 		.ascii	"FOLDCNT\000"
 4321      434E5400 
 4322              	.LASF33:
 4323 005a 4146524C 		.ascii	"AFRL\000"
 4323      00
 4324              	.LASF72:
 4325 005f 44656C61 		.ascii	"Delay_us\000"
 4325      795F7573 
 4325      00
ARM GAS  C:\Users\DNIEL~1\AppData\Local\Temp\ccBEW71h.s 			page 79


 4326              	.LASF66:
 4327 0068 44533138 		.ascii	"DS18B20_SERIAL_NUMBER\000"
 4327      4232305F 
 4327      53455249 
 4327      414C5F4E 
 4327      554D4245 
 4328              	.LASF31:
 4329 007e 42535252 		.ascii	"BSRR\000"
 4329      00
 4330              	.LASF3:
 4331 0083 75696E74 		.ascii	"uint8_t\000"
 4331      385F7400 
 4332              	.LASF36:
 4333 008b 696F706F 		.ascii	"ioportmask_t\000"
 4333      72746D61 
 4333      736B5F74 
 4333      00
 4334              	.LASF28:
 4335 0098 4F545950 		.ascii	"OTYPER\000"
 4335      455200
 4336              	.LASF50:
 4337 009f 44533138 		.ascii	"DS18B20_Init\000"
 4337      4232305F 
 4337      496E6974 
 4337      00
 4338              	.LASF54:
 4339 00ac 54656D70 		.ascii	"Temp\000"
 4339      00
 4340              	.LASF52:
 4341 00b1 53656E73 		.ascii	"SensorNum\000"
 4341      6F724E75 
 4341      6D00
 4342              	.LASF12:
 4343 00bb 6C6F6E67 		.ascii	"long long int\000"
 4343      206C6F6E 
 4343      6720696E 
 4343      7400
 4344              	.LASF47:
 4345 00c9 4F6E6557 		.ascii	"OneWire_ReadBit\000"
 4345      6972655F 
 4345      52656164 
 4345      42697400 
 4346              	.LASF16:
 4347 00d9 43594343 		.ascii	"CYCCNT\000"
 4347      4E5400
 4348              	.LASF30:
 4349 00e0 50555044 		.ascii	"PUPDR\000"
 4349      5200
 4350              	.LASF62:
 4351 00e6 44533138 		.ascii	"DS18B20_GetROM\000"
 4351      4232305F 
 4351      47657452 
 4351      4F4D00
 4352              	.LASF42:
 4353 00f5 4F6E6557 		.ascii	"OneWire_SetBusLine\000"
 4353      6972655F 
 4353      53657442 
ARM GAS  C:\Users\DNIEL~1\AppData\Local\Temp\ccBEW71h.s 			page 80


 4353      75734C69 
 4353      6E6500
 4354              	.LASF9:
 4355 0108 6C6F6E67 		.ascii	"long int\000"
 4355      20696E74 
 4355      00
 4356              	.LASF59:
 4357 0111 44617461 		.ascii	"DataByte\000"
 4357      42797465 
 4357      00
 4358              	.LASF27:
 4359 011a 4D4F4445 		.ascii	"MODER\000"
 4359      5200
 4360              	.LASF46:
 4361 0120 5F646174 		.ascii	"_data\000"
 4361      6100
 4362              	.LASF67:
 4363 0126 53656E73 		.ascii	"SensorCount\000"
 4363      6F72436F 
 4363      756E7400 
 4364              	.LASF26:
 4365 0132 636C6561 		.ascii	"clear\000"
 4365      7200
 4366              	.LASF18:
 4367 0138 45584343 		.ascii	"EXCCNT\000"
 4367      4E5400
 4368              	.LASF2:
 4369 013f 756E7369 		.ascii	"unsigned char\000"
 4369      676E6564 
 4369      20636861 
 4369      7200
 4370              	.LASF15:
 4371 014d 4354524C 		.ascii	"CTRL\000"
 4371      00
 4372              	.LASF1:
 4373 0152 7369676E 		.ascii	"signed char\000"
 4373      65642063 
 4373      68617200 
 4374              	.LASF13:
 4375 015e 6C6F6E67 		.ascii	"long long unsigned int\000"
 4375      206C6F6E 
 4375      6720756E 
 4375      7369676E 
 4375      65642069 
 4376              	.LASF10:
 4377 0175 75696E74 		.ascii	"uint32_t\000"
 4377      33325F74 
 4377      00
 4378              	.LASF39:
 4379 017e 4F6E6557 		.ascii	"OneWire_DataPinInput\000"
 4379      6972655F 
 4379      44617461 
 4379      50696E49 
 4379      6E707574 
 4380              	.LASF0:
 4381 0193 756E7369 		.ascii	"unsigned int\000"
 4381      676E6564 
ARM GAS  C:\Users\DNIEL~1\AppData\Local\Temp\ccBEW71h.s 			page 81


 4381      20696E74 
 4381      00
 4382              	.LASF43:
 4383 01a0 4F6E6557 		.ascii	"OneWire_WriteBit\000"
 4383      6972655F 
 4383      57726974 
 4383      65426974 
 4383      00
 4384              	.LASF6:
 4385 01b1 75696E74 		.ascii	"uint16_t\000"
 4385      31365F74 
 4385      00
 4386              	.LASF34:
 4387 01ba 41465248 		.ascii	"AFRH\000"
 4387      00
 4388              	.LASF37:
 4389 01bf 73746172 		.ascii	"start\000"
 4389      7400
 4390              	.LASF7:
 4391 01c5 73686F72 		.ascii	"short unsigned int\000"
 4391      7420756E 
 4391      7369676E 
 4391      65642069 
 4391      6E7400
 4392              	.LASF24:
 4393 01d8 63686172 		.ascii	"char\000"
 4393      00
 4394              	.LASF48:
 4395 01dd 4F6E6557 		.ascii	"OneWire_ReadByte\000"
 4395      6972655F 
 4395      52656164 
 4395      42797465 
 4395      00
 4396              	.LASF8:
 4397 01ee 696E7433 		.ascii	"int32_t\000"
 4397      325F7400 
 4398              	.LASF4:
 4399 01f6 696E7431 		.ascii	"int16_t\000"
 4399      365F7400 
 4400              	.LASF14:
 4401 01fe 5F426F6F 		.ascii	"_Bool\000"
 4401      6C00
 4402              	.LASF45:
 4403 0204 64617461 		.ascii	"data\000"
 4403      00
 4404              	.LASF38:
 4405 0209 74696D65 		.ascii	"timeout\000"
 4405      6F757400 
 4406              	.LASF23:
 4407 0211 434D785F 		.ascii	"CMx_DWT\000"
 4407      44575400 
 4408              	.LASF63:
 4409 0219 62756666 		.ascii	"buffer\000"
 4409      657200
 4410              	.LASF17:
 4411 0220 43504943 		.ascii	"CPICNT\000"
 4411      4E5400
ARM GAS  C:\Users\DNIEL~1\AppData\Local\Temp\ccBEW71h.s 			page 82


 4412              	.LASF29:
 4413 0227 4F535045 		.ascii	"OSPEEDR\000"
 4413      45445200 
 4414              	.LASF61:
 4415 022f 4F6E6557 		.ascii	"OneWire_FindROM\000"
 4415      6972655F 
 4415      46696E64 
 4415      524F4D00 
 4416              	.LASF11:
 4417 023f 6C6F6E67 		.ascii	"long unsigned int\000"
 4417      20756E73 
 4417      69676E65 
 4417      6420696E 
 4417      7400
 4418              	.LASF40:
 4419 0251 4F6E6557 		.ascii	"OneWire_DataPinOutput\000"
 4419      6972655F 
 4419      44617461 
 4419      50696E4F 
 4419      75747075 
 4420              	.LASF53:
 4421 0267 44533138 		.ascii	"DS18B20_GetTemp\000"
 4421      4232305F 
 4421      47657454 
 4421      656D7000 
 4422              	.LASF44:
 4423 0277 4F6E6557 		.ascii	"OneWire_WriteByte\000"
 4423      6972655F 
 4423      57726974 
 4423      65427974 
 4423      6500
 4424              	.LASF25:
 4425 0289 68616C72 		.ascii	"halrtcnt_t\000"
 4425      74636E74 
 4425      5F7400
 4426              	.LASF19:
 4427 0294 534C4545 		.ascii	"SLEEPCNT\000"
 4427      50434E54 
 4427      00
 4428              	.LASF60:
 4429 029d 6E657874 		.ascii	"next_diff\000"
 4429      5F646966 
 4429      6600
 4430              	.LASF69:
 4431 02a7 7372632F 		.ascii	"src/ds18b20.c\000"
 4431      64733138 
 4431      6232302E 
 4431      6300
 4432              	.LASF49:
 4433 02b5 4F6E6557 		.ascii	"OneWire_Reset\000"
 4433      6972655F 
 4433      52657365 
 4433      7400
 4434              	.LASF20:
 4435 02c3 4C535543 		.ascii	"LSUCNT\000"
 4435      4E5400
 4436              	.LASF51:
ARM GAS  C:\Users\DNIEL~1\AppData\Local\Temp\ccBEW71h.s 			page 83


 4437 02ca 44533138 		.ascii	"DS18B20_StartConversion\000"
 4437      4232305F 
 4437      53746172 
 4437      74436F6E 
 4437      76657273 
 4438              	.LASF58:
 4439 02e2 44617461 		.ascii	"DataBit\000"
 4439      42697400 
 4440              	.LASF64:
 4441 02ea 44533138 		.ascii	"DS18B20_ScanBus\000"
 4441      4232305F 
 4441      5363616E 
 4441      42757300 
 4442              	.LASF65:
 4443 02fa 49544D5F 		.ascii	"ITM_RxBuffer\000"
 4443      52784275 
 4443      66666572 
 4443      00
 4444              	.LASF70:
 4445 0307 433A5C44 		.ascii	"C:\\Dani\\MegaLux\\Repo\\Modulux\\Modulux\\modulux\\"
 4445      616E695C 
 4445      4D656761 
 4445      4C75785C 
 4445      5265706F 
 4446 0334 6669726D 		.ascii	"firmware\000"
 4446      77617265 
 4446      00
 4447              	.LASF32:
 4448 033d 4C434B52 		.ascii	"LCKR\000"
 4448      00
 4449              	.LASF68:
 4450 0342 474E5520 		.ascii	"GNU C 4.5.2\000"
 4450      4320342E 
 4450      352E3200 
 4451              		.ident	"GCC: (Sourcery G++ Lite 2011.03-42) 4.5.2"
ARM GAS  C:\Users\DNIEL~1\AppData\Local\Temp\ccBEW71h.s 			page 84


DEFINED SYMBOLS
                            *ABS*:00000000 ds18b20.c
C:\Users\DNIEL~1\AppData\Local\Temp\ccBEW71h.s:24     .text.Delay_us:00000000 $t
C:\Users\DNIEL~1\AppData\Local\Temp\ccBEW71h.s:29     .text.Delay_us:00000000 Delay_us
C:\Users\DNIEL~1\AppData\Local\Temp\ccBEW71h.s:94     .text.Delay_us:0000002c $d
C:\Users\DNIEL~1\AppData\Local\Temp\ccBEW71h.s:99     .text.OneWire_DataPinInput:00000000 $t
C:\Users\DNIEL~1\AppData\Local\Temp\ccBEW71h.s:105    .text.OneWire_DataPinInput:00000000 OneWire_DataPinInput
C:\Users\DNIEL~1\AppData\Local\Temp\ccBEW71h.s:122    .text.OneWire_DataPinInput:0000000c $d
C:\Users\DNIEL~1\AppData\Local\Temp\ccBEW71h.s:127    .text.OneWire_DataPinOutput:00000000 $t
C:\Users\DNIEL~1\AppData\Local\Temp\ccBEW71h.s:133    .text.OneWire_DataPinOutput:00000000 OneWire_DataPinOutput
C:\Users\DNIEL~1\AppData\Local\Temp\ccBEW71h.s:150    .text.OneWire_DataPinOutput:0000000c $d
C:\Users\DNIEL~1\AppData\Local\Temp\ccBEW71h.s:155    .text.OneWire_SetBusLine:00000000 $t
C:\Users\DNIEL~1\AppData\Local\Temp\ccBEW71h.s:161    .text.OneWire_SetBusLine:00000000 OneWire_SetBusLine
C:\Users\DNIEL~1\AppData\Local\Temp\ccBEW71h.s:196    .text.OneWire_SetBusLine:00000020 $d
C:\Users\DNIEL~1\AppData\Local\Temp\ccBEW71h.s:201    .text.OneWire_GetBusLine:00000000 $t
C:\Users\DNIEL~1\AppData\Local\Temp\ccBEW71h.s:207    .text.OneWire_GetBusLine:00000000 OneWire_GetBusLine
C:\Users\DNIEL~1\AppData\Local\Temp\ccBEW71h.s:223    .text.OneWire_GetBusLine:0000000c $d
C:\Users\DNIEL~1\AppData\Local\Temp\ccBEW71h.s:228    .text.OneWire_ReadBit:00000000 $t
C:\Users\DNIEL~1\AppData\Local\Temp\ccBEW71h.s:234    .text.OneWire_ReadBit:00000000 OneWire_ReadBit
C:\Users\DNIEL~1\AppData\Local\Temp\ccBEW71h.s:275    .text.OneWire_ReadBit:0000002c $d
C:\Users\DNIEL~1\AppData\Local\Temp\ccBEW71h.s:280    .text.OneWire_WriteBit:00000000 $t
C:\Users\DNIEL~1\AppData\Local\Temp\ccBEW71h.s:286    .text.OneWire_WriteBit:00000000 OneWire_WriteBit
C:\Users\DNIEL~1\AppData\Local\Temp\ccBEW71h.s:333    .text.OneWire_WriteByte:00000000 $t
C:\Users\DNIEL~1\AppData\Local\Temp\ccBEW71h.s:339    .text.OneWire_WriteByte:00000000 OneWire_WriteByte
C:\Users\DNIEL~1\AppData\Local\Temp\ccBEW71h.s:403    .text.OneWire_ReadByte:00000000 $t
C:\Users\DNIEL~1\AppData\Local\Temp\ccBEW71h.s:409    .text.OneWire_ReadByte:00000000 OneWire_ReadByte
C:\Users\DNIEL~1\AppData\Local\Temp\ccBEW71h.s:512    .text.OneWire_Reset:00000000 $t
C:\Users\DNIEL~1\AppData\Local\Temp\ccBEW71h.s:518    .text.OneWire_Reset:00000000 OneWire_Reset
C:\Users\DNIEL~1\AppData\Local\Temp\ccBEW71h.s:565    .text.OneWire_Reset:00000038 $d
C:\Users\DNIEL~1\AppData\Local\Temp\ccBEW71h.s:570    .text.DS18B20_Init:00000000 $t
C:\Users\DNIEL~1\AppData\Local\Temp\ccBEW71h.s:576    .text.DS18B20_Init:00000000 DS18B20_Init
C:\Users\DNIEL~1\AppData\Local\Temp\ccBEW71h.s:601    .text.DS18B20_Init:00000018 $d
C:\Users\DNIEL~1\AppData\Local\Temp\ccBEW71h.s:606    .text.DS18B20_StartConversion:00000000 $t
C:\Users\DNIEL~1\AppData\Local\Temp\ccBEW71h.s:612    .text.DS18B20_StartConversion:00000000 DS18B20_StartConversion
C:\Users\DNIEL~1\AppData\Local\Temp\ccBEW71h.s:686    .text.DS18B20_StartConversion:00000060 $d
C:\Users\DNIEL~1\AppData\Local\Temp\ccBEW71h.s:693    .text.DS18B20_GetTemp:00000000 $t
C:\Users\DNIEL~1\AppData\Local\Temp\ccBEW71h.s:699    .text.DS18B20_GetTemp:00000000 DS18B20_GetTemp
C:\Users\DNIEL~1\AppData\Local\Temp\ccBEW71h.s:810    .text.DS18B20_GetTemp:00000088 $d
C:\Users\DNIEL~1\AppData\Local\Temp\ccBEW71h.s:815    .text.OneWire_SearchROM:00000000 $t
C:\Users\DNIEL~1\AppData\Local\Temp\ccBEW71h.s:821    .text.OneWire_SearchROM:00000000 OneWire_SearchROM
C:\Users\DNIEL~1\AppData\Local\Temp\ccBEW71h.s:1447   .text.OneWire_FindROM:00000000 $t
C:\Users\DNIEL~1\AppData\Local\Temp\ccBEW71h.s:1453   .text.OneWire_FindROM:00000000 OneWire_FindROM
C:\Users\DNIEL~1\AppData\Local\Temp\ccBEW71h.s:1479   .text.DS18B20_GetROM:00000000 $t
C:\Users\DNIEL~1\AppData\Local\Temp\ccBEW71h.s:1485   .text.DS18B20_GetROM:00000000 DS18B20_GetROM
C:\Users\DNIEL~1\AppData\Local\Temp\ccBEW71h.s:1535   .text.DS18B20_GetROM:00000044 $d
C:\Users\DNIEL~1\AppData\Local\Temp\ccBEW71h.s:1541   .text.DS18B20_ScanBus:00000000 $t
C:\Users\DNIEL~1\AppData\Local\Temp\ccBEW71h.s:1547   .text.DS18B20_ScanBus:00000000 DS18B20_ScanBus
C:\Users\DNIEL~1\AppData\Local\Temp\ccBEW71h.s:1681   .text.DS18B20_ScanBus:00000104 $d
C:\Users\DNIEL~1\AppData\Local\Temp\ccBEW71h.s:1699   .bss.DS18B20_SERIAL_NUMBER:00000000 DS18B20_SERIAL_NUMBER
C:\Users\DNIEL~1\AppData\Local\Temp\ccBEW71h.s:1692   .bss.SensorCount:00000000 SensorCount
C:\Users\DNIEL~1\AppData\Local\Temp\ccBEW71h.s:1693   .bss.SensorCount:00000000 $d
C:\Users\DNIEL~1\AppData\Local\Temp\ccBEW71h.s:1695   .bss.DS18B20_SERIAL_NUMBER:00000000 $d
                     .debug_frame:00000010 $d
C:\Users\DNIEL~1\AppData\Local\Temp\ccBEW71h.s:200    .text.OneWire_SetBusLine:00000024 $t
C:\Users\DNIEL~1\AppData\Local\Temp\ccBEW71h.s:569    .text.OneWire_Reset:0000003c $t
C:\Users\DNIEL~1\AppData\Local\Temp\ccBEW71h.s:605    .text.DS18B20_Init:0000001c $t
C:\Users\DNIEL~1\AppData\Local\Temp\ccBEW71h.s:692    .text.DS18B20_StartConversion:00000064 $t
ARM GAS  C:\Users\DNIEL~1\AppData\Local\Temp\ccBEW71h.s 			page 85


C:\Users\DNIEL~1\AppData\Local\Temp\ccBEW71h.s:814    .text.DS18B20_GetTemp:0000008c $t
C:\Users\DNIEL~1\AppData\Local\Temp\ccBEW71h.s:1540   .text.DS18B20_GetROM:0000004c $t
C:\Users\DNIEL~1\AppData\Local\Temp\ccBEW71h.s:1688   .text.DS18B20_ScanBus:0000010c $t

UNDEFINED SYMBOLS
halIsCounterWithin
_pal_lld_setgroupmode
__aeabi_i2f
__aeabi_fmul
