ARM GAS  C:\Users\DNIEL~1\AppData\Local\Temp\ccBEW71h.s 			page 1


   1              		.syntax unified
   2              		.cpu cortex-m4
   3              		.fpu softvfp
   4              		.eabi_attribute 20, 1
   5              		.eabi_attribute 21, 1
   6              		.eabi_attribute 23, 3
   7              		.eabi_attribute 24, 1
   8              		.eabi_attribute 25, 1
   9              		.eabi_attribute 26, 1
  10              		.eabi_attribute 30, 2
  11              		.eabi_attribute 18, 4
  12              		.thumb
  13              		.file	"ds18b20.c"
  20 0000 63040000 		.text
  20      02009601 
  20      00000201 
  20      FB0E0D00 
  20      01010101 
  21              	.Ltext0:
  22              		.cfi_sections	.debug_frame
  23              		.section	.text.Delay_us,"ax",%progbits
  24              		.align	2
  25              		.p2align 4,,15
  26              		.thumb
  27              		.thumb_func
  28              		.type	Delay_us, %function
  29              	Delay_us:
  30              	.LFB122:
  31              		.file 1 "src/ds18b20.c"
  32              		.loc 1 36 0
  33              		.cfi_startproc
  34              		@ args = 0, pretend = 0, frame = 0
  35              		@ frame_needed = 0, uses_anonymous_args = 0
  36              	.LVL0:
  37 0000 38B5     		push	{r3, r4, r5, lr}
  38              	.LCFI0:
  39              		.cfi_def_cfa_offset 16
  40              	.LBB6:
  41              		.loc 1 37 0
  42 0002 2023     		movs	r3, #32
  43              		.cfi_offset 14, -4
  44              		.cfi_offset 5, -8
  45              		.cfi_offset 4, -12
  46              		.cfi_offset 3, -16
  47              	.LVL1:
  48              	@ 37 "src/ds18b20.c" 1
  49 0004 83F31188 		msr     BASEPRI, r3
  50              	@ 0 "" 2
  51              	.LVL2:
  52              		.thumb
  53              	.LBE6:
ARM GAS  C:\Users\DNIEL~1\AppData\Local\Temp\ccBEW71h.s 			page 2


  54              		.loc 1 39 0
  55 0008 084B     		ldr	r3, .L5
  56              	.LVL3:
  57 000a 5C68     		ldr	r4, [r3, #4]
  58              	.LVL4:
  59              		.loc 1 40 0
  60 000c A825     		movs	r5, #168
  61 000e 05FB0045 		mla	r5, r5, r0, r4
  62              	.LVL5:
  63              		.loc 1 41 0
  64 0012 00E0     		b	.L2
  65              	.LVL6:
  66              	.L3:
  67              		.loc 1 42 0
  68              	@ 42 "src/ds18b20.c" 1
  69 0014 00BF     		nop
  70              	@ 0 "" 2
  71              		.thumb
  72              	.L2:
  73              		.loc 1 41 0 discriminator 1
  74 0016 2046     		mov	r0, r4
  75 0018 2946     		mov	r1, r5
  76 001a FFF7FEFF 		bl	halIsCounterWithin
  77 001e 0028     		cmp	r0, #0
  78 0020 F8D1     		bne	.L3
  79              	.LBB7:
  80              		.loc 1 44 0
  81 0022 0346     		mov	r3, r0
  82              	.LVL7:
  83              	@ 44 "src/ds18b20.c" 1
  84 0024 83F31188 		msr     BASEPRI, r3
  85              	@ 0 "" 2
  86              	.LVL8:
  87              		.thumb
  88              	.LBE7:
  89              		.loc 1 45 0
  90 0028 38BD     		pop	{r3, r4, r5, pc}
  91              	.L6:
  92 002a 00BF     		.align	2
  93              	.L5:
  94 002c 001000E0 		.word	-536866816
  95              		.cfi_endproc
  96              	.LFE122:
  97              		.size	Delay_us, .-Delay_us
  98              		.section	.text.OneWire_DataPinInput,"ax",%progbits
  99              		.align	2
 100              		.p2align 4,,15
 101              		.global	OneWire_DataPinInput
 102              		.thumb
 103              		.thumb_func
 104              		.type	OneWire_DataPinInput, %function
 105              	OneWire_DataPinInput:
 106              	.LFB118:
 107              		.loc 1 7 0
 108              		.cfi_startproc
 109              		@ args = 0, pretend = 0, frame = 0
 110              		@ frame_needed = 0, uses_anonymous_args = 0
ARM GAS  C:\Users\DNIEL~1\AppData\Local\Temp\ccBEW71h.s 			page 3


 111              		@ link register save eliminated.
 112              		.loc 1 8 0
 113 0000 0248     		ldr	r0, .L8
 114 0002 0221     		movs	r1, #2
 115 0004 0022     		movs	r2, #0
 116              		.loc 1 9 0
 117              		.loc 1 8 0
 118 0006 FFF7FEBF 		b	_pal_lld_setgroupmode
 119              	.L9:
 120 000a 00BF     		.align	2
 121              	.L8:
 122 000c 00100240 		.word	1073876992
 123              		.cfi_endproc
 124              	.LFE118:
 125              		.size	OneWire_DataPinInput, .-OneWire_DataPinInput
 126              		.section	.text.OneWire_DataPinOutput,"ax",%progbits
 127              		.align	2
 128              		.p2align 4,,15
 129              		.global	OneWire_DataPinOutput
 130              		.thumb
 131              		.thumb_func
 132              		.type	OneWire_DataPinOutput, %function
 133              	OneWire_DataPinOutput:
 134              	.LFB119:
 135              		.loc 1 12 0
 136              		.cfi_startproc
 137              		@ args = 0, pretend = 0, frame = 0
 138              		@ frame_needed = 0, uses_anonymous_args = 0
 139              		@ link register save eliminated.
 140              		.loc 1 13 0
 141 0000 0248     		ldr	r0, .L11
 142 0002 0221     		movs	r1, #2
 143 0004 0122     		movs	r2, #1
 144              		.loc 1 14 0
 145              		.loc 1 13 0
 146 0006 FFF7FEBF 		b	_pal_lld_setgroupmode
 147              	.L12:
 148 000a 00BF     		.align	2
 149              	.L11:
 150 000c 00100240 		.word	1073876992
 151              		.cfi_endproc
 152              	.LFE119:
 153              		.size	OneWire_DataPinOutput, .-OneWire_DataPinOutput
 154              		.section	.text.OneWire_SetBusLine,"ax",%progbits
 155              		.align	2
 156              		.p2align 4,,15
 157              		.global	OneWire_SetBusLine
 158              		.thumb
 159              		.thumb_func
 160              		.type	OneWire_SetBusLine, %function
 161              	OneWire_SetBusLine:
 162              	.LFB120:
 163              		.loc 1 17 0
 164              		.cfi_startproc
 165              		@ args = 0, pretend = 0, frame = 0
 166              		@ frame_needed = 0, uses_anonymous_args = 0
 167              	.LVL9:
ARM GAS  C:\Users\DNIEL~1\AppData\Local\Temp\ccBEW71h.s 			page 4


 168 0000 08B5     		push	{r3, lr}
 169              	.LCFI1:
 170              		.cfi_def_cfa_offset 8
 171              		.loc 1 18 0
 172 0002 30B9     		cbnz	r0, .L16
 173              		.cfi_offset 14, -4
 174              		.cfi_offset 3, -8
 175              		.loc 1 25 0
 176 0004 FFF7FEFF 		bl	OneWire_DataPinOutput
 177              	.LVL10:
 178              		.loc 1 26 0
 179 0008 0549     		ldr	r1, .L17
 180 000a 4FF40030 		mov	r0, #131072
 181 000e 8861     		str	r0, [r1, #24]
 182 0010 08BD     		pop	{r3, pc}
 183              	.LVL11:
 184              	.L16:
 185              		.loc 1 20 0
 186 0012 FFF7FEFF 		bl	OneWire_DataPinInput
 187              	.LVL12:
 188              		.loc 1 21 0
 189 0016 024B     		ldr	r3, .L17
 190 0018 0222     		movs	r2, #2
 191 001a 9A61     		str	r2, [r3, #24]
 192 001c 08BD     		pop	{r3, pc}
 193              	.L18:
 194 001e 00BF     		.align	2
 195              	.L17:
 196 0020 00100240 		.word	1073876992
 197              		.cfi_endproc
 198              	.LFE120:
 199              		.size	OneWire_SetBusLine, .-OneWire_SetBusLine
 200 0024 AFF30080 		.section	.text.OneWire_GetBusLine,"ax",%progbits
 200      AFF30080 
 200      AFF30080 
 201              		.align	2
 202              		.p2align 4,,15
 203              		.global	OneWire_GetBusLine
 204              		.thumb
 205              		.thumb_func
 206              		.type	OneWire_GetBusLine, %function
 207              	OneWire_GetBusLine:
 208              	.LFB121:
 209              		.loc 1 31 0
 210              		.cfi_startproc
 211              		@ args = 0, pretend = 0, frame = 0
 212              		@ frame_needed = 0, uses_anonymous_args = 0
 213              		@ link register save eliminated.
 214              		.loc 1 32 0
 215 0000 024B     		ldr	r3, .L20
 216 0002 1869     		ldr	r0, [r3, #16]
 217              		.loc 1 33 0
 218 0004 C0F34000 		ubfx	r0, r0, #1, #1
 219 0008 7047     		bx	lr
 220              	.L21:
 221 000a 00BF     		.align	2
 222              	.L20:
ARM GAS  C:\Users\DNIEL~1\AppData\Local\Temp\ccBEW71h.s 			page 5


 223 000c 00100240 		.word	1073876992
 224              		.cfi_endproc
 225              	.LFE121:
 226              		.size	OneWire_GetBusLine, .-OneWire_GetBusLine
 227              		.section	.text.OneWire_ReadBit,"ax",%progbits
 228              		.align	2
 229              		.p2align 4,,15
 230              		.global	OneWire_ReadBit
 231              		.thumb
 232              		.thumb_func
 233              		.type	OneWire_ReadBit, %function
 234              	OneWire_ReadBit:
 235              	.LFB123:
 236              		.loc 1 48 0
 237              		.cfi_startproc
 238              		@ args = 0, pretend = 0, frame = 0
 239              		@ frame_needed = 0, uses_anonymous_args = 0
 240              	.LVL13:
 241 0000 10B5     		push	{r4, lr}
 242              	.LCFI2:
 243              		.cfi_def_cfa_offset 8
 244              		.loc 1 51 0
 245 0002 0020     		movs	r0, #0
 246              		.cfi_offset 14, -4
 247              		.cfi_offset 4, -8
 248 0004 FFF7FEFF 		bl	OneWire_SetBusLine
 249              		.loc 1 52 0
 250 0008 0220     		movs	r0, #2
 251 000a FFF7FEFF 		bl	Delay_us
 252              		.loc 1 53 0
 253 000e 0120     		movs	r0, #1
 254 0010 FFF7FEFF 		bl	OneWire_SetBusLine
 255              		.loc 1 54 0
 256 0014 0F20     		movs	r0, #15
 257 0016 FFF7FEFF 		bl	Delay_us
 258              	.LBB8:
 259              	.LBB9:
 260              		.loc 1 32 0
 261 001a 044B     		ldr	r3, .L23
 262 001c 1C69     		ldr	r4, [r3, #16]
 263              	.LVL14:
 264              	.LBE9:
 265              	.LBE8:
 266              		.loc 1 57 0
 267 001e 2620     		movs	r0, #38
 268 0020 FFF7FEFF 		bl	Delay_us
 269              		.loc 1 60 0
 270 0024 C4F34000 		ubfx	r0, r4, #1, #1
 271 0028 10BD     		pop	{r4, pc}
 272              	.L24:
 273 002a 00BF     		.align	2
 274              	.L23:
 275 002c 00100240 		.word	1073876992
 276              		.cfi_endproc
 277              	.LFE123:
 278              		.size	OneWire_ReadBit, .-OneWire_ReadBit
 279              		.section	.text.OneWire_WriteBit,"ax",%progbits
ARM GAS  C:\Users\DNIEL~1\AppData\Local\Temp\ccBEW71h.s 			page 6


 280              		.align	2
 281              		.p2align 4,,15
 282              		.global	OneWire_WriteBit
 283              		.thumb
 284              		.thumb_func
 285              		.type	OneWire_WriteBit, %function
 286              	OneWire_WriteBit:
 287              	.LFB124:
 288              		.loc 1 63 0
 289              		.cfi_startproc
 290              		@ args = 0, pretend = 0, frame = 0
 291              		@ frame_needed = 0, uses_anonymous_args = 0
 292              	.LVL15:
 293 0000 10B5     		push	{r4, lr}
 294              	.LCFI3:
 295              		.cfi_def_cfa_offset 8
 296              		.loc 1 63 0
 297 0002 0446     		mov	r4, r0
 298              		.cfi_offset 14, -4
 299              		.cfi_offset 4, -8
 300              		.loc 1 64 0
 301 0004 0020     		movs	r0, #0
 302              	.LVL16:
 303 0006 FFF7FEFF 		bl	OneWire_SetBusLine
 304              		.loc 1 65 0
 305 000a 0220     		movs	r0, #2
 306 000c FFF7FEFF 		bl	Delay_us
 307              		.loc 1 66 0
 308 0010 64B9     		cbnz	r4, .L28
 309              		.loc 1 69 0
 310 0012 2046     		mov	r0, r4
 311 0014 FFF7FEFF 		bl	OneWire_SetBusLine
 312              	.L27:
 313              		.loc 1 70 0
 314 0018 3A20     		movs	r0, #58
 315 001a FFF7FEFF 		bl	Delay_us
 316              		.loc 1 71 0
 317 001e FFF7FEFF 		bl	OneWire_DataPinInput
 318              		.loc 1 72 0
 319 0022 0120     		movs	r0, #1
 320              		.loc 1 73 0
 321 0024 BDE81040 		pop	{r4, lr}
 322              		.loc 1 72 0
 323 0028 FFF7FEBF 		b	OneWire_SetBusLine
 324              	.L28:
 325              		.loc 1 67 0
 326 002c 0120     		movs	r0, #1
 327 002e FFF7FEFF 		bl	OneWire_SetBusLine
 328 0032 F1E7     		b	.L27
 329              		.cfi_endproc
 330              	.LFE124:
 331              		.size	OneWire_WriteBit, .-OneWire_WriteBit
 332 0034 AFF30080 		.section	.text.OneWire_WriteByte,"ax",%progbits
 332      AFF30080 
 332      AFF30080 
 333              		.align	2
 334              		.p2align 4,,15
ARM GAS  C:\Users\DNIEL~1\AppData\Local\Temp\ccBEW71h.s 			page 7


 335              		.global	OneWire_WriteByte
 336              		.thumb
 337              		.thumb_func
 338              		.type	OneWire_WriteByte, %function
 339              	OneWire_WriteByte:
 340              	.LFB125:
 341              		.loc 1 76 0
 342              		.cfi_startproc
 343              		@ args = 0, pretend = 0, frame = 0
 344              		@ frame_needed = 0, uses_anonymous_args = 0
 345              	.LVL17:
 346 0000 0146     		mov	r1, r0
 347              	.LVL18:
 348 0002 70B5     		push	{r4, r5, r6, lr}
 349              	.LCFI4:
 350              		.cfi_def_cfa_offset 16
 351              		.loc 1 81 0
 352 0004 00F00100 		and	r0, r0, #1
 353              	.LVL19:
 354              		.loc 1 82 0
 355 0008 4D08     		lsrs	r5, r1, #1
 356              		.cfi_offset 14, -4
 357              		.cfi_offset 6, -8
 358              		.cfi_offset 5, -12
 359              		.cfi_offset 4, -16
 360 000a 6C08     		lsrs	r4, r5, #1
 361              		.loc 1 81 0
 362 000c FFF7FEFF 		bl	OneWire_WriteBit
 363              	.LVL20:
 364 0010 05F00100 		and	r0, r5, #1
 365 0014 FFF7FEFF 		bl	OneWire_WriteBit
 366              	.LVL21:
 367              		.loc 1 82 0
 368 0018 6508     		lsrs	r5, r4, #1
 369              		.loc 1 81 0
 370 001a 04F00100 		and	r0, r4, #1
 371 001e FFF7FEFF 		bl	OneWire_WriteBit
 372              	.LVL22:
 373              		.loc 1 82 0
 374 0022 6C08     		lsrs	r4, r5, #1
 375              		.loc 1 81 0
 376 0024 05F00100 		and	r0, r5, #1
 377 0028 FFF7FEFF 		bl	OneWire_WriteBit
 378              	.LVL23:
 379              		.loc 1 82 0
 380 002c 6508     		lsrs	r5, r4, #1
 381              		.loc 1 81 0
 382 002e 04F00100 		and	r0, r4, #1
 383 0032 FFF7FEFF 		bl	OneWire_WriteBit
 384              	.LVL24:
 385              		.loc 1 82 0
 386 0036 6C08     		lsrs	r4, r5, #1
 387              		.loc 1 81 0
 388 0038 05F00100 		and	r0, r5, #1
 389 003c FFF7FEFF 		bl	OneWire_WriteBit
 390              	.LVL25:
 391 0040 04F00100 		and	r0, r4, #1
ARM GAS  C:\Users\DNIEL~1\AppData\Local\Temp\ccBEW71h.s 			page 8


 392 0044 FFF7FEFF 		bl	OneWire_WriteBit
 393              	.LVL26:
 394 0048 6008     		lsrs	r0, r4, #1
 395              		.loc 1 84 0
 396 004a BDE87040 		pop	{r4, r5, r6, lr}
 397              		.loc 1 81 0
 398 004e FFF7FEBF 		b	OneWire_WriteBit
 399              		.cfi_endproc
 400              	.LFE125:
 401              		.size	OneWire_WriteByte, .-OneWire_WriteByte
 402 0052 00BFAFF3 		.section	.text.OneWire_ReadByte,"ax",%progbits
 402      0080AFF3 
 402      0080AFF3 
 402      0080
 403              		.align	2
 404              		.p2align 4,,15
 405              		.global	OneWire_ReadByte
 406              		.thumb
 407              		.thumb_func
 408              		.type	OneWire_ReadByte, %function
 409              	OneWire_ReadByte:
 410              	.LFB126:
 411              		.loc 1 87 0
 412              		.cfi_startproc
 413              		@ args = 0, pretend = 0, frame = 0
 414              		@ frame_needed = 0, uses_anonymous_args = 0
 415              	.LVL27:
 416 0000 10B5     		push	{r4, lr}
 417              	.LCFI5:
 418              		.cfi_def_cfa_offset 8
 419              		.loc 1 92 0
 420              		.cfi_offset 14, -4
 421              		.cfi_offset 4, -8
 422 0002 FFF7FEFF 		bl	OneWire_ReadBit
 423              	.LVL28:
 424              		.loc 1 94 0
 425 0006 0028     		cmp	r0, #0
 426 0008 14BF     		ite	ne
 427 000a 4024     		movne	r4, #64
 428 000c 0024     		moveq	r4, #0
 429              	.LVL29:
 430              		.loc 1 92 0
 431 000e FFF7FEFF 		bl	OneWire_ReadBit
 432 0012 10B1     		cbz	r0, .L32
 433              		.loc 1 93 0
 434 0014 64F07F04 		orn	r4, r4, #127
 435              	.LVL30:
 436 0018 E4B2     		uxtb	r4, r4
 437              	.LVL31:
 438              	.L32:
 439              		.loc 1 94 0
 440 001a 6408     		lsrs	r4, r4, #1
 441              	.LVL32:
 442              		.loc 1 92 0
 443 001c FFF7FEFF 		bl	OneWire_ReadBit
 444 0020 10B1     		cbz	r0, .L33
 445              		.loc 1 93 0
ARM GAS  C:\Users\DNIEL~1\AppData\Local\Temp\ccBEW71h.s 			page 9


 446 0022 64F07F00 		orn	r0, r4, #127
 447 0026 C4B2     		uxtb	r4, r0
 448              	.LVL33:
 449              	.L33:
 450              		.loc 1 94 0
 451 0028 6408     		lsrs	r4, r4, #1
 452              	.LVL34:
 453              		.loc 1 92 0
 454 002a FFF7FEFF 		bl	OneWire_ReadBit
 455 002e 10B1     		cbz	r0, .L34
 456              		.loc 1 93 0
 457 0030 64F07F01 		orn	r1, r4, #127
 458 0034 CCB2     		uxtb	r4, r1
 459              	.LVL35:
 460              	.L34:
 461              		.loc 1 94 0
 462 0036 6408     		lsrs	r4, r4, #1
 463              	.LVL36:
 464              		.loc 1 92 0
 465 0038 FFF7FEFF 		bl	OneWire_ReadBit
 466 003c 10B1     		cbz	r0, .L35
 467              		.loc 1 93 0
 468 003e 64F07F02 		orn	r2, r4, #127
 469 0042 D4B2     		uxtb	r4, r2
 470              	.LVL37:
 471              	.L35:
 472              		.loc 1 94 0
 473 0044 6408     		lsrs	r4, r4, #1
 474              	.LVL38:
 475              		.loc 1 92 0
 476 0046 FFF7FEFF 		bl	OneWire_ReadBit
 477 004a 10B1     		cbz	r0, .L36
 478              		.loc 1 93 0
 479 004c 64F07F03 		orn	r3, r4, #127
 480 0050 DCB2     		uxtb	r4, r3
 481              	.LVL39:
 482              	.L36:
 483              		.loc 1 94 0
 484 0052 6408     		lsrs	r4, r4, #1
 485              	.LVL40:
 486              		.loc 1 92 0
 487 0054 FFF7FEFF 		bl	OneWire_ReadBit
 488 0058 18B1     		cbz	r0, .L37
 489              		.loc 1 93 0
 490 005a 64F07F0C 		orn	ip, r4, #127
 491 005e 5FFA8CF4 		uxtb	r4, ip
 492              	.LVL41:
 493              	.L37:
 494              		.loc 1 94 0
 495 0062 6408     		lsrs	r4, r4, #1
 496              	.LVL42:
 497              		.loc 1 96 0
 498 0064 FFF7FEFF 		bl	OneWire_ReadBit
 499 0068 18B1     		cbz	r0, .L38
 500              		.loc 1 97 0
 501 006a 64F07F0E 		orn	lr, r4, #127
 502 006e 5FFA8EF4 		uxtb	r4, lr
ARM GAS  C:\Users\DNIEL~1\AppData\Local\Temp\ccBEW71h.s 			page 10


 503              	.LVL43:
 504              	.L38:
 505              		.loc 1 100 0
 506 0072 2046     		mov	r0, r4
 507 0074 10BD     		pop	{r4, pc}
 508              		.cfi_endproc
 509              	.LFE126:
 510              		.size	OneWire_ReadByte, .-OneWire_ReadByte
 511 0076 00BFAFF3 		.section	.text.OneWire_Reset,"ax",%progbits
 511      0080AFF3 
 511      0080
 512              		.align	2
 513              		.p2align 4,,15
 514              		.global	OneWire_Reset
 515              		.thumb
 516              		.thumb_func
 517              		.type	OneWire_Reset, %function
 518              	OneWire_Reset:
 519              	.LFB127:
 520              		.loc 1 103 0
 521              		.cfi_startproc
 522              		@ args = 0, pretend = 0, frame = 0
 523              		@ frame_needed = 0, uses_anonymous_args = 0
 524 0000 08B5     		push	{r3, lr}
 525              	.LCFI6:
 526              		.cfi_def_cfa_offset 8
 527              		.loc 1 104 0
 528 0002 0020     		movs	r0, #0
 529              		.cfi_offset 14, -4
 530              		.cfi_offset 3, -8
 531 0004 FFF7FEFF 		bl	OneWire_SetBusLine
 532              		.loc 1 105 0
 533 0008 4FF4FA70 		mov	r0, #500
 534 000c FFF7FEFF 		bl	Delay_us
 535              		.loc 1 106 0
 536 0010 0120     		movs	r0, #1
 537 0012 FFF7FEFF 		bl	OneWire_SetBusLine
 538              		.loc 1 107 0
 539 0016 5020     		movs	r0, #80
 540 0018 FFF7FEFF 		bl	Delay_us
 541              	.LBB10:
 542              	.LBB11:
 543              		.loc 1 32 0
 544 001c 0648     		ldr	r0, .L44
 545 001e 0369     		ldr	r3, [r0, #16]
 546              	.LBE11:
 547              	.LBE10:
 548              		.loc 1 108 0
 549 0020 13F0020F 		tst	r3, #2
 550 0024 01D0     		beq	.L43
 551              		.loc 1 113 0
 552 0026 0020     		movs	r0, #0
 553              		.loc 1 114 0
 554 0028 08BD     		pop	{r3, pc}
 555              	.L43:
 556              		.loc 1 110 0
 557 002a 4FF4C870 		mov	r0, #400
ARM GAS  C:\Users\DNIEL~1\AppData\Local\Temp\ccBEW71h.s 			page 11


 558 002e FFF7FEFF 		bl	Delay_us
 559              		.loc 1 111 0
 560 0032 0120     		movs	r0, #1
 561 0034 08BD     		pop	{r3, pc}
 562              	.L45:
 563 0036 00BF     		.align	2
 564              	.L44:
 565 0038 00100240 		.word	1073876992
 566              		.cfi_endproc
 567              	.LFE127:
 568              		.size	OneWire_Reset, .-OneWire_Reset
 569 003c AFF30080 		.section	.text.DS18B20_Init,"ax",%progbits
 570              		.align	2
 571              		.p2align 4,,15
 572              		.global	DS18B20_Init
 573              		.thumb
 574              		.thumb_func
 575              		.type	DS18B20_Init, %function
 576              	DS18B20_Init:
 577              	.LFB128:
 578              		.loc 1 117 0
 579              		.cfi_startproc
 580              		@ args = 0, pretend = 0, frame = 0
 581              		@ frame_needed = 0, uses_anonymous_args = 0
 582 0000 10B5     		push	{r4, lr}
 583              	.LCFI7:
 584              		.cfi_def_cfa_offset 8
 585              		.loc 1 118 0
 586 0002 0548     		ldr	r0, .L47
 587 0004 0221     		movs	r1, #2
 588 0006 0022     		movs	r2, #0
 589              		.cfi_offset 14, -4
 590              		.cfi_offset 4, -8
 591 0008 FFF7FEFF 		bl	_pal_lld_setgroupmode
 592              		.loc 1 120 0
 593 000c FFF7FEFF 		bl	OneWire_DataPinInput
 594              		.loc 1 122 0
 595 0010 BDE81040 		pop	{r4, lr}
 596              		.loc 1 121 0
 597 0014 FFF7FEBF 		b	OneWire_Reset
 598              	.L48:
 599              		.align	2
 600              	.L47:
 601 0018 00100240 		.word	1073876992
 602              		.cfi_endproc
 603              	.LFE128:
 604              		.size	DS18B20_Init, .-DS18B20_Init
 605 001c AFF30080 		.section	.text.DS18B20_StartConversion,"ax",%progbits
 606              		.align	2
 607              		.p2align 4,,15
 608              		.global	DS18B20_StartConversion
 609              		.thumb
 610              		.thumb_func
 611              		.type	DS18B20_StartConversion, %function
 612              	DS18B20_StartConversion:
 613              	.LFB130:
 614              		.loc 1 159 0
ARM GAS  C:\Users\DNIEL~1\AppData\Local\Temp\ccBEW71h.s 			page 12


 615              		.cfi_startproc
 616              		@ args = 0, pretend = 0, frame = 0
 617              		@ frame_needed = 0, uses_anonymous_args = 0
 618              	.LVL44:
 619 0000 70B5     		push	{r4, r5, r6, lr}
 620              	.LCFI8:
 621              		.cfi_def_cfa_offset 16
 622              		.loc 1 159 0
 623 0002 0446     		mov	r4, r0
 624              		.cfi_offset 14, -4
 625              		.cfi_offset 6, -8
 626              		.cfi_offset 5, -12
 627              		.cfi_offset 4, -16
 628              		.loc 1 160 0
 629 0004 FFF7FEFF 		bl	OneWire_Reset
 630              	.LVL45:
 631              		.loc 1 161 0
 632 0008 002C     		cmp	r4, #0
 633 000a 24D0     		beq	.L52
 634              	.LBB12:
 635              		.loc 1 171 0
 636 000c 144D     		ldr	r5, .L53
 637              		.loc 1 167 0
 638 000e 661E     		subs	r6, r4, #1
 639              		.loc 1 171 0
 640 0010 05EBC604 		add	r4, r5, r6, lsl #3
 641              		.loc 1 167 0
 642 0014 5520     		movs	r0, #85
 643 0016 FFF7FEFF 		bl	OneWire_WriteByte
 644              	.LVL46:
 645              		.loc 1 171 0
 646 001a 15F83600 		ldrb	r0, [r5, r6, lsl #3]	@ zero_extendqisi2
 647 001e FFF7FEFF 		bl	OneWire_WriteByte
 648              	.LVL47:
 649 0022 6078     		ldrb	r0, [r4, #1]	@ zero_extendqisi2
 650 0024 FFF7FEFF 		bl	OneWire_WriteByte
 651              	.LVL48:
 652 0028 A078     		ldrb	r0, [r4, #2]	@ zero_extendqisi2
 653 002a FFF7FEFF 		bl	OneWire_WriteByte
 654              	.LVL49:
 655 002e E078     		ldrb	r0, [r4, #3]	@ zero_extendqisi2
 656 0030 FFF7FEFF 		bl	OneWire_WriteByte
 657              	.LVL50:
 658 0034 2079     		ldrb	r0, [r4, #4]	@ zero_extendqisi2
 659 0036 FFF7FEFF 		bl	OneWire_WriteByte
 660              	.LVL51:
 661 003a 6079     		ldrb	r0, [r4, #5]	@ zero_extendqisi2
 662 003c FFF7FEFF 		bl	OneWire_WriteByte
 663              	.LVL52:
 664 0040 A079     		ldrb	r0, [r4, #6]	@ zero_extendqisi2
 665 0042 FFF7FEFF 		bl	OneWire_WriteByte
 666              	.LVL53:
 667 0046 E079     		ldrb	r0, [r4, #7]	@ zero_extendqisi2
 668 0048 FFF7FEFF 		bl	OneWire_WriteByte
 669              	.LVL54:
 670              	.L51:
 671              	.LBE12:
ARM GAS  C:\Users\DNIEL~1\AppData\Local\Temp\ccBEW71h.s 			page 13


 672              		.loc 1 174 0
 673 004c 4420     		movs	r0, #68
 674              		.loc 1 175 0
 675 004e BDE87040 		pop	{r4, r5, r6, lr}
 676              		.loc 1 174 0
 677 0052 FFF7FEBF 		b	OneWire_WriteByte
 678              	.L52:
 679              		.loc 1 163 0
 680 0056 CC20     		movs	r0, #204
 681 0058 FFF7FEFF 		bl	OneWire_WriteByte
 682 005c F6E7     		b	.L51
 683              	.L54:
 684 005e 00BF     		.align	2
 685              	.L53:
 686 0060 00000000 		.word	.LANCHOR0
 687              		.cfi_endproc
 688              	.LFE130:
 689              		.size	DS18B20_StartConversion, .-DS18B20_StartConversion
 690              		.global	__aeabi_i2f
 691              		.global	__aeabi_fmul
 692 0064 AFF30080 		.section	.text.DS18B20_GetTemp,"ax",%progbits
 692      AFF30080 
 692      AFF30080 
 693              		.align	2
 694              		.p2align 4,,15
 695              		.global	DS18B20_GetTemp
 696              		.thumb
 697              		.thumb_func
 698              		.type	DS18B20_GetTemp, %function
 699              	DS18B20_GetTemp:
 700              	.LFB129:
 701              		.loc 1 125 0
 702              		.cfi_startproc
 703              		@ args = 0, pretend = 0, frame = 0
 704              		@ frame_needed = 0, uses_anonymous_args = 0
 705              	.LVL55:
 706 0000 F8B5     		push	{r3, r4, r5, r6, r7, lr}
 707              	.LCFI9:
 708              		.cfi_def_cfa_offset 24
 709              		.loc 1 125 0
 710 0002 0446     		mov	r4, r0
 711              		.cfi_offset 14, -4
 712              		.cfi_offset 7, -8
 713              		.cfi_offset 6, -12
 714              		.cfi_offset 5, -16
 715              		.cfi_offset 4, -20
 716              		.cfi_offset 3, -24
 717              		.loc 1 129 0
 718 0004 FFF7FEFF 		bl	OneWire_Reset
 719              	.LVL56:
 720              		.loc 1 130 0
 721 0008 D4B9     		cbnz	r4, .L56
 722              		.loc 1 132 0
 723 000a CC20     		movs	r0, #204
 724 000c FFF7FEFF 		bl	OneWire_WriteByte
 725              	.L57:
 726              		.loc 1 143 0
ARM GAS  C:\Users\DNIEL~1\AppData\Local\Temp\ccBEW71h.s 			page 14


 727 0010 BE20     		movs	r0, #190
 728 0012 FFF7FEFF 		bl	OneWire_WriteByte
 729              		.loc 1 145 0
 730 0016 FFF7FEFF 		bl	OneWire_ReadByte
 731 001a 0546     		mov	r5, r0
 732              	.LVL57:
 733              		.loc 1 146 0
 734 001c FFF7FEFF 		bl	OneWire_ReadByte
 735              	.LVL58:
 736              		.loc 1 148 0
 737 0020 05B9     		cbnz	r5, .L58
 738              		.loc 1 148 0 is_stmt 0 discriminator 1
 739 0022 70B3     		cbz	r0, .L60
 740              	.L58:
 741              		.loc 1 150 0 is_stmt 1
 742 0024 45EA0020 		orr	r0, r5, r0, lsl #8
 743              	.LVL59:
 744 0028 FFF7FEFF 		bl	__aeabi_i2f
 745              	.LVL60:
 746              		.loc 1 151 0
 747 002c 4FF07651 		mov	r1, #1031798784
 748 0030 FFF7FEFF 		bl	__aeabi_fmul
 749 0034 0546     		mov	r5, r0
 750              	.LVL61:
 751              		.loc 1 153 0
 752 0036 2046     		mov	r0, r4
 753              	.LVL62:
 754 0038 FFF7FEFF 		bl	DS18B20_StartConversion
 755              		.loc 1 156 0
 756 003c 2846     		mov	r0, r5
 757 003e F8BD     		pop	{r3, r4, r5, r6, r7, pc}
 758              	.LVL63:
 759              	.L56:
 760              	.LBB13:
 761              		.loc 1 140 0
 762 0040 114E     		ldr	r6, .L61
 763              		.loc 1 136 0
 764 0042 671E     		subs	r7, r4, #1
 765              		.loc 1 140 0
 766 0044 06EBC705 		add	r5, r6, r7, lsl #3
 767              		.loc 1 136 0
 768 0048 5520     		movs	r0, #85
 769 004a FFF7FEFF 		bl	OneWire_WriteByte
 770              	.LVL64:
 771              		.loc 1 140 0
 772 004e 16F83700 		ldrb	r0, [r6, r7, lsl #3]	@ zero_extendqisi2
 773 0052 FFF7FEFF 		bl	OneWire_WriteByte
 774              	.LVL65:
 775 0056 6878     		ldrb	r0, [r5, #1]	@ zero_extendqisi2
 776 0058 FFF7FEFF 		bl	OneWire_WriteByte
 777              	.LVL66:
 778 005c A878     		ldrb	r0, [r5, #2]	@ zero_extendqisi2
 779 005e FFF7FEFF 		bl	OneWire_WriteByte
 780              	.LVL67:
 781 0062 E878     		ldrb	r0, [r5, #3]	@ zero_extendqisi2
 782 0064 FFF7FEFF 		bl	OneWire_WriteByte
 783              	.LVL68:
ARM GAS  C:\Users\DNIEL~1\AppData\Local\Temp\ccBEW71h.s 			page 15


 784 0068 2879     		ldrb	r0, [r5, #4]	@ zero_extendqisi2
 785 006a FFF7FEFF 		bl	OneWire_WriteByte
 786              	.LVL69:
 787 006e 6879     		ldrb	r0, [r5, #5]	@ zero_extendqisi2
 788 0070 FFF7FEFF 		bl	OneWire_WriteByte
 789              	.LVL70:
 790 0074 A879     		ldrb	r0, [r5, #6]	@ zero_extendqisi2
 791 0076 FFF7FEFF 		bl	OneWire_WriteByte
 792              	.LVL71:
 793 007a E879     		ldrb	r0, [r5, #7]	@ zero_extendqisi2
 794 007c FFF7FEFF 		bl	OneWire_WriteByte
 795              	.LVL72:
 796 0080 C6E7     		b	.L57
 797              	.LVL73:
 798              	.L60:
 799              	.LBE13:
 800              		.loc 1 148 0
 801 0082 0025     		movs	r5, #0
 802              	.LVL74:
 803              		.loc 1 156 0
 804 0084 2846     		mov	r0, r5
 805              	.LVL75:
 806 0086 F8BD     		pop	{r3, r4, r5, r6, r7, pc}
 807              	.L62:
 808              		.align	2
 809              	.L61:
 810 0088 00000000 		.word	.LANCHOR0
 811              		.cfi_endproc
 812              	.LFE129:
 813              		.size	DS18B20_GetTemp, .-DS18B20_GetTemp
 814 008c AFF30080 		.section	.text.OneWire_SearchROM,"ax",%progbits
 815              		.align	2
 816              		.p2align 4,,15
 817              		.global	OneWire_SearchROM
 818              		.thumb
 819              		.thumb_func
 820              		.type	OneWire_SearchROM, %function
 821              	OneWire_SearchROM:
 822              	.LFB131:
 823              		.loc 1 178 0
 824              		.cfi_startproc
 825              		@ args = 0, pretend = 0, frame = 0
 826              		@ frame_needed = 0, uses_anonymous_args = 0
 827              	.LVL76:
 828 0000 2DE9F047 		push	{r4, r5, r6, r7, r8, r9, sl, lr}
 829              	.LCFI10:
 830              		.cfi_def_cfa_offset 32
 831              		.loc 1 178 0
 832 0004 0446     		mov	r4, r0
 833              		.cfi_offset 14, -4
 834              		.cfi_offset 10, -8
 835              		.cfi_offset 9, -12
 836              		.cfi_offset 8, -16
 837              		.cfi_offset 7, -20
 838              		.cfi_offset 6, -24
 839              		.cfi_offset 5, -28
 840              		.cfi_offset 4, -32
ARM GAS  C:\Users\DNIEL~1\AppData\Local\Temp\ccBEW71h.s 			page 16


 841 0006 0D46     		mov	r5, r1
 842              		.loc 1 181 0
 843 0008 FFF7FEFF 		bl	OneWire_Reset
 844              	.LVL77:
 845 000c 18B9     		cbnz	r0, .L146
 846              		.loc 1 182 0
 847 000e FF27     		movs	r7, #255
 848              	.LVL78:
 849              	.L64:
 850              		.loc 1 221 0
 851 0010 3846     		mov	r0, r7
 852 0012 BDE8F087 		pop	{r4, r5, r6, r7, r8, r9, sl, pc}
 853              	.LVL79:
 854              	.L146:
 855              		.loc 1 184 0
 856 0016 F020     		movs	r0, #240
 857 0018 FFF7FEFF 		bl	OneWire_WriteByte
 858              	.LVL80:
 859              		.loc 1 193 0
 860 001c FFF7FEFF 		bl	OneWire_ReadBit
 861              		.loc 1 177 0
 862 0020 0135     		adds	r5, r5, #1
 863              	.LVL81:
 864 0022 4FF03909 		mov	r9, #57
 865              		.loc 1 185 0
 866 0026 0027     		movs	r7, #0
 867              		.loc 1 187 0
 868 0028 4026     		movs	r6, #64
 869              	.LVL82:
 870              		.loc 1 193 0
 871 002a 8046     		mov	r8, r0
 872              	.LVL83:
 873              		.loc 1 194 0
 874 002c FFF7FEFF 		bl	OneWire_ReadBit
 875              	.LVL84:
 876 0030 0028     		cmp	r0, #0
 877 0032 00F0C280 		beq	.L147
 878              	.LVL85:
 879              	.L65:
 880              		.loc 1 196 0
 881 0036 B8F1000F 		cmp	r8, #0
 882 003a 40F0E781 		bne	.L134
 883              	.L70:
 884              	.LVL86:
 885              		.loc 1 210 0
 886 003e 0020     		movs	r0, #0
 887 0040 FFF7FEFF 		bl	OneWire_WriteBit
 888              		.loc 1 211 0
 889 0044 15F8010C 		ldrb	r0, [r5, #-1]	@ zero_extendqisi2
 890 0048 4308     		lsrs	r3, r0, #1
 891 004a 05F8013C 		strb	r3, [r5, #-1]
 892              		.loc 1 193 0
 893 004e FFF7FEFF 		bl	OneWire_ReadBit
 894              		.loc 1 196 0
 895 0052 06F1FF3A 		add	sl, r6, #-1
 896 0056 5FFA8AFA 		uxtb	sl, sl
 897              	.LVL87:
ARM GAS  C:\Users\DNIEL~1\AppData\Local\Temp\ccBEW71h.s 			page 17


 898              		.loc 1 193 0
 899 005a 8046     		mov	r8, r0
 900              	.LVL88:
 901              		.loc 1 194 0
 902 005c FFF7FEFF 		bl	OneWire_ReadBit
 903              	.LVL89:
 904 0060 0028     		cmp	r0, #0
 905 0062 00F0D180 		beq	.L148
 906              	.LVL90:
 907              	.L71:
 908              		.loc 1 196 0
 909 0066 B8F1000F 		cmp	r8, #0
 910 006a 40F0CF81 		bne	.L134
 911              	.L76:
 912              	.LVL91:
 913              		.loc 1 210 0
 914 006e 0020     		movs	r0, #0
 915 0070 FFF7FEFF 		bl	OneWire_WriteBit
 916              		.loc 1 211 0
 917 0074 15F8011C 		ldrb	r1, [r5, #-1]	@ zero_extendqisi2
 918 0078 4808     		lsrs	r0, r1, #1
 919 007a 05F8010C 		strb	r0, [r5, #-1]
 920              		.loc 1 193 0
 921 007e FFF7FEFF 		bl	OneWire_ReadBit
 922              		.loc 1 196 0
 923 0082 A6F10208 		sub	r8, r6, #2
 924 0086 5FFA88FA 		uxtb	sl, r8
 925              	.LVL92:
 926              		.loc 1 193 0
 927 008a 8046     		mov	r8, r0
 928              	.LVL93:
 929              		.loc 1 194 0
 930 008c FFF7FEFF 		bl	OneWire_ReadBit
 931              	.LVL94:
 932 0090 0028     		cmp	r0, #0
 933 0092 00F0E080 		beq	.L149
 934              	.LVL95:
 935              	.L77:
 936              		.loc 1 196 0
 937 0096 B8F1000F 		cmp	r8, #0
 938 009a 40F0B781 		bne	.L134
 939              	.L82:
 940              	.LVL96:
 941              		.loc 1 210 0
 942 009e 0020     		movs	r0, #0
 943 00a0 FFF7FEFF 		bl	OneWire_WriteBit
 944              		.loc 1 211 0
 945 00a4 15F8011C 		ldrb	r1, [r5, #-1]	@ zero_extendqisi2
 946 00a8 4808     		lsrs	r0, r1, #1
 947              		.loc 1 196 0
 948 00aa A6F1030E 		sub	lr, r6, #3
 949              		.loc 1 211 0
 950 00ae 05F8010C 		strb	r0, [r5, #-1]
 951              		.loc 1 196 0
 952 00b2 5FFA8EFA 		uxtb	sl, lr
 953              	.LVL97:
 954              		.loc 1 193 0
ARM GAS  C:\Users\DNIEL~1\AppData\Local\Temp\ccBEW71h.s 			page 18


 955 00b6 FFF7FEFF 		bl	OneWire_ReadBit
 956 00ba 8046     		mov	r8, r0
 957              	.LVL98:
 958              		.loc 1 194 0
 959 00bc FFF7FEFF 		bl	OneWire_ReadBit
 960              	.LVL99:
 961 00c0 0028     		cmp	r0, #0
 962 00c2 00F0EF80 		beq	.L150
 963              	.LVL100:
 964              	.L83:
 965              		.loc 1 196 0
 966 00c6 B8F1000F 		cmp	r8, #0
 967 00ca 40F09F81 		bne	.L134
 968              	.L88:
 969              	.LVL101:
 970              		.loc 1 210 0
 971 00ce 0020     		movs	r0, #0
 972 00d0 FFF7FEFF 		bl	OneWire_WriteBit
 973              		.loc 1 211 0
 974 00d4 15F8011C 		ldrb	r1, [r5, #-1]	@ zero_extendqisi2
 975 00d8 4808     		lsrs	r0, r1, #1
 976 00da 05F8010C 		strb	r0, [r5, #-1]
 977              		.loc 1 193 0
 978 00de FFF7FEFF 		bl	OneWire_ReadBit
 979              		.loc 1 196 0
 980 00e2 A6F1040A 		sub	sl, r6, #4
 981 00e6 5FFA8AFA 		uxtb	sl, sl
 982              	.LVL102:
 983              		.loc 1 193 0
 984 00ea 8046     		mov	r8, r0
 985              	.LVL103:
 986              		.loc 1 194 0
 987 00ec FFF7FEFF 		bl	OneWire_ReadBit
 988              	.LVL104:
 989 00f0 0028     		cmp	r0, #0
 990 00f2 00F0FE80 		beq	.L151
 991              	.LVL105:
 992              	.L89:
 993              		.loc 1 196 0
 994 00f6 B8F1000F 		cmp	r8, #0
 995 00fa 40F08781 		bne	.L134
 996              	.L94:
 997              	.LVL106:
 998              		.loc 1 210 0
 999 00fe 0020     		movs	r0, #0
 1000 0100 FFF7FEFF 		bl	OneWire_WriteBit
 1001              		.loc 1 211 0
 1002 0104 15F8011C 		ldrb	r1, [r5, #-1]	@ zero_extendqisi2
 1003 0108 4808     		lsrs	r0, r1, #1
 1004              		.loc 1 196 0
 1005 010a A6F1050C 		sub	ip, r6, #5
 1006              		.loc 1 211 0
 1007 010e 05F8010C 		strb	r0, [r5, #-1]
 1008              		.loc 1 196 0
 1009 0112 5FFA8CFA 		uxtb	sl, ip
 1010              	.LVL107:
 1011              		.loc 1 193 0
ARM GAS  C:\Users\DNIEL~1\AppData\Local\Temp\ccBEW71h.s 			page 19


 1012 0116 FFF7FEFF 		bl	OneWire_ReadBit
 1013 011a 8046     		mov	r8, r0
 1014              	.LVL108:
 1015              		.loc 1 194 0
 1016 011c FFF7FEFF 		bl	OneWire_ReadBit
 1017              	.LVL109:
 1018 0120 0028     		cmp	r0, #0
 1019 0122 00F00D81 		beq	.L152
 1020              	.LVL110:
 1021              	.L95:
 1022              		.loc 1 196 0
 1023 0126 B8F1000F 		cmp	r8, #0
 1024 012a 40F06F81 		bne	.L134
 1025              	.L100:
 1026              	.LVL111:
 1027              		.loc 1 210 0
 1028 012e 0020     		movs	r0, #0
 1029 0130 FFF7FEFF 		bl	OneWire_WriteBit
 1030              		.loc 1 211 0
 1031 0134 15F8011C 		ldrb	r1, [r5, #-1]	@ zero_extendqisi2
 1032 0138 4808     		lsrs	r0, r1, #1
 1033              		.loc 1 196 0
 1034 013a A6F1060E 		sub	lr, r6, #6
 1035              		.loc 1 211 0
 1036 013e 05F8010C 		strb	r0, [r5, #-1]
 1037              		.loc 1 196 0
 1038 0142 5FFA8EFA 		uxtb	sl, lr
 1039              	.LVL112:
 1040              		.loc 1 193 0
 1041 0146 FFF7FEFF 		bl	OneWire_ReadBit
 1042 014a 8046     		mov	r8, r0
 1043              	.LVL113:
 1044              		.loc 1 194 0
 1045 014c FFF7FEFF 		bl	OneWire_ReadBit
 1046              	.LVL114:
 1047 0150 0028     		cmp	r0, #0
 1048 0152 00F01C81 		beq	.L153
 1049              	.LVL115:
 1050              	.L101:
 1051              		.loc 1 196 0
 1052 0156 B8F1000F 		cmp	r8, #0
 1053 015a 40F05781 		bne	.L134
 1054              	.L106:
 1055              	.LVL116:
 1056              		.loc 1 210 0
 1057 015e 0020     		movs	r0, #0
 1058 0160 FFF7FEFF 		bl	OneWire_WriteBit
 1059              		.loc 1 211 0
 1060 0164 15F8011C 		ldrb	r1, [r5, #-1]	@ zero_extendqisi2
 1061 0168 4808     		lsrs	r0, r1, #1
 1062 016a 05F8010C 		strb	r0, [r5, #-1]
 1063              	.LVL117:
 1064              		.loc 1 193 0
 1065 016e FFF7FEFF 		bl	OneWire_ReadBit
 1066 0172 8046     		mov	r8, r0
 1067              	.LVL118:
 1068              		.loc 1 194 0
ARM GAS  C:\Users\DNIEL~1\AppData\Local\Temp\ccBEW71h.s 			page 20


 1069 0174 FFF7FEFF 		bl	OneWire_ReadBit
 1070              	.LVL119:
 1071 0178 0028     		cmp	r0, #0
 1072 017a 00F02B81 		beq	.L107
 1073              	.LVL120:
 1074              	.L154:
 1075              		.loc 1 196 0
 1076 017e B8F1000F 		cmp	r8, #0
 1077 0182 40F04381 		bne	.L134
 1078              	.L108:
 1079              	.LVL121:
 1080              		.loc 1 210 0
 1081 0186 0020     		movs	r0, #0
 1082 0188 FFF7FEFF 		bl	OneWire_WriteBit
 1083              		.loc 1 211 0
 1084 018c 15F8011C 		ldrb	r1, [r5, #-1]	@ zero_extendqisi2
 1085 0190 4808     		lsrs	r0, r1, #1
 1086 0192 05F8010C 		strb	r0, [r5, #-1]
 1087              	.LVL122:
 1088              	.L111:
 1089 0196 083E     		subs	r6, r6, #8
 1090 0198 A9F10809 		sub	r9, r9, #8
 1091              	.LVL123:
 1092 019c F6B2     		uxtb	r6, r6
 1093 019e 0135     		adds	r5, r5, #1
 1094 01a0 5FFA89F9 		uxtb	r9, r9
 1095              	.LVL124:
 1096              		.loc 1 219 0
 1097 01a4 002E     		cmp	r6, #0
 1098 01a6 3FF433AF 		beq	.L64
 1099              	.LVL125:
 1100              		.loc 1 193 0
 1101 01aa FFF7FEFF 		bl	OneWire_ReadBit
 1102 01ae 8046     		mov	r8, r0
 1103              	.LVL126:
 1104              		.loc 1 194 0
 1105 01b0 FFF7FEFF 		bl	OneWire_ReadBit
 1106              	.LVL127:
 1107 01b4 0028     		cmp	r0, #0
 1108 01b6 7FF43EAF 		bne	.L65
 1109              	.LVL128:
 1110              	.L147:
 1111              		.loc 1 201 0
 1112 01ba B8F1000F 		cmp	r8, #0
 1113 01be 0DD1     		bne	.L69
 1114              		.loc 1 203 0
 1115 01c0 A642     		cmp	r6, r4
 1116 01c2 08D3     		bcc	.L114
 1117 01c4 15F8018C 		ldrb	r8, [r5, #-1]	@ zero_extendqisi2
 1118 01c8 18F0010F 		tst	r8, #1
 1119 01cc 3FF437AF 		beq	.L70
 1120 01d0 A642     		cmp	r6, r4
 1121 01d2 3FF434AF 		beq	.L70
 1122              	.L114:
 1123 01d6 3746     		mov	r7, r6
 1124              		.loc 1 205 0
 1125 01d8 4FF00108 		mov	r8, #1
ARM GAS  C:\Users\DNIEL~1\AppData\Local\Temp\ccBEW71h.s 			page 21


 1126              	.L69:
 1127              	.LVL129:
 1128              		.loc 1 210 0
 1129 01dc 4046     		mov	r0, r8
 1130 01de FFF7FEFF 		bl	OneWire_WriteBit
 1131              		.loc 1 211 0
 1132 01e2 15F8013C 		ldrb	r3, [r5, #-1]	@ zero_extendqisi2
 1133 01e6 5A08     		lsrs	r2, r3, #1
 1134              		.loc 1 213 0
 1135 01e8 62F07F01 		orn	r1, r2, #127
 1136 01ec 05F8011C 		strb	r1, [r5, #-1]
 1137              		.loc 1 193 0
 1138 01f0 FFF7FEFF 		bl	OneWire_ReadBit
 1139              		.loc 1 196 0
 1140 01f4 06F1FF3A 		add	sl, r6, #-1
 1141 01f8 5FFA8AFA 		uxtb	sl, sl
 1142              	.LVL130:
 1143              		.loc 1 193 0
 1144 01fc 8046     		mov	r8, r0
 1145              	.LVL131:
 1146              		.loc 1 194 0
 1147 01fe FFF7FEFF 		bl	OneWire_ReadBit
 1148              	.LVL132:
 1149 0202 0028     		cmp	r0, #0
 1150 0204 7FF42FAF 		bne	.L71
 1151              	.LVL133:
 1152              	.L148:
 1153              		.loc 1 201 0
 1154 0208 B8F1000F 		cmp	r8, #0
 1155 020c 0DD1     		bne	.L75
 1156              		.loc 1 203 0
 1157 020e 5445     		cmp	r4, sl
 1158 0210 08D8     		bhi	.L117
 1159 0212 15F801EC 		ldrb	lr, [r5, #-1]	@ zero_extendqisi2
 1160 0216 1EF0010F 		tst	lr, #1
 1161 021a 3FF428AF 		beq	.L76
 1162 021e 5445     		cmp	r4, sl
 1163 0220 3FF425AF 		beq	.L76
 1164              	.L117:
 1165              		.loc 1 214 0
 1166 0224 5746     		mov	r7, sl
 1167              		.loc 1 205 0
 1168 0226 4FF00108 		mov	r8, #1
 1169              	.L75:
 1170              	.LVL134:
 1171              		.loc 1 210 0
 1172 022a 4046     		mov	r0, r8
 1173 022c FFF7FEFF 		bl	OneWire_WriteBit
 1174              		.loc 1 211 0
 1175 0230 15F8013C 		ldrb	r3, [r5, #-1]	@ zero_extendqisi2
 1176 0234 5A08     		lsrs	r2, r3, #1
 1177              		.loc 1 213 0
 1178 0236 62F07F0C 		orn	ip, r2, #127
 1179 023a 05F801CC 		strb	ip, [r5, #-1]
 1180              		.loc 1 193 0
 1181 023e FFF7FEFF 		bl	OneWire_ReadBit
 1182              		.loc 1 196 0
ARM GAS  C:\Users\DNIEL~1\AppData\Local\Temp\ccBEW71h.s 			page 22


 1183 0242 A6F10208 		sub	r8, r6, #2
 1184              	.LVL135:
 1185 0246 5FFA88FA 		uxtb	sl, r8
 1186              	.LVL136:
 1187              		.loc 1 193 0
 1188 024a 8046     		mov	r8, r0
 1189              	.LVL137:
 1190              		.loc 1 194 0
 1191 024c FFF7FEFF 		bl	OneWire_ReadBit
 1192              	.LVL138:
 1193 0250 0028     		cmp	r0, #0
 1194 0252 7FF420AF 		bne	.L77
 1195              	.LVL139:
 1196              	.L149:
 1197              		.loc 1 201 0
 1198 0256 B8F1000F 		cmp	r8, #0
 1199 025a 0DD1     		bne	.L81
 1200              		.loc 1 203 0
 1201 025c 5445     		cmp	r4, sl
 1202 025e 08D8     		bhi	.L120
 1203 0260 15F801CC 		ldrb	ip, [r5, #-1]	@ zero_extendqisi2
 1204 0264 1CF0010F 		tst	ip, #1
 1205 0268 3FF419AF 		beq	.L82
 1206 026c 5445     		cmp	r4, sl
 1207 026e 3FF416AF 		beq	.L82
 1208              	.L120:
 1209              		.loc 1 214 0
 1210 0272 5746     		mov	r7, sl
 1211              		.loc 1 205 0
 1212 0274 4FF00108 		mov	r8, #1
 1213              	.L81:
 1214              	.LVL140:
 1215              		.loc 1 210 0
 1216 0278 4046     		mov	r0, r8
 1217 027a FFF7FEFF 		bl	OneWire_WriteBit
 1218              		.loc 1 211 0
 1219 027e 15F8013C 		ldrb	r3, [r5, #-1]	@ zero_extendqisi2
 1220 0282 5A08     		lsrs	r2, r3, #1
 1221              		.loc 1 213 0
 1222 0284 62F07F0A 		orn	sl, r2, #127
 1223 0288 05F801AC 		strb	sl, [r5, #-1]
 1224              		.loc 1 196 0
 1225 028c A6F1030E 		sub	lr, r6, #3
 1226 0290 5FFA8EFA 		uxtb	sl, lr
 1227              	.LVL141:
 1228              		.loc 1 193 0
 1229 0294 FFF7FEFF 		bl	OneWire_ReadBit
 1230 0298 8046     		mov	r8, r0
 1231              	.LVL142:
 1232              		.loc 1 194 0
 1233 029a FFF7FEFF 		bl	OneWire_ReadBit
 1234              	.LVL143:
 1235 029e 0028     		cmp	r0, #0
 1236 02a0 7FF411AF 		bne	.L83
 1237              	.LVL144:
 1238              	.L150:
 1239              		.loc 1 201 0
ARM GAS  C:\Users\DNIEL~1\AppData\Local\Temp\ccBEW71h.s 			page 23


 1240 02a4 B8F1000F 		cmp	r8, #0
 1241 02a8 0DD1     		bne	.L87
 1242              		.loc 1 203 0
 1243 02aa 5445     		cmp	r4, sl
 1244 02ac 08D8     		bhi	.L123
 1245 02ae 15F801CC 		ldrb	ip, [r5, #-1]	@ zero_extendqisi2
 1246 02b2 1CF0010F 		tst	ip, #1
 1247 02b6 3FF40AAF 		beq	.L88
 1248 02ba 5445     		cmp	r4, sl
 1249 02bc 3FF407AF 		beq	.L88
 1250              	.L123:
 1251              		.loc 1 214 0
 1252 02c0 5746     		mov	r7, sl
 1253              		.loc 1 205 0
 1254 02c2 4FF00108 		mov	r8, #1
 1255              	.L87:
 1256              	.LVL145:
 1257              		.loc 1 210 0
 1258 02c6 4046     		mov	r0, r8
 1259 02c8 FFF7FEFF 		bl	OneWire_WriteBit
 1260              		.loc 1 211 0
 1261 02cc 15F8013C 		ldrb	r3, [r5, #-1]	@ zero_extendqisi2
 1262 02d0 5A08     		lsrs	r2, r3, #1
 1263              		.loc 1 213 0
 1264 02d2 62F07F08 		orn	r8, r2, #127
 1265              	.LVL146:
 1266 02d6 05F8018C 		strb	r8, [r5, #-1]
 1267              		.loc 1 193 0
 1268 02da FFF7FEFF 		bl	OneWire_ReadBit
 1269              		.loc 1 196 0
 1270 02de A6F1040A 		sub	sl, r6, #4
 1271 02e2 5FFA8AFA 		uxtb	sl, sl
 1272              	.LVL147:
 1273              		.loc 1 193 0
 1274 02e6 8046     		mov	r8, r0
 1275              	.LVL148:
 1276              		.loc 1 194 0
 1277 02e8 FFF7FEFF 		bl	OneWire_ReadBit
 1278              	.LVL149:
 1279 02ec 0028     		cmp	r0, #0
 1280 02ee 7FF402AF 		bne	.L89
 1281              	.LVL150:
 1282              	.L151:
 1283              		.loc 1 201 0
 1284 02f2 B8F1000F 		cmp	r8, #0
 1285 02f6 0DD1     		bne	.L93
 1286              		.loc 1 203 0
 1287 02f8 5445     		cmp	r4, sl
 1288 02fa 08D8     		bhi	.L126
 1289 02fc 15F801EC 		ldrb	lr, [r5, #-1]	@ zero_extendqisi2
 1290 0300 1EF0010F 		tst	lr, #1
 1291 0304 3FF4FBAE 		beq	.L94
 1292 0308 5445     		cmp	r4, sl
 1293 030a 3FF4F8AE 		beq	.L94
 1294              	.L126:
 1295              		.loc 1 214 0
 1296 030e 5746     		mov	r7, sl
ARM GAS  C:\Users\DNIEL~1\AppData\Local\Temp\ccBEW71h.s 			page 24


 1297              		.loc 1 205 0
 1298 0310 4FF00108 		mov	r8, #1
 1299              	.L93:
 1300              	.LVL151:
 1301              		.loc 1 210 0
 1302 0314 4046     		mov	r0, r8
 1303 0316 FFF7FEFF 		bl	OneWire_WriteBit
 1304              		.loc 1 211 0
 1305 031a 15F8013C 		ldrb	r3, [r5, #-1]	@ zero_extendqisi2
 1306 031e 5A08     		lsrs	r2, r3, #1
 1307              		.loc 1 213 0
 1308 0320 62F07F08 		orn	r8, r2, #127
 1309              	.LVL152:
 1310 0324 05F8018C 		strb	r8, [r5, #-1]
 1311              		.loc 1 196 0
 1312 0328 A6F1050C 		sub	ip, r6, #5
 1313 032c 5FFA8CFA 		uxtb	sl, ip
 1314              	.LVL153:
 1315              		.loc 1 193 0
 1316 0330 FFF7FEFF 		bl	OneWire_ReadBit
 1317 0334 8046     		mov	r8, r0
 1318              	.LVL154:
 1319              		.loc 1 194 0
 1320 0336 FFF7FEFF 		bl	OneWire_ReadBit
 1321              	.LVL155:
 1322 033a 0028     		cmp	r0, #0
 1323 033c 7FF4F3AE 		bne	.L95
 1324              	.LVL156:
 1325              	.L152:
 1326              		.loc 1 201 0
 1327 0340 B8F1000F 		cmp	r8, #0
 1328 0344 0DD1     		bne	.L99
 1329              		.loc 1 203 0
 1330 0346 5445     		cmp	r4, sl
 1331 0348 08D8     		bhi	.L129
 1332 034a 15F8018C 		ldrb	r8, [r5, #-1]	@ zero_extendqisi2
 1333 034e 18F0010F 		tst	r8, #1
 1334 0352 3FF4ECAE 		beq	.L100
 1335 0356 5445     		cmp	r4, sl
 1336 0358 3FF4E9AE 		beq	.L100
 1337              	.L129:
 1338              		.loc 1 214 0
 1339 035c 5746     		mov	r7, sl
 1340              		.loc 1 205 0
 1341 035e 4FF00108 		mov	r8, #1
 1342              	.L99:
 1343              	.LVL157:
 1344              		.loc 1 210 0
 1345 0362 4046     		mov	r0, r8
 1346 0364 FFF7FEFF 		bl	OneWire_WriteBit
 1347              		.loc 1 211 0
 1348 0368 15F8013C 		ldrb	r3, [r5, #-1]	@ zero_extendqisi2
 1349 036c 5A08     		lsrs	r2, r3, #1
 1350              		.loc 1 213 0
 1351 036e 62F07F0A 		orn	sl, r2, #127
 1352 0372 05F801AC 		strb	sl, [r5, #-1]
 1353              		.loc 1 196 0
ARM GAS  C:\Users\DNIEL~1\AppData\Local\Temp\ccBEW71h.s 			page 25


 1354 0376 A6F1060E 		sub	lr, r6, #6
 1355 037a 5FFA8EFA 		uxtb	sl, lr
 1356              	.LVL158:
 1357              		.loc 1 193 0
 1358 037e FFF7FEFF 		bl	OneWire_ReadBit
 1359 0382 8046     		mov	r8, r0
 1360              	.LVL159:
 1361              		.loc 1 194 0
 1362 0384 FFF7FEFF 		bl	OneWire_ReadBit
 1363              	.LVL160:
 1364 0388 0028     		cmp	r0, #0
 1365 038a 7FF4E4AE 		bne	.L101
 1366              	.LVL161:
 1367              	.L153:
 1368              		.loc 1 201 0
 1369 038e B8F1000F 		cmp	r8, #0
 1370 0392 0DD1     		bne	.L105
 1371              		.loc 1 203 0
 1372 0394 5445     		cmp	r4, sl
 1373 0396 08D8     		bhi	.L132
 1374 0398 15F8018C 		ldrb	r8, [r5, #-1]	@ zero_extendqisi2
 1375 039c 18F0010F 		tst	r8, #1
 1376 03a0 3FF4DDAE 		beq	.L106
 1377 03a4 5445     		cmp	r4, sl
 1378 03a6 3FF4DAAE 		beq	.L106
 1379              	.L132:
 1380              		.loc 1 214 0
 1381 03aa 5746     		mov	r7, sl
 1382              		.loc 1 205 0
 1383 03ac 4FF00108 		mov	r8, #1
 1384              	.L105:
 1385              	.LVL162:
 1386              		.loc 1 210 0
 1387 03b0 4046     		mov	r0, r8
 1388 03b2 FFF7FEFF 		bl	OneWire_WriteBit
 1389              		.loc 1 211 0
 1390 03b6 15F8013C 		ldrb	r3, [r5, #-1]	@ zero_extendqisi2
 1391 03ba 5A08     		lsrs	r2, r3, #1
 1392              		.loc 1 213 0
 1393 03bc 62F07F0C 		orn	ip, r2, #127
 1394 03c0 05F801CC 		strb	ip, [r5, #-1]
 1395              	.LVL163:
 1396              		.loc 1 193 0
 1397 03c4 FFF7FEFF 		bl	OneWire_ReadBit
 1398 03c8 8046     		mov	r8, r0
 1399              	.LVL164:
 1400              		.loc 1 194 0
 1401 03ca FFF7FEFF 		bl	OneWire_ReadBit
 1402              	.LVL165:
 1403 03ce 0028     		cmp	r0, #0
 1404 03d0 7FF4D5AE 		bne	.L154
 1405              	.LVL166:
 1406              	.L107:
 1407              		.loc 1 201 0
 1408 03d4 B8F1000F 		cmp	r8, #0
 1409 03d8 0DD1     		bne	.L109
 1410              		.loc 1 203 0
ARM GAS  C:\Users\DNIEL~1\AppData\Local\Temp\ccBEW71h.s 			page 26


 1411 03da 4C45     		cmp	r4, r9
 1412 03dc 08D8     		bhi	.L136
 1413              		.loc 1 203 0 is_stmt 0 discriminator 1
 1414 03de 15F801EC 		ldrb	lr, [r5, #-1]	@ zero_extendqisi2
 1415 03e2 1EF0010F 		tst	lr, #1
 1416 03e6 3FF4CEAE 		beq	.L108
 1417 03ea 4C45     		cmp	r4, r9
 1418 03ec 3FF4CBAE 		beq	.L108
 1419              	.L136:
 1420              		.loc 1 203 0
 1421 03f0 4F46     		mov	r7, r9
 1422              		.loc 1 205 0 is_stmt 1
 1423 03f2 4FF00108 		mov	r8, #1
 1424              	.L109:
 1425              	.LVL167:
 1426              		.loc 1 210 0
 1427 03f6 4046     		mov	r0, r8
 1428 03f8 FFF7FEFF 		bl	OneWire_WriteBit
 1429              		.loc 1 211 0
 1430 03fc 15F8013C 		ldrb	r3, [r5, #-1]	@ zero_extendqisi2
 1431 0400 5A08     		lsrs	r2, r3, #1
 1432              		.loc 1 213 0
 1433 0402 62F07F0C 		orn	ip, r2, #127
 1434 0406 05F801CC 		strb	ip, [r5, #-1]
 1435 040a C4E6     		b	.L111
 1436              	.LVL168:
 1437              	.L134:
 1438              		.loc 1 197 0
 1439 040c FE27     		movs	r7, #254
 1440              		.loc 1 221 0
 1441 040e 3846     		mov	r0, r7
 1442 0410 BDE8F087 		pop	{r4, r5, r6, r7, r8, r9, sl, pc}
 1443              		.cfi_endproc
 1444              	.LFE131:
 1445              		.size	OneWire_SearchROM, .-OneWire_SearchROM
 1446 0414 AFF30080 		.section	.text.OneWire_FindROM,"ax",%progbits
 1446      AFF30080 
 1446      AFF30080 
 1447              		.align	2
 1448              		.p2align 4,,15
 1449              		.global	OneWire_FindROM
 1450              		.thumb
 1451              		.thumb_func
 1452              		.type	OneWire_FindROM, %function
 1453              	OneWire_FindROM:
 1454              	.LFB132:
 1455              		.loc 1 224 0
 1456              		.cfi_startproc
 1457              		@ args = 0, pretend = 0, frame = 0
 1458              		@ frame_needed = 0, uses_anonymous_args = 0
 1459              	.LVL169:
 1460 0000 10B5     		push	{r4, lr}
 1461              	.LCFI11:
 1462              		.cfi_def_cfa_offset 8
 1463              		.loc 1 224 0
 1464 0002 0446     		mov	r4, r0
 1465              		.cfi_offset 14, -4
ARM GAS  C:\Users\DNIEL~1\AppData\Local\Temp\ccBEW71h.s 			page 27


 1466              		.cfi_offset 4, -8
 1467              		.loc 1 227 0
 1468 0004 0078     		ldrb	r0, [r0, #0]	@ zero_extendqisi2
 1469              	.LVL170:
 1470 0006 FFF7FEFF 		bl	OneWire_SearchROM
 1471              	.LVL171:
 1472 000a 2070     		strb	r0, [r4, #0]
 1473              		.loc 1 231 0
 1474 000c 10BD     		pop	{r4, pc}
 1475              		.cfi_endproc
 1476              	.LFE132:
 1477              		.size	OneWire_FindROM, .-OneWire_FindROM
 1478 000e 00BF     		.section	.text.DS18B20_GetROM,"ax",%progbits
 1479              		.align	2
 1480              		.p2align 4,,15
 1481              		.global	DS18B20_GetROM
 1482              		.thumb
 1483              		.thumb_func
 1484              		.type	DS18B20_GetROM, %function
 1485              	DS18B20_GetROM:
 1486              	.LFB133:
 1487              		.loc 1 234 0
 1488              		.cfi_startproc
 1489              		@ args = 0, pretend = 0, frame = 0
 1490              		@ frame_needed = 0, uses_anonymous_args = 0
 1491              		@ link register save eliminated.
 1492              	.LVL172:
 1493              		.loc 1 235 0
 1494 0000 104A     		ldr	r2, .L158
 1495 0002 1378     		ldrb	r3, [r2, #0]	@ zero_extendqisi2
 1496 0004 8342     		cmp	r3, r0
 1497 0006 1CD3     		bcc	.L156
 1498              		.loc 1 235 0 is_stmt 0 discriminator 2
 1499 0008 D8B1     		cbz	r0, .L156
 1500              		.loc 1 235 0
 1501 000a 0138     		subs	r0, r0, #1
 1502              	.LVL173:
 1503              		.loc 1 239 0 is_stmt 1
 1504 000c 0E4B     		ldr	r3, .L158+4
 1505 000e 13F83020 		ldrb	r2, [r3, r0, lsl #3]	@ zero_extendqisi2
 1506 0012 03EBC00C 		add	ip, r3, r0, lsl #3
 1507 0016 0A70     		strb	r2, [r1, #0]
 1508              	.LVL174:
 1509 0018 9CF80100 		ldrb	r0, [ip, #1]	@ zero_extendqisi2
 1510 001c 4870     		strb	r0, [r1, #1]
 1511              	.LVL175:
 1512 001e 9CF80220 		ldrb	r2, [ip, #2]	@ zero_extendqisi2
 1513 0022 8A70     		strb	r2, [r1, #2]
 1514              	.LVL176:
 1515 0024 9CF80330 		ldrb	r3, [ip, #3]	@ zero_extendqisi2
 1516 0028 CB70     		strb	r3, [r1, #3]
 1517              	.LVL177:
 1518 002a 9CF80400 		ldrb	r0, [ip, #4]	@ zero_extendqisi2
 1519 002e 0871     		strb	r0, [r1, #4]
 1520              	.LVL178:
 1521 0030 9CF80520 		ldrb	r2, [ip, #5]	@ zero_extendqisi2
 1522 0034 4A71     		strb	r2, [r1, #5]
ARM GAS  C:\Users\DNIEL~1\AppData\Local\Temp\ccBEW71h.s 			page 28


 1523              	.LVL179:
 1524 0036 9CF80630 		ldrb	r3, [ip, #6]	@ zero_extendqisi2
 1525 003a 8B71     		strb	r3, [r1, #6]
 1526              	.LVL180:
 1527 003c 9CF80700 		ldrb	r0, [ip, #7]	@ zero_extendqisi2
 1528 0040 C871     		strb	r0, [r1, #7]
 1529              	.LVL181:
 1530              	.L156:
 1531 0042 7047     		bx	lr
 1532              	.L159:
 1533              		.align	2
 1534              	.L158:
 1535 0044 00000000 		.word	.LANCHOR1
 1536 0048 00000000 		.word	.LANCHOR0
 1537              		.cfi_endproc
 1538              	.LFE133:
 1539              		.size	DS18B20_GetROM, .-DS18B20_GetROM
 1540 004c AFF30080 		.section	.text.DS18B20_ScanBus,"ax",%progbits
 1541              		.align	2
 1542              		.p2align 4,,15
 1543              		.global	DS18B20_ScanBus
 1544              		.thumb
 1545              		.thumb_func
 1546              		.type	DS18B20_ScanBus, %function
 1547              	DS18B20_ScanBus:
 1548              	.LFB134:
 1549              		.loc 1 243 0
 1550              		.cfi_startproc
 1551              		@ args = 0, pretend = 0, frame = 56
 1552              		@ frame_needed = 0, uses_anonymous_args = 0
 1553 0000 2DE9F04F 		push	{r4, r5, r6, r7, r8, r9, sl, fp, lr}
 1554              	.LCFI12:
 1555              		.cfi_def_cfa_offset 36
 1556              		.loc 1 248 0
 1557 0004 3F4C     		ldr	r4, .L165
 1558              		.cfi_offset 14, -4
 1559              		.cfi_offset 11, -8
 1560              		.cfi_offset 10, -12
 1561              		.cfi_offset 9, -16
 1562              		.cfi_offset 8, -20
 1563              		.cfi_offset 7, -24
 1564              		.cfi_offset 6, -28
 1565              		.cfi_offset 5, -32
 1566              		.cfi_offset 4, -36
 1567 0006 0020     		movs	r0, #0
 1568 0008 2070     		strb	r0, [r4, #0]
 1569              		.loc 1 250 0
 1570 000a 2378     		ldrb	r3, [r4, #0]	@ zero_extendqisi2
 1571              		.loc 1 243 0
 1572 000c 8FB0     		sub	sp, sp, #60
 1573              	.LCFI13:
 1574              		.cfi_def_cfa_offset 96
 1575              		.loc 1 250 0
 1576 000e FF22     		movs	r2, #255
 1577 0010 042B     		cmp	r3, #4
 1578 0012 8DF83720 		strb	r2, [sp, #55]
 1579              	.LVL182:
ARM GAS  C:\Users\DNIEL~1\AppData\Local\Temp\ccBEW71h.s 			page 29


 1580 0016 70D8     		bhi	.L161
 1581              		.loc 1 256 0
 1582 0018 3B4D     		ldr	r5, .L165+4
 1583 001a 63E0     		b	.L162
 1584              	.L164:
 1585 001c 9DF82DB0 		ldrb	fp, [sp, #45]	@ zero_extendqisi2
 1586 0020 9DF82E90 		ldrb	r9, [sp, #46]	@ zero_extendqisi2
 1587 0024 CDF80CB0 		str	fp, [sp, #12]
 1588 0028 CDF81090 		str	r9, [sp, #16]
 1589 002c 9DF82FB0 		ldrb	fp, [sp, #47]	@ zero_extendqisi2
 1590 0030 9DF83090 		ldrb	r9, [sp, #48]	@ zero_extendqisi2
 1591 0034 94F80080 		ldrb	r8, [r4, #0]	@ zero_extendqisi2
 1592 0038 94F800C0 		ldrb	ip, [r4, #0]	@ zero_extendqisi2
 1593 003c 2778     		ldrb	r7, [r4, #0]	@ zero_extendqisi2
 1594 003e 2078     		ldrb	r0, [r4, #0]	@ zero_extendqisi2
 1595 0040 2678     		ldrb	r6, [r4, #0]	@ zero_extendqisi2
 1596 0042 2178     		ldrb	r1, [r4, #0]	@ zero_extendqisi2
 1597 0044 94F800E0 		ldrb	lr, [r4, #0]	@ zero_extendqisi2
 1598 0048 2278     		ldrb	r2, [r4, #0]	@ zero_extendqisi2
 1599              		.loc 1 258 0
 1600 004a 94F800A0 		ldrb	sl, [r4, #0]	@ zero_extendqisi2
 1601              		.loc 1 256 0
 1602 004e CDF814B0 		str	fp, [sp, #20]
 1603 0052 CDF81890 		str	r9, [sp, #24]
 1604 0056 9DF831B0 		ldrb	fp, [sp, #49]	@ zero_extendqisi2
 1605 005a 9DF83290 		ldrb	r9, [sp, #50]	@ zero_extendqisi2
 1606              		.loc 1 258 0
 1607 005e CDF804A0 		str	sl, [sp, #4]
 1608              		.loc 1 256 0
 1609 0062 CDF81CB0 		str	fp, [sp, #28]
 1610 0066 CDF82090 		str	r9, [sp, #32]
 1611 006a 9DF833B0 		ldrb	fp, [sp, #51]	@ zero_extendqisi2
 1612              		.loc 1 258 0
 1613 006e DDF80490 		ldr	r9, [sp, #4]
 1614              		.loc 1 256 0
 1615 0072 9DF82CA0 		ldrb	sl, [sp, #44]	@ zero_extendqisi2
 1616 0076 CDF824B0 		str	fp, [sp, #36]
 1617              		.loc 1 258 0
 1618 007a 09F1010B 		add	fp, r9, #1
 1619              		.loc 1 256 0
 1620 007e 05F838A0 		strb	sl, [r5, r8, lsl #3]
 1621              	.LVL183:
 1622              		.loc 1 258 0
 1623 0082 84F800B0 		strb	fp, [r4, #0]
 1624              		.loc 1 256 0
 1625 0086 05EBCC08 		add	r8, r5, ip, lsl #3
 1626 008a DDF80CA0 		ldr	sl, [sp, #12]
 1627 008e DDF810B0 		ldr	fp, [sp, #16]
 1628 0092 88F801A0 		strb	sl, [r8, #1]
 1629              	.LVL184:
 1630 0096 05EBC70C 		add	ip, r5, r7, lsl #3
 1631 009a 05EBC007 		add	r7, r5, r0, lsl #3
 1632 009e 8CF802B0 		strb	fp, [ip, #2]
 1633              	.LVL185:
 1634 00a2 DDF814C0 		ldr	ip, [sp, #20]
 1635 00a6 05EBC100 		add	r0, r5, r1, lsl #3
 1636 00aa 87F803C0 		strb	ip, [r7, #3]
ARM GAS  C:\Users\DNIEL~1\AppData\Local\Temp\ccBEW71h.s 			page 30


 1637              	.LVL186:
 1638 00ae 05EBCE01 		add	r1, r5, lr, lsl #3
 1639 00b2 05EBC606 		add	r6, r5, r6, lsl #3
 1640 00b6 05EBC20E 		add	lr, r5, r2, lsl #3
 1641 00ba 069F     		ldr	r7, [sp, #24]
 1642 00bc DDF81C80 		ldr	r8, [sp, #28]
 1643 00c0 DDF82090 		ldr	r9, [sp, #32]
 1644 00c4 DDF824A0 		ldr	sl, [sp, #36]
 1645 00c8 3771     		strb	r7, [r6, #4]
 1646              	.LVL187:
 1647 00ca 80F80580 		strb	r8, [r0, #5]
 1648              	.LVL188:
 1649 00ce 81F80690 		strb	r9, [r1, #6]
 1650              	.LVL189:
 1651 00d2 8EF807A0 		strb	sl, [lr, #7]
 1652              	.LVL190:
 1653              		.loc 1 250 0
 1654 00d6 83B1     		cbz	r3, .L161
 1655              		.loc 1 250 0 is_stmt 0 discriminator 2
 1656 00d8 DFF828B0 		ldr	fp, .L165
 1657 00dc 9BF80030 		ldrb	r3, [fp, #0]	@ zero_extendqisi2
 1658 00e0 042B     		cmp	r3, #4
 1659 00e2 0AD8     		bhi	.L161
 1660              	.LVL191:
 1661              	.L162:
 1662              		.loc 1 252 0 is_stmt 1
 1663 00e4 0BA9     		add	r1, sp, #44
 1664 00e6 0DF13700 		add	r0, sp, #55
 1665 00ea FFF7FEFF 		bl	OneWire_FindROM
 1666              		.loc 1 253 0
 1667 00ee 9DF83730 		ldrb	r3, [sp, #55]	@ zero_extendqisi2
 1668 00f2 9A1C     		adds	r2, r3, #2
 1669 00f4 D1B2     		uxtb	r1, r2
 1670 00f6 0129     		cmp	r1, #1
 1671 00f8 90D8     		bhi	.L164
 1672              	.L161:
 1673              		.loc 1 260 0
 1674 00fa 2078     		ldrb	r0, [r4, #0]	@ zero_extendqisi2
 1675              		.loc 1 261 0
 1676 00fc 0FB0     		add	sp, sp, #60
 1677 00fe BDE8F08F 		pop	{r4, r5, r6, r7, r8, r9, sl, fp, pc}
 1678              	.L166:
 1679 0102 00BF     		.align	2
 1680              	.L165:
 1681 0104 00000000 		.word	.LANCHOR1
 1682 0108 00000000 		.word	.LANCHOR0
 1683              		.cfi_endproc
 1684              	.LFE134:
 1685              		.size	DS18B20_ScanBus, .-DS18B20_ScanBus
 1686              		.global	DS18B20_SERIAL_NUMBER
 1687              		.global	SensorCount
 1688 010c AFF30080 		.section	.bss.SensorCount,"aw",%nobits
 1689              		.set	.LANCHOR1,. + 0
 1690              		.type	SensorCount, %object
 1691              		.size	SensorCount, 1
 1692              	SensorCount:
 1693 0000 00       		.space	1
ARM GAS  C:\Users\DNIEL~1\AppData\Local\Temp\ccBEW71h.s 			page 31


 1694              		.section	.bss.DS18B20_SERIAL_NUMBER,"aw",%nobits
 1695              		.align	2
 1696              		.set	.LANCHOR0,. + 0
 1697              		.type	DS18B20_SERIAL_NUMBER, %object
 1698              		.size	DS18B20_SERIAL_NUMBER, 40
 1699              	DS18B20_SERIAL_NUMBER:
 1700 0000 00000000 		.space	40
 1700      00000000 
 1700      00000000 
 1700      00000000 
 1700      00000000 
 1701              		.text
 1702              	.Letext0: