ARM GAS  C:\Users\DNIEL~1\AppData\Local\Temp\ccqddW6D.s 			page 1


   1              		.syntax unified
   2              		.cpu cortex-m3
   3              		.fpu softvfp
   4              		.eabi_attribute 20, 1
   5              		.eabi_attribute 21, 1
   6              		.eabi_attribute 23, 3
   7              		.eabi_attribute 24, 1
   8              		.eabi_attribute 25, 1
   9              		.eabi_attribute 26, 1
  10              		.eabi_attribute 30, 2
  11              		.eabi_attribute 18, 4
  12              		.thumb
  13              		.file	"evtimer.c"
  20 0000 CB010000 		.text
  20      02007401 
  20      00000201 
  20      FB0E0D00 
  20      01010101 
  21              	.Ltext0:
  22              		.cfi_sections	.debug_frame
  23              		.section	.text.tmrcb,"ax",%progbits
  24              		.align	2
  25              		.p2align 4,,15
  26              		.thumb
  27              		.thumb_func
  28              		.type	tmrcb, %function
  29              	tmrcb:
  30              	.LFB7:
  31              		.file 1 "../../../ChibiOS/os/various/evtimer.c"
  32              		.loc 1 32 0
  33              		.cfi_startproc
  34              		@ args = 0, pretend = 0, frame = 0
  35              		@ frame_needed = 0, uses_anonymous_args = 0
  36              	.LVL0:
  37 0000 10B5     		push	{r4, lr}
  38              	.LCFI0:
  39              		.cfi_def_cfa_offset 8
  40              	.LBB2:
  41              		.loc 1 35 0
  42 0002 2023     		movs	r3, #32
  43              	.LVL1:
  44              	.LBE2:
  45              		.loc 1 32 0
  46 0004 0446     		mov	r4, r0
  47              		.cfi_offset 14, -4
  48              		.cfi_offset 4, -8
  49              	.LVL2:
  50              	.LBB3:
  51              		.loc 1 35 0
  52              	@ 35 "../../../ChibiOS/os/various/evtimer.c" 1
  53 0006 83F31188 		msr     BASEPRI, r3
ARM GAS  C:\Users\DNIEL~1\AppData\Local\Temp\ccqddW6D.s 			page 2


  54              	@ 0 "" 2
  55              	.LVL3:
  56              		.thumb
  57              	.LBE3:
  58 000a FFF7FEFF 		bl	dbg_check_lock_from_isr
  59              	.LVL4:
  60              		.loc 1 36 0
  61 000e 04F11400 		add	r0, r4, #20
  62 0012 0021     		movs	r1, #0
  63 0014 FFF7FEFF 		bl	chEvtBroadcastFlagsI
  64              		.loc 1 37 0
  65 0018 2346     		mov	r3, r4
  66 001a 2046     		mov	r0, r4
  67 001c A169     		ldr	r1, [r4, #24]
  68 001e 044A     		ldr	r2, .L2
  69 0020 FFF7FEFF 		bl	chVTSetI
  70              		.loc 1 38 0
  71 0024 FFF7FEFF 		bl	dbg_check_unlock_from_isr
  72              	.LBB4:
  73 0028 0023     		movs	r3, #0
  74              	.LVL5:
  75              	@ 38 "../../../ChibiOS/os/various/evtimer.c" 1
  76 002a 83F31188 		msr     BASEPRI, r3
  77              	@ 0 "" 2
  78              	.LVL6:
  79              		.thumb
  80              	.LBE4:
  81              		.loc 1 39 0
  82 002e 10BD     		pop	{r4, pc}
  83              	.L3:
  84              		.align	2
  85              	.L2:
  86 0030 00000000 		.word	tmrcb
  87              		.cfi_endproc
  88              	.LFE7:
  89              		.size	tmrcb, .-tmrcb
  90 0034 AFF30080 		.section	.text.evtStart,"ax",%progbits
  90      AFF30080 
  90      AFF30080 
  91              		.align	2
  92              		.p2align 4,,15
  93              		.global	evtStart
  94              		.thumb
  95              		.thumb_func
  96              		.type	evtStart, %function
  97              	evtStart:
  98              	.LFB8:
  99              		.loc 1 47 0
 100              		.cfi_startproc
 101              		@ args = 0, pretend = 0, frame = 0
 102              		@ frame_needed = 0, uses_anonymous_args = 0
 103              	.LVL7:
 104 0000 10B5     		push	{r4, lr}
 105              	.LCFI1:
 106              		.cfi_def_cfa_offset 8
 107              	.LBB5:
 108              		.loc 1 49 0
ARM GAS  C:\Users\DNIEL~1\AppData\Local\Temp\ccqddW6D.s 			page 3


 109 0002 2023     		movs	r3, #32
 110              	.LVL8:
 111              	.LBE5:
 112              		.loc 1 47 0
 113 0004 0446     		mov	r4, r0
 114              		.cfi_offset 14, -4
 115              		.cfi_offset 4, -8
 116              	.LBB6:
 117              		.loc 1 49 0
 118              	@ 49 "../../../ChibiOS/os/various/evtimer.c" 1
 119 0006 83F31188 		msr     BASEPRI, r3
 120              	@ 0 "" 2
 121              	.LVL9:
 122              		.thumb
 123              	.LBE6:
 124 000a FFF7FEFF 		bl	dbg_check_lock
 125              	.LVL10:
 126              		.loc 1 51 0
 127 000e E368     		ldr	r3, [r4, #12]
 128 0010 2BB1     		cbz	r3, .L7
 129              		.loc 1 54 0
 130 0012 FFF7FEFF 		bl	dbg_check_unlock
 131              	.LBB7:
 132 0016 0023     		movs	r3, #0
 133              	.LVL11:
 134              	@ 54 "../../../ChibiOS/os/various/evtimer.c" 1
 135 0018 83F31188 		msr     BASEPRI, r3
 136              	@ 0 "" 2
 137              	.LVL12:
 138              		.thumb
 139              	.LBE7:
 140              		.loc 1 55 0
 141 001c 10BD     		pop	{r4, pc}
 142              	.LVL13:
 143              	.L7:
 144              		.loc 1 52 0
 145 001e 2346     		mov	r3, r4
 146 0020 2046     		mov	r0, r4
 147 0022 A169     		ldr	r1, [r4, #24]
 148 0024 044A     		ldr	r2, .L8
 149 0026 FFF7FEFF 		bl	chVTSetI
 150              		.loc 1 54 0
 151 002a FFF7FEFF 		bl	dbg_check_unlock
 152              	.LBB8:
 153 002e 0023     		movs	r3, #0
 154              	@ 54 "../../../ChibiOS/os/various/evtimer.c" 1
 155 0030 83F31188 		msr     BASEPRI, r3
 156              	@ 0 "" 2
 157              	.LVL14:
 158              		.thumb
 159              	.LBE8:
 160              		.loc 1 55 0
 161 0034 10BD     		pop	{r4, pc}
 162              	.L9:
 163 0036 00BF     		.align	2
 164              	.L8:
 165 0038 00000000 		.word	tmrcb
ARM GAS  C:\Users\DNIEL~1\AppData\Local\Temp\ccqddW6D.s 			page 4


 166              		.cfi_endproc
 167              	.LFE8:
 168              		.size	evtStart, .-evtStart
 169 003c AFF30080 		.section	.text.evtStop,"ax",%progbits
 170              		.align	2
 171              		.p2align 4,,15
 172              		.global	evtStop
 173              		.thumb
 174              		.thumb_func
 175              		.type	evtStop, %function
 176              	evtStop:
 177              	.LFB9:
 178              		.loc 1 63 0
 179              		.cfi_startproc
 180              		@ args = 0, pretend = 0, frame = 0
 181              		@ frame_needed = 0, uses_anonymous_args = 0
 182              	.LVL15:
 183 0000 10B5     		push	{r4, lr}
 184              	.LCFI2:
 185              		.cfi_def_cfa_offset 8
 186              	.LBB9:
 187              		.loc 1 65 0
 188 0002 2023     		movs	r3, #32
 189              	.LVL16:
 190              	.LBE9:
 191              		.loc 1 63 0
 192 0004 0446     		mov	r4, r0
 193              		.cfi_offset 14, -4
 194              		.cfi_offset 4, -8
 195              	.LBB10:
 196              		.loc 1 65 0
 197              	@ 65 "../../../ChibiOS/os/various/evtimer.c" 1
 198 0006 83F31188 		msr     BASEPRI, r3
 199              	@ 0 "" 2
 200              	.LVL17:
 201              		.thumb
 202              	.LBE10:
 203 000a FFF7FEFF 		bl	dbg_check_lock
 204              	.LVL18:
 205 000e E368     		ldr	r3, [r4, #12]
 206 0010 13B1     		cbz	r3, .L11
 207              		.loc 1 65 0 is_stmt 0 discriminator 1
 208 0012 2046     		mov	r0, r4
 209 0014 FFF7FEFF 		bl	chVTResetI
 210              	.L11:
 211              		.loc 1 65 0 discriminator 2
 212 0018 FFF7FEFF 		bl	dbg_check_unlock
 213              	.LBB11:
 214 001c 0023     		movs	r3, #0
 215              	.LVL19:
 216              	@ 65 "../../../ChibiOS/os/various/evtimer.c" 1
 217 001e 83F31188 		msr     BASEPRI, r3
 218              	@ 0 "" 2
 219              	.LVL20:
 220              		.thumb
 221              	.LBE11:
 222              		.loc 1 66 0 is_stmt 1 discriminator 2
ARM GAS  C:\Users\DNIEL~1\AppData\Local\Temp\ccqddW6D.s 			page 5


 223 0022 10BD     		pop	{r4, pc}
 224              		.cfi_endproc
 225              	.LFE9:
 226              		.size	evtStop, .-evtStop
 227 0024 AFF30080 		.text
 227      AFF30080 
 227      AFF30080 
 228              	.Letext0: