ARM GAS  C:\Users\DNIEL~1\AppData\Local\Temp\ccNUQBlQ.s 			page 1


   1              		.syntax unified
   2              		.cpu cortex-m4
   3              		.fpu softvfp
   4              		.eabi_attribute 20, 1
   5              		.eabi_attribute 21, 1
   6              		.eabi_attribute 23, 3
   7              		.eabi_attribute 24, 1
   8              		.eabi_attribute 25, 1
   9              		.eabi_attribute 26, 1
  10              		.eabi_attribute 30, 2
  11              		.eabi_attribute 18, 4
  12              		.thumb
  13              		.file	"hal.c"
  20 0000 4C020000 		.text
  20      0200DC01 
  20      00000201 
  20      FB0E0D00 
  20      01010101 
  21              	.Ltext0:
  22              		.cfi_sections	.debug_frame
  23              		.section	.text.halInit,"ax",%progbits
  24              		.align	2
  25              		.p2align 4,,15
  26              		.global	halInit
  27              		.thumb
  28              		.thumb_func
  29              		.type	halInit, %function
  30              	halInit:
  31              	.LFB118:
  32              		.file 1 "../../../Chibios/os/hal/src/hal.c"
  33              		.loc 1 68 0
  34              		.cfi_startproc
  35              		@ args = 0, pretend = 0, frame = 0
  36              		@ frame_needed = 0, uses_anonymous_args = 0
  37 0000 10B5     		push	{r4, lr}
  38              	.LCFI0:
  39              		.cfi_def_cfa_offset 8
  40              		.loc 1 70 0
  41              		.cfi_offset 14, -4
  42              		.cfi_offset 4, -8
  43 0002 FFF7FEFF 		bl	hal_lld_init
  44              		.loc 1 76 0
  45 0006 0A48     		ldr	r0, .L2
  46 0008 FFF7FEFF 		bl	_pal_lld_init
  47              		.loc 1 79 0
  48 000c FFF7FEFF 		bl	adcInit
  49              		.loc 1 82 0
  50 0010 FFF7FEFF 		bl	canInit
  51              		.loc 1 100 0
  52 0014 FFF7FEFF 		bl	pwmInit
  53              		.loc 1 103 0
ARM GAS  C:\Users\DNIEL~1\AppData\Local\Temp\ccNUQBlQ.s 			page 2


  54 0018 FFF7FEFF 		bl	sdInit
  55              		.loc 1 109 0
  56 001c FFF7FEFF 		bl	spiInit
  57              		.loc 1 115 0
  58 0020 FFF7FEFF 		bl	usbInit
  59              		.loc 1 121 0
  60 0024 FFF7FEFF 		bl	sduInit
  61              		.loc 1 128 0
  62 0028 BDE81040 		pop	{r4, lr}
  63              		.loc 1 127 0
  64 002c FFF7FEBF 		b	boardInit
  65              	.L3:
  66              		.align	2
  67              	.L2:
  68 0030 00000000 		.word	pal_default_config
  69              		.cfi_endproc
  70              	.LFE118:
  71              		.size	halInit, .-halInit
  72 0034 AFF30080 		.section	.text.halIsCounterWithin,"ax",%progbits
  72      AFF30080 
  72      AFF30080 
  73              		.align	2
  74              		.p2align 4,,15
  75              		.global	halIsCounterWithin
  76              		.thumb
  77              		.thumb_func
  78              		.type	halIsCounterWithin, %function
  79              	halIsCounterWithin:
  80              	.LFB119:
  81              		.loc 1 174 0
  82              		.cfi_startproc
  83              		@ args = 0, pretend = 0, frame = 0
  84              		@ frame_needed = 0, uses_anonymous_args = 0
  85              		@ link register save eliminated.
  86              	.LVL0:
  87              		.loc 1 175 0
  88 0000 084B     		ldr	r3, .L13
  89              		.loc 1 177 0
  90 0002 8142     		cmp	r1, r0
  91              		.loc 1 175 0
  92 0004 5B68     		ldr	r3, [r3, #4]
  93              	.LVL1:
  94              		.loc 1 177 0
  95 0006 06D9     		bls	.L5
  96              		.loc 1 177 0 is_stmt 0 discriminator 1
  97 0008 8342     		cmp	r3, r0
  98 000a 08D3     		bcc	.L9
  99              	.L11:
 100              		.loc 1 177 0
 101 000c 8B42     		cmp	r3, r1
 102 000e 2CBF     		ite	cs
 103 0010 0020     		movcs	r0, #0
 104              	.LVL2:
 105 0012 0120     		movcc	r0, #1
 106 0014 7047     		bx	lr
 107              	.LVL3:
 108              	.L5:
ARM GAS  C:\Users\DNIEL~1\AppData\Local\Temp\ccNUQBlQ.s 			page 3


 109              		.loc 1 177 0 discriminator 2
 110 0016 8342     		cmp	r3, r0
 111 0018 F8D3     		bcc	.L11
 112              		.loc 1 177 0
 113 001a 0120     		movs	r0, #1
 114              	.LVL4:
 115              		.loc 1 179 0 is_stmt 1
 116 001c 7047     		bx	lr
 117              	.LVL5:
 118              	.L9:
 119              		.loc 1 177 0
 120 001e 0020     		movs	r0, #0
 121              	.LVL6:
 122 0020 7047     		bx	lr
 123              	.L14:
 124 0022 00BF     		.align	2
 125              	.L13:
 126 0024 001000E0 		.word	-536866816
 127              		.cfi_endproc
 128              	.LFE119:
 129              		.size	halIsCounterWithin, .-halIsCounterWithin
 130 0028 AFF30080 		.section	.text.halPolledDelay,"ax",%progbits
 130      AFF30080 
 131              		.align	2
 132              		.p2align 4,,15
 133              		.global	halPolledDelay
 134              		.thumb
 135              		.thumb_func
 136              		.type	halPolledDelay, %function
 137              	halPolledDelay:
 138              	.LFB120:
 139              		.loc 1 193 0
 140              		.cfi_startproc
 141              		@ args = 0, pretend = 0, frame = 0
 142              		@ frame_needed = 0, uses_anonymous_args = 0
 143              		@ link register save eliminated.
 144              	.LVL7:
 145              		.loc 1 194 0
 146 0000 084A     		ldr	r2, .L27
 147 0002 5368     		ldr	r3, [r2, #4]
 148              	.LVL8:
 149              		.loc 1 195 0
 150 0004 C018     		adds	r0, r0, r3
 151              	.LVL9:
 152              	.L25:
 153              	.LBB4:
 154              	.LBB5:
 155              		.loc 1 177 0 discriminator 1
 156 0006 8342     		cmp	r3, r0
 157              		.loc 1 175 0 discriminator 1
 158 0008 5168     		ldr	r1, [r2, #4]
 159              	.LVL10:
 160              		.loc 1 177 0 discriminator 1
 161 000a 02D2     		bcs	.L16
 162              		.loc 1 177 0 is_stmt 0
 163 000c 8B42     		cmp	r3, r1
 164 000e 02D9     		bls	.L26
ARM GAS  C:\Users\DNIEL~1\AppData\Local\Temp\ccNUQBlQ.s 			page 4


 165 0010 7047     		bx	lr
 166              	.L16:
 167 0012 8B42     		cmp	r3, r1
 168 0014 F7D9     		bls	.L25
 169              	.L26:
 170 0016 8842     		cmp	r0, r1
 171 0018 94BF     		ite	ls
 172 001a 0021     		movls	r1, #0
 173              	.LVL11:
 174 001c 0121     		movhi	r1, #1
 175              	.LBE5:
 176              	.LBE4:
 177              		.loc 1 196 0 is_stmt 1
 178 001e 0029     		cmp	r1, #0
 179 0020 F1D1     		bne	.L25
 180 0022 7047     		bx	lr
 181              	.L28:
 182              		.align	2
 183              	.L27:
 184 0024 001000E0 		.word	-536866816
 185              		.cfi_endproc
 186              	.LFE120:
 187              		.size	halPolledDelay, .-halPolledDelay
 188 0028 AFF30080 		.text
 188      AFF30080 
 189              	.Letext0: