ARM GAS  C:\Users\DNIEL~1\AppData\Local\Temp\ccwPiY81.s 			page 1


   1              		.syntax unified
   2              		.cpu cortex-m4
   3              		.fpu softvfp
   4              		.eabi_attribute 20, 1
   5              		.eabi_attribute 21, 1
   6              		.eabi_attribute 23, 3
   7              		.eabi_attribute 24, 1
   8              		.eabi_attribute 25, 1
   9              		.eabi_attribute 26, 1
  10              		.eabi_attribute 30, 2
  11              		.eabi_attribute 18, 4
  12              		.thumb
  13              		.file	"hal_lld.c"
  14              		.section	.debug_abbrev,"",%progbits
  15              	.Ldebug_abbrev0:
  16              		.section	.debug_info,"",%progbits
  17              	.Ldebug_info0:
  18              		.section	.debug_line,"",%progbits
  19              	.Ldebug_line0:
  20 0000 FA010000 		.text
  20      02005801 
  20      00000201 
  20      FB0E0D00 
  20      01010101 
  21              	.Ltext0:
  22              		.cfi_sections	.debug_frame
  23              		.section	.text.hal_lld_init,"ax",%progbits
  24              		.align	2
  25              		.p2align 4,,15
  26              		.global	hal_lld_init
  27              		.thumb
  28              		.thumb_func
  29              		.type	hal_lld_init, %function
  30              	hal_lld_init:
  31              	.LFB119:
  32              		.file 1 "../../../Chibios/os/hal/platforms/STM32F4xx/hal_lld.c"
  33              		.loc 1 111 0
  34              		.cfi_startproc
  35              		@ args = 0, pretend = 0, frame = 0
  36              		@ frame_needed = 0, uses_anonymous_args = 0
  37              		@ link register save eliminated.
  38              		.loc 1 115 0
  39 0000 1E4B     		ldr	r3, .L4
  40              		.loc 1 121 0
  41 0002 1F49     		ldr	r1, .L4+4
  42              		.loc 1 115 0
  43 0004 1A69     		ldr	r2, [r3, #16]
  44 0006 4FF0FF30 		mov	r0, #-1
  45 000a 0022     		movs	r2, #0
  46              		.loc 1 111 0
  47 000c F0B4     		push	{r4, r5, r6, r7}
  48              	.LCFI0:
  49              		.cfi_def_cfa_offset 16
  50              		.loc 1 115 0
  51 000e 1861     		str	r0, [r3, #16]
  52 0010 1A61     		str	r2, [r3, #16]
  53              		.loc 1 116 0
ARM GAS  C:\Users\DNIEL~1\AppData\Local\Temp\ccwPiY81.s 			page 2


  54 0012 5F69     		ldr	r7, [r3, #20]
  55              		.cfi_offset 7, -4
  56              		.cfi_offset 6, -8
  57              		.cfi_offset 5, -12
  58              		.cfi_offset 4, -16
  59 0014 5861     		str	r0, [r3, #20]
  60 0016 5A61     		str	r2, [r3, #20]
  61              		.loc 1 117 0
  62 0018 1F6A     		ldr	r7, [r3, #32]
  63              		.loc 1 128 0
  64 001a 1A4E     		ldr	r6, .L4+8
  65              		.loc 1 129 0
  66 001c 1A4D     		ldr	r5, .L4+12
  67              	.LBB4:
  68              	.LBB5:
  69              		.loc 1 54 0
  70 001e 1B4C     		ldr	r4, .L4+16
  71              	.LBE5:
  72              	.LBE4:
  73              		.loc 1 117 0
  74 0020 67F08057 		orn	r7, r7, #268435456
  75 0024 1F62     		str	r7, [r3, #32]
  76 0026 1A62     		str	r2, [r3, #32]
  77              		.loc 1 118 0
  78 0028 5F6A     		ldr	r7, [r3, #36]
  79 002a 5862     		str	r0, [r3, #36]
  80              		.loc 1 121 0
  81 002c 1848     		ldr	r0, .L4+20
  82              		.loc 1 118 0
  83 002e 5A62     		str	r2, [r3, #36]
  84              		.loc 1 121 0
  85 0030 4860     		str	r0, [r1, #4]
  86              		.loc 1 123 0
  87 0032 0720     		movs	r0, #7
  88              		.loc 1 122 0
  89 0034 8A60     		str	r2, [r1, #8]
  90              		.loc 1 123 0
  91 0036 0860     		str	r0, [r1, #0]
  92              		.loc 1 128 0
  93 0038 F068     		ldr	r0, [r6, #12]
  94 003a 40F08071 		orr	r1, r0, #16777216
  95 003e F160     		str	r1, [r6, #12]
  96              		.loc 1 129 0
  97 0040 2868     		ldr	r0, [r5, #0]
  98 0042 40F00101 		orr	r1, r0, #1
  99 0046 2960     		str	r1, [r5, #0]
 100              		.loc 1 132 0
 101 0048 186C     		ldr	r0, [r3, #64]
 102 004a 40F08051 		orr	r1, r0, #268435456
 103 004e 1964     		str	r1, [r3, #64]
 104              	.LBB7:
 105              	.LBB6:
 106              		.loc 1 54 0
 107 0050 2068     		ldr	r0, [r4, #0]
 108 0052 40F48071 		orr	r1, r0, #256
 109 0056 2160     		str	r1, [r4, #0]
 110              		.loc 1 57 0
ARM GAS  C:\Users\DNIEL~1\AppData\Local\Temp\ccwPiY81.s 			page 3


 111 0058 186F     		ldr	r0, [r3, #112]
 112 005a 00F44071 		and	r1, r0, #768
 113 005e B1F5007F 		cmp	r1, #512
 114 0062 03D0     		beq	.L2
 115              		.loc 1 59 0
 116 0064 4FF48031 		mov	r1, #65536
 117 0068 1967     		str	r1, [r3, #112]
 118              		.loc 1 60 0
 119 006a 1A67     		str	r2, [r3, #112]
 120              	.L2:
 121              		.loc 1 94 0
 122 006c 074B     		ldr	r3, .L4+16
 123 006e 5868     		ldr	r0, [r3, #4]
 124 0070 20F40072 		bic	r2, r0, #512
 125 0074 5A60     		str	r2, [r3, #4]
 126              	.LBE6:
 127              	.LBE7:
 128              		.loc 1 145 0
 129 0076 F0BC     		pop	{r4, r5, r6, r7}
 130              		.loc 1 138 0
 131 0078 FFF7FEBF 		b	dmaInit
 132              	.L5:
 133              		.align	2
 134              	.L4:
 135 007c 00380240 		.word	1073887232
 136 0080 10E000E0 		.word	-536813552
 137 0084 F0ED00E0 		.word	-536810000
 138 0088 001000E0 		.word	-536866816
 139 008c 00700040 		.word	1073770496
 140 0090 3F900200 		.word	167999
 141              		.cfi_endproc
 142              	.LFE119:
 143              		.size	hal_lld_init, .-hal_lld_init
 144 0094 AFF30080 		.section	.text.stm32_clock_init,"ax",%progbits
 144      AFF30080 
 144      AFF30080 
 145              		.align	2
 146              		.p2align 4,,15
 147              		.global	stm32_clock_init
 148              		.thumb
 149              		.thumb_func
 150              		.type	stm32_clock_init, %function
 151              	stm32_clock_init:
 152              	.LFB120:
 153              		.loc 1 154 0
 154              		.cfi_startproc
 155              		@ args = 0, pretend = 0, frame = 0
 156              		@ frame_needed = 0, uses_anonymous_args = 0
 157              		@ link register save eliminated.
 158              		.loc 1 158 0
 159 0000 3249     		ldr	r1, .L22
 160              		.loc 1 162 0
 161 0002 334B     		ldr	r3, .L22+4
 162              		.loc 1 158 0
 163 0004 4FF08050 		mov	r0, #268435456
 164              		.loc 1 162 0
 165 0008 4FF44042 		mov	r2, #49152
ARM GAS  C:\Users\DNIEL~1\AppData\Local\Temp\ccwPiY81.s 			page 4


 166              		.loc 1 158 0
 167 000c 0864     		str	r0, [r1, #64]
 168              		.loc 1 162 0
 169 000e 1A60     		str	r2, [r3, #0]
 170              		.loc 1 169 0
 171 0010 0868     		ldr	r0, [r1, #0]
 172 0012 40F00103 		orr	r3, r0, #1
 173 0016 0B60     		str	r3, [r1, #0]
 174              	.L7:
 175              		.loc 1 170 0 discriminator 1
 176 0018 0B68     		ldr	r3, [r1, #0]
 177 001a 2C4A     		ldr	r2, .L22
 178 001c 13F0020F 		tst	r3, #2
 179 0020 FAD0     		beq	.L7
 180              		.loc 1 176 0
 181 0022 9368     		ldr	r3, [r2, #8]
 182 0024 23F00301 		bic	r1, r3, #3
 183 0028 9160     		str	r1, [r2, #8]
 184              		.loc 1 177 0
 185 002a 9068     		ldr	r0, [r2, #8]
 186              		.loc 1 178 0
 187 002c 1146     		mov	r1, r2
 188              		.loc 1 177 0
 189 002e 9060     		str	r0, [r2, #8]
 190              	.L8:
 191              		.loc 1 178 0 discriminator 1
 192 0030 8868     		ldr	r0, [r1, #8]
 193 0032 264A     		ldr	r2, .L22
 194 0034 10F00C03 		ands	r3, r0, #12
 195 0038 FAD1     		bne	.L8
 196              		.loc 1 182 0
 197 003a 1168     		ldr	r1, [r2, #0]
 198 003c 01F0F900 		and	r0, r1, #249
 199 0040 1060     		str	r0, [r2, #0]
 200              		.loc 1 183 0
 201 0042 9360     		str	r3, [r2, #8]
 202              		.loc 1 192 0
 203 0044 1368     		ldr	r3, [r2, #0]
 204 0046 43F48031 		orr	r1, r3, #65536
 205 004a 1160     		str	r1, [r2, #0]
 206              	.L9:
 207              		.loc 1 194 0 discriminator 1
 208 004c 1368     		ldr	r3, [r2, #0]
 209 004e 1F49     		ldr	r1, .L22
 210 0050 13F4003F 		tst	r3, #131072
 211 0054 FAD0     		beq	.L9
 212              		.loc 1 200 0
 213 0056 486F     		ldr	r0, [r1, #116]
 214 0058 40F00102 		orr	r2, r0, #1
 215 005c 4A67     		str	r2, [r1, #116]
 216              	.L10:
 217              		.loc 1 201 0 discriminator 1
 218 005e 4B6F     		ldr	r3, [r1, #116]
 219 0060 1A4A     		ldr	r2, .L22
 220 0062 13F0020F 		tst	r3, #2
 221 0066 FAD0     		beq	.L10
 222              		.loc 1 207 0
ARM GAS  C:\Users\DNIEL~1\AppData\Local\Temp\ccwPiY81.s 			page 5


 223 0068 1A48     		ldr	r0, .L22+8
 224              		.loc 1 213 0
 225 006a 1949     		ldr	r1, .L22+4
 226              		.loc 1 207 0
 227 006c 5060     		str	r0, [r2, #4]
 228              		.loc 1 209 0
 229 006e 1368     		ldr	r3, [r2, #0]
 230 0070 43F08070 		orr	r0, r3, #16777216
 231 0074 1060     		str	r0, [r2, #0]
 232              	.L11:
 233              		.loc 1 213 0 discriminator 1
 234 0076 4A68     		ldr	r2, [r1, #4]
 235 0078 12F4804F 		tst	r2, #16384
 236 007c FBD0     		beq	.L11
 237              		.loc 1 229 0 discriminator 1
 238 007e 1349     		ldr	r1, .L22
 239              	.L14:
 240 0080 0B68     		ldr	r3, [r1, #0]
 241 0082 124A     		ldr	r2, .L22
 242 0084 13F0007F 		tst	r3, #33554432
 243 0088 FAD0     		beq	.L14
 244              		.loc 1 244 0
 245 008a 134B     		ldr	r3, .L22+12
 246              		.loc 1 257 0
 247 008c 03F1FE60 		add	r0, r3, #133169152
 248              		.loc 1 244 0
 249 0090 9360     		str	r3, [r2, #8]
 250              		.loc 1 257 0
 251 0092 00F51A23 		add	r3, r0, #630784
 252 0096 03F5006C 		add	ip, r3, #2048
 253 009a 40F20571 		movw	r1, #1797
 254 009e CCF80010 		str	r1, [ip, #0]
 255              		.loc 1 263 0
 256 00a2 9068     		ldr	r0, [r2, #8]
 257 00a4 40F00201 		orr	r1, r0, #2
 258 00a8 9160     		str	r1, [r2, #8]
 259              		.loc 1 264 0
 260 00aa 1146     		mov	r1, r2
 261              	.L13:
 262              		.loc 1 264 0 is_stmt 0 discriminator 1
 263 00ac 8868     		ldr	r0, [r1, #8]
 264 00ae 074A     		ldr	r2, .L22
 265 00b0 00F00C0C 		and	ip, r0, #12
 266 00b4 BCF1080F 		cmp	ip, #8
 267 00b8 F8D1     		bne	.L13
 268              		.loc 1 271 0 is_stmt 1
 269 00ba 516C     		ldr	r1, [r2, #68]
 270 00bc 41F48040 		orr	r0, r1, #16384
 271 00c0 5064     		str	r0, [r2, #68]
 272 00c2 536E     		ldr	r3, [r2, #100]
 273 00c4 43F48041 		orr	r1, r3, #16384
 274 00c8 5166     		str	r1, [r2, #100]
 275              		.loc 1 272 0
 276 00ca 7047     		bx	lr
 277              	.L23:
 278              		.align	2
 279              	.L22:
ARM GAS  C:\Users\DNIEL~1\AppData\Local\Temp\ccwPiY81.s 			page 6


 280 00cc 00380240 		.word	1073887232
 281 00d0 00700040 		.word	1073770496
 282 00d4 08544007 		.word	121656328
 283 00d8 00940838 		.word	940086272
 284              		.cfi_endproc
 285              	.LFE120:
 286              		.size	stm32_clock_init, .-stm32_clock_init
 287 00dc AFF30080 		.text
 288              	.Letext0:
 289              		.section	.debug_loc,"",%progbits
 290              	.Ldebug_loc0:
 291              	.LLST0:
 292 0000 00000000 		.4byte	.LFB119
 293 0004 0E000000 		.4byte	.LCFI0
 294 0008 0200     		.2byte	0x2
 295 000a 7D       		.byte	0x7d
 296 000b 00       		.sleb128 0
 297 000c 0E000000 		.4byte	.LCFI0
 298 0010 94000000 		.4byte	.LFE119
 299 0014 0200     		.2byte	0x2
 300 0016 7D       		.byte	0x7d
 301 0017 10       		.sleb128 16
 302 0018 00000000 		.4byte	0x0
 303 001c 00000000 		.4byte	0x0
 304              		.file 2 "c:\\program files (x86)\\codesourcery\\sourcery g++ lite\\bin\\../lib/gcc/arm-none-eabi/4
 305              		.file 3 "../../../Chibios/os/ports/common/ARMCMx/nvic.h"
 306              		.file 4 "../../../Chibios/os/ports/common/ARMCMx/CMSIS/include/core_cm4.h"
 307              		.file 5 "../../../Chibios/os/hal/platforms/STM32F4xx/stm32f4xx.h"
 308              		.section	.debug_info
 309 0000 EB040000 		.4byte	0x4eb
 310 0004 0200     		.2byte	0x2
 311 0006 00000000 		.4byte	.Ldebug_abbrev0
 312 000a 04       		.byte	0x4
 313 000b 01       		.uleb128 0x1
 314 000c 04030000 		.4byte	.LASF67
 315 0010 01       		.byte	0x1
 316 0011 35000000 		.4byte	.LASF68
 317 0015 B3020000 		.4byte	.LASF69
 318 0019 00000000 		.4byte	0x0
 319 001d 00000000 		.4byte	0x0
 320 0021 18000000 		.4byte	.Ldebug_ranges0+0x18
 321 0025 00000000 		.4byte	.Ldebug_line0
 322 0029 02       		.uleb128 0x2
 323 002a 04       		.byte	0x4
 324 002b 05       		.byte	0x5
 325 002c 696E7400 		.ascii	"int\000"
 326 0030 03       		.uleb128 0x3
 327 0031 04       		.byte	0x4
 328 0032 07       		.byte	0x7
 329 0033 97010000 		.4byte	.LASF0
 330 0037 03       		.uleb128 0x3
 331 0038 01       		.byte	0x1
 332 0039 06       		.byte	0x6
 333 003a 6B010000 		.4byte	.LASF1
 334 003e 03       		.uleb128 0x3
 335 003f 01       		.byte	0x1
 336 0040 08       		.byte	0x8
ARM GAS  C:\Users\DNIEL~1\AppData\Local\Temp\ccwPiY81.s 			page 7


 337 0041 55010000 		.4byte	.LASF2
 338 0045 03       		.uleb128 0x3
 339 0046 02       		.byte	0x2
 340 0047 05       		.byte	0x5
 341 0048 21000000 		.4byte	.LASF3
 342 004c 03       		.uleb128 0x3
 343 004d 02       		.byte	0x2
 344 004e 07       		.byte	0x7
 345 004f E1010000 		.4byte	.LASF4
 346 0053 04       		.uleb128 0x4
 347 0054 0B020000 		.4byte	.LASF6
 348 0058 02       		.byte	0x2
 349 0059 4F       		.byte	0x4f
 350 005a 5E000000 		.4byte	0x5e
 351 005e 03       		.uleb128 0x3
 352 005f 04       		.byte	0x4
 353 0060 05       		.byte	0x5
 354 0061 13010000 		.4byte	.LASF5
 355 0065 04       		.uleb128 0x4
 356 0066 8E010000 		.4byte	.LASF7
 357 006a 02       		.byte	0x2
 358 006b 50       		.byte	0x50
 359 006c 70000000 		.4byte	0x70
 360 0070 03       		.uleb128 0x3
 361 0071 04       		.byte	0x4
 362 0072 07       		.byte	0x7
 363 0073 AD010000 		.4byte	.LASF8
 364 0077 03       		.uleb128 0x3
 365 0078 08       		.byte	0x8
 366 0079 05       		.byte	0x5
 367 007a F2000000 		.4byte	.LASF9
 368 007e 03       		.uleb128 0x3
 369 007f 08       		.byte	0x8
 370 0080 07       		.byte	0x7
 371 0081 77010000 		.4byte	.LASF10
 372 0085 03       		.uleb128 0x3
 373 0086 01       		.byte	0x1
 374 0087 02       		.byte	0x2
 375 0088 13020000 		.4byte	.LASF11
 376 008c 05       		.uleb128 0x5
 377 008d 65000000 		.4byte	0x65
 378 0091 05       		.uleb128 0x5
 379 0092 70000000 		.4byte	0x70
 380 0096 06       		.uleb128 0x6
 381 0097 10       		.byte	0x10
 382 0098 03       		.byte	0x3
 383 0099 F1       		.byte	0xf1
 384 009a D7000000 		.4byte	0xd7
 385 009e 07       		.uleb128 0x7
 386 009f 0D010000 		.4byte	.LASF12
 387 00a3 03       		.byte	0x3
 388 00a4 F2       		.byte	0xf2
 389 00a5 91000000 		.4byte	0x91
 390 00a9 02       		.byte	0x2
 391 00aa 23       		.byte	0x23
 392 00ab 00       		.uleb128 0x0
 393 00ac 07       		.uleb128 0x7
ARM GAS  C:\Users\DNIEL~1\AppData\Local\Temp\ccwPiY81.s 			page 8


 394 00ad B3000000 		.4byte	.LASF13
 395 00b1 03       		.byte	0x3
 396 00b2 F3       		.byte	0xf3
 397 00b3 91000000 		.4byte	0x91
 398 00b7 02       		.byte	0x2
 399 00b8 23       		.byte	0x23
 400 00b9 04       		.uleb128 0x4
 401 00ba 07       		.uleb128 0x7
 402 00bb D4000000 		.4byte	.LASF14
 403 00bf 03       		.byte	0x3
 404 00c0 F4       		.byte	0xf4
 405 00c1 91000000 		.4byte	0x91
 406 00c5 02       		.byte	0x2
 407 00c6 23       		.byte	0x23
 408 00c7 08       		.uleb128 0x8
 409 00c8 07       		.uleb128 0x7
 410 00c9 1B000000 		.4byte	.LASF15
 411 00cd 03       		.byte	0x3
 412 00ce F5       		.byte	0xf5
 413 00cf 91000000 		.4byte	0x91
 414 00d3 02       		.byte	0x2
 415 00d4 23       		.byte	0x23
 416 00d5 0C       		.uleb128 0xc
 417 00d6 00       		.byte	0x0
 418 00d7 04       		.uleb128 0x4
 419 00d8 03020000 		.4byte	.LASF16
 420 00dc 03       		.byte	0x3
 421 00dd F6       		.byte	0xf6
 422 00de 96000000 		.4byte	0x96
 423 00e2 08       		.uleb128 0x8
 424 00e3 20       		.byte	0x20
 425 00e4 03       		.byte	0x3
 426 00e5 0601     		.2byte	0x106
 427 00e7 64010000 		.4byte	0x164
 428 00eb 09       		.uleb128 0x9
 429 00ec 90000000 		.4byte	.LASF17
 430 00f0 03       		.byte	0x3
 431 00f1 0701     		.2byte	0x107
 432 00f3 91000000 		.4byte	0x91
 433 00f7 02       		.byte	0x2
 434 00f8 23       		.byte	0x23
 435 00f9 00       		.uleb128 0x0
 436 00fa 09       		.uleb128 0x9
 437 00fb 00010000 		.4byte	.LASF18
 438 00ff 03       		.byte	0x3
 439 0100 0801     		.2byte	0x108
 440 0102 91000000 		.4byte	0x91
 441 0106 02       		.byte	0x2
 442 0107 23       		.byte	0x23
 443 0108 04       		.uleb128 0x4
 444 0109 09       		.uleb128 0x9
 445 010a A4000000 		.4byte	.LASF19
 446 010e 03       		.byte	0x3
 447 010f 0901     		.2byte	0x109
 448 0111 91000000 		.4byte	0x91
 449 0115 02       		.byte	0x2
 450 0116 23       		.byte	0x23
ARM GAS  C:\Users\DNIEL~1\AppData\Local\Temp\ccwPiY81.s 			page 9


 451 0117 08       		.uleb128 0x8
 452 0118 09       		.uleb128 0x9
 453 0119 4E010000 		.4byte	.LASF20
 454 011d 03       		.byte	0x3
 455 011e 0A01     		.2byte	0x10a
 456 0120 91000000 		.4byte	0x91
 457 0124 02       		.byte	0x2
 458 0125 23       		.byte	0x23
 459 0126 0C       		.uleb128 0xc
 460 0127 09       		.uleb128 0x9
 461 0128 71020000 		.4byte	.LASF21
 462 012c 03       		.byte	0x3
 463 012d 0B01     		.2byte	0x10b
 464 012f 91000000 		.4byte	0x91
 465 0133 02       		.byte	0x2
 466 0134 23       		.byte	0x23
 467 0135 10       		.uleb128 0x10
 468 0136 09       		.uleb128 0x9
 469 0137 7A020000 		.4byte	.LASF22
 470 013b 03       		.byte	0x3
 471 013c 0C01     		.2byte	0x10c
 472 013e 91000000 		.4byte	0x91
 473 0142 02       		.byte	0x2
 474 0143 23       		.byte	0x23
 475 0144 14       		.uleb128 0x14
 476 0145 09       		.uleb128 0x9
 477 0146 10030000 		.4byte	.LASF23
 478 014a 03       		.byte	0x3
 479 014b 0D01     		.2byte	0x10d
 480 014d 91000000 		.4byte	0x91
 481 0151 02       		.byte	0x2
 482 0152 23       		.byte	0x23
 483 0153 18       		.uleb128 0x18
 484 0154 09       		.uleb128 0x9
 485 0155 30000000 		.4byte	.LASF24
 486 0159 03       		.byte	0x3
 487 015a 0E01     		.2byte	0x10e
 488 015c 91000000 		.4byte	0x91
 489 0160 02       		.byte	0x2
 490 0161 23       		.byte	0x23
 491 0162 1C       		.uleb128 0x1c
 492 0163 00       		.byte	0x0
 493 0164 0A       		.uleb128 0xa
 494 0165 23020000 		.4byte	.LASF25
 495 0169 03       		.byte	0x3
 496 016a 0F01     		.2byte	0x10f
 497 016c E2000000 		.4byte	0xe2
 498 0170 03       		.uleb128 0x3
 499 0171 01       		.byte	0x1
 500 0172 08       		.byte	0x8
 501 0173 FE010000 		.4byte	.LASF26
 502 0177 0B       		.uleb128 0xb
 503 0178 8C000000 		.4byte	0x8c
 504 017c 0C       		.uleb128 0xc
 505 017d 65000000 		.4byte	0x65
 506 0181 8C010000 		.4byte	0x18c
 507 0185 0D       		.uleb128 0xd
ARM GAS  C:\Users\DNIEL~1\AppData\Local\Temp\ccwPiY81.s 			page 10


 508 0186 30000000 		.4byte	0x30
 509 018a 01       		.byte	0x1
 510 018b 00       		.byte	0x0
 511 018c 08       		.uleb128 0x8
 512 018d 10       		.byte	0x10
 513 018e 04       		.byte	0x4
 514 018f 6002     		.2byte	0x260
 515 0191 D2010000 		.4byte	0x1d2
 516 0195 09       		.uleb128 0x9
 517 0196 90000000 		.4byte	.LASF17
 518 019a 04       		.byte	0x4
 519 019b 6202     		.2byte	0x262
 520 019d 8C000000 		.4byte	0x8c
 521 01a1 02       		.byte	0x2
 522 01a2 23       		.byte	0x23
 523 01a3 00       		.uleb128 0x0
 524 01a4 09       		.uleb128 0x9
 525 01a5 81020000 		.4byte	.LASF27
 526 01a9 04       		.byte	0x4
 527 01aa 6302     		.2byte	0x263
 528 01ac 8C000000 		.4byte	0x8c
 529 01b0 02       		.byte	0x2
 530 01b1 23       		.byte	0x23
 531 01b2 04       		.uleb128 0x4
 532 01b3 0E       		.uleb128 0xe
 533 01b4 56414C00 		.ascii	"VAL\000"
 534 01b8 04       		.byte	0x4
 535 01b9 6402     		.2byte	0x264
 536 01bb 8C000000 		.4byte	0x8c
 537 01bf 02       		.byte	0x2
 538 01c0 23       		.byte	0x23
 539 01c1 08       		.uleb128 0x8
 540 01c2 09       		.uleb128 0x9
 541 01c3 07010000 		.4byte	.LASF28
 542 01c7 04       		.byte	0x4
 543 01c8 6502     		.2byte	0x265
 544 01ca 77010000 		.4byte	0x177
 545 01ce 02       		.byte	0x2
 546 01cf 23       		.byte	0x23
 547 01d0 0C       		.uleb128 0xc
 548 01d1 00       		.byte	0x0
 549 01d2 0A       		.uleb128 0xa
 550 01d3 D4010000 		.4byte	.LASF29
 551 01d7 04       		.byte	0x4
 552 01d8 6602     		.2byte	0x266
 553 01da 8C010000 		.4byte	0x18c
 554 01de 05       		.uleb128 0x5
 555 01df 53000000 		.4byte	0x53
 556 01e3 08       		.uleb128 0x8
 557 01e4 1C       		.byte	0x1c
 558 01e5 05       		.byte	0x5
 559 01e6 3E03     		.2byte	0x33e
 560 01e8 54020000 		.4byte	0x254
 561 01ec 0E       		.uleb128 0xe
 562 01ed 41435200 		.ascii	"ACR\000"
 563 01f1 05       		.byte	0x5
 564 01f2 4003     		.2byte	0x340
ARM GAS  C:\Users\DNIEL~1\AppData\Local\Temp\ccwPiY81.s 			page 11


 565 01f4 8C000000 		.4byte	0x8c
 566 01f8 02       		.byte	0x2
 567 01f9 23       		.byte	0x23
 568 01fa 00       		.uleb128 0x0
 569 01fb 09       		.uleb128 0x9
 570 01fc 49010000 		.4byte	.LASF30
 571 0200 05       		.byte	0x5
 572 0201 4103     		.2byte	0x341
 573 0203 8C000000 		.4byte	0x8c
 574 0207 02       		.byte	0x2
 575 0208 23       		.byte	0x23
 576 0209 04       		.uleb128 0x4
 577 020a 09       		.uleb128 0x9
 578 020b EA000000 		.4byte	.LASF31
 579 020f 05       		.byte	0x5
 580 0210 4203     		.2byte	0x342
 581 0212 8C000000 		.4byte	0x8c
 582 0216 02       		.byte	0x2
 583 0217 23       		.byte	0x23
 584 0218 08       		.uleb128 0x8
 585 0219 0E       		.uleb128 0xe
 586 021a 535200   		.ascii	"SR\000"
 587 021d 05       		.byte	0x5
 588 021e 4303     		.2byte	0x343
 589 0220 8C000000 		.4byte	0x8c
 590 0224 02       		.byte	0x2
 591 0225 23       		.byte	0x23
 592 0226 0C       		.uleb128 0xc
 593 0227 0E       		.uleb128 0xe
 594 0228 435200   		.ascii	"CR\000"
 595 022b 05       		.byte	0x5
 596 022c 4403     		.2byte	0x344
 597 022e 8C000000 		.4byte	0x8c
 598 0232 02       		.byte	0x2
 599 0233 23       		.byte	0x23
 600 0234 10       		.uleb128 0x10
 601 0235 09       		.uleb128 0x9
 602 0236 FE020000 		.4byte	.LASF32
 603 023a 05       		.byte	0x5
 604 023b 4503     		.2byte	0x345
 605 023d 8C000000 		.4byte	0x8c
 606 0241 02       		.byte	0x2
 607 0242 23       		.byte	0x23
 608 0243 14       		.uleb128 0x14
 609 0244 09       		.uleb128 0x9
 610 0245 42010000 		.4byte	.LASF33
 611 0249 05       		.byte	0x5
 612 024a 4603     		.2byte	0x346
 613 024c 8C000000 		.4byte	0x8c
 614 0250 02       		.byte	0x2
 615 0251 23       		.byte	0x23
 616 0252 18       		.uleb128 0x18
 617 0253 00       		.byte	0x0
 618 0254 0A       		.uleb128 0xa
 619 0255 98020000 		.4byte	.LASF34
 620 0259 05       		.byte	0x5
 621 025a 4703     		.2byte	0x347
ARM GAS  C:\Users\DNIEL~1\AppData\Local\Temp\ccwPiY81.s 			page 12


 622 025c E3010000 		.4byte	0x1e3
 623 0260 08       		.uleb128 0x8
 624 0261 08       		.byte	0x8
 625 0262 05       		.byte	0x5
 626 0263 4E04     		.2byte	0x44e
 627 0265 87020000 		.4byte	0x287
 628 0269 0E       		.uleb128 0xe
 629 026a 435200   		.ascii	"CR\000"
 630 026d 05       		.byte	0x5
 631 026e 5004     		.2byte	0x450
 632 0270 8C000000 		.4byte	0x8c
 633 0274 02       		.byte	0x2
 634 0275 23       		.byte	0x23
 635 0276 00       		.uleb128 0x0
 636 0277 0E       		.uleb128 0xe
 637 0278 43535200 		.ascii	"CSR\000"
 638 027c 05       		.byte	0x5
 639 027d 5104     		.2byte	0x451
 640 027f 8C000000 		.4byte	0x8c
 641 0283 02       		.byte	0x2
 642 0284 23       		.byte	0x23
 643 0285 04       		.uleb128 0x4
 644 0286 00       		.byte	0x0
 645 0287 0A       		.uleb128 0xa
 646 0288 76000000 		.4byte	.LASF35
 647 028c 05       		.byte	0x5
 648 028d 5204     		.2byte	0x452
 649 028f 60020000 		.4byte	0x260
 650 0293 08       		.uleb128 0x8
 651 0294 90       		.byte	0x90
 652 0295 05       		.byte	0x5
 653 0296 5804     		.2byte	0x458
 654 0298 80040000 		.4byte	0x480
 655 029c 0E       		.uleb128 0xe
 656 029d 435200   		.ascii	"CR\000"
 657 02a0 05       		.byte	0x5
 658 02a1 5A04     		.2byte	0x45a
 659 02a3 8C000000 		.4byte	0x8c
 660 02a7 02       		.byte	0x2
 661 02a8 23       		.byte	0x23
 662 02a9 00       		.uleb128 0x0
 663 02aa 09       		.uleb128 0x9
 664 02ab CC010000 		.4byte	.LASF36
 665 02af 05       		.byte	0x5
 666 02b0 5B04     		.2byte	0x45b
 667 02b2 8C000000 		.4byte	0x8c
 668 02b6 02       		.byte	0x2
 669 02b7 23       		.byte	0x23
 670 02b8 04       		.uleb128 0x4
 671 02b9 09       		.uleb128 0x9
 672 02ba 9F000000 		.4byte	.LASF37
 673 02be 05       		.byte	0x5
 674 02bf 5C04     		.2byte	0x45c
 675 02c1 8C000000 		.4byte	0x8c
 676 02c5 02       		.byte	0x2
 677 02c6 23       		.byte	0x23
 678 02c7 08       		.uleb128 0x8
ARM GAS  C:\Users\DNIEL~1\AppData\Local\Temp\ccwPiY81.s 			page 13


 679 02c8 0E       		.uleb128 0xe
 680 02c9 43495200 		.ascii	"CIR\000"
 681 02cd 05       		.byte	0x5
 682 02ce 5D04     		.2byte	0x45d
 683 02d0 8C000000 		.4byte	0x8c
 684 02d4 02       		.byte	0x2
 685 02d5 23       		.byte	0x23
 686 02d6 0C       		.uleb128 0xc
 687 02d7 09       		.uleb128 0x9
 688 02d8 86020000 		.4byte	.LASF38
 689 02dc 05       		.byte	0x5
 690 02dd 5E04     		.2byte	0x45e
 691 02df 8C000000 		.4byte	0x8c
 692 02e3 02       		.byte	0x2
 693 02e4 23       		.byte	0x23
 694 02e5 10       		.uleb128 0x10
 695 02e6 09       		.uleb128 0x9
 696 02e7 A4010000 		.4byte	.LASF39
 697 02eb 05       		.byte	0x5
 698 02ec 5F04     		.2byte	0x45f
 699 02ee 8C000000 		.4byte	0x8c
 700 02f2 02       		.byte	0x2
 701 02f3 23       		.byte	0x23
 702 02f4 14       		.uleb128 0x14
 703 02f5 09       		.uleb128 0x9
 704 02f6 8F020000 		.4byte	.LASF40
 705 02fa 05       		.byte	0x5
 706 02fb 6004     		.2byte	0x460
 707 02fd 8C000000 		.4byte	0x8c
 708 0301 02       		.byte	0x2
 709 0302 23       		.byte	0x23
 710 0303 18       		.uleb128 0x18
 711 0304 09       		.uleb128 0x9
 712 0305 2B020000 		.4byte	.LASF41
 713 0309 05       		.byte	0x5
 714 030a 6104     		.2byte	0x461
 715 030c 65000000 		.4byte	0x65
 716 0310 02       		.byte	0x2
 717 0311 23       		.byte	0x23
 718 0312 1C       		.uleb128 0x1c
 719 0313 09       		.uleb128 0x9
 720 0314 0A000000 		.4byte	.LASF42
 721 0318 05       		.byte	0x5
 722 0319 6204     		.2byte	0x462
 723 031b 8C000000 		.4byte	0x8c
 724 031f 02       		.byte	0x2
 725 0320 23       		.byte	0x23
 726 0321 20       		.uleb128 0x20
 727 0322 09       		.uleb128 0x9
 728 0323 28010000 		.4byte	.LASF43
 729 0327 05       		.byte	0x5
 730 0328 6304     		.2byte	0x463
 731 032a 8C000000 		.4byte	0x8c
 732 032e 02       		.byte	0x2
 733 032f 23       		.byte	0x23
 734 0330 24       		.uleb128 0x24
 735 0331 09       		.uleb128 0x9
ARM GAS  C:\Users\DNIEL~1\AppData\Local\Temp\ccwPiY81.s 			page 14


 736 0332 35020000 		.4byte	.LASF44
 737 0336 05       		.byte	0x5
 738 0337 6404     		.2byte	0x464
 739 0339 7C010000 		.4byte	0x17c
 740 033d 02       		.byte	0x2
 741 033e 23       		.byte	0x23
 742 033f 28       		.uleb128 0x28
 743 0340 09       		.uleb128 0x9
 744 0341 82000000 		.4byte	.LASF45
 745 0345 05       		.byte	0x5
 746 0346 6504     		.2byte	0x465
 747 0348 8C000000 		.4byte	0x8c
 748 034c 02       		.byte	0x2
 749 034d 23       		.byte	0x23
 750 034e 30       		.uleb128 0x30
 751 034f 09       		.uleb128 0x9
 752 0350 13000000 		.4byte	.LASF46
 753 0354 05       		.byte	0x5
 754 0355 6604     		.2byte	0x466
 755 0357 8C000000 		.4byte	0x8c
 756 035b 02       		.byte	0x2
 757 035c 23       		.byte	0x23
 758 035d 34       		.uleb128 0x34
 759 035e 09       		.uleb128 0x9
 760 035f E2000000 		.4byte	.LASF47
 761 0363 05       		.byte	0x5
 762 0364 6704     		.2byte	0x467
 763 0366 8C000000 		.4byte	0x8c
 764 036a 02       		.byte	0x2
 765 036b 23       		.byte	0x23
 766 036c 38       		.uleb128 0x38
 767 036d 09       		.uleb128 0x9
 768 036e 3F020000 		.4byte	.LASF48
 769 0372 05       		.byte	0x5
 770 0373 6804     		.2byte	0x468
 771 0375 65000000 		.4byte	0x65
 772 0379 02       		.byte	0x2
 773 037a 23       		.byte	0x23
 774 037b 3C       		.uleb128 0x3c
 775 037c 09       		.uleb128 0x9
 776 037d AB000000 		.4byte	.LASF49
 777 0381 05       		.byte	0x5
 778 0382 6904     		.2byte	0x469
 779 0384 8C000000 		.4byte	0x8c
 780 0388 02       		.byte	0x2
 781 0389 23       		.byte	0x23
 782 038a 40       		.uleb128 0x40
 783 038b 09       		.uleb128 0x9
 784 038c 63010000 		.4byte	.LASF50
 785 0390 05       		.byte	0x5
 786 0391 6A04     		.2byte	0x46a
 787 0393 8C000000 		.4byte	0x8c
 788 0397 02       		.byte	0x2
 789 0398 23       		.byte	0x23
 790 0399 44       		.uleb128 0x44
 791 039a 09       		.uleb128 0x9
 792 039b 49020000 		.4byte	.LASF51
ARM GAS  C:\Users\DNIEL~1\AppData\Local\Temp\ccwPiY81.s 			page 15


 793 039f 05       		.byte	0x5
 794 03a0 6B04     		.2byte	0x46b
 795 03a2 7C010000 		.4byte	0x17c
 796 03a6 02       		.byte	0x2
 797 03a7 23       		.byte	0x23
 798 03a8 48       		.uleb128 0x48
 799 03a9 09       		.uleb128 0x9
 800 03aa 00000000 		.4byte	.LASF52
 801 03ae 05       		.byte	0x5
 802 03af 6C04     		.2byte	0x46c
 803 03b1 8C000000 		.4byte	0x8c
 804 03b5 02       		.byte	0x2
 805 03b6 23       		.byte	0x23
 806 03b7 50       		.uleb128 0x50
 807 03b8 09       		.uleb128 0x9
 808 03b9 19020000 		.4byte	.LASF53
 809 03bd 05       		.byte	0x5
 810 03be 6D04     		.2byte	0x46d
 811 03c0 8C000000 		.4byte	0x8c
 812 03c4 02       		.byte	0x2
 813 03c5 23       		.byte	0x23
 814 03c6 54       		.uleb128 0x54
 815 03c7 09       		.uleb128 0x9
 816 03c8 95000000 		.4byte	.LASF54
 817 03cc 05       		.byte	0x5
 818 03cd 6E04     		.2byte	0x46e
 819 03cf 8C000000 		.4byte	0x8c
 820 03d3 02       		.byte	0x2
 821 03d4 23       		.byte	0x23
 822 03d5 58       		.uleb128 0x58
 823 03d6 09       		.uleb128 0x9
 824 03d7 53020000 		.4byte	.LASF55
 825 03db 05       		.byte	0x5
 826 03dc 6F04     		.2byte	0x46f
 827 03de 65000000 		.4byte	0x65
 828 03e2 02       		.byte	0x2
 829 03e3 23       		.byte	0x23
 830 03e4 5C       		.uleb128 0x5c
 831 03e5 09       		.uleb128 0x9
 832 03e6 F4010000 		.4byte	.LASF56
 833 03ea 05       		.byte	0x5
 834 03eb 7004     		.2byte	0x470
 835 03ed 8C000000 		.4byte	0x8c
 836 03f1 02       		.byte	0x2
 837 03f2 23       		.byte	0x23
 838 03f3 60       		.uleb128 0x60
 839 03f4 09       		.uleb128 0x9
 840 03f5 F4020000 		.4byte	.LASF57
 841 03f9 05       		.byte	0x5
 842 03fa 7104     		.2byte	0x471
 843 03fc 8C000000 		.4byte	0x8c
 844 0400 02       		.byte	0x2
 845 0401 23       		.byte	0x23
 846 0402 64       		.uleb128 0x64
 847 0403 09       		.uleb128 0x9
 848 0404 5D020000 		.4byte	.LASF58
 849 0408 05       		.byte	0x5
ARM GAS  C:\Users\DNIEL~1\AppData\Local\Temp\ccwPiY81.s 			page 16


 850 0409 7204     		.2byte	0x472
 851 040b 7C010000 		.4byte	0x17c
 852 040f 02       		.byte	0x2
 853 0410 23       		.byte	0x23
 854 0411 68       		.uleb128 0x68
 855 0412 09       		.uleb128 0x9
 856 0413 2B000000 		.4byte	.LASF59
 857 0417 05       		.byte	0x5
 858 0418 7304     		.2byte	0x473
 859 041a 8C000000 		.4byte	0x8c
 860 041e 02       		.byte	0x2
 861 041f 23       		.byte	0x23
 862 0420 70       		.uleb128 0x70
 863 0421 0E       		.uleb128 0xe
 864 0422 43535200 		.ascii	"CSR\000"
 865 0426 05       		.byte	0x5
 866 0427 7404     		.2byte	0x474
 867 0429 8C000000 		.4byte	0x8c
 868 042d 02       		.byte	0x2
 869 042e 23       		.byte	0x23
 870 042f 74       		.uleb128 0x74
 871 0430 09       		.uleb128 0x9
 872 0431 67020000 		.4byte	.LASF60
 873 0435 05       		.byte	0x5
 874 0436 7504     		.2byte	0x475
 875 0438 7C010000 		.4byte	0x17c
 876 043c 02       		.byte	0x2
 877 043d 23       		.byte	0x23
 878 043e 78       		.uleb128 0x78
 879 043f 09       		.uleb128 0x9
 880 0440 8A000000 		.4byte	.LASF61
 881 0444 05       		.byte	0x5
 882 0445 7604     		.2byte	0x476
 883 0447 8C000000 		.4byte	0x8c
 884 044b 03       		.byte	0x3
 885 044c 23       		.byte	0x23
 886 044d 8001     		.uleb128 0x80
 887 044f 09       		.uleb128 0x9
 888 0450 6B000000 		.4byte	.LASF62
 889 0454 05       		.byte	0x5
 890 0455 7704     		.2byte	0x477
 891 0457 8C000000 		.4byte	0x8c
 892 045b 03       		.byte	0x3
 893 045c 23       		.byte	0x23
 894 045d 8401     		.uleb128 0x84
 895 045f 09       		.uleb128 0x9
 896 0460 E9020000 		.4byte	.LASF63
 897 0464 05       		.byte	0x5
 898 0465 7804     		.2byte	0x478
 899 0467 8C000000 		.4byte	0x8c
 900 046b 03       		.byte	0x3
 901 046c 23       		.byte	0x23
 902 046d 8801     		.uleb128 0x88
 903 046f 09       		.uleb128 0x9
 904 0470 DA000000 		.4byte	.LASF64
 905 0474 05       		.byte	0x5
 906 0475 7904     		.2byte	0x479
ARM GAS  C:\Users\DNIEL~1\AppData\Local\Temp\ccwPiY81.s 			page 17


 907 0477 8C000000 		.4byte	0x8c
 908 047b 03       		.byte	0x3
 909 047c 23       		.byte	0x23
 910 047d 8C01     		.uleb128 0x8c
 911 047f 00       		.byte	0x0
 912 0480 0A       		.uleb128 0xa
 913 0481 1C010000 		.4byte	.LASF65
 914 0485 05       		.byte	0x5
 915 0486 7B04     		.2byte	0x47b
 916 0488 93020000 		.4byte	0x293
 917 048c 0F       		.uleb128 0xf
 918 048d B9000000 		.4byte	.LASF70
 919 0491 01       		.byte	0x1
 920 0492 33       		.byte	0x33
 921 0493 01       		.byte	0x1
 922 0494 01       		.byte	0x1
 923 0495 10       		.uleb128 0x10
 924 0496 01       		.byte	0x1
 925 0497 BF010000 		.4byte	.LASF71
 926 049b 01       		.byte	0x1
 927 049c 6F       		.byte	0x6f
 928 049d 01       		.byte	0x1
 929 049e 00000000 		.4byte	.LFB119
 930 04a2 94000000 		.4byte	.LFE119
 931 04a6 00000000 		.4byte	.LLST0
 932 04aa BE040000 		.4byte	0x4be
 933 04ae 11       		.uleb128 0x11
 934 04af 8C040000 		.4byte	0x48c
 935 04b3 1E000000 		.4byte	.LBB4
 936 04b7 00000000 		.4byte	.Ldebug_ranges0+0x0
 937 04bb 01       		.byte	0x1
 938 04bc 87       		.byte	0x87
 939 04bd 00       		.byte	0x0
 940 04be 12       		.uleb128 0x12
 941 04bf 01       		.byte	0x1
 942 04c0 31010000 		.4byte	.LASF72
 943 04c4 01       		.byte	0x1
 944 04c5 9A       		.byte	0x9a
 945 04c6 01       		.byte	0x1
 946 04c7 00000000 		.4byte	.LFB120
 947 04cb DC000000 		.4byte	.LFE120
 948 04cf 02       		.byte	0x2
 949 04d0 7D       		.byte	0x7d
 950 04d1 00       		.sleb128 0
 951 04d2 13       		.uleb128 0x13
 952 04d3 A6020000 		.4byte	.LASF66
 953 04d7 04       		.byte	0x4
 954 04d8 9806     		.2byte	0x698
 955 04da DE010000 		.4byte	0x1de
 956 04de 01       		.byte	0x1
 957 04df 01       		.byte	0x1
 958 04e0 13       		.uleb128 0x13
 959 04e1 A6020000 		.4byte	.LASF66
 960 04e5 04       		.byte	0x4
 961 04e6 9806     		.2byte	0x698
 962 04e8 DE010000 		.4byte	0x1de
 963 04ec 01       		.byte	0x1
ARM GAS  C:\Users\DNIEL~1\AppData\Local\Temp\ccwPiY81.s 			page 18


 964 04ed 01       		.byte	0x1
 965 04ee 00       		.byte	0x0
 966              		.section	.debug_abbrev
 967 0000 01       		.uleb128 0x1
 968 0001 11       		.uleb128 0x11
 969 0002 01       		.byte	0x1
 970 0003 25       		.uleb128 0x25
 971 0004 0E       		.uleb128 0xe
 972 0005 13       		.uleb128 0x13
 973 0006 0B       		.uleb128 0xb
 974 0007 03       		.uleb128 0x3
 975 0008 0E       		.uleb128 0xe
 976 0009 1B       		.uleb128 0x1b
 977 000a 0E       		.uleb128 0xe
 978 000b 11       		.uleb128 0x11
 979 000c 01       		.uleb128 0x1
 980 000d 52       		.uleb128 0x52
 981 000e 01       		.uleb128 0x1
 982 000f 55       		.uleb128 0x55
 983 0010 06       		.uleb128 0x6
 984 0011 10       		.uleb128 0x10
 985 0012 06       		.uleb128 0x6
 986 0013 00       		.byte	0x0
 987 0014 00       		.byte	0x0
 988 0015 02       		.uleb128 0x2
 989 0016 24       		.uleb128 0x24
 990 0017 00       		.byte	0x0
 991 0018 0B       		.uleb128 0xb
 992 0019 0B       		.uleb128 0xb
 993 001a 3E       		.uleb128 0x3e
 994 001b 0B       		.uleb128 0xb
 995 001c 03       		.uleb128 0x3
 996 001d 08       		.uleb128 0x8
 997 001e 00       		.byte	0x0
 998 001f 00       		.byte	0x0
 999 0020 03       		.uleb128 0x3
 1000 0021 24       		.uleb128 0x24
 1001 0022 00       		.byte	0x0
 1002 0023 0B       		.uleb128 0xb
 1003 0024 0B       		.uleb128 0xb
 1004 0025 3E       		.uleb128 0x3e
 1005 0026 0B       		.uleb128 0xb
 1006 0027 03       		.uleb128 0x3
 1007 0028 0E       		.uleb128 0xe
 1008 0029 00       		.byte	0x0
 1009 002a 00       		.byte	0x0
 1010 002b 04       		.uleb128 0x4
 1011 002c 16       		.uleb128 0x16
 1012 002d 00       		.byte	0x0
 1013 002e 03       		.uleb128 0x3
 1014 002f 0E       		.uleb128 0xe
 1015 0030 3A       		.uleb128 0x3a
 1016 0031 0B       		.uleb128 0xb
 1017 0032 3B       		.uleb128 0x3b
 1018 0033 0B       		.uleb128 0xb
 1019 0034 49       		.uleb128 0x49
 1020 0035 13       		.uleb128 0x13
ARM GAS  C:\Users\DNIEL~1\AppData\Local\Temp\ccwPiY81.s 			page 19


 1021 0036 00       		.byte	0x0
 1022 0037 00       		.byte	0x0
 1023 0038 05       		.uleb128 0x5
 1024 0039 35       		.uleb128 0x35
 1025 003a 00       		.byte	0x0
 1026 003b 49       		.uleb128 0x49
 1027 003c 13       		.uleb128 0x13
 1028 003d 00       		.byte	0x0
 1029 003e 00       		.byte	0x0
 1030 003f 06       		.uleb128 0x6
 1031 0040 13       		.uleb128 0x13
 1032 0041 01       		.byte	0x1
 1033 0042 0B       		.uleb128 0xb
 1034 0043 0B       		.uleb128 0xb
 1035 0044 3A       		.uleb128 0x3a
 1036 0045 0B       		.uleb128 0xb
 1037 0046 3B       		.uleb128 0x3b
 1038 0047 0B       		.uleb128 0xb
 1039 0048 01       		.uleb128 0x1
 1040 0049 13       		.uleb128 0x13
 1041 004a 00       		.byte	0x0
 1042 004b 00       		.byte	0x0
 1043 004c 07       		.uleb128 0x7
 1044 004d 0D       		.uleb128 0xd
 1045 004e 00       		.byte	0x0
 1046 004f 03       		.uleb128 0x3
 1047 0050 0E       		.uleb128 0xe
 1048 0051 3A       		.uleb128 0x3a
 1049 0052 0B       		.uleb128 0xb
 1050 0053 3B       		.uleb128 0x3b
 1051 0054 0B       		.uleb128 0xb
 1052 0055 49       		.uleb128 0x49
 1053 0056 13       		.uleb128 0x13
 1054 0057 38       		.uleb128 0x38
 1055 0058 0A       		.uleb128 0xa
 1056 0059 00       		.byte	0x0
 1057 005a 00       		.byte	0x0
 1058 005b 08       		.uleb128 0x8
 1059 005c 13       		.uleb128 0x13
 1060 005d 01       		.byte	0x1
 1061 005e 0B       		.uleb128 0xb
 1062 005f 0B       		.uleb128 0xb
 1063 0060 3A       		.uleb128 0x3a
 1064 0061 0B       		.uleb128 0xb
 1065 0062 3B       		.uleb128 0x3b
 1066 0063 05       		.uleb128 0x5
 1067 0064 01       		.uleb128 0x1
 1068 0065 13       		.uleb128 0x13
 1069 0066 00       		.byte	0x0
 1070 0067 00       		.byte	0x0
 1071 0068 09       		.uleb128 0x9
 1072 0069 0D       		.uleb128 0xd
 1073 006a 00       		.byte	0x0
 1074 006b 03       		.uleb128 0x3
 1075 006c 0E       		.uleb128 0xe
 1076 006d 3A       		.uleb128 0x3a
 1077 006e 0B       		.uleb128 0xb
ARM GAS  C:\Users\DNIEL~1\AppData\Local\Temp\ccwPiY81.s 			page 20


 1078 006f 3B       		.uleb128 0x3b
 1079 0070 05       		.uleb128 0x5
 1080 0071 49       		.uleb128 0x49
 1081 0072 13       		.uleb128 0x13
 1082 0073 38       		.uleb128 0x38
 1083 0074 0A       		.uleb128 0xa
 1084 0075 00       		.byte	0x0
 1085 0076 00       		.byte	0x0
 1086 0077 0A       		.uleb128 0xa
 1087 0078 16       		.uleb128 0x16
 1088 0079 00       		.byte	0x0
 1089 007a 03       		.uleb128 0x3
 1090 007b 0E       		.uleb128 0xe
 1091 007c 3A       		.uleb128 0x3a
 1092 007d 0B       		.uleb128 0xb
 1093 007e 3B       		.uleb128 0x3b
 1094 007f 05       		.uleb128 0x5
 1095 0080 49       		.uleb128 0x49
 1096 0081 13       		.uleb128 0x13
 1097 0082 00       		.byte	0x0
 1098 0083 00       		.byte	0x0
 1099 0084 0B       		.uleb128 0xb
 1100 0085 26       		.uleb128 0x26
 1101 0086 00       		.byte	0x0
 1102 0087 49       		.uleb128 0x49
 1103 0088 13       		.uleb128 0x13
 1104 0089 00       		.byte	0x0
 1105 008a 00       		.byte	0x0
 1106 008b 0C       		.uleb128 0xc
 1107 008c 01       		.uleb128 0x1
 1108 008d 01       		.byte	0x1
 1109 008e 49       		.uleb128 0x49
 1110 008f 13       		.uleb128 0x13
 1111 0090 01       		.uleb128 0x1
 1112 0091 13       		.uleb128 0x13
 1113 0092 00       		.byte	0x0
 1114 0093 00       		.byte	0x0
 1115 0094 0D       		.uleb128 0xd
 1116 0095 21       		.uleb128 0x21
 1117 0096 00       		.byte	0x0
 1118 0097 49       		.uleb128 0x49
 1119 0098 13       		.uleb128 0x13
 1120 0099 2F       		.uleb128 0x2f
 1121 009a 0B       		.uleb128 0xb
 1122 009b 00       		.byte	0x0
 1123 009c 00       		.byte	0x0
 1124 009d 0E       		.uleb128 0xe
 1125 009e 0D       		.uleb128 0xd
 1126 009f 00       		.byte	0x0
 1127 00a0 03       		.uleb128 0x3
 1128 00a1 08       		.uleb128 0x8
 1129 00a2 3A       		.uleb128 0x3a
 1130 00a3 0B       		.uleb128 0xb
 1131 00a4 3B       		.uleb128 0x3b
 1132 00a5 05       		.uleb128 0x5
 1133 00a6 49       		.uleb128 0x49
 1134 00a7 13       		.uleb128 0x13
ARM GAS  C:\Users\DNIEL~1\AppData\Local\Temp\ccwPiY81.s 			page 21


 1135 00a8 38       		.uleb128 0x38
 1136 00a9 0A       		.uleb128 0xa
 1137 00aa 00       		.byte	0x0
 1138 00ab 00       		.byte	0x0
 1139 00ac 0F       		.uleb128 0xf
 1140 00ad 2E       		.uleb128 0x2e
 1141 00ae 00       		.byte	0x0
 1142 00af 03       		.uleb128 0x3
 1143 00b0 0E       		.uleb128 0xe
 1144 00b1 3A       		.uleb128 0x3a
 1145 00b2 0B       		.uleb128 0xb
 1146 00b3 3B       		.uleb128 0x3b
 1147 00b4 0B       		.uleb128 0xb
 1148 00b5 27       		.uleb128 0x27
 1149 00b6 0C       		.uleb128 0xc
 1150 00b7 20       		.uleb128 0x20
 1151 00b8 0B       		.uleb128 0xb
 1152 00b9 00       		.byte	0x0
 1153 00ba 00       		.byte	0x0
 1154 00bb 10       		.uleb128 0x10
 1155 00bc 2E       		.uleb128 0x2e
 1156 00bd 01       		.byte	0x1
 1157 00be 3F       		.uleb128 0x3f
 1158 00bf 0C       		.uleb128 0xc
 1159 00c0 03       		.uleb128 0x3
 1160 00c1 0E       		.uleb128 0xe
 1161 00c2 3A       		.uleb128 0x3a
 1162 00c3 0B       		.uleb128 0xb
 1163 00c4 3B       		.uleb128 0x3b
 1164 00c5 0B       		.uleb128 0xb
 1165 00c6 27       		.uleb128 0x27
 1166 00c7 0C       		.uleb128 0xc
 1167 00c8 11       		.uleb128 0x11
 1168 00c9 01       		.uleb128 0x1
 1169 00ca 12       		.uleb128 0x12
 1170 00cb 01       		.uleb128 0x1
 1171 00cc 40       		.uleb128 0x40
 1172 00cd 06       		.uleb128 0x6
 1173 00ce 01       		.uleb128 0x1
 1174 00cf 13       		.uleb128 0x13
 1175 00d0 00       		.byte	0x0
 1176 00d1 00       		.byte	0x0
 1177 00d2 11       		.uleb128 0x11
 1178 00d3 1D       		.uleb128 0x1d
 1179 00d4 00       		.byte	0x0
 1180 00d5 31       		.uleb128 0x31
 1181 00d6 13       		.uleb128 0x13
 1182 00d7 52       		.uleb128 0x52
 1183 00d8 01       		.uleb128 0x1
 1184 00d9 55       		.uleb128 0x55
 1185 00da 06       		.uleb128 0x6
 1186 00db 58       		.uleb128 0x58
 1187 00dc 0B       		.uleb128 0xb
 1188 00dd 59       		.uleb128 0x59
 1189 00de 0B       		.uleb128 0xb
 1190 00df 00       		.byte	0x0
 1191 00e0 00       		.byte	0x0
ARM GAS  C:\Users\DNIEL~1\AppData\Local\Temp\ccwPiY81.s 			page 22


 1192 00e1 12       		.uleb128 0x12
 1193 00e2 2E       		.uleb128 0x2e
 1194 00e3 00       		.byte	0x0
 1195 00e4 3F       		.uleb128 0x3f
 1196 00e5 0C       		.uleb128 0xc
 1197 00e6 03       		.uleb128 0x3
 1198 00e7 0E       		.uleb128 0xe
 1199 00e8 3A       		.uleb128 0x3a
 1200 00e9 0B       		.uleb128 0xb
 1201 00ea 3B       		.uleb128 0x3b
 1202 00eb 0B       		.uleb128 0xb
 1203 00ec 27       		.uleb128 0x27
 1204 00ed 0C       		.uleb128 0xc
 1205 00ee 11       		.uleb128 0x11
 1206 00ef 01       		.uleb128 0x1
 1207 00f0 12       		.uleb128 0x12
 1208 00f1 01       		.uleb128 0x1
 1209 00f2 40       		.uleb128 0x40
 1210 00f3 0A       		.uleb128 0xa
 1211 00f4 00       		.byte	0x0
 1212 00f5 00       		.byte	0x0
 1213 00f6 13       		.uleb128 0x13
 1214 00f7 34       		.uleb128 0x34
 1215 00f8 00       		.byte	0x0
 1216 00f9 03       		.uleb128 0x3
 1217 00fa 0E       		.uleb128 0xe
 1218 00fb 3A       		.uleb128 0x3a
 1219 00fc 0B       		.uleb128 0xb
 1220 00fd 3B       		.uleb128 0x3b
 1221 00fe 05       		.uleb128 0x5
 1222 00ff 49       		.uleb128 0x49
 1223 0100 13       		.uleb128 0x13
 1224 0101 3F       		.uleb128 0x3f
 1225 0102 0C       		.uleb128 0xc
 1226 0103 3C       		.uleb128 0x3c
 1227 0104 0C       		.uleb128 0xc
 1228 0105 00       		.byte	0x0
 1229 0106 00       		.byte	0x0
 1230 0107 00       		.byte	0x0
 1231              		.section	.debug_pubnames,"",%progbits
 1232 0000 34000000 		.4byte	0x34
 1233 0004 0200     		.2byte	0x2
 1234 0006 00000000 		.4byte	.Ldebug_info0
 1235 000a EF040000 		.4byte	0x4ef
 1236 000e 95040000 		.4byte	0x495
 1237 0012 68616C5F 		.ascii	"hal_lld_init\000"
 1237      6C6C645F 
 1237      696E6974 
 1237      00
 1238 001f BE040000 		.4byte	0x4be
 1239 0023 73746D33 		.ascii	"stm32_clock_init\000"
 1239      325F636C 
 1239      6F636B5F 
 1239      696E6974 
 1239      00
 1240 0034 00000000 		.4byte	0x0
 1241              		.section	.debug_pubtypes,"",%progbits
ARM GAS  C:\Users\DNIEL~1\AppData\Local\Temp\ccwPiY81.s 			page 23


 1242 0000 82000000 		.4byte	0x82
 1243 0004 0200     		.2byte	0x2
 1244 0006 00000000 		.4byte	.Ldebug_info0
 1245 000a EF040000 		.4byte	0x4ef
 1246 000e 53000000 		.4byte	0x53
 1247 0012 696E7433 		.ascii	"int32_t\000"
 1247      325F7400 
 1248 001a 65000000 		.4byte	0x65
 1249 001e 75696E74 		.ascii	"uint32_t\000"
 1249      33325F74 
 1249      00
 1250 0027 D7000000 		.4byte	0xd7
 1251 002b 434D785F 		.ascii	"CMx_SCS\000"
 1251      53435300 
 1252 0033 64010000 		.4byte	0x164
 1253 0037 434D785F 		.ascii	"CMx_DWT\000"
 1253      44575400 
 1254 003f D2010000 		.4byte	0x1d2
 1255 0043 53797354 		.ascii	"SysTick_Type\000"
 1255      69636B5F 
 1255      54797065 
 1255      00
 1256 0050 54020000 		.4byte	0x254
 1257 0054 464C4153 		.ascii	"FLASH_TypeDef\000"
 1257      485F5479 
 1257      70654465 
 1257      6600
 1258 0062 87020000 		.4byte	0x287
 1259 0066 5057525F 		.ascii	"PWR_TypeDef\000"
 1259      54797065 
 1259      44656600 
 1260 0072 80040000 		.4byte	0x480
 1261 0076 5243435F 		.ascii	"RCC_TypeDef\000"
 1261      54797065 
 1261      44656600 
 1262 0082 00000000 		.4byte	0x0
 1263              		.section	.debug_aranges,"",%progbits
 1264 0000 24000000 		.4byte	0x24
 1265 0004 0200     		.2byte	0x2
 1266 0006 00000000 		.4byte	.Ldebug_info0
 1267 000a 04       		.byte	0x4
 1268 000b 00       		.byte	0x0
 1269 000c 0000     		.2byte	0x0
 1270 000e 0000     		.2byte	0x0
 1271 0010 00000000 		.4byte	.LFB119
 1272 0014 94000000 		.4byte	.LFE119-.LFB119
 1273 0018 00000000 		.4byte	.LFB120
 1274 001c DC000000 		.4byte	.LFE120-.LFB120
 1275 0020 00000000 		.4byte	0x0
 1276 0024 00000000 		.4byte	0x0
 1277              		.section	.debug_ranges,"",%progbits
 1278              	.Ldebug_ranges0:
 1279 0000 1E000000 		.4byte	.LBB4
 1280 0004 20000000 		.4byte	.LBE4
 1281 0008 50000000 		.4byte	.LBB7
 1282 000c 76000000 		.4byte	.LBE7
 1283 0010 00000000 		.4byte	0x0
ARM GAS  C:\Users\DNIEL~1\AppData\Local\Temp\ccwPiY81.s 			page 24


 1284 0014 00000000 		.4byte	0x0
 1285 0018 00000000 		.4byte	.LFB119
 1286 001c 94000000 		.4byte	.LFE119
 1287 0020 00000000 		.4byte	.LFB120
 1288 0024 DC000000 		.4byte	.LFE120
 1289 0028 00000000 		.4byte	0x0
 1290 002c 00000000 		.4byte	0x0
 1291              		.section	.debug_str,"MS",%progbits,1
 1292              	.LASF52:
 1293 0000 41484231 		.ascii	"AHB1LPENR\000"
 1293      4C50454E 
 1293      5200
 1294              	.LASF42:
 1295 000a 41504231 		.ascii	"APB1RSTR\000"
 1295      52535452 
 1295      00
 1296              	.LASF46:
 1297 0013 41484232 		.ascii	"AHB2ENR\000"
 1297      454E5200 
 1298              	.LASF15:
 1299 001b 44454D43 		.ascii	"DEMCR\000"
 1299      5200
 1300              	.LASF3:
 1301 0021 73686F72 		.ascii	"short int\000"
 1301      7420696E 
 1301      7400
 1302              	.LASF59:
 1303 002b 42444352 		.ascii	"BDCR\000"
 1303      00
 1304              	.LASF24:
 1305 0030 50435352 		.ascii	"PCSR\000"
 1305      00
 1306              	.LASF68:
 1307 0035 2E2E2F2E 		.ascii	"../../../Chibios/os/hal/platforms/STM32F4xx/hal_lld"
 1307      2E2F2E2E 
 1307      2F436869 
 1307      62696F73 
 1307      2F6F732F 
 1308 0068 2E6300   		.ascii	".c\000"
 1309              	.LASF62:
 1310 006b 504C4C49 		.ascii	"PLLI2SCFGR\000"
 1310      32534346 
 1310      475200
 1311              	.LASF35:
 1312 0076 5057525F 		.ascii	"PWR_TypeDef\000"
 1312      54797065 
 1312      44656600 
 1313              	.LASF45:
 1314 0082 41484231 		.ascii	"AHB1ENR\000"
 1314      454E5200 
 1315              	.LASF61:
 1316 008a 53534347 		.ascii	"SSCGR\000"
 1316      5200
 1317              	.LASF17:
 1318 0090 4354524C 		.ascii	"CTRL\000"
 1318      00
 1319              	.LASF54:
ARM GAS  C:\Users\DNIEL~1\AppData\Local\Temp\ccwPiY81.s 			page 25


 1320 0095 41484233 		.ascii	"AHB3LPENR\000"
 1320      4C50454E 
 1320      5200
 1321              	.LASF37:
 1322 009f 43464752 		.ascii	"CFGR\000"
 1322      00
 1323              	.LASF19:
 1324 00a4 43504943 		.ascii	"CPICNT\000"
 1324      4E5400
 1325              	.LASF49:
 1326 00ab 41504231 		.ascii	"APB1ENR\000"
 1326      454E5200 
 1327              	.LASF13:
 1328 00b3 44435253 		.ascii	"DCRSR\000"
 1328      5200
 1329              	.LASF70:
 1330 00b9 68616C5F 		.ascii	"hal_lld_backup_domain_init\000"
 1330      6C6C645F 
 1330      6261636B 
 1330      75705F64 
 1330      6F6D6169 
 1331              	.LASF14:
 1332 00d4 44435244 		.ascii	"DCRDR\000"
 1332      5200
 1333              	.LASF64:
 1334 00da 44434B43 		.ascii	"DCKCFGR\000"
 1334      46475200 
 1335              	.LASF47:
 1336 00e2 41484233 		.ascii	"AHB3ENR\000"
 1336      454E5200 
 1337              	.LASF31:
 1338 00ea 4F50544B 		.ascii	"OPTKEYR\000"
 1338      45595200 
 1339              	.LASF9:
 1340 00f2 6C6F6E67 		.ascii	"long long int\000"
 1340      206C6F6E 
 1340      6720696E 
 1340      7400
 1341              	.LASF18:
 1342 0100 43594343 		.ascii	"CYCCNT\000"
 1342      4E5400
 1343              	.LASF28:
 1344 0107 43414C49 		.ascii	"CALIB\000"
 1344      4200
 1345              	.LASF12:
 1346 010d 44484353 		.ascii	"DHCSR\000"
 1346      5200
 1347              	.LASF5:
 1348 0113 6C6F6E67 		.ascii	"long int\000"
 1348      20696E74 
 1348      00
 1349              	.LASF65:
 1350 011c 5243435F 		.ascii	"RCC_TypeDef\000"
 1350      54797065 
 1350      44656600 
 1351              	.LASF43:
 1352 0128 41504232 		.ascii	"APB2RSTR\000"
ARM GAS  C:\Users\DNIEL~1\AppData\Local\Temp\ccwPiY81.s 			page 26


 1352      52535452 
 1352      00
 1353              	.LASF72:
 1354 0131 73746D33 		.ascii	"stm32_clock_init\000"
 1354      325F636C 
 1354      6F636B5F 
 1354      696E6974 
 1354      00
 1355              	.LASF33:
 1356 0142 4F505443 		.ascii	"OPTCR1\000"
 1356      523100
 1357              	.LASF30:
 1358 0149 4B455952 		.ascii	"KEYR\000"
 1358      00
 1359              	.LASF20:
 1360 014e 45584343 		.ascii	"EXCCNT\000"
 1360      4E5400
 1361              	.LASF2:
 1362 0155 756E7369 		.ascii	"unsigned char\000"
 1362      676E6564 
 1362      20636861 
 1362      7200
 1363              	.LASF50:
 1364 0163 41504232 		.ascii	"APB2ENR\000"
 1364      454E5200 
 1365              	.LASF1:
 1366 016b 7369676E 		.ascii	"signed char\000"
 1366      65642063 
 1366      68617200 
 1367              	.LASF10:
 1368 0177 6C6F6E67 		.ascii	"long long unsigned int\000"
 1368      206C6F6E 
 1368      6720756E 
 1368      7369676E 
 1368      65642069 
 1369              	.LASF7:
 1370 018e 75696E74 		.ascii	"uint32_t\000"
 1370      33325F74 
 1370      00
 1371              	.LASF0:
 1372 0197 756E7369 		.ascii	"unsigned int\000"
 1372      676E6564 
 1372      20696E74 
 1372      00
 1373              	.LASF39:
 1374 01a4 41484232 		.ascii	"AHB2RSTR\000"
 1374      52535452 
 1374      00
 1375              	.LASF8:
 1376 01ad 6C6F6E67 		.ascii	"long unsigned int\000"
 1376      20756E73 
 1376      69676E65 
 1376      6420696E 
 1376      7400
 1377              	.LASF71:
 1378 01bf 68616C5F 		.ascii	"hal_lld_init\000"
 1378      6C6C645F 
ARM GAS  C:\Users\DNIEL~1\AppData\Local\Temp\ccwPiY81.s 			page 27


 1378      696E6974 
 1378      00
 1379              	.LASF36:
 1380 01cc 504C4C43 		.ascii	"PLLCFGR\000"
 1380      46475200 
 1381              	.LASF29:
 1382 01d4 53797354 		.ascii	"SysTick_Type\000"
 1382      69636B5F 
 1382      54797065 
 1382      00
 1383              	.LASF4:
 1384 01e1 73686F72 		.ascii	"short unsigned int\000"
 1384      7420756E 
 1384      7369676E 
 1384      65642069 
 1384      6E7400
 1385              	.LASF56:
 1386 01f4 41504231 		.ascii	"APB1LPENR\000"
 1386      4C50454E 
 1386      5200
 1387              	.LASF26:
 1388 01fe 63686172 		.ascii	"char\000"
 1388      00
 1389              	.LASF16:
 1390 0203 434D785F 		.ascii	"CMx_SCS\000"
 1390      53435300 
 1391              	.LASF6:
 1392 020b 696E7433 		.ascii	"int32_t\000"
 1392      325F7400 
 1393              	.LASF11:
 1394 0213 5F426F6F 		.ascii	"_Bool\000"
 1394      6C00
 1395              	.LASF53:
 1396 0219 41484232 		.ascii	"AHB2LPENR\000"
 1396      4C50454E 
 1396      5200
 1397              	.LASF25:
 1398 0223 434D785F 		.ascii	"CMx_DWT\000"
 1398      44575400 
 1399              	.LASF41:
 1400 022b 52455345 		.ascii	"RESERVED0\000"
 1400      52564544 
 1400      3000
 1401              	.LASF44:
 1402 0235 52455345 		.ascii	"RESERVED1\000"
 1402      52564544 
 1402      3100
 1403              	.LASF48:
 1404 023f 52455345 		.ascii	"RESERVED2\000"
 1404      52564544 
 1404      3200
 1405              	.LASF51:
 1406 0249 52455345 		.ascii	"RESERVED3\000"
 1406      52564544 
 1406      3300
 1407              	.LASF55:
 1408 0253 52455345 		.ascii	"RESERVED4\000"
ARM GAS  C:\Users\DNIEL~1\AppData\Local\Temp\ccwPiY81.s 			page 28


 1408      52564544 
 1408      3400
 1409              	.LASF58:
 1410 025d 52455345 		.ascii	"RESERVED5\000"
 1410      52564544 
 1410      3500
 1411              	.LASF60:
 1412 0267 52455345 		.ascii	"RESERVED6\000"
 1412      52564544 
 1412      3600
 1413              	.LASF21:
 1414 0271 534C4545 		.ascii	"SLEEPCNT\000"
 1414      50434E54 
 1414      00
 1415              	.LASF22:
 1416 027a 4C535543 		.ascii	"LSUCNT\000"
 1416      4E5400
 1417              	.LASF27:
 1418 0281 4C4F4144 		.ascii	"LOAD\000"
 1418      00
 1419              	.LASF38:
 1420 0286 41484231 		.ascii	"AHB1RSTR\000"
 1420      52535452 
 1420      00
 1421              	.LASF40:
 1422 028f 41484233 		.ascii	"AHB3RSTR\000"
 1422      52535452 
 1422      00
 1423              	.LASF34:
 1424 0298 464C4153 		.ascii	"FLASH_TypeDef\000"
 1424      485F5479 
 1424      70654465 
 1424      6600
 1425              	.LASF66:
 1426 02a6 49544D5F 		.ascii	"ITM_RxBuffer\000"
 1426      52784275 
 1426      66666572 
 1426      00
 1427              	.LASF69:
 1428 02b3 433A5C44 		.ascii	"C:\\Dani\\MegaLux\\Repo\\Modulux\\Modulux\\modulux\\"
 1428      616E695C 
 1428      4D656761 
 1428      4C75785C 
 1428      5265706F 
 1429 02e0 6669726D 		.ascii	"firmware\000"
 1429      77617265 
 1429      00
 1430              	.LASF63:
 1431 02e9 504C4C53 		.ascii	"PLLSAICFGR\000"
 1431      41494346 
 1431      475200
 1432              	.LASF57:
 1433 02f4 41504232 		.ascii	"APB2LPENR\000"
 1433      4C50454E 
 1433      5200
 1434              	.LASF32:
 1435 02fe 4F505443 		.ascii	"OPTCR\000"
ARM GAS  C:\Users\DNIEL~1\AppData\Local\Temp\ccwPiY81.s 			page 29


 1435      5200
 1436              	.LASF67:
 1437 0304 474E5520 		.ascii	"GNU C 4.5.2\000"
 1437      4320342E 
 1437      352E3200 
 1438              	.LASF23:
 1439 0310 464F4C44 		.ascii	"FOLDCNT\000"
 1439      434E5400 
 1440              		.ident	"GCC: (Sourcery G++ Lite 2011.03-42) 4.5.2"
ARM GAS  C:\Users\DNIEL~1\AppData\Local\Temp\ccwPiY81.s 			page 30


DEFINED SYMBOLS
                            *ABS*:00000000 hal_lld.c
C:\Users\DNIEL~1\AppData\Local\Temp\ccwPiY81.s:24     .text.hal_lld_init:00000000 $t
C:\Users\DNIEL~1\AppData\Local\Temp\ccwPiY81.s:30     .text.hal_lld_init:00000000 hal_lld_init
C:\Users\DNIEL~1\AppData\Local\Temp\ccwPiY81.s:135    .text.hal_lld_init:0000007c $d
C:\Users\DNIEL~1\AppData\Local\Temp\ccwPiY81.s:145    .text.stm32_clock_init:00000000 $t
C:\Users\DNIEL~1\AppData\Local\Temp\ccwPiY81.s:151    .text.stm32_clock_init:00000000 stm32_clock_init
C:\Users\DNIEL~1\AppData\Local\Temp\ccwPiY81.s:280    .text.stm32_clock_init:000000cc $d
                     .debug_frame:00000010 $d
C:\Users\DNIEL~1\AppData\Local\Temp\ccwPiY81.s:144    .text.hal_lld_init:00000094 $t
C:\Users\DNIEL~1\AppData\Local\Temp\ccwPiY81.s:287    .text.stm32_clock_init:000000dc $t

UNDEFINED SYMBOLS
dmaInit
