ARM GAS  C:\Users\RICHRD~1\AppData\Local\Temp\cciH5zWJ.s 			page 1


   1              		.syntax unified
   2              		.cpu cortex-m4
   3              		.fpu softvfp
   4              		.eabi_attribute 20, 1
   5              		.eabi_attribute 21, 1
   6              		.eabi_attribute 23, 3
   7              		.eabi_attribute 24, 1
   8              		.eabi_attribute 25, 1
   9              		.eabi_attribute 26, 1
  10              		.eabi_attribute 30, 2
  11              		.eabi_attribute 34, 1
  12              		.eabi_attribute 18, 4
  13              		.thumb
  14              		.file	"light.c"
  15              		.text
  16              	.Ltext0:
  17              		.cfi_sections	.debug_frame
  18              		.section	.text.chprintf,"ax",%progbits
  19              		.align	2
  20              		.p2align 4,,15
  21              		.thumb
  22              		.thumb_func
  23              		.type	chprintf, %function
  24              	chprintf:
  25              	.LFB118:
  26              		.file 1 "../../Chibios/os/various/chprintf.h"
  27              		.loc 1 69 0
  28              		.cfi_startproc
  29              		@ args = 4, pretend = 12, frame = 8
  30              		@ frame_needed = 0, uses_anonymous_args = 1
  31              	.LVL0:
  32 0000 0EB4     		push	{r1, r2, r3}
  33              	.LCFI0:
  34              		.cfi_def_cfa_offset 12
  35              		.cfi_offset 1, -12
  36              		.cfi_offset 2, -8
  37              		.cfi_offset 3, -4
  38 0002 00B5     		push	{lr}
  39              	.LCFI1:
  40              		.cfi_def_cfa_offset 16
  41              		.cfi_offset 14, -16
  42 0004 82B0     		sub	sp, sp, #8
  43              	.LCFI2:
  44              		.cfi_def_cfa_offset 24
  45              		.loc 1 69 0
  46 0006 03AB     		add	r3, sp, #12
  47 0008 53F8041B 		ldr	r1, [r3], #4
  48              		.loc 1 73 0
  49 000c 1A46     		mov	r2, r3
  50              		.loc 1 72 0
  51 000e 0193     		str	r3, [sp, #4]
  52              		.loc 1 73 0
  53 0010 FFF7FEFF 		bl	chvprintf
  54              	.LVL1:
  55              		.loc 1 75 0
  56 0014 02B0     		add	sp, sp, #8
  57 0016 5DF804EB 		pop	{lr}
ARM GAS  C:\Users\RICHRD~1\AppData\Local\Temp\cciH5zWJ.s 			page 2


  58 001a 03B0     		add	sp, sp, #12
  59 001c 7047     		bx	lr
  60              		.cfi_endproc
  61              	.LFE118:
  62              		.size	chprintf, .-chprintf
  63 001e 00BF     		.section	.text.lightInit,"ax",%progbits
  64              		.align	2
  65              		.p2align 4,,15
  66              		.global	lightInit
  67              		.thumb
  68              		.thumb_func
  69              		.type	lightInit, %function
  70              	lightInit:
  71              	.LFB119:
  72              		.file 2 "src/light.c"
  73              		.loc 2 46 0
  74              		.cfi_startproc
  75              		@ args = 0, pretend = 0, frame = 0
  76              		@ frame_needed = 0, uses_anonymous_args = 0
  77 0000 10B5     		push	{r4, lr}
  78              	.LCFI3:
  79              		.cfi_def_cfa_offset 8
  80              		.cfi_offset 4, -8
  81              		.cfi_offset 14, -4
  82              		.loc 2 49 0
  83 0002 40F20000 		movw	r0, #:lower16:PWMD1
  84              		.loc 2 48 0
  85 0006 40F20004 		movw	r4, #:lower16:.LANCHOR0
  86              		.loc 2 49 0
  87 000a 40F20001 		movw	r1, #:lower16:.LANCHOR1
  88              		.loc 2 48 0
  89 000e 0022     		movs	r2, #0
  90 0010 0023     		movs	r3, #0
  91              		.loc 2 49 0
  92 0012 C0F20000 		movt	r0, #:upper16:PWMD1
  93 0016 C0F20001 		movt	r1, #:upper16:.LANCHOR1
  94              		.loc 2 48 0
  95 001a C0F20004 		movt	r4, #:upper16:.LANCHOR0
  96 001e C4E90023 		strd	r2, [r4]
  97              		.loc 2 49 0
  98 0022 FFF7FEFF 		bl	pwmStart
  99              	.LVL2:
 100              		.loc 2 50 0
 101 0026 40F20000 		movw	r0, #:lower16:.LANCHOR2
 102              		.loc 2 51 0
 103 002a 40F20001 		movw	r1, #:lower16:.LANCHOR3
 104              		.loc 2 52 0
 105 002e 40F20003 		movw	r3, #:lower16:.LANCHOR4
 106              		.loc 2 50 0
 107 0032 C0F20000 		movt	r0, #:upper16:.LANCHOR2
 108              		.loc 2 51 0
 109 0036 C0F20001 		movt	r1, #:upper16:.LANCHOR3
 110              		.loc 2 52 0
 111 003a C0F20003 		movt	r3, #:upper16:.LANCHOR4
 112              		.loc 2 50 0
 113 003e 0022     		movs	r2, #0
 114 0040 0260     		str	r2, [r0, #0]
ARM GAS  C:\Users\RICHRD~1\AppData\Local\Temp\cciH5zWJ.s 			page 3


 115              		.loc 2 51 0
 116 0042 0A70     		strb	r2, [r1, #0]
 117              		.loc 2 52 0
 118 0044 1A70     		strb	r2, [r3, #0]
 119 0046 10BD     		pop	{r4, pc}
 120              		.cfi_endproc
 121              	.LFE119:
 122              		.size	lightInit, .-lightInit
 123 0048 AFF30080 		.section	.text.lightCalc,"ax",%progbits
 123      AFF30080 
 124              		.align	2
 125              		.p2align 4,,15
 126              		.global	lightCalc
 127              		.thumb
 128              		.thumb_func
 129              		.type	lightCalc, %function
 130              	lightCalc:
 131              	.LFB120:
 132              		.loc 2 55 0
 133              		.cfi_startproc
 134              		@ args = 0, pretend = 0, frame = 0
 135              		@ frame_needed = 0, uses_anonymous_args = 0
 136 0000 10B5     		push	{r4, lr}
 137              	.LCFI4:
 138              		.cfi_def_cfa_offset 8
 139              		.cfi_offset 4, -8
 140              		.cfi_offset 14, -4
 141              		.loc 2 57 0
 142 0002 344C     		ldr	r4, .L26
 143 0004 D4E90023 		ldrd	r2, [r4]
 144 0008 0120     		movs	r0, #1
 145 000a 0021     		movs	r1, #0
 146 000c 1218     		adds	r2, r2, r0
 147 000e 43EB0103 		adc	r3, r3, r1
 148              		.loc 2 59 0
 149 0012 002B     		cmp	r3, #0
 150 0014 08BF     		it eq
 151 0016 1F2A     		cmpeq	r2, #31
 152              		.loc 2 57 0
 153 0018 C4E90023 		strd	r2, [r4]
 154              		.loc 2 59 0
 155 001c 22D2     		bcs	.L20
 156              		.loc 2 66 0
 157 001e 2E4C     		ldr	r4, .L26+4
 158 0020 6378     		ldrb	r3, [r4, #1]	@ zero_extendqisi2
 159 0022 002B     		cmp	r3, #0
 160 0024 31D1     		bne	.L21
 161              		.loc 2 72 0
 162 0026 A078     		ldrb	r0, [r4, #2]	@ zero_extendqisi2
 163 0028 0028     		cmp	r0, #0
 164 002a 38D1     		bne	.L22
 165              	.L7:
 166              		.loc 2 78 0
 167 002c E278     		ldrb	r2, [r4, #3]	@ zero_extendqisi2
 168 002e 002A     		cmp	r2, #0
 169 0030 40D1     		bne	.L23
 170              	.L5:
ARM GAS  C:\Users\RICHRD~1\AppData\Local\Temp\cciH5zWJ.s 			page 4


 171              		.loc 2 86 0
 172 0032 2A4B     		ldr	r3, .L26+8
 173 0034 1B78     		ldrb	r3, [r3, #0]	@ zero_extendqisi2
 174 0036 002B     		cmp	r3, #0
 175 0038 20D1     		bne	.L24
 176              	.L8:
 177              		.loc 2 90 0
 178 003a 294A     		ldr	r2, .L26+12
 179              		.loc 2 91 0
 180 003c 2948     		ldr	r0, .L26+16
 181              		.loc 2 90 0
 182 003e 1178     		ldrb	r1, [r2, #0]	@ zero_extendqisi2
 183 0040 19B9     		cbnz	r1, .L25
 184              		.loc 2 96 0
 185 0042 BDE81040 		pop	{r4, lr}
 186              		.loc 2 94 0
 187 0046 FFF7FEBF 		b	pwmDisableChannel
 188              	.LVL3:
 189              	.L25:
 190              		.loc 2 91 0
 191 004a 0189     		ldrh	r1, [r0, #8]
 192 004c 46F26764 		movw	r4, #26215
 193 0050 C6F26664 		movt	r4, 26214
 194 0054 84FB0142 		smull	r4, r2, r4, r1
 195 0058 D208     		lsrs	r2, r2, #3
 196 005a 1946     		mov	r1, r3
 197              		.loc 2 96 0
 198 005c BDE81040 		pop	{r4, lr}
 199              		.loc 2 91 0
 200 0060 FFF7FEBF 		b	pwmEnableChannel
 201              	.LVL4:
 202              	.L20:
 203              		.loc 2 61 0
 204 0064 1F48     		ldr	r0, .L26+16
 205 0066 0121     		movs	r1, #1
 206 0068 FFF7FEFF 		bl	pwmDisableChannel
 207              	.LVL5:
 208              		.loc 2 62 0
 209 006c 1D48     		ldr	r0, .L26+16
 210 006e 0221     		movs	r1, #2
 211 0070 FFF7FEFF 		bl	pwmDisableChannel
 212              	.LVL6:
 213              		.loc 2 86 0
 214 0074 194B     		ldr	r3, .L26+8
 215 0076 1B78     		ldrb	r3, [r3, #0]	@ zero_extendqisi2
 216 0078 002B     		cmp	r3, #0
 217 007a DED0     		beq	.L8
 218              	.L24:
 219              		.loc 2 87 0
 220 007c 1948     		ldr	r0, .L26+16
 221 007e 0289     		ldrh	r2, [r0, #8]
 222 0080 0021     		movs	r1, #0
 223              		.loc 2 96 0
 224 0082 BDE81040 		pop	{r4, lr}
 225              		.loc 2 87 0
 226 0086 FFF7FEBF 		b	pwmEnableChannel
 227              	.LVL7:
ARM GAS  C:\Users\RICHRD~1\AppData\Local\Temp\cciH5zWJ.s 			page 5


 228              	.L21:
 229              		.loc 2 68 0
 230 008a 1648     		ldr	r0, .L26+16
 231 008c 0121     		movs	r1, #1
 232 008e 0289     		ldrh	r2, [r0, #8]
 233 0090 FFF7FEFF 		bl	pwmEnableChannel
 234              	.LVL8:
 235              		.loc 2 72 0
 236 0094 A078     		ldrb	r0, [r4, #2]	@ zero_extendqisi2
 237              		.loc 2 69 0
 238 0096 0022     		movs	r2, #0
 239 0098 6270     		strb	r2, [r4, #1]
 240              		.loc 2 72 0
 241 009a 0028     		cmp	r0, #0
 242 009c C6D0     		beq	.L7
 243              	.L22:
 244              		.loc 2 74 0
 245 009e 1148     		ldr	r0, .L26+16
 246 00a0 0221     		movs	r1, #2
 247 00a2 0289     		ldrh	r2, [r0, #8]
 248 00a4 FFF7FEFF 		bl	pwmEnableChannel
 249              	.LVL9:
 250              		.loc 2 75 0
 251 00a8 0B4B     		ldr	r3, .L26+4
 252              		.loc 2 78 0
 253 00aa E278     		ldrb	r2, [r4, #3]	@ zero_extendqisi2
 254              		.loc 2 75 0
 255 00ac 0021     		movs	r1, #0
 256 00ae 9970     		strb	r1, [r3, #2]
 257              		.loc 2 78 0
 258 00b0 002A     		cmp	r2, #0
 259 00b2 BED0     		beq	.L5
 260              	.L23:
 261              		.loc 2 80 0
 262 00b4 0B4C     		ldr	r4, .L26+16
 263 00b6 0121     		movs	r1, #1
 264 00b8 2289     		ldrh	r2, [r4, #8]
 265 00ba 2046     		mov	r0, r4
 266 00bc FFF7FEFF 		bl	pwmEnableChannel
 267              	.LVL10:
 268              		.loc 2 81 0
 269 00c0 2046     		mov	r0, r4
 270 00c2 0221     		movs	r1, #2
 271 00c4 2289     		ldrh	r2, [r4, #8]
 272 00c6 FFF7FEFF 		bl	pwmEnableChannel
 273              	.LVL11:
 274              		.loc 2 82 0
 275 00ca 0349     		ldr	r1, .L26+4
 276 00cc 0020     		movs	r0, #0
 277 00ce C870     		strb	r0, [r1, #3]
 278 00d0 AFE7     		b	.L5
 279              	.L27:
 280 00d2 00BF     		.align	2
 281              	.L26:
 282 00d4 00000000 		.word	.LANCHOR0
 283 00d8 00000000 		.word	.LANCHOR5
 284 00dc 00000000 		.word	.LANCHOR4
ARM GAS  C:\Users\RICHRD~1\AppData\Local\Temp\cciH5zWJ.s 			page 6


 285 00e0 00000000 		.word	.LANCHOR3
 286 00e4 00000000 		.word	PWMD1
 287              		.cfi_endproc
 288              	.LFE120:
 289              		.size	lightCalc, .-lightCalc
 290 00e8 AFF30080 		.section	.text.lightRight,"ax",%progbits
 290      AFF30080 
 291              		.align	2
 292              		.p2align 4,,15
 293              		.global	lightRight
 294              		.thumb
 295              		.thumb_func
 296              		.type	lightRight, %function
 297              	lightRight:
 298              	.LFB121:
 299              		.loc 2 98 0
 300              		.cfi_startproc
 301              		@ args = 0, pretend = 0, frame = 0
 302              		@ frame_needed = 0, uses_anonymous_args = 0
 303              		@ link register save eliminated.
 304              		.loc 2 103 0
 305 0000 40F20000 		movw	r0, #:lower16:.LANCHOR0
 306              		.loc 2 99 0
 307 0004 40F20001 		movw	r1, #:lower16:.LANCHOR5
 308 0008 C0F20001 		movt	r1, #:upper16:.LANCHOR5
 309              		.loc 2 103 0
 310 000c 0022     		movs	r2, #0
 311 000e 0023     		movs	r3, #0
 312 0010 C0F20000 		movt	r0, #:upper16:.LANCHOR0
 313 0014 C0E90023 		strd	r2, [r0]
 314              		.loc 2 99 0
 315 0018 0122     		movs	r2, #1
 316              		.loc 2 101 0
 317 001a 0023     		movs	r3, #0
 318              		.loc 2 99 0
 319 001c 0A70     		strb	r2, [r1, #0]
 320              		.loc 2 100 0
 321 001e 4A70     		strb	r2, [r1, #1]
 322              		.loc 2 101 0
 323 0020 8B70     		strb	r3, [r1, #2]
 324              		.loc 2 102 0
 325 0022 CB70     		strb	r3, [r1, #3]
 326 0024 7047     		bx	lr
 327              		.cfi_endproc
 328              	.LFE121:
 329              		.size	lightRight, .-lightRight
 330 0026 00BFAFF3 		.section	.text.lightLeft,"ax",%progbits
 330      0080AFF3 
 330      0080
 331              		.align	2
 332              		.p2align 4,,15
 333              		.global	lightLeft
 334              		.thumb
 335              		.thumb_func
 336              		.type	lightLeft, %function
 337              	lightLeft:
 338              	.LFB122:
ARM GAS  C:\Users\RICHRD~1\AppData\Local\Temp\cciH5zWJ.s 			page 7


 339              		.loc 2 106 0
 340              		.cfi_startproc
 341              		@ args = 0, pretend = 0, frame = 0
 342              		@ frame_needed = 0, uses_anonymous_args = 0
 343              		@ link register save eliminated.
 344              		.loc 2 111 0
 345 0000 40F20000 		movw	r0, #:lower16:.LANCHOR0
 346              		.loc 2 107 0
 347 0004 40F20001 		movw	r1, #:lower16:.LANCHOR5
 348 0008 C0F20001 		movt	r1, #:upper16:.LANCHOR5
 349              		.loc 2 111 0
 350 000c 0022     		movs	r2, #0
 351 000e 0023     		movs	r3, #0
 352 0010 C0F20000 		movt	r0, #:upper16:.LANCHOR0
 353 0014 C0E90023 		strd	r2, [r0]
 354              		.loc 2 107 0
 355 0018 0122     		movs	r2, #1
 356              		.loc 2 108 0
 357 001a 0023     		movs	r3, #0
 358              		.loc 2 107 0
 359 001c 0A70     		strb	r2, [r1, #0]
 360              		.loc 2 108 0
 361 001e 4B70     		strb	r3, [r1, #1]
 362              		.loc 2 109 0
 363 0020 8A70     		strb	r2, [r1, #2]
 364              		.loc 2 110 0
 365 0022 CB70     		strb	r3, [r1, #3]
 366 0024 7047     		bx	lr
 367              		.cfi_endproc
 368              	.LFE122:
 369              		.size	lightLeft, .-lightLeft
 370 0026 00BFAFF3 		.section	.text.lightWarning,"ax",%progbits
 370      0080AFF3 
 370      0080
 371              		.align	2
 372              		.p2align 4,,15
 373              		.global	lightWarning
 374              		.thumb
 375              		.thumb_func
 376              		.type	lightWarning, %function
 377              	lightWarning:
 378              	.LFB123:
 379              		.loc 2 114 0
 380              		.cfi_startproc
 381              		@ args = 0, pretend = 0, frame = 0
 382              		@ frame_needed = 0, uses_anonymous_args = 0
 383              		@ link register save eliminated.
 384              		.loc 2 119 0
 385 0000 40F20000 		movw	r0, #:lower16:.LANCHOR0
 386              		.loc 2 115 0
 387 0004 40F20001 		movw	r1, #:lower16:.LANCHOR5
 388 0008 C0F20001 		movt	r1, #:upper16:.LANCHOR5
 389              		.loc 2 119 0
 390 000c 0022     		movs	r2, #0
 391 000e 0023     		movs	r3, #0
 392 0010 C0F20000 		movt	r0, #:upper16:.LANCHOR0
 393 0014 C0E90023 		strd	r2, [r0]
ARM GAS  C:\Users\RICHRD~1\AppData\Local\Temp\cciH5zWJ.s 			page 8


 394              		.loc 2 115 0
 395 0018 0123     		movs	r3, #1
 396              		.loc 2 116 0
 397 001a 0022     		movs	r2, #0
 398              		.loc 2 115 0
 399 001c 0B70     		strb	r3, [r1, #0]
 400              		.loc 2 116 0
 401 001e 4A70     		strb	r2, [r1, #1]
 402              		.loc 2 117 0
 403 0020 8A70     		strb	r2, [r1, #2]
 404              		.loc 2 118 0
 405 0022 CB70     		strb	r3, [r1, #3]
 406 0024 7047     		bx	lr
 407              		.cfi_endproc
 408              	.LFE123:
 409              		.size	lightWarning, .-lightWarning
 410 0026 00BFAFF3 		.section	.text.lightBrakeON,"ax",%progbits
 410      0080AFF3 
 410      0080
 411              		.align	2
 412              		.p2align 4,,15
 413              		.global	lightBrakeON
 414              		.thumb
 415              		.thumb_func
 416              		.type	lightBrakeON, %function
 417              	lightBrakeON:
 418              	.LFB124:
 419              		.loc 2 122 0
 420              		.cfi_startproc
 421              		@ args = 0, pretend = 0, frame = 0
 422              		@ frame_needed = 0, uses_anonymous_args = 0
 423              		@ link register save eliminated.
 424              		.loc 2 123 0
 425 0000 40F20003 		movw	r3, #:lower16:.LANCHOR4
 426 0004 C0F20003 		movt	r3, #:upper16:.LANCHOR4
 427 0008 0120     		movs	r0, #1
 428 000a 1870     		strb	r0, [r3, #0]
 429              		.loc 2 125 0
 430 000c 7047     		bx	lr
 431              		.cfi_endproc
 432              	.LFE124:
 433              		.size	lightBrakeON, .-lightBrakeON
 434 000e 00BF     		.section	.text.lightBrakeOFF,"ax",%progbits
 435              		.align	2
 436              		.p2align 4,,15
 437              		.global	lightBrakeOFF
 438              		.thumb
 439              		.thumb_func
 440              		.type	lightBrakeOFF, %function
 441              	lightBrakeOFF:
 442              	.LFB125:
 443              		.loc 2 126 0
 444              		.cfi_startproc
 445              		@ args = 0, pretend = 0, frame = 0
 446              		@ frame_needed = 0, uses_anonymous_args = 0
 447              		@ link register save eliminated.
 448              		.loc 2 127 0
ARM GAS  C:\Users\RICHRD~1\AppData\Local\Temp\cciH5zWJ.s 			page 9


 449 0000 40F20003 		movw	r3, #:lower16:.LANCHOR4
 450 0004 C0F20003 		movt	r3, #:upper16:.LANCHOR4
 451 0008 0022     		movs	r2, #0
 452 000a 1A70     		strb	r2, [r3, #0]
 453              		.loc 2 129 0
 454 000c 0120     		movs	r0, #1
 455 000e 7047     		bx	lr
 456              		.cfi_endproc
 457              	.LFE125:
 458              		.size	lightBrakeOFF, .-lightBrakeOFF
 459              		.section	.text.lightPosLampON,"ax",%progbits
 460              		.align	2
 461              		.p2align 4,,15
 462              		.global	lightPosLampON
 463              		.thumb
 464              		.thumb_func
 465              		.type	lightPosLampON, %function
 466              	lightPosLampON:
 467              	.LFB126:
 468              		.loc 2 131 0
 469              		.cfi_startproc
 470              		@ args = 0, pretend = 0, frame = 0
 471              		@ frame_needed = 0, uses_anonymous_args = 0
 472              		@ link register save eliminated.
 473              		.loc 2 132 0
 474 0000 40F20003 		movw	r3, #:lower16:.LANCHOR3
 475 0004 C0F20003 		movt	r3, #:upper16:.LANCHOR3
 476 0008 0120     		movs	r0, #1
 477 000a 1870     		strb	r0, [r3, #0]
 478              		.loc 2 134 0
 479 000c 7047     		bx	lr
 480              		.cfi_endproc
 481              	.LFE126:
 482              		.size	lightPosLampON, .-lightPosLampON
 483 000e 00BF     		.section	.text.lightPosLampOFF,"ax",%progbits
 484              		.align	2
 485              		.p2align 4,,15
 486              		.global	lightPosLampOFF
 487              		.thumb
 488              		.thumb_func
 489              		.type	lightPosLampOFF, %function
 490              	lightPosLampOFF:
 491              	.LFB127:
 492              		.loc 2 135 0
 493              		.cfi_startproc
 494              		@ args = 0, pretend = 0, frame = 0
 495              		@ frame_needed = 0, uses_anonymous_args = 0
 496              		@ link register save eliminated.
 497              		.loc 2 136 0
 498 0000 40F20003 		movw	r3, #:lower16:.LANCHOR3
 499 0004 C0F20003 		movt	r3, #:upper16:.LANCHOR3
 500 0008 0022     		movs	r2, #0
 501 000a 1A70     		strb	r2, [r3, #0]
 502              		.loc 2 138 0
 503 000c 0120     		movs	r0, #1
 504 000e 7047     		bx	lr
 505              		.cfi_endproc
ARM GAS  C:\Users\RICHRD~1\AppData\Local\Temp\cciH5zWJ.s 			page 10


 506              	.LFE127:
 507              		.size	lightPosLampOFF, .-lightPosLampOFF
 508              		.section	.text.cmd_lightblink,"ax",%progbits
 509              		.align	2
 510              		.p2align 4,,15
 511              		.global	cmd_lightblink
 512              		.thumb
 513              		.thumb_func
 514              		.type	cmd_lightblink, %function
 515              	cmd_lightblink:
 516              	.LFB128:
 517              		.loc 2 140 0
 518              		.cfi_startproc
 519              		@ args = 0, pretend = 0, frame = 0
 520              		@ frame_needed = 0, uses_anonymous_args = 0
 521              	.LVL12:
 522 0000 F8B5     		push	{r3, r4, r5, r6, r7, lr}
 523              	.LCFI5:
 524              		.cfi_def_cfa_offset 24
 525              		.cfi_offset 3, -24
 526              		.cfi_offset 4, -20
 527              		.cfi_offset 5, -16
 528              		.cfi_offset 6, -12
 529              		.cfi_offset 7, -8
 530              		.cfi_offset 14, -4
 531              		.loc 2 140 0
 532 0002 0446     		mov	r4, r0
 533 0004 0D46     		mov	r5, r1
 534              		.loc 2 144 0
 535 0006 5349     		ldr	r1, .L52
 536              	.LVL13:
 537              		.loc 2 140 0
 538 0008 1646     		mov	r6, r2
 539              		.loc 2 144 0
 540 000a FFF7FEFF 		bl	chprintf
 541              	.LVL14:
 542              		.loc 2 145 0
 543 000e 2046     		mov	r0, r4
 544 0010 5149     		ldr	r1, .L52+4
 545 0012 FFF7FEFF 		bl	chprintf
 546              	.LVL15:
 547              		.loc 2 146 0
 548 0016 2368     		ldr	r3, [r4, #0]
 549 0018 0021     		movs	r1, #0
 550 001a 2046     		mov	r0, r4
 551 001c 5A69     		ldr	r2, [r3, #20]
 552 001e 9047     		blx	r2
 553              	.LVL16:
 554 0020 0130     		adds	r0, r0, #1
 555 0022 1DD0     		beq	.L45
 556              	.LVL17:
 557              	.L36:
 558              	.LDL1:
 559              		.loc 2 203 0
 560 0024 2046     		mov	r0, r4
 561 0026 4D49     		ldr	r1, .L52+8
 562 0028 FFF7FEFF 		bl	chprintf
ARM GAS  C:\Users\RICHRD~1\AppData\Local\Temp\cciH5zWJ.s 			page 11


 563              	.LVL18:
 564              		.loc 2 204 0
 565 002c 2046     		mov	r0, r4
 566 002e 4C49     		ldr	r1, .L52+12
 567 0030 FFF7FEFF 		bl	chprintf
 568              	.LVL19:
 569              		.loc 2 205 0
 570 0034 2046     		mov	r0, r4
 571 0036 4B49     		ldr	r1, .L52+16
 572 0038 FFF7FEFF 		bl	chprintf
 573              	.LVL20:
 574              		.loc 2 206 0
 575 003c 2046     		mov	r0, r4
 576 003e 4A49     		ldr	r1, .L52+20
 577 0040 FFF7FEFF 		bl	chprintf
 578              	.LVL21:
 579              		.loc 2 207 0
 580 0044 2046     		mov	r0, r4
 581 0046 4949     		ldr	r1, .L52+24
 582 0048 FFF7FEFF 		bl	chprintf
 583              	.LVL22:
 584              		.loc 2 208 0
 585 004c 2046     		mov	r0, r4
 586 004e 4849     		ldr	r1, .L52+28
 587 0050 FFF7FEFF 		bl	chprintf
 588              	.LVL23:
 589              		.loc 2 209 0
 590 0054 4749     		ldr	r1, .L52+32
 591 0056 2046     		mov	r0, r4
 592              		.loc 2 211 0
 593 0058 BDE8F840 		pop	{r3, r4, r5, r6, r7, lr}
 594              		.loc 2 209 0
 595 005c FFF7FEBF 		b	chprintf
 596              	.LVL24:
 597              	.L45:
 598              	.LBB17:
 599              		.loc 2 147 0
 600 0060 0022     		movs	r2, #0
 601 0062 2046     		mov	r0, r4
 602 0064 4449     		ldr	r1, .L52+36
 603 0066 1346     		mov	r3, r2
 604 0068 FFF7FEFF 		bl	chprintf
 605              	.LVL25:
 606              		.loc 2 148 0
 607 006c 012D     		cmp	r5, #1
 608 006e D9D1     		bne	.L36
 609              		.loc 2 148 0 is_stmt 0 discriminator 1
 610 0070 3668     		ldr	r6, [r6, #0]
 611              	.LVL26:
 612 0072 4249     		ldr	r1, .L52+40
 613 0074 3046     		mov	r0, r6
 614 0076 FFF7FEFF 		bl	strcmp
 615              	.LVL27:
 616 007a 0746     		mov	r7, r0
 617 007c 0028     		cmp	r0, #0
 618 007e 3AD0     		beq	.L46
 619              		.loc 2 155 0 is_stmt 1 discriminator 1
ARM GAS  C:\Users\RICHRD~1\AppData\Local\Temp\cciH5zWJ.s 			page 12


 620 0080 3046     		mov	r0, r6
 621 0082 3F49     		ldr	r1, .L52+44
 622 0084 FFF7FEFF 		bl	strcmp
 623              	.LVL28:
 624 0088 0746     		mov	r7, r0
 625 008a 0028     		cmp	r0, #0
 626 008c 42D0     		beq	.L47
 627              		.loc 2 162 0 discriminator 1
 628 008e 3046     		mov	r0, r6
 629 0090 3C49     		ldr	r1, .L52+48
 630 0092 FFF7FEFF 		bl	strcmp
 631              	.LVL29:
 632 0096 0746     		mov	r7, r0
 633 0098 0028     		cmp	r0, #0
 634 009a 44D0     		beq	.L48
 635              		.loc 2 169 0 discriminator 1
 636 009c 3046     		mov	r0, r6
 637 009e 3A49     		ldr	r1, .L52+52
 638 00a0 FFF7FEFF 		bl	strcmp
 639              	.LVL30:
 640 00a4 0028     		cmp	r0, #0
 641 00a6 4DD0     		beq	.L49
 642              		.loc 2 176 0 discriminator 1
 643 00a8 3046     		mov	r0, r6
 644 00aa 3849     		ldr	r1, .L52+56
 645 00ac FFF7FEFF 		bl	strcmp
 646              	.LVL31:
 647 00b0 0746     		mov	r7, r0
 648 00b2 90B1     		cbz	r0, .L50
 649              		.loc 2 183 0 discriminator 1
 650 00b4 3046     		mov	r0, r6
 651 00b6 3649     		ldr	r1, .L52+60
 652 00b8 FFF7FEFF 		bl	strcmp
 653              	.LVL32:
 654 00bc A0B1     		cbz	r0, .L51
 655              		.loc 2 190 0 discriminator 1
 656 00be 3046     		mov	r0, r6
 657 00c0 3449     		ldr	r1, .L52+64
 658 00c2 FFF7FEFF 		bl	strcmp
 659              	.LVL33:
 660 00c6 0546     		mov	r5, r0
 661              	.LVL34:
 662 00c8 0028     		cmp	r0, #0
 663 00ca ABD1     		bne	.L36
 664              		.loc 2 192 0
 665 00cc 2046     		mov	r0, r4
 666 00ce 3249     		ldr	r1, .L52+68
 667 00d0 FFF7FEFF 		bl	chprintf
 668              	.LVL35:
 669              	.LBB18:
 670              	.LBB19:
 671              		.loc 2 136 0
 672 00d4 3148     		ldr	r0, .L52+72
 673 00d6 0570     		strb	r5, [r0, #0]
 674 00d8 F8BD     		pop	{r3, r4, r5, r6, r7, pc}
 675              	.LVL36:
 676              	.L50:
ARM GAS  C:\Users\RICHRD~1\AppData\Local\Temp\cciH5zWJ.s 			page 13


 677              	.LBE19:
 678              	.LBE18:
 679              		.loc 2 178 0
 680 00da 2046     		mov	r0, r4
 681 00dc 3049     		ldr	r1, .L52+76
 682 00de FFF7FEFF 		bl	chprintf
 683              	.LVL37:
 684              	.LBB20:
 685              	.LBB21:
 686              		.loc 2 127 0
 687 00e2 304B     		ldr	r3, .L52+80
 688 00e4 1F70     		strb	r7, [r3, #0]
 689 00e6 F8BD     		pop	{r3, r4, r5, r6, r7, pc}
 690              	.L51:
 691              	.LBE21:
 692              	.LBE20:
 693              		.loc 2 185 0
 694 00e8 2F49     		ldr	r1, .L52+84
 695 00ea 2046     		mov	r0, r4
 696 00ec FFF7FEFF 		bl	chprintf
 697              	.LVL38:
 698              	.LBB22:
 699              	.LBB23:
 700              		.loc 2 132 0
 701 00f0 2A49     		ldr	r1, .L52+72
 702 00f2 0D70     		strb	r5, [r1, #0]
 703 00f4 F8BD     		pop	{r3, r4, r5, r6, r7, pc}
 704              	.L46:
 705              	.LBE23:
 706              	.LBE22:
 707              		.loc 2 150 0
 708 00f6 2046     		mov	r0, r4
 709 00f8 2C49     		ldr	r1, .L52+88
 710 00fa FFF7FEFF 		bl	chprintf
 711              	.LVL39:
 712              	.LBB24:
 713              	.LBB25:
 714              		.loc 2 99 0
 715 00fe 2C4B     		ldr	r3, .L52+92
 716 0100 1D70     		strb	r5, [r3, #0]
 717              		.loc 2 100 0
 718 0102 5D70     		strb	r5, [r3, #1]
 719              		.loc 2 101 0
 720 0104 9F70     		strb	r7, [r3, #2]
 721              	.L44:
 722              	.LBE25:
 723              	.LBE24:
 724              	.LBB26:
 725              	.LBB27:
 726              		.loc 2 111 0
 727 0106 2B48     		ldr	r0, .L52+96
 728              		.loc 2 110 0
 729 0108 DF70     		strb	r7, [r3, #3]
 730              		.loc 2 111 0
 731 010a 0022     		movs	r2, #0
 732 010c 0023     		movs	r3, #0
 733 010e C0E90023 		strd	r2, [r0]
ARM GAS  C:\Users\RICHRD~1\AppData\Local\Temp\cciH5zWJ.s 			page 14


 734 0112 F8BD     		pop	{r3, r4, r5, r6, r7, pc}
 735              	.L47:
 736              	.LBE27:
 737              	.LBE26:
 738              		.loc 2 157 0
 739 0114 2046     		mov	r0, r4
 740 0116 2849     		ldr	r1, .L52+100
 741 0118 FFF7FEFF 		bl	chprintf
 742              	.LVL40:
 743              	.LBB29:
 744              	.LBB28:
 745              		.loc 2 107 0
 746 011c 244B     		ldr	r3, .L52+92
 747 011e 1D70     		strb	r5, [r3, #0]
 748              		.loc 2 108 0
 749 0120 5F70     		strb	r7, [r3, #1]
 750              		.loc 2 109 0
 751 0122 9D70     		strb	r5, [r3, #2]
 752 0124 EFE7     		b	.L44
 753              	.L48:
 754              	.LBE28:
 755              	.LBE29:
 756              		.loc 2 164 0
 757 0126 2046     		mov	r0, r4
 758 0128 2449     		ldr	r1, .L52+104
 759 012a FFF7FEFF 		bl	chprintf
 760              	.LVL41:
 761              	.LBB30:
 762              	.LBB31:
 763              		.loc 2 115 0
 764 012e 2048     		ldr	r0, .L52+92
 765              		.loc 2 119 0
 766 0130 2049     		ldr	r1, .L52+96
 767              		.loc 2 115 0
 768 0132 0570     		strb	r5, [r0, #0]
 769              		.loc 2 119 0
 770 0134 0022     		movs	r2, #0
 771 0136 0023     		movs	r3, #0
 772              		.loc 2 116 0
 773 0138 4770     		strb	r7, [r0, #1]
 774              		.loc 2 117 0
 775 013a 8770     		strb	r7, [r0, #2]
 776              		.loc 2 118 0
 777 013c C570     		strb	r5, [r0, #3]
 778              		.loc 2 119 0
 779 013e C1E90023 		strd	r2, [r1]
 780 0142 F8BD     		pop	{r3, r4, r5, r6, r7, pc}
 781              	.L49:
 782              	.LBE31:
 783              	.LBE30:
 784              		.loc 2 171 0
 785 0144 2046     		mov	r0, r4
 786 0146 1E49     		ldr	r1, .L52+108
 787 0148 FFF7FEFF 		bl	chprintf
 788              	.LVL42:
 789              	.LBB32:
 790              	.LBB33:
ARM GAS  C:\Users\RICHRD~1\AppData\Local\Temp\cciH5zWJ.s 			page 15


 791              		.loc 2 123 0
 792 014c 154A     		ldr	r2, .L52+80
 793 014e 1570     		strb	r5, [r2, #0]
 794 0150 F8BD     		pop	{r3, r4, r5, r6, r7, pc}
 795              	.L53:
 796 0152 00BF     		.align	2
 797              	.L52:
 798 0154 00000000 		.word	.LC0
 799 0158 04000000 		.word	.LC1
 800 015c DC010000 		.word	.LC17
 801 0160 F4010000 		.word	.LC18
 802 0164 08020000 		.word	.LC19
 803 0168 20020000 		.word	.LC20
 804 016c 38020000 		.word	.LC21
 805 0170 50020000 		.word	.LC22
 806 0174 68020000 		.word	.LC23
 807 0178 0C000000 		.word	.LC2
 808 017c 18000000 		.word	.LC3
 809 0180 58000000 		.word	.LC5
 810 0184 98000000 		.word	.LC7
 811 0188 DC000000 		.word	.LC9
 812 018c 18010000 		.word	.LC11
 813 0190 5C010000 		.word	.LC13
 814 0194 9C010000 		.word	.LC15
 815 0198 A4010000 		.word	.LC16
 816 019c 00000000 		.word	.LANCHOR3
 817 01a0 24010000 		.word	.LC12
 818 01a4 00000000 		.word	.LANCHOR4
 819 01a8 64010000 		.word	.LC14
 820 01ac 20000000 		.word	.LC4
 821 01b0 00000000 		.word	.LANCHOR5
 822 01b4 00000000 		.word	.LANCHOR0
 823 01b8 60000000 		.word	.LC6
 824 01bc A0000000 		.word	.LC8
 825 01c0 E4000000 		.word	.LC10
 826              	.LBE33:
 827              	.LBE32:
 828              	.LBE17:
 829              		.cfi_endproc
 830              	.LFE128:
 831              		.size	cmd_lightblink, .-cmd_lightblink
 832              		.global	brakeOn
 833              		.global	lightsOn
 834 01c4 AFF30080 		.section	.data.pwmcfg,"aw",%progbits
 834      AFF30080 
 834      AFF30080 
 835              		.align	2
 836              		.set	.LANCHOR1,. + 0
 837              		.type	pwmcfg, %object
 838              		.size	pwmcfg, 52
 839              	pwmcfg:
 840 0000 40420F00 		.word	1000000
 841 0004 E803     		.short	1000
 842 0006 0000     		.space	2
 843 0008 00000000 		.word	0
 844 000c 01000000 		.word	1
 845 0010 00000000 		.word	0
ARM GAS  C:\Users\RICHRD~1\AppData\Local\Temp\cciH5zWJ.s 			page 16


 846 0014 01000000 		.word	1
 847 0018 00000000 		.word	0
 848 001c 01000000 		.word	1
 849 0020 00000000 		.word	0
 850 0024 00000000 		.word	0
 851 0028 00000000 		.word	0
 852 002c 00000000 		.word	0
 853 0030 00000000 		.space	4
 854              		.section	.bss.period,"aw",%nobits
 855              		.align	3
 856              		.set	.LANCHOR0,. + 0
 857              		.type	period, %object
 858              		.size	period, 8
 859              	period:
 860 0000 00000000 		.space	8
 860      00000000 
 861              		.section	.rodata.str1.4,"aMS",%progbits,1
 862              		.align	2
 863              	.LC0:
 864 0000 1B6300   		.ascii	"\033c\000"
 865 0003 00       		.space	1
 866              	.LC1:
 867 0004 1B5B324A 		.ascii	"\033[2J\000"
 867      00
 868 0009 000000   		.space	3
 869              	.LC2:
 870 000c 1B5B2564 		.ascii	"\033[%d;%dH\000"
 870      3B256448 
 870      00
 871 0015 000000   		.space	3
 872              	.LC3:
 873 0018 72696768 		.ascii	"right\000"
 873      7400
 874 001e 0000     		.space	2
 875              	.LC4:
 876 0020 2D2D2D2D 		.ascii	"-------------- Blinking right enabled -------------"
 876      2D2D2D2D 
 876      2D2D2D2D 
 876      2D2D2042 
 876      6C696E6B 
 877 0053 2D0D0A00 		.ascii	"-\015\012\000"
 878 0057 00       		.space	1
 879              	.LC5:
 880 0058 6C656674 		.ascii	"left\000"
 880      00
 881 005d 000000   		.space	3
 882              	.LC6:
 883 0060 2D2D2D2D 		.ascii	"-------------- Blinking left enabled --------------"
 883      2D2D2D2D 
 883      2D2D2D2D 
 883      2D2D2042 
 883      6C696E6B 
 884 0093 0D0A00   		.ascii	"\015\012\000"
 885 0096 0000     		.space	2
 886              	.LC7:
 887 0098 7761726E 		.ascii	"warning\000"
 887      696E6700 
ARM GAS  C:\Users\RICHRD~1\AppData\Local\Temp\cciH5zWJ.s 			page 17


 888              	.LC8:
 889 00a0 2D2D2D2D 		.ascii	"-------------- Blinking warning enabled -----------"
 889      2D2D2D2D 
 889      2D2D2D2D 
 889      2D2D2042 
 889      6C696E6B 
 890 00d3 2D2D2D0D 		.ascii	"---\015\012\000"
 890      0A00
 891 00d9 000000   		.space	3
 892              	.LC9:
 893 00dc 6272616B 		.ascii	"brakeon\000"
 893      656F6E00 
 894              	.LC10:
 895 00e4 2D2D2D2D 		.ascii	"-------------- Brake light enabled --------------\015"
 895      2D2D2D2D 
 895      2D2D2D2D 
 895      2D2D2042 
 895      72616B65 
 896 0116 0A00     		.ascii	"\012\000"
 897              	.LC11:
 898 0118 6272616B 		.ascii	"brakeoff\000"
 898      656F6666 
 898      00
 899 0121 000000   		.space	3
 900              	.LC12:
 901 0124 2D2D2D2D 		.ascii	"-------------- Brake light disabled --------------\015"
 901      2D2D2D2D 
 901      2D2D2D2D 
 901      2D2D2042 
 901      72616B65 
 902 0157 0A00     		.ascii	"\012\000"
 903 0159 000000   		.space	3
 904              	.LC13:
 905 015c 6C616D70 		.ascii	"lampon\000"
 905      6F6E00
 906 0163 00       		.space	1
 907              	.LC14:
 908 0164 2D2D2D2D 		.ascii	"-------------- Position lamp enabled --------------"
 908      2D2D2D2D 
 908      2D2D2D2D 
 908      2D2D2050 
 908      6F736974 
 909 0197 0D0A00   		.ascii	"\015\012\000"
 910 019a 0000     		.space	2
 911              	.LC15:
 912 019c 6C616D70 		.ascii	"lampoff\000"
 912      6F666600 
 913              	.LC16:
 914 01a4 2D2D2D2D 		.ascii	"-------------- Position lamp disabled -------------"
 914      2D2D2D2D 
 914      2D2D2D2D 
 914      2D2D2050 
 914      6F736974 
 915 01d7 2D0D0A00 		.ascii	"-\015\012\000"
 916 01db 00       		.space	1
 917              	.LC17:
 918 01dc 55736167 		.ascii	"Usage: light right\015\012\000"
ARM GAS  C:\Users\RICHRD~1\AppData\Local\Temp\cciH5zWJ.s 			page 18


 918      653A206C 
 918      69676874 
 918      20726967 
 918      68740D0A 
 919 01f1 000000   		.space	3
 920              	.LC18:
 921 01f4 20202020 		.ascii	"       light left\015\012\000"
 921      2020206C 
 921      69676874 
 921      206C6566 
 921      740D0A00 
 922              	.LC19:
 923 0208 20202020 		.ascii	"       light warning\015\012\000"
 923      2020206C 
 923      69676874 
 923      20776172 
 923      6E696E67 
 924 021f 00       		.space	1
 925              	.LC20:
 926 0220 20202020 		.ascii	"       light brakeon\015\012\000"
 926      2020206C 
 926      69676874 
 926      20627261 
 926      6B656F6E 
 927 0237 00       		.space	1
 928              	.LC21:
 929 0238 20202020 		.ascii	"       light brakeoff\015\012\000"
 929      2020206C 
 929      69676874 
 929      20627261 
 929      6B656F66 
 930              	.LC22:
 931 0250 20202020 		.ascii	"       light lampon\015\012\000"
 931      2020206C 
 931      69676874 
 931      206C616D 
 931      706F6E0D 
 932 0266 0000     		.space	2
 933              	.LC23:
 934 0268 20202020 		.ascii	"       light lampoff\015\012\000"
 934      2020206C 
 934      69676874 
 934      206C616D 
 934      706F6666 
 935 027f 00       		.section	.bss.lightsOn,"aw",%nobits
 936              		.set	.LANCHOR3,. + 0
 937              		.type	lightsOn, %object
 938              		.size	lightsOn, 1
 939              	lightsOn:
 940 0000 00       		.space	1
 941              		.section	.bss.lightchanels,"aw",%nobits
 942              		.align	2
 943              		.set	.LANCHOR5,. + 0
 944              		.type	lightchanels, %object
 945              		.size	lightchanels, 6
 946              	lightchanels:
 947 0000 00000000 		.space	6
ARM GAS  C:\Users\RICHRD~1\AppData\Local\Temp\cciH5zWJ.s 			page 19


 947      0000
 948 0006 0000     		.section	.bss.brakeOn,"aw",%nobits
 949              		.set	.LANCHOR4,. + 0
 950              		.type	brakeOn, %object
 951              		.size	brakeOn, 1
 952              	brakeOn:
 953 0000 00       		.space	1
 954              		.section	.bss.period_num,"aw",%nobits
 955              		.align	2
 956              		.set	.LANCHOR2,. + 0
 957              		.type	period_num, %object
 958              		.size	period_num, 4
 959              	period_num:
 960 0000 00000000 		.space	4
 961              		.text
 962              	.Letext0:
 963              		.file 3 "c:\\chibistudio\\tools\\gnu tools arm embedded\\4.7 2014q2\\bin\\../lib/gcc/arm-none-eabi
 964              		.file 4 "c:\\chibistudio\\tools\\gnu tools arm embedded\\4.7 2014q2\\bin\\../lib/gcc/arm-none-eabi
 965              		.file 5 "../../Chibios/os/ports/GCC/ARMCMx/chtypes.h"
 966              		.file 6 "../../Chibios/os/kernel/include/chstreams.h"
 967              		.file 7 "../../Chibios/os/hal/include/io_channel.h"
 968              		.file 8 "../../Chibios/os/hal/include/pwm.h"
 969              		.file 9 "../../Chibios/os/hal/platforms/STM32/TIMv1/pwm_lld.h"
 970              		.file 10 "../../Chibios/os/hal/platforms/STM32/TIMv1/stm32_tim.h"
 971              		.file 11 "c:\\chibistudio\\tools\\gnu tools arm embedded\\4.7 2014q2\\bin\\../lib/gcc/arm-none-eab
 972              		.file 12 "<built-in>"
 973              		.file 13 "../../Chibios/os/ports/common/ARMCMx/CMSIS/include/core_cm4.h"
 974              		.section	.debug_info,"",%progbits
 975              	.Ldebug_info0:
 976 0000 A30D0000 		.4byte	0xda3
 977 0004 0200     		.2byte	0x2
 978 0006 00000000 		.4byte	.Ldebug_abbrev0
 979 000a 04       		.byte	0x4
 980 000b 01       		.uleb128 0x1
 981 000c 88000000 		.4byte	.LASF99
 982 0010 01       		.byte	0x1
 983 0011 4D030000 		.4byte	.LASF100
 984 0015 00000000 		.4byte	.LASF101
 985 0019 18000000 		.4byte	.Ldebug_ranges0+0x18
 986 001d 00000000 		.4byte	0
 987 0021 00000000 		.4byte	0
 988 0025 00000000 		.4byte	.Ldebug_line0
 989 0029 02       		.uleb128 0x2
 990 002a 04       		.byte	0x4
 991 002b 05       		.byte	0x5
 992 002c 696E7400 		.ascii	"int\000"
 993 0030 03       		.uleb128 0x3
 994 0031 6F000000 		.4byte	.LASF2
 995 0035 03       		.byte	0x3
 996 0036 D5       		.byte	0xd5
 997 0037 3B000000 		.4byte	0x3b
 998 003b 04       		.uleb128 0x4
 999 003c 04       		.byte	0x4
 1000 003d 07       		.byte	0x7
 1001 003e 86020000 		.4byte	.LASF0
 1002 0042 04       		.uleb128 0x4
 1003 0043 01       		.byte	0x1
ARM GAS  C:\Users\RICHRD~1\AppData\Local\Temp\cciH5zWJ.s 			page 20


 1004 0044 06       		.byte	0x6
 1005 0045 41020000 		.4byte	.LASF1
 1006 0049 03       		.uleb128 0x3
 1007 004a 22010000 		.4byte	.LASF3
 1008 004e 04       		.byte	0x4
 1009 004f 2A       		.byte	0x2a
 1010 0050 54000000 		.4byte	0x54
 1011 0054 04       		.uleb128 0x4
 1012 0055 01       		.byte	0x1
 1013 0056 08       		.byte	0x8
 1014 0057 0F020000 		.4byte	.LASF4
 1015 005b 04       		.uleb128 0x4
 1016 005c 02       		.byte	0x2
 1017 005d 05       		.byte	0x5
 1018 005e 65000000 		.4byte	.LASF5
 1019 0062 03       		.uleb128 0x3
 1020 0063 98020000 		.4byte	.LASF6
 1021 0067 04       		.byte	0x4
 1022 0068 36       		.byte	0x36
 1023 0069 6D000000 		.4byte	0x6d
 1024 006d 04       		.uleb128 0x4
 1025 006e 02       		.byte	0x2
 1026 006f 07       		.byte	0x7
 1027 0070 C7020000 		.4byte	.LASF7
 1028 0074 03       		.uleb128 0x3
 1029 0075 0F030000 		.4byte	.LASF8
 1030 0079 04       		.byte	0x4
 1031 007a 4F       		.byte	0x4f
 1032 007b 7F000000 		.4byte	0x7f
 1033 007f 04       		.uleb128 0x4
 1034 0080 04       		.byte	0x4
 1035 0081 05       		.byte	0x5
 1036 0082 A8010000 		.4byte	.LASF9
 1037 0086 03       		.uleb128 0x3
 1038 0087 6D020000 		.4byte	.LASF10
 1039 008b 04       		.byte	0x4
 1040 008c 50       		.byte	0x50
 1041 008d 91000000 		.4byte	0x91
 1042 0091 04       		.uleb128 0x4
 1043 0092 04       		.byte	0x4
 1044 0093 07       		.byte	0x7
 1045 0094 62030000 		.4byte	.LASF11
 1046 0098 04       		.uleb128 0x4
 1047 0099 08       		.byte	0x8
 1048 009a 05       		.byte	0x5
 1049 009b 90010000 		.4byte	.LASF12
 1050 009f 03       		.uleb128 0x3
 1051 00a0 4D020000 		.4byte	.LASF13
 1052 00a4 04       		.byte	0x4
 1053 00a5 78       		.byte	0x78
 1054 00a6 AA000000 		.4byte	0xaa
 1055 00aa 04       		.uleb128 0x4
 1056 00ab 08       		.byte	0x8
 1057 00ac 07       		.byte	0x7
 1058 00ad 56020000 		.4byte	.LASF14
 1059 00b1 03       		.uleb128 0x3
 1060 00b2 17030000 		.4byte	.LASF15
ARM GAS  C:\Users\RICHRD~1\AppData\Local\Temp\cciH5zWJ.s 			page 21


 1061 00b6 05       		.byte	0x5
 1062 00b7 2B       		.byte	0x2b
 1063 00b8 BC000000 		.4byte	0xbc
 1064 00bc 04       		.uleb128 0x4
 1065 00bd 01       		.byte	0x1
 1066 00be 02       		.byte	0x2
 1067 00bf 2D030000 		.4byte	.LASF16
 1068 00c3 03       		.uleb128 0x3
 1069 00c4 42040000 		.4byte	.LASF17
 1070 00c8 05       		.byte	0x5
 1071 00c9 31       		.byte	0x31
 1072 00ca 74000000 		.4byte	0x74
 1073 00ce 03       		.uleb128 0x3
 1074 00cf E4020000 		.4byte	.LASF18
 1075 00d3 05       		.byte	0x5
 1076 00d4 35       		.byte	0x35
 1077 00d5 86000000 		.4byte	0x86
 1078 00d9 05       		.uleb128 0x5
 1079 00da 04       		.byte	0x4
 1080 00db 06       		.uleb128 0x6
 1081 00dc 86000000 		.4byte	0x86
 1082 00e0 04       		.uleb128 0x4
 1083 00e1 04       		.byte	0x4
 1084 00e2 07       		.byte	0x7
 1085 00e3 7F000000 		.4byte	.LASF19
 1086 00e7 07       		.uleb128 0x7
 1087 00e8 04       		.byte	0x4
 1088 00e9 ED000000 		.4byte	0xed
 1089 00ed 08       		.uleb128 0x8
 1090 00ee F2000000 		.4byte	0xf2
 1091 00f2 04       		.uleb128 0x4
 1092 00f3 01       		.byte	0x1
 1093 00f4 08       		.byte	0x8
 1094 00f5 F4020000 		.4byte	.LASF20
 1095 00f9 07       		.uleb128 0x7
 1096 00fa 04       		.byte	0x4
 1097 00fb FF000000 		.4byte	0xff
 1098 00ff 09       		.uleb128 0x9
 1099 0100 01       		.byte	0x1
 1100 0101 C3000000 		.4byte	0xc3
 1101 0105 0F010000 		.4byte	0x10f
 1102 0109 0A       		.uleb128 0xa
 1103 010a D9000000 		.4byte	0xd9
 1104 010e 00       		.byte	0
 1105 010f 07       		.uleb128 0x7
 1106 0110 04       		.byte	0x4
 1107 0111 49000000 		.4byte	0x49
 1108 0115 0B       		.uleb128 0xb
 1109 0116 73010000 		.4byte	.LASF24
 1110 011a 10       		.byte	0x10
 1111 011b 06       		.byte	0x6
 1112 011c 48       		.byte	0x48
 1113 011d 5A010000 		.4byte	0x15a
 1114 0121 0C       		.uleb128 0xc
 1115 0122 33000000 		.4byte	.LASF21
 1116 0126 06       		.byte	0x6
 1117 0127 49       		.byte	0x49
ARM GAS  C:\Users\RICHRD~1\AppData\Local\Temp\cciH5zWJ.s 			page 22


 1118 0128 7F010000 		.4byte	0x17f
 1119 012c 02       		.byte	0x2
 1120 012d 23       		.byte	0x23
 1121 012e 00       		.uleb128 0
 1122 012f 0C       		.uleb128 0xc
 1123 0130 8B010000 		.4byte	.LASF22
 1124 0134 06       		.byte	0x6
 1125 0135 49       		.byte	0x49
 1126 0136 9F010000 		.4byte	0x19f
 1127 013a 02       		.byte	0x2
 1128 013b 23       		.byte	0x23
 1129 013c 04       		.uleb128 0x4
 1130 013d 0D       		.uleb128 0xd
 1131 013e 70757400 		.ascii	"put\000"
 1132 0142 06       		.byte	0x6
 1133 0143 49       		.byte	0x49
 1134 0144 BA010000 		.4byte	0x1ba
 1135 0148 02       		.byte	0x2
 1136 0149 23       		.byte	0x23
 1137 014a 08       		.uleb128 0x8
 1138 014b 0D       		.uleb128 0xd
 1139 014c 67657400 		.ascii	"get\000"
 1140 0150 06       		.byte	0x6
 1141 0151 49       		.byte	0x49
 1142 0152 F9000000 		.4byte	0xf9
 1143 0156 02       		.byte	0x2
 1144 0157 23       		.byte	0x23
 1145 0158 0C       		.uleb128 0xc
 1146 0159 00       		.byte	0
 1147 015a 09       		.uleb128 0x9
 1148 015b 01       		.byte	0x1
 1149 015c 30000000 		.4byte	0x30
 1150 0160 74010000 		.4byte	0x174
 1151 0164 0A       		.uleb128 0xa
 1152 0165 D9000000 		.4byte	0xd9
 1153 0169 0A       		.uleb128 0xa
 1154 016a 74010000 		.4byte	0x174
 1155 016e 0A       		.uleb128 0xa
 1156 016f 30000000 		.4byte	0x30
 1157 0173 00       		.byte	0
 1158 0174 07       		.uleb128 0x7
 1159 0175 04       		.byte	0x4
 1160 0176 7A010000 		.4byte	0x17a
 1161 017a 08       		.uleb128 0x8
 1162 017b 49000000 		.4byte	0x49
 1163 017f 07       		.uleb128 0x7
 1164 0180 04       		.byte	0x4
 1165 0181 5A010000 		.4byte	0x15a
 1166 0185 09       		.uleb128 0x9
 1167 0186 01       		.byte	0x1
 1168 0187 30000000 		.4byte	0x30
 1169 018b 9F010000 		.4byte	0x19f
 1170 018f 0A       		.uleb128 0xa
 1171 0190 D9000000 		.4byte	0xd9
 1172 0194 0A       		.uleb128 0xa
 1173 0195 0F010000 		.4byte	0x10f
 1174 0199 0A       		.uleb128 0xa
ARM GAS  C:\Users\RICHRD~1\AppData\Local\Temp\cciH5zWJ.s 			page 23


 1175 019a 30000000 		.4byte	0x30
 1176 019e 00       		.byte	0
 1177 019f 07       		.uleb128 0x7
 1178 01a0 04       		.byte	0x4
 1179 01a1 85010000 		.4byte	0x185
 1180 01a5 09       		.uleb128 0x9
 1181 01a6 01       		.byte	0x1
 1182 01a7 C3000000 		.4byte	0xc3
 1183 01ab BA010000 		.4byte	0x1ba
 1184 01af 0A       		.uleb128 0xa
 1185 01b0 D9000000 		.4byte	0xd9
 1186 01b4 0A       		.uleb128 0xa
 1187 01b5 49000000 		.4byte	0x49
 1188 01b9 00       		.byte	0
 1189 01ba 07       		.uleb128 0x7
 1190 01bb 04       		.byte	0x4
 1191 01bc A5010000 		.4byte	0x1a5
 1192 01c0 0E       		.uleb128 0xe
 1193 01c1 04       		.byte	0x4
 1194 01c2 06       		.byte	0x6
 1195 01c3 51       		.byte	0x51
 1196 01c4 D7010000 		.4byte	0x1d7
 1197 01c8 0D       		.uleb128 0xd
 1198 01c9 766D7400 		.ascii	"vmt\000"
 1199 01cd 06       		.byte	0x6
 1200 01ce 53       		.byte	0x53
 1201 01cf D7010000 		.4byte	0x1d7
 1202 01d3 02       		.byte	0x2
 1203 01d4 23       		.byte	0x23
 1204 01d5 00       		.uleb128 0
 1205 01d6 00       		.byte	0
 1206 01d7 07       		.uleb128 0x7
 1207 01d8 04       		.byte	0x4
 1208 01d9 DD010000 		.4byte	0x1dd
 1209 01dd 08       		.uleb128 0x8
 1210 01de 15010000 		.4byte	0x115
 1211 01e2 03       		.uleb128 0x3
 1212 01e3 D1000000 		.4byte	.LASF23
 1213 01e7 06       		.byte	0x6
 1214 01e8 55       		.byte	0x55
 1215 01e9 C0010000 		.4byte	0x1c0
 1216 01ed 0F       		.uleb128 0xf
 1217 01ee 86000000 		.4byte	0x86
 1218 01f2 FD010000 		.4byte	0x1fd
 1219 01f6 10       		.uleb128 0x10
 1220 01f7 E0000000 		.4byte	0xe0
 1221 01fb 03       		.byte	0x3
 1222 01fc 00       		.byte	0
 1223 01fd 06       		.uleb128 0x6
 1224 01fe 74000000 		.4byte	0x74
 1225 0202 0B       		.uleb128 0xb
 1226 0203 3B010000 		.4byte	.LASF25
 1227 0207 20       		.byte	0x20
 1228 0208 07       		.byte	0x7
 1229 0209 4E       		.byte	0x4e
 1230 020a 7F020000 		.4byte	0x27f
 1231 020e 0C       		.uleb128 0xc
ARM GAS  C:\Users\RICHRD~1\AppData\Local\Temp\cciH5zWJ.s 			page 24


 1232 020f 33000000 		.4byte	.LASF21
 1233 0213 07       		.byte	0x7
 1234 0214 4F       		.byte	0x4f
 1235 0215 7F010000 		.4byte	0x17f
 1236 0219 02       		.byte	0x2
 1237 021a 23       		.byte	0x23
 1238 021b 00       		.uleb128 0
 1239 021c 0C       		.uleb128 0xc
 1240 021d 8B010000 		.4byte	.LASF22
 1241 0221 07       		.byte	0x7
 1242 0222 4F       		.byte	0x4f
 1243 0223 9F010000 		.4byte	0x19f
 1244 0227 02       		.byte	0x2
 1245 0228 23       		.byte	0x23
 1246 0229 04       		.uleb128 0x4
 1247 022a 0D       		.uleb128 0xd
 1248 022b 70757400 		.ascii	"put\000"
 1249 022f 07       		.byte	0x7
 1250 0230 4F       		.byte	0x4f
 1251 0231 BA010000 		.4byte	0x1ba
 1252 0235 02       		.byte	0x2
 1253 0236 23       		.byte	0x23
 1254 0237 08       		.uleb128 0x8
 1255 0238 0D       		.uleb128 0xd
 1256 0239 67657400 		.ascii	"get\000"
 1257 023d 07       		.byte	0x7
 1258 023e 4F       		.byte	0x4f
 1259 023f F9000000 		.4byte	0xf9
 1260 0243 02       		.byte	0x2
 1261 0244 23       		.byte	0x23
 1262 0245 0C       		.uleb128 0xc
 1263 0246 0C       		.uleb128 0xc
 1264 0247 B8020000 		.4byte	.LASF26
 1265 024b 07       		.byte	0x7
 1266 024c 4F       		.byte	0x4f
 1267 024d 99020000 		.4byte	0x299
 1268 0251 02       		.byte	0x2
 1269 0252 23       		.byte	0x23
 1270 0253 10       		.uleb128 0x10
 1271 0254 0C       		.uleb128 0xc
 1272 0255 BB010000 		.4byte	.LASF27
 1273 0259 07       		.byte	0x7
 1274 025a 4F       		.byte	0x4f
 1275 025b B4020000 		.4byte	0x2b4
 1276 025f 02       		.byte	0x2
 1277 0260 23       		.byte	0x23
 1278 0261 14       		.uleb128 0x14
 1279 0262 0C       		.uleb128 0xc
 1280 0263 03010000 		.4byte	.LASF28
 1281 0267 07       		.byte	0x7
 1282 0268 4F       		.byte	0x4f
 1283 0269 D9020000 		.4byte	0x2d9
 1284 026d 02       		.byte	0x2
 1285 026e 23       		.byte	0x23
 1286 026f 18       		.uleb128 0x18
 1287 0270 0C       		.uleb128 0xc
 1288 0271 EE020000 		.4byte	.LASF29
ARM GAS  C:\Users\RICHRD~1\AppData\Local\Temp\cciH5zWJ.s 			page 25


 1289 0275 07       		.byte	0x7
 1290 0276 4F       		.byte	0x4f
 1291 0277 FE020000 		.4byte	0x2fe
 1292 027b 02       		.byte	0x2
 1293 027c 23       		.byte	0x23
 1294 027d 1C       		.uleb128 0x1c
 1295 027e 00       		.byte	0
 1296 027f 09       		.uleb128 0x9
 1297 0280 01       		.byte	0x1
 1298 0281 C3000000 		.4byte	0xc3
 1299 0285 99020000 		.4byte	0x299
 1300 0289 0A       		.uleb128 0xa
 1301 028a D9000000 		.4byte	0xd9
 1302 028e 0A       		.uleb128 0xa
 1303 028f 49000000 		.4byte	0x49
 1304 0293 0A       		.uleb128 0xa
 1305 0294 CE000000 		.4byte	0xce
 1306 0298 00       		.byte	0
 1307 0299 07       		.uleb128 0x7
 1308 029a 04       		.byte	0x4
 1309 029b 7F020000 		.4byte	0x27f
 1310 029f 09       		.uleb128 0x9
 1311 02a0 01       		.byte	0x1
 1312 02a1 C3000000 		.4byte	0xc3
 1313 02a5 B4020000 		.4byte	0x2b4
 1314 02a9 0A       		.uleb128 0xa
 1315 02aa D9000000 		.4byte	0xd9
 1316 02ae 0A       		.uleb128 0xa
 1317 02af CE000000 		.4byte	0xce
 1318 02b3 00       		.byte	0
 1319 02b4 07       		.uleb128 0x7
 1320 02b5 04       		.byte	0x4
 1321 02b6 9F020000 		.4byte	0x29f
 1322 02ba 09       		.uleb128 0x9
 1323 02bb 01       		.byte	0x1
 1324 02bc 30000000 		.4byte	0x30
 1325 02c0 D9020000 		.4byte	0x2d9
 1326 02c4 0A       		.uleb128 0xa
 1327 02c5 D9000000 		.4byte	0xd9
 1328 02c9 0A       		.uleb128 0xa
 1329 02ca 74010000 		.4byte	0x174
 1330 02ce 0A       		.uleb128 0xa
 1331 02cf 30000000 		.4byte	0x30
 1332 02d3 0A       		.uleb128 0xa
 1333 02d4 CE000000 		.4byte	0xce
 1334 02d8 00       		.byte	0
 1335 02d9 07       		.uleb128 0x7
 1336 02da 04       		.byte	0x4
 1337 02db BA020000 		.4byte	0x2ba
 1338 02df 09       		.uleb128 0x9
 1339 02e0 01       		.byte	0x1
 1340 02e1 30000000 		.4byte	0x30
 1341 02e5 FE020000 		.4byte	0x2fe
 1342 02e9 0A       		.uleb128 0xa
 1343 02ea D9000000 		.4byte	0xd9
 1344 02ee 0A       		.uleb128 0xa
 1345 02ef 0F010000 		.4byte	0x10f
ARM GAS  C:\Users\RICHRD~1\AppData\Local\Temp\cciH5zWJ.s 			page 26


 1346 02f3 0A       		.uleb128 0xa
 1347 02f4 30000000 		.4byte	0x30
 1348 02f8 0A       		.uleb128 0xa
 1349 02f9 CE000000 		.4byte	0xce
 1350 02fd 00       		.byte	0
 1351 02fe 07       		.uleb128 0x7
 1352 02ff 04       		.byte	0x4
 1353 0300 DF020000 		.4byte	0x2df
 1354 0304 0E       		.uleb128 0xe
 1355 0305 04       		.byte	0x4
 1356 0306 07       		.byte	0x7
 1357 0307 59       		.byte	0x59
 1358 0308 1B030000 		.4byte	0x31b
 1359 030c 0D       		.uleb128 0xd
 1360 030d 766D7400 		.ascii	"vmt\000"
 1361 0311 07       		.byte	0x7
 1362 0312 5B       		.byte	0x5b
 1363 0313 1B030000 		.4byte	0x31b
 1364 0317 02       		.byte	0x2
 1365 0318 23       		.byte	0x23
 1366 0319 00       		.uleb128 0
 1367 031a 00       		.byte	0
 1368 031b 07       		.uleb128 0x7
 1369 031c 04       		.byte	0x4
 1370 031d 21030000 		.4byte	0x321
 1371 0321 08       		.uleb128 0x8
 1372 0322 02020000 		.4byte	0x202
 1373 0326 03       		.uleb128 0x3
 1374 0327 06040000 		.4byte	.LASF30
 1375 032b 07       		.byte	0x7
 1376 032c 5D       		.byte	0x5d
 1377 032d 04030000 		.4byte	0x304
 1378 0331 11       		.uleb128 0x11
 1379 0332 01       		.byte	0x1
 1380 0333 08       		.byte	0x8
 1381 0334 55       		.byte	0x55
 1382 0335 4C030000 		.4byte	0x34c
 1383 0339 12       		.uleb128 0x12
 1384 033a 04020000 		.4byte	.LASF31
 1385 033e 00       		.sleb128 0
 1386 033f 12       		.uleb128 0x12
 1387 0340 BA030000 		.4byte	.LASF32
 1388 0344 01       		.sleb128 1
 1389 0345 12       		.uleb128 0x12
 1390 0346 A9030000 		.4byte	.LASF33
 1391 034a 02       		.sleb128 2
 1392 034b 00       		.byte	0
 1393 034c 03       		.uleb128 0x3
 1394 034d 29040000 		.4byte	.LASF34
 1395 0351 08       		.byte	0x8
 1396 0352 59       		.byte	0x59
 1397 0353 31030000 		.4byte	0x331
 1398 0357 03       		.uleb128 0x3
 1399 0358 05030000 		.4byte	.LASF35
 1400 035c 08       		.byte	0x8
 1401 035d 5E       		.byte	0x5e
 1402 035e 62030000 		.4byte	0x362
ARM GAS  C:\Users\RICHRD~1\AppData\Local\Temp\cciH5zWJ.s 			page 27


 1403 0362 13       		.uleb128 0x13
 1404 0363 05030000 		.4byte	.LASF35
 1405 0367 14       		.byte	0x14
 1406 0368 09       		.byte	0x9
 1407 0369 6F01     		.2byte	0x16f
 1408 036b BB030000 		.4byte	0x3bb
 1409 036f 14       		.uleb128 0x14
 1410 0370 53000000 		.4byte	.LASF36
 1411 0374 09       		.byte	0x9
 1412 0375 7301     		.2byte	0x173
 1413 0377 4C030000 		.4byte	0x34c
 1414 037b 02       		.byte	0x2
 1415 037c 23       		.byte	0x23
 1416 037d 00       		.uleb128 0
 1417 037e 14       		.uleb128 0x14
 1418 037f 0A010000 		.4byte	.LASF37
 1419 0383 09       		.byte	0x9
 1420 0384 7701     		.2byte	0x177
 1421 0386 0A060000 		.4byte	0x60a
 1422 038a 02       		.byte	0x2
 1423 038b 23       		.byte	0x23
 1424 038c 04       		.uleb128 0x4
 1425 038d 14       		.uleb128 0x14
 1426 038e FF030000 		.4byte	.LASF38
 1427 0392 09       		.byte	0x9
 1428 0393 7B01     		.2byte	0x17b
 1429 0395 4A050000 		.4byte	0x54a
 1430 0399 02       		.byte	0x2
 1431 039a 23       		.byte	0x23
 1432 039b 08       		.uleb128 0x8
 1433 039c 14       		.uleb128 0x14
 1434 039d 74030000 		.4byte	.LASF39
 1435 03a1 09       		.byte	0x9
 1436 03a2 8301     		.2byte	0x183
 1437 03a4 86000000 		.4byte	0x86
 1438 03a8 02       		.byte	0x2
 1439 03a9 23       		.byte	0x23
 1440 03aa 0C       		.uleb128 0xc
 1441 03ab 15       		.uleb128 0x15
 1442 03ac 74696D00 		.ascii	"tim\000"
 1443 03b0 09       		.byte	0x9
 1444 03b1 8701     		.2byte	0x187
 1445 03b3 15060000 		.4byte	0x615
 1446 03b7 02       		.byte	0x2
 1447 03b8 23       		.byte	0x23
 1448 03b9 10       		.uleb128 0x10
 1449 03ba 00       		.byte	0
 1450 03bb 03       		.uleb128 0x3
 1451 03bc 34040000 		.4byte	.LASF40
 1452 03c0 08       		.byte	0x8
 1453 03c1 65       		.byte	0x65
 1454 03c2 C6030000 		.4byte	0x3c6
 1455 03c6 07       		.uleb128 0x7
 1456 03c7 04       		.byte	0x4
 1457 03c8 CC030000 		.4byte	0x3cc
 1458 03cc 16       		.uleb128 0x16
 1459 03cd 01       		.byte	0x1
ARM GAS  C:\Users\RICHRD~1\AppData\Local\Temp\cciH5zWJ.s 			page 28


 1460 03ce D8030000 		.4byte	0x3d8
 1461 03d2 0A       		.uleb128 0xa
 1462 03d3 D8030000 		.4byte	0x3d8
 1463 03d7 00       		.byte	0
 1464 03d8 07       		.uleb128 0x7
 1465 03d9 04       		.byte	0x4
 1466 03da 57030000 		.4byte	0x357
 1467 03de 17       		.uleb128 0x17
 1468 03df 60       		.byte	0x60
 1469 03e0 0A       		.byte	0xa
 1470 03e1 9E01     		.2byte	0x19e
 1471 03e3 21050000 		.4byte	0x521
 1472 03e7 15       		.uleb128 0x15
 1473 03e8 43523100 		.ascii	"CR1\000"
 1474 03ec 0A       		.byte	0xa
 1475 03ed 9F01     		.2byte	0x19f
 1476 03ef DB000000 		.4byte	0xdb
 1477 03f3 02       		.byte	0x2
 1478 03f4 23       		.byte	0x23
 1479 03f5 00       		.uleb128 0
 1480 03f6 15       		.uleb128 0x15
 1481 03f7 43523200 		.ascii	"CR2\000"
 1482 03fb 0A       		.byte	0xa
 1483 03fc A001     		.2byte	0x1a0
 1484 03fe DB000000 		.4byte	0xdb
 1485 0402 02       		.byte	0x2
 1486 0403 23       		.byte	0x23
 1487 0404 04       		.uleb128 0x4
 1488 0405 14       		.uleb128 0x14
 1489 0406 FF010000 		.4byte	.LASF41
 1490 040a 0A       		.byte	0xa
 1491 040b A101     		.2byte	0x1a1
 1492 040d DB000000 		.4byte	0xdb
 1493 0411 02       		.byte	0x2
 1494 0412 23       		.byte	0x23
 1495 0413 08       		.uleb128 0x8
 1496 0414 14       		.uleb128 0x14
 1497 0415 BD020000 		.4byte	.LASF42
 1498 0419 0A       		.byte	0xa
 1499 041a A201     		.2byte	0x1a2
 1500 041c DB000000 		.4byte	0xdb
 1501 0420 02       		.byte	0x2
 1502 0421 23       		.byte	0x23
 1503 0422 0C       		.uleb128 0xc
 1504 0423 15       		.uleb128 0x15
 1505 0424 535200   		.ascii	"SR\000"
 1506 0427 0A       		.byte	0xa
 1507 0428 A301     		.2byte	0x1a3
 1508 042a DB000000 		.4byte	0xdb
 1509 042e 02       		.byte	0x2
 1510 042f 23       		.byte	0x23
 1511 0430 10       		.uleb128 0x10
 1512 0431 15       		.uleb128 0x15
 1513 0432 45475200 		.ascii	"EGR\000"
 1514 0436 0A       		.byte	0xa
 1515 0437 A401     		.2byte	0x1a4
 1516 0439 DB000000 		.4byte	0xdb
ARM GAS  C:\Users\RICHRD~1\AppData\Local\Temp\cciH5zWJ.s 			page 29


 1517 043d 02       		.byte	0x2
 1518 043e 23       		.byte	0x23
 1519 043f 14       		.uleb128 0x14
 1520 0440 14       		.uleb128 0x14
 1521 0441 CE010000 		.4byte	.LASF43
 1522 0445 0A       		.byte	0xa
 1523 0446 A501     		.2byte	0x1a5
 1524 0448 DB000000 		.4byte	0xdb
 1525 044c 02       		.byte	0x2
 1526 044d 23       		.byte	0x23
 1527 044e 18       		.uleb128 0x18
 1528 044f 14       		.uleb128 0x14
 1529 0450 59000000 		.4byte	.LASF44
 1530 0454 0A       		.byte	0xa
 1531 0455 A601     		.2byte	0x1a6
 1532 0457 DB000000 		.4byte	0xdb
 1533 045b 02       		.byte	0x2
 1534 045c 23       		.byte	0x23
 1535 045d 1C       		.uleb128 0x1c
 1536 045e 14       		.uleb128 0x14
 1537 045f 2E000000 		.4byte	.LASF45
 1538 0463 0A       		.byte	0xa
 1539 0464 A701     		.2byte	0x1a7
 1540 0466 DB000000 		.4byte	0xdb
 1541 046a 02       		.byte	0x2
 1542 046b 23       		.byte	0x23
 1543 046c 20       		.uleb128 0x20
 1544 046d 15       		.uleb128 0x15
 1545 046e 434E5400 		.ascii	"CNT\000"
 1546 0472 0A       		.byte	0xa
 1547 0473 A801     		.2byte	0x1a8
 1548 0475 DB000000 		.4byte	0xdb
 1549 0479 02       		.byte	0x2
 1550 047a 23       		.byte	0x23
 1551 047b 24       		.uleb128 0x24
 1552 047c 15       		.uleb128 0x15
 1553 047d 50534300 		.ascii	"PSC\000"
 1554 0481 0A       		.byte	0xa
 1555 0482 A901     		.2byte	0x1a9
 1556 0484 DB000000 		.4byte	0xdb
 1557 0488 02       		.byte	0x2
 1558 0489 23       		.byte	0x23
 1559 048a 28       		.uleb128 0x28
 1560 048b 15       		.uleb128 0x15
 1561 048c 41525200 		.ascii	"ARR\000"
 1562 0490 0A       		.byte	0xa
 1563 0491 AA01     		.2byte	0x1aa
 1564 0493 DB000000 		.4byte	0xdb
 1565 0497 02       		.byte	0x2
 1566 0498 23       		.byte	0x23
 1567 0499 2C       		.uleb128 0x2c
 1568 049a 15       		.uleb128 0x15
 1569 049b 52435200 		.ascii	"RCR\000"
 1570 049f 0A       		.byte	0xa
 1571 04a0 AB01     		.2byte	0x1ab
 1572 04a2 DB000000 		.4byte	0xdb
 1573 04a6 02       		.byte	0x2
ARM GAS  C:\Users\RICHRD~1\AppData\Local\Temp\cciH5zWJ.s 			page 30


 1574 04a7 23       		.byte	0x23
 1575 04a8 30       		.uleb128 0x30
 1576 04a9 15       		.uleb128 0x15
 1577 04aa 43435200 		.ascii	"CCR\000"
 1578 04ae 0A       		.byte	0xa
 1579 04af AC01     		.2byte	0x1ac
 1580 04b1 21050000 		.4byte	0x521
 1581 04b5 02       		.byte	0x2
 1582 04b6 23       		.byte	0x23
 1583 04b7 34       		.uleb128 0x34
 1584 04b8 14       		.uleb128 0x14
 1585 04b9 1D020000 		.4byte	.LASF46
 1586 04bd 0A       		.byte	0xa
 1587 04be AD01     		.2byte	0x1ad
 1588 04c0 DB000000 		.4byte	0xdb
 1589 04c4 02       		.byte	0x2
 1590 04c5 23       		.byte	0x23
 1591 04c6 44       		.uleb128 0x44
 1592 04c7 15       		.uleb128 0x15
 1593 04c8 44435200 		.ascii	"DCR\000"
 1594 04cc 0A       		.byte	0xa
 1595 04cd AE01     		.2byte	0x1ae
 1596 04cf DB000000 		.4byte	0xdb
 1597 04d3 02       		.byte	0x2
 1598 04d4 23       		.byte	0x23
 1599 04d5 48       		.uleb128 0x48
 1600 04d6 14       		.uleb128 0x14
 1601 04d7 4E000000 		.4byte	.LASF47
 1602 04db 0A       		.byte	0xa
 1603 04dc AF01     		.2byte	0x1af
 1604 04de DB000000 		.4byte	0xdb
 1605 04e2 02       		.byte	0x2
 1606 04e3 23       		.byte	0x23
 1607 04e4 4C       		.uleb128 0x4c
 1608 04e5 15       		.uleb128 0x15
 1609 04e6 4F5200   		.ascii	"OR\000"
 1610 04e9 0A       		.byte	0xa
 1611 04ea B001     		.2byte	0x1b0
 1612 04ec DB000000 		.4byte	0xdb
 1613 04f0 02       		.byte	0x2
 1614 04f1 23       		.byte	0x23
 1615 04f2 50       		.uleb128 0x50
 1616 04f3 14       		.uleb128 0x14
 1617 04f4 5F000000 		.4byte	.LASF48
 1618 04f8 0A       		.byte	0xa
 1619 04f9 B101     		.2byte	0x1b1
 1620 04fb DB000000 		.4byte	0xdb
 1621 04ff 02       		.byte	0x2
 1622 0500 23       		.byte	0x23
 1623 0501 54       		.uleb128 0x54
 1624 0502 14       		.uleb128 0x14
 1625 0503 B1010000 		.4byte	.LASF49
 1626 0507 0A       		.byte	0xa
 1627 0508 B201     		.2byte	0x1b2
 1628 050a DB000000 		.4byte	0xdb
 1629 050e 02       		.byte	0x2
 1630 050f 23       		.byte	0x23
ARM GAS  C:\Users\RICHRD~1\AppData\Local\Temp\cciH5zWJ.s 			page 31


 1631 0510 58       		.uleb128 0x58
 1632 0511 14       		.uleb128 0x14
 1633 0512 B6010000 		.4byte	.LASF50
 1634 0516 0A       		.byte	0xa
 1635 0517 B301     		.2byte	0x1b3
 1636 0519 DB000000 		.4byte	0xdb
 1637 051d 02       		.byte	0x2
 1638 051e 23       		.byte	0x23
 1639 051f 5C       		.uleb128 0x5c
 1640 0520 00       		.byte	0
 1641 0521 06       		.uleb128 0x6
 1642 0522 ED010000 		.4byte	0x1ed
 1643 0526 18       		.uleb128 0x18
 1644 0527 F9020000 		.4byte	.LASF51
 1645 052b 0A       		.byte	0xa
 1646 052c B401     		.2byte	0x1b4
 1647 052e DE030000 		.4byte	0x3de
 1648 0532 18       		.uleb128 0x18
 1649 0533 12040000 		.4byte	.LASF52
 1650 0537 09       		.byte	0x9
 1651 0538 2001     		.2byte	0x120
 1652 053a 86000000 		.4byte	0x86
 1653 053e 18       		.uleb128 0x18
 1654 053f E6000000 		.4byte	.LASF53
 1655 0543 09       		.byte	0x9
 1656 0544 2501     		.2byte	0x125
 1657 0546 49000000 		.4byte	0x49
 1658 054a 18       		.uleb128 0x18
 1659 054b 76000000 		.4byte	.LASF54
 1660 054f 09       		.byte	0x9
 1661 0550 2A01     		.2byte	0x12a
 1662 0552 62000000 		.4byte	0x62
 1663 0556 17       		.uleb128 0x17
 1664 0557 08       		.byte	0x8
 1665 0558 09       		.byte	0x9
 1666 0559 2F01     		.2byte	0x12f
 1667 055b 7E050000 		.4byte	0x57e
 1668 055f 14       		.uleb128 0x14
 1669 0560 F3000000 		.4byte	.LASF55
 1670 0564 09       		.byte	0x9
 1671 0565 3301     		.2byte	0x133
 1672 0567 32050000 		.4byte	0x532
 1673 056b 02       		.byte	0x2
 1674 056c 23       		.byte	0x23
 1675 056d 00       		.uleb128 0
 1676 056e 14       		.uleb128 0x14
 1677 056f 48040000 		.4byte	.LASF56
 1678 0573 09       		.byte	0x9
 1679 0574 3901     		.2byte	0x139
 1680 0576 BB030000 		.4byte	0x3bb
 1681 057a 02       		.byte	0x2
 1682 057b 23       		.byte	0x23
 1683 057c 04       		.uleb128 0x4
 1684 057d 00       		.byte	0
 1685 057e 18       		.uleb128 0x18
 1686 057f EE030000 		.4byte	.LASF57
 1687 0583 09       		.byte	0x9
ARM GAS  C:\Users\RICHRD~1\AppData\Local\Temp\cciH5zWJ.s 			page 32


 1688 0584 3B01     		.2byte	0x13b
 1689 0586 56050000 		.4byte	0x556
 1690 058a 17       		.uleb128 0x17
 1691 058b 34       		.byte	0x34
 1692 058c 09       		.byte	0x9
 1693 058d 4001     		.2byte	0x140
 1694 058f EE050000 		.4byte	0x5ee
 1695 0593 14       		.uleb128 0x14
 1696 0594 43030000 		.4byte	.LASF58
 1697 0598 09       		.byte	0x9
 1698 0599 4601     		.2byte	0x146
 1699 059b 86000000 		.4byte	0x86
 1700 059f 02       		.byte	0x2
 1701 05a0 23       		.byte	0x23
 1702 05a1 00       		.uleb128 0
 1703 05a2 14       		.uleb128 0x14
 1704 05a3 FF030000 		.4byte	.LASF38
 1705 05a7 09       		.byte	0x9
 1706 05a8 4C01     		.2byte	0x14c
 1707 05aa 4A050000 		.4byte	0x54a
 1708 05ae 02       		.byte	0x2
 1709 05af 23       		.byte	0x23
 1710 05b0 04       		.uleb128 0x4
 1711 05b1 14       		.uleb128 0x14
 1712 05b2 48040000 		.4byte	.LASF56
 1713 05b6 09       		.byte	0x9
 1714 05b7 5201     		.2byte	0x152
 1715 05b9 BB030000 		.4byte	0x3bb
 1716 05bd 02       		.byte	0x2
 1717 05be 23       		.byte	0x23
 1718 05bf 08       		.uleb128 0x8
 1719 05c0 14       		.uleb128 0x14
 1720 05c1 59030000 		.4byte	.LASF59
 1721 05c5 09       		.byte	0x9
 1722 05c6 5601     		.2byte	0x156
 1723 05c8 EE050000 		.4byte	0x5ee
 1724 05cc 02       		.byte	0x2
 1725 05cd 23       		.byte	0x23
 1726 05ce 0C       		.uleb128 0xc
 1727 05cf 15       		.uleb128 0x15
 1728 05d0 63723200 		.ascii	"cr2\000"
 1729 05d4 09       		.byte	0x9
 1730 05d5 5C01     		.2byte	0x15c
 1731 05d7 86000000 		.4byte	0x86
 1732 05db 02       		.byte	0x2
 1733 05dc 23       		.byte	0x23
 1734 05dd 2C       		.uleb128 0x2c
 1735 05de 14       		.uleb128 0x14
 1736 05df C3030000 		.4byte	.LASF60
 1737 05e3 09       		.byte	0x9
 1738 05e4 6901     		.2byte	0x169
 1739 05e6 86000000 		.4byte	0x86
 1740 05ea 02       		.byte	0x2
 1741 05eb 23       		.byte	0x23
 1742 05ec 30       		.uleb128 0x30
 1743 05ed 00       		.byte	0
 1744 05ee 0F       		.uleb128 0xf
ARM GAS  C:\Users\RICHRD~1\AppData\Local\Temp\cciH5zWJ.s 			page 33


 1745 05ef 7E050000 		.4byte	0x57e
 1746 05f3 FE050000 		.4byte	0x5fe
 1747 05f7 10       		.uleb128 0x10
 1748 05f8 E0000000 		.4byte	0xe0
 1749 05fc 03       		.byte	0x3
 1750 05fd 00       		.byte	0
 1751 05fe 18       		.uleb128 0x18
 1752 05ff A1020000 		.4byte	.LASF61
 1753 0603 09       		.byte	0x9
 1754 0604 6A01     		.2byte	0x16a
 1755 0606 8A050000 		.4byte	0x58a
 1756 060a 07       		.uleb128 0x7
 1757 060b 04       		.byte	0x4
 1758 060c 10060000 		.4byte	0x610
 1759 0610 08       		.uleb128 0x8
 1760 0611 FE050000 		.4byte	0x5fe
 1761 0615 07       		.uleb128 0x7
 1762 0616 04       		.byte	0x4
 1763 0617 26050000 		.4byte	0x526
 1764 061b 07       		.uleb128 0x7
 1765 061c 04       		.byte	0x4
 1766 061d F2000000 		.4byte	0xf2
 1767 0621 04       		.uleb128 0x4
 1768 0622 08       		.byte	0x8
 1769 0623 04       		.byte	0x4
 1770 0624 7A030000 		.4byte	.LASF62
 1771 0628 04       		.uleb128 0x4
 1772 0629 04       		.byte	0x4
 1773 062a 04       		.byte	0x4
 1774 062b 64010000 		.4byte	.LASF63
 1775 062f 04       		.uleb128 0x4
 1776 0630 08       		.byte	0x8
 1777 0631 04       		.byte	0x4
 1778 0632 F3010000 		.4byte	.LASF64
 1779 0636 03       		.uleb128 0x3
 1780 0637 D9030000 		.4byte	.LASF65
 1781 063b 0B       		.byte	0xb
 1782 063c 28       		.byte	0x28
 1783 063d 41060000 		.4byte	0x641
 1784 0641 0B       		.uleb128 0xb
 1785 0642 9E010000 		.4byte	.LASF66
 1786 0646 04       		.byte	0x4
 1787 0647 0C       		.byte	0xc
 1788 0648 00       		.byte	0
 1789 0649 5B060000 		.4byte	0x65b
 1790 064d 19       		.uleb128 0x19
 1791 064e 93020000 		.4byte	.LASF102
 1792 0652 D9000000 		.4byte	0xd9
 1793 0656 02       		.byte	0x2
 1794 0657 23       		.byte	0x23
 1795 0658 00       		.uleb128 0
 1796 0659 01       		.byte	0x1
 1797 065a 00       		.byte	0
 1798 065b 03       		.uleb128 0x3
 1799 065c 1A010000 		.4byte	.LASF67
 1800 0660 0B       		.byte	0xb
 1801 0661 66       		.byte	0x66
ARM GAS  C:\Users\RICHRD~1\AppData\Local\Temp\cciH5zWJ.s 			page 34


 1802 0662 36060000 		.4byte	0x636
 1803 0666 0B       		.uleb128 0xb
 1804 0667 AB020000 		.4byte	.LASF68
 1805 066b 06       		.byte	0x6
 1806 066c 02       		.byte	0x2
 1807 066d 10       		.byte	0x10
 1808 066e C7060000 		.4byte	0x6c7
 1809 0672 0C       		.uleb128 0xc
 1810 0673 4A010000 		.4byte	.LASF69
 1811 0677 02       		.byte	0x2
 1812 0678 12       		.byte	0x12
 1813 0679 BC000000 		.4byte	0xbc
 1814 067d 02       		.byte	0x2
 1815 067e 23       		.byte	0x23
 1816 067f 00       		.uleb128 0
 1817 0680 0C       		.uleb128 0xc
 1818 0681 39000000 		.4byte	.LASF70
 1819 0685 02       		.byte	0x2
 1820 0686 13       		.byte	0x13
 1821 0687 BC000000 		.4byte	0xbc
 1822 068b 02       		.byte	0x2
 1823 068c 23       		.byte	0x23
 1824 068d 01       		.uleb128 0x1
 1825 068e 0C       		.uleb128 0xc
 1826 068f C2020000 		.4byte	.LASF71
 1827 0693 02       		.byte	0x2
 1828 0694 14       		.byte	0x14
 1829 0695 BC000000 		.4byte	0xbc
 1830 0699 02       		.byte	0x2
 1831 069a 23       		.byte	0x23
 1832 069b 02       		.uleb128 0x2
 1833 069c 0C       		.uleb128 0xc
 1834 069d 39020000 		.4byte	.LASF72
 1835 06a1 02       		.byte	0x2
 1836 06a2 15       		.byte	0x15
 1837 06a3 BC000000 		.4byte	0xbc
 1838 06a7 02       		.byte	0x2
 1839 06a8 23       		.byte	0x23
 1840 06a9 03       		.uleb128 0x3
 1841 06aa 0C       		.uleb128 0xc
 1842 06ab 81030000 		.4byte	.LASF73
 1843 06af 02       		.byte	0x2
 1844 06b0 16       		.byte	0x16
 1845 06b1 BC000000 		.4byte	0xbc
 1846 06b5 02       		.byte	0x2
 1847 06b6 23       		.byte	0x23
 1848 06b7 04       		.uleb128 0x4
 1849 06b8 0C       		.uleb128 0xc
 1850 06b9 11010000 		.4byte	.LASF74
 1851 06bd 02       		.byte	0x2
 1852 06be 17       		.byte	0x17
 1853 06bf BC000000 		.4byte	0xbc
 1854 06c3 02       		.byte	0x2
 1855 06c4 23       		.byte	0x23
 1856 06c5 05       		.uleb128 0x5
 1857 06c6 00       		.byte	0
 1858 06c7 1A       		.uleb128 0x1a
ARM GAS  C:\Users\RICHRD~1\AppData\Local\Temp\cciH5zWJ.s 			page 35


 1859 06c8 01       		.byte	0x1
 1860 06c9 F8000000 		.4byte	.LASF75
 1861 06cd 02       		.byte	0x2
 1862 06ce 62       		.byte	0x62
 1863 06cf 01       		.byte	0x1
 1864 06d0 01       		.byte	0x1
 1865 06d1 1A       		.uleb128 0x1a
 1866 06d2 01       		.byte	0x1
 1867 06d3 89030000 		.4byte	.LASF76
 1868 06d7 02       		.byte	0x2
 1869 06d8 6A       		.byte	0x6a
 1870 06d9 01       		.byte	0x1
 1871 06da 01       		.byte	0x1
 1872 06db 1A       		.uleb128 0x1a
 1873 06dc 01       		.byte	0x1
 1874 06dd E6010000 		.4byte	.LASF77
 1875 06e1 02       		.byte	0x2
 1876 06e2 72       		.byte	0x72
 1877 06e3 01       		.byte	0x1
 1878 06e4 01       		.byte	0x1
 1879 06e5 1B       		.uleb128 0x1b
 1880 06e6 01       		.byte	0x1
 1881 06e7 93030000 		.4byte	.LASF78
 1882 06eb 02       		.byte	0x2
 1883 06ec 7A       		.byte	0x7a
 1884 06ed 01       		.byte	0x1
 1885 06ee 49000000 		.4byte	0x49
 1886 06f2 01       		.byte	0x1
 1887 06f3 1B       		.uleb128 0x1b
 1888 06f4 01       		.byte	0x1
 1889 06f5 C0010000 		.4byte	.LASF79
 1890 06f9 02       		.byte	0x2
 1891 06fa 7E       		.byte	0x7e
 1892 06fb 01       		.byte	0x1
 1893 06fc 49000000 		.4byte	0x49
 1894 0700 01       		.byte	0x1
 1895 0701 1B       		.uleb128 0x1b
 1896 0702 01       		.byte	0x1
 1897 0703 3F000000 		.4byte	.LASF80
 1898 0707 02       		.byte	0x2
 1899 0708 83       		.byte	0x83
 1900 0709 01       		.byte	0x1
 1901 070a 49000000 		.4byte	0x49
 1902 070e 01       		.byte	0x1
 1903 070f 1B       		.uleb128 0x1b
 1904 0710 01       		.byte	0x1
 1905 0711 76020000 		.4byte	.LASF81
 1906 0715 02       		.byte	0x2
 1907 0716 87       		.byte	0x87
 1908 0717 01       		.byte	0x1
 1909 0718 49000000 		.4byte	0x49
 1910 071c 01       		.byte	0x1
 1911 071d 1C       		.uleb128 0x1c
 1912 071e 33030000 		.4byte	.LASF103
 1913 0722 01       		.byte	0x1
 1914 0723 45       		.byte	0x45
 1915 0724 01       		.byte	0x1
ARM GAS  C:\Users\RICHRD~1\AppData\Local\Temp\cciH5zWJ.s 			page 36


 1916 0725 00000000 		.4byte	.LFB118
 1917 0729 1E000000 		.4byte	.LFE118
 1918 072d 00000000 		.4byte	.LLST0
 1919 0731 01       		.byte	0x1
 1920 0732 80070000 		.4byte	0x780
 1921 0736 1D       		.uleb128 0x1d
 1922 0737 63687000 		.ascii	"chp\000"
 1923 073b 01       		.byte	0x1
 1924 073c 45       		.byte	0x45
 1925 073d 80070000 		.4byte	0x780
 1926 0741 38000000 		.4byte	.LLST1
 1927 0745 1E       		.uleb128 0x1e
 1928 0746 666D7400 		.ascii	"fmt\000"
 1929 074a 01       		.byte	0x1
 1930 074b 45       		.byte	0x45
 1931 074c E7000000 		.4byte	0xe7
 1932 0750 02       		.byte	0x2
 1933 0751 91       		.byte	0x91
 1934 0752 74       		.sleb128 -12
 1935 0753 1F       		.uleb128 0x1f
 1936 0754 20       		.uleb128 0x20
 1937 0755 617000   		.ascii	"ap\000"
 1938 0758 01       		.byte	0x1
 1939 0759 46       		.byte	0x46
 1940 075a 5B060000 		.4byte	0x65b
 1941 075e 02       		.byte	0x2
 1942 075f 91       		.byte	0x91
 1943 0760 6C       		.sleb128 -20
 1944 0761 21       		.uleb128 0x21
 1945 0762 14000000 		.4byte	.LVL1
 1946 0766 1F0D0000 		.4byte	0xd1f
 1947 076a 22       		.uleb128 0x22
 1948 076b 01       		.byte	0x1
 1949 076c 52       		.byte	0x52
 1950 076d 02       		.byte	0x2
 1951 076e 91       		.byte	0x91
 1952 076f 60       		.sleb128 -32
 1953 0770 22       		.uleb128 0x22
 1954 0771 01       		.byte	0x1
 1955 0772 51       		.byte	0x51
 1956 0773 03       		.byte	0x3
 1957 0774 91       		.byte	0x91
 1958 0775 5C       		.sleb128 -36
 1959 0776 06       		.byte	0x6
 1960 0777 22       		.uleb128 0x22
 1961 0778 01       		.byte	0x1
 1962 0779 50       		.byte	0x50
 1963 077a 03       		.byte	0x3
 1964 077b F3       		.byte	0xf3
 1965 077c 01       		.uleb128 0x1
 1966 077d 50       		.byte	0x50
 1967 077e 00       		.byte	0
 1968 077f 00       		.byte	0
 1969 0780 07       		.uleb128 0x7
 1970 0781 04       		.byte	0x4
 1971 0782 E2010000 		.4byte	0x1e2
 1972 0786 23       		.uleb128 0x23
ARM GAS  C:\Users\RICHRD~1\AppData\Local\Temp\cciH5zWJ.s 			page 37


 1973 0787 01       		.byte	0x1
 1974 0788 DA020000 		.4byte	.LASF82
 1975 078c 02       		.byte	0x2
 1976 078d 2E       		.byte	0x2e
 1977 078e 01       		.byte	0x1
 1978 078f 00000000 		.4byte	.LFB119
 1979 0793 48000000 		.4byte	.LFE119
 1980 0797 59000000 		.4byte	.LLST2
 1981 079b 01       		.byte	0x1
 1982 079c B4070000 		.4byte	0x7b4
 1983 07a0 21       		.uleb128 0x21
 1984 07a1 26000000 		.4byte	.LVL2
 1985 07a5 3D0D0000 		.4byte	0xd3d
 1986 07a9 22       		.uleb128 0x22
 1987 07aa 01       		.byte	0x1
 1988 07ab 51       		.byte	0x51
 1989 07ac 05       		.byte	0x5
 1990 07ad 03       		.byte	0x3
 1991 07ae 00000000 		.4byte	.LANCHOR1
 1992 07b2 00       		.byte	0
 1993 07b3 00       		.byte	0
 1994 07b4 23       		.uleb128 0x23
 1995 07b5 01       		.byte	0x1
 1996 07b6 5A010000 		.4byte	.LASF83
 1997 07ba 02       		.byte	0x2
 1998 07bb 37       		.byte	0x37
 1999 07bc 01       		.byte	0x1
 2000 07bd 00000000 		.4byte	.LFB120
 2001 07c1 E8000000 		.4byte	.LFE120
 2002 07c5 79000000 		.4byte	.LLST3
 2003 07c9 01       		.byte	0x1
 2004 07ca 71080000 		.4byte	0x871
 2005 07ce 24       		.uleb128 0x24
 2006 07cf 4A000000 		.4byte	.LVL3
 2007 07d3 01       		.byte	0x1
 2008 07d4 560D0000 		.4byte	0xd56
 2009 07d8 24       		.uleb128 0x24
 2010 07d9 64000000 		.4byte	.LVL4
 2011 07dd 01       		.byte	0x1
 2012 07de 6F0D0000 		.4byte	0xd6f
 2013 07e2 25       		.uleb128 0x25
 2014 07e3 6C000000 		.4byte	.LVL5
 2015 07e7 560D0000 		.4byte	0xd56
 2016 07eb F5070000 		.4byte	0x7f5
 2017 07ef 22       		.uleb128 0x22
 2018 07f0 01       		.byte	0x1
 2019 07f1 51       		.byte	0x51
 2020 07f2 01       		.byte	0x1
 2021 07f3 31       		.byte	0x31
 2022 07f4 00       		.byte	0
 2023 07f5 25       		.uleb128 0x25
 2024 07f6 74000000 		.4byte	.LVL6
 2025 07fa 560D0000 		.4byte	0xd56
 2026 07fe 08080000 		.4byte	0x808
 2027 0802 22       		.uleb128 0x22
 2028 0803 01       		.byte	0x1
 2029 0804 51       		.byte	0x51
ARM GAS  C:\Users\RICHRD~1\AppData\Local\Temp\cciH5zWJ.s 			page 38


 2030 0805 01       		.byte	0x1
 2031 0806 32       		.byte	0x32
 2032 0807 00       		.byte	0
 2033 0808 26       		.uleb128 0x26
 2034 0809 8A000000 		.4byte	.LVL7
 2035 080d 01       		.byte	0x1
 2036 080e 6F0D0000 		.4byte	0xd6f
 2037 0812 1C080000 		.4byte	0x81c
 2038 0816 22       		.uleb128 0x22
 2039 0817 01       		.byte	0x1
 2040 0818 51       		.byte	0x51
 2041 0819 01       		.byte	0x1
 2042 081a 30       		.byte	0x30
 2043 081b 00       		.byte	0
 2044 081c 25       		.uleb128 0x25
 2045 081d 94000000 		.4byte	.LVL8
 2046 0821 6F0D0000 		.4byte	0xd6f
 2047 0825 2F080000 		.4byte	0x82f
 2048 0829 22       		.uleb128 0x22
 2049 082a 01       		.byte	0x1
 2050 082b 51       		.byte	0x51
 2051 082c 01       		.byte	0x1
 2052 082d 31       		.byte	0x31
 2053 082e 00       		.byte	0
 2054 082f 25       		.uleb128 0x25
 2055 0830 A8000000 		.4byte	.LVL9
 2056 0834 6F0D0000 		.4byte	0xd6f
 2057 0838 42080000 		.4byte	0x842
 2058 083c 22       		.uleb128 0x22
 2059 083d 01       		.byte	0x1
 2060 083e 51       		.byte	0x51
 2061 083f 01       		.byte	0x1
 2062 0840 32       		.byte	0x32
 2063 0841 00       		.byte	0
 2064 0842 25       		.uleb128 0x25
 2065 0843 C0000000 		.4byte	.LVL10
 2066 0847 6F0D0000 		.4byte	0xd6f
 2067 084b 5B080000 		.4byte	0x85b
 2068 084f 22       		.uleb128 0x22
 2069 0850 01       		.byte	0x1
 2070 0851 51       		.byte	0x51
 2071 0852 01       		.byte	0x1
 2072 0853 31       		.byte	0x31
 2073 0854 22       		.uleb128 0x22
 2074 0855 01       		.byte	0x1
 2075 0856 50       		.byte	0x50
 2076 0857 02       		.byte	0x2
 2077 0858 74       		.byte	0x74
 2078 0859 00       		.sleb128 0
 2079 085a 00       		.byte	0
 2080 085b 21       		.uleb128 0x21
 2081 085c CA000000 		.4byte	.LVL11
 2082 0860 6F0D0000 		.4byte	0xd6f
 2083 0864 22       		.uleb128 0x22
 2084 0865 01       		.byte	0x1
 2085 0866 51       		.byte	0x51
 2086 0867 01       		.byte	0x1
ARM GAS  C:\Users\RICHRD~1\AppData\Local\Temp\cciH5zWJ.s 			page 39


 2087 0868 32       		.byte	0x32
 2088 0869 22       		.uleb128 0x22
 2089 086a 01       		.byte	0x1
 2090 086b 50       		.byte	0x50
 2091 086c 02       		.byte	0x2
 2092 086d 74       		.byte	0x74
 2093 086e 00       		.sleb128 0
 2094 086f 00       		.byte	0
 2095 0870 00       		.byte	0
 2096 0871 27       		.uleb128 0x27
 2097 0872 C7060000 		.4byte	0x6c7
 2098 0876 00000000 		.4byte	.LFB121
 2099 087a 26000000 		.4byte	.LFE121
 2100 087e 02       		.byte	0x2
 2101 087f 7D       		.byte	0x7d
 2102 0880 00       		.sleb128 0
 2103 0881 01       		.byte	0x1
 2104 0882 27       		.uleb128 0x27
 2105 0883 D1060000 		.4byte	0x6d1
 2106 0887 00000000 		.4byte	.LFB122
 2107 088b 26000000 		.4byte	.LFE122
 2108 088f 02       		.byte	0x2
 2109 0890 7D       		.byte	0x7d
 2110 0891 00       		.sleb128 0
 2111 0892 01       		.byte	0x1
 2112 0893 27       		.uleb128 0x27
 2113 0894 DB060000 		.4byte	0x6db
 2114 0898 00000000 		.4byte	.LFB123
 2115 089c 26000000 		.4byte	.LFE123
 2116 08a0 02       		.byte	0x2
 2117 08a1 7D       		.byte	0x7d
 2118 08a2 00       		.sleb128 0
 2119 08a3 01       		.byte	0x1
 2120 08a4 27       		.uleb128 0x27
 2121 08a5 E5060000 		.4byte	0x6e5
 2122 08a9 00000000 		.4byte	.LFB124
 2123 08ad 0E000000 		.4byte	.LFE124
 2124 08b1 02       		.byte	0x2
 2125 08b2 7D       		.byte	0x7d
 2126 08b3 00       		.sleb128 0
 2127 08b4 01       		.byte	0x1
 2128 08b5 27       		.uleb128 0x27
 2129 08b6 F3060000 		.4byte	0x6f3
 2130 08ba 00000000 		.4byte	.LFB125
 2131 08be 10000000 		.4byte	.LFE125
 2132 08c2 02       		.byte	0x2
 2133 08c3 7D       		.byte	0x7d
 2134 08c4 00       		.sleb128 0
 2135 08c5 01       		.byte	0x1
 2136 08c6 27       		.uleb128 0x27
 2137 08c7 01070000 		.4byte	0x701
 2138 08cb 00000000 		.4byte	.LFB126
 2139 08cf 0E000000 		.4byte	.LFE126
 2140 08d3 02       		.byte	0x2
 2141 08d4 7D       		.byte	0x7d
 2142 08d5 00       		.sleb128 0
 2143 08d6 01       		.byte	0x1
ARM GAS  C:\Users\RICHRD~1\AppData\Local\Temp\cciH5zWJ.s 			page 40


 2144 08d7 27       		.uleb128 0x27
 2145 08d8 0F070000 		.4byte	0x70f
 2146 08dc 00000000 		.4byte	.LFB127
 2147 08e0 10000000 		.4byte	.LFE127
 2148 08e4 02       		.byte	0x2
 2149 08e5 7D       		.byte	0x7d
 2150 08e6 00       		.sleb128 0
 2151 08e7 01       		.byte	0x1
 2152 08e8 23       		.uleb128 0x23
 2153 08e9 01       		.byte	0x1
 2154 08ea 1E030000 		.4byte	.LASF84
 2155 08ee 02       		.byte	0x2
 2156 08ef 8C       		.byte	0x8c
 2157 08f0 01       		.byte	0x1
 2158 08f1 00000000 		.4byte	.LFB128
 2159 08f5 C4010000 		.4byte	.LFE128
 2160 08f9 99000000 		.4byte	.LLST4
 2161 08fd 01       		.byte	0x1
 2162 08fe 950C0000 		.4byte	0xc95
 2163 0902 1D       		.uleb128 0x1d
 2164 0903 63687000 		.ascii	"chp\000"
 2165 0907 02       		.byte	0x2
 2166 0908 8C       		.byte	0x8c
 2167 0909 80070000 		.4byte	0x780
 2168 090d B9000000 		.4byte	.LLST5
 2169 0911 28       		.uleb128 0x28
 2170 0912 22020000 		.4byte	.LASF85
 2171 0916 02       		.byte	0x2
 2172 0917 8C       		.byte	0x8c
 2173 0918 29000000 		.4byte	0x29
 2174 091c D7000000 		.4byte	.LLST6
 2175 0920 28       		.uleb128 0x28
 2176 0921 E1010000 		.4byte	.LASF86
 2177 0925 02       		.byte	0x2
 2178 0926 8C       		.byte	0x8c
 2179 0927 950C0000 		.4byte	0xc95
 2180 092b 27010000 		.4byte	.LLST7
 2181 092f 29       		.uleb128 0x29
 2182 0930 D3030000 		.4byte	.LASF104
 2183 0934 02       		.byte	0x2
 2184 0935 CA       		.byte	0xca
 2185 0936 24000000 		.4byte	.LDL1
 2186 093a 2A       		.uleb128 0x2a
 2187 093b 60000000 		.4byte	.LBB17
 2188 093f C4010000 		.4byte	.LBE17
 2189 0943 7D0B0000 		.4byte	0xb7d
 2190 0947 2B       		.uleb128 0x2b
 2191 0948 01       		.byte	0x1
 2192 0949 B3030000 		.4byte	.LASF94
 2193 094d 0C       		.byte	0xc
 2194 094e 00       		.byte	0
 2195 094f 29000000 		.4byte	0x29
 2196 0953 01       		.byte	0x1
 2197 0954 5A090000 		.4byte	0x95a
 2198 0958 1F       		.uleb128 0x1f
 2199 0959 00       		.byte	0
 2200 095a 2C       		.uleb128 0x2c
ARM GAS  C:\Users\RICHRD~1\AppData\Local\Temp\cciH5zWJ.s 			page 41


 2201 095b 0F070000 		.4byte	0x70f
 2202 095f D4000000 		.4byte	.LBB18
 2203 0963 DA000000 		.4byte	.LBE18
 2204 0967 02       		.byte	0x2
 2205 0968 C1       		.byte	0xc1
 2206 0969 2C       		.uleb128 0x2c
 2207 096a F3060000 		.4byte	0x6f3
 2208 096e E2000000 		.4byte	.LBB20
 2209 0972 E8000000 		.4byte	.LBE20
 2210 0976 02       		.byte	0x2
 2211 0977 B3       		.byte	0xb3
 2212 0978 2C       		.uleb128 0x2c
 2213 0979 01070000 		.4byte	0x701
 2214 097d F0000000 		.4byte	.LBB22
 2215 0981 F6000000 		.4byte	.LBE22
 2216 0985 02       		.byte	0x2
 2217 0986 BA       		.byte	0xba
 2218 0987 2C       		.uleb128 0x2c
 2219 0988 C7060000 		.4byte	0x6c7
 2220 098c FE000000 		.4byte	.LBB24
 2221 0990 06010000 		.4byte	.LBE24
 2222 0994 02       		.byte	0x2
 2223 0995 97       		.byte	0x97
 2224 0996 2D       		.uleb128 0x2d
 2225 0997 D1060000 		.4byte	0x6d1
 2226 099b 06010000 		.4byte	.LBB26
 2227 099f 00000000 		.4byte	.Ldebug_ranges0+0
 2228 09a3 02       		.byte	0x2
 2229 09a4 9E       		.byte	0x9e
 2230 09a5 2C       		.uleb128 0x2c
 2231 09a6 DB060000 		.4byte	0x6db
 2232 09aa 2E010000 		.4byte	.LBB30
 2233 09ae 44010000 		.4byte	.LBE30
 2234 09b2 02       		.byte	0x2
 2235 09b3 A5       		.byte	0xa5
 2236 09b4 2C       		.uleb128 0x2c
 2237 09b5 E5060000 		.4byte	0x6e5
 2238 09b9 4C010000 		.4byte	.LBB32
 2239 09bd C4010000 		.4byte	.LBE32
 2240 09c1 02       		.byte	0x2
 2241 09c2 AC       		.byte	0xac
 2242 09c3 25       		.uleb128 0x25
 2243 09c4 6C000000 		.4byte	.LVL25
 2244 09c8 1D070000 		.4byte	0x71d
 2245 09cc EA090000 		.4byte	0x9ea
 2246 09d0 22       		.uleb128 0x22
 2247 09d1 01       		.byte	0x1
 2248 09d2 53       		.byte	0x53
 2249 09d3 01       		.byte	0x1
 2250 09d4 30       		.byte	0x30
 2251 09d5 22       		.uleb128 0x22
 2252 09d6 01       		.byte	0x1
 2253 09d7 52       		.byte	0x52
 2254 09d8 01       		.byte	0x1
 2255 09d9 30       		.byte	0x30
 2256 09da 22       		.uleb128 0x22
 2257 09db 01       		.byte	0x1
ARM GAS  C:\Users\RICHRD~1\AppData\Local\Temp\cciH5zWJ.s 			page 42


 2258 09dc 51       		.byte	0x51
 2259 09dd 05       		.byte	0x5
 2260 09de 03       		.byte	0x3
 2261 09df 0C000000 		.4byte	.LC2
 2262 09e3 22       		.uleb128 0x22
 2263 09e4 01       		.byte	0x1
 2264 09e5 50       		.byte	0x50
 2265 09e6 02       		.byte	0x2
 2266 09e7 74       		.byte	0x74
 2267 09e8 00       		.sleb128 0
 2268 09e9 00       		.byte	0
 2269 09ea 25       		.uleb128 0x25
 2270 09eb 7A000000 		.4byte	.LVL27
 2271 09ef 8D0D0000 		.4byte	0xd8d
 2272 09f3 070A0000 		.4byte	0xa07
 2273 09f7 22       		.uleb128 0x22
 2274 09f8 01       		.byte	0x1
 2275 09f9 51       		.byte	0x51
 2276 09fa 05       		.byte	0x5
 2277 09fb 03       		.byte	0x3
 2278 09fc 18000000 		.4byte	.LC3
 2279 0a00 22       		.uleb128 0x22
 2280 0a01 01       		.byte	0x1
 2281 0a02 50       		.byte	0x50
 2282 0a03 02       		.byte	0x2
 2283 0a04 76       		.byte	0x76
 2284 0a05 00       		.sleb128 0
 2285 0a06 00       		.byte	0
 2286 0a07 25       		.uleb128 0x25
 2287 0a08 88000000 		.4byte	.LVL28
 2288 0a0c 8D0D0000 		.4byte	0xd8d
 2289 0a10 240A0000 		.4byte	0xa24
 2290 0a14 22       		.uleb128 0x22
 2291 0a15 01       		.byte	0x1
 2292 0a16 51       		.byte	0x51
 2293 0a17 05       		.byte	0x5
 2294 0a18 03       		.byte	0x3
 2295 0a19 58000000 		.4byte	.LC5
 2296 0a1d 22       		.uleb128 0x22
 2297 0a1e 01       		.byte	0x1
 2298 0a1f 50       		.byte	0x50
 2299 0a20 02       		.byte	0x2
 2300 0a21 76       		.byte	0x76
 2301 0a22 00       		.sleb128 0
 2302 0a23 00       		.byte	0
 2303 0a24 25       		.uleb128 0x25
 2304 0a25 96000000 		.4byte	.LVL29
 2305 0a29 8D0D0000 		.4byte	0xd8d
 2306 0a2d 410A0000 		.4byte	0xa41
 2307 0a31 22       		.uleb128 0x22
 2308 0a32 01       		.byte	0x1
 2309 0a33 51       		.byte	0x51
 2310 0a34 05       		.byte	0x5
 2311 0a35 03       		.byte	0x3
 2312 0a36 98000000 		.4byte	.LC7
 2313 0a3a 22       		.uleb128 0x22
 2314 0a3b 01       		.byte	0x1
ARM GAS  C:\Users\RICHRD~1\AppData\Local\Temp\cciH5zWJ.s 			page 43


 2315 0a3c 50       		.byte	0x50
 2316 0a3d 02       		.byte	0x2
 2317 0a3e 76       		.byte	0x76
 2318 0a3f 00       		.sleb128 0
 2319 0a40 00       		.byte	0
 2320 0a41 25       		.uleb128 0x25
 2321 0a42 A4000000 		.4byte	.LVL30
 2322 0a46 8D0D0000 		.4byte	0xd8d
 2323 0a4a 5E0A0000 		.4byte	0xa5e
 2324 0a4e 22       		.uleb128 0x22
 2325 0a4f 01       		.byte	0x1
 2326 0a50 51       		.byte	0x51
 2327 0a51 05       		.byte	0x5
 2328 0a52 03       		.byte	0x3
 2329 0a53 DC000000 		.4byte	.LC9
 2330 0a57 22       		.uleb128 0x22
 2331 0a58 01       		.byte	0x1
 2332 0a59 50       		.byte	0x50
 2333 0a5a 02       		.byte	0x2
 2334 0a5b 76       		.byte	0x76
 2335 0a5c 00       		.sleb128 0
 2336 0a5d 00       		.byte	0
 2337 0a5e 25       		.uleb128 0x25
 2338 0a5f B0000000 		.4byte	.LVL31
 2339 0a63 8D0D0000 		.4byte	0xd8d
 2340 0a67 7B0A0000 		.4byte	0xa7b
 2341 0a6b 22       		.uleb128 0x22
 2342 0a6c 01       		.byte	0x1
 2343 0a6d 51       		.byte	0x51
 2344 0a6e 05       		.byte	0x5
 2345 0a6f 03       		.byte	0x3
 2346 0a70 18010000 		.4byte	.LC11
 2347 0a74 22       		.uleb128 0x22
 2348 0a75 01       		.byte	0x1
 2349 0a76 50       		.byte	0x50
 2350 0a77 02       		.byte	0x2
 2351 0a78 76       		.byte	0x76
 2352 0a79 00       		.sleb128 0
 2353 0a7a 00       		.byte	0
 2354 0a7b 25       		.uleb128 0x25
 2355 0a7c BC000000 		.4byte	.LVL32
 2356 0a80 8D0D0000 		.4byte	0xd8d
 2357 0a84 980A0000 		.4byte	0xa98
 2358 0a88 22       		.uleb128 0x22
 2359 0a89 01       		.byte	0x1
 2360 0a8a 51       		.byte	0x51
 2361 0a8b 05       		.byte	0x5
 2362 0a8c 03       		.byte	0x3
 2363 0a8d 5C010000 		.4byte	.LC13
 2364 0a91 22       		.uleb128 0x22
 2365 0a92 01       		.byte	0x1
 2366 0a93 50       		.byte	0x50
 2367 0a94 02       		.byte	0x2
 2368 0a95 76       		.byte	0x76
 2369 0a96 00       		.sleb128 0
 2370 0a97 00       		.byte	0
 2371 0a98 25       		.uleb128 0x25
ARM GAS  C:\Users\RICHRD~1\AppData\Local\Temp\cciH5zWJ.s 			page 44


 2372 0a99 C6000000 		.4byte	.LVL33
 2373 0a9d 8D0D0000 		.4byte	0xd8d
 2374 0aa1 B50A0000 		.4byte	0xab5
 2375 0aa5 22       		.uleb128 0x22
 2376 0aa6 01       		.byte	0x1
 2377 0aa7 51       		.byte	0x51
 2378 0aa8 05       		.byte	0x5
 2379 0aa9 03       		.byte	0x3
 2380 0aaa 9C010000 		.4byte	.LC15
 2381 0aae 22       		.uleb128 0x22
 2382 0aaf 01       		.byte	0x1
 2383 0ab0 50       		.byte	0x50
 2384 0ab1 02       		.byte	0x2
 2385 0ab2 76       		.byte	0x76
 2386 0ab3 00       		.sleb128 0
 2387 0ab4 00       		.byte	0
 2388 0ab5 25       		.uleb128 0x25
 2389 0ab6 D4000000 		.4byte	.LVL35
 2390 0aba 1D070000 		.4byte	0x71d
 2391 0abe D20A0000 		.4byte	0xad2
 2392 0ac2 22       		.uleb128 0x22
 2393 0ac3 01       		.byte	0x1
 2394 0ac4 51       		.byte	0x51
 2395 0ac5 05       		.byte	0x5
 2396 0ac6 03       		.byte	0x3
 2397 0ac7 A4010000 		.4byte	.LC16
 2398 0acb 22       		.uleb128 0x22
 2399 0acc 01       		.byte	0x1
 2400 0acd 50       		.byte	0x50
 2401 0ace 02       		.byte	0x2
 2402 0acf 74       		.byte	0x74
 2403 0ad0 00       		.sleb128 0
 2404 0ad1 00       		.byte	0
 2405 0ad2 25       		.uleb128 0x25
 2406 0ad3 E2000000 		.4byte	.LVL37
 2407 0ad7 1D070000 		.4byte	0x71d
 2408 0adb EF0A0000 		.4byte	0xaef
 2409 0adf 22       		.uleb128 0x22
 2410 0ae0 01       		.byte	0x1
 2411 0ae1 51       		.byte	0x51
 2412 0ae2 05       		.byte	0x5
 2413 0ae3 03       		.byte	0x3
 2414 0ae4 24010000 		.4byte	.LC12
 2415 0ae8 22       		.uleb128 0x22
 2416 0ae9 01       		.byte	0x1
 2417 0aea 50       		.byte	0x50
 2418 0aeb 02       		.byte	0x2
 2419 0aec 74       		.byte	0x74
 2420 0aed 00       		.sleb128 0
 2421 0aee 00       		.byte	0
 2422 0aef 25       		.uleb128 0x25
 2423 0af0 F0000000 		.4byte	.LVL38
 2424 0af4 1D070000 		.4byte	0x71d
 2425 0af8 0C0B0000 		.4byte	0xb0c
 2426 0afc 22       		.uleb128 0x22
 2427 0afd 01       		.byte	0x1
 2428 0afe 51       		.byte	0x51
ARM GAS  C:\Users\RICHRD~1\AppData\Local\Temp\cciH5zWJ.s 			page 45


 2429 0aff 05       		.byte	0x5
 2430 0b00 03       		.byte	0x3
 2431 0b01 64010000 		.4byte	.LC14
 2432 0b05 22       		.uleb128 0x22
 2433 0b06 01       		.byte	0x1
 2434 0b07 50       		.byte	0x50
 2435 0b08 02       		.byte	0x2
 2436 0b09 74       		.byte	0x74
 2437 0b0a 00       		.sleb128 0
 2438 0b0b 00       		.byte	0
 2439 0b0c 25       		.uleb128 0x25
 2440 0b0d FE000000 		.4byte	.LVL39
 2441 0b11 1D070000 		.4byte	0x71d
 2442 0b15 290B0000 		.4byte	0xb29
 2443 0b19 22       		.uleb128 0x22
 2444 0b1a 01       		.byte	0x1
 2445 0b1b 51       		.byte	0x51
 2446 0b1c 05       		.byte	0x5
 2447 0b1d 03       		.byte	0x3
 2448 0b1e 20000000 		.4byte	.LC4
 2449 0b22 22       		.uleb128 0x22
 2450 0b23 01       		.byte	0x1
 2451 0b24 50       		.byte	0x50
 2452 0b25 02       		.byte	0x2
 2453 0b26 74       		.byte	0x74
 2454 0b27 00       		.sleb128 0
 2455 0b28 00       		.byte	0
 2456 0b29 25       		.uleb128 0x25
 2457 0b2a 1C010000 		.4byte	.LVL40
 2458 0b2e 1D070000 		.4byte	0x71d
 2459 0b32 460B0000 		.4byte	0xb46
 2460 0b36 22       		.uleb128 0x22
 2461 0b37 01       		.byte	0x1
 2462 0b38 51       		.byte	0x51
 2463 0b39 05       		.byte	0x5
 2464 0b3a 03       		.byte	0x3
 2465 0b3b 60000000 		.4byte	.LC6
 2466 0b3f 22       		.uleb128 0x22
 2467 0b40 01       		.byte	0x1
 2468 0b41 50       		.byte	0x50
 2469 0b42 02       		.byte	0x2
 2470 0b43 74       		.byte	0x74
 2471 0b44 00       		.sleb128 0
 2472 0b45 00       		.byte	0
 2473 0b46 25       		.uleb128 0x25
 2474 0b47 2E010000 		.4byte	.LVL41
 2475 0b4b 1D070000 		.4byte	0x71d
 2476 0b4f 630B0000 		.4byte	0xb63
 2477 0b53 22       		.uleb128 0x22
 2478 0b54 01       		.byte	0x1
 2479 0b55 51       		.byte	0x51
 2480 0b56 05       		.byte	0x5
 2481 0b57 03       		.byte	0x3
 2482 0b58 A0000000 		.4byte	.LC8
 2483 0b5c 22       		.uleb128 0x22
 2484 0b5d 01       		.byte	0x1
 2485 0b5e 50       		.byte	0x50
ARM GAS  C:\Users\RICHRD~1\AppData\Local\Temp\cciH5zWJ.s 			page 46


 2486 0b5f 02       		.byte	0x2
 2487 0b60 74       		.byte	0x74
 2488 0b61 00       		.sleb128 0
 2489 0b62 00       		.byte	0
 2490 0b63 21       		.uleb128 0x21
 2491 0b64 4C010000 		.4byte	.LVL42
 2492 0b68 1D070000 		.4byte	0x71d
 2493 0b6c 22       		.uleb128 0x22
 2494 0b6d 01       		.byte	0x1
 2495 0b6e 51       		.byte	0x51
 2496 0b6f 05       		.byte	0x5
 2497 0b70 03       		.byte	0x3
 2498 0b71 E4000000 		.4byte	.LC10
 2499 0b75 22       		.uleb128 0x22
 2500 0b76 01       		.byte	0x1
 2501 0b77 50       		.byte	0x50
 2502 0b78 02       		.byte	0x2
 2503 0b79 74       		.byte	0x74
 2504 0b7a 00       		.sleb128 0
 2505 0b7b 00       		.byte	0
 2506 0b7c 00       		.byte	0
 2507 0b7d 25       		.uleb128 0x25
 2508 0b7e 0E000000 		.4byte	.LVL14
 2509 0b82 1D070000 		.4byte	0x71d
 2510 0b86 9A0B0000 		.4byte	0xb9a
 2511 0b8a 22       		.uleb128 0x22
 2512 0b8b 01       		.byte	0x1
 2513 0b8c 51       		.byte	0x51
 2514 0b8d 05       		.byte	0x5
 2515 0b8e 03       		.byte	0x3
 2516 0b8f 00000000 		.4byte	.LC0
 2517 0b93 22       		.uleb128 0x22
 2518 0b94 01       		.byte	0x1
 2519 0b95 50       		.byte	0x50
 2520 0b96 02       		.byte	0x2
 2521 0b97 74       		.byte	0x74
 2522 0b98 00       		.sleb128 0
 2523 0b99 00       		.byte	0
 2524 0b9a 25       		.uleb128 0x25
 2525 0b9b 16000000 		.4byte	.LVL15
 2526 0b9f 1D070000 		.4byte	0x71d
 2527 0ba3 B70B0000 		.4byte	0xbb7
 2528 0ba7 22       		.uleb128 0x22
 2529 0ba8 01       		.byte	0x1
 2530 0ba9 51       		.byte	0x51
 2531 0baa 05       		.byte	0x5
 2532 0bab 03       		.byte	0x3
 2533 0bac 04000000 		.4byte	.LC1
 2534 0bb0 22       		.uleb128 0x22
 2535 0bb1 01       		.byte	0x1
 2536 0bb2 50       		.byte	0x50
 2537 0bb3 02       		.byte	0x2
 2538 0bb4 74       		.byte	0x74
 2539 0bb5 00       		.sleb128 0
 2540 0bb6 00       		.byte	0
 2541 0bb7 2E       		.uleb128 0x2e
 2542 0bb8 20000000 		.4byte	.LVL16
ARM GAS  C:\Users\RICHRD~1\AppData\Local\Temp\cciH5zWJ.s 			page 47


 2543 0bbc CC0B0000 		.4byte	0xbcc
 2544 0bc0 22       		.uleb128 0x22
 2545 0bc1 01       		.byte	0x1
 2546 0bc2 51       		.byte	0x51
 2547 0bc3 01       		.byte	0x1
 2548 0bc4 30       		.byte	0x30
 2549 0bc5 22       		.uleb128 0x22
 2550 0bc6 01       		.byte	0x1
 2551 0bc7 50       		.byte	0x50
 2552 0bc8 02       		.byte	0x2
 2553 0bc9 74       		.byte	0x74
 2554 0bca 00       		.sleb128 0
 2555 0bcb 00       		.byte	0
 2556 0bcc 25       		.uleb128 0x25
 2557 0bcd 2C000000 		.4byte	.LVL18
 2558 0bd1 1D070000 		.4byte	0x71d
 2559 0bd5 E90B0000 		.4byte	0xbe9
 2560 0bd9 22       		.uleb128 0x22
 2561 0bda 01       		.byte	0x1
 2562 0bdb 51       		.byte	0x51
 2563 0bdc 05       		.byte	0x5
 2564 0bdd 03       		.byte	0x3
 2565 0bde DC010000 		.4byte	.LC17
 2566 0be2 22       		.uleb128 0x22
 2567 0be3 01       		.byte	0x1
 2568 0be4 50       		.byte	0x50
 2569 0be5 02       		.byte	0x2
 2570 0be6 74       		.byte	0x74
 2571 0be7 00       		.sleb128 0
 2572 0be8 00       		.byte	0
 2573 0be9 25       		.uleb128 0x25
 2574 0bea 34000000 		.4byte	.LVL19
 2575 0bee 1D070000 		.4byte	0x71d
 2576 0bf2 060C0000 		.4byte	0xc06
 2577 0bf6 22       		.uleb128 0x22
 2578 0bf7 01       		.byte	0x1
 2579 0bf8 51       		.byte	0x51
 2580 0bf9 05       		.byte	0x5
 2581 0bfa 03       		.byte	0x3
 2582 0bfb F4010000 		.4byte	.LC18
 2583 0bff 22       		.uleb128 0x22
 2584 0c00 01       		.byte	0x1
 2585 0c01 50       		.byte	0x50
 2586 0c02 02       		.byte	0x2
 2587 0c03 74       		.byte	0x74
 2588 0c04 00       		.sleb128 0
 2589 0c05 00       		.byte	0
 2590 0c06 25       		.uleb128 0x25
 2591 0c07 3C000000 		.4byte	.LVL20
 2592 0c0b 1D070000 		.4byte	0x71d
 2593 0c0f 230C0000 		.4byte	0xc23
 2594 0c13 22       		.uleb128 0x22
 2595 0c14 01       		.byte	0x1
 2596 0c15 51       		.byte	0x51
 2597 0c16 05       		.byte	0x5
 2598 0c17 03       		.byte	0x3
 2599 0c18 08020000 		.4byte	.LC19
ARM GAS  C:\Users\RICHRD~1\AppData\Local\Temp\cciH5zWJ.s 			page 48


 2600 0c1c 22       		.uleb128 0x22
 2601 0c1d 01       		.byte	0x1
 2602 0c1e 50       		.byte	0x50
 2603 0c1f 02       		.byte	0x2
 2604 0c20 74       		.byte	0x74
 2605 0c21 00       		.sleb128 0
 2606 0c22 00       		.byte	0
 2607 0c23 25       		.uleb128 0x25
 2608 0c24 44000000 		.4byte	.LVL21
 2609 0c28 1D070000 		.4byte	0x71d
 2610 0c2c 400C0000 		.4byte	0xc40
 2611 0c30 22       		.uleb128 0x22
 2612 0c31 01       		.byte	0x1
 2613 0c32 51       		.byte	0x51
 2614 0c33 05       		.byte	0x5
 2615 0c34 03       		.byte	0x3
 2616 0c35 20020000 		.4byte	.LC20
 2617 0c39 22       		.uleb128 0x22
 2618 0c3a 01       		.byte	0x1
 2619 0c3b 50       		.byte	0x50
 2620 0c3c 02       		.byte	0x2
 2621 0c3d 74       		.byte	0x74
 2622 0c3e 00       		.sleb128 0
 2623 0c3f 00       		.byte	0
 2624 0c40 25       		.uleb128 0x25
 2625 0c41 4C000000 		.4byte	.LVL22
 2626 0c45 1D070000 		.4byte	0x71d
 2627 0c49 5D0C0000 		.4byte	0xc5d
 2628 0c4d 22       		.uleb128 0x22
 2629 0c4e 01       		.byte	0x1
 2630 0c4f 51       		.byte	0x51
 2631 0c50 05       		.byte	0x5
 2632 0c51 03       		.byte	0x3
 2633 0c52 38020000 		.4byte	.LC21
 2634 0c56 22       		.uleb128 0x22
 2635 0c57 01       		.byte	0x1
 2636 0c58 50       		.byte	0x50
 2637 0c59 02       		.byte	0x2
 2638 0c5a 74       		.byte	0x74
 2639 0c5b 00       		.sleb128 0
 2640 0c5c 00       		.byte	0
 2641 0c5d 25       		.uleb128 0x25
 2642 0c5e 54000000 		.4byte	.LVL23
 2643 0c62 1D070000 		.4byte	0x71d
 2644 0c66 7A0C0000 		.4byte	0xc7a
 2645 0c6a 22       		.uleb128 0x22
 2646 0c6b 01       		.byte	0x1
 2647 0c6c 51       		.byte	0x51
 2648 0c6d 05       		.byte	0x5
 2649 0c6e 03       		.byte	0x3
 2650 0c6f 50020000 		.4byte	.LC22
 2651 0c73 22       		.uleb128 0x22
 2652 0c74 01       		.byte	0x1
 2653 0c75 50       		.byte	0x50
 2654 0c76 02       		.byte	0x2
 2655 0c77 74       		.byte	0x74
 2656 0c78 00       		.sleb128 0
ARM GAS  C:\Users\RICHRD~1\AppData\Local\Temp\cciH5zWJ.s 			page 49


 2657 0c79 00       		.byte	0
 2658 0c7a 2F       		.uleb128 0x2f
 2659 0c7b 60000000 		.4byte	.LVL24
 2660 0c7f 01       		.byte	0x1
 2661 0c80 1D070000 		.4byte	0x71d
 2662 0c84 22       		.uleb128 0x22
 2663 0c85 01       		.byte	0x1
 2664 0c86 51       		.byte	0x51
 2665 0c87 05       		.byte	0x5
 2666 0c88 03       		.byte	0x3
 2667 0c89 68020000 		.4byte	.LC23
 2668 0c8d 22       		.uleb128 0x22
 2669 0c8e 01       		.byte	0x1
 2670 0c8f 50       		.byte	0x50
 2671 0c90 02       		.byte	0x2
 2672 0c91 74       		.byte	0x74
 2673 0c92 00       		.sleb128 0
 2674 0c93 00       		.byte	0
 2675 0c94 00       		.byte	0
 2676 0c95 07       		.uleb128 0x7
 2677 0c96 04       		.byte	0x4
 2678 0c97 1B060000 		.4byte	0x61b
 2679 0c9b 30       		.uleb128 0x30
 2680 0c9c D4010000 		.4byte	.LASF87
 2681 0ca0 02       		.byte	0x2
 2682 0ca1 18       		.byte	0x18
 2683 0ca2 66060000 		.4byte	0x666
 2684 0ca6 05       		.byte	0x5
 2685 0ca7 03       		.byte	0x3
 2686 0ca8 00000000 		.4byte	lightchanels
 2687 0cac 30       		.uleb128 0x30
 2688 0cad 3C030000 		.4byte	.LASF88
 2689 0cb1 02       		.byte	0x2
 2690 0cb2 1A       		.byte	0x1a
 2691 0cb3 FE050000 		.4byte	0x5fe
 2692 0cb7 05       		.byte	0x5
 2693 0cb8 03       		.byte	0x3
 2694 0cb9 00000000 		.4byte	pwmcfg
 2695 0cbd 30       		.uleb128 0x30
 2696 0cbe C8030000 		.4byte	.LASF89
 2697 0cc2 02       		.byte	0x2
 2698 0cc3 27       		.byte	0x27
 2699 0cc4 29000000 		.4byte	0x29
 2700 0cc8 05       		.byte	0x5
 2701 0cc9 03       		.byte	0x3
 2702 0cca 00000000 		.4byte	period_num
 2703 0cce 30       		.uleb128 0x30
 2704 0ccf FF030000 		.4byte	.LASF38
 2705 0cd3 02       		.byte	0x2
 2706 0cd4 2C       		.byte	0x2c
 2707 0cd5 9F000000 		.4byte	0x9f
 2708 0cd9 05       		.byte	0x5
 2709 0cda 03       		.byte	0x3
 2710 0cdb 00000000 		.4byte	period
 2711 0cdf 31       		.uleb128 0x31
 2712 0ce0 1C040000 		.4byte	.LASF90
 2713 0ce4 0D       		.byte	0xd
ARM GAS  C:\Users\RICHRD~1\AppData\Local\Temp\cciH5zWJ.s 			page 50


 2714 0ce5 9806     		.2byte	0x698
 2715 0ce7 FD010000 		.4byte	0x1fd
 2716 0ceb 01       		.byte	0x1
 2717 0cec 01       		.byte	0x1
 2718 0ced 31       		.uleb128 0x31
 2719 0cee E8030000 		.4byte	.LASF91
 2720 0cf2 09       		.byte	0x9
 2721 0cf3 B301     		.2byte	0x1b3
 2722 0cf5 57030000 		.4byte	0x357
 2723 0cf9 01       		.byte	0x1
 2724 0cfa 01       		.byte	0x1
 2725 0cfb 32       		.uleb128 0x32
 2726 0cfc A0030000 		.4byte	.LASF92
 2727 0d00 02       		.byte	0x2
 2728 0d01 29       		.byte	0x29
 2729 0d02 B1000000 		.4byte	0xb1
 2730 0d06 01       		.byte	0x1
 2731 0d07 05       		.byte	0x5
 2732 0d08 03       		.byte	0x3
 2733 0d09 00000000 		.4byte	lightsOn
 2734 0d0d 32       		.uleb128 0x32
 2735 0d0e 51040000 		.4byte	.LASF93
 2736 0d12 02       		.byte	0x2
 2737 0d13 2A       		.byte	0x2a
 2738 0d14 B1000000 		.4byte	0xb1
 2739 0d18 01       		.byte	0x1
 2740 0d19 05       		.byte	0x5
 2741 0d1a 03       		.byte	0x3
 2742 0d1b 00000000 		.4byte	brakeOn
 2743 0d1f 33       		.uleb128 0x33
 2744 0d20 01       		.byte	0x1
 2745 0d21 59040000 		.4byte	.LASF95
 2746 0d25 01       		.byte	0x1
 2747 0d26 28       		.byte	0x28
 2748 0d27 01       		.byte	0x1
 2749 0d28 01       		.byte	0x1
 2750 0d29 3D0D0000 		.4byte	0xd3d
 2751 0d2d 0A       		.uleb128 0xa
 2752 0d2e 80070000 		.4byte	0x780
 2753 0d32 0A       		.uleb128 0xa
 2754 0d33 E7000000 		.4byte	0xe7
 2755 0d37 0A       		.uleb128 0xa
 2756 0d38 5B060000 		.4byte	0x65b
 2757 0d3c 00       		.byte	0
 2758 0d3d 33       		.uleb128 0x33
 2759 0d3e 01       		.byte	0x1
 2760 0d3f 6A010000 		.4byte	.LASF96
 2761 0d43 08       		.byte	0x8
 2762 0d44 F4       		.byte	0xf4
 2763 0d45 01       		.byte	0x1
 2764 0d46 01       		.byte	0x1
 2765 0d47 560D0000 		.4byte	0xd56
 2766 0d4b 0A       		.uleb128 0xa
 2767 0d4c D8030000 		.4byte	0x3d8
 2768 0d50 0A       		.uleb128 0xa
 2769 0d51 0A060000 		.4byte	0x60a
 2770 0d55 00       		.byte	0
ARM GAS  C:\Users\RICHRD~1\AppData\Local\Temp\cciH5zWJ.s 			page 51


 2771 0d56 33       		.uleb128 0x33
 2772 0d57 01       		.byte	0x1
 2773 0d58 27020000 		.4byte	.LASF97
 2774 0d5c 08       		.byte	0x8
 2775 0d5d FA       		.byte	0xfa
 2776 0d5e 01       		.byte	0x1
 2777 0d5f 01       		.byte	0x1
 2778 0d60 6F0D0000 		.4byte	0xd6f
 2779 0d64 0A       		.uleb128 0xa
 2780 0d65 D8030000 		.4byte	0x3d8
 2781 0d69 0A       		.uleb128 0xa
 2782 0d6a 3E050000 		.4byte	0x53e
 2783 0d6e 00       		.byte	0
 2784 0d6f 33       		.uleb128 0x33
 2785 0d70 01       		.byte	0x1
 2786 0d71 2A010000 		.4byte	.LASF98
 2787 0d75 08       		.byte	0x8
 2788 0d76 F7       		.byte	0xf7
 2789 0d77 01       		.byte	0x1
 2790 0d78 01       		.byte	0x1
 2791 0d79 8D0D0000 		.4byte	0xd8d
 2792 0d7d 0A       		.uleb128 0xa
 2793 0d7e D8030000 		.4byte	0x3d8
 2794 0d82 0A       		.uleb128 0xa
 2795 0d83 3E050000 		.4byte	0x53e
 2796 0d87 0A       		.uleb128 0xa
 2797 0d88 4A050000 		.4byte	0x54a
 2798 0d8c 00       		.byte	0
 2799 0d8d 34       		.uleb128 0x34
 2800 0d8e 01       		.byte	0x1
 2801 0d8f B3030000 		.4byte	.LASF94
 2802 0d93 0C       		.byte	0xc
 2803 0d94 00       		.byte	0
 2804 0d95 01       		.byte	0x1
 2805 0d96 29000000 		.4byte	0x29
 2806 0d9a 01       		.byte	0x1
 2807 0d9b 0A       		.uleb128 0xa
 2808 0d9c E7000000 		.4byte	0xe7
 2809 0da0 0A       		.uleb128 0xa
 2810 0da1 E7000000 		.4byte	0xe7
 2811 0da5 00       		.byte	0
 2812 0da6 00       		.byte	0
 2813              		.section	.debug_abbrev,"",%progbits
 2814              	.Ldebug_abbrev0:
 2815 0000 01       		.uleb128 0x1
 2816 0001 11       		.uleb128 0x11
 2817 0002 01       		.byte	0x1
 2818 0003 25       		.uleb128 0x25
 2819 0004 0E       		.uleb128 0xe
 2820 0005 13       		.uleb128 0x13
 2821 0006 0B       		.uleb128 0xb
 2822 0007 03       		.uleb128 0x3
 2823 0008 0E       		.uleb128 0xe
 2824 0009 1B       		.uleb128 0x1b
 2825 000a 0E       		.uleb128 0xe
 2826 000b 55       		.uleb128 0x55
 2827 000c 06       		.uleb128 0x6
ARM GAS  C:\Users\RICHRD~1\AppData\Local\Temp\cciH5zWJ.s 			page 52


 2828 000d 11       		.uleb128 0x11
 2829 000e 01       		.uleb128 0x1
 2830 000f 52       		.uleb128 0x52
 2831 0010 01       		.uleb128 0x1
 2832 0011 10       		.uleb128 0x10
 2833 0012 06       		.uleb128 0x6
 2834 0013 00       		.byte	0
 2835 0014 00       		.byte	0
 2836 0015 02       		.uleb128 0x2
 2837 0016 24       		.uleb128 0x24
 2838 0017 00       		.byte	0
 2839 0018 0B       		.uleb128 0xb
 2840 0019 0B       		.uleb128 0xb
 2841 001a 3E       		.uleb128 0x3e
 2842 001b 0B       		.uleb128 0xb
 2843 001c 03       		.uleb128 0x3
 2844 001d 08       		.uleb128 0x8
 2845 001e 00       		.byte	0
 2846 001f 00       		.byte	0
 2847 0020 03       		.uleb128 0x3
 2848 0021 16       		.uleb128 0x16
 2849 0022 00       		.byte	0
 2850 0023 03       		.uleb128 0x3
 2851 0024 0E       		.uleb128 0xe
 2852 0025 3A       		.uleb128 0x3a
 2853 0026 0B       		.uleb128 0xb
 2854 0027 3B       		.uleb128 0x3b
 2855 0028 0B       		.uleb128 0xb
 2856 0029 49       		.uleb128 0x49
 2857 002a 13       		.uleb128 0x13
 2858 002b 00       		.byte	0
 2859 002c 00       		.byte	0
 2860 002d 04       		.uleb128 0x4
 2861 002e 24       		.uleb128 0x24
 2862 002f 00       		.byte	0
 2863 0030 0B       		.uleb128 0xb
 2864 0031 0B       		.uleb128 0xb
 2865 0032 3E       		.uleb128 0x3e
 2866 0033 0B       		.uleb128 0xb
 2867 0034 03       		.uleb128 0x3
 2868 0035 0E       		.uleb128 0xe
 2869 0036 00       		.byte	0
 2870 0037 00       		.byte	0
 2871 0038 05       		.uleb128 0x5
 2872 0039 0F       		.uleb128 0xf
 2873 003a 00       		.byte	0
 2874 003b 0B       		.uleb128 0xb
 2875 003c 0B       		.uleb128 0xb
 2876 003d 00       		.byte	0
 2877 003e 00       		.byte	0
 2878 003f 06       		.uleb128 0x6
 2879 0040 35       		.uleb128 0x35
 2880 0041 00       		.byte	0
 2881 0042 49       		.uleb128 0x49
 2882 0043 13       		.uleb128 0x13
 2883 0044 00       		.byte	0
 2884 0045 00       		.byte	0
ARM GAS  C:\Users\RICHRD~1\AppData\Local\Temp\cciH5zWJ.s 			page 53


 2885 0046 07       		.uleb128 0x7
 2886 0047 0F       		.uleb128 0xf
 2887 0048 00       		.byte	0
 2888 0049 0B       		.uleb128 0xb
 2889 004a 0B       		.uleb128 0xb
 2890 004b 49       		.uleb128 0x49
 2891 004c 13       		.uleb128 0x13
 2892 004d 00       		.byte	0
 2893 004e 00       		.byte	0
 2894 004f 08       		.uleb128 0x8
 2895 0050 26       		.uleb128 0x26
 2896 0051 00       		.byte	0
 2897 0052 49       		.uleb128 0x49
 2898 0053 13       		.uleb128 0x13
 2899 0054 00       		.byte	0
 2900 0055 00       		.byte	0
 2901 0056 09       		.uleb128 0x9
 2902 0057 15       		.uleb128 0x15
 2903 0058 01       		.byte	0x1
 2904 0059 27       		.uleb128 0x27
 2905 005a 0C       		.uleb128 0xc
 2906 005b 49       		.uleb128 0x49
 2907 005c 13       		.uleb128 0x13
 2908 005d 01       		.uleb128 0x1
 2909 005e 13       		.uleb128 0x13
 2910 005f 00       		.byte	0
 2911 0060 00       		.byte	0
 2912 0061 0A       		.uleb128 0xa
 2913 0062 05       		.uleb128 0x5
 2914 0063 00       		.byte	0
 2915 0064 49       		.uleb128 0x49
 2916 0065 13       		.uleb128 0x13
 2917 0066 00       		.byte	0
 2918 0067 00       		.byte	0
 2919 0068 0B       		.uleb128 0xb
 2920 0069 13       		.uleb128 0x13
 2921 006a 01       		.byte	0x1
 2922 006b 03       		.uleb128 0x3
 2923 006c 0E       		.uleb128 0xe
 2924 006d 0B       		.uleb128 0xb
 2925 006e 0B       		.uleb128 0xb
 2926 006f 3A       		.uleb128 0x3a
 2927 0070 0B       		.uleb128 0xb
 2928 0071 3B       		.uleb128 0x3b
 2929 0072 0B       		.uleb128 0xb
 2930 0073 01       		.uleb128 0x1
 2931 0074 13       		.uleb128 0x13
 2932 0075 00       		.byte	0
 2933 0076 00       		.byte	0
 2934 0077 0C       		.uleb128 0xc
 2935 0078 0D       		.uleb128 0xd
 2936 0079 00       		.byte	0
 2937 007a 03       		.uleb128 0x3
 2938 007b 0E       		.uleb128 0xe
 2939 007c 3A       		.uleb128 0x3a
 2940 007d 0B       		.uleb128 0xb
 2941 007e 3B       		.uleb128 0x3b
ARM GAS  C:\Users\RICHRD~1\AppData\Local\Temp\cciH5zWJ.s 			page 54


 2942 007f 0B       		.uleb128 0xb
 2943 0080 49       		.uleb128 0x49
 2944 0081 13       		.uleb128 0x13
 2945 0082 38       		.uleb128 0x38
 2946 0083 0A       		.uleb128 0xa
 2947 0084 00       		.byte	0
 2948 0085 00       		.byte	0
 2949 0086 0D       		.uleb128 0xd
 2950 0087 0D       		.uleb128 0xd
 2951 0088 00       		.byte	0
 2952 0089 03       		.uleb128 0x3
 2953 008a 08       		.uleb128 0x8
 2954 008b 3A       		.uleb128 0x3a
 2955 008c 0B       		.uleb128 0xb
 2956 008d 3B       		.uleb128 0x3b
 2957 008e 0B       		.uleb128 0xb
 2958 008f 49       		.uleb128 0x49
 2959 0090 13       		.uleb128 0x13
 2960 0091 38       		.uleb128 0x38
 2961 0092 0A       		.uleb128 0xa
 2962 0093 00       		.byte	0
 2963 0094 00       		.byte	0
 2964 0095 0E       		.uleb128 0xe
 2965 0096 13       		.uleb128 0x13
 2966 0097 01       		.byte	0x1
 2967 0098 0B       		.uleb128 0xb
 2968 0099 0B       		.uleb128 0xb
 2969 009a 3A       		.uleb128 0x3a
 2970 009b 0B       		.uleb128 0xb
 2971 009c 3B       		.uleb128 0x3b
 2972 009d 0B       		.uleb128 0xb
 2973 009e 01       		.uleb128 0x1
 2974 009f 13       		.uleb128 0x13
 2975 00a0 00       		.byte	0
 2976 00a1 00       		.byte	0
 2977 00a2 0F       		.uleb128 0xf
 2978 00a3 01       		.uleb128 0x1
 2979 00a4 01       		.byte	0x1
 2980 00a5 49       		.uleb128 0x49
 2981 00a6 13       		.uleb128 0x13
 2982 00a7 01       		.uleb128 0x1
 2983 00a8 13       		.uleb128 0x13
 2984 00a9 00       		.byte	0
 2985 00aa 00       		.byte	0
 2986 00ab 10       		.uleb128 0x10
 2987 00ac 21       		.uleb128 0x21
 2988 00ad 00       		.byte	0
 2989 00ae 49       		.uleb128 0x49
 2990 00af 13       		.uleb128 0x13
 2991 00b0 2F       		.uleb128 0x2f
 2992 00b1 0B       		.uleb128 0xb
 2993 00b2 00       		.byte	0
 2994 00b3 00       		.byte	0
 2995 00b4 11       		.uleb128 0x11
 2996 00b5 04       		.uleb128 0x4
 2997 00b6 01       		.byte	0x1
 2998 00b7 0B       		.uleb128 0xb
ARM GAS  C:\Users\RICHRD~1\AppData\Local\Temp\cciH5zWJ.s 			page 55


 2999 00b8 0B       		.uleb128 0xb
 3000 00b9 3A       		.uleb128 0x3a
 3001 00ba 0B       		.uleb128 0xb
 3002 00bb 3B       		.uleb128 0x3b
 3003 00bc 0B       		.uleb128 0xb
 3004 00bd 01       		.uleb128 0x1
 3005 00be 13       		.uleb128 0x13
 3006 00bf 00       		.byte	0
 3007 00c0 00       		.byte	0
 3008 00c1 12       		.uleb128 0x12
 3009 00c2 28       		.uleb128 0x28
 3010 00c3 00       		.byte	0
 3011 00c4 03       		.uleb128 0x3
 3012 00c5 0E       		.uleb128 0xe
 3013 00c6 1C       		.uleb128 0x1c
 3014 00c7 0D       		.uleb128 0xd
 3015 00c8 00       		.byte	0
 3016 00c9 00       		.byte	0
 3017 00ca 13       		.uleb128 0x13
 3018 00cb 13       		.uleb128 0x13
 3019 00cc 01       		.byte	0x1
 3020 00cd 03       		.uleb128 0x3
 3021 00ce 0E       		.uleb128 0xe
 3022 00cf 0B       		.uleb128 0xb
 3023 00d0 0B       		.uleb128 0xb
 3024 00d1 3A       		.uleb128 0x3a
 3025 00d2 0B       		.uleb128 0xb
 3026 00d3 3B       		.uleb128 0x3b
 3027 00d4 05       		.uleb128 0x5
 3028 00d5 01       		.uleb128 0x1
 3029 00d6 13       		.uleb128 0x13
 3030 00d7 00       		.byte	0
 3031 00d8 00       		.byte	0
 3032 00d9 14       		.uleb128 0x14
 3033 00da 0D       		.uleb128 0xd
 3034 00db 00       		.byte	0
 3035 00dc 03       		.uleb128 0x3
 3036 00dd 0E       		.uleb128 0xe
 3037 00de 3A       		.uleb128 0x3a
 3038 00df 0B       		.uleb128 0xb
 3039 00e0 3B       		.uleb128 0x3b
 3040 00e1 05       		.uleb128 0x5
 3041 00e2 49       		.uleb128 0x49
 3042 00e3 13       		.uleb128 0x13
 3043 00e4 38       		.uleb128 0x38
 3044 00e5 0A       		.uleb128 0xa
 3045 00e6 00       		.byte	0
 3046 00e7 00       		.byte	0
 3047 00e8 15       		.uleb128 0x15
 3048 00e9 0D       		.uleb128 0xd
 3049 00ea 00       		.byte	0
 3050 00eb 03       		.uleb128 0x3
 3051 00ec 08       		.uleb128 0x8
 3052 00ed 3A       		.uleb128 0x3a
 3053 00ee 0B       		.uleb128 0xb
 3054 00ef 3B       		.uleb128 0x3b
 3055 00f0 05       		.uleb128 0x5
ARM GAS  C:\Users\RICHRD~1\AppData\Local\Temp\cciH5zWJ.s 			page 56


 3056 00f1 49       		.uleb128 0x49
 3057 00f2 13       		.uleb128 0x13
 3058 00f3 38       		.uleb128 0x38
 3059 00f4 0A       		.uleb128 0xa
 3060 00f5 00       		.byte	0
 3061 00f6 00       		.byte	0
 3062 00f7 16       		.uleb128 0x16
 3063 00f8 15       		.uleb128 0x15
 3064 00f9 01       		.byte	0x1
 3065 00fa 27       		.uleb128 0x27
 3066 00fb 0C       		.uleb128 0xc
 3067 00fc 01       		.uleb128 0x1
 3068 00fd 13       		.uleb128 0x13
 3069 00fe 00       		.byte	0
 3070 00ff 00       		.byte	0
 3071 0100 17       		.uleb128 0x17
 3072 0101 13       		.uleb128 0x13
 3073 0102 01       		.byte	0x1
 3074 0103 0B       		.uleb128 0xb
 3075 0104 0B       		.uleb128 0xb
 3076 0105 3A       		.uleb128 0x3a
 3077 0106 0B       		.uleb128 0xb
 3078 0107 3B       		.uleb128 0x3b
 3079 0108 05       		.uleb128 0x5
 3080 0109 01       		.uleb128 0x1
 3081 010a 13       		.uleb128 0x13
 3082 010b 00       		.byte	0
 3083 010c 00       		.byte	0
 3084 010d 18       		.uleb128 0x18
 3085 010e 16       		.uleb128 0x16
 3086 010f 00       		.byte	0
 3087 0110 03       		.uleb128 0x3
 3088 0111 0E       		.uleb128 0xe
 3089 0112 3A       		.uleb128 0x3a
 3090 0113 0B       		.uleb128 0xb
 3091 0114 3B       		.uleb128 0x3b
 3092 0115 05       		.uleb128 0x5
 3093 0116 49       		.uleb128 0x49
 3094 0117 13       		.uleb128 0x13
 3095 0118 00       		.byte	0
 3096 0119 00       		.byte	0
 3097 011a 19       		.uleb128 0x19
 3098 011b 0D       		.uleb128 0xd
 3099 011c 00       		.byte	0
 3100 011d 03       		.uleb128 0x3
 3101 011e 0E       		.uleb128 0xe
 3102 011f 49       		.uleb128 0x49
 3103 0120 13       		.uleb128 0x13
 3104 0121 38       		.uleb128 0x38
 3105 0122 0A       		.uleb128 0xa
 3106 0123 34       		.uleb128 0x34
 3107 0124 0C       		.uleb128 0xc
 3108 0125 00       		.byte	0
 3109 0126 00       		.byte	0
 3110 0127 1A       		.uleb128 0x1a
 3111 0128 2E       		.uleb128 0x2e
 3112 0129 00       		.byte	0
ARM GAS  C:\Users\RICHRD~1\AppData\Local\Temp\cciH5zWJ.s 			page 57


 3113 012a 3F       		.uleb128 0x3f
 3114 012b 0C       		.uleb128 0xc
 3115 012c 03       		.uleb128 0x3
 3116 012d 0E       		.uleb128 0xe
 3117 012e 3A       		.uleb128 0x3a
 3118 012f 0B       		.uleb128 0xb
 3119 0130 3B       		.uleb128 0x3b
 3120 0131 0B       		.uleb128 0xb
 3121 0132 27       		.uleb128 0x27
 3122 0133 0C       		.uleb128 0xc
 3123 0134 20       		.uleb128 0x20
 3124 0135 0B       		.uleb128 0xb
 3125 0136 00       		.byte	0
 3126 0137 00       		.byte	0
 3127 0138 1B       		.uleb128 0x1b
 3128 0139 2E       		.uleb128 0x2e
 3129 013a 00       		.byte	0
 3130 013b 3F       		.uleb128 0x3f
 3131 013c 0C       		.uleb128 0xc
 3132 013d 03       		.uleb128 0x3
 3133 013e 0E       		.uleb128 0xe
 3134 013f 3A       		.uleb128 0x3a
 3135 0140 0B       		.uleb128 0xb
 3136 0141 3B       		.uleb128 0x3b
 3137 0142 0B       		.uleb128 0xb
 3138 0143 27       		.uleb128 0x27
 3139 0144 0C       		.uleb128 0xc
 3140 0145 49       		.uleb128 0x49
 3141 0146 13       		.uleb128 0x13
 3142 0147 20       		.uleb128 0x20
 3143 0148 0B       		.uleb128 0xb
 3144 0149 00       		.byte	0
 3145 014a 00       		.byte	0
 3146 014b 1C       		.uleb128 0x1c
 3147 014c 2E       		.uleb128 0x2e
 3148 014d 01       		.byte	0x1
 3149 014e 03       		.uleb128 0x3
 3150 014f 0E       		.uleb128 0xe
 3151 0150 3A       		.uleb128 0x3a
 3152 0151 0B       		.uleb128 0xb
 3153 0152 3B       		.uleb128 0x3b
 3154 0153 0B       		.uleb128 0xb
 3155 0154 27       		.uleb128 0x27
 3156 0155 0C       		.uleb128 0xc
 3157 0156 11       		.uleb128 0x11
 3158 0157 01       		.uleb128 0x1
 3159 0158 12       		.uleb128 0x12
 3160 0159 01       		.uleb128 0x1
 3161 015a 40       		.uleb128 0x40
 3162 015b 06       		.uleb128 0x6
 3163 015c 9742     		.uleb128 0x2117
 3164 015e 0C       		.uleb128 0xc
 3165 015f 01       		.uleb128 0x1
 3166 0160 13       		.uleb128 0x13
 3167 0161 00       		.byte	0
 3168 0162 00       		.byte	0
 3169 0163 1D       		.uleb128 0x1d
ARM GAS  C:\Users\RICHRD~1\AppData\Local\Temp\cciH5zWJ.s 			page 58


 3170 0164 05       		.uleb128 0x5
 3171 0165 00       		.byte	0
 3172 0166 03       		.uleb128 0x3
 3173 0167 08       		.uleb128 0x8
 3174 0168 3A       		.uleb128 0x3a
 3175 0169 0B       		.uleb128 0xb
 3176 016a 3B       		.uleb128 0x3b
 3177 016b 0B       		.uleb128 0xb
 3178 016c 49       		.uleb128 0x49
 3179 016d 13       		.uleb128 0x13
 3180 016e 02       		.uleb128 0x2
 3181 016f 06       		.uleb128 0x6
 3182 0170 00       		.byte	0
 3183 0171 00       		.byte	0
 3184 0172 1E       		.uleb128 0x1e
 3185 0173 05       		.uleb128 0x5
 3186 0174 00       		.byte	0
 3187 0175 03       		.uleb128 0x3
 3188 0176 08       		.uleb128 0x8
 3189 0177 3A       		.uleb128 0x3a
 3190 0178 0B       		.uleb128 0xb
 3191 0179 3B       		.uleb128 0x3b
 3192 017a 0B       		.uleb128 0xb
 3193 017b 49       		.uleb128 0x49
 3194 017c 13       		.uleb128 0x13
 3195 017d 02       		.uleb128 0x2
 3196 017e 0A       		.uleb128 0xa
 3197 017f 00       		.byte	0
 3198 0180 00       		.byte	0
 3199 0181 1F       		.uleb128 0x1f
 3200 0182 18       		.uleb128 0x18
 3201 0183 00       		.byte	0
 3202 0184 00       		.byte	0
 3203 0185 00       		.byte	0
 3204 0186 20       		.uleb128 0x20
 3205 0187 34       		.uleb128 0x34
 3206 0188 00       		.byte	0
 3207 0189 03       		.uleb128 0x3
 3208 018a 08       		.uleb128 0x8
 3209 018b 3A       		.uleb128 0x3a
 3210 018c 0B       		.uleb128 0xb
 3211 018d 3B       		.uleb128 0x3b
 3212 018e 0B       		.uleb128 0xb
 3213 018f 49       		.uleb128 0x49
 3214 0190 13       		.uleb128 0x13
 3215 0191 02       		.uleb128 0x2
 3216 0192 0A       		.uleb128 0xa
 3217 0193 00       		.byte	0
 3218 0194 00       		.byte	0
 3219 0195 21       		.uleb128 0x21
 3220 0196 898201   		.uleb128 0x4109
 3221 0199 01       		.byte	0x1
 3222 019a 11       		.uleb128 0x11
 3223 019b 01       		.uleb128 0x1
 3224 019c 31       		.uleb128 0x31
 3225 019d 13       		.uleb128 0x13
 3226 019e 00       		.byte	0
ARM GAS  C:\Users\RICHRD~1\AppData\Local\Temp\cciH5zWJ.s 			page 59


 3227 019f 00       		.byte	0
 3228 01a0 22       		.uleb128 0x22
 3229 01a1 8A8201   		.uleb128 0x410a
 3230 01a4 00       		.byte	0
 3231 01a5 02       		.uleb128 0x2
 3232 01a6 0A       		.uleb128 0xa
 3233 01a7 9142     		.uleb128 0x2111
 3234 01a9 0A       		.uleb128 0xa
 3235 01aa 00       		.byte	0
 3236 01ab 00       		.byte	0
 3237 01ac 23       		.uleb128 0x23
 3238 01ad 2E       		.uleb128 0x2e
 3239 01ae 01       		.byte	0x1
 3240 01af 3F       		.uleb128 0x3f
 3241 01b0 0C       		.uleb128 0xc
 3242 01b1 03       		.uleb128 0x3
 3243 01b2 0E       		.uleb128 0xe
 3244 01b3 3A       		.uleb128 0x3a
 3245 01b4 0B       		.uleb128 0xb
 3246 01b5 3B       		.uleb128 0x3b
 3247 01b6 0B       		.uleb128 0xb
 3248 01b7 27       		.uleb128 0x27
 3249 01b8 0C       		.uleb128 0xc
 3250 01b9 11       		.uleb128 0x11
 3251 01ba 01       		.uleb128 0x1
 3252 01bb 12       		.uleb128 0x12
 3253 01bc 01       		.uleb128 0x1
 3254 01bd 40       		.uleb128 0x40
 3255 01be 06       		.uleb128 0x6
 3256 01bf 9742     		.uleb128 0x2117
 3257 01c1 0C       		.uleb128 0xc
 3258 01c2 01       		.uleb128 0x1
 3259 01c3 13       		.uleb128 0x13
 3260 01c4 00       		.byte	0
 3261 01c5 00       		.byte	0
 3262 01c6 24       		.uleb128 0x24
 3263 01c7 898201   		.uleb128 0x4109
 3264 01ca 00       		.byte	0
 3265 01cb 11       		.uleb128 0x11
 3266 01cc 01       		.uleb128 0x1
 3267 01cd 9542     		.uleb128 0x2115
 3268 01cf 0C       		.uleb128 0xc
 3269 01d0 31       		.uleb128 0x31
 3270 01d1 13       		.uleb128 0x13
 3271 01d2 00       		.byte	0
 3272 01d3 00       		.byte	0
 3273 01d4 25       		.uleb128 0x25
 3274 01d5 898201   		.uleb128 0x4109
 3275 01d8 01       		.byte	0x1
 3276 01d9 11       		.uleb128 0x11
 3277 01da 01       		.uleb128 0x1
 3278 01db 31       		.uleb128 0x31
 3279 01dc 13       		.uleb128 0x13
 3280 01dd 01       		.uleb128 0x1
 3281 01de 13       		.uleb128 0x13
 3282 01df 00       		.byte	0
 3283 01e0 00       		.byte	0
ARM GAS  C:\Users\RICHRD~1\AppData\Local\Temp\cciH5zWJ.s 			page 60


 3284 01e1 26       		.uleb128 0x26
 3285 01e2 898201   		.uleb128 0x4109
 3286 01e5 01       		.byte	0x1
 3287 01e6 11       		.uleb128 0x11
 3288 01e7 01       		.uleb128 0x1
 3289 01e8 9542     		.uleb128 0x2115
 3290 01ea 0C       		.uleb128 0xc
 3291 01eb 31       		.uleb128 0x31
 3292 01ec 13       		.uleb128 0x13
 3293 01ed 01       		.uleb128 0x1
 3294 01ee 13       		.uleb128 0x13
 3295 01ef 00       		.byte	0
 3296 01f0 00       		.byte	0
 3297 01f1 27       		.uleb128 0x27
 3298 01f2 2E       		.uleb128 0x2e
 3299 01f3 00       		.byte	0
 3300 01f4 31       		.uleb128 0x31
 3301 01f5 13       		.uleb128 0x13
 3302 01f6 11       		.uleb128 0x11
 3303 01f7 01       		.uleb128 0x1
 3304 01f8 12       		.uleb128 0x12
 3305 01f9 01       		.uleb128 0x1
 3306 01fa 40       		.uleb128 0x40
 3307 01fb 0A       		.uleb128 0xa
 3308 01fc 9742     		.uleb128 0x2117
 3309 01fe 0C       		.uleb128 0xc
 3310 01ff 00       		.byte	0
 3311 0200 00       		.byte	0
 3312 0201 28       		.uleb128 0x28
 3313 0202 05       		.uleb128 0x5
 3314 0203 00       		.byte	0
 3315 0204 03       		.uleb128 0x3
 3316 0205 0E       		.uleb128 0xe
 3317 0206 3A       		.uleb128 0x3a
 3318 0207 0B       		.uleb128 0xb
 3319 0208 3B       		.uleb128 0x3b
 3320 0209 0B       		.uleb128 0xb
 3321 020a 49       		.uleb128 0x49
 3322 020b 13       		.uleb128 0x13
 3323 020c 02       		.uleb128 0x2
 3324 020d 06       		.uleb128 0x6
 3325 020e 00       		.byte	0
 3326 020f 00       		.byte	0
 3327 0210 29       		.uleb128 0x29
 3328 0211 0A       		.uleb128 0xa
 3329 0212 00       		.byte	0
 3330 0213 03       		.uleb128 0x3
 3331 0214 0E       		.uleb128 0xe
 3332 0215 3A       		.uleb128 0x3a
 3333 0216 0B       		.uleb128 0xb
 3334 0217 3B       		.uleb128 0x3b
 3335 0218 0B       		.uleb128 0xb
 3336 0219 11       		.uleb128 0x11
 3337 021a 01       		.uleb128 0x1
 3338 021b 00       		.byte	0
 3339 021c 00       		.byte	0
 3340 021d 2A       		.uleb128 0x2a
ARM GAS  C:\Users\RICHRD~1\AppData\Local\Temp\cciH5zWJ.s 			page 61


 3341 021e 0B       		.uleb128 0xb
 3342 021f 01       		.byte	0x1
 3343 0220 11       		.uleb128 0x11
 3344 0221 01       		.uleb128 0x1
 3345 0222 12       		.uleb128 0x12
 3346 0223 01       		.uleb128 0x1
 3347 0224 01       		.uleb128 0x1
 3348 0225 13       		.uleb128 0x13
 3349 0226 00       		.byte	0
 3350 0227 00       		.byte	0
 3351 0228 2B       		.uleb128 0x2b
 3352 0229 2E       		.uleb128 0x2e
 3353 022a 01       		.byte	0x1
 3354 022b 3F       		.uleb128 0x3f
 3355 022c 0C       		.uleb128 0xc
 3356 022d 03       		.uleb128 0x3
 3357 022e 0E       		.uleb128 0xe
 3358 022f 3A       		.uleb128 0x3a
 3359 0230 0B       		.uleb128 0xb
 3360 0231 3B       		.uleb128 0x3b
 3361 0232 0B       		.uleb128 0xb
 3362 0233 49       		.uleb128 0x49
 3363 0234 13       		.uleb128 0x13
 3364 0235 3C       		.uleb128 0x3c
 3365 0236 0C       		.uleb128 0xc
 3366 0237 01       		.uleb128 0x1
 3367 0238 13       		.uleb128 0x13
 3368 0239 00       		.byte	0
 3369 023a 00       		.byte	0
 3370 023b 2C       		.uleb128 0x2c
 3371 023c 1D       		.uleb128 0x1d
 3372 023d 00       		.byte	0
 3373 023e 31       		.uleb128 0x31
 3374 023f 13       		.uleb128 0x13
 3375 0240 11       		.uleb128 0x11
 3376 0241 01       		.uleb128 0x1
 3377 0242 12       		.uleb128 0x12
 3378 0243 01       		.uleb128 0x1
 3379 0244 58       		.uleb128 0x58
 3380 0245 0B       		.uleb128 0xb
 3381 0246 59       		.uleb128 0x59
 3382 0247 0B       		.uleb128 0xb
 3383 0248 00       		.byte	0
 3384 0249 00       		.byte	0
 3385 024a 2D       		.uleb128 0x2d
 3386 024b 1D       		.uleb128 0x1d
 3387 024c 00       		.byte	0
 3388 024d 31       		.uleb128 0x31
 3389 024e 13       		.uleb128 0x13
 3390 024f 52       		.uleb128 0x52
 3391 0250 01       		.uleb128 0x1
 3392 0251 55       		.uleb128 0x55
 3393 0252 06       		.uleb128 0x6
 3394 0253 58       		.uleb128 0x58
 3395 0254 0B       		.uleb128 0xb
 3396 0255 59       		.uleb128 0x59
 3397 0256 0B       		.uleb128 0xb
ARM GAS  C:\Users\RICHRD~1\AppData\Local\Temp\cciH5zWJ.s 			page 62


 3398 0257 00       		.byte	0
 3399 0258 00       		.byte	0
 3400 0259 2E       		.uleb128 0x2e
 3401 025a 898201   		.uleb128 0x4109
 3402 025d 01       		.byte	0x1
 3403 025e 11       		.uleb128 0x11
 3404 025f 01       		.uleb128 0x1
 3405 0260 01       		.uleb128 0x1
 3406 0261 13       		.uleb128 0x13
 3407 0262 00       		.byte	0
 3408 0263 00       		.byte	0
 3409 0264 2F       		.uleb128 0x2f
 3410 0265 898201   		.uleb128 0x4109
 3411 0268 01       		.byte	0x1
 3412 0269 11       		.uleb128 0x11
 3413 026a 01       		.uleb128 0x1
 3414 026b 9542     		.uleb128 0x2115
 3415 026d 0C       		.uleb128 0xc
 3416 026e 31       		.uleb128 0x31
 3417 026f 13       		.uleb128 0x13
 3418 0270 00       		.byte	0
 3419 0271 00       		.byte	0
 3420 0272 30       		.uleb128 0x30
 3421 0273 34       		.uleb128 0x34
 3422 0274 00       		.byte	0
 3423 0275 03       		.uleb128 0x3
 3424 0276 0E       		.uleb128 0xe
 3425 0277 3A       		.uleb128 0x3a
 3426 0278 0B       		.uleb128 0xb
 3427 0279 3B       		.uleb128 0x3b
 3428 027a 0B       		.uleb128 0xb
 3429 027b 49       		.uleb128 0x49
 3430 027c 13       		.uleb128 0x13
 3431 027d 02       		.uleb128 0x2
 3432 027e 0A       		.uleb128 0xa
 3433 027f 00       		.byte	0
 3434 0280 00       		.byte	0
 3435 0281 31       		.uleb128 0x31
 3436 0282 34       		.uleb128 0x34
 3437 0283 00       		.byte	0
 3438 0284 03       		.uleb128 0x3
 3439 0285 0E       		.uleb128 0xe
 3440 0286 3A       		.uleb128 0x3a
 3441 0287 0B       		.uleb128 0xb
 3442 0288 3B       		.uleb128 0x3b
 3443 0289 05       		.uleb128 0x5
 3444 028a 49       		.uleb128 0x49
 3445 028b 13       		.uleb128 0x13
 3446 028c 3F       		.uleb128 0x3f
 3447 028d 0C       		.uleb128 0xc
 3448 028e 3C       		.uleb128 0x3c
 3449 028f 0C       		.uleb128 0xc
 3450 0290 00       		.byte	0
 3451 0291 00       		.byte	0
 3452 0292 32       		.uleb128 0x32
 3453 0293 34       		.uleb128 0x34
 3454 0294 00       		.byte	0
ARM GAS  C:\Users\RICHRD~1\AppData\Local\Temp\cciH5zWJ.s 			page 63


 3455 0295 03       		.uleb128 0x3
 3456 0296 0E       		.uleb128 0xe
 3457 0297 3A       		.uleb128 0x3a
 3458 0298 0B       		.uleb128 0xb
 3459 0299 3B       		.uleb128 0x3b
 3460 029a 0B       		.uleb128 0xb
 3461 029b 49       		.uleb128 0x49
 3462 029c 13       		.uleb128 0x13
 3463 029d 3F       		.uleb128 0x3f
 3464 029e 0C       		.uleb128 0xc
 3465 029f 02       		.uleb128 0x2
 3466 02a0 0A       		.uleb128 0xa
 3467 02a1 00       		.byte	0
 3468 02a2 00       		.byte	0
 3469 02a3 33       		.uleb128 0x33
 3470 02a4 2E       		.uleb128 0x2e
 3471 02a5 01       		.byte	0x1
 3472 02a6 3F       		.uleb128 0x3f
 3473 02a7 0C       		.uleb128 0xc
 3474 02a8 03       		.uleb128 0x3
 3475 02a9 0E       		.uleb128 0xe
 3476 02aa 3A       		.uleb128 0x3a
 3477 02ab 0B       		.uleb128 0xb
 3478 02ac 3B       		.uleb128 0x3b
 3479 02ad 0B       		.uleb128 0xb
 3480 02ae 27       		.uleb128 0x27
 3481 02af 0C       		.uleb128 0xc
 3482 02b0 3C       		.uleb128 0x3c
 3483 02b1 0C       		.uleb128 0xc
 3484 02b2 01       		.uleb128 0x1
 3485 02b3 13       		.uleb128 0x13
 3486 02b4 00       		.byte	0
 3487 02b5 00       		.byte	0
 3488 02b6 34       		.uleb128 0x34
 3489 02b7 2E       		.uleb128 0x2e
 3490 02b8 01       		.byte	0x1
 3491 02b9 3F       		.uleb128 0x3f
 3492 02ba 0C       		.uleb128 0xc
 3493 02bb 03       		.uleb128 0x3
 3494 02bc 0E       		.uleb128 0xe
 3495 02bd 3A       		.uleb128 0x3a
 3496 02be 0B       		.uleb128 0xb
 3497 02bf 3B       		.uleb128 0x3b
 3498 02c0 0B       		.uleb128 0xb
 3499 02c1 27       		.uleb128 0x27
 3500 02c2 0C       		.uleb128 0xc
 3501 02c3 49       		.uleb128 0x49
 3502 02c4 13       		.uleb128 0x13
 3503 02c5 3C       		.uleb128 0x3c
 3504 02c6 0C       		.uleb128 0xc
 3505 02c7 00       		.byte	0
 3506 02c8 00       		.byte	0
 3507 02c9 00       		.byte	0
 3508              		.section	.debug_loc,"",%progbits
 3509              	.Ldebug_loc0:
 3510              	.LLST0:
 3511 0000 00000000 		.4byte	.LFB118
ARM GAS  C:\Users\RICHRD~1\AppData\Local\Temp\cciH5zWJ.s 			page 64


 3512 0004 02000000 		.4byte	.LCFI0
 3513 0008 0200     		.2byte	0x2
 3514 000a 7D       		.byte	0x7d
 3515 000b 00       		.sleb128 0
 3516 000c 02000000 		.4byte	.LCFI0
 3517 0010 04000000 		.4byte	.LCFI1
 3518 0014 0200     		.2byte	0x2
 3519 0016 7D       		.byte	0x7d
 3520 0017 0C       		.sleb128 12
 3521 0018 04000000 		.4byte	.LCFI1
 3522 001c 06000000 		.4byte	.LCFI2
 3523 0020 0200     		.2byte	0x2
 3524 0022 7D       		.byte	0x7d
 3525 0023 10       		.sleb128 16
 3526 0024 06000000 		.4byte	.LCFI2
 3527 0028 1E000000 		.4byte	.LFE118
 3528 002c 0200     		.2byte	0x2
 3529 002e 7D       		.byte	0x7d
 3530 002f 18       		.sleb128 24
 3531 0030 00000000 		.4byte	0
 3532 0034 00000000 		.4byte	0
 3533              	.LLST1:
 3534 0038 00000000 		.4byte	.LVL0
 3535 003c 13000000 		.4byte	.LVL1-1
 3536 0040 0100     		.2byte	0x1
 3537 0042 50       		.byte	0x50
 3538 0043 13000000 		.4byte	.LVL1-1
 3539 0047 1E000000 		.4byte	.LFE118
 3540 004b 0400     		.2byte	0x4
 3541 004d F3       		.byte	0xf3
 3542 004e 01       		.uleb128 0x1
 3543 004f 50       		.byte	0x50
 3544 0050 9F       		.byte	0x9f
 3545 0051 00000000 		.4byte	0
 3546 0055 00000000 		.4byte	0
 3547              	.LLST2:
 3548 0059 00000000 		.4byte	.LFB119
 3549 005d 02000000 		.4byte	.LCFI3
 3550 0061 0200     		.2byte	0x2
 3551 0063 7D       		.byte	0x7d
 3552 0064 00       		.sleb128 0
 3553 0065 02000000 		.4byte	.LCFI3
 3554 0069 48000000 		.4byte	.LFE119
 3555 006d 0200     		.2byte	0x2
 3556 006f 7D       		.byte	0x7d
 3557 0070 08       		.sleb128 8
 3558 0071 00000000 		.4byte	0
 3559 0075 00000000 		.4byte	0
 3560              	.LLST3:
 3561 0079 00000000 		.4byte	.LFB120
 3562 007d 02000000 		.4byte	.LCFI4
 3563 0081 0200     		.2byte	0x2
 3564 0083 7D       		.byte	0x7d
 3565 0084 00       		.sleb128 0
 3566 0085 02000000 		.4byte	.LCFI4
 3567 0089 E8000000 		.4byte	.LFE120
 3568 008d 0200     		.2byte	0x2
ARM GAS  C:\Users\RICHRD~1\AppData\Local\Temp\cciH5zWJ.s 			page 65


 3569 008f 7D       		.byte	0x7d
 3570 0090 08       		.sleb128 8
 3571 0091 00000000 		.4byte	0
 3572 0095 00000000 		.4byte	0
 3573              	.LLST4:
 3574 0099 00000000 		.4byte	.LFB128
 3575 009d 02000000 		.4byte	.LCFI5
 3576 00a1 0200     		.2byte	0x2
 3577 00a3 7D       		.byte	0x7d
 3578 00a4 00       		.sleb128 0
 3579 00a5 02000000 		.4byte	.LCFI5
 3580 00a9 C4010000 		.4byte	.LFE128
 3581 00ad 0200     		.2byte	0x2
 3582 00af 7D       		.byte	0x7d
 3583 00b0 18       		.sleb128 24
 3584 00b1 00000000 		.4byte	0
 3585 00b5 00000000 		.4byte	0
 3586              	.LLST5:
 3587 00b9 00000000 		.4byte	.LVL12
 3588 00bd 0D000000 		.4byte	.LVL14-1
 3589 00c1 0100     		.2byte	0x1
 3590 00c3 50       		.byte	0x50
 3591 00c4 0D000000 		.4byte	.LVL14-1
 3592 00c8 C4010000 		.4byte	.LFE128
 3593 00cc 0100     		.2byte	0x1
 3594 00ce 54       		.byte	0x54
 3595 00cf 00000000 		.4byte	0
 3596 00d3 00000000 		.4byte	0
 3597              	.LLST6:
 3598 00d7 00000000 		.4byte	.LVL12
 3599 00db 08000000 		.4byte	.LVL13
 3600 00df 0100     		.2byte	0x1
 3601 00e1 51       		.byte	0x51
 3602 00e2 08000000 		.4byte	.LVL13
 3603 00e6 24000000 		.4byte	.LVL17
 3604 00ea 0100     		.2byte	0x1
 3605 00ec 55       		.byte	0x55
 3606 00ed 24000000 		.4byte	.LVL17
 3607 00f1 60000000 		.4byte	.LVL24
 3608 00f5 0400     		.2byte	0x4
 3609 00f7 F3       		.byte	0xf3
 3610 00f8 01       		.uleb128 0x1
 3611 00f9 51       		.byte	0x51
 3612 00fa 9F       		.byte	0x9f
 3613 00fb 60000000 		.4byte	.LVL24
 3614 00ff C8000000 		.4byte	.LVL34
 3615 0103 0100     		.2byte	0x1
 3616 0105 55       		.byte	0x55
 3617 0106 C8000000 		.4byte	.LVL34
 3618 010a DA000000 		.4byte	.LVL36
 3619 010e 0400     		.2byte	0x4
 3620 0110 F3       		.byte	0xf3
 3621 0111 01       		.uleb128 0x1
 3622 0112 51       		.byte	0x51
 3623 0113 9F       		.byte	0x9f
 3624 0114 DA000000 		.4byte	.LVL36
 3625 0118 C4010000 		.4byte	.LFE128
ARM GAS  C:\Users\RICHRD~1\AppData\Local\Temp\cciH5zWJ.s 			page 66


 3626 011c 0100     		.2byte	0x1
 3627 011e 55       		.byte	0x55
 3628 011f 00000000 		.4byte	0
 3629 0123 00000000 		.4byte	0
 3630              	.LLST7:
 3631 0127 00000000 		.4byte	.LVL12
 3632 012b 0D000000 		.4byte	.LVL14-1
 3633 012f 0100     		.2byte	0x1
 3634 0131 52       		.byte	0x52
 3635 0132 0D000000 		.4byte	.LVL14-1
 3636 0136 24000000 		.4byte	.LVL17
 3637 013a 0100     		.2byte	0x1
 3638 013c 56       		.byte	0x56
 3639 013d 24000000 		.4byte	.LVL17
 3640 0141 60000000 		.4byte	.LVL24
 3641 0145 0400     		.2byte	0x4
 3642 0147 F3       		.byte	0xf3
 3643 0148 01       		.uleb128 0x1
 3644 0149 52       		.byte	0x52
 3645 014a 9F       		.byte	0x9f
 3646 014b 60000000 		.4byte	.LVL24
 3647 014f 72000000 		.4byte	.LVL26
 3648 0153 0100     		.2byte	0x1
 3649 0155 56       		.byte	0x56
 3650 0156 72000000 		.4byte	.LVL26
 3651 015a C4010000 		.4byte	.LFE128
 3652 015e 0400     		.2byte	0x4
 3653 0160 F3       		.byte	0xf3
 3654 0161 01       		.uleb128 0x1
 3655 0162 52       		.byte	0x52
 3656 0163 9F       		.byte	0x9f
 3657 0164 00000000 		.4byte	0
 3658 0168 00000000 		.4byte	0
 3659              		.section	.debug_aranges,"",%progbits
 3660 0000 6C000000 		.4byte	0x6c
 3661 0004 0200     		.2byte	0x2
 3662 0006 00000000 		.4byte	.Ldebug_info0
 3663 000a 04       		.byte	0x4
 3664 000b 00       		.byte	0
 3665 000c 0000     		.2byte	0
 3666 000e 0000     		.2byte	0
 3667 0010 00000000 		.4byte	.LFB118
 3668 0014 1E000000 		.4byte	.LFE118-.LFB118
 3669 0018 00000000 		.4byte	.LFB119
 3670 001c 48000000 		.4byte	.LFE119-.LFB119
 3671 0020 00000000 		.4byte	.LFB120
 3672 0024 E8000000 		.4byte	.LFE120-.LFB120
 3673 0028 00000000 		.4byte	.LFB121
 3674 002c 26000000 		.4byte	.LFE121-.LFB121
 3675 0030 00000000 		.4byte	.LFB122
 3676 0034 26000000 		.4byte	.LFE122-.LFB122
 3677 0038 00000000 		.4byte	.LFB123
 3678 003c 26000000 		.4byte	.LFE123-.LFB123
 3679 0040 00000000 		.4byte	.LFB124
 3680 0044 0E000000 		.4byte	.LFE124-.LFB124
 3681 0048 00000000 		.4byte	.LFB125
 3682 004c 10000000 		.4byte	.LFE125-.LFB125
ARM GAS  C:\Users\RICHRD~1\AppData\Local\Temp\cciH5zWJ.s 			page 67


 3683 0050 00000000 		.4byte	.LFB126
 3684 0054 0E000000 		.4byte	.LFE126-.LFB126
 3685 0058 00000000 		.4byte	.LFB127
 3686 005c 10000000 		.4byte	.LFE127-.LFB127
 3687 0060 00000000 		.4byte	.LFB128
 3688 0064 C4010000 		.4byte	.LFE128-.LFB128
 3689 0068 00000000 		.4byte	0
 3690 006c 00000000 		.4byte	0
 3691              		.section	.debug_ranges,"",%progbits
 3692              	.Ldebug_ranges0:
 3693 0000 06010000 		.4byte	.LBB26
 3694 0004 14010000 		.4byte	.LBE26
 3695 0008 1C010000 		.4byte	.LBB29
 3696 000c 26010000 		.4byte	.LBE29
 3697 0010 00000000 		.4byte	0
 3698 0014 00000000 		.4byte	0
 3699 0018 00000000 		.4byte	.LFB118
 3700 001c 1E000000 		.4byte	.LFE118
 3701 0020 00000000 		.4byte	.LFB119
 3702 0024 48000000 		.4byte	.LFE119
 3703 0028 00000000 		.4byte	.LFB120
 3704 002c E8000000 		.4byte	.LFE120
 3705 0030 00000000 		.4byte	.LFB121
 3706 0034 26000000 		.4byte	.LFE121
 3707 0038 00000000 		.4byte	.LFB122
 3708 003c 26000000 		.4byte	.LFE122
 3709 0040 00000000 		.4byte	.LFB123
 3710 0044 26000000 		.4byte	.LFE123
 3711 0048 00000000 		.4byte	.LFB124
 3712 004c 0E000000 		.4byte	.LFE124
 3713 0050 00000000 		.4byte	.LFB125
 3714 0054 10000000 		.4byte	.LFE125
 3715 0058 00000000 		.4byte	.LFB126
 3716 005c 0E000000 		.4byte	.LFE126
 3717 0060 00000000 		.4byte	.LFB127
 3718 0064 10000000 		.4byte	.LFE127
 3719 0068 00000000 		.4byte	.LFB128
 3720 006c C4010000 		.4byte	.LFE128
 3721 0070 00000000 		.4byte	0
 3722 0074 00000000 		.4byte	0
 3723              		.section	.debug_line,"",%progbits
 3724              	.Ldebug_line0:
 3725 0000 13040000 		.section	.debug_str,"MS",%progbits,1
 3725      02007502 
 3725      00000201 
 3725      FB0E0D00 
 3725      01010101 
 3726              	.LASF101:
 3727 0000 433A5C55 		.ascii	"C:\\Users\\Rich\341rd\\git\\Modulux\\modulux\\firmw"
 3727      73657273 
 3727      5C526963 
 3727      68E17264 
 3727      5C676974 
 3728 002a 61726500 		.ascii	"are\000"
 3729              	.LASF45:
 3730 002e 43434552 		.ascii	"CCER\000"
 3730      00
ARM GAS  C:\Users\RICHRD~1\AppData\Local\Temp\cciH5zWJ.s 			page 68


 3731              	.LASF21:
 3732 0033 77726974 		.ascii	"write\000"
 3732      6500
 3733              	.LASF70:
 3734 0039 72696768 		.ascii	"right\000"
 3734      7400
 3735              	.LASF80:
 3736 003f 6C696768 		.ascii	"lightPosLampON\000"
 3736      74506F73 
 3736      4C616D70 
 3736      4F4E00
 3737              	.LASF47:
 3738 004e 444D4152 		.ascii	"DMAR\000"
 3738      00
 3739              	.LASF36:
 3740 0053 73746174 		.ascii	"state\000"
 3740      6500
 3741              	.LASF44:
 3742 0059 43434D52 		.ascii	"CCMR2\000"
 3742      3200
 3743              	.LASF48:
 3744 005f 43434D52 		.ascii	"CCMR3\000"
 3744      3300
 3745              	.LASF5:
 3746 0065 73686F72 		.ascii	"short int\000"
 3746      7420696E 
 3746      7400
 3747              	.LASF2:
 3748 006f 73697A65 		.ascii	"size_t\000"
 3748      5F7400
 3749              	.LASF54:
 3750 0076 70776D63 		.ascii	"pwmcnt_t\000"
 3750      6E745F74 
 3750      00
 3751              	.LASF19:
 3752 007f 73697A65 		.ascii	"sizetype\000"
 3752      74797065 
 3752      00
 3753              	.LASF99:
 3754 0088 474E5520 		.ascii	"GNU C 4.7.4 20140401 (release) [ARM/embedded-4_7-br"
 3754      4320342E 
 3754      372E3420 
 3754      32303134 
 3754      30343031 
 3755 00bb 616E6368 		.ascii	"anch revision 209195]\000"
 3755      20726576 
 3755      6973696F 
 3755      6E203230 
 3755      39313935 
 3756              	.LASF23:
 3757 00d1 42617365 		.ascii	"BaseSequentialStream\000"
 3757      53657175 
 3757      656E7469 
 3757      616C5374 
 3757      7265616D 
 3758              	.LASF53:
 3759 00e6 70776D63 		.ascii	"pwmchannel_t\000"
ARM GAS  C:\Users\RICHRD~1\AppData\Local\Temp\cciH5zWJ.s 			page 69


 3759      68616E6E 
 3759      656C5F74 
 3759      00
 3760              	.LASF55:
 3761 00f3 6D6F6465 		.ascii	"mode\000"
 3761      00
 3762              	.LASF75:
 3763 00f8 6C696768 		.ascii	"lightRight\000"
 3763      74526967 
 3763      687400
 3764              	.LASF28:
 3765 0103 77726974 		.ascii	"writet\000"
 3765      657400
 3766              	.LASF37:
 3767 010a 636F6E66 		.ascii	"config\000"
 3767      696700
 3768              	.LASF74:
 3769 0111 706F735F 		.ascii	"pos_lamp\000"
 3769      6C616D70 
 3769      00
 3770              	.LASF67:
 3771 011a 76615F6C 		.ascii	"va_list\000"
 3771      69737400 
 3772              	.LASF3:
 3773 0122 75696E74 		.ascii	"uint8_t\000"
 3773      385F7400 
 3774              	.LASF98:
 3775 012a 70776D45 		.ascii	"pwmEnableChannel\000"
 3775      6E61626C 
 3775      65436861 
 3775      6E6E656C 
 3775      00
 3776              	.LASF25:
 3777 013b 42617365 		.ascii	"BaseChannelVMT\000"
 3777      4368616E 
 3777      6E656C56 
 3777      4D5400
 3778              	.LASF69:
 3779 014a 6C696768 		.ascii	"lights_disabled\000"
 3779      74735F64 
 3779      69736162 
 3779      6C656400 
 3780              	.LASF83:
 3781 015a 6C696768 		.ascii	"lightCalc\000"
 3781      7443616C 
 3781      6300
 3782              	.LASF63:
 3783 0164 666C6F61 		.ascii	"float\000"
 3783      7400
 3784              	.LASF96:
 3785 016a 70776D53 		.ascii	"pwmStart\000"
 3785      74617274 
 3785      00
 3786              	.LASF24:
 3787 0173 42617365 		.ascii	"BaseSequentialStreamVMT\000"
 3787      53657175 
 3787      656E7469 
ARM GAS  C:\Users\RICHRD~1\AppData\Local\Temp\cciH5zWJ.s 			page 70


 3787      616C5374 
 3787      7265616D 
 3788              	.LASF22:
 3789 018b 72656164 		.ascii	"read\000"
 3789      00
 3790              	.LASF12:
 3791 0190 6C6F6E67 		.ascii	"long long int\000"
 3791      206C6F6E 
 3791      6720696E 
 3791      7400
 3792              	.LASF66:
 3793 019e 5F5F7661 		.ascii	"__va_list\000"
 3793      5F6C6973 
 3793      7400
 3794              	.LASF9:
 3795 01a8 6C6F6E67 		.ascii	"long int\000"
 3795      20696E74 
 3795      00
 3796              	.LASF49:
 3797 01b1 43435235 		.ascii	"CCR5\000"
 3797      00
 3798              	.LASF50:
 3799 01b6 43435236 		.ascii	"CCR6\000"
 3799      00
 3800              	.LASF27:
 3801 01bb 67657474 		.ascii	"gett\000"
 3801      00
 3802              	.LASF79:
 3803 01c0 6C696768 		.ascii	"lightBrakeOFF\000"
 3803      74427261 
 3803      6B654F46 
 3803      4600
 3804              	.LASF43:
 3805 01ce 43434D52 		.ascii	"CCMR1\000"
 3805      3100
 3806              	.LASF87:
 3807 01d4 6C696768 		.ascii	"lightchanels\000"
 3807      74636861 
 3807      6E656C73 
 3807      00
 3808              	.LASF86:
 3809 01e1 61726776 		.ascii	"argv\000"
 3809      00
 3810              	.LASF77:
 3811 01e6 6C696768 		.ascii	"lightWarning\000"
 3811      74576172 
 3811      6E696E67 
 3811      00
 3812              	.LASF64:
 3813 01f3 6C6F6E67 		.ascii	"long double\000"
 3813      20646F75 
 3813      626C6500 
 3814              	.LASF41:
 3815 01ff 534D4352 		.ascii	"SMCR\000"
 3815      00
 3816              	.LASF31:
 3817 0204 50574D5F 		.ascii	"PWM_UNINIT\000"
ARM GAS  C:\Users\RICHRD~1\AppData\Local\Temp\cciH5zWJ.s 			page 71


 3817      554E494E 
 3817      495400
 3818              	.LASF4:
 3819 020f 756E7369 		.ascii	"unsigned char\000"
 3819      676E6564 
 3819      20636861 
 3819      7200
 3820              	.LASF46:
 3821 021d 42445452 		.ascii	"BDTR\000"
 3821      00
 3822              	.LASF85:
 3823 0222 61726763 		.ascii	"argc\000"
 3823      00
 3824              	.LASF97:
 3825 0227 70776D44 		.ascii	"pwmDisableChannel\000"
 3825      69736162 
 3825      6C654368 
 3825      616E6E65 
 3825      6C00
 3826              	.LASF72:
 3827 0239 7761726E 		.ascii	"warning\000"
 3827      696E6700 
 3828              	.LASF1:
 3829 0241 7369676E 		.ascii	"signed char\000"
 3829      65642063 
 3829      68617200 
 3830              	.LASF13:
 3831 024d 75696E74 		.ascii	"uint64_t\000"
 3831      36345F74 
 3831      00
 3832              	.LASF14:
 3833 0256 6C6F6E67 		.ascii	"long long unsigned int\000"
 3833      206C6F6E 
 3833      6720756E 
 3833      7369676E 
 3833      65642069 
 3834              	.LASF10:
 3835 026d 75696E74 		.ascii	"uint32_t\000"
 3835      33325F74 
 3835      00
 3836              	.LASF81:
 3837 0276 6C696768 		.ascii	"lightPosLampOFF\000"
 3837      74506F73 
 3837      4C616D70 
 3837      4F464600 
 3838              	.LASF0:
 3839 0286 756E7369 		.ascii	"unsigned int\000"
 3839      676E6564 
 3839      20696E74 
 3839      00
 3840              	.LASF102:
 3841 0293 5F5F6170 		.ascii	"__ap\000"
 3841      00
 3842              	.LASF6:
 3843 0298 75696E74 		.ascii	"uint16_t\000"
 3843      31365F74 
 3843      00
ARM GAS  C:\Users\RICHRD~1\AppData\Local\Temp\cciH5zWJ.s 			page 72


 3844              	.LASF61:
 3845 02a1 50574D43 		.ascii	"PWMConfig\000"
 3845      6F6E6669 
 3845      6700
 3846              	.LASF68:
 3847 02ab 6C696768 		.ascii	"lightChanels\000"
 3847      74436861 
 3847      6E656C73 
 3847      00
 3848              	.LASF26:
 3849 02b8 70757474 		.ascii	"putt\000"
 3849      00
 3850              	.LASF42:
 3851 02bd 44494552 		.ascii	"DIER\000"
 3851      00
 3852              	.LASF71:
 3853 02c2 6C656674 		.ascii	"left\000"
 3853      00
 3854              	.LASF7:
 3855 02c7 73686F72 		.ascii	"short unsigned int\000"
 3855      7420756E 
 3855      7369676E 
 3855      65642069 
 3855      6E7400
 3856              	.LASF82:
 3857 02da 6C696768 		.ascii	"lightInit\000"
 3857      74496E69 
 3857      7400
 3858              	.LASF18:
 3859 02e4 73797374 		.ascii	"systime_t\000"
 3859      696D655F 
 3859      7400
 3860              	.LASF29:
 3861 02ee 72656164 		.ascii	"readt\000"
 3861      7400
 3862              	.LASF20:
 3863 02f4 63686172 		.ascii	"char\000"
 3863      00
 3864              	.LASF51:
 3865 02f9 73746D33 		.ascii	"stm32_tim_t\000"
 3865      325F7469 
 3865      6D5F7400 
 3866              	.LASF35:
 3867 0305 50574D44 		.ascii	"PWMDriver\000"
 3867      72697665 
 3867      7200
 3868              	.LASF8:
 3869 030f 696E7433 		.ascii	"int32_t\000"
 3869      325F7400 
 3870              	.LASF15:
 3871 0317 626F6F6C 		.ascii	"bool_t\000"
 3871      5F7400
 3872              	.LASF84:
 3873 031e 636D645F 		.ascii	"cmd_lightblink\000"
 3873      6C696768 
 3873      74626C69 
 3873      6E6B00
ARM GAS  C:\Users\RICHRD~1\AppData\Local\Temp\cciH5zWJ.s 			page 73


 3874              	.LASF16:
 3875 032d 5F426F6F 		.ascii	"_Bool\000"
 3875      6C00
 3876              	.LASF103:
 3877 0333 63687072 		.ascii	"chprintf\000"
 3877      696E7466 
 3877      00
 3878              	.LASF88:
 3879 033c 70776D63 		.ascii	"pwmcfg\000"
 3879      666700
 3880              	.LASF58:
 3881 0343 66726571 		.ascii	"frequency\000"
 3881      75656E63 
 3881      7900
 3882              	.LASF100:
 3883 034d 7372632F 		.ascii	"src/light.c\000"
 3883      6C696768 
 3883      742E6300 
 3884              	.LASF59:
 3885 0359 6368616E 		.ascii	"channels\000"
 3885      6E656C73 
 3885      00
 3886              	.LASF11:
 3887 0362 6C6F6E67 		.ascii	"long unsigned int\000"
 3887      20756E73 
 3887      69676E65 
 3887      6420696E 
 3887      7400
 3888              	.LASF39:
 3889 0374 636C6F63 		.ascii	"clock\000"
 3889      6B00
 3890              	.LASF62:
 3891 037a 646F7562 		.ascii	"double\000"
 3891      6C6500
 3892              	.LASF73:
 3893 0381 6272616B 		.ascii	"braking\000"
 3893      696E6700 
 3894              	.LASF76:
 3895 0389 6C696768 		.ascii	"lightLeft\000"
 3895      744C6566 
 3895      7400
 3896              	.LASF78:
 3897 0393 6C696768 		.ascii	"lightBrakeON\000"
 3897      74427261 
 3897      6B654F4E 
 3897      00
 3898              	.LASF92:
 3899 03a0 6C696768 		.ascii	"lightsOn\000"
 3899      74734F6E 
 3899      00
 3900              	.LASF33:
 3901 03a9 50574D5F 		.ascii	"PWM_READY\000"
 3901      52454144 
 3901      5900
 3902              	.LASF94:
 3903 03b3 73747263 		.ascii	"strcmp\000"
 3903      6D7000
ARM GAS  C:\Users\RICHRD~1\AppData\Local\Temp\cciH5zWJ.s 			page 74


 3904              	.LASF32:
 3905 03ba 50574D5F 		.ascii	"PWM_STOP\000"
 3905      53544F50 
 3905      00
 3906              	.LASF60:
 3907 03c3 64696572 		.ascii	"dier\000"
 3907      00
 3908              	.LASF89:
 3909 03c8 70657269 		.ascii	"period_num\000"
 3909      6F645F6E 
 3909      756D00
 3910              	.LASF104:
 3911 03d3 4552524F 		.ascii	"ERROR\000"
 3911      5200
 3912              	.LASF65:
 3913 03d9 5F5F676E 		.ascii	"__gnuc_va_list\000"
 3913      75635F76 
 3913      615F6C69 
 3913      737400
 3914              	.LASF91:
 3915 03e8 50574D44 		.ascii	"PWMD1\000"
 3915      3100
 3916              	.LASF57:
 3917 03ee 50574D43 		.ascii	"PWMChannelConfig\000"
 3917      68616E6E 
 3917      656C436F 
 3917      6E666967 
 3917      00
 3918              	.LASF38:
 3919 03ff 70657269 		.ascii	"period\000"
 3919      6F6400
 3920              	.LASF30:
 3921 0406 42617365 		.ascii	"BaseChannel\000"
 3921      4368616E 
 3921      6E656C00 
 3922              	.LASF52:
 3923 0412 70776D6D 		.ascii	"pwmmode_t\000"
 3923      6F64655F 
 3923      7400
 3924              	.LASF90:
 3925 041c 49544D5F 		.ascii	"ITM_RxBuffer\000"
 3925      52784275 
 3925      66666572 
 3925      00
 3926              	.LASF34:
 3927 0429 70776D73 		.ascii	"pwmstate_t\000"
 3927      74617465 
 3927      5F7400
 3928              	.LASF40:
 3929 0434 70776D63 		.ascii	"pwmcallback_t\000"
 3929      616C6C62 
 3929      61636B5F 
 3929      7400
 3930              	.LASF17:
 3931 0442 6D73675F 		.ascii	"msg_t\000"
 3931      7400
 3932              	.LASF56:
ARM GAS  C:\Users\RICHRD~1\AppData\Local\Temp\cciH5zWJ.s 			page 75


 3933 0448 63616C6C 		.ascii	"callback\000"
 3933      6261636B 
 3933      00
 3934              	.LASF93:
 3935 0451 6272616B 		.ascii	"brakeOn\000"
 3935      654F6E00 
 3936              	.LASF95:
 3937 0459 63687670 		.ascii	"chvprintf\000"
 3937      72696E74 
 3937      6600
 3938              		.ident	"GCC: (GNU Tools for ARM Embedded Processors) 4.7.4 20140401 (release) [ARM/embedded-4_7-br
ARM GAS  C:\Users\RICHRD~1\AppData\Local\Temp\cciH5zWJ.s 			page 76


DEFINED SYMBOLS
                            *ABS*:00000000 light.c
C:\Users\RICHRD~1\AppData\Local\Temp\cciH5zWJ.s:19     .text.chprintf:00000000 $t
C:\Users\RICHRD~1\AppData\Local\Temp\cciH5zWJ.s:24     .text.chprintf:00000000 chprintf
C:\Users\RICHRD~1\AppData\Local\Temp\cciH5zWJ.s:64     .text.lightInit:00000000 $t
C:\Users\RICHRD~1\AppData\Local\Temp\cciH5zWJ.s:70     .text.lightInit:00000000 lightInit
C:\Users\RICHRD~1\AppData\Local\Temp\cciH5zWJ.s:856    .bss.period:00000000 .LANCHOR0
C:\Users\RICHRD~1\AppData\Local\Temp\cciH5zWJ.s:836    .data.pwmcfg:00000000 .LANCHOR1
C:\Users\RICHRD~1\AppData\Local\Temp\cciH5zWJ.s:956    .bss.period_num:00000000 .LANCHOR2
C:\Users\RICHRD~1\AppData\Local\Temp\cciH5zWJ.s:936    .bss.lightsOn:00000000 .LANCHOR3
C:\Users\RICHRD~1\AppData\Local\Temp\cciH5zWJ.s:949    .bss.brakeOn:00000000 .LANCHOR4
C:\Users\RICHRD~1\AppData\Local\Temp\cciH5zWJ.s:124    .text.lightCalc:00000000 $t
C:\Users\RICHRD~1\AppData\Local\Temp\cciH5zWJ.s:130    .text.lightCalc:00000000 lightCalc
C:\Users\RICHRD~1\AppData\Local\Temp\cciH5zWJ.s:282    .text.lightCalc:000000d4 $d
C:\Users\RICHRD~1\AppData\Local\Temp\cciH5zWJ.s:291    .text.lightRight:00000000 $t
C:\Users\RICHRD~1\AppData\Local\Temp\cciH5zWJ.s:297    .text.lightRight:00000000 lightRight
C:\Users\RICHRD~1\AppData\Local\Temp\cciH5zWJ.s:943    .bss.lightchanels:00000000 .LANCHOR5
C:\Users\RICHRD~1\AppData\Local\Temp\cciH5zWJ.s:331    .text.lightLeft:00000000 $t
C:\Users\RICHRD~1\AppData\Local\Temp\cciH5zWJ.s:337    .text.lightLeft:00000000 lightLeft
C:\Users\RICHRD~1\AppData\Local\Temp\cciH5zWJ.s:371    .text.lightWarning:00000000 $t
C:\Users\RICHRD~1\AppData\Local\Temp\cciH5zWJ.s:377    .text.lightWarning:00000000 lightWarning
C:\Users\RICHRD~1\AppData\Local\Temp\cciH5zWJ.s:411    .text.lightBrakeON:00000000 $t
C:\Users\RICHRD~1\AppData\Local\Temp\cciH5zWJ.s:417    .text.lightBrakeON:00000000 lightBrakeON
C:\Users\RICHRD~1\AppData\Local\Temp\cciH5zWJ.s:435    .text.lightBrakeOFF:00000000 $t
C:\Users\RICHRD~1\AppData\Local\Temp\cciH5zWJ.s:441    .text.lightBrakeOFF:00000000 lightBrakeOFF
C:\Users\RICHRD~1\AppData\Local\Temp\cciH5zWJ.s:460    .text.lightPosLampON:00000000 $t
C:\Users\RICHRD~1\AppData\Local\Temp\cciH5zWJ.s:466    .text.lightPosLampON:00000000 lightPosLampON
C:\Users\RICHRD~1\AppData\Local\Temp\cciH5zWJ.s:484    .text.lightPosLampOFF:00000000 $t
C:\Users\RICHRD~1\AppData\Local\Temp\cciH5zWJ.s:490    .text.lightPosLampOFF:00000000 lightPosLampOFF
C:\Users\RICHRD~1\AppData\Local\Temp\cciH5zWJ.s:509    .text.cmd_lightblink:00000000 $t
C:\Users\RICHRD~1\AppData\Local\Temp\cciH5zWJ.s:515    .text.cmd_lightblink:00000000 cmd_lightblink
C:\Users\RICHRD~1\AppData\Local\Temp\cciH5zWJ.s:798    .text.cmd_lightblink:00000154 $d
C:\Users\RICHRD~1\AppData\Local\Temp\cciH5zWJ.s:952    .bss.brakeOn:00000000 brakeOn
C:\Users\RICHRD~1\AppData\Local\Temp\cciH5zWJ.s:939    .bss.lightsOn:00000000 lightsOn
C:\Users\RICHRD~1\AppData\Local\Temp\cciH5zWJ.s:835    .data.pwmcfg:00000000 $d
C:\Users\RICHRD~1\AppData\Local\Temp\cciH5zWJ.s:839    .data.pwmcfg:00000000 pwmcfg
C:\Users\RICHRD~1\AppData\Local\Temp\cciH5zWJ.s:855    .bss.period:00000000 $d
C:\Users\RICHRD~1\AppData\Local\Temp\cciH5zWJ.s:859    .bss.period:00000000 period
C:\Users\RICHRD~1\AppData\Local\Temp\cciH5zWJ.s:862    .rodata.str1.4:00000000 $d
C:\Users\RICHRD~1\AppData\Local\Temp\cciH5zWJ.s:940    .bss.lightsOn:00000000 $d
C:\Users\RICHRD~1\AppData\Local\Temp\cciH5zWJ.s:942    .bss.lightchanels:00000000 $d
C:\Users\RICHRD~1\AppData\Local\Temp\cciH5zWJ.s:946    .bss.lightchanels:00000000 lightchanels
C:\Users\RICHRD~1\AppData\Local\Temp\cciH5zWJ.s:953    .bss.brakeOn:00000000 $d
C:\Users\RICHRD~1\AppData\Local\Temp\cciH5zWJ.s:955    .bss.period_num:00000000 $d
C:\Users\RICHRD~1\AppData\Local\Temp\cciH5zWJ.s:959    .bss.period_num:00000000 period_num
                     .debug_frame:00000010 $d
C:\Users\RICHRD~1\AppData\Local\Temp\cciH5zWJ.s:290    .text.lightCalc:000000e8 $t
C:\Users\RICHRD~1\AppData\Local\Temp\cciH5zWJ.s:834    .text.cmd_lightblink:000001c4 $t

UNDEFINED SYMBOLS
chvprintf
PWMD1
pwmStart
pwmDisableChannel
pwmEnableChannel
strcmp
