ARM GAS  C:\Users\DNIEL~1\AppData\Local\Temp\cc4sotZz.s 			page 1


   1              		.syntax unified
   2              		.cpu cortex-m4
   3              		.fpu softvfp
   4              		.eabi_attribute 20, 1
   5              		.eabi_attribute 21, 1
   6              		.eabi_attribute 23, 3
   7              		.eabi_attribute 24, 1
   8              		.eabi_attribute 25, 1
   9              		.eabi_attribute 26, 1
  10              		.eabi_attribute 30, 2
  11              		.eabi_attribute 18, 4
  12              		.thumb
  13              		.file	"light.c"
  14              		.section	.debug_abbrev,"",%progbits
  15              	.Ldebug_abbrev0:
  16              		.section	.debug_info,"",%progbits
  17              	.Ldebug_info0:
  18              		.section	.debug_line,"",%progbits
  19              	.Ldebug_line0:
  20 0000 2A020000 		.text
  20      02009C01 
  20      00000201 
  20      FB0E0D00 
  20      01010101 
  21              	.Ltext0:
  22              		.cfi_sections	.debug_frame
  23              		.section	.text.lightCalc,"ax",%progbits
  24              		.align	2
  25              		.p2align 4,,15
  26              		.global	lightCalc
  27              		.thumb
  28              		.thumb_func
  29              		.type	lightCalc, %function
  30              	lightCalc:
  31              	.LFB119:
  32              		.file 1 "src/light.c"
  33              		.loc 1 39 0
  34              		.cfi_startproc
  35              		@ args = 0, pretend = 0, frame = 0
  36              		@ frame_needed = 0, uses_anonymous_args = 0
  37 0000 70B5     		push	{r4, r5, r6, lr}
  38              	.LCFI0:
  39              		.cfi_def_cfa_offset 16
  40              		.loc 1 41 0
  41 0002 2C4C     		ldr	r4, .L10
  42              		.cfi_offset 14, -4
  43              		.cfi_offset 6, -8
  44              		.cfi_offset 5, -12
  45              		.cfi_offset 4, -16
  46 0004 2378     		ldrb	r3, [r4, #0]	@ zero_extendqisi2
  47 0006 032B     		cmp	r3, #3
  48 0008 1AD8     		bhi	.L1
  49 000a DFE803F0 		tbb	[pc, r3]
  50              	.L7:
  51 000e 44       		.byte	(.L3-.L7)/2
  52 000f 34       		.byte	(.L4-.L7)/2
  53 0010 1A       		.byte	(.L5-.L7)/2
ARM GAS  C:\Users\DNIEL~1\AppData\Local\Temp\cc4sotZz.s 			page 2


  54 0011 02       		.byte	(.L6-.L7)/2
  55              		.align	1
  56              	.L6:
  57              		.loc 1 62 0
  58 0012 294D     		ldr	r5, .L10+4
  59 0014 2868     		ldr	r0, [r5, #0]
  60 0016 411C     		adds	r1, r0, #1
  61              		.loc 1 63 0
  62 0018 0F29     		cmp	r1, #15
  63              		.loc 1 62 0
  64 001a 2960     		str	r1, [r5, #0]
  65              		.loc 1 63 0
  66 001c 10DD     		ble	.L1
  67              		.loc 1 64 0
  68 001e 274B     		ldr	r3, .L10+8
  69              		.loc 1 65 0
  70 0020 2748     		ldr	r0, .L10+12
  71              		.loc 1 64 0
  72 0022 5A69     		ldr	r2, [r3, #20]
  73 0024 82F00802 		eor	r2, r2, #8
  74 0028 5A61     		str	r2, [r3, #20]
  75              		.loc 1 65 0
  76 002a 0221     		movs	r1, #2
  77 002c FFF7FEFF 		bl	pwmDisableChannel
  78              		.loc 1 66 0
  79 0030 2348     		ldr	r0, .L10+12
  80 0032 0121     		movs	r1, #1
  81 0034 FFF7FEFF 		bl	pwmDisableChannel
  82              		.loc 1 67 0
  83 0038 0022     		movs	r2, #0
  84              		.loc 1 68 0
  85 003a 0423     		movs	r3, #4
  86              		.loc 1 67 0
  87 003c 2A60     		str	r2, [r5, #0]
  88              		.loc 1 68 0
  89 003e 2370     		strb	r3, [r4, #0]
  90              	.L1:
  91 0040 70BD     		pop	{r4, r5, r6, pc}
  92              	.L5:
  93              		.loc 1 55 0
  94 0042 1F4D     		ldr	r5, .L10+12
  95 0044 1F4E     		ldr	r6, .L10+16
  96 0046 B5F808E0 		ldrh	lr, [r5, #8]
  97 004a 0221     		movs	r1, #2
  98 004c 86FB0E32 		smull	r3, r2, r6, lr
  99 0050 CA40     		lsrs	r2, r2, r1
 100 0052 2846     		mov	r0, r5
 101 0054 FFF7FEFF 		bl	pwmEnableChannel
 102              		.loc 1 56 0
 103 0058 B5F808C0 		ldrh	ip, [r5, #8]
 104 005c 86FB0C16 		smull	r1, r6, r6, ip
 105 0060 2846     		mov	r0, r5
 106 0062 B208     		lsrs	r2, r6, #2
 107 0064 0121     		movs	r1, #1
 108              		.loc 1 49 0
 109 0066 FFF7FEFF 		bl	pwmEnableChannel
 110              		.loc 1 50 0
ARM GAS  C:\Users\DNIEL~1\AppData\Local\Temp\cc4sotZz.s 			page 3


 111 006a 134B     		ldr	r3, .L10+4
 112 006c 0022     		movs	r2, #0
 113              		.loc 1 51 0
 114 006e 0320     		movs	r0, #3
 115              		.loc 1 50 0
 116 0070 1A60     		str	r2, [r3, #0]
 117              		.loc 1 51 0
 118 0072 2070     		strb	r0, [r4, #0]
 119              		.loc 1 52 0
 120 0074 70BD     		pop	{r4, r5, r6, pc}
 121              	.L4:
 122              		.loc 1 49 0
 123 0076 1248     		ldr	r0, .L10+12
 124 0078 1249     		ldr	r1, .L10+16
 125 007a B0F808C0 		ldrh	ip, [r0, #8]
 126 007e 81FB0C12 		smull	r1, r2, r1, ip
 127 0082 9208     		lsrs	r2, r2, #2
 128 0084 0121     		movs	r1, #1
 129 0086 FFF7FEFF 		bl	pwmEnableChannel
 130              		.loc 1 50 0
 131 008a 0B4B     		ldr	r3, .L10+4
 132 008c 0022     		movs	r2, #0
 133              		.loc 1 51 0
 134 008e 0320     		movs	r0, #3
 135              		.loc 1 50 0
 136 0090 1A60     		str	r2, [r3, #0]
 137              		.loc 1 51 0
 138 0092 2070     		strb	r0, [r4, #0]
 139              		.loc 1 52 0
 140 0094 70BD     		pop	{r4, r5, r6, pc}
 141              	.L3:
 142              		.loc 1 43 0
 143 0096 0A48     		ldr	r0, .L10+12
 144 0098 0A4B     		ldr	r3, .L10+16
 145 009a 0189     		ldrh	r1, [r0, #8]
 146 009c 83FB0112 		smull	r1, r2, r3, r1
 147 00a0 0221     		movs	r1, #2
 148 00a2 CA40     		lsrs	r2, r2, r1
 149              		.loc 1 49 0
 150 00a4 FFF7FEFF 		bl	pwmEnableChannel
 151              		.loc 1 50 0
 152 00a8 034B     		ldr	r3, .L10+4
 153 00aa 0022     		movs	r2, #0
 154              		.loc 1 51 0
 155 00ac 0320     		movs	r0, #3
 156              		.loc 1 50 0
 157 00ae 1A60     		str	r2, [r3, #0]
 158              		.loc 1 51 0
 159 00b0 2070     		strb	r0, [r4, #0]
 160              		.loc 1 52 0
 161 00b2 70BD     		pop	{r4, r5, r6, pc}
 162              	.L11:
 163              		.align	2
 164              	.L10:
 165 00b4 00000000 		.word	.LANCHOR0
 166 00b8 00000000 		.word	.LANCHOR1
 167 00bc 00100240 		.word	1073876992
ARM GAS  C:\Users\DNIEL~1\AppData\Local\Temp\cc4sotZz.s 			page 4


 168 00c0 00000000 		.word	PWMD1
 169 00c4 67666666 		.word	1717986919
 170              		.cfi_endproc
 171              	.LFE119:
 172              		.size	lightCalc, .-lightCalc
 173 00c8 AFF30080 		.section	.text.lightRight,"ax",%progbits
 173      AFF30080 
 174              		.align	2
 175              		.p2align 4,,15
 176              		.global	lightRight
 177              		.thumb
 178              		.thumb_func
 179              		.type	lightRight, %function
 180              	lightRight:
 181              	.LFB120:
 182              		.loc 1 78 0
 183              		.cfi_startproc
 184              		@ args = 0, pretend = 0, frame = 0
 185              		@ frame_needed = 0, uses_anonymous_args = 0
 186              		@ link register save eliminated.
 187              		.loc 1 79 0
 188 0000 034B     		ldr	r3, .L14
 189 0002 1A78     		ldrb	r2, [r3, #0]	@ zero_extendqisi2
 190 0004 042A     		cmp	r2, #4
 191 0006 01D1     		bne	.L12
 192              		.loc 1 80 0
 193 0008 0020     		movs	r0, #0
 194 000a 1870     		strb	r0, [r3, #0]
 195              	.L12:
 196 000c 7047     		bx	lr
 197              	.L15:
 198 000e 00BF     		.align	2
 199              	.L14:
 200 0010 00000000 		.word	.LANCHOR0
 201              		.cfi_endproc
 202              	.LFE120:
 203              		.size	lightRight, .-lightRight
 204 0014 AFF30080 		.section	.text.lightLeft,"ax",%progbits
 204      AFF30080 
 204      AFF30080 
 205              		.align	2
 206              		.p2align 4,,15
 207              		.global	lightLeft
 208              		.thumb
 209              		.thumb_func
 210              		.type	lightLeft, %function
 211              	lightLeft:
 212              	.LFB121:
 213              		.loc 1 84 0
 214              		.cfi_startproc
 215              		@ args = 0, pretend = 0, frame = 0
 216              		@ frame_needed = 0, uses_anonymous_args = 0
 217              		@ link register save eliminated.
 218              		.loc 1 85 0
 219 0000 034B     		ldr	r3, .L18
 220 0002 1A78     		ldrb	r2, [r3, #0]	@ zero_extendqisi2
 221 0004 042A     		cmp	r2, #4
ARM GAS  C:\Users\DNIEL~1\AppData\Local\Temp\cc4sotZz.s 			page 5


 222 0006 01D1     		bne	.L16
 223              		.loc 1 86 0
 224 0008 0120     		movs	r0, #1
 225 000a 1870     		strb	r0, [r3, #0]
 226              	.L16:
 227 000c 7047     		bx	lr
 228              	.L19:
 229 000e 00BF     		.align	2
 230              	.L18:
 231 0010 00000000 		.word	.LANCHOR0
 232              		.cfi_endproc
 233              	.LFE121:
 234              		.size	lightLeft, .-lightLeft
 235 0014 AFF30080 		.section	.text.lightWarning,"ax",%progbits
 235      AFF30080 
 235      AFF30080 
 236              		.align	2
 237              		.p2align 4,,15
 238              		.global	lightWarning
 239              		.thumb
 240              		.thumb_func
 241              		.type	lightWarning, %function
 242              	lightWarning:
 243              	.LFB122:
 244              		.loc 1 90 0
 245              		.cfi_startproc
 246              		@ args = 0, pretend = 0, frame = 0
 247              		@ frame_needed = 0, uses_anonymous_args = 0
 248              		@ link register save eliminated.
 249              		.loc 1 91 0
 250 0000 034B     		ldr	r3, .L22
 251 0002 1A78     		ldrb	r2, [r3, #0]	@ zero_extendqisi2
 252 0004 042A     		cmp	r2, #4
 253 0006 01D1     		bne	.L20
 254              		.loc 1 92 0
 255 0008 0220     		movs	r0, #2
 256 000a 1870     		strb	r0, [r3, #0]
 257              	.L20:
 258 000c 7047     		bx	lr
 259              	.L23:
 260 000e 00BF     		.align	2
 261              	.L22:
 262 0010 00000000 		.word	.LANCHOR0
 263              		.cfi_endproc
 264              	.LFE122:
 265              		.size	lightWarning, .-lightWarning
 266 0014 AFF30080 		.section	.text.lightInit,"ax",%progbits
 266      AFF30080 
 266      AFF30080 
 267              		.align	2
 268              		.p2align 4,,15
 269              		.global	lightInit
 270              		.thumb
 271              		.thumb_func
 272              		.type	lightInit, %function
 273              	lightInit:
 274              	.LFB123:
ARM GAS  C:\Users\DNIEL~1\AppData\Local\Temp\cc4sotZz.s 			page 6


 275              		.loc 1 96 0
 276              		.cfi_startproc
 277              		@ args = 0, pretend = 0, frame = 0
 278              		@ frame_needed = 0, uses_anonymous_args = 0
 279 0000 08B5     		push	{r3, lr}
 280              	.LCFI1:
 281              		.cfi_def_cfa_offset 8
 282              		.loc 1 97 0
 283 0002 0548     		ldr	r0, .L25
 284 0004 0549     		ldr	r1, .L25+4
 285              		.cfi_offset 14, -4
 286              		.cfi_offset 3, -8
 287 0006 FFF7FEFF 		bl	pwmStart
 288              		.loc 1 98 0
 289 000a 0549     		ldr	r1, .L25+8
 290              		.loc 1 99 0
 291 000c 054B     		ldr	r3, .L25+12
 292              		.loc 1 98 0
 293 000e 0420     		movs	r0, #4
 294              		.loc 1 99 0
 295 0010 0022     		movs	r2, #0
 296              		.loc 1 98 0
 297 0012 0870     		strb	r0, [r1, #0]
 298              		.loc 1 99 0
 299 0014 1A60     		str	r2, [r3, #0]
 300              		.loc 1 100 0
 301 0016 08BD     		pop	{r3, pc}
 302              	.L26:
 303              		.align	2
 304              	.L25:
 305 0018 00000000 		.word	PWMD1
 306 001c 00000000 		.word	.LANCHOR2
 307 0020 00000000 		.word	.LANCHOR0
 308 0024 00000000 		.word	.LANCHOR1
 309              		.cfi_endproc
 310              	.LFE123:
 311              		.size	lightInit, .-lightInit
 312 0028 AFF30080 		.section	.data.pwmcfg,"aw",%progbits
 312      AFF30080 
 313              		.align	2
 314              		.set	.LANCHOR2,. + 0
 315              		.type	pwmcfg, %object
 316              		.size	pwmcfg, 52
 317              	pwmcfg:
 318 0000 40420F00 		.word	1000000
 319 0004 E803     		.short	1000
 320 0006 0000     		.space	2
 321 0008 00000000 		.word	0
 322 000c 01000000 		.word	1
 323 0010 00000000 		.word	0
 324 0014 01000000 		.word	1
 325 0018 00000000 		.word	0
 326 001c 01000000 		.word	1
 327 0020 00000000 		.word	0
 328 0024 00000000 		.word	0
 329 0028 00000000 		.word	0
 330 002c 00000000 		.word	0
ARM GAS  C:\Users\DNIEL~1\AppData\Local\Temp\cc4sotZz.s 			page 7


 331 0030 00000000 		.space	4
 332              		.section	.bss.lightState,"aw",%nobits
 333              		.set	.LANCHOR0,. + 0
 334              		.type	lightState, %object
 335              		.size	lightState, 1
 336              	lightState:
 337 0000 00       		.space	1
 338              		.section	.bss.period_num,"aw",%nobits
 339              		.align	2
 340              		.set	.LANCHOR1,. + 0
 341              		.type	period_num, %object
 342              		.size	period_num, 4
 343              	period_num:
 344 0000 00000000 		.space	4
 345              		.text
 346              	.Letext0:
 347              		.section	.debug_loc,"",%progbits
 348              	.Ldebug_loc0:
 349              	.LLST0:
 350 0000 00000000 		.4byte	.LFB119
 351 0004 02000000 		.4byte	.LCFI0
 352 0008 0200     		.2byte	0x2
 353 000a 7D       		.byte	0x7d
 354 000b 00       		.sleb128 0
 355 000c 02000000 		.4byte	.LCFI0
 356 0010 C8000000 		.4byte	.LFE119
 357 0014 0200     		.2byte	0x2
 358 0016 7D       		.byte	0x7d
 359 0017 10       		.sleb128 16
 360 0018 00000000 		.4byte	0x0
 361 001c 00000000 		.4byte	0x0
 362              	.LLST1:
 363 0020 00000000 		.4byte	.LFB123
 364 0024 02000000 		.4byte	.LCFI1
 365 0028 0200     		.2byte	0x2
 366 002a 7D       		.byte	0x7d
 367 002b 00       		.sleb128 0
 368 002c 02000000 		.4byte	.LCFI1
 369 0030 28000000 		.4byte	.LFE123
 370 0034 0200     		.2byte	0x2
 371 0036 7D       		.byte	0x7d
 372 0037 08       		.sleb128 8
 373 0038 00000000 		.4byte	0x0
 374 003c 00000000 		.4byte	0x0
 375              		.file 2 "c:\\program files (x86)\\codesourcery\\sourcery g++ lite\\bin\\../lib/gcc/arm-none-eabi/4
 376              		.file 3 "../../../Chibios/os/hal/platforms/STM32/GPIOv2/pal_lld.h"
 377              		.file 4 "../../../Chibios/os/hal/include/pwm.h"
 378              		.file 5 "../../../Chibios/os/hal/platforms/STM32/TIMv1/pwm_lld.h"
 379              		.file 6 "../../../Chibios/os/hal/platforms/STM32/TIMv1/stm32_tim.h"
 380              		.file 7 "../../../Chibios/os/ports/common/ARMCMx/CMSIS/include/core_cm4.h"
 381              		.section	.debug_info
 382 0000 94050000 		.4byte	0x594
 383 0004 0200     		.2byte	0x2
 384 0006 00000000 		.4byte	.Ldebug_abbrev0
 385 000a 04       		.byte	0x4
 386 000b 01       		.uleb128 0x1
 387 000c 3C020000 		.4byte	.LASF73
ARM GAS  C:\Users\DNIEL~1\AppData\Local\Temp\cc4sotZz.s 			page 8


 388 0010 01       		.byte	0x1
 389 0011 00020000 		.4byte	.LASF74
 390 0015 A3020000 		.4byte	.LASF75
 391 0019 00000000 		.4byte	0x0
 392 001d 00000000 		.4byte	0x0
 393 0021 00000000 		.4byte	.Ldebug_ranges0+0x0
 394 0025 00000000 		.4byte	.Ldebug_line0
 395 0029 02       		.uleb128 0x2
 396 002a 04       		.byte	0x4
 397 002b 05       		.byte	0x5
 398 002c 696E7400 		.ascii	"int\000"
 399 0030 03       		.uleb128 0x3
 400 0031 04       		.byte	0x4
 401 0032 07       		.byte	0x7
 402 0033 63010000 		.4byte	.LASF0
 403 0037 03       		.uleb128 0x3
 404 0038 01       		.byte	0x1
 405 0039 06       		.byte	0x6
 406 003a 29010000 		.4byte	.LASF1
 407 003e 03       		.uleb128 0x3
 408 003f 01       		.byte	0x1
 409 0040 08       		.byte	0x8
 410 0041 1B010000 		.4byte	.LASF2
 411 0045 03       		.uleb128 0x3
 412 0046 02       		.byte	0x2
 413 0047 05       		.byte	0x5
 414 0048 29000000 		.4byte	.LASF3
 415 004c 04       		.uleb128 0x4
 416 004d 70010000 		.4byte	.LASF5
 417 0051 02       		.byte	0x2
 418 0052 36       		.byte	0x36
 419 0053 57000000 		.4byte	0x57
 420 0057 03       		.uleb128 0x3
 421 0058 02       		.byte	0x2
 422 0059 07       		.byte	0x7
 423 005a A9010000 		.4byte	.LASF4
 424 005e 04       		.uleb128 0x4
 425 005f EB010000 		.4byte	.LASF6
 426 0063 02       		.byte	0x2
 427 0064 4F       		.byte	0x4f
 428 0065 69000000 		.4byte	0x69
 429 0069 03       		.uleb128 0x3
 430 006a 04       		.byte	0x4
 431 006b 05       		.byte	0x5
 432 006c B1000000 		.4byte	.LASF7
 433 0070 04       		.uleb128 0x4
 434 0071 4C010000 		.4byte	.LASF8
 435 0075 02       		.byte	0x2
 436 0076 50       		.byte	0x50
 437 0077 7B000000 		.4byte	0x7b
 438 007b 03       		.uleb128 0x3
 439 007c 04       		.byte	0x4
 440 007d 07       		.byte	0x7
 441 007e 1D020000 		.4byte	.LASF9
 442 0082 03       		.uleb128 0x3
 443 0083 08       		.byte	0x8
 444 0084 05       		.byte	0x5
ARM GAS  C:\Users\DNIEL~1\AppData\Local\Temp\cc4sotZz.s 			page 9


 445 0085 97000000 		.4byte	.LASF10
 446 0089 03       		.uleb128 0x3
 447 008a 08       		.byte	0x8
 448 008b 07       		.byte	0x7
 449 008c 35010000 		.4byte	.LASF11
 450 0090 03       		.uleb128 0x3
 451 0091 01       		.byte	0x1
 452 0092 02       		.byte	0x2
 453 0093 F3010000 		.4byte	.LASF12
 454 0097 05       		.uleb128 0x5
 455 0098 70000000 		.4byte	0x70
 456 009c 03       		.uleb128 0x3
 457 009d 01       		.byte	0x1
 458 009e 08       		.byte	0x8
 459 009f D0010000 		.4byte	.LASF13
 460 00a3 06       		.uleb128 0x6
 461 00a4 70000000 		.4byte	0x70
 462 00a8 B3000000 		.4byte	0xb3
 463 00ac 07       		.uleb128 0x7
 464 00ad 30000000 		.4byte	0x30
 465 00b1 03       		.byte	0x3
 466 00b2 00       		.byte	0x0
 467 00b3 05       		.uleb128 0x5
 468 00b4 5E000000 		.4byte	0x5e
 469 00b8 08       		.uleb128 0x8
 470 00b9 04       		.byte	0x4
 471 00ba 03       		.byte	0x3
 472 00bb 96       		.byte	0x96
 473 00bc DD000000 		.4byte	0xdd
 474 00c0 09       		.uleb128 0x9
 475 00c1 73657400 		.ascii	"set\000"
 476 00c5 03       		.byte	0x3
 477 00c6 97       		.byte	0x97
 478 00c7 4C000000 		.4byte	0x4c
 479 00cb 02       		.byte	0x2
 480 00cc 23       		.byte	0x23
 481 00cd 00       		.uleb128 0x0
 482 00ce 0A       		.uleb128 0xa
 483 00cf D1000000 		.4byte	.LASF14
 484 00d3 03       		.byte	0x3
 485 00d4 98       		.byte	0x98
 486 00d5 4C000000 		.4byte	0x4c
 487 00d9 02       		.byte	0x2
 488 00da 23       		.byte	0x23
 489 00db 02       		.uleb128 0x2
 490 00dc 00       		.byte	0x0
 491 00dd 0B       		.uleb128 0xb
 492 00de 04       		.byte	0x4
 493 00df 03       		.byte	0x3
 494 00e0 94       		.byte	0x94
 495 00e1 F8000000 		.4byte	0xf8
 496 00e5 0C       		.uleb128 0xc
 497 00e6 5700     		.ascii	"W\000"
 498 00e8 03       		.byte	0x3
 499 00e9 95       		.byte	0x95
 500 00ea 70000000 		.4byte	0x70
 501 00ee 0C       		.uleb128 0xc
ARM GAS  C:\Users\DNIEL~1\AppData\Local\Temp\cc4sotZz.s 			page 10


 502 00ef 4800     		.ascii	"H\000"
 503 00f1 03       		.byte	0x3
 504 00f2 99       		.byte	0x99
 505 00f3 B8000000 		.4byte	0xb8
 506 00f7 00       		.byte	0x0
 507 00f8 08       		.uleb128 0x8
 508 00f9 28       		.byte	0x28
 509 00fa 03       		.byte	0x3
 510 00fb 8C       		.byte	0x8c
 511 00fc 8D010000 		.4byte	0x18d
 512 0100 0A       		.uleb128 0xa
 513 0101 CB000000 		.4byte	.LASF15
 514 0105 03       		.byte	0x3
 515 0106 8E       		.byte	0x8e
 516 0107 97000000 		.4byte	0x97
 517 010b 02       		.byte	0x2
 518 010c 23       		.byte	0x23
 519 010d 00       		.uleb128 0x0
 520 010e 0A       		.uleb128 0xa
 521 010f 75000000 		.4byte	.LASF16
 522 0113 03       		.byte	0x3
 523 0114 8F       		.byte	0x8f
 524 0115 97000000 		.4byte	0x97
 525 0119 02       		.byte	0x2
 526 011a 23       		.byte	0x23
 527 011b 04       		.uleb128 0x4
 528 011c 0A       		.uleb128 0xa
 529 011d 15020000 		.4byte	.LASF17
 530 0121 03       		.byte	0x3
 531 0122 90       		.byte	0x90
 532 0123 97000000 		.4byte	0x97
 533 0127 02       		.byte	0x2
 534 0128 23       		.byte	0x23
 535 0129 08       		.uleb128 0x8
 536 012a 0A       		.uleb128 0xa
 537 012b 90010000 		.4byte	.LASF18
 538 012f 03       		.byte	0x3
 539 0130 91       		.byte	0x91
 540 0131 97000000 		.4byte	0x97
 541 0135 02       		.byte	0x2
 542 0136 23       		.byte	0x23
 543 0137 0C       		.uleb128 0xc
 544 0138 09       		.uleb128 0x9
 545 0139 49445200 		.ascii	"IDR\000"
 546 013d 03       		.byte	0x3
 547 013e 92       		.byte	0x92
 548 013f 97000000 		.4byte	0x97
 549 0143 02       		.byte	0x2
 550 0144 23       		.byte	0x23
 551 0145 10       		.uleb128 0x10
 552 0146 09       		.uleb128 0x9
 553 0147 4F445200 		.ascii	"ODR\000"
 554 014b 03       		.byte	0x3
 555 014c 93       		.byte	0x93
 556 014d 97000000 		.4byte	0x97
 557 0151 02       		.byte	0x2
 558 0152 23       		.byte	0x23
ARM GAS  C:\Users\DNIEL~1\AppData\Local\Temp\cc4sotZz.s 			page 11


 559 0153 14       		.uleb128 0x14
 560 0154 0A       		.uleb128 0xa
 561 0155 51000000 		.4byte	.LASF19
 562 0159 03       		.byte	0x3
 563 015a 9A       		.byte	0x9a
 564 015b 8D010000 		.4byte	0x18d
 565 015f 02       		.byte	0x2
 566 0160 23       		.byte	0x23
 567 0161 18       		.uleb128 0x18
 568 0162 0A       		.uleb128 0xa
 569 0163 E4020000 		.4byte	.LASF20
 570 0167 03       		.byte	0x3
 571 0168 9B       		.byte	0x9b
 572 0169 97000000 		.4byte	0x97
 573 016d 02       		.byte	0x2
 574 016e 23       		.byte	0x23
 575 016f 1C       		.uleb128 0x1c
 576 0170 0A       		.uleb128 0xa
 577 0171 A4010000 		.4byte	.LASF21
 578 0175 03       		.byte	0x3
 579 0176 9C       		.byte	0x9c
 580 0177 97000000 		.4byte	0x97
 581 017b 02       		.byte	0x2
 582 017c 23       		.byte	0x23
 583 017d 20       		.uleb128 0x20
 584 017e 0A       		.uleb128 0xa
 585 017f 3C000000 		.4byte	.LASF22
 586 0183 03       		.byte	0x3
 587 0184 9D       		.byte	0x9d
 588 0185 97000000 		.4byte	0x97
 589 0189 02       		.byte	0x2
 590 018a 23       		.byte	0x23
 591 018b 24       		.uleb128 0x24
 592 018c 00       		.byte	0x0
 593 018d 05       		.uleb128 0x5
 594 018e DD000000 		.4byte	0xdd
 595 0192 04       		.uleb128 0x4
 596 0193 00000000 		.4byte	.LASF23
 597 0197 03       		.byte	0x3
 598 0198 9E       		.byte	0x9e
 599 0199 F8000000 		.4byte	0xf8
 600 019d 04       		.uleb128 0x4
 601 019e 68000000 		.4byte	.LASF24
 602 01a2 03       		.byte	0x3
 603 01a3 F0       		.byte	0xf0
 604 01a4 70000000 		.4byte	0x70
 605 01a8 0D       		.uleb128 0xd
 606 01a9 01       		.byte	0x1
 607 01aa 04       		.byte	0x4
 608 01ab 55       		.byte	0x55
 609 01ac C3010000 		.4byte	0x1c3
 610 01b0 0E       		.uleb128 0xe
 611 01b1 10010000 		.4byte	.LASF25
 612 01b5 00       		.sleb128 0
 613 01b6 0E       		.uleb128 0xe
 614 01b7 52020000 		.4byte	.LASF26
 615 01bb 01       		.sleb128 1
ARM GAS  C:\Users\DNIEL~1\AppData\Local\Temp\cc4sotZz.s 			page 12


 616 01bc 0E       		.uleb128 0xe
 617 01bd 48020000 		.4byte	.LASF27
 618 01c1 02       		.sleb128 2
 619 01c2 00       		.byte	0x0
 620 01c3 04       		.uleb128 0x4
 621 01c4 D9020000 		.4byte	.LASF28
 622 01c8 04       		.byte	0x4
 623 01c9 59       		.byte	0x59
 624 01ca A8010000 		.4byte	0x1a8
 625 01ce 04       		.uleb128 0x4
 626 01cf E1010000 		.4byte	.LASF29
 627 01d3 04       		.byte	0x4
 628 01d4 5E       		.byte	0x5e
 629 01d5 D9010000 		.4byte	0x1d9
 630 01d9 0F       		.uleb128 0xf
 631 01da E1010000 		.4byte	.LASF29
 632 01de 14       		.byte	0x14
 633 01df 05       		.byte	0x5
 634 01e0 6F01     		.2byte	0x16f
 635 01e2 32020000 		.4byte	0x232
 636 01e6 10       		.uleb128 0x10
 637 01e7 17000000 		.4byte	.LASF30
 638 01eb 05       		.byte	0x5
 639 01ec 7301     		.2byte	0x173
 640 01ee C3010000 		.4byte	0x1c3
 641 01f2 02       		.byte	0x2
 642 01f3 23       		.byte	0x23
 643 01f4 00       		.uleb128 0x0
 644 01f5 10       		.uleb128 0x10
 645 01f6 56000000 		.4byte	.LASF31
 646 01fa 05       		.byte	0x5
 647 01fb 7701     		.2byte	0x177
 648 01fd 75040000 		.4byte	0x475
 649 0201 02       		.byte	0x2
 650 0202 23       		.byte	0x23
 651 0203 04       		.uleb128 0x4
 652 0204 10       		.uleb128 0x10
 653 0205 C4000000 		.4byte	.LASF32
 654 0209 05       		.byte	0x5
 655 020a 7B01     		.2byte	0x17b
 656 020c B5030000 		.4byte	0x3b5
 657 0210 02       		.byte	0x2
 658 0211 23       		.byte	0x23
 659 0212 08       		.uleb128 0x8
 660 0213 10       		.uleb128 0x10
 661 0214 2F020000 		.4byte	.LASF33
 662 0218 05       		.byte	0x5
 663 0219 8301     		.2byte	0x183
 664 021b 70000000 		.4byte	0x70
 665 021f 02       		.byte	0x2
 666 0220 23       		.byte	0x23
 667 0221 0C       		.uleb128 0xc
 668 0222 11       		.uleb128 0x11
 669 0223 74696D00 		.ascii	"tim\000"
 670 0227 05       		.byte	0x5
 671 0228 8701     		.2byte	0x187
 672 022a 80040000 		.4byte	0x480
ARM GAS  C:\Users\DNIEL~1\AppData\Local\Temp\cc4sotZz.s 			page 13


 673 022e 02       		.byte	0x2
 674 022f 23       		.byte	0x23
 675 0230 10       		.uleb128 0x10
 676 0231 00       		.byte	0x0
 677 0232 04       		.uleb128 0x4
 678 0233 96010000 		.4byte	.LASF34
 679 0237 04       		.byte	0x4
 680 0238 65       		.byte	0x65
 681 0239 3D020000 		.4byte	0x23d
 682 023d 12       		.uleb128 0x12
 683 023e 04       		.byte	0x4
 684 023f 43020000 		.4byte	0x243
 685 0243 13       		.uleb128 0x13
 686 0244 01       		.byte	0x1
 687 0245 4F020000 		.4byte	0x24f
 688 0249 14       		.uleb128 0x14
 689 024a 4F020000 		.4byte	0x24f
 690 024e 00       		.byte	0x0
 691 024f 12       		.uleb128 0x12
 692 0250 04       		.byte	0x4
 693 0251 CE010000 		.4byte	0x1ce
 694 0255 15       		.uleb128 0x15
 695 0256 60       		.byte	0x60
 696 0257 06       		.byte	0x6
 697 0258 9E01     		.2byte	0x19e
 698 025a 98030000 		.4byte	0x398
 699 025e 11       		.uleb128 0x11
 700 025f 43523100 		.ascii	"CR1\000"
 701 0263 06       		.byte	0x6
 702 0264 9F01     		.2byte	0x19f
 703 0266 97000000 		.4byte	0x97
 704 026a 02       		.byte	0x2
 705 026b 23       		.byte	0x23
 706 026c 00       		.uleb128 0x0
 707 026d 11       		.uleb128 0x11
 708 026e 43523200 		.ascii	"CR2\000"
 709 0272 06       		.byte	0x6
 710 0273 A001     		.2byte	0x1a0
 711 0275 97000000 		.4byte	0x97
 712 0279 02       		.byte	0x2
 713 027a 23       		.byte	0x23
 714 027b 04       		.uleb128 0x4
 715 027c 10       		.uleb128 0x10
 716 027d 0B010000 		.4byte	.LASF35
 717 0281 06       		.byte	0x6
 718 0282 A101     		.2byte	0x1a1
 719 0284 97000000 		.4byte	0x97
 720 0288 02       		.byte	0x2
 721 0289 23       		.byte	0x23
 722 028a 08       		.uleb128 0x8
 723 028b 10       		.uleb128 0x10
 724 028c 7E010000 		.4byte	.LASF36
 725 0290 06       		.byte	0x6
 726 0291 A201     		.2byte	0x1a2
 727 0293 97000000 		.4byte	0x97
 728 0297 02       		.byte	0x2
 729 0298 23       		.byte	0x23
ARM GAS  C:\Users\DNIEL~1\AppData\Local\Temp\cc4sotZz.s 			page 14


 730 0299 0C       		.uleb128 0xc
 731 029a 11       		.uleb128 0x11
 732 029b 535200   		.ascii	"SR\000"
 733 029e 06       		.byte	0x6
 734 029f A301     		.2byte	0x1a3
 735 02a1 97000000 		.4byte	0x97
 736 02a5 02       		.byte	0x2
 737 02a6 23       		.byte	0x23
 738 02a7 10       		.uleb128 0x10
 739 02a8 11       		.uleb128 0x11
 740 02a9 45475200 		.ascii	"EGR\000"
 741 02ad 06       		.byte	0x6
 742 02ae A401     		.2byte	0x1a4
 743 02b0 97000000 		.4byte	0x97
 744 02b4 02       		.byte	0x2
 745 02b5 23       		.byte	0x23
 746 02b6 14       		.uleb128 0x14
 747 02b7 10       		.uleb128 0x10
 748 02b8 D7000000 		.4byte	.LASF37
 749 02bc 06       		.byte	0x6
 750 02bd A501     		.2byte	0x1a5
 751 02bf 97000000 		.4byte	0x97
 752 02c3 02       		.byte	0x2
 753 02c4 23       		.byte	0x23
 754 02c5 18       		.uleb128 0x18
 755 02c6 10       		.uleb128 0x10
 756 02c7 1D000000 		.4byte	.LASF38
 757 02cb 06       		.byte	0x6
 758 02cc A601     		.2byte	0x1a6
 759 02ce 97000000 		.4byte	0x97
 760 02d2 02       		.byte	0x2
 761 02d3 23       		.byte	0x23
 762 02d4 1C       		.uleb128 0x1c
 763 02d5 10       		.uleb128 0x10
 764 02d6 0D000000 		.4byte	.LASF39
 765 02da 06       		.byte	0x6
 766 02db A701     		.2byte	0x1a7
 767 02dd 97000000 		.4byte	0x97
 768 02e1 02       		.byte	0x2
 769 02e2 23       		.byte	0x23
 770 02e3 20       		.uleb128 0x20
 771 02e4 11       		.uleb128 0x11
 772 02e5 434E5400 		.ascii	"CNT\000"
 773 02e9 06       		.byte	0x6
 774 02ea A801     		.2byte	0x1a8
 775 02ec 97000000 		.4byte	0x97
 776 02f0 02       		.byte	0x2
 777 02f1 23       		.byte	0x23
 778 02f2 24       		.uleb128 0x24
 779 02f3 11       		.uleb128 0x11
 780 02f4 50534300 		.ascii	"PSC\000"
 781 02f8 06       		.byte	0x6
 782 02f9 A901     		.2byte	0x1a9
 783 02fb 97000000 		.4byte	0x97
 784 02ff 02       		.byte	0x2
 785 0300 23       		.byte	0x23
 786 0301 28       		.uleb128 0x28
ARM GAS  C:\Users\DNIEL~1\AppData\Local\Temp\cc4sotZz.s 			page 15


 787 0302 11       		.uleb128 0x11
 788 0303 41525200 		.ascii	"ARR\000"
 789 0307 06       		.byte	0x6
 790 0308 AA01     		.2byte	0x1aa
 791 030a 97000000 		.4byte	0x97
 792 030e 02       		.byte	0x2
 793 030f 23       		.byte	0x23
 794 0310 2C       		.uleb128 0x2c
 795 0311 11       		.uleb128 0x11
 796 0312 52435200 		.ascii	"RCR\000"
 797 0316 06       		.byte	0x6
 798 0317 AB01     		.2byte	0x1ab
 799 0319 97000000 		.4byte	0x97
 800 031d 02       		.byte	0x2
 801 031e 23       		.byte	0x23
 802 031f 30       		.uleb128 0x30
 803 0320 11       		.uleb128 0x11
 804 0321 43435200 		.ascii	"CCR\000"
 805 0325 06       		.byte	0x6
 806 0326 AC01     		.2byte	0x1ac
 807 0328 98030000 		.4byte	0x398
 808 032c 02       		.byte	0x2
 809 032d 23       		.byte	0x23
 810 032e 34       		.uleb128 0x34
 811 032f 10       		.uleb128 0x10
 812 0330 79010000 		.4byte	.LASF40
 813 0334 06       		.byte	0x6
 814 0335 AD01     		.2byte	0x1ad
 815 0337 97000000 		.4byte	0x97
 816 033b 02       		.byte	0x2
 817 033c 23       		.byte	0x23
 818 033d 44       		.uleb128 0x44
 819 033e 11       		.uleb128 0x11
 820 033f 44435200 		.ascii	"DCR\000"
 821 0343 06       		.byte	0x6
 822 0344 AE01     		.2byte	0x1ae
 823 0346 97000000 		.4byte	0x97
 824 034a 02       		.byte	0x2
 825 034b 23       		.byte	0x23
 826 034c 48       		.uleb128 0x48
 827 034d 10       		.uleb128 0x10
 828 034e 12000000 		.4byte	.LASF41
 829 0352 06       		.byte	0x6
 830 0353 AF01     		.2byte	0x1af
 831 0355 97000000 		.4byte	0x97
 832 0359 02       		.byte	0x2
 833 035a 23       		.byte	0x23
 834 035b 4C       		.uleb128 0x4c
 835 035c 11       		.uleb128 0x11
 836 035d 4F5200   		.ascii	"OR\000"
 837 0360 06       		.byte	0x6
 838 0361 B001     		.2byte	0x1b0
 839 0363 97000000 		.4byte	0x97
 840 0367 02       		.byte	0x2
 841 0368 23       		.byte	0x23
 842 0369 50       		.uleb128 0x50
 843 036a 10       		.uleb128 0x10
ARM GAS  C:\Users\DNIEL~1\AppData\Local\Temp\cc4sotZz.s 			page 16


 844 036b 23000000 		.4byte	.LASF42
 845 036f 06       		.byte	0x6
 846 0370 B101     		.2byte	0x1b1
 847 0372 97000000 		.4byte	0x97
 848 0376 02       		.byte	0x2
 849 0377 23       		.byte	0x23
 850 0378 54       		.uleb128 0x54
 851 0379 10       		.uleb128 0x10
 852 037a BA000000 		.4byte	.LASF43
 853 037e 06       		.byte	0x6
 854 037f B201     		.2byte	0x1b2
 855 0381 97000000 		.4byte	0x97
 856 0385 02       		.byte	0x2
 857 0386 23       		.byte	0x23
 858 0387 58       		.uleb128 0x58
 859 0388 10       		.uleb128 0x10
 860 0389 BF000000 		.4byte	.LASF44
 861 038d 06       		.byte	0x6
 862 038e B301     		.2byte	0x1b3
 863 0390 97000000 		.4byte	0x97
 864 0394 02       		.byte	0x2
 865 0395 23       		.byte	0x23
 866 0396 5C       		.uleb128 0x5c
 867 0397 00       		.byte	0x0
 868 0398 05       		.uleb128 0x5
 869 0399 A3000000 		.4byte	0xa3
 870 039d 16       		.uleb128 0x16
 871 039e D5010000 		.4byte	.LASF45
 872 03a2 06       		.byte	0x6
 873 03a3 B401     		.2byte	0x1b4
 874 03a5 55020000 		.4byte	0x255
 875 03a9 16       		.uleb128 0x16
 876 03aa 8C020000 		.4byte	.LASF46
 877 03ae 05       		.byte	0x5
 878 03af 2001     		.2byte	0x120
 879 03b1 70000000 		.4byte	0x70
 880 03b5 16       		.uleb128 0x16
 881 03b6 33000000 		.4byte	.LASF47
 882 03ba 05       		.byte	0x5
 883 03bb 2A01     		.2byte	0x12a
 884 03bd 4C000000 		.4byte	0x4c
 885 03c1 15       		.uleb128 0x15
 886 03c2 08       		.byte	0x8
 887 03c3 05       		.byte	0x5
 888 03c4 2F01     		.2byte	0x12f
 889 03c6 E9030000 		.4byte	0x3e9
 890 03ca 10       		.uleb128 0x10
 891 03cb 41000000 		.4byte	.LASF48
 892 03cf 05       		.byte	0x5
 893 03d0 3301     		.2byte	0x133
 894 03d2 A9030000 		.4byte	0x3a9
 895 03d6 02       		.byte	0x2
 896 03d7 23       		.byte	0x23
 897 03d8 00       		.uleb128 0x0
 898 03d9 10       		.uleb128 0x10
 899 03da E9020000 		.4byte	.LASF49
 900 03de 05       		.byte	0x5
ARM GAS  C:\Users\DNIEL~1\AppData\Local\Temp\cc4sotZz.s 			page 17


 901 03df 3901     		.2byte	0x139
 902 03e1 32020000 		.4byte	0x232
 903 03e5 02       		.byte	0x2
 904 03e6 23       		.byte	0x23
 905 03e7 04       		.uleb128 0x4
 906 03e8 00       		.byte	0x0
 907 03e9 16       		.uleb128 0x16
 908 03ea 7B020000 		.4byte	.LASF50
 909 03ee 05       		.byte	0x5
 910 03ef 3B01     		.2byte	0x13b
 911 03f1 C1030000 		.4byte	0x3c1
 912 03f5 15       		.uleb128 0x15
 913 03f6 34       		.byte	0x34
 914 03f7 05       		.byte	0x5
 915 03f8 4001     		.2byte	0x140
 916 03fa 59040000 		.4byte	0x459
 917 03fe 10       		.uleb128 0x10
 918 03ff 6B020000 		.4byte	.LASF51
 919 0403 05       		.byte	0x5
 920 0404 4601     		.2byte	0x146
 921 0406 70000000 		.4byte	0x70
 922 040a 02       		.byte	0x2
 923 040b 23       		.byte	0x23
 924 040c 00       		.uleb128 0x0
 925 040d 10       		.uleb128 0x10
 926 040e C4000000 		.4byte	.LASF32
 927 0412 05       		.byte	0x5
 928 0413 4C01     		.2byte	0x14c
 929 0415 B5030000 		.4byte	0x3b5
 930 0419 02       		.byte	0x2
 931 041a 23       		.byte	0x23
 932 041b 04       		.uleb128 0x4
 933 041c 10       		.uleb128 0x10
 934 041d E9020000 		.4byte	.LASF49
 935 0421 05       		.byte	0x5
 936 0422 5201     		.2byte	0x152
 937 0424 32020000 		.4byte	0x232
 938 0428 02       		.byte	0x2
 939 0429 23       		.byte	0x23
 940 042a 08       		.uleb128 0x8
 941 042b 10       		.uleb128 0x10
 942 042c 0C020000 		.4byte	.LASF52
 943 0430 05       		.byte	0x5
 944 0431 5601     		.2byte	0x156
 945 0433 59040000 		.4byte	0x459
 946 0437 02       		.byte	0x2
 947 0438 23       		.byte	0x23
 948 0439 0C       		.uleb128 0xc
 949 043a 11       		.uleb128 0x11
 950 043b 63723200 		.ascii	"cr2\000"
 951 043f 05       		.byte	0x5
 952 0440 5C01     		.2byte	0x15c
 953 0442 70000000 		.4byte	0x70
 954 0446 02       		.byte	0x2
 955 0447 23       		.byte	0x23
 956 0448 2C       		.uleb128 0x2c
 957 0449 10       		.uleb128 0x10
ARM GAS  C:\Users\DNIEL~1\AppData\Local\Temp\cc4sotZz.s 			page 18


 958 044a 5B020000 		.4byte	.LASF53
 959 044e 05       		.byte	0x5
 960 044f 6901     		.2byte	0x169
 961 0451 70000000 		.4byte	0x70
 962 0455 02       		.byte	0x2
 963 0456 23       		.byte	0x23
 964 0457 30       		.uleb128 0x30
 965 0458 00       		.byte	0x0
 966 0459 06       		.uleb128 0x6
 967 045a E9030000 		.4byte	0x3e9
 968 045e 69040000 		.4byte	0x469
 969 0462 07       		.uleb128 0x7
 970 0463 30000000 		.4byte	0x30
 971 0467 03       		.byte	0x3
 972 0468 00       		.byte	0x0
 973 0469 16       		.uleb128 0x16
 974 046a DD000000 		.4byte	.LASF54
 975 046e 05       		.byte	0x5
 976 046f 6A01     		.2byte	0x16a
 977 0471 F5030000 		.4byte	0x3f5
 978 0475 12       		.uleb128 0x12
 979 0476 04       		.byte	0x4
 980 0477 7B040000 		.4byte	0x47b
 981 047b 17       		.uleb128 0x17
 982 047c 69040000 		.4byte	0x469
 983 0480 12       		.uleb128 0x12
 984 0481 04       		.byte	0x4
 985 0482 9D030000 		.4byte	0x39d
 986 0486 03       		.uleb128 0x3
 987 0487 08       		.byte	0x8
 988 0488 04       		.byte	0x4
 989 0489 35020000 		.4byte	.LASF55
 990 048d 03       		.uleb128 0x3
 991 048e 04       		.byte	0x4
 992 048f 04       		.byte	0x4
 993 0490 86000000 		.4byte	.LASF56
 994 0494 03       		.uleb128 0x3
 995 0495 08       		.byte	0x8
 996 0496 04       		.byte	0x4
 997 0497 FF000000 		.4byte	.LASF57
 998 049b 18       		.uleb128 0x18
 999 049c F2020000 		.4byte	.LASF76
 1000 04a0 01       		.byte	0x1
 1001 04a1 01       		.byte	0x1
 1002 04a2 0F       		.byte	0xf
 1003 04a3 C6040000 		.4byte	0x4c6
 1004 04a7 0E       		.uleb128 0xe
 1005 04a8 A5000000 		.4byte	.LASF58
 1006 04ac 00       		.sleb128 0
 1007 04ad 0E       		.uleb128 0xe
 1008 04ae 8C000000 		.4byte	.LASF59
 1009 04b2 01       		.sleb128 1
 1010 04b3 0E       		.uleb128 0xe
 1011 04b4 55010000 		.4byte	.LASF60
 1012 04b8 02       		.sleb128 2
 1013 04b9 0E       		.uleb128 0xe
 1014 04ba F2000000 		.4byte	.LASF61
ARM GAS  C:\Users\DNIEL~1\AppData\Local\Temp\cc4sotZz.s 			page 19


 1015 04be 03       		.sleb128 3
 1016 04bf 0E       		.uleb128 0xe
 1017 04c0 E7000000 		.4byte	.LASF62
 1018 04c4 04       		.sleb128 4
 1019 04c5 00       		.byte	0x0
 1020 04c6 19       		.uleb128 0x19
 1021 04c7 01       		.byte	0x1
 1022 04c8 7C000000 		.4byte	.LASF63
 1023 04cc 01       		.byte	0x1
 1024 04cd 27       		.byte	0x27
 1025 04ce 01       		.byte	0x1
 1026 04cf 00000000 		.4byte	.LFB119
 1027 04d3 C8000000 		.4byte	.LFE119
 1028 04d7 00000000 		.4byte	.LLST0
 1029 04db 1A       		.uleb128 0x1a
 1030 04dc 01       		.byte	0x1
 1031 04dd 46000000 		.4byte	.LASF64
 1032 04e1 01       		.byte	0x1
 1033 04e2 4E       		.byte	0x4e
 1034 04e3 01       		.byte	0x1
 1035 04e4 00000000 		.4byte	.LFB120
 1036 04e8 14000000 		.4byte	.LFE120
 1037 04ec 02       		.byte	0x2
 1038 04ed 7D       		.byte	0x7d
 1039 04ee 00       		.sleb128 0
 1040 04ef 1A       		.uleb128 0x1a
 1041 04f0 01       		.byte	0x1
 1042 04f1 C6010000 		.4byte	.LASF65
 1043 04f5 01       		.byte	0x1
 1044 04f6 54       		.byte	0x54
 1045 04f7 01       		.byte	0x1
 1046 04f8 00000000 		.4byte	.LFB121
 1047 04fc 14000000 		.4byte	.LFE121
 1048 0500 02       		.byte	0x2
 1049 0501 7D       		.byte	0x7d
 1050 0502 00       		.sleb128 0
 1051 0503 1A       		.uleb128 0x1a
 1052 0504 01       		.byte	0x1
 1053 0505 83010000 		.4byte	.LASF66
 1054 0509 01       		.byte	0x1
 1055 050a 5A       		.byte	0x5a
 1056 050b 01       		.byte	0x1
 1057 050c 00000000 		.4byte	.LFB122
 1058 0510 14000000 		.4byte	.LFE122
 1059 0514 02       		.byte	0x2
 1060 0515 7D       		.byte	0x7d
 1061 0516 00       		.sleb128 0
 1062 0517 19       		.uleb128 0x19
 1063 0518 01       		.byte	0x1
 1064 0519 BC010000 		.4byte	.LASF67
 1065 051d 01       		.byte	0x1
 1066 051e 60       		.byte	0x60
 1067 051f 01       		.byte	0x1
 1068 0520 00000000 		.4byte	.LFB123
 1069 0524 28000000 		.4byte	.LFE123
 1070 0528 20000000 		.4byte	.LLST1
 1071 052c 1B       		.uleb128 0x1b
ARM GAS  C:\Users\DNIEL~1\AppData\Local\Temp\cc4sotZz.s 			page 20


 1072 052d 96020000 		.4byte	.LASF68
 1073 0531 07       		.byte	0x7
 1074 0532 9806     		.2byte	0x698
 1075 0534 B3000000 		.4byte	0xb3
 1076 0538 01       		.byte	0x1
 1077 0539 01       		.byte	0x1
 1078 053a 1B       		.uleb128 0x1b
 1079 053b 75020000 		.4byte	.LASF69
 1080 053f 05       		.byte	0x5
 1081 0540 B301     		.2byte	0x1b3
 1082 0542 CE010000 		.4byte	0x1ce
 1083 0546 01       		.byte	0x1
 1084 0547 01       		.byte	0x1
 1085 0548 1C       		.uleb128 0x1c
 1086 0549 5D000000 		.4byte	.LASF70
 1087 054d 01       		.byte	0x1
 1088 054e 16       		.byte	0x16
 1089 054f 9B040000 		.4byte	0x49b
 1090 0553 05       		.byte	0x5
 1091 0554 03       		.byte	0x3
 1092 0555 00000000 		.4byte	lightState
 1093 0559 1C       		.uleb128 0x1c
 1094 055a F9010000 		.4byte	.LASF71
 1095 055e 01       		.byte	0x1
 1096 055f 18       		.byte	0x18
 1097 0560 69040000 		.4byte	0x469
 1098 0564 05       		.byte	0x5
 1099 0565 03       		.byte	0x3
 1100 0566 00000000 		.4byte	pwmcfg
 1101 056a 1C       		.uleb128 0x1c
 1102 056b 60020000 		.4byte	.LASF72
 1103 056f 01       		.byte	0x1
 1104 0570 25       		.byte	0x25
 1105 0571 29000000 		.4byte	0x29
 1106 0575 05       		.byte	0x5
 1107 0576 03       		.byte	0x3
 1108 0577 00000000 		.4byte	period_num
 1109 057b 1B       		.uleb128 0x1b
 1110 057c 96020000 		.4byte	.LASF68
 1111 0580 07       		.byte	0x7
 1112 0581 9806     		.2byte	0x698
 1113 0583 B3000000 		.4byte	0xb3
 1114 0587 01       		.byte	0x1
 1115 0588 01       		.byte	0x1
 1116 0589 1B       		.uleb128 0x1b
 1117 058a 75020000 		.4byte	.LASF69
 1118 058e 05       		.byte	0x5
 1119 058f B301     		.2byte	0x1b3
 1120 0591 CE010000 		.4byte	0x1ce
 1121 0595 01       		.byte	0x1
 1122 0596 01       		.byte	0x1
 1123 0597 00       		.byte	0x0
 1124              		.section	.debug_abbrev
 1125 0000 01       		.uleb128 0x1
 1126 0001 11       		.uleb128 0x11
 1127 0002 01       		.byte	0x1
 1128 0003 25       		.uleb128 0x25
ARM GAS  C:\Users\DNIEL~1\AppData\Local\Temp\cc4sotZz.s 			page 21


 1129 0004 0E       		.uleb128 0xe
 1130 0005 13       		.uleb128 0x13
 1131 0006 0B       		.uleb128 0xb
 1132 0007 03       		.uleb128 0x3
 1133 0008 0E       		.uleb128 0xe
 1134 0009 1B       		.uleb128 0x1b
 1135 000a 0E       		.uleb128 0xe
 1136 000b 11       		.uleb128 0x11
 1137 000c 01       		.uleb128 0x1
 1138 000d 52       		.uleb128 0x52
 1139 000e 01       		.uleb128 0x1
 1140 000f 55       		.uleb128 0x55
 1141 0010 06       		.uleb128 0x6
 1142 0011 10       		.uleb128 0x10
 1143 0012 06       		.uleb128 0x6
 1144 0013 00       		.byte	0x0
 1145 0014 00       		.byte	0x0
 1146 0015 02       		.uleb128 0x2
 1147 0016 24       		.uleb128 0x24
 1148 0017 00       		.byte	0x0
 1149 0018 0B       		.uleb128 0xb
 1150 0019 0B       		.uleb128 0xb
 1151 001a 3E       		.uleb128 0x3e
 1152 001b 0B       		.uleb128 0xb
 1153 001c 03       		.uleb128 0x3
 1154 001d 08       		.uleb128 0x8
 1155 001e 00       		.byte	0x0
 1156 001f 00       		.byte	0x0
 1157 0020 03       		.uleb128 0x3
 1158 0021 24       		.uleb128 0x24
 1159 0022 00       		.byte	0x0
 1160 0023 0B       		.uleb128 0xb
 1161 0024 0B       		.uleb128 0xb
 1162 0025 3E       		.uleb128 0x3e
 1163 0026 0B       		.uleb128 0xb
 1164 0027 03       		.uleb128 0x3
 1165 0028 0E       		.uleb128 0xe
 1166 0029 00       		.byte	0x0
 1167 002a 00       		.byte	0x0
 1168 002b 04       		.uleb128 0x4
 1169 002c 16       		.uleb128 0x16
 1170 002d 00       		.byte	0x0
 1171 002e 03       		.uleb128 0x3
 1172 002f 0E       		.uleb128 0xe
 1173 0030 3A       		.uleb128 0x3a
 1174 0031 0B       		.uleb128 0xb
 1175 0032 3B       		.uleb128 0x3b
 1176 0033 0B       		.uleb128 0xb
 1177 0034 49       		.uleb128 0x49
 1178 0035 13       		.uleb128 0x13
 1179 0036 00       		.byte	0x0
 1180 0037 00       		.byte	0x0
 1181 0038 05       		.uleb128 0x5
 1182 0039 35       		.uleb128 0x35
 1183 003a 00       		.byte	0x0
 1184 003b 49       		.uleb128 0x49
 1185 003c 13       		.uleb128 0x13
ARM GAS  C:\Users\DNIEL~1\AppData\Local\Temp\cc4sotZz.s 			page 22


 1186 003d 00       		.byte	0x0
 1187 003e 00       		.byte	0x0
 1188 003f 06       		.uleb128 0x6
 1189 0040 01       		.uleb128 0x1
 1190 0041 01       		.byte	0x1
 1191 0042 49       		.uleb128 0x49
 1192 0043 13       		.uleb128 0x13
 1193 0044 01       		.uleb128 0x1
 1194 0045 13       		.uleb128 0x13
 1195 0046 00       		.byte	0x0
 1196 0047 00       		.byte	0x0
 1197 0048 07       		.uleb128 0x7
 1198 0049 21       		.uleb128 0x21
 1199 004a 00       		.byte	0x0
 1200 004b 49       		.uleb128 0x49
 1201 004c 13       		.uleb128 0x13
 1202 004d 2F       		.uleb128 0x2f
 1203 004e 0B       		.uleb128 0xb
 1204 004f 00       		.byte	0x0
 1205 0050 00       		.byte	0x0
 1206 0051 08       		.uleb128 0x8
 1207 0052 13       		.uleb128 0x13
 1208 0053 01       		.byte	0x1
 1209 0054 0B       		.uleb128 0xb
 1210 0055 0B       		.uleb128 0xb
 1211 0056 3A       		.uleb128 0x3a
 1212 0057 0B       		.uleb128 0xb
 1213 0058 3B       		.uleb128 0x3b
 1214 0059 0B       		.uleb128 0xb
 1215 005a 01       		.uleb128 0x1
 1216 005b 13       		.uleb128 0x13
 1217 005c 00       		.byte	0x0
 1218 005d 00       		.byte	0x0
 1219 005e 09       		.uleb128 0x9
 1220 005f 0D       		.uleb128 0xd
 1221 0060 00       		.byte	0x0
 1222 0061 03       		.uleb128 0x3
 1223 0062 08       		.uleb128 0x8
 1224 0063 3A       		.uleb128 0x3a
 1225 0064 0B       		.uleb128 0xb
 1226 0065 3B       		.uleb128 0x3b
 1227 0066 0B       		.uleb128 0xb
 1228 0067 49       		.uleb128 0x49
 1229 0068 13       		.uleb128 0x13
 1230 0069 38       		.uleb128 0x38
 1231 006a 0A       		.uleb128 0xa
 1232 006b 00       		.byte	0x0
 1233 006c 00       		.byte	0x0
 1234 006d 0A       		.uleb128 0xa
 1235 006e 0D       		.uleb128 0xd
 1236 006f 00       		.byte	0x0
 1237 0070 03       		.uleb128 0x3
 1238 0071 0E       		.uleb128 0xe
 1239 0072 3A       		.uleb128 0x3a
 1240 0073 0B       		.uleb128 0xb
 1241 0074 3B       		.uleb128 0x3b
 1242 0075 0B       		.uleb128 0xb
ARM GAS  C:\Users\DNIEL~1\AppData\Local\Temp\cc4sotZz.s 			page 23


 1243 0076 49       		.uleb128 0x49
 1244 0077 13       		.uleb128 0x13
 1245 0078 38       		.uleb128 0x38
 1246 0079 0A       		.uleb128 0xa
 1247 007a 00       		.byte	0x0
 1248 007b 00       		.byte	0x0
 1249 007c 0B       		.uleb128 0xb
 1250 007d 17       		.uleb128 0x17
 1251 007e 01       		.byte	0x1
 1252 007f 0B       		.uleb128 0xb
 1253 0080 0B       		.uleb128 0xb
 1254 0081 3A       		.uleb128 0x3a
 1255 0082 0B       		.uleb128 0xb
 1256 0083 3B       		.uleb128 0x3b
 1257 0084 0B       		.uleb128 0xb
 1258 0085 01       		.uleb128 0x1
 1259 0086 13       		.uleb128 0x13
 1260 0087 00       		.byte	0x0
 1261 0088 00       		.byte	0x0
 1262 0089 0C       		.uleb128 0xc
 1263 008a 0D       		.uleb128 0xd
 1264 008b 00       		.byte	0x0
 1265 008c 03       		.uleb128 0x3
 1266 008d 08       		.uleb128 0x8
 1267 008e 3A       		.uleb128 0x3a
 1268 008f 0B       		.uleb128 0xb
 1269 0090 3B       		.uleb128 0x3b
 1270 0091 0B       		.uleb128 0xb
 1271 0092 49       		.uleb128 0x49
 1272 0093 13       		.uleb128 0x13
 1273 0094 00       		.byte	0x0
 1274 0095 00       		.byte	0x0
 1275 0096 0D       		.uleb128 0xd
 1276 0097 04       		.uleb128 0x4
 1277 0098 01       		.byte	0x1
 1278 0099 0B       		.uleb128 0xb
 1279 009a 0B       		.uleb128 0xb
 1280 009b 3A       		.uleb128 0x3a
 1281 009c 0B       		.uleb128 0xb
 1282 009d 3B       		.uleb128 0x3b
 1283 009e 0B       		.uleb128 0xb
 1284 009f 01       		.uleb128 0x1
 1285 00a0 13       		.uleb128 0x13
 1286 00a1 00       		.byte	0x0
 1287 00a2 00       		.byte	0x0
 1288 00a3 0E       		.uleb128 0xe
 1289 00a4 28       		.uleb128 0x28
 1290 00a5 00       		.byte	0x0
 1291 00a6 03       		.uleb128 0x3
 1292 00a7 0E       		.uleb128 0xe
 1293 00a8 1C       		.uleb128 0x1c
 1294 00a9 0D       		.uleb128 0xd
 1295 00aa 00       		.byte	0x0
 1296 00ab 00       		.byte	0x0
 1297 00ac 0F       		.uleb128 0xf
 1298 00ad 13       		.uleb128 0x13
 1299 00ae 01       		.byte	0x1
ARM GAS  C:\Users\DNIEL~1\AppData\Local\Temp\cc4sotZz.s 			page 24


 1300 00af 03       		.uleb128 0x3
 1301 00b0 0E       		.uleb128 0xe
 1302 00b1 0B       		.uleb128 0xb
 1303 00b2 0B       		.uleb128 0xb
 1304 00b3 3A       		.uleb128 0x3a
 1305 00b4 0B       		.uleb128 0xb
 1306 00b5 3B       		.uleb128 0x3b
 1307 00b6 05       		.uleb128 0x5
 1308 00b7 01       		.uleb128 0x1
 1309 00b8 13       		.uleb128 0x13
 1310 00b9 00       		.byte	0x0
 1311 00ba 00       		.byte	0x0
 1312 00bb 10       		.uleb128 0x10
 1313 00bc 0D       		.uleb128 0xd
 1314 00bd 00       		.byte	0x0
 1315 00be 03       		.uleb128 0x3
 1316 00bf 0E       		.uleb128 0xe
 1317 00c0 3A       		.uleb128 0x3a
 1318 00c1 0B       		.uleb128 0xb
 1319 00c2 3B       		.uleb128 0x3b
 1320 00c3 05       		.uleb128 0x5
 1321 00c4 49       		.uleb128 0x49
 1322 00c5 13       		.uleb128 0x13
 1323 00c6 38       		.uleb128 0x38
 1324 00c7 0A       		.uleb128 0xa
 1325 00c8 00       		.byte	0x0
 1326 00c9 00       		.byte	0x0
 1327 00ca 11       		.uleb128 0x11
 1328 00cb 0D       		.uleb128 0xd
 1329 00cc 00       		.byte	0x0
 1330 00cd 03       		.uleb128 0x3
 1331 00ce 08       		.uleb128 0x8
 1332 00cf 3A       		.uleb128 0x3a
 1333 00d0 0B       		.uleb128 0xb
 1334 00d1 3B       		.uleb128 0x3b
 1335 00d2 05       		.uleb128 0x5
 1336 00d3 49       		.uleb128 0x49
 1337 00d4 13       		.uleb128 0x13
 1338 00d5 38       		.uleb128 0x38
 1339 00d6 0A       		.uleb128 0xa
 1340 00d7 00       		.byte	0x0
 1341 00d8 00       		.byte	0x0
 1342 00d9 12       		.uleb128 0x12
 1343 00da 0F       		.uleb128 0xf
 1344 00db 00       		.byte	0x0
 1345 00dc 0B       		.uleb128 0xb
 1346 00dd 0B       		.uleb128 0xb
 1347 00de 49       		.uleb128 0x49
 1348 00df 13       		.uleb128 0x13
 1349 00e0 00       		.byte	0x0
 1350 00e1 00       		.byte	0x0
 1351 00e2 13       		.uleb128 0x13
 1352 00e3 15       		.uleb128 0x15
 1353 00e4 01       		.byte	0x1
 1354 00e5 27       		.uleb128 0x27
 1355 00e6 0C       		.uleb128 0xc
 1356 00e7 01       		.uleb128 0x1
ARM GAS  C:\Users\DNIEL~1\AppData\Local\Temp\cc4sotZz.s 			page 25


 1357 00e8 13       		.uleb128 0x13
 1358 00e9 00       		.byte	0x0
 1359 00ea 00       		.byte	0x0
 1360 00eb 14       		.uleb128 0x14
 1361 00ec 05       		.uleb128 0x5
 1362 00ed 00       		.byte	0x0
 1363 00ee 49       		.uleb128 0x49
 1364 00ef 13       		.uleb128 0x13
 1365 00f0 00       		.byte	0x0
 1366 00f1 00       		.byte	0x0
 1367 00f2 15       		.uleb128 0x15
 1368 00f3 13       		.uleb128 0x13
 1369 00f4 01       		.byte	0x1
 1370 00f5 0B       		.uleb128 0xb
 1371 00f6 0B       		.uleb128 0xb
 1372 00f7 3A       		.uleb128 0x3a
 1373 00f8 0B       		.uleb128 0xb
 1374 00f9 3B       		.uleb128 0x3b
 1375 00fa 05       		.uleb128 0x5
 1376 00fb 01       		.uleb128 0x1
 1377 00fc 13       		.uleb128 0x13
 1378 00fd 00       		.byte	0x0
 1379 00fe 00       		.byte	0x0
 1380 00ff 16       		.uleb128 0x16
 1381 0100 16       		.uleb128 0x16
 1382 0101 00       		.byte	0x0
 1383 0102 03       		.uleb128 0x3
 1384 0103 0E       		.uleb128 0xe
 1385 0104 3A       		.uleb128 0x3a
 1386 0105 0B       		.uleb128 0xb
 1387 0106 3B       		.uleb128 0x3b
 1388 0107 05       		.uleb128 0x5
 1389 0108 49       		.uleb128 0x49
 1390 0109 13       		.uleb128 0x13
 1391 010a 00       		.byte	0x0
 1392 010b 00       		.byte	0x0
 1393 010c 17       		.uleb128 0x17
 1394 010d 26       		.uleb128 0x26
 1395 010e 00       		.byte	0x0
 1396 010f 49       		.uleb128 0x49
 1397 0110 13       		.uleb128 0x13
 1398 0111 00       		.byte	0x0
 1399 0112 00       		.byte	0x0
 1400 0113 18       		.uleb128 0x18
 1401 0114 04       		.uleb128 0x4
 1402 0115 01       		.byte	0x1
 1403 0116 03       		.uleb128 0x3
 1404 0117 0E       		.uleb128 0xe
 1405 0118 0B       		.uleb128 0xb
 1406 0119 0B       		.uleb128 0xb
 1407 011a 3A       		.uleb128 0x3a
 1408 011b 0B       		.uleb128 0xb
 1409 011c 3B       		.uleb128 0x3b
 1410 011d 0B       		.uleb128 0xb
 1411 011e 01       		.uleb128 0x1
 1412 011f 13       		.uleb128 0x13
 1413 0120 00       		.byte	0x0
ARM GAS  C:\Users\DNIEL~1\AppData\Local\Temp\cc4sotZz.s 			page 26


 1414 0121 00       		.byte	0x0
 1415 0122 19       		.uleb128 0x19
 1416 0123 2E       		.uleb128 0x2e
 1417 0124 00       		.byte	0x0
 1418 0125 3F       		.uleb128 0x3f
 1419 0126 0C       		.uleb128 0xc
 1420 0127 03       		.uleb128 0x3
 1421 0128 0E       		.uleb128 0xe
 1422 0129 3A       		.uleb128 0x3a
 1423 012a 0B       		.uleb128 0xb
 1424 012b 3B       		.uleb128 0x3b
 1425 012c 0B       		.uleb128 0xb
 1426 012d 27       		.uleb128 0x27
 1427 012e 0C       		.uleb128 0xc
 1428 012f 11       		.uleb128 0x11
 1429 0130 01       		.uleb128 0x1
 1430 0131 12       		.uleb128 0x12
 1431 0132 01       		.uleb128 0x1
 1432 0133 40       		.uleb128 0x40
 1433 0134 06       		.uleb128 0x6
 1434 0135 00       		.byte	0x0
 1435 0136 00       		.byte	0x0
 1436 0137 1A       		.uleb128 0x1a
 1437 0138 2E       		.uleb128 0x2e
 1438 0139 00       		.byte	0x0
 1439 013a 3F       		.uleb128 0x3f
 1440 013b 0C       		.uleb128 0xc
 1441 013c 03       		.uleb128 0x3
 1442 013d 0E       		.uleb128 0xe
 1443 013e 3A       		.uleb128 0x3a
 1444 013f 0B       		.uleb128 0xb
 1445 0140 3B       		.uleb128 0x3b
 1446 0141 0B       		.uleb128 0xb
 1447 0142 27       		.uleb128 0x27
 1448 0143 0C       		.uleb128 0xc
 1449 0144 11       		.uleb128 0x11
 1450 0145 01       		.uleb128 0x1
 1451 0146 12       		.uleb128 0x12
 1452 0147 01       		.uleb128 0x1
 1453 0148 40       		.uleb128 0x40
 1454 0149 0A       		.uleb128 0xa
 1455 014a 00       		.byte	0x0
 1456 014b 00       		.byte	0x0
 1457 014c 1B       		.uleb128 0x1b
 1458 014d 34       		.uleb128 0x34
 1459 014e 00       		.byte	0x0
 1460 014f 03       		.uleb128 0x3
 1461 0150 0E       		.uleb128 0xe
 1462 0151 3A       		.uleb128 0x3a
 1463 0152 0B       		.uleb128 0xb
 1464 0153 3B       		.uleb128 0x3b
 1465 0154 05       		.uleb128 0x5
 1466 0155 49       		.uleb128 0x49
 1467 0156 13       		.uleb128 0x13
 1468 0157 3F       		.uleb128 0x3f
 1469 0158 0C       		.uleb128 0xc
 1470 0159 3C       		.uleb128 0x3c
ARM GAS  C:\Users\DNIEL~1\AppData\Local\Temp\cc4sotZz.s 			page 27


 1471 015a 0C       		.uleb128 0xc
 1472 015b 00       		.byte	0x0
 1473 015c 00       		.byte	0x0
 1474 015d 1C       		.uleb128 0x1c
 1475 015e 34       		.uleb128 0x34
 1476 015f 00       		.byte	0x0
 1477 0160 03       		.uleb128 0x3
 1478 0161 0E       		.uleb128 0xe
 1479 0162 3A       		.uleb128 0x3a
 1480 0163 0B       		.uleb128 0xb
 1481 0164 3B       		.uleb128 0x3b
 1482 0165 0B       		.uleb128 0xb
 1483 0166 49       		.uleb128 0x49
 1484 0167 13       		.uleb128 0x13
 1485 0168 02       		.uleb128 0x2
 1486 0169 0A       		.uleb128 0xa
 1487 016a 00       		.byte	0x0
 1488 016b 00       		.byte	0x0
 1489 016c 00       		.byte	0x0
 1490              		.section	.debug_pubnames,"",%progbits
 1491 0000 58000000 		.4byte	0x58
 1492 0004 0200     		.2byte	0x2
 1493 0006 00000000 		.4byte	.Ldebug_info0
 1494 000a 98050000 		.4byte	0x598
 1495 000e C6040000 		.4byte	0x4c6
 1496 0012 6C696768 		.ascii	"lightCalc\000"
 1496      7443616C 
 1496      6300
 1497 001c DB040000 		.4byte	0x4db
 1498 0020 6C696768 		.ascii	"lightRight\000"
 1498      74526967 
 1498      687400
 1499 002b EF040000 		.4byte	0x4ef
 1500 002f 6C696768 		.ascii	"lightLeft\000"
 1500      744C6566 
 1500      7400
 1501 0039 03050000 		.4byte	0x503
 1502 003d 6C696768 		.ascii	"lightWarning\000"
 1502      74576172 
 1502      6E696E67 
 1502      00
 1503 004a 17050000 		.4byte	0x517
 1504 004e 6C696768 		.ascii	"lightInit\000"
 1504      74496E69 
 1504      7400
 1505 0058 00000000 		.4byte	0x0
 1506              		.section	.debug_pubtypes,"",%progbits
 1507 0000 F1000000 		.4byte	0xf1
 1508 0004 0200     		.2byte	0x2
 1509 0006 00000000 		.4byte	.Ldebug_info0
 1510 000a 98050000 		.4byte	0x598
 1511 000e 4C000000 		.4byte	0x4c
 1512 0012 75696E74 		.ascii	"uint16_t\000"
 1512      31365F74 
 1512      00
 1513 001b 5E000000 		.4byte	0x5e
 1514 001f 696E7433 		.ascii	"int32_t\000"
ARM GAS  C:\Users\DNIEL~1\AppData\Local\Temp\cc4sotZz.s 			page 28


 1514      325F7400 
 1515 0027 70000000 		.4byte	0x70
 1516 002b 75696E74 		.ascii	"uint32_t\000"
 1516      33325F74 
 1516      00
 1517 0034 92010000 		.4byte	0x192
 1518 0038 4750494F 		.ascii	"GPIO_TypeDef\000"
 1518      5F547970 
 1518      65446566 
 1518      00
 1519 0045 9D010000 		.4byte	0x19d
 1520 0049 696F706F 		.ascii	"ioportmask_t\000"
 1520      72746D61 
 1520      736B5F74 
 1520      00
 1521 0056 C3010000 		.4byte	0x1c3
 1522 005a 70776D73 		.ascii	"pwmstate_t\000"
 1522      74617465 
 1522      5F7400
 1523 0065 CE010000 		.4byte	0x1ce
 1524 0069 50574D44 		.ascii	"PWMDriver\000"
 1524      72697665 
 1524      7200
 1525 0073 32020000 		.4byte	0x232
 1526 0077 70776D63 		.ascii	"pwmcallback_t\000"
 1526      616C6C62 
 1526      61636B5F 
 1526      7400
 1527 0085 9D030000 		.4byte	0x39d
 1528 0089 73746D33 		.ascii	"stm32_tim_t\000"
 1528      325F7469 
 1528      6D5F7400 
 1529 0095 A9030000 		.4byte	0x3a9
 1530 0099 70776D6D 		.ascii	"pwmmode_t\000"
 1530      6F64655F 
 1530      7400
 1531 00a3 B5030000 		.4byte	0x3b5
 1532 00a7 70776D63 		.ascii	"pwmcnt_t\000"
 1532      6E745F74 
 1532      00
 1533 00b0 E9030000 		.4byte	0x3e9
 1534 00b4 50574D43 		.ascii	"PWMChannelConfig\000"
 1534      68616E6E 
 1534      656C436F 
 1534      6E666967 
 1534      00
 1535 00c5 69040000 		.4byte	0x469
 1536 00c9 50574D43 		.ascii	"PWMConfig\000"
 1536      6F6E6669 
 1536      6700
 1537 00d3 D9010000 		.4byte	0x1d9
 1538 00d7 50574D44 		.ascii	"PWMDriver\000"
 1538      72697665 
 1538      7200
 1539 00e1 9B040000 		.4byte	0x49b
 1540 00e5 63616E4D 		.ascii	"canMessages\000"
 1540      65737361 
ARM GAS  C:\Users\DNIEL~1\AppData\Local\Temp\cc4sotZz.s 			page 29


 1540      67657300 
 1541 00f1 00000000 		.4byte	0x0
 1542              		.section	.debug_aranges,"",%progbits
 1543 0000 3C000000 		.4byte	0x3c
 1544 0004 0200     		.2byte	0x2
 1545 0006 00000000 		.4byte	.Ldebug_info0
 1546 000a 04       		.byte	0x4
 1547 000b 00       		.byte	0x0
 1548 000c 0000     		.2byte	0x0
 1549 000e 0000     		.2byte	0x0
 1550 0010 00000000 		.4byte	.LFB119
 1551 0014 C8000000 		.4byte	.LFE119-.LFB119
 1552 0018 00000000 		.4byte	.LFB120
 1553 001c 14000000 		.4byte	.LFE120-.LFB120
 1554 0020 00000000 		.4byte	.LFB121
 1555 0024 14000000 		.4byte	.LFE121-.LFB121
 1556 0028 00000000 		.4byte	.LFB122
 1557 002c 14000000 		.4byte	.LFE122-.LFB122
 1558 0030 00000000 		.4byte	.LFB123
 1559 0034 28000000 		.4byte	.LFE123-.LFB123
 1560 0038 00000000 		.4byte	0x0
 1561 003c 00000000 		.4byte	0x0
 1562              		.section	.debug_ranges,"",%progbits
 1563              	.Ldebug_ranges0:
 1564 0000 00000000 		.4byte	.LFB119
 1565 0004 C8000000 		.4byte	.LFE119
 1566 0008 00000000 		.4byte	.LFB120
 1567 000c 14000000 		.4byte	.LFE120
 1568 0010 00000000 		.4byte	.LFB121
 1569 0014 14000000 		.4byte	.LFE121
 1570 0018 00000000 		.4byte	.LFB122
 1571 001c 14000000 		.4byte	.LFE122
 1572 0020 00000000 		.4byte	.LFB123
 1573 0024 28000000 		.4byte	.LFE123
 1574 0028 00000000 		.4byte	0x0
 1575 002c 00000000 		.4byte	0x0
 1576              		.section	.debug_str,"MS",%progbits,1
 1577              	.LASF23:
 1578 0000 4750494F 		.ascii	"GPIO_TypeDef\000"
 1578      5F547970 
 1578      65446566 
 1578      00
 1579              	.LASF39:
 1580 000d 43434552 		.ascii	"CCER\000"
 1580      00
 1581              	.LASF41:
 1582 0012 444D4152 		.ascii	"DMAR\000"
 1582      00
 1583              	.LASF30:
 1584 0017 73746174 		.ascii	"state\000"
 1584      6500
 1585              	.LASF38:
 1586 001d 43434D52 		.ascii	"CCMR2\000"
 1586      3200
 1587              	.LASF42:
 1588 0023 43434D52 		.ascii	"CCMR3\000"
 1588      3300
ARM GAS  C:\Users\DNIEL~1\AppData\Local\Temp\cc4sotZz.s 			page 30


 1589              	.LASF3:
 1590 0029 73686F72 		.ascii	"short int\000"
 1590      7420696E 
 1590      7400
 1591              	.LASF47:
 1592 0033 70776D63 		.ascii	"pwmcnt_t\000"
 1592      6E745F74 
 1592      00
 1593              	.LASF22:
 1594 003c 41465248 		.ascii	"AFRH\000"
 1594      00
 1595              	.LASF48:
 1596 0041 6D6F6465 		.ascii	"mode\000"
 1596      00
 1597              	.LASF64:
 1598 0046 6C696768 		.ascii	"lightRight\000"
 1598      74526967 
 1598      687400
 1599              	.LASF19:
 1600 0051 42535252 		.ascii	"BSRR\000"
 1600      00
 1601              	.LASF31:
 1602 0056 636F6E66 		.ascii	"config\000"
 1602      696700
 1603              	.LASF70:
 1604 005d 6C696768 		.ascii	"lightState\000"
 1604      74537461 
 1604      746500
 1605              	.LASF24:
 1606 0068 696F706F 		.ascii	"ioportmask_t\000"
 1606      72746D61 
 1606      736B5F74 
 1606      00
 1607              	.LASF16:
 1608 0075 4F545950 		.ascii	"OTYPER\000"
 1608      455200
 1609              	.LASF63:
 1610 007c 6C696768 		.ascii	"lightCalc\000"
 1610      7443616C 
 1610      6300
 1611              	.LASF56:
 1612 0086 666C6F61 		.ascii	"float\000"
 1612      7400
 1613              	.LASF59:
 1614 008c 4C494748 		.ascii	"LIGHT_LEFT\000"
 1614      545F4C45 
 1614      465400
 1615              	.LASF10:
 1616 0097 6C6F6E67 		.ascii	"long long int\000"
 1616      206C6F6E 
 1616      6720696E 
 1616      7400
 1617              	.LASF58:
 1618 00a5 4C494748 		.ascii	"LIGHT_RIGHT\000"
 1618      545F5249 
 1618      47485400 
 1619              	.LASF7:
ARM GAS  C:\Users\DNIEL~1\AppData\Local\Temp\cc4sotZz.s 			page 31


 1620 00b1 6C6F6E67 		.ascii	"long int\000"
 1620      20696E74 
 1620      00
 1621              	.LASF43:
 1622 00ba 43435235 		.ascii	"CCR5\000"
 1622      00
 1623              	.LASF44:
 1624 00bf 43435236 		.ascii	"CCR6\000"
 1624      00
 1625              	.LASF32:
 1626 00c4 70657269 		.ascii	"period\000"
 1626      6F6400
 1627              	.LASF15:
 1628 00cb 4D4F4445 		.ascii	"MODER\000"
 1628      5200
 1629              	.LASF14:
 1630 00d1 636C6561 		.ascii	"clear\000"
 1630      7200
 1631              	.LASF37:
 1632 00d7 43434D52 		.ascii	"CCMR1\000"
 1632      3100
 1633              	.LASF54:
 1634 00dd 50574D43 		.ascii	"PWMConfig\000"
 1634      6F6E6669 
 1634      6700
 1635              	.LASF62:
 1636 00e7 4C494748 		.ascii	"LIGHT_WAIT\000"
 1636      545F5741 
 1636      495400
 1637              	.LASF61:
 1638 00f2 4C494748 		.ascii	"LIGHT_ACTIVE\000"
 1638      545F4143 
 1638      54495645 
 1638      00
 1639              	.LASF57:
 1640 00ff 6C6F6E67 		.ascii	"long double\000"
 1640      20646F75 
 1640      626C6500 
 1641              	.LASF35:
 1642 010b 534D4352 		.ascii	"SMCR\000"
 1642      00
 1643              	.LASF25:
 1644 0110 50574D5F 		.ascii	"PWM_UNINIT\000"
 1644      554E494E 
 1644      495400
 1645              	.LASF2:
 1646 011b 756E7369 		.ascii	"unsigned char\000"
 1646      676E6564 
 1646      20636861 
 1646      7200
 1647              	.LASF1:
 1648 0129 7369676E 		.ascii	"signed char\000"
 1648      65642063 
 1648      68617200 
 1649              	.LASF11:
 1650 0135 6C6F6E67 		.ascii	"long long unsigned int\000"
 1650      206C6F6E 
ARM GAS  C:\Users\DNIEL~1\AppData\Local\Temp\cc4sotZz.s 			page 32


 1650      6720756E 
 1650      7369676E 
 1650      65642069 
 1651              	.LASF8:
 1652 014c 75696E74 		.ascii	"uint32_t\000"
 1652      33325F74 
 1652      00
 1653              	.LASF60:
 1654 0155 4C494748 		.ascii	"LIGHT_WARNING\000"
 1654      545F5741 
 1654      524E494E 
 1654      4700
 1655              	.LASF0:
 1656 0163 756E7369 		.ascii	"unsigned int\000"
 1656      676E6564 
 1656      20696E74 
 1656      00
 1657              	.LASF5:
 1658 0170 75696E74 		.ascii	"uint16_t\000"
 1658      31365F74 
 1658      00
 1659              	.LASF40:
 1660 0179 42445452 		.ascii	"BDTR\000"
 1660      00
 1661              	.LASF36:
 1662 017e 44494552 		.ascii	"DIER\000"
 1662      00
 1663              	.LASF66:
 1664 0183 6C696768 		.ascii	"lightWarning\000"
 1664      74576172 
 1664      6E696E67 
 1664      00
 1665              	.LASF18:
 1666 0190 50555044 		.ascii	"PUPDR\000"
 1666      5200
 1667              	.LASF34:
 1668 0196 70776D63 		.ascii	"pwmcallback_t\000"
 1668      616C6C62 
 1668      61636B5F 
 1668      7400
 1669              	.LASF21:
 1670 01a4 4146524C 		.ascii	"AFRL\000"
 1670      00
 1671              	.LASF4:
 1672 01a9 73686F72 		.ascii	"short unsigned int\000"
 1672      7420756E 
 1672      7369676E 
 1672      65642069 
 1672      6E7400
 1673              	.LASF67:
 1674 01bc 6C696768 		.ascii	"lightInit\000"
 1674      74496E69 
 1674      7400
 1675              	.LASF65:
 1676 01c6 6C696768 		.ascii	"lightLeft\000"
 1676      744C6566 
 1676      7400
ARM GAS  C:\Users\DNIEL~1\AppData\Local\Temp\cc4sotZz.s 			page 33


 1677              	.LASF13:
 1678 01d0 63686172 		.ascii	"char\000"
 1678      00
 1679              	.LASF45:
 1680 01d5 73746D33 		.ascii	"stm32_tim_t\000"
 1680      325F7469 
 1680      6D5F7400 
 1681              	.LASF29:
 1682 01e1 50574D44 		.ascii	"PWMDriver\000"
 1682      72697665 
 1682      7200
 1683              	.LASF6:
 1684 01eb 696E7433 		.ascii	"int32_t\000"
 1684      325F7400 
 1685              	.LASF12:
 1686 01f3 5F426F6F 		.ascii	"_Bool\000"
 1686      6C00
 1687              	.LASF71:
 1688 01f9 70776D63 		.ascii	"pwmcfg\000"
 1688      666700
 1689              	.LASF74:
 1690 0200 7372632F 		.ascii	"src/light.c\000"
 1690      6C696768 
 1690      742E6300 
 1691              	.LASF52:
 1692 020c 6368616E 		.ascii	"channels\000"
 1692      6E656C73 
 1692      00
 1693              	.LASF17:
 1694 0215 4F535045 		.ascii	"OSPEEDR\000"
 1694      45445200 
 1695              	.LASF9:
 1696 021d 6C6F6E67 		.ascii	"long unsigned int\000"
 1696      20756E73 
 1696      69676E65 
 1696      6420696E 
 1696      7400
 1697              	.LASF33:
 1698 022f 636C6F63 		.ascii	"clock\000"
 1698      6B00
 1699              	.LASF55:
 1700 0235 646F7562 		.ascii	"double\000"
 1700      6C6500
 1701              	.LASF73:
 1702 023c 474E5520 		.ascii	"GNU C 4.5.2\000"
 1702      4320342E 
 1702      352E3200 
 1703              	.LASF27:
 1704 0248 50574D5F 		.ascii	"PWM_READY\000"
 1704      52454144 
 1704      5900
 1705              	.LASF26:
 1706 0252 50574D5F 		.ascii	"PWM_STOP\000"
 1706      53544F50 
 1706      00
 1707              	.LASF53:
 1708 025b 64696572 		.ascii	"dier\000"
ARM GAS  C:\Users\DNIEL~1\AppData\Local\Temp\cc4sotZz.s 			page 34


 1708      00
 1709              	.LASF72:
 1710 0260 70657269 		.ascii	"period_num\000"
 1710      6F645F6E 
 1710      756D00
 1711              	.LASF51:
 1712 026b 66726571 		.ascii	"frequency\000"
 1712      75656E63 
 1712      7900
 1713              	.LASF69:
 1714 0275 50574D44 		.ascii	"PWMD1\000"
 1714      3100
 1715              	.LASF50:
 1716 027b 50574D43 		.ascii	"PWMChannelConfig\000"
 1716      68616E6E 
 1716      656C436F 
 1716      6E666967 
 1716      00
 1717              	.LASF46:
 1718 028c 70776D6D 		.ascii	"pwmmode_t\000"
 1718      6F64655F 
 1718      7400
 1719              	.LASF68:
 1720 0296 49544D5F 		.ascii	"ITM_RxBuffer\000"
 1720      52784275 
 1720      66666572 
 1720      00
 1721              	.LASF75:
 1722 02a3 433A5C44 		.ascii	"C:\\Dani\\MegaLux\\Repo\\Modulux\\Modulux\\modulux\\"
 1722      616E695C 
 1722      4D656761 
 1722      4C75785C 
 1722      5265706F 
 1723 02d0 6669726D 		.ascii	"firmware\000"
 1723      77617265 
 1723      00
 1724              	.LASF28:
 1725 02d9 70776D73 		.ascii	"pwmstate_t\000"
 1725      74617465 
 1725      5F7400
 1726              	.LASF20:
 1727 02e4 4C434B52 		.ascii	"LCKR\000"
 1727      00
 1728              	.LASF49:
 1729 02e9 63616C6C 		.ascii	"callback\000"
 1729      6261636B 
 1729      00
 1730              	.LASF76:
 1731 02f2 63616E4D 		.ascii	"canMessages\000"
 1731      65737361 
 1731      67657300 
 1732              		.ident	"GCC: (Sourcery G++ Lite 2011.03-42) 4.5.2"
ARM GAS  C:\Users\DNIEL~1\AppData\Local\Temp\cc4sotZz.s 			page 35


DEFINED SYMBOLS
                            *ABS*:00000000 light.c
C:\Users\DNIEL~1\AppData\Local\Temp\cc4sotZz.s:24     .text.lightCalc:00000000 $t
C:\Users\DNIEL~1\AppData\Local\Temp\cc4sotZz.s:30     .text.lightCalc:00000000 lightCalc
C:\Users\DNIEL~1\AppData\Local\Temp\cc4sotZz.s:51     .text.lightCalc:0000000e $d
C:\Users\DNIEL~1\AppData\Local\Temp\cc4sotZz.s:55     .text.lightCalc:00000012 $t
C:\Users\DNIEL~1\AppData\Local\Temp\cc4sotZz.s:165    .text.lightCalc:000000b4 $d
C:\Users\DNIEL~1\AppData\Local\Temp\cc4sotZz.s:174    .text.lightRight:00000000 $t
C:\Users\DNIEL~1\AppData\Local\Temp\cc4sotZz.s:180    .text.lightRight:00000000 lightRight
C:\Users\DNIEL~1\AppData\Local\Temp\cc4sotZz.s:200    .text.lightRight:00000010 $d
C:\Users\DNIEL~1\AppData\Local\Temp\cc4sotZz.s:205    .text.lightLeft:00000000 $t
C:\Users\DNIEL~1\AppData\Local\Temp\cc4sotZz.s:211    .text.lightLeft:00000000 lightLeft
C:\Users\DNIEL~1\AppData\Local\Temp\cc4sotZz.s:231    .text.lightLeft:00000010 $d
C:\Users\DNIEL~1\AppData\Local\Temp\cc4sotZz.s:236    .text.lightWarning:00000000 $t
C:\Users\DNIEL~1\AppData\Local\Temp\cc4sotZz.s:242    .text.lightWarning:00000000 lightWarning
C:\Users\DNIEL~1\AppData\Local\Temp\cc4sotZz.s:262    .text.lightWarning:00000010 $d
C:\Users\DNIEL~1\AppData\Local\Temp\cc4sotZz.s:267    .text.lightInit:00000000 $t
C:\Users\DNIEL~1\AppData\Local\Temp\cc4sotZz.s:273    .text.lightInit:00000000 lightInit
C:\Users\DNIEL~1\AppData\Local\Temp\cc4sotZz.s:305    .text.lightInit:00000018 $d
C:\Users\DNIEL~1\AppData\Local\Temp\cc4sotZz.s:313    .data.pwmcfg:00000000 $d
C:\Users\DNIEL~1\AppData\Local\Temp\cc4sotZz.s:317    .data.pwmcfg:00000000 pwmcfg
C:\Users\DNIEL~1\AppData\Local\Temp\cc4sotZz.s:336    .bss.lightState:00000000 lightState
C:\Users\DNIEL~1\AppData\Local\Temp\cc4sotZz.s:337    .bss.lightState:00000000 $d
C:\Users\DNIEL~1\AppData\Local\Temp\cc4sotZz.s:339    .bss.period_num:00000000 $d
C:\Users\DNIEL~1\AppData\Local\Temp\cc4sotZz.s:343    .bss.period_num:00000000 period_num
                     .debug_frame:00000010 $d
C:\Users\DNIEL~1\AppData\Local\Temp\cc4sotZz.s:173    .text.lightCalc:000000c8 $t
C:\Users\DNIEL~1\AppData\Local\Temp\cc4sotZz.s:204    .text.lightRight:00000014 $t
C:\Users\DNIEL~1\AppData\Local\Temp\cc4sotZz.s:235    .text.lightLeft:00000014 $t
C:\Users\DNIEL~1\AppData\Local\Temp\cc4sotZz.s:266    .text.lightWarning:00000014 $t
C:\Users\DNIEL~1\AppData\Local\Temp\cc4sotZz.s:312    .text.lightInit:00000028 $t

UNDEFINED SYMBOLS
pwmDisableChannel
pwmEnableChannel
PWMD1
pwmStart
