ARM GAS  C:\Users\DNIEL~1\AppData\Local\Temp\cceZPiI7.s 			page 1


   1              		.syntax unified
   2              		.cpu cortex-m4
   3              		.fpu softvfp
   4              		.eabi_attribute 20, 1
   5              		.eabi_attribute 21, 1
   6              		.eabi_attribute 23, 3
   7              		.eabi_attribute 24, 1
   8              		.eabi_attribute 25, 1
   9              		.eabi_attribute 26, 1
  10              		.eabi_attribute 30, 2
  11              		.eabi_attribute 18, 4
  12              		.thumb
  13              		.file	"light.c"
  14              		.section	.debug_abbrev,"",%progbits
  15              	.Ldebug_abbrev0:
  16              		.section	.debug_info,"",%progbits
  17              	.Ldebug_info0:
  18              		.section	.debug_line,"",%progbits
  19              	.Ldebug_line0:
  20 0000 20040000 		.text
  20      02008502 
  20      00000201 
  20      FB0E0D00 
  20      01010101 
  21              	.Ltext0:
  22              		.cfi_sections	.debug_frame
  23              		.section	.text.chprintf,"ax",%progbits
  24              		.align	2
  25              		.p2align 4,,15
  26              		.thumb
  27              		.thumb_func
  28              		.type	chprintf, %function
  29              	chprintf:
  30              	.LFB118:
  31              		.file 1 "../../../Chibios/os/various/chprintf.h"
  32              		.loc 1 69 0
  33              		.cfi_startproc
  34              		@ args = 4, pretend = 12, frame = 8
  35              		@ frame_needed = 0, uses_anonymous_args = 1
  36              	.LVL0:
  37 0000 0EB4     		push	{r1, r2, r3}
  38              	.LCFI0:
  39              		.cfi_def_cfa_offset 12
  40 0002 00B5     		push	{lr}
  41              	.LCFI1:
  42              		.cfi_def_cfa_offset 16
  43 0004 82B0     		sub	sp, sp, #8
  44              	.LCFI2:
  45              		.cfi_def_cfa_offset 24
  46              		.loc 1 69 0
  47 0006 03AB     		add	r3, sp, #12
  48              		.cfi_offset 14, -16
  49              		.cfi_offset 3, -4
  50              		.cfi_offset 2, -8
  51              		.cfi_offset 1, -12
  52 0008 53F8041B 		ldr	r1, [r3], #4
  53              		.loc 1 73 0
ARM GAS  C:\Users\DNIEL~1\AppData\Local\Temp\cceZPiI7.s 			page 2


  54 000c 1A46     		mov	r2, r3
  55              		.loc 1 72 0
  56 000e 0193     		str	r3, [sp, #4]
  57              		.loc 1 73 0
  58 0010 FFF7FEFF 		bl	chvprintf
  59              	.LVL1:
  60              		.loc 1 75 0
  61 0014 02B0     		add	sp, sp, #8
  62 0016 5DF804EB 		pop	{lr}
  63 001a 03B0     		add	sp, sp, #12
  64 001c 7047     		bx	lr
  65              		.cfi_endproc
  66              	.LFE118:
  67              		.size	chprintf, .-chprintf
  68 001e 00BF     		.section	.text.lightInit,"ax",%progbits
  69              		.align	2
  70              		.p2align 4,,15
  71              		.global	lightInit
  72              		.thumb
  73              		.thumb_func
  74              		.type	lightInit, %function
  75              	lightInit:
  76              	.LFB119:
  77              		.file 2 "src/light.c"
  78              		.loc 2 46 0
  79              		.cfi_startproc
  80              		@ args = 0, pretend = 0, frame = 0
  81              		@ frame_needed = 0, uses_anonymous_args = 0
  82              		.loc 2 48 0
  83 0000 084A     		ldr	r2, .L3
  84              		.loc 2 49 0
  85 0002 0948     		ldr	r0, .L3+4
  86 0004 0949     		ldr	r1, .L3+8
  87              		.loc 2 46 0
  88 0006 38B5     		push	{r3, r4, r5, lr}
  89              	.LCFI3:
  90              		.cfi_def_cfa_offset 16
  91              		.loc 2 48 0
  92 0008 0024     		movs	r4, #0
  93              		.cfi_offset 14, -4
  94              		.cfi_offset 5, -8
  95              		.cfi_offset 4, -12
  96              		.cfi_offset 3, -16
  97 000a 0025     		movs	r5, #0
  98 000c C2E90045 		strd	r4, [r2]
  99              		.loc 2 49 0
 100 0010 FFF7FEFF 		bl	pwmStart
 101              		.loc 2 50 0
 102 0014 0649     		ldr	r1, .L3+12
 103              		.loc 2 51 0
 104 0016 0748     		ldr	r0, .L3+16
 105              		.loc 2 52 0
 106 0018 074A     		ldr	r2, .L3+20
 107              		.loc 2 50 0
 108 001a 0023     		movs	r3, #0
 109 001c 0B60     		str	r3, [r1, #0]
 110              		.loc 2 51 0
ARM GAS  C:\Users\DNIEL~1\AppData\Local\Temp\cceZPiI7.s 			page 3


 111 001e 0370     		strb	r3, [r0, #0]
 112              		.loc 2 52 0
 113 0020 1370     		strb	r3, [r2, #0]
 114              		.loc 2 53 0
 115 0022 38BD     		pop	{r3, r4, r5, pc}
 116              	.L4:
 117              		.align	2
 118              	.L3:
 119 0024 00000000 		.word	.LANCHOR0
 120 0028 00000000 		.word	PWMD1
 121 002c 00000000 		.word	.LANCHOR1
 122 0030 00000000 		.word	.LANCHOR2
 123 0034 00000000 		.word	.LANCHOR3
 124 0038 00000000 		.word	.LANCHOR4
 125              		.cfi_endproc
 126              	.LFE119:
 127              		.size	lightInit, .-lightInit
 128 003c AFF30080 		.section	.text.lightCalc,"ax",%progbits
 129              		.align	2
 130              		.p2align 4,,15
 131              		.global	lightCalc
 132              		.thumb
 133              		.thumb_func
 134              		.type	lightCalc, %function
 135              	lightCalc:
 136              	.LFB120:
 137              		.loc 2 55 0
 138              		.cfi_startproc
 139              		@ args = 0, pretend = 0, frame = 0
 140              		@ frame_needed = 0, uses_anonymous_args = 0
 141 0000 10B5     		push	{r4, lr}
 142              	.LCFI4:
 143              		.cfi_def_cfa_offset 8
 144              		.loc 2 57 0
 145 0002 334C     		ldr	r4, .L19
 146              		.cfi_offset 14, -4
 147              		.cfi_offset 4, -8
 148 0004 D4E90023 		ldrd	r2, [r4]
 149 0008 0120     		movs	r0, #1
 150 000a 0021     		movs	r1, #0
 151 000c 1218     		adds	r2, r2, r0
 152 000e 43EB0103 		adc	r3, r3, r1
 153              		.loc 2 59 0
 154 0012 1F2A     		cmp	r2, #31
 155 0014 73F10001 		sbcs	r1, r3, #0
 156              		.loc 2 57 0
 157 0018 C4E90023 		strd	r2, [r4]
 158              		.loc 2 59 0
 159 001c 21D2     		bcs	.L13
 160              		.loc 2 66 0
 161 001e 2D4C     		ldr	r4, .L19+4
 162 0020 6378     		ldrb	r3, [r4, #1]	@ zero_extendqisi2
 163 0022 002B     		cmp	r3, #0
 164 0024 30D1     		bne	.L14
 165              		.loc 2 72 0
 166 0026 A178     		ldrb	r1, [r4, #2]	@ zero_extendqisi2
 167 0028 0029     		cmp	r1, #0
ARM GAS  C:\Users\DNIEL~1\AppData\Local\Temp\cceZPiI7.s 			page 4


 168 002a 37D1     		bne	.L15
 169              	.L9:
 170              		.loc 2 78 0
 171 002c E078     		ldrb	r0, [r4, #3]	@ zero_extendqisi2
 172 002e 0028     		cmp	r0, #0
 173 0030 3FD1     		bne	.L16
 174              	.L7:
 175              		.loc 2 86 0
 176 0032 294B     		ldr	r3, .L19+8
 177 0034 1B78     		ldrb	r3, [r3, #0]	@ zero_extendqisi2
 178 0036 002B     		cmp	r3, #0
 179 0038 1FD1     		bne	.L17
 180              	.L10:
 181              		.loc 2 90 0
 182 003a 2848     		ldr	r0, .L19+12
 183 003c 0178     		ldrb	r1, [r0, #0]	@ zero_extendqisi2
 184 003e 21B9     		cbnz	r1, .L18
 185              		.loc 2 94 0
 186 0040 2748     		ldr	r0, .L19+16
 187              		.loc 2 96 0
 188 0042 BDE81040 		pop	{r4, lr}
 189              		.loc 2 94 0
 190 0046 FFF7FEBF 		b	pwmDisableChannel
 191              	.L18:
 192              		.loc 2 91 0
 193 004a 2548     		ldr	r0, .L19+16
 194 004c 254C     		ldr	r4, .L19+20
 195 004e B0F808C0 		ldrh	ip, [r0, #8]
 196 0052 84FB0C42 		smull	r4, r2, r4, ip
 197 0056 1946     		mov	r1, r3
 198 0058 D208     		lsrs	r2, r2, #3
 199              		.loc 2 96 0
 200 005a BDE81040 		pop	{r4, lr}
 201              		.loc 2 91 0
 202 005e FFF7FEBF 		b	pwmEnableChannel
 203              	.L13:
 204              		.loc 2 61 0
 205 0062 1F48     		ldr	r0, .L19+16
 206 0064 0121     		movs	r1, #1
 207 0066 FFF7FEFF 		bl	pwmDisableChannel
 208              		.loc 2 62 0
 209 006a 1D48     		ldr	r0, .L19+16
 210 006c 0221     		movs	r1, #2
 211 006e FFF7FEFF 		bl	pwmDisableChannel
 212              		.loc 2 86 0
 213 0072 194B     		ldr	r3, .L19+8
 214 0074 1B78     		ldrb	r3, [r3, #0]	@ zero_extendqisi2
 215 0076 002B     		cmp	r3, #0
 216 0078 DFD0     		beq	.L10
 217              	.L17:
 218              		.loc 2 87 0
 219 007a 1948     		ldr	r0, .L19+16
 220 007c 0289     		ldrh	r2, [r0, #8]
 221 007e 0021     		movs	r1, #0
 222              		.loc 2 96 0
 223 0080 BDE81040 		pop	{r4, lr}
 224              		.loc 2 87 0
ARM GAS  C:\Users\DNIEL~1\AppData\Local\Temp\cceZPiI7.s 			page 5


 225 0084 FFF7FEBF 		b	pwmEnableChannel
 226              	.L14:
 227              		.loc 2 68 0
 228 0088 1548     		ldr	r0, .L19+16
 229 008a 0121     		movs	r1, #1
 230 008c 0289     		ldrh	r2, [r0, #8]
 231 008e FFF7FEFF 		bl	pwmEnableChannel
 232              		.loc 2 72 0
 233 0092 A178     		ldrb	r1, [r4, #2]	@ zero_extendqisi2
 234              		.loc 2 69 0
 235 0094 0020     		movs	r0, #0
 236 0096 6070     		strb	r0, [r4, #1]
 237              		.loc 2 72 0
 238 0098 0029     		cmp	r1, #0
 239 009a C7D0     		beq	.L9
 240              	.L15:
 241              		.loc 2 74 0
 242 009c 1048     		ldr	r0, .L19+16
 243 009e 0221     		movs	r1, #2
 244 00a0 0289     		ldrh	r2, [r0, #8]
 245 00a2 FFF7FEFF 		bl	pwmEnableChannel
 246              		.loc 2 75 0
 247 00a6 0B4B     		ldr	r3, .L19+4
 248              		.loc 2 78 0
 249 00a8 E078     		ldrb	r0, [r4, #3]	@ zero_extendqisi2
 250              		.loc 2 75 0
 251 00aa 0022     		movs	r2, #0
 252 00ac 9A70     		strb	r2, [r3, #2]
 253              		.loc 2 78 0
 254 00ae 0028     		cmp	r0, #0
 255 00b0 BFD0     		beq	.L7
 256              	.L16:
 257              		.loc 2 80 0
 258 00b2 0B4C     		ldr	r4, .L19+16
 259 00b4 0121     		movs	r1, #1
 260 00b6 2289     		ldrh	r2, [r4, #8]
 261 00b8 2046     		mov	r0, r4
 262 00ba FFF7FEFF 		bl	pwmEnableChannel
 263              		.loc 2 81 0
 264 00be 0221     		movs	r1, #2
 265 00c0 2289     		ldrh	r2, [r4, #8]
 266 00c2 2046     		mov	r0, r4
 267 00c4 FFF7FEFF 		bl	pwmEnableChannel
 268              		.loc 2 82 0
 269 00c8 024A     		ldr	r2, .L19+4
 270 00ca 0021     		movs	r1, #0
 271 00cc D170     		strb	r1, [r2, #3]
 272 00ce B0E7     		b	.L7
 273              	.L20:
 274              		.align	2
 275              	.L19:
 276 00d0 00000000 		.word	.LANCHOR0
 277 00d4 00000000 		.word	.LANCHOR5
 278 00d8 00000000 		.word	.LANCHOR4
 279 00dc 00000000 		.word	.LANCHOR3
 280 00e0 00000000 		.word	PWMD1
 281 00e4 67666666 		.word	1717986919
ARM GAS  C:\Users\DNIEL~1\AppData\Local\Temp\cceZPiI7.s 			page 6


 282              		.cfi_endproc
 283              	.LFE120:
 284              		.size	lightCalc, .-lightCalc
 285 00e8 AFF30080 		.section	.text.lightRight,"ax",%progbits
 285      AFF30080 
 286              		.align	2
 287              		.p2align 4,,15
 288              		.global	lightRight
 289              		.thumb
 290              		.thumb_func
 291              		.type	lightRight, %function
 292              	lightRight:
 293              	.LFB121:
 294              		.loc 2 98 0
 295              		.cfi_startproc
 296              		@ args = 0, pretend = 0, frame = 0
 297              		@ frame_needed = 0, uses_anonymous_args = 0
 298              		@ link register save eliminated.
 299              		.loc 2 99 0
 300 0000 0648     		ldr	r0, .L22
 301              		.loc 2 103 0
 302 0002 074B     		ldr	r3, .L22+4
 303              		.loc 2 99 0
 304 0004 0121     		movs	r1, #1
 305              		.loc 2 101 0
 306 0006 0022     		movs	r2, #0
 307              		.loc 2 99 0
 308 0008 0170     		strb	r1, [r0, #0]
 309              		.loc 2 100 0
 310 000a 4170     		strb	r1, [r0, #1]
 311              		.loc 2 101 0
 312 000c 8270     		strb	r2, [r0, #2]
 313              		.loc 2 102 0
 314 000e C270     		strb	r2, [r0, #3]
 315              		.loc 2 103 0
 316 0010 0021     		movs	r1, #0
 317 0012 0020     		movs	r0, #0
 318 0014 C3E90001 		strd	r0, [r3]
 319              		.loc 2 104 0
 320 0018 7047     		bx	lr
 321              	.L23:
 322 001a 00BF     		.align	2
 323              	.L22:
 324 001c 00000000 		.word	.LANCHOR5
 325 0020 00000000 		.word	.LANCHOR0
 326              		.cfi_endproc
 327              	.LFE121:
 328              		.size	lightRight, .-lightRight
 329 0024 AFF30080 		.section	.text.lightLeft,"ax",%progbits
 329      AFF30080 
 329      AFF30080 
 330              		.align	2
 331              		.p2align 4,,15
 332              		.global	lightLeft
 333              		.thumb
 334              		.thumb_func
 335              		.type	lightLeft, %function
ARM GAS  C:\Users\DNIEL~1\AppData\Local\Temp\cceZPiI7.s 			page 7


 336              	lightLeft:
 337              	.LFB122:
 338              		.loc 2 106 0
 339              		.cfi_startproc
 340              		@ args = 0, pretend = 0, frame = 0
 341              		@ frame_needed = 0, uses_anonymous_args = 0
 342              		@ link register save eliminated.
 343              		.loc 2 107 0
 344 0000 0648     		ldr	r0, .L25
 345              		.loc 2 111 0
 346 0002 074B     		ldr	r3, .L25+4
 347              		.loc 2 107 0
 348 0004 0121     		movs	r1, #1
 349              		.loc 2 108 0
 350 0006 0022     		movs	r2, #0
 351              		.loc 2 107 0
 352 0008 0170     		strb	r1, [r0, #0]
 353              		.loc 2 109 0
 354 000a 8170     		strb	r1, [r0, #2]
 355              		.loc 2 108 0
 356 000c 4270     		strb	r2, [r0, #1]
 357              		.loc 2 110 0
 358 000e C270     		strb	r2, [r0, #3]
 359              		.loc 2 111 0
 360 0010 0021     		movs	r1, #0
 361 0012 0020     		movs	r0, #0
 362 0014 C3E90001 		strd	r0, [r3]
 363              		.loc 2 112 0
 364 0018 7047     		bx	lr
 365              	.L26:
 366 001a 00BF     		.align	2
 367              	.L25:
 368 001c 00000000 		.word	.LANCHOR5
 369 0020 00000000 		.word	.LANCHOR0
 370              		.cfi_endproc
 371              	.LFE122:
 372              		.size	lightLeft, .-lightLeft
 373 0024 AFF30080 		.section	.text.lightWarning,"ax",%progbits
 373      AFF30080 
 373      AFF30080 
 374              		.align	2
 375              		.p2align 4,,15
 376              		.global	lightWarning
 377              		.thumb
 378              		.thumb_func
 379              		.type	lightWarning, %function
 380              	lightWarning:
 381              	.LFB123:
 382              		.loc 2 114 0
 383              		.cfi_startproc
 384              		@ args = 0, pretend = 0, frame = 0
 385              		@ frame_needed = 0, uses_anonymous_args = 0
 386              		@ link register save eliminated.
 387              		.loc 2 115 0
 388 0000 0648     		ldr	r0, .L28
 389              		.loc 2 119 0
 390 0002 074B     		ldr	r3, .L28+4
ARM GAS  C:\Users\DNIEL~1\AppData\Local\Temp\cceZPiI7.s 			page 8


 391              		.loc 2 116 0
 392 0004 0021     		movs	r1, #0
 393              		.loc 2 115 0
 394 0006 0122     		movs	r2, #1
 395              		.loc 2 116 0
 396 0008 4170     		strb	r1, [r0, #1]
 397              		.loc 2 117 0
 398 000a 8170     		strb	r1, [r0, #2]
 399              		.loc 2 115 0
 400 000c 0270     		strb	r2, [r0, #0]
 401              		.loc 2 118 0
 402 000e C270     		strb	r2, [r0, #3]
 403              		.loc 2 119 0
 404 0010 0021     		movs	r1, #0
 405 0012 0020     		movs	r0, #0
 406 0014 C3E90001 		strd	r0, [r3]
 407              		.loc 2 120 0
 408 0018 7047     		bx	lr
 409              	.L29:
 410 001a 00BF     		.align	2
 411              	.L28:
 412 001c 00000000 		.word	.LANCHOR5
 413 0020 00000000 		.word	.LANCHOR0
 414              		.cfi_endproc
 415              	.LFE123:
 416              		.size	lightWarning, .-lightWarning
 417 0024 AFF30080 		.section	.text.lightBrakeON,"ax",%progbits
 417      AFF30080 
 417      AFF30080 
 418              		.align	2
 419              		.p2align 4,,15
 420              		.global	lightBrakeON
 421              		.thumb
 422              		.thumb_func
 423              		.type	lightBrakeON, %function
 424              	lightBrakeON:
 425              	.LFB124:
 426              		.loc 2 122 0
 427              		.cfi_startproc
 428              		@ args = 0, pretend = 0, frame = 0
 429              		@ frame_needed = 0, uses_anonymous_args = 0
 430              		@ link register save eliminated.
 431              		.loc 2 123 0
 432 0000 014B     		ldr	r3, .L31
 433 0002 0120     		movs	r0, #1
 434 0004 1870     		strb	r0, [r3, #0]
 435              		.loc 2 125 0
 436 0006 7047     		bx	lr
 437              	.L32:
 438              		.align	2
 439              	.L31:
 440 0008 00000000 		.word	.LANCHOR4
 441              		.cfi_endproc
 442              	.LFE124:
 443              		.size	lightBrakeON, .-lightBrakeON
 444 000c AFF30080 		.section	.text.lightBrakeOFF,"ax",%progbits
 445              		.align	2
ARM GAS  C:\Users\DNIEL~1\AppData\Local\Temp\cceZPiI7.s 			page 9


 446              		.p2align 4,,15
 447              		.global	lightBrakeOFF
 448              		.thumb
 449              		.thumb_func
 450              		.type	lightBrakeOFF, %function
 451              	lightBrakeOFF:
 452              	.LFB125:
 453              		.loc 2 126 0
 454              		.cfi_startproc
 455              		@ args = 0, pretend = 0, frame = 0
 456              		@ frame_needed = 0, uses_anonymous_args = 0
 457              		@ link register save eliminated.
 458              		.loc 2 127 0
 459 0000 024B     		ldr	r3, .L34
 460 0002 0022     		movs	r2, #0
 461 0004 1A70     		strb	r2, [r3, #0]
 462              		.loc 2 129 0
 463 0006 0120     		movs	r0, #1
 464 0008 7047     		bx	lr
 465              	.L35:
 466 000a 00BF     		.align	2
 467              	.L34:
 468 000c 00000000 		.word	.LANCHOR4
 469              		.cfi_endproc
 470              	.LFE125:
 471              		.size	lightBrakeOFF, .-lightBrakeOFF
 472              		.section	.text.lightPosLampON,"ax",%progbits
 473              		.align	2
 474              		.p2align 4,,15
 475              		.global	lightPosLampON
 476              		.thumb
 477              		.thumb_func
 478              		.type	lightPosLampON, %function
 479              	lightPosLampON:
 480              	.LFB126:
 481              		.loc 2 131 0
 482              		.cfi_startproc
 483              		@ args = 0, pretend = 0, frame = 0
 484              		@ frame_needed = 0, uses_anonymous_args = 0
 485              		@ link register save eliminated.
 486              		.loc 2 132 0
 487 0000 014B     		ldr	r3, .L37
 488 0002 0120     		movs	r0, #1
 489 0004 1870     		strb	r0, [r3, #0]
 490              		.loc 2 134 0
 491 0006 7047     		bx	lr
 492              	.L38:
 493              		.align	2
 494              	.L37:
 495 0008 00000000 		.word	.LANCHOR3
 496              		.cfi_endproc
 497              	.LFE126:
 498              		.size	lightPosLampON, .-lightPosLampON
 499 000c AFF30080 		.section	.text.lightPosLampOFF,"ax",%progbits
 500              		.align	2
 501              		.p2align 4,,15
 502              		.global	lightPosLampOFF
ARM GAS  C:\Users\DNIEL~1\AppData\Local\Temp\cceZPiI7.s 			page 10


 503              		.thumb
 504              		.thumb_func
 505              		.type	lightPosLampOFF, %function
 506              	lightPosLampOFF:
 507              	.LFB127:
 508              		.loc 2 135 0
 509              		.cfi_startproc
 510              		@ args = 0, pretend = 0, frame = 0
 511              		@ frame_needed = 0, uses_anonymous_args = 0
 512              		@ link register save eliminated.
 513              		.loc 2 136 0
 514 0000 024B     		ldr	r3, .L40
 515 0002 0022     		movs	r2, #0
 516 0004 1A70     		strb	r2, [r3, #0]
 517              		.loc 2 138 0
 518 0006 0120     		movs	r0, #1
 519 0008 7047     		bx	lr
 520              	.L41:
 521 000a 00BF     		.align	2
 522              	.L40:
 523 000c 00000000 		.word	.LANCHOR3
 524              		.cfi_endproc
 525              	.LFE127:
 526              		.size	lightPosLampOFF, .-lightPosLampOFF
 527              		.section	.text.cmd_lightblink,"ax",%progbits
 528              		.align	2
 529              		.p2align 4,,15
 530              		.global	cmd_lightblink
 531              		.thumb
 532              		.thumb_func
 533              		.type	cmd_lightblink, %function
 534              	cmd_lightblink:
 535              	.LFB128:
 536              		.loc 2 140 0
 537              		.cfi_startproc
 538              		@ args = 0, pretend = 0, frame = 0
 539              		@ frame_needed = 0, uses_anonymous_args = 0
 540              	.LVL2:
 541 0000 2DE9F041 		push	{r4, r5, r6, r7, r8, lr}
 542              	.LCFI5:
 543              		.cfi_def_cfa_offset 24
 544              		.loc 2 140 0
 545 0004 0446     		mov	r4, r0
 546              		.cfi_offset 14, -4
 547              		.cfi_offset 8, -8
 548              		.cfi_offset 7, -12
 549              		.cfi_offset 6, -16
 550              		.cfi_offset 5, -20
 551              		.cfi_offset 4, -24
 552 0006 0D46     		mov	r5, r1
 553              		.loc 2 144 0
 554 0008 5649     		ldr	r1, .L59
 555              	.LVL3:
 556              		.loc 2 140 0
 557 000a 1646     		mov	r6, r2
 558              		.loc 2 144 0
 559 000c FFF7FEFF 		bl	chprintf
ARM GAS  C:\Users\DNIEL~1\AppData\Local\Temp\cceZPiI7.s 			page 11


 560              	.LVL4:
 561              		.loc 2 145 0
 562 0010 2046     		mov	r0, r4
 563 0012 5549     		ldr	r1, .L59+4
 564 0014 FFF7FEFF 		bl	chprintf
 565              		.loc 2 146 0
 566 0018 2168     		ldr	r1, [r4, #0]
 567 001a 2046     		mov	r0, r4
 568 001c 4B69     		ldr	r3, [r1, #20]
 569 001e 0021     		movs	r1, #0
 570 0020 9847     		blx	r3
 571 0022 B0F1FF3F 		cmp	r0, #-1
 572 0026 1DD0     		beq	.L52
 573              	.LVL5:
 574              	.L43:
 575              		.loc 2 203 0
 576 0028 2046     		mov	r0, r4
 577 002a 5049     		ldr	r1, .L59+8
 578 002c FFF7FEFF 		bl	chprintf
 579              		.loc 2 204 0
 580 0030 2046     		mov	r0, r4
 581 0032 4F49     		ldr	r1, .L59+12
 582 0034 FFF7FEFF 		bl	chprintf
 583              		.loc 2 205 0
 584 0038 2046     		mov	r0, r4
 585 003a 4E49     		ldr	r1, .L59+16
 586 003c FFF7FEFF 		bl	chprintf
 587              		.loc 2 206 0
 588 0040 2046     		mov	r0, r4
 589 0042 4D49     		ldr	r1, .L59+20
 590 0044 FFF7FEFF 		bl	chprintf
 591              		.loc 2 207 0
 592 0048 2046     		mov	r0, r4
 593 004a 4C49     		ldr	r1, .L59+24
 594 004c FFF7FEFF 		bl	chprintf
 595              		.loc 2 208 0
 596 0050 2046     		mov	r0, r4
 597 0052 4B49     		ldr	r1, .L59+28
 598 0054 FFF7FEFF 		bl	chprintf
 599              		.loc 2 209 0
 600 0058 4A49     		ldr	r1, .L59+32
 601 005a 2046     		mov	r0, r4
 602              		.loc 2 211 0
 603 005c BDE8F041 		pop	{r4, r5, r6, r7, r8, lr}
 604              		.loc 2 209 0
 605 0060 FFF7FEBF 		b	chprintf
 606              	.LVL6:
 607              	.L52:
 608              	.LBB17:
 609              		.loc 2 147 0
 610 0064 0022     		movs	r2, #0
 611 0066 2046     		mov	r0, r4
 612 0068 4749     		ldr	r1, .L59+36
 613 006a 1346     		mov	r3, r2
 614 006c FFF7FEFF 		bl	chprintf
 615              		.loc 2 148 0
 616 0070 012D     		cmp	r5, #1
ARM GAS  C:\Users\DNIEL~1\AppData\Local\Temp\cceZPiI7.s 			page 12


 617 0072 D9D1     		bne	.L43
 618              		.loc 2 148 0 is_stmt 0 discriminator 1
 619 0074 3668     		ldr	r6, [r6, #0]
 620              	.LVL7:
 621 0076 4549     		ldr	r1, .L59+40
 622 0078 3046     		mov	r0, r6
 623 007a FFF7FEFF 		bl	strcmp
 624 007e 0746     		mov	r7, r0
 625 0080 0028     		cmp	r0, #0
 626 0082 3DD0     		beq	.L53
 627              		.loc 2 155 0 is_stmt 1 discriminator 1
 628 0084 3046     		mov	r0, r6
 629 0086 4249     		ldr	r1, .L59+44
 630 0088 FFF7FEFF 		bl	strcmp
 631 008c 0746     		mov	r7, r0
 632 008e 0028     		cmp	r0, #0
 633 0090 46D0     		beq	.L54
 634              		.loc 2 162 0 discriminator 1
 635 0092 3046     		mov	r0, r6
 636 0094 3F49     		ldr	r1, .L59+48
 637 0096 FFF7FEFF 		bl	strcmp
 638 009a 0746     		mov	r7, r0
 639 009c 0028     		cmp	r0, #0
 640 009e 48D0     		beq	.L55
 641              		.loc 2 169 0 discriminator 1
 642 00a0 3046     		mov	r0, r6
 643 00a2 3D49     		ldr	r1, .L59+52
 644 00a4 FFF7FEFF 		bl	strcmp
 645 00a8 0028     		cmp	r0, #0
 646 00aa 52D0     		beq	.L56
 647              		.loc 2 176 0 discriminator 1
 648 00ac 3046     		mov	r0, r6
 649 00ae 3B49     		ldr	r1, .L59+56
 650 00b0 FFF7FEFF 		bl	strcmp
 651 00b4 0746     		mov	r7, r0
 652 00b6 98B1     		cbz	r0, .L57
 653              		.loc 2 183 0 discriminator 1
 654 00b8 3046     		mov	r0, r6
 655 00ba 3949     		ldr	r1, .L59+60
 656 00bc FFF7FEFF 		bl	strcmp
 657 00c0 B0B1     		cbz	r0, .L58
 658              		.loc 2 190 0 discriminator 1
 659 00c2 3046     		mov	r0, r6
 660 00c4 3749     		ldr	r1, .L59+64
 661 00c6 FFF7FEFF 		bl	strcmp
 662 00ca 0546     		mov	r5, r0
 663              	.LVL8:
 664 00cc 0028     		cmp	r0, #0
 665 00ce ABD1     		bne	.L43
 666              		.loc 2 192 0
 667 00d0 2046     		mov	r0, r4
 668 00d2 3549     		ldr	r1, .L59+68
 669 00d4 FFF7FEFF 		bl	chprintf
 670              	.LBB18:
 671              	.LBB19:
 672              		.loc 2 136 0
 673 00d8 3448     		ldr	r0, .L59+72
ARM GAS  C:\Users\DNIEL~1\AppData\Local\Temp\cceZPiI7.s 			page 13


 674 00da 0570     		strb	r5, [r0, #0]
 675 00dc BDE8F081 		pop	{r4, r5, r6, r7, r8, pc}
 676              	.LVL9:
 677              	.L57:
 678              	.LBE19:
 679              	.LBE18:
 680              		.loc 2 178 0
 681 00e0 2046     		mov	r0, r4
 682 00e2 3349     		ldr	r1, .L59+76
 683 00e4 FFF7FEFF 		bl	chprintf
 684              	.LBB20:
 685              	.LBB21:
 686              		.loc 2 127 0
 687 00e8 324A     		ldr	r2, .L59+80
 688 00ea 1770     		strb	r7, [r2, #0]
 689 00ec BDE8F081 		pop	{r4, r5, r6, r7, r8, pc}
 690              	.L58:
 691              	.LBE21:
 692              	.LBE20:
 693              		.loc 2 185 0
 694 00f0 2046     		mov	r0, r4
 695 00f2 3149     		ldr	r1, .L59+84
 696 00f4 FFF7FEFF 		bl	chprintf
 697              	.LBB22:
 698              	.LBB23:
 699              		.loc 2 132 0
 700 00f8 2C4B     		ldr	r3, .L59+72
 701 00fa 1D70     		strb	r5, [r3, #0]
 702 00fc BDE8F081 		pop	{r4, r5, r6, r7, r8, pc}
 703              	.L53:
 704              	.LBE23:
 705              	.LBE22:
 706              		.loc 2 150 0
 707 0100 2046     		mov	r0, r4
 708 0102 2E49     		ldr	r1, .L59+88
 709 0104 FFF7FEFF 		bl	chprintf
 710              	.LBB24:
 711              	.LBB25:
 712              		.loc 2 99 0
 713 0108 2D4B     		ldr	r3, .L59+92
 714 010a 1D70     		strb	r5, [r3, #0]
 715              		.loc 2 100 0
 716 010c 5D70     		strb	r5, [r3, #1]
 717              		.loc 2 101 0
 718 010e 9F70     		strb	r7, [r3, #2]
 719              	.L51:
 720              	.LBE25:
 721              	.LBE24:
 722              	.LBB26:
 723              	.LBB27:
 724              		.loc 2 111 0
 725 0110 2C4A     		ldr	r2, .L59+96
 726              		.loc 2 110 0
 727 0112 DF70     		strb	r7, [r3, #3]
 728              		.loc 2 111 0
 729 0114 0020     		movs	r0, #0
 730 0116 0021     		movs	r1, #0
ARM GAS  C:\Users\DNIEL~1\AppData\Local\Temp\cceZPiI7.s 			page 14


 731 0118 C2E90001 		strd	r0, [r2]
 732 011c BDE8F081 		pop	{r4, r5, r6, r7, r8, pc}
 733              	.L54:
 734              	.LBE27:
 735              	.LBE26:
 736              		.loc 2 157 0
 737 0120 2046     		mov	r0, r4
 738 0122 2949     		ldr	r1, .L59+100
 739 0124 FFF7FEFF 		bl	chprintf
 740              	.LBB29:
 741              	.LBB28:
 742              		.loc 2 107 0
 743 0128 254B     		ldr	r3, .L59+92
 744 012a 1D70     		strb	r5, [r3, #0]
 745              		.loc 2 108 0
 746 012c 5F70     		strb	r7, [r3, #1]
 747              		.loc 2 109 0
 748 012e 9D70     		strb	r5, [r3, #2]
 749 0130 EEE7     		b	.L51
 750              	.L55:
 751              	.LBE28:
 752              	.LBE29:
 753              		.loc 2 164 0
 754 0132 2046     		mov	r0, r4
 755 0134 2549     		ldr	r1, .L59+104
 756 0136 FFF7FEFF 		bl	chprintf
 757              	.LBB30:
 758              	.LBB31:
 759              		.loc 2 115 0
 760 013a 2148     		ldr	r0, .L59+92
 761              		.loc 2 119 0
 762 013c 214B     		ldr	r3, .L59+96
 763              		.loc 2 115 0
 764 013e 0570     		strb	r5, [r0, #0]
 765              		.loc 2 116 0
 766 0140 4770     		strb	r7, [r0, #1]
 767              		.loc 2 117 0
 768 0142 8770     		strb	r7, [r0, #2]
 769              		.loc 2 118 0
 770 0144 C570     		strb	r5, [r0, #3]
 771              		.loc 2 119 0
 772 0146 0021     		movs	r1, #0
 773 0148 0020     		movs	r0, #0
 774 014a C3E90001 		strd	r0, [r3]
 775 014e BDE8F081 		pop	{r4, r5, r6, r7, r8, pc}
 776              	.L56:
 777              	.LBE31:
 778              	.LBE30:
 779              		.loc 2 171 0
 780 0152 1F49     		ldr	r1, .L59+108
 781 0154 2046     		mov	r0, r4
 782 0156 FFF7FEFF 		bl	chprintf
 783              	.LBB32:
 784              	.LBB33:
 785              		.loc 2 123 0
 786 015a 1649     		ldr	r1, .L59+80
 787 015c 0D70     		strb	r5, [r1, #0]
ARM GAS  C:\Users\DNIEL~1\AppData\Local\Temp\cceZPiI7.s 			page 15


 788 015e BDE8F081 		pop	{r4, r5, r6, r7, r8, pc}
 789              	.L60:
 790 0162 00BF     		.align	2
 791              	.L59:
 792 0164 00000000 		.word	.LC0
 793 0168 04000000 		.word	.LC1
 794 016c DC010000 		.word	.LC17
 795 0170 F4010000 		.word	.LC18
 796 0174 08020000 		.word	.LC19
 797 0178 20020000 		.word	.LC20
 798 017c 38020000 		.word	.LC21
 799 0180 50020000 		.word	.LC22
 800 0184 68020000 		.word	.LC23
 801 0188 0C000000 		.word	.LC2
 802 018c 18000000 		.word	.LC3
 803 0190 58000000 		.word	.LC5
 804 0194 98000000 		.word	.LC7
 805 0198 DC000000 		.word	.LC9
 806 019c 18010000 		.word	.LC11
 807 01a0 5C010000 		.word	.LC13
 808 01a4 9C010000 		.word	.LC15
 809 01a8 A4010000 		.word	.LC16
 810 01ac 00000000 		.word	.LANCHOR3
 811 01b0 24010000 		.word	.LC12
 812 01b4 00000000 		.word	.LANCHOR4
 813 01b8 64010000 		.word	.LC14
 814 01bc 20000000 		.word	.LC4
 815 01c0 00000000 		.word	.LANCHOR5
 816 01c4 00000000 		.word	.LANCHOR0
 817 01c8 60000000 		.word	.LC6
 818 01cc A0000000 		.word	.LC8
 819 01d0 E4000000 		.word	.LC10
 820              	.LBE33:
 821              	.LBE32:
 822              	.LBE17:
 823              		.cfi_endproc
 824              	.LFE128:
 825              		.size	cmd_lightblink, .-cmd_lightblink
 826              		.global	lightsOn
 827              		.global	brakeOn
 828 01d4 AFF30080 		.section	.data.pwmcfg,"aw",%progbits
 828      AFF30080 
 828      AFF30080 
 829              		.align	2
 830              		.set	.LANCHOR1,. + 0
 831              		.type	pwmcfg, %object
 832              		.size	pwmcfg, 52
 833              	pwmcfg:
 834 0000 40420F00 		.word	1000000
 835 0004 E803     		.short	1000
 836 0006 0000     		.space	2
 837 0008 00000000 		.word	0
 838 000c 01000000 		.word	1
 839 0010 00000000 		.word	0
 840 0014 01000000 		.word	1
 841 0018 00000000 		.word	0
 842 001c 01000000 		.word	1
ARM GAS  C:\Users\DNIEL~1\AppData\Local\Temp\cceZPiI7.s 			page 16


 843 0020 00000000 		.word	0
 844 0024 00000000 		.word	0
 845 0028 00000000 		.word	0
 846 002c 00000000 		.word	0
 847 0030 00000000 		.space	4
 848              		.section	.bss.period,"aw",%nobits
 849              		.align	3
 850              		.set	.LANCHOR0,. + 0
 851              		.type	period, %object
 852              		.size	period, 8
 853              	period:
 854 0000 00000000 		.space	8
 854      00000000 
 855              		.section	.rodata.str1.4,"aMS",%progbits,1
 856              		.align	2
 857              	.LC0:
 858 0000 1B6300   		.ascii	"\033c\000"
 859 0003 00       		.space	1
 860              	.LC1:
 861 0004 1B5B324A 		.ascii	"\033[2J\000"
 861      00
 862 0009 000000   		.space	3
 863              	.LC2:
 864 000c 1B5B2564 		.ascii	"\033[%d;%dH\000"
 864      3B256448 
 864      00
 865 0015 000000   		.space	3
 866              	.LC3:
 867 0018 72696768 		.ascii	"right\000"
 867      7400
 868 001e 0000     		.space	2
 869              	.LC4:
 870 0020 2D2D2D2D 		.ascii	"-------------- Blinking right enabled -------------"
 870      2D2D2D2D 
 870      2D2D2D2D 
 870      2D2D2042 
 870      6C696E6B 
 871 0053 2D0D0A00 		.ascii	"-\015\012\000"
 872 0057 00       		.space	1
 873              	.LC5:
 874 0058 6C656674 		.ascii	"left\000"
 874      00
 875 005d 000000   		.space	3
 876              	.LC6:
 877 0060 2D2D2D2D 		.ascii	"-------------- Blinking left enabled --------------"
 877      2D2D2D2D 
 877      2D2D2D2D 
 877      2D2D2042 
 877      6C696E6B 
 878 0093 0D0A00   		.ascii	"\015\012\000"
 879 0096 0000     		.space	2
 880              	.LC7:
 881 0098 7761726E 		.ascii	"warning\000"
 881      696E6700 
 882              	.LC8:
 883 00a0 2D2D2D2D 		.ascii	"-------------- Blinking warning enabled -----------"
 883      2D2D2D2D 
ARM GAS  C:\Users\DNIEL~1\AppData\Local\Temp\cceZPiI7.s 			page 17


 883      2D2D2D2D 
 883      2D2D2042 
 883      6C696E6B 
 884 00d3 2D2D2D0D 		.ascii	"---\015\012\000"
 884      0A00
 885 00d9 000000   		.space	3
 886              	.LC9:
 887 00dc 6272616B 		.ascii	"brakeon\000"
 887      656F6E00 
 888              	.LC10:
 889 00e4 2D2D2D2D 		.ascii	"-------------- Brake light enabled --------------\015"
 889      2D2D2D2D 
 889      2D2D2D2D 
 889      2D2D2042 
 889      72616B65 
 890 0116 0A00     		.ascii	"\012\000"
 891              	.LC11:
 892 0118 6272616B 		.ascii	"brakeoff\000"
 892      656F6666 
 892      00
 893 0121 000000   		.space	3
 894              	.LC12:
 895 0124 2D2D2D2D 		.ascii	"-------------- Brake light disabled --------------\015"
 895      2D2D2D2D 
 895      2D2D2D2D 
 895      2D2D2042 
 895      72616B65 
 896 0157 0A00     		.ascii	"\012\000"
 897 0159 000000   		.space	3
 898              	.LC13:
 899 015c 6C616D70 		.ascii	"lampon\000"
 899      6F6E00
 900 0163 00       		.space	1
 901              	.LC14:
 902 0164 2D2D2D2D 		.ascii	"-------------- Position lamp enabled --------------"
 902      2D2D2D2D 
 902      2D2D2D2D 
 902      2D2D2050 
 902      6F736974 
 903 0197 0D0A00   		.ascii	"\015\012\000"
 904 019a 0000     		.space	2
 905              	.LC15:
 906 019c 6C616D70 		.ascii	"lampoff\000"
 906      6F666600 
 907              	.LC16:
 908 01a4 2D2D2D2D 		.ascii	"-------------- Position lamp disabled -------------"
 908      2D2D2D2D 
 908      2D2D2D2D 
 908      2D2D2050 
 908      6F736974 
 909 01d7 2D0D0A00 		.ascii	"-\015\012\000"
 910 01db 00       		.space	1
 911              	.LC17:
 912 01dc 55736167 		.ascii	"Usage: light right\015\012\000"
 912      653A206C 
 912      69676874 
 912      20726967 
ARM GAS  C:\Users\DNIEL~1\AppData\Local\Temp\cceZPiI7.s 			page 18


 912      68740D0A 
 913 01f1 000000   		.space	3
 914              	.LC18:
 915 01f4 20202020 		.ascii	"       light left\015\012\000"
 915      2020206C 
 915      69676874 
 915      206C6566 
 915      740D0A00 
 916              	.LC19:
 917 0208 20202020 		.ascii	"       light warning\015\012\000"
 917      2020206C 
 917      69676874 
 917      20776172 
 917      6E696E67 
 918 021f 00       		.space	1
 919              	.LC20:
 920 0220 20202020 		.ascii	"       light brakeon\015\012\000"
 920      2020206C 
 920      69676874 
 920      20627261 
 920      6B656F6E 
 921 0237 00       		.space	1
 922              	.LC21:
 923 0238 20202020 		.ascii	"       light brakeoff\015\012\000"
 923      2020206C 
 923      69676874 
 923      20627261 
 923      6B656F66 
 924              	.LC22:
 925 0250 20202020 		.ascii	"       light lampon\015\012\000"
 925      2020206C 
 925      69676874 
 925      206C616D 
 925      706F6E0D 
 926 0266 0000     		.space	2
 927              	.LC23:
 928 0268 20202020 		.ascii	"       light lampoff\015\012\000"
 928      2020206C 
 928      69676874 
 928      206C616D 
 928      706F6666 
 929 027f 00       		.section	.bss.lightsOn,"aw",%nobits
 930              		.set	.LANCHOR3,. + 0
 931              		.type	lightsOn, %object
 932              		.size	lightsOn, 1
 933              	lightsOn:
 934 0000 00       		.space	1
 935              		.section	.bss.lightchanels,"aw",%nobits
 936              		.align	2
 937              		.set	.LANCHOR5,. + 0
 938              		.type	lightchanels, %object
 939              		.size	lightchanels, 6
 940              	lightchanels:
 941 0000 00000000 		.space	6
 941      0000
 942 0006 0000     		.section	.bss.brakeOn,"aw",%nobits
 943              		.set	.LANCHOR4,. + 0
ARM GAS  C:\Users\DNIEL~1\AppData\Local\Temp\cceZPiI7.s 			page 19


 944              		.type	brakeOn, %object
 945              		.size	brakeOn, 1
 946              	brakeOn:
 947 0000 00       		.space	1
 948              		.section	.bss.period_num,"aw",%nobits
 949              		.align	2
 950              		.set	.LANCHOR2,. + 0
 951              		.type	period_num, %object
 952              		.size	period_num, 4
 953              	period_num:
 954 0000 00000000 		.space	4
 955              		.text
 956              	.Letext0:
 957              		.section	.debug_loc,"",%progbits
 958              	.Ldebug_loc0:
 959              	.LLST0:
 960 0000 00000000 		.4byte	.LFB118
 961 0004 02000000 		.4byte	.LCFI0
 962 0008 0200     		.2byte	0x2
 963 000a 7D       		.byte	0x7d
 964 000b 00       		.sleb128 0
 965 000c 02000000 		.4byte	.LCFI0
 966 0010 04000000 		.4byte	.LCFI1
 967 0014 0200     		.2byte	0x2
 968 0016 7D       		.byte	0x7d
 969 0017 0C       		.sleb128 12
 970 0018 04000000 		.4byte	.LCFI1
 971 001c 06000000 		.4byte	.LCFI2
 972 0020 0200     		.2byte	0x2
 973 0022 7D       		.byte	0x7d
 974 0023 10       		.sleb128 16
 975 0024 06000000 		.4byte	.LCFI2
 976 0028 1E000000 		.4byte	.LFE118
 977 002c 0200     		.2byte	0x2
 978 002e 7D       		.byte	0x7d
 979 002f 18       		.sleb128 24
 980 0030 00000000 		.4byte	0x0
 981 0034 00000000 		.4byte	0x0
 982              	.LLST1:
 983 0038 00000000 		.4byte	.LVL0
 984 003c 13000000 		.4byte	.LVL1-1
 985 0040 0100     		.2byte	0x1
 986 0042 50       		.byte	0x50
 987 0043 00000000 		.4byte	0x0
 988 0047 00000000 		.4byte	0x0
 989              	.LLST2:
 990 004b 00000000 		.4byte	.LFB119
 991 004f 08000000 		.4byte	.LCFI3
 992 0053 0200     		.2byte	0x2
 993 0055 7D       		.byte	0x7d
 994 0056 00       		.sleb128 0
 995 0057 08000000 		.4byte	.LCFI3
 996 005b 3C000000 		.4byte	.LFE119
 997 005f 0200     		.2byte	0x2
 998 0061 7D       		.byte	0x7d
 999 0062 10       		.sleb128 16
 1000 0063 00000000 		.4byte	0x0
ARM GAS  C:\Users\DNIEL~1\AppData\Local\Temp\cceZPiI7.s 			page 20


 1001 0067 00000000 		.4byte	0x0
 1002              	.LLST3:
 1003 006b 00000000 		.4byte	.LFB120
 1004 006f 02000000 		.4byte	.LCFI4
 1005 0073 0200     		.2byte	0x2
 1006 0075 7D       		.byte	0x7d
 1007 0076 00       		.sleb128 0
 1008 0077 02000000 		.4byte	.LCFI4
 1009 007b E8000000 		.4byte	.LFE120
 1010 007f 0200     		.2byte	0x2
 1011 0081 7D       		.byte	0x7d
 1012 0082 08       		.sleb128 8
 1013 0083 00000000 		.4byte	0x0
 1014 0087 00000000 		.4byte	0x0
 1015              	.LLST4:
 1016 008b 00000000 		.4byte	.LFB128
 1017 008f 04000000 		.4byte	.LCFI5
 1018 0093 0200     		.2byte	0x2
 1019 0095 7D       		.byte	0x7d
 1020 0096 00       		.sleb128 0
 1021 0097 04000000 		.4byte	.LCFI5
 1022 009b D4010000 		.4byte	.LFE128
 1023 009f 0200     		.2byte	0x2
 1024 00a1 7D       		.byte	0x7d
 1025 00a2 18       		.sleb128 24
 1026 00a3 00000000 		.4byte	0x0
 1027 00a7 00000000 		.4byte	0x0
 1028              	.LLST5:
 1029 00ab 00000000 		.4byte	.LVL2
 1030 00af 0F000000 		.4byte	.LVL4-1
 1031 00b3 0100     		.2byte	0x1
 1032 00b5 50       		.byte	0x50
 1033 00b6 0F000000 		.4byte	.LVL4-1
 1034 00ba D4010000 		.4byte	.LFE128
 1035 00be 0100     		.2byte	0x1
 1036 00c0 54       		.byte	0x54
 1037 00c1 00000000 		.4byte	0x0
 1038 00c5 00000000 		.4byte	0x0
 1039              	.LLST6:
 1040 00c9 00000000 		.4byte	.LVL2
 1041 00cd 0A000000 		.4byte	.LVL3
 1042 00d1 0100     		.2byte	0x1
 1043 00d3 51       		.byte	0x51
 1044 00d4 0A000000 		.4byte	.LVL3
 1045 00d8 28000000 		.4byte	.LVL5
 1046 00dc 0100     		.2byte	0x1
 1047 00de 55       		.byte	0x55
 1048 00df 64000000 		.4byte	.LVL6
 1049 00e3 CC000000 		.4byte	.LVL8
 1050 00e7 0100     		.2byte	0x1
 1051 00e9 55       		.byte	0x55
 1052 00ea E0000000 		.4byte	.LVL9
 1053 00ee D4010000 		.4byte	.LFE128
 1054 00f2 0100     		.2byte	0x1
 1055 00f4 55       		.byte	0x55
 1056 00f5 00000000 		.4byte	0x0
 1057 00f9 00000000 		.4byte	0x0
ARM GAS  C:\Users\DNIEL~1\AppData\Local\Temp\cceZPiI7.s 			page 21


 1058              	.LLST7:
 1059 00fd 00000000 		.4byte	.LVL2
 1060 0101 0F000000 		.4byte	.LVL4-1
 1061 0105 0100     		.2byte	0x1
 1062 0107 52       		.byte	0x52
 1063 0108 0F000000 		.4byte	.LVL4-1
 1064 010c 28000000 		.4byte	.LVL5
 1065 0110 0100     		.2byte	0x1
 1066 0112 56       		.byte	0x56
 1067 0113 64000000 		.4byte	.LVL6
 1068 0117 76000000 		.4byte	.LVL7
 1069 011b 0100     		.2byte	0x1
 1070 011d 56       		.byte	0x56
 1071 011e 00000000 		.4byte	0x0
 1072 0122 00000000 		.4byte	0x0
 1073              		.file 3 "c:\\program files (x86)\\codesourcery\\sourcery g++ lite\\bin\\../lib/gcc/arm-none-eabi/4
 1074              		.file 4 "c:\\program files (x86)\\codesourcery\\sourcery g++ lite\\bin\\../lib/gcc/arm-none-eabi/4
 1075              		.file 5 "../../../Chibios/os/ports/GCC/ARMCMx/chtypes.h"
 1076              		.file 6 "../../../Chibios/os/kernel/include/chstreams.h"
 1077              		.file 7 "../../../Chibios/os/hal/include/io_channel.h"
 1078              		.file 8 "../../../Chibios/os/hal/include/pwm.h"
 1079              		.file 9 "../../../Chibios/os/hal/platforms/STM32/TIMv1/pwm_lld.h"
 1080              		.file 10 "../../../Chibios/os/hal/platforms/STM32/TIMv1/stm32_tim.h"
 1081              		.file 11 "c:\\program files (x86)\\codesourcery\\sourcery g++ lite\\bin\\../lib/gcc/arm-none-eabi/
 1082              		.file 12 "<built-in>"
 1083              		.file 13 "../../../Chibios/os/ports/common/ARMCMx/CMSIS/include/core_cm4.h"
 1084              		.section	.debug_info
 1085 0000 83090000 		.4byte	0x983
 1086 0004 0200     		.2byte	0x2
 1087 0006 00000000 		.4byte	.Ldebug_abbrev0
 1088 000a 04       		.byte	0x4
 1089 000b 01       		.uleb128 0x1
 1090 000c DA020000 		.4byte	.LASF91
 1091 0010 01       		.byte	0x1
 1092 0011 94020000 		.4byte	.LASF92
 1093 0015 7C030000 		.4byte	.LASF93
 1094 0019 00000000 		.4byte	0x0
 1095 001d 00000000 		.4byte	0x0
 1096 0021 18000000 		.4byte	.Ldebug_ranges0+0x18
 1097 0025 00000000 		.4byte	.Ldebug_line0
 1098 0029 02       		.uleb128 0x2
 1099 002a 04       		.byte	0x4
 1100 002b 05       		.byte	0x5
 1101 002c 696E7400 		.ascii	"int\000"
 1102 0030 03       		.uleb128 0x3
 1103 0031 41000000 		.4byte	.LASF2
 1104 0035 03       		.byte	0x3
 1105 0036 D3       		.byte	0xd3
 1106 0037 3B000000 		.4byte	0x3b
 1107 003b 04       		.uleb128 0x4
 1108 003c 04       		.byte	0x4
 1109 003d 07       		.byte	0x7
 1110 003e CD010000 		.4byte	.LASF0
 1111 0042 04       		.uleb128 0x4
 1112 0043 01       		.byte	0x1
 1113 0044 06       		.byte	0x6
 1114 0045 88010000 		.4byte	.LASF1
ARM GAS  C:\Users\DNIEL~1\AppData\Local\Temp\cceZPiI7.s 			page 22


 1115 0049 03       		.uleb128 0x3
 1116 004a 95000000 		.4byte	.LASF3
 1117 004e 04       		.byte	0x4
 1118 004f 2A       		.byte	0x2a
 1119 0050 54000000 		.4byte	0x54
 1120 0054 04       		.uleb128 0x4
 1121 0055 01       		.byte	0x1
 1122 0056 08       		.byte	0x8
 1123 0057 68010000 		.4byte	.LASF4
 1124 005b 04       		.uleb128 0x4
 1125 005c 02       		.byte	0x2
 1126 005d 05       		.byte	0x5
 1127 005e 37000000 		.4byte	.LASF5
 1128 0062 03       		.uleb128 0x3
 1129 0063 DF010000 		.4byte	.LASF6
 1130 0067 04       		.byte	0x4
 1131 0068 36       		.byte	0x36
 1132 0069 6D000000 		.4byte	0x6d
 1133 006d 04       		.uleb128 0x4
 1134 006e 02       		.byte	0x2
 1135 006f 07       		.byte	0x7
 1136 0070 0E020000 		.4byte	.LASF7
 1137 0074 03       		.uleb128 0x3
 1138 0075 56020000 		.4byte	.LASF8
 1139 0079 04       		.byte	0x4
 1140 007a 4F       		.byte	0x4f
 1141 007b 7F000000 		.4byte	0x7f
 1142 007f 04       		.uleb128 0x4
 1143 0080 04       		.byte	0x4
 1144 0081 05       		.byte	0x5
 1145 0082 01010000 		.4byte	.LASF9
 1146 0086 03       		.uleb128 0x3
 1147 0087 B4010000 		.4byte	.LASF10
 1148 008b 04       		.byte	0x4
 1149 008c 50       		.byte	0x50
 1150 008d 91000000 		.4byte	0x91
 1151 0091 04       		.uleb128 0x4
 1152 0092 04       		.byte	0x4
 1153 0093 07       		.byte	0x7
 1154 0094 A9020000 		.4byte	.LASF11
 1155 0098 04       		.uleb128 0x4
 1156 0099 08       		.byte	0x8
 1157 009a 05       		.byte	0x5
 1158 009b E9000000 		.4byte	.LASF12
 1159 009f 03       		.uleb128 0x3
 1160 00a0 94010000 		.4byte	.LASF13
 1161 00a4 04       		.byte	0x4
 1162 00a5 78       		.byte	0x78
 1163 00a6 AA000000 		.4byte	0xaa
 1164 00aa 04       		.uleb128 0x4
 1165 00ab 08       		.byte	0x8
 1166 00ac 07       		.byte	0x7
 1167 00ad 9D010000 		.4byte	.LASF14
 1168 00b1 03       		.uleb128 0x3
 1169 00b2 5E020000 		.4byte	.LASF15
 1170 00b6 05       		.byte	0x5
 1171 00b7 2B       		.byte	0x2b
ARM GAS  C:\Users\DNIEL~1\AppData\Local\Temp\cceZPiI7.s 			page 23


 1172 00b8 BC000000 		.4byte	0xbc
 1173 00bc 04       		.uleb128 0x4
 1174 00bd 01       		.byte	0x1
 1175 00be 02       		.byte	0x2
 1176 00bf 74020000 		.4byte	.LASF16
 1177 00c3 03       		.uleb128 0x3
 1178 00c4 CB030000 		.4byte	.LASF17
 1179 00c8 05       		.byte	0x5
 1180 00c9 31       		.byte	0x31
 1181 00ca 74000000 		.4byte	0x74
 1182 00ce 03       		.uleb128 0x3
 1183 00cf 2B020000 		.4byte	.LASF18
 1184 00d3 05       		.byte	0x5
 1185 00d4 35       		.byte	0x35
 1186 00d5 86000000 		.4byte	0x86
 1187 00d9 05       		.uleb128 0x5
 1188 00da 04       		.byte	0x4
 1189 00db 06       		.uleb128 0x6
 1190 00dc 86000000 		.4byte	0x86
 1191 00e0 07       		.uleb128 0x7
 1192 00e1 04       		.byte	0x4
 1193 00e2 E6000000 		.4byte	0xe6
 1194 00e6 08       		.uleb128 0x8
 1195 00e7 EB000000 		.4byte	0xeb
 1196 00eb 04       		.uleb128 0x4
 1197 00ec 01       		.byte	0x1
 1198 00ed 08       		.byte	0x8
 1199 00ee 3B020000 		.4byte	.LASF19
 1200 00f2 07       		.uleb128 0x7
 1201 00f3 04       		.byte	0x4
 1202 00f4 F8000000 		.4byte	0xf8
 1203 00f8 09       		.uleb128 0x9
 1204 00f9 01       		.byte	0x1
 1205 00fa C3000000 		.4byte	0xc3
 1206 00fe 08010000 		.4byte	0x108
 1207 0102 0A       		.uleb128 0xa
 1208 0103 D9000000 		.4byte	0xd9
 1209 0107 00       		.byte	0x0
 1210 0108 07       		.uleb128 0x7
 1211 0109 04       		.byte	0x4
 1212 010a 49000000 		.4byte	0x49
 1213 010e 0B       		.uleb128 0xb
 1214 010f CC000000 		.4byte	.LASF23
 1215 0113 10       		.byte	0x10
 1216 0114 06       		.byte	0x6
 1217 0115 48       		.byte	0x48
 1218 0116 53010000 		.4byte	0x153
 1219 011a 0C       		.uleb128 0xc
 1220 011b 05000000 		.4byte	.LASF20
 1221 011f 06       		.byte	0x6
 1222 0120 49       		.byte	0x49
 1223 0121 78010000 		.4byte	0x178
 1224 0125 02       		.byte	0x2
 1225 0126 23       		.byte	0x23
 1226 0127 00       		.uleb128 0x0
 1227 0128 0C       		.uleb128 0xc
 1228 0129 E4000000 		.4byte	.LASF21
ARM GAS  C:\Users\DNIEL~1\AppData\Local\Temp\cceZPiI7.s 			page 24


 1229 012d 06       		.byte	0x6
 1230 012e 49       		.byte	0x49
 1231 012f 98010000 		.4byte	0x198
 1232 0133 02       		.byte	0x2
 1233 0134 23       		.byte	0x23
 1234 0135 04       		.uleb128 0x4
 1235 0136 0D       		.uleb128 0xd
 1236 0137 70757400 		.ascii	"put\000"
 1237 013b 06       		.byte	0x6
 1238 013c 49       		.byte	0x49
 1239 013d B3010000 		.4byte	0x1b3
 1240 0141 02       		.byte	0x2
 1241 0142 23       		.byte	0x23
 1242 0143 08       		.uleb128 0x8
 1243 0144 0D       		.uleb128 0xd
 1244 0145 67657400 		.ascii	"get\000"
 1245 0149 06       		.byte	0x6
 1246 014a 49       		.byte	0x49
 1247 014b F2000000 		.4byte	0xf2
 1248 014f 02       		.byte	0x2
 1249 0150 23       		.byte	0x23
 1250 0151 0C       		.uleb128 0xc
 1251 0152 00       		.byte	0x0
 1252 0153 09       		.uleb128 0x9
 1253 0154 01       		.byte	0x1
 1254 0155 30000000 		.4byte	0x30
 1255 0159 6D010000 		.4byte	0x16d
 1256 015d 0A       		.uleb128 0xa
 1257 015e D9000000 		.4byte	0xd9
 1258 0162 0A       		.uleb128 0xa
 1259 0163 6D010000 		.4byte	0x16d
 1260 0167 0A       		.uleb128 0xa
 1261 0168 30000000 		.4byte	0x30
 1262 016c 00       		.byte	0x0
 1263 016d 07       		.uleb128 0x7
 1264 016e 04       		.byte	0x4
 1265 016f 73010000 		.4byte	0x173
 1266 0173 08       		.uleb128 0x8
 1267 0174 49000000 		.4byte	0x49
 1268 0178 07       		.uleb128 0x7
 1269 0179 04       		.byte	0x4
 1270 017a 53010000 		.4byte	0x153
 1271 017e 09       		.uleb128 0x9
 1272 017f 01       		.byte	0x1
 1273 0180 30000000 		.4byte	0x30
 1274 0184 98010000 		.4byte	0x198
 1275 0188 0A       		.uleb128 0xa
 1276 0189 D9000000 		.4byte	0xd9
 1277 018d 0A       		.uleb128 0xa
 1278 018e 08010000 		.4byte	0x108
 1279 0192 0A       		.uleb128 0xa
 1280 0193 30000000 		.4byte	0x30
 1281 0197 00       		.byte	0x0
 1282 0198 07       		.uleb128 0x7
 1283 0199 04       		.byte	0x4
 1284 019a 7E010000 		.4byte	0x17e
 1285 019e 09       		.uleb128 0x9
ARM GAS  C:\Users\DNIEL~1\AppData\Local\Temp\cceZPiI7.s 			page 25


 1286 019f 01       		.byte	0x1
 1287 01a0 C3000000 		.4byte	0xc3
 1288 01a4 B3010000 		.4byte	0x1b3
 1289 01a8 0A       		.uleb128 0xa
 1290 01a9 D9000000 		.4byte	0xd9
 1291 01ad 0A       		.uleb128 0xa
 1292 01ae 49000000 		.4byte	0x49
 1293 01b2 00       		.byte	0x0
 1294 01b3 07       		.uleb128 0x7
 1295 01b4 04       		.byte	0x4
 1296 01b5 9E010000 		.4byte	0x19e
 1297 01b9 0E       		.uleb128 0xe
 1298 01ba 04       		.byte	0x4
 1299 01bb 06       		.byte	0x6
 1300 01bc 51       		.byte	0x51
 1301 01bd D0010000 		.4byte	0x1d0
 1302 01c1 0D       		.uleb128 0xd
 1303 01c2 766D7400 		.ascii	"vmt\000"
 1304 01c6 06       		.byte	0x6
 1305 01c7 53       		.byte	0x53
 1306 01c8 D0010000 		.4byte	0x1d0
 1307 01cc 02       		.byte	0x2
 1308 01cd 23       		.byte	0x23
 1309 01ce 00       		.uleb128 0x0
 1310 01cf 00       		.byte	0x0
 1311 01d0 07       		.uleb128 0x7
 1312 01d1 04       		.byte	0x4
 1313 01d2 D6010000 		.4byte	0x1d6
 1314 01d6 08       		.uleb128 0x8
 1315 01d7 0E010000 		.4byte	0x10e
 1316 01db 03       		.uleb128 0x3
 1317 01dc 51000000 		.4byte	.LASF22
 1318 01e0 06       		.byte	0x6
 1319 01e1 55       		.byte	0x55
 1320 01e2 B9010000 		.4byte	0x1b9
 1321 01e6 0F       		.uleb128 0xf
 1322 01e7 86000000 		.4byte	0x86
 1323 01eb F6010000 		.4byte	0x1f6
 1324 01ef 10       		.uleb128 0x10
 1325 01f0 3B000000 		.4byte	0x3b
 1326 01f4 03       		.byte	0x3
 1327 01f5 00       		.byte	0x0
 1328 01f6 06       		.uleb128 0x6
 1329 01f7 74000000 		.4byte	0x74
 1330 01fb 0B       		.uleb128 0xb
 1331 01fc 9D000000 		.4byte	.LASF24
 1332 0200 20       		.byte	0x20
 1333 0201 07       		.byte	0x7
 1334 0202 4E       		.byte	0x4e
 1335 0203 78020000 		.4byte	0x278
 1336 0207 0C       		.uleb128 0xc
 1337 0208 05000000 		.4byte	.LASF20
 1338 020c 07       		.byte	0x7
 1339 020d 4F       		.byte	0x4f
 1340 020e 78010000 		.4byte	0x178
 1341 0212 02       		.byte	0x2
 1342 0213 23       		.byte	0x23
ARM GAS  C:\Users\DNIEL~1\AppData\Local\Temp\cceZPiI7.s 			page 26


 1343 0214 00       		.uleb128 0x0
 1344 0215 0C       		.uleb128 0xc
 1345 0216 E4000000 		.4byte	.LASF21
 1346 021a 07       		.byte	0x7
 1347 021b 4F       		.byte	0x4f
 1348 021c 98010000 		.4byte	0x198
 1349 0220 02       		.byte	0x2
 1350 0221 23       		.byte	0x23
 1351 0222 04       		.uleb128 0x4
 1352 0223 0D       		.uleb128 0xd
 1353 0224 70757400 		.ascii	"put\000"
 1354 0228 07       		.byte	0x7
 1355 0229 4F       		.byte	0x4f
 1356 022a B3010000 		.4byte	0x1b3
 1357 022e 02       		.byte	0x2
 1358 022f 23       		.byte	0x23
 1359 0230 08       		.uleb128 0x8
 1360 0231 0D       		.uleb128 0xd
 1361 0232 67657400 		.ascii	"get\000"
 1362 0236 07       		.byte	0x7
 1363 0237 4F       		.byte	0x4f
 1364 0238 F2000000 		.4byte	0xf2
 1365 023c 02       		.byte	0x2
 1366 023d 23       		.byte	0x23
 1367 023e 0C       		.uleb128 0xc
 1368 023f 0C       		.uleb128 0xc
 1369 0240 FF010000 		.4byte	.LASF25
 1370 0244 07       		.byte	0x7
 1371 0245 4F       		.byte	0x4f
 1372 0246 92020000 		.4byte	0x292
 1373 024a 02       		.byte	0x2
 1374 024b 23       		.byte	0x23
 1375 024c 10       		.uleb128 0x10
 1376 024d 0C       		.uleb128 0xc
 1377 024e 14010000 		.4byte	.LASF26
 1378 0252 07       		.byte	0x7
 1379 0253 4F       		.byte	0x4f
 1380 0254 AD020000 		.4byte	0x2ad
 1381 0258 02       		.byte	0x2
 1382 0259 23       		.byte	0x23
 1383 025a 14       		.uleb128 0x14
 1384 025b 0C       		.uleb128 0xc
 1385 025c 76000000 		.4byte	.LASF27
 1386 0260 07       		.byte	0x7
 1387 0261 4F       		.byte	0x4f
 1388 0262 D2020000 		.4byte	0x2d2
 1389 0266 02       		.byte	0x2
 1390 0267 23       		.byte	0x23
 1391 0268 18       		.uleb128 0x18
 1392 0269 0C       		.uleb128 0xc
 1393 026a 35020000 		.4byte	.LASF28
 1394 026e 07       		.byte	0x7
 1395 026f 4F       		.byte	0x4f
 1396 0270 F7020000 		.4byte	0x2f7
 1397 0274 02       		.byte	0x2
 1398 0275 23       		.byte	0x23
 1399 0276 1C       		.uleb128 0x1c
ARM GAS  C:\Users\DNIEL~1\AppData\Local\Temp\cceZPiI7.s 			page 27


 1400 0277 00       		.byte	0x0
 1401 0278 09       		.uleb128 0x9
 1402 0279 01       		.byte	0x1
 1403 027a C3000000 		.4byte	0xc3
 1404 027e 92020000 		.4byte	0x292
 1405 0282 0A       		.uleb128 0xa
 1406 0283 D9000000 		.4byte	0xd9
 1407 0287 0A       		.uleb128 0xa
 1408 0288 49000000 		.4byte	0x49
 1409 028c 0A       		.uleb128 0xa
 1410 028d CE000000 		.4byte	0xce
 1411 0291 00       		.byte	0x0
 1412 0292 07       		.uleb128 0x7
 1413 0293 04       		.byte	0x4
 1414 0294 78020000 		.4byte	0x278
 1415 0298 09       		.uleb128 0x9
 1416 0299 01       		.byte	0x1
 1417 029a C3000000 		.4byte	0xc3
 1418 029e AD020000 		.4byte	0x2ad
 1419 02a2 0A       		.uleb128 0xa
 1420 02a3 D9000000 		.4byte	0xd9
 1421 02a7 0A       		.uleb128 0xa
 1422 02a8 CE000000 		.4byte	0xce
 1423 02ac 00       		.byte	0x0
 1424 02ad 07       		.uleb128 0x7
 1425 02ae 04       		.byte	0x4
 1426 02af 98020000 		.4byte	0x298
 1427 02b3 09       		.uleb128 0x9
 1428 02b4 01       		.byte	0x1
 1429 02b5 30000000 		.4byte	0x30
 1430 02b9 D2020000 		.4byte	0x2d2
 1431 02bd 0A       		.uleb128 0xa
 1432 02be D9000000 		.4byte	0xd9
 1433 02c2 0A       		.uleb128 0xa
 1434 02c3 6D010000 		.4byte	0x16d
 1435 02c7 0A       		.uleb128 0xa
 1436 02c8 30000000 		.4byte	0x30
 1437 02cc 0A       		.uleb128 0xa
 1438 02cd CE000000 		.4byte	0xce
 1439 02d1 00       		.byte	0x0
 1440 02d2 07       		.uleb128 0x7
 1441 02d3 04       		.byte	0x4
 1442 02d4 B3020000 		.4byte	0x2b3
 1443 02d8 09       		.uleb128 0x9
 1444 02d9 01       		.byte	0x1
 1445 02da 30000000 		.4byte	0x30
 1446 02de F7020000 		.4byte	0x2f7
 1447 02e2 0A       		.uleb128 0xa
 1448 02e3 D9000000 		.4byte	0xd9
 1449 02e7 0A       		.uleb128 0xa
 1450 02e8 08010000 		.4byte	0x108
 1451 02ec 0A       		.uleb128 0xa
 1452 02ed 30000000 		.4byte	0x30
 1453 02f1 0A       		.uleb128 0xa
 1454 02f2 CE000000 		.4byte	0xce
 1455 02f6 00       		.byte	0x0
 1456 02f7 07       		.uleb128 0x7
ARM GAS  C:\Users\DNIEL~1\AppData\Local\Temp\cceZPiI7.s 			page 28


 1457 02f8 04       		.byte	0x4
 1458 02f9 D8020000 		.4byte	0x2d8
 1459 02fd 0E       		.uleb128 0xe
 1460 02fe 04       		.byte	0x4
 1461 02ff 07       		.byte	0x7
 1462 0300 59       		.byte	0x59
 1463 0301 14030000 		.4byte	0x314
 1464 0305 0D       		.uleb128 0xd
 1465 0306 766D7400 		.ascii	"vmt\000"
 1466 030a 07       		.byte	0x7
 1467 030b 5B       		.byte	0x5b
 1468 030c 14030000 		.4byte	0x314
 1469 0310 02       		.byte	0x2
 1470 0311 23       		.byte	0x23
 1471 0312 00       		.uleb128 0x0
 1472 0313 00       		.byte	0x0
 1473 0314 07       		.uleb128 0x7
 1474 0315 04       		.byte	0x4
 1475 0316 1A030000 		.4byte	0x31a
 1476 031a 08       		.uleb128 0x8
 1477 031b FB010000 		.4byte	0x1fb
 1478 031f 03       		.uleb128 0x3
 1479 0320 59030000 		.4byte	.LASF29
 1480 0324 07       		.byte	0x7
 1481 0325 5D       		.byte	0x5d
 1482 0326 FD020000 		.4byte	0x2fd
 1483 032a 11       		.uleb128 0x11
 1484 032b 01       		.byte	0x1
 1485 032c 08       		.byte	0x8
 1486 032d 55       		.byte	0x55
 1487 032e 45030000 		.4byte	0x345
 1488 0332 12       		.uleb128 0x12
 1489 0333 5D010000 		.4byte	.LASF30
 1490 0337 00       		.sleb128 0
 1491 0338 12       		.uleb128 0x12
 1492 0339 0D030000 		.4byte	.LASF31
 1493 033d 01       		.sleb128 1
 1494 033e 12       		.uleb128 0x12
 1495 033f FC020000 		.4byte	.LASF32
 1496 0343 02       		.sleb128 2
 1497 0344 00       		.byte	0x0
 1498 0345 03       		.uleb128 0x3
 1499 0346 B2030000 		.4byte	.LASF33
 1500 034a 08       		.byte	0x8
 1501 034b 59       		.byte	0x59
 1502 034c 2A030000 		.4byte	0x32a
 1503 0350 03       		.uleb128 0x3
 1504 0351 4C020000 		.4byte	.LASF34
 1505 0355 08       		.byte	0x8
 1506 0356 5E       		.byte	0x5e
 1507 0357 5B030000 		.4byte	0x35b
 1508 035b 13       		.uleb128 0x13
 1509 035c 4C020000 		.4byte	.LASF34
 1510 0360 14       		.byte	0x14
 1511 0361 09       		.byte	0x9
 1512 0362 6F01     		.2byte	0x16f
 1513 0364 B4030000 		.4byte	0x3b4
ARM GAS  C:\Users\DNIEL~1\AppData\Local\Temp\cceZPiI7.s 			page 29


 1514 0368 14       		.uleb128 0x14
 1515 0369 25000000 		.4byte	.LASF35
 1516 036d 09       		.byte	0x9
 1517 036e 7301     		.2byte	0x173
 1518 0370 45030000 		.4byte	0x345
 1519 0374 02       		.byte	0x2
 1520 0375 23       		.byte	0x23
 1521 0376 00       		.uleb128 0x0
 1522 0377 14       		.uleb128 0x14
 1523 0378 7D000000 		.4byte	.LASF36
 1524 037c 09       		.byte	0x9
 1525 037d 7701     		.2byte	0x177
 1526 037f F7050000 		.4byte	0x5f7
 1527 0383 02       		.byte	0x2
 1528 0384 23       		.byte	0x23
 1529 0385 04       		.uleb128 0x4
 1530 0386 14       		.uleb128 0x14
 1531 0387 52030000 		.4byte	.LASF37
 1532 038b 09       		.byte	0x9
 1533 038c 7B01     		.2byte	0x17b
 1534 038e 37050000 		.4byte	0x537
 1535 0392 02       		.byte	0x2
 1536 0393 23       		.byte	0x23
 1537 0394 08       		.uleb128 0x8
 1538 0395 14       		.uleb128 0x14
 1539 0396 BB020000 		.4byte	.LASF38
 1540 039a 09       		.byte	0x9
 1541 039b 8301     		.2byte	0x183
 1542 039d 86000000 		.4byte	0x86
 1543 03a1 02       		.byte	0x2
 1544 03a2 23       		.byte	0x23
 1545 03a3 0C       		.uleb128 0xc
 1546 03a4 15       		.uleb128 0x15
 1547 03a5 74696D00 		.ascii	"tim\000"
 1548 03a9 09       		.byte	0x9
 1549 03aa 8701     		.2byte	0x187
 1550 03ac 02060000 		.4byte	0x602
 1551 03b0 02       		.byte	0x2
 1552 03b1 23       		.byte	0x23
 1553 03b2 10       		.uleb128 0x10
 1554 03b3 00       		.byte	0x0
 1555 03b4 03       		.uleb128 0x3
 1556 03b5 BD030000 		.4byte	.LASF39
 1557 03b9 08       		.byte	0x8
 1558 03ba 65       		.byte	0x65
 1559 03bb BF030000 		.4byte	0x3bf
 1560 03bf 07       		.uleb128 0x7
 1561 03c0 04       		.byte	0x4
 1562 03c1 C5030000 		.4byte	0x3c5
 1563 03c5 16       		.uleb128 0x16
 1564 03c6 01       		.byte	0x1
 1565 03c7 D1030000 		.4byte	0x3d1
 1566 03cb 0A       		.uleb128 0xa
 1567 03cc D1030000 		.4byte	0x3d1
 1568 03d0 00       		.byte	0x0
 1569 03d1 07       		.uleb128 0x7
 1570 03d2 04       		.byte	0x4
ARM GAS  C:\Users\DNIEL~1\AppData\Local\Temp\cceZPiI7.s 			page 30


 1571 03d3 50030000 		.4byte	0x350
 1572 03d7 17       		.uleb128 0x17
 1573 03d8 60       		.byte	0x60
 1574 03d9 0A       		.byte	0xa
 1575 03da 9E01     		.2byte	0x19e
 1576 03dc 1A050000 		.4byte	0x51a
 1577 03e0 15       		.uleb128 0x15
 1578 03e1 43523100 		.ascii	"CR1\000"
 1579 03e5 0A       		.byte	0xa
 1580 03e6 9F01     		.2byte	0x19f
 1581 03e8 DB000000 		.4byte	0xdb
 1582 03ec 02       		.byte	0x2
 1583 03ed 23       		.byte	0x23
 1584 03ee 00       		.uleb128 0x0
 1585 03ef 15       		.uleb128 0x15
 1586 03f0 43523200 		.ascii	"CR2\000"
 1587 03f4 0A       		.byte	0xa
 1588 03f5 A001     		.2byte	0x1a0
 1589 03f7 DB000000 		.4byte	0xdb
 1590 03fb 02       		.byte	0x2
 1591 03fc 23       		.byte	0x23
 1592 03fd 04       		.uleb128 0x4
 1593 03fe 14       		.uleb128 0x14
 1594 03ff 58010000 		.4byte	.LASF40
 1595 0403 0A       		.byte	0xa
 1596 0404 A101     		.2byte	0x1a1
 1597 0406 DB000000 		.4byte	0xdb
 1598 040a 02       		.byte	0x2
 1599 040b 23       		.byte	0x23
 1600 040c 08       		.uleb128 0x8
 1601 040d 14       		.uleb128 0x14
 1602 040e 04020000 		.4byte	.LASF41
 1603 0412 0A       		.byte	0xa
 1604 0413 A201     		.2byte	0x1a2
 1605 0415 DB000000 		.4byte	0xdb
 1606 0419 02       		.byte	0x2
 1607 041a 23       		.byte	0x23
 1608 041b 0C       		.uleb128 0xc
 1609 041c 15       		.uleb128 0x15
 1610 041d 535200   		.ascii	"SR\000"
 1611 0420 0A       		.byte	0xa
 1612 0421 A301     		.2byte	0x1a3
 1613 0423 DB000000 		.4byte	0xdb
 1614 0427 02       		.byte	0x2
 1615 0428 23       		.byte	0x23
 1616 0429 10       		.uleb128 0x10
 1617 042a 15       		.uleb128 0x15
 1618 042b 45475200 		.ascii	"EGR\000"
 1619 042f 0A       		.byte	0xa
 1620 0430 A401     		.2byte	0x1a4
 1621 0432 DB000000 		.4byte	0xdb
 1622 0436 02       		.byte	0x2
 1623 0437 23       		.byte	0x23
 1624 0438 14       		.uleb128 0x14
 1625 0439 14       		.uleb128 0x14
 1626 043a 27010000 		.4byte	.LASF42
 1627 043e 0A       		.byte	0xa
ARM GAS  C:\Users\DNIEL~1\AppData\Local\Temp\cceZPiI7.s 			page 31


 1628 043f A501     		.2byte	0x1a5
 1629 0441 DB000000 		.4byte	0xdb
 1630 0445 02       		.byte	0x2
 1631 0446 23       		.byte	0x23
 1632 0447 18       		.uleb128 0x18
 1633 0448 14       		.uleb128 0x14
 1634 0449 2B000000 		.4byte	.LASF43
 1635 044d 0A       		.byte	0xa
 1636 044e A601     		.2byte	0x1a6
 1637 0450 DB000000 		.4byte	0xdb
 1638 0454 02       		.byte	0x2
 1639 0455 23       		.byte	0x23
 1640 0456 1C       		.uleb128 0x1c
 1641 0457 14       		.uleb128 0x14
 1642 0458 00000000 		.4byte	.LASF44
 1643 045c 0A       		.byte	0xa
 1644 045d A701     		.2byte	0x1a7
 1645 045f DB000000 		.4byte	0xdb
 1646 0463 02       		.byte	0x2
 1647 0464 23       		.byte	0x23
 1648 0465 20       		.uleb128 0x20
 1649 0466 15       		.uleb128 0x15
 1650 0467 434E5400 		.ascii	"CNT\000"
 1651 046b 0A       		.byte	0xa
 1652 046c A801     		.2byte	0x1a8
 1653 046e DB000000 		.4byte	0xdb
 1654 0472 02       		.byte	0x2
 1655 0473 23       		.byte	0x23
 1656 0474 24       		.uleb128 0x24
 1657 0475 15       		.uleb128 0x15
 1658 0476 50534300 		.ascii	"PSC\000"
 1659 047a 0A       		.byte	0xa
 1660 047b A901     		.2byte	0x1a9
 1661 047d DB000000 		.4byte	0xdb
 1662 0481 02       		.byte	0x2
 1663 0482 23       		.byte	0x23
 1664 0483 28       		.uleb128 0x28
 1665 0484 15       		.uleb128 0x15
 1666 0485 41525200 		.ascii	"ARR\000"
 1667 0489 0A       		.byte	0xa
 1668 048a AA01     		.2byte	0x1aa
 1669 048c DB000000 		.4byte	0xdb
 1670 0490 02       		.byte	0x2
 1671 0491 23       		.byte	0x23
 1672 0492 2C       		.uleb128 0x2c
 1673 0493 15       		.uleb128 0x15
 1674 0494 52435200 		.ascii	"RCR\000"
 1675 0498 0A       		.byte	0xa
 1676 0499 AB01     		.2byte	0x1ab
 1677 049b DB000000 		.4byte	0xdb
 1678 049f 02       		.byte	0x2
 1679 04a0 23       		.byte	0x23
 1680 04a1 30       		.uleb128 0x30
 1681 04a2 15       		.uleb128 0x15
 1682 04a3 43435200 		.ascii	"CCR\000"
 1683 04a7 0A       		.byte	0xa
 1684 04a8 AC01     		.2byte	0x1ac
ARM GAS  C:\Users\DNIEL~1\AppData\Local\Temp\cceZPiI7.s 			page 32


 1685 04aa 1A050000 		.4byte	0x51a
 1686 04ae 02       		.byte	0x2
 1687 04af 23       		.byte	0x23
 1688 04b0 34       		.uleb128 0x34
 1689 04b1 14       		.uleb128 0x14
 1690 04b2 76010000 		.4byte	.LASF45
 1691 04b6 0A       		.byte	0xa
 1692 04b7 AD01     		.2byte	0x1ad
 1693 04b9 DB000000 		.4byte	0xdb
 1694 04bd 02       		.byte	0x2
 1695 04be 23       		.byte	0x23
 1696 04bf 44       		.uleb128 0x44
 1697 04c0 15       		.uleb128 0x15
 1698 04c1 44435200 		.ascii	"DCR\000"
 1699 04c5 0A       		.byte	0xa
 1700 04c6 AE01     		.2byte	0x1ae
 1701 04c8 DB000000 		.4byte	0xdb
 1702 04cc 02       		.byte	0x2
 1703 04cd 23       		.byte	0x23
 1704 04ce 48       		.uleb128 0x48
 1705 04cf 14       		.uleb128 0x14
 1706 04d0 20000000 		.4byte	.LASF46
 1707 04d4 0A       		.byte	0xa
 1708 04d5 AF01     		.2byte	0x1af
 1709 04d7 DB000000 		.4byte	0xdb
 1710 04db 02       		.byte	0x2
 1711 04dc 23       		.byte	0x23
 1712 04dd 4C       		.uleb128 0x4c
 1713 04de 15       		.uleb128 0x15
 1714 04df 4F5200   		.ascii	"OR\000"
 1715 04e2 0A       		.byte	0xa
 1716 04e3 B001     		.2byte	0x1b0
 1717 04e5 DB000000 		.4byte	0xdb
 1718 04e9 02       		.byte	0x2
 1719 04ea 23       		.byte	0x23
 1720 04eb 50       		.uleb128 0x50
 1721 04ec 14       		.uleb128 0x14
 1722 04ed 31000000 		.4byte	.LASF47
 1723 04f1 0A       		.byte	0xa
 1724 04f2 B101     		.2byte	0x1b1
 1725 04f4 DB000000 		.4byte	0xdb
 1726 04f8 02       		.byte	0x2
 1727 04f9 23       		.byte	0x23
 1728 04fa 54       		.uleb128 0x54
 1729 04fb 14       		.uleb128 0x14
 1730 04fc 0A010000 		.4byte	.LASF48
 1731 0500 0A       		.byte	0xa
 1732 0501 B201     		.2byte	0x1b2
 1733 0503 DB000000 		.4byte	0xdb
 1734 0507 02       		.byte	0x2
 1735 0508 23       		.byte	0x23
 1736 0509 58       		.uleb128 0x58
 1737 050a 14       		.uleb128 0x14
 1738 050b 0F010000 		.4byte	.LASF49
 1739 050f 0A       		.byte	0xa
 1740 0510 B301     		.2byte	0x1b3
 1741 0512 DB000000 		.4byte	0xdb
ARM GAS  C:\Users\DNIEL~1\AppData\Local\Temp\cceZPiI7.s 			page 33


 1742 0516 02       		.byte	0x2
 1743 0517 23       		.byte	0x23
 1744 0518 5C       		.uleb128 0x5c
 1745 0519 00       		.byte	0x0
 1746 051a 06       		.uleb128 0x6
 1747 051b E6010000 		.4byte	0x1e6
 1748 051f 18       		.uleb128 0x18
 1749 0520 40020000 		.4byte	.LASF50
 1750 0524 0A       		.byte	0xa
 1751 0525 B401     		.2byte	0x1b4
 1752 0527 D7030000 		.4byte	0x3d7
 1753 052b 18       		.uleb128 0x18
 1754 052c 65030000 		.4byte	.LASF51
 1755 0530 09       		.byte	0x9
 1756 0531 2001     		.2byte	0x120
 1757 0533 86000000 		.4byte	0x86
 1758 0537 18       		.uleb128 0x18
 1759 0538 48000000 		.4byte	.LASF52
 1760 053c 09       		.byte	0x9
 1761 053d 2A01     		.2byte	0x12a
 1762 053f 62000000 		.4byte	0x62
 1763 0543 17       		.uleb128 0x17
 1764 0544 08       		.byte	0x8
 1765 0545 09       		.byte	0x9
 1766 0546 2F01     		.2byte	0x12f
 1767 0548 6B050000 		.4byte	0x56b
 1768 054c 14       		.uleb128 0x14
 1769 054d 66000000 		.4byte	.LASF53
 1770 0551 09       		.byte	0x9
 1771 0552 3301     		.2byte	0x133
 1772 0554 2B050000 		.4byte	0x52b
 1773 0558 02       		.byte	0x2
 1774 0559 23       		.byte	0x23
 1775 055a 00       		.uleb128 0x0
 1776 055b 14       		.uleb128 0x14
 1777 055c D1030000 		.4byte	.LASF54
 1778 0560 09       		.byte	0x9
 1779 0561 3901     		.2byte	0x139
 1780 0563 B4030000 		.4byte	0x3b4
 1781 0567 02       		.byte	0x2
 1782 0568 23       		.byte	0x23
 1783 0569 04       		.uleb128 0x4
 1784 056a 00       		.byte	0x0
 1785 056b 18       		.uleb128 0x18
 1786 056c 41030000 		.4byte	.LASF55
 1787 0570 09       		.byte	0x9
 1788 0571 3B01     		.2byte	0x13b
 1789 0573 43050000 		.4byte	0x543
 1790 0577 17       		.uleb128 0x17
 1791 0578 34       		.byte	0x34
 1792 0579 09       		.byte	0x9
 1793 057a 4001     		.2byte	0x140
 1794 057c DB050000 		.4byte	0x5db
 1795 0580 14       		.uleb128 0x14
 1796 0581 8A020000 		.4byte	.LASF56
 1797 0585 09       		.byte	0x9
 1798 0586 4601     		.2byte	0x146
ARM GAS  C:\Users\DNIEL~1\AppData\Local\Temp\cceZPiI7.s 			page 34


 1799 0588 86000000 		.4byte	0x86
 1800 058c 02       		.byte	0x2
 1801 058d 23       		.byte	0x23
 1802 058e 00       		.uleb128 0x0
 1803 058f 14       		.uleb128 0x14
 1804 0590 52030000 		.4byte	.LASF37
 1805 0594 09       		.byte	0x9
 1806 0595 4C01     		.2byte	0x14c
 1807 0597 37050000 		.4byte	0x537
 1808 059b 02       		.byte	0x2
 1809 059c 23       		.byte	0x23
 1810 059d 04       		.uleb128 0x4
 1811 059e 14       		.uleb128 0x14
 1812 059f D1030000 		.4byte	.LASF54
 1813 05a3 09       		.byte	0x9
 1814 05a4 5201     		.2byte	0x152
 1815 05a6 B4030000 		.4byte	0x3b4
 1816 05aa 02       		.byte	0x2
 1817 05ab 23       		.byte	0x23
 1818 05ac 08       		.uleb128 0x8
 1819 05ad 14       		.uleb128 0x14
 1820 05ae A0020000 		.4byte	.LASF57
 1821 05b2 09       		.byte	0x9
 1822 05b3 5601     		.2byte	0x156
 1823 05b5 DB050000 		.4byte	0x5db
 1824 05b9 02       		.byte	0x2
 1825 05ba 23       		.byte	0x23
 1826 05bb 0C       		.uleb128 0xc
 1827 05bc 15       		.uleb128 0x15
 1828 05bd 63723200 		.ascii	"cr2\000"
 1829 05c1 09       		.byte	0x9
 1830 05c2 5C01     		.2byte	0x15c
 1831 05c4 86000000 		.4byte	0x86
 1832 05c8 02       		.byte	0x2
 1833 05c9 23       		.byte	0x23
 1834 05ca 2C       		.uleb128 0x2c
 1835 05cb 14       		.uleb128 0x14
 1836 05cc 16030000 		.4byte	.LASF58
 1837 05d0 09       		.byte	0x9
 1838 05d1 6901     		.2byte	0x169
 1839 05d3 86000000 		.4byte	0x86
 1840 05d7 02       		.byte	0x2
 1841 05d8 23       		.byte	0x23
 1842 05d9 30       		.uleb128 0x30
 1843 05da 00       		.byte	0x0
 1844 05db 0F       		.uleb128 0xf
 1845 05dc 6B050000 		.4byte	0x56b
 1846 05e0 EB050000 		.4byte	0x5eb
 1847 05e4 10       		.uleb128 0x10
 1848 05e5 3B000000 		.4byte	0x3b
 1849 05e9 03       		.byte	0x3
 1850 05ea 00       		.byte	0x0
 1851 05eb 18       		.uleb128 0x18
 1852 05ec E8010000 		.4byte	.LASF59
 1853 05f0 09       		.byte	0x9
 1854 05f1 6A01     		.2byte	0x16a
 1855 05f3 77050000 		.4byte	0x577
ARM GAS  C:\Users\DNIEL~1\AppData\Local\Temp\cceZPiI7.s 			page 35


 1856 05f7 07       		.uleb128 0x7
 1857 05f8 04       		.byte	0x4
 1858 05f9 FD050000 		.4byte	0x5fd
 1859 05fd 08       		.uleb128 0x8
 1860 05fe EB050000 		.4byte	0x5eb
 1861 0602 07       		.uleb128 0x7
 1862 0603 04       		.byte	0x4
 1863 0604 1F050000 		.4byte	0x51f
 1864 0608 07       		.uleb128 0x7
 1865 0609 04       		.byte	0x4
 1866 060a EB000000 		.4byte	0xeb
 1867 060e 04       		.uleb128 0x4
 1868 060f 08       		.byte	0x8
 1869 0610 04       		.byte	0x4
 1870 0611 C1020000 		.4byte	.LASF60
 1871 0615 04       		.uleb128 0x4
 1872 0616 04       		.byte	0x4
 1873 0617 04       		.byte	0x4
 1874 0618 C6000000 		.4byte	.LASF61
 1875 061c 04       		.uleb128 0x4
 1876 061d 08       		.byte	0x8
 1877 061e 04       		.byte	0x4
 1878 061f 4C010000 		.4byte	.LASF62
 1879 0623 03       		.uleb128 0x3
 1880 0624 2C030000 		.4byte	.LASF63
 1881 0628 0B       		.byte	0xb
 1882 0629 28       		.byte	0x28
 1883 062a 2E060000 		.4byte	0x62e
 1884 062e 0B       		.uleb128 0xb
 1885 062f F7000000 		.4byte	.LASF64
 1886 0633 04       		.byte	0x4
 1887 0634 0C       		.byte	0xc
 1888 0635 00       		.byte	0x0
 1889 0636 48060000 		.4byte	0x648
 1890 063a 19       		.uleb128 0x19
 1891 063b DA010000 		.4byte	.LASF94
 1892 063f D9000000 		.4byte	0xd9
 1893 0643 02       		.byte	0x2
 1894 0644 23       		.byte	0x23
 1895 0645 00       		.uleb128 0x0
 1896 0646 01       		.byte	0x1
 1897 0647 00       		.byte	0x0
 1898 0648 03       		.uleb128 0x3
 1899 0649 8D000000 		.4byte	.LASF65
 1900 064d 0B       		.byte	0xb
 1901 064e 66       		.byte	0x66
 1902 064f 23060000 		.4byte	0x623
 1903 0653 0B       		.uleb128 0xb
 1904 0654 F2010000 		.4byte	.LASF66
 1905 0658 06       		.byte	0x6
 1906 0659 02       		.byte	0x2
 1907 065a 10       		.byte	0x10
 1908 065b B4060000 		.4byte	0x6b4
 1909 065f 0C       		.uleb128 0xc
 1910 0660 AC000000 		.4byte	.LASF67
 1911 0664 02       		.byte	0x2
 1912 0665 12       		.byte	0x12
ARM GAS  C:\Users\DNIEL~1\AppData\Local\Temp\cceZPiI7.s 			page 36


 1913 0666 BC000000 		.4byte	0xbc
 1914 066a 02       		.byte	0x2
 1915 066b 23       		.byte	0x23
 1916 066c 00       		.uleb128 0x0
 1917 066d 0C       		.uleb128 0xc
 1918 066e 0B000000 		.4byte	.LASF68
 1919 0672 02       		.byte	0x2
 1920 0673 13       		.byte	0x13
 1921 0674 BC000000 		.4byte	0xbc
 1922 0678 02       		.byte	0x2
 1923 0679 23       		.byte	0x23
 1924 067a 01       		.uleb128 0x1
 1925 067b 0C       		.uleb128 0xc
 1926 067c 09020000 		.4byte	.LASF69
 1927 0680 02       		.byte	0x2
 1928 0681 14       		.byte	0x14
 1929 0682 BC000000 		.4byte	0xbc
 1930 0686 02       		.byte	0x2
 1931 0687 23       		.byte	0x23
 1932 0688 02       		.uleb128 0x2
 1933 0689 0C       		.uleb128 0xc
 1934 068a 80010000 		.4byte	.LASF70
 1935 068e 02       		.byte	0x2
 1936 068f 15       		.byte	0x15
 1937 0690 BC000000 		.4byte	0xbc
 1938 0694 02       		.byte	0x2
 1939 0695 23       		.byte	0x23
 1940 0696 03       		.uleb128 0x3
 1941 0697 0C       		.uleb128 0xc
 1942 0698 C8020000 		.4byte	.LASF71
 1943 069c 02       		.byte	0x2
 1944 069d 16       		.byte	0x16
 1945 069e BC000000 		.4byte	0xbc
 1946 06a2 02       		.byte	0x2
 1947 06a3 23       		.byte	0x23
 1948 06a4 04       		.uleb128 0x4
 1949 06a5 0C       		.uleb128 0xc
 1950 06a6 84000000 		.4byte	.LASF72
 1951 06aa 02       		.byte	0x2
 1952 06ab 17       		.byte	0x17
 1953 06ac BC000000 		.4byte	0xbc
 1954 06b0 02       		.byte	0x2
 1955 06b1 23       		.byte	0x23
 1956 06b2 05       		.uleb128 0x5
 1957 06b3 00       		.byte	0x0
 1958 06b4 1A       		.uleb128 0x1a
 1959 06b5 01       		.byte	0x1
 1960 06b6 6B000000 		.4byte	.LASF73
 1961 06ba 02       		.byte	0x2
 1962 06bb 62       		.byte	0x62
 1963 06bc 01       		.byte	0x1
 1964 06bd 01       		.byte	0x1
 1965 06be 1A       		.uleb128 0x1a
 1966 06bf 01       		.byte	0x1
 1967 06c0 D0020000 		.4byte	.LASF74
 1968 06c4 02       		.byte	0x2
 1969 06c5 6A       		.byte	0x6a
ARM GAS  C:\Users\DNIEL~1\AppData\Local\Temp\cceZPiI7.s 			page 37


 1970 06c6 01       		.byte	0x1
 1971 06c7 01       		.byte	0x1
 1972 06c8 1A       		.uleb128 0x1a
 1973 06c9 01       		.byte	0x1
 1974 06ca 3F010000 		.4byte	.LASF75
 1975 06ce 02       		.byte	0x2
 1976 06cf 72       		.byte	0x72
 1977 06d0 01       		.byte	0x1
 1978 06d1 01       		.byte	0x1
 1979 06d2 1B       		.uleb128 0x1b
 1980 06d3 01       		.byte	0x1
 1981 06d4 E6020000 		.4byte	.LASF76
 1982 06d8 02       		.byte	0x2
 1983 06d9 7A       		.byte	0x7a
 1984 06da 01       		.byte	0x1
 1985 06db 49000000 		.4byte	0x49
 1986 06df 01       		.byte	0x1
 1987 06e0 1B       		.uleb128 0x1b
 1988 06e1 01       		.byte	0x1
 1989 06e2 19010000 		.4byte	.LASF77
 1990 06e6 02       		.byte	0x2
 1991 06e7 7E       		.byte	0x7e
 1992 06e8 01       		.byte	0x1
 1993 06e9 49000000 		.4byte	0x49
 1994 06ed 01       		.byte	0x1
 1995 06ee 1B       		.uleb128 0x1b
 1996 06ef 01       		.byte	0x1
 1997 06f0 11000000 		.4byte	.LASF78
 1998 06f4 02       		.byte	0x2
 1999 06f5 83       		.byte	0x83
 2000 06f6 01       		.byte	0x1
 2001 06f7 49000000 		.4byte	0x49
 2002 06fb 01       		.byte	0x1
 2003 06fc 1B       		.uleb128 0x1b
 2004 06fd 01       		.byte	0x1
 2005 06fe BD010000 		.4byte	.LASF79
 2006 0702 02       		.byte	0x2
 2007 0703 87       		.byte	0x87
 2008 0704 01       		.byte	0x1
 2009 0705 49000000 		.4byte	0x49
 2010 0709 01       		.byte	0x1
 2011 070a 1C       		.uleb128 0x1c
 2012 070b 7A020000 		.4byte	.LASF95
 2013 070f 01       		.byte	0x1
 2014 0710 45       		.byte	0x45
 2015 0711 01       		.byte	0x1
 2016 0712 00000000 		.4byte	.LFB118
 2017 0716 1E000000 		.4byte	.LFE118
 2018 071a 00000000 		.4byte	.LLST0
 2019 071e 4E070000 		.4byte	0x74e
 2020 0722 1D       		.uleb128 0x1d
 2021 0723 63687000 		.ascii	"chp\000"
 2022 0727 01       		.byte	0x1
 2023 0728 45       		.byte	0x45
 2024 0729 4E070000 		.4byte	0x74e
 2025 072d 38000000 		.4byte	.LLST1
 2026 0731 1E       		.uleb128 0x1e
ARM GAS  C:\Users\DNIEL~1\AppData\Local\Temp\cceZPiI7.s 			page 38


 2027 0732 666D7400 		.ascii	"fmt\000"
 2028 0736 01       		.byte	0x1
 2029 0737 45       		.byte	0x45
 2030 0738 E0000000 		.4byte	0xe0
 2031 073c 02       		.byte	0x2
 2032 073d 91       		.byte	0x91
 2033 073e 74       		.sleb128 -12
 2034 073f 1F       		.uleb128 0x1f
 2035 0740 20       		.uleb128 0x20
 2036 0741 617000   		.ascii	"ap\000"
 2037 0744 01       		.byte	0x1
 2038 0745 46       		.byte	0x46
 2039 0746 48060000 		.4byte	0x648
 2040 074a 02       		.byte	0x2
 2041 074b 91       		.byte	0x91
 2042 074c 6C       		.sleb128 -20
 2043 074d 00       		.byte	0x0
 2044 074e 07       		.uleb128 0x7
 2045 074f 04       		.byte	0x4
 2046 0750 DB010000 		.4byte	0x1db
 2047 0754 21       		.uleb128 0x21
 2048 0755 01       		.byte	0x1
 2049 0756 21020000 		.4byte	.LASF80
 2050 075a 02       		.byte	0x2
 2051 075b 2E       		.byte	0x2e
 2052 075c 01       		.byte	0x1
 2053 075d 00000000 		.4byte	.LFB119
 2054 0761 3C000000 		.4byte	.LFE119
 2055 0765 4B000000 		.4byte	.LLST2
 2056 0769 21       		.uleb128 0x21
 2057 076a 01       		.byte	0x1
 2058 076b BC000000 		.4byte	.LASF81
 2059 076f 02       		.byte	0x2
 2060 0770 37       		.byte	0x37
 2061 0771 01       		.byte	0x1
 2062 0772 00000000 		.4byte	.LFB120
 2063 0776 E8000000 		.4byte	.LFE120
 2064 077a 6B000000 		.4byte	.LLST3
 2065 077e 22       		.uleb128 0x22
 2066 077f B4060000 		.4byte	0x6b4
 2067 0783 00000000 		.4byte	.LFB121
 2068 0787 24000000 		.4byte	.LFE121
 2069 078b 02       		.byte	0x2
 2070 078c 7D       		.byte	0x7d
 2071 078d 00       		.sleb128 0
 2072 078e 22       		.uleb128 0x22
 2073 078f BE060000 		.4byte	0x6be
 2074 0793 00000000 		.4byte	.LFB122
 2075 0797 24000000 		.4byte	.LFE122
 2076 079b 02       		.byte	0x2
 2077 079c 7D       		.byte	0x7d
 2078 079d 00       		.sleb128 0
 2079 079e 22       		.uleb128 0x22
 2080 079f C8060000 		.4byte	0x6c8
 2081 07a3 00000000 		.4byte	.LFB123
 2082 07a7 24000000 		.4byte	.LFE123
 2083 07ab 02       		.byte	0x2
ARM GAS  C:\Users\DNIEL~1\AppData\Local\Temp\cceZPiI7.s 			page 39


 2084 07ac 7D       		.byte	0x7d
 2085 07ad 00       		.sleb128 0
 2086 07ae 22       		.uleb128 0x22
 2087 07af D2060000 		.4byte	0x6d2
 2088 07b3 00000000 		.4byte	.LFB124
 2089 07b7 0C000000 		.4byte	.LFE124
 2090 07bb 02       		.byte	0x2
 2091 07bc 7D       		.byte	0x7d
 2092 07bd 00       		.sleb128 0
 2093 07be 22       		.uleb128 0x22
 2094 07bf E0060000 		.4byte	0x6e0
 2095 07c3 00000000 		.4byte	.LFB125
 2096 07c7 10000000 		.4byte	.LFE125
 2097 07cb 02       		.byte	0x2
 2098 07cc 7D       		.byte	0x7d
 2099 07cd 00       		.sleb128 0
 2100 07ce 22       		.uleb128 0x22
 2101 07cf EE060000 		.4byte	0x6ee
 2102 07d3 00000000 		.4byte	.LFB126
 2103 07d7 0C000000 		.4byte	.LFE126
 2104 07db 02       		.byte	0x2
 2105 07dc 7D       		.byte	0x7d
 2106 07dd 00       		.sleb128 0
 2107 07de 22       		.uleb128 0x22
 2108 07df FC060000 		.4byte	0x6fc
 2109 07e3 00000000 		.4byte	.LFB127
 2110 07e7 10000000 		.4byte	.LFE127
 2111 07eb 02       		.byte	0x2
 2112 07ec 7D       		.byte	0x7d
 2113 07ed 00       		.sleb128 0
 2114 07ee 23       		.uleb128 0x23
 2115 07ef 01       		.byte	0x1
 2116 07f0 65020000 		.4byte	.LASF96
 2117 07f4 02       		.byte	0x2
 2118 07f5 8C       		.byte	0x8c
 2119 07f6 01       		.byte	0x1
 2120 07f7 00000000 		.4byte	.LFB128
 2121 07fb D4010000 		.4byte	.LFE128
 2122 07ff 8B000000 		.4byte	.LLST4
 2123 0803 C6080000 		.4byte	0x8c6
 2124 0807 1D       		.uleb128 0x1d
 2125 0808 63687000 		.ascii	"chp\000"
 2126 080c 02       		.byte	0x2
 2127 080d 8C       		.byte	0x8c
 2128 080e 4E070000 		.4byte	0x74e
 2129 0812 AB000000 		.4byte	.LLST5
 2130 0816 24       		.uleb128 0x24
 2131 0817 7B010000 		.4byte	.LASF82
 2132 081b 02       		.byte	0x2
 2133 081c 8C       		.byte	0x8c
 2134 081d 29000000 		.4byte	0x29
 2135 0821 C9000000 		.4byte	.LLST6
 2136 0825 24       		.uleb128 0x24
 2137 0826 3A010000 		.4byte	.LASF83
 2138 082a 02       		.byte	0x2
 2139 082b 8C       		.byte	0x8c
 2140 082c C6080000 		.4byte	0x8c6
ARM GAS  C:\Users\DNIEL~1\AppData\Local\Temp\cceZPiI7.s 			page 40


 2141 0830 FD000000 		.4byte	.LLST7
 2142 0834 25       		.uleb128 0x25
 2143 0835 26030000 		.4byte	.LASF97
 2144 0839 02       		.byte	0x2
 2145 083a CA       		.byte	0xca
 2146 083b 28000000 		.4byte	.L43
 2147 083f 26       		.uleb128 0x26
 2148 0840 64000000 		.4byte	.LBB17
 2149 0844 D4010000 		.4byte	.LBE17
 2150 0848 27       		.uleb128 0x27
 2151 0849 01       		.byte	0x1
 2152 084a 06030000 		.4byte	.LASF98
 2153 084e 0C       		.byte	0xc
 2154 084f 00       		.byte	0x0
 2155 0850 29000000 		.4byte	0x29
 2156 0854 01       		.byte	0x1
 2157 0855 5B080000 		.4byte	0x85b
 2158 0859 1F       		.uleb128 0x1f
 2159 085a 00       		.byte	0x0
 2160 085b 28       		.uleb128 0x28
 2161 085c FC060000 		.4byte	0x6fc
 2162 0860 D8000000 		.4byte	.LBB18
 2163 0864 E0000000 		.4byte	.LBE18
 2164 0868 02       		.byte	0x2
 2165 0869 C1       		.byte	0xc1
 2166 086a 28       		.uleb128 0x28
 2167 086b E0060000 		.4byte	0x6e0
 2168 086f E8000000 		.4byte	.LBB20
 2169 0873 F0000000 		.4byte	.LBE20
 2170 0877 02       		.byte	0x2
 2171 0878 B3       		.byte	0xb3
 2172 0879 28       		.uleb128 0x28
 2173 087a EE060000 		.4byte	0x6ee
 2174 087e F8000000 		.4byte	.LBB22
 2175 0882 00010000 		.4byte	.LBE22
 2176 0886 02       		.byte	0x2
 2177 0887 BA       		.byte	0xba
 2178 0888 28       		.uleb128 0x28
 2179 0889 B4060000 		.4byte	0x6b4
 2180 088d 08010000 		.4byte	.LBB24
 2181 0891 10010000 		.4byte	.LBE24
 2182 0895 02       		.byte	0x2
 2183 0896 97       		.byte	0x97
 2184 0897 29       		.uleb128 0x29
 2185 0898 BE060000 		.4byte	0x6be
 2186 089c 10010000 		.4byte	.LBB26
 2187 08a0 00000000 		.4byte	.Ldebug_ranges0+0x0
 2188 08a4 02       		.byte	0x2
 2189 08a5 9E       		.byte	0x9e
 2190 08a6 28       		.uleb128 0x28
 2191 08a7 C8060000 		.4byte	0x6c8
 2192 08ab 3A010000 		.4byte	.LBB30
 2193 08af 52010000 		.4byte	.LBE30
 2194 08b3 02       		.byte	0x2
 2195 08b4 A5       		.byte	0xa5
 2196 08b5 28       		.uleb128 0x28
 2197 08b6 D2060000 		.4byte	0x6d2
ARM GAS  C:\Users\DNIEL~1\AppData\Local\Temp\cceZPiI7.s 			page 41


 2198 08ba 5A010000 		.4byte	.LBB32
 2199 08be D4010000 		.4byte	.LBE32
 2200 08c2 02       		.byte	0x2
 2201 08c3 AC       		.byte	0xac
 2202 08c4 00       		.byte	0x0
 2203 08c5 00       		.byte	0x0
 2204 08c6 07       		.uleb128 0x7
 2205 08c7 04       		.byte	0x4
 2206 08c8 08060000 		.4byte	0x608
 2207 08cc 2A       		.uleb128 0x2a
 2208 08cd 6F030000 		.4byte	.LASF84
 2209 08d1 0D       		.byte	0xd
 2210 08d2 9806     		.2byte	0x698
 2211 08d4 F6010000 		.4byte	0x1f6
 2212 08d8 01       		.byte	0x1
 2213 08d9 01       		.byte	0x1
 2214 08da 2A       		.uleb128 0x2a
 2215 08db 3B030000 		.4byte	.LASF85
 2216 08df 09       		.byte	0x9
 2217 08e0 B301     		.2byte	0x1b3
 2218 08e2 50030000 		.4byte	0x350
 2219 08e6 01       		.byte	0x1
 2220 08e7 01       		.byte	0x1
 2221 08e8 2B       		.uleb128 0x2b
 2222 08e9 2D010000 		.4byte	.LASF86
 2223 08ed 02       		.byte	0x2
 2224 08ee 18       		.byte	0x18
 2225 08ef 53060000 		.4byte	0x653
 2226 08f3 05       		.byte	0x5
 2227 08f4 03       		.byte	0x3
 2228 08f5 00000000 		.4byte	lightchanels
 2229 08f9 2B       		.uleb128 0x2b
 2230 08fa 83020000 		.4byte	.LASF87
 2231 08fe 02       		.byte	0x2
 2232 08ff 1A       		.byte	0x1a
 2233 0900 EB050000 		.4byte	0x5eb
 2234 0904 05       		.byte	0x5
 2235 0905 03       		.byte	0x3
 2236 0906 00000000 		.4byte	pwmcfg
 2237 090a 2B       		.uleb128 0x2b
 2238 090b 1B030000 		.4byte	.LASF88
 2239 090f 02       		.byte	0x2
 2240 0910 27       		.byte	0x27
 2241 0911 29000000 		.4byte	0x29
 2242 0915 05       		.byte	0x5
 2243 0916 03       		.byte	0x3
 2244 0917 00000000 		.4byte	period_num
 2245 091b 2C       		.uleb128 0x2c
 2246 091c F3020000 		.4byte	.LASF89
 2247 0920 02       		.byte	0x2
 2248 0921 29       		.byte	0x29
 2249 0922 B1000000 		.4byte	0xb1
 2250 0926 01       		.byte	0x1
 2251 0927 01       		.byte	0x1
 2252 0928 2C       		.uleb128 0x2c
 2253 0929 DA030000 		.4byte	.LASF90
 2254 092d 02       		.byte	0x2
ARM GAS  C:\Users\DNIEL~1\AppData\Local\Temp\cceZPiI7.s 			page 42


 2255 092e 2A       		.byte	0x2a
 2256 092f B1000000 		.4byte	0xb1
 2257 0933 01       		.byte	0x1
 2258 0934 01       		.byte	0x1
 2259 0935 2B       		.uleb128 0x2b
 2260 0936 52030000 		.4byte	.LASF37
 2261 093a 02       		.byte	0x2
 2262 093b 2C       		.byte	0x2c
 2263 093c 9F000000 		.4byte	0x9f
 2264 0940 05       		.byte	0x5
 2265 0941 03       		.byte	0x3
 2266 0942 00000000 		.4byte	period
 2267 0946 2A       		.uleb128 0x2a
 2268 0947 6F030000 		.4byte	.LASF84
 2269 094b 0D       		.byte	0xd
 2270 094c 9806     		.2byte	0x698
 2271 094e F6010000 		.4byte	0x1f6
 2272 0952 01       		.byte	0x1
 2273 0953 01       		.byte	0x1
 2274 0954 2A       		.uleb128 0x2a
 2275 0955 3B030000 		.4byte	.LASF85
 2276 0959 09       		.byte	0x9
 2277 095a B301     		.2byte	0x1b3
 2278 095c 50030000 		.4byte	0x350
 2279 0960 01       		.byte	0x1
 2280 0961 01       		.byte	0x1
 2281 0962 2D       		.uleb128 0x2d
 2282 0963 F3020000 		.4byte	.LASF89
 2283 0967 02       		.byte	0x2
 2284 0968 29       		.byte	0x29
 2285 0969 B1000000 		.4byte	0xb1
 2286 096d 01       		.byte	0x1
 2287 096e 05       		.byte	0x5
 2288 096f 03       		.byte	0x3
 2289 0970 00000000 		.4byte	lightsOn
 2290 0974 2D       		.uleb128 0x2d
 2291 0975 DA030000 		.4byte	.LASF90
 2292 0979 02       		.byte	0x2
 2293 097a 2A       		.byte	0x2a
 2294 097b B1000000 		.4byte	0xb1
 2295 097f 01       		.byte	0x1
 2296 0980 05       		.byte	0x5
 2297 0981 03       		.byte	0x3
 2298 0982 00000000 		.4byte	brakeOn
 2299 0986 00       		.byte	0x0
 2300              		.section	.debug_abbrev
 2301 0000 01       		.uleb128 0x1
 2302 0001 11       		.uleb128 0x11
 2303 0002 01       		.byte	0x1
 2304 0003 25       		.uleb128 0x25
 2305 0004 0E       		.uleb128 0xe
 2306 0005 13       		.uleb128 0x13
 2307 0006 0B       		.uleb128 0xb
 2308 0007 03       		.uleb128 0x3
 2309 0008 0E       		.uleb128 0xe
 2310 0009 1B       		.uleb128 0x1b
 2311 000a 0E       		.uleb128 0xe
ARM GAS  C:\Users\DNIEL~1\AppData\Local\Temp\cceZPiI7.s 			page 43


 2312 000b 11       		.uleb128 0x11
 2313 000c 01       		.uleb128 0x1
 2314 000d 52       		.uleb128 0x52
 2315 000e 01       		.uleb128 0x1
 2316 000f 55       		.uleb128 0x55
 2317 0010 06       		.uleb128 0x6
 2318 0011 10       		.uleb128 0x10
 2319 0012 06       		.uleb128 0x6
 2320 0013 00       		.byte	0x0
 2321 0014 00       		.byte	0x0
 2322 0015 02       		.uleb128 0x2
 2323 0016 24       		.uleb128 0x24
 2324 0017 00       		.byte	0x0
 2325 0018 0B       		.uleb128 0xb
 2326 0019 0B       		.uleb128 0xb
 2327 001a 3E       		.uleb128 0x3e
 2328 001b 0B       		.uleb128 0xb
 2329 001c 03       		.uleb128 0x3
 2330 001d 08       		.uleb128 0x8
 2331 001e 00       		.byte	0x0
 2332 001f 00       		.byte	0x0
 2333 0020 03       		.uleb128 0x3
 2334 0021 16       		.uleb128 0x16
 2335 0022 00       		.byte	0x0
 2336 0023 03       		.uleb128 0x3
 2337 0024 0E       		.uleb128 0xe
 2338 0025 3A       		.uleb128 0x3a
 2339 0026 0B       		.uleb128 0xb
 2340 0027 3B       		.uleb128 0x3b
 2341 0028 0B       		.uleb128 0xb
 2342 0029 49       		.uleb128 0x49
 2343 002a 13       		.uleb128 0x13
 2344 002b 00       		.byte	0x0
 2345 002c 00       		.byte	0x0
 2346 002d 04       		.uleb128 0x4
 2347 002e 24       		.uleb128 0x24
 2348 002f 00       		.byte	0x0
 2349 0030 0B       		.uleb128 0xb
 2350 0031 0B       		.uleb128 0xb
 2351 0032 3E       		.uleb128 0x3e
 2352 0033 0B       		.uleb128 0xb
 2353 0034 03       		.uleb128 0x3
 2354 0035 0E       		.uleb128 0xe
 2355 0036 00       		.byte	0x0
 2356 0037 00       		.byte	0x0
 2357 0038 05       		.uleb128 0x5
 2358 0039 0F       		.uleb128 0xf
 2359 003a 00       		.byte	0x0
 2360 003b 0B       		.uleb128 0xb
 2361 003c 0B       		.uleb128 0xb
 2362 003d 00       		.byte	0x0
 2363 003e 00       		.byte	0x0
 2364 003f 06       		.uleb128 0x6
 2365 0040 35       		.uleb128 0x35
 2366 0041 00       		.byte	0x0
 2367 0042 49       		.uleb128 0x49
 2368 0043 13       		.uleb128 0x13
ARM GAS  C:\Users\DNIEL~1\AppData\Local\Temp\cceZPiI7.s 			page 44


 2369 0044 00       		.byte	0x0
 2370 0045 00       		.byte	0x0
 2371 0046 07       		.uleb128 0x7
 2372 0047 0F       		.uleb128 0xf
 2373 0048 00       		.byte	0x0
 2374 0049 0B       		.uleb128 0xb
 2375 004a 0B       		.uleb128 0xb
 2376 004b 49       		.uleb128 0x49
 2377 004c 13       		.uleb128 0x13
 2378 004d 00       		.byte	0x0
 2379 004e 00       		.byte	0x0
 2380 004f 08       		.uleb128 0x8
 2381 0050 26       		.uleb128 0x26
 2382 0051 00       		.byte	0x0
 2383 0052 49       		.uleb128 0x49
 2384 0053 13       		.uleb128 0x13
 2385 0054 00       		.byte	0x0
 2386 0055 00       		.byte	0x0
 2387 0056 09       		.uleb128 0x9
 2388 0057 15       		.uleb128 0x15
 2389 0058 01       		.byte	0x1
 2390 0059 27       		.uleb128 0x27
 2391 005a 0C       		.uleb128 0xc
 2392 005b 49       		.uleb128 0x49
 2393 005c 13       		.uleb128 0x13
 2394 005d 01       		.uleb128 0x1
 2395 005e 13       		.uleb128 0x13
 2396 005f 00       		.byte	0x0
 2397 0060 00       		.byte	0x0
 2398 0061 0A       		.uleb128 0xa
 2399 0062 05       		.uleb128 0x5
 2400 0063 00       		.byte	0x0
 2401 0064 49       		.uleb128 0x49
 2402 0065 13       		.uleb128 0x13
 2403 0066 00       		.byte	0x0
 2404 0067 00       		.byte	0x0
 2405 0068 0B       		.uleb128 0xb
 2406 0069 13       		.uleb128 0x13
 2407 006a 01       		.byte	0x1
 2408 006b 03       		.uleb128 0x3
 2409 006c 0E       		.uleb128 0xe
 2410 006d 0B       		.uleb128 0xb
 2411 006e 0B       		.uleb128 0xb
 2412 006f 3A       		.uleb128 0x3a
 2413 0070 0B       		.uleb128 0xb
 2414 0071 3B       		.uleb128 0x3b
 2415 0072 0B       		.uleb128 0xb
 2416 0073 01       		.uleb128 0x1
 2417 0074 13       		.uleb128 0x13
 2418 0075 00       		.byte	0x0
 2419 0076 00       		.byte	0x0
 2420 0077 0C       		.uleb128 0xc
 2421 0078 0D       		.uleb128 0xd
 2422 0079 00       		.byte	0x0
 2423 007a 03       		.uleb128 0x3
 2424 007b 0E       		.uleb128 0xe
 2425 007c 3A       		.uleb128 0x3a
ARM GAS  C:\Users\DNIEL~1\AppData\Local\Temp\cceZPiI7.s 			page 45


 2426 007d 0B       		.uleb128 0xb
 2427 007e 3B       		.uleb128 0x3b
 2428 007f 0B       		.uleb128 0xb
 2429 0080 49       		.uleb128 0x49
 2430 0081 13       		.uleb128 0x13
 2431 0082 38       		.uleb128 0x38
 2432 0083 0A       		.uleb128 0xa
 2433 0084 00       		.byte	0x0
 2434 0085 00       		.byte	0x0
 2435 0086 0D       		.uleb128 0xd
 2436 0087 0D       		.uleb128 0xd
 2437 0088 00       		.byte	0x0
 2438 0089 03       		.uleb128 0x3
 2439 008a 08       		.uleb128 0x8
 2440 008b 3A       		.uleb128 0x3a
 2441 008c 0B       		.uleb128 0xb
 2442 008d 3B       		.uleb128 0x3b
 2443 008e 0B       		.uleb128 0xb
 2444 008f 49       		.uleb128 0x49
 2445 0090 13       		.uleb128 0x13
 2446 0091 38       		.uleb128 0x38
 2447 0092 0A       		.uleb128 0xa
 2448 0093 00       		.byte	0x0
 2449 0094 00       		.byte	0x0
 2450 0095 0E       		.uleb128 0xe
 2451 0096 13       		.uleb128 0x13
 2452 0097 01       		.byte	0x1
 2453 0098 0B       		.uleb128 0xb
 2454 0099 0B       		.uleb128 0xb
 2455 009a 3A       		.uleb128 0x3a
 2456 009b 0B       		.uleb128 0xb
 2457 009c 3B       		.uleb128 0x3b
 2458 009d 0B       		.uleb128 0xb
 2459 009e 01       		.uleb128 0x1
 2460 009f 13       		.uleb128 0x13
 2461 00a0 00       		.byte	0x0
 2462 00a1 00       		.byte	0x0
 2463 00a2 0F       		.uleb128 0xf
 2464 00a3 01       		.uleb128 0x1
 2465 00a4 01       		.byte	0x1
 2466 00a5 49       		.uleb128 0x49
 2467 00a6 13       		.uleb128 0x13
 2468 00a7 01       		.uleb128 0x1
 2469 00a8 13       		.uleb128 0x13
 2470 00a9 00       		.byte	0x0
 2471 00aa 00       		.byte	0x0
 2472 00ab 10       		.uleb128 0x10
 2473 00ac 21       		.uleb128 0x21
 2474 00ad 00       		.byte	0x0
 2475 00ae 49       		.uleb128 0x49
 2476 00af 13       		.uleb128 0x13
 2477 00b0 2F       		.uleb128 0x2f
 2478 00b1 0B       		.uleb128 0xb
 2479 00b2 00       		.byte	0x0
 2480 00b3 00       		.byte	0x0
 2481 00b4 11       		.uleb128 0x11
 2482 00b5 04       		.uleb128 0x4
ARM GAS  C:\Users\DNIEL~1\AppData\Local\Temp\cceZPiI7.s 			page 46


 2483 00b6 01       		.byte	0x1
 2484 00b7 0B       		.uleb128 0xb
 2485 00b8 0B       		.uleb128 0xb
 2486 00b9 3A       		.uleb128 0x3a
 2487 00ba 0B       		.uleb128 0xb
 2488 00bb 3B       		.uleb128 0x3b
 2489 00bc 0B       		.uleb128 0xb
 2490 00bd 01       		.uleb128 0x1
 2491 00be 13       		.uleb128 0x13
 2492 00bf 00       		.byte	0x0
 2493 00c0 00       		.byte	0x0
 2494 00c1 12       		.uleb128 0x12
 2495 00c2 28       		.uleb128 0x28
 2496 00c3 00       		.byte	0x0
 2497 00c4 03       		.uleb128 0x3
 2498 00c5 0E       		.uleb128 0xe
 2499 00c6 1C       		.uleb128 0x1c
 2500 00c7 0D       		.uleb128 0xd
 2501 00c8 00       		.byte	0x0
 2502 00c9 00       		.byte	0x0
 2503 00ca 13       		.uleb128 0x13
 2504 00cb 13       		.uleb128 0x13
 2505 00cc 01       		.byte	0x1
 2506 00cd 03       		.uleb128 0x3
 2507 00ce 0E       		.uleb128 0xe
 2508 00cf 0B       		.uleb128 0xb
 2509 00d0 0B       		.uleb128 0xb
 2510 00d1 3A       		.uleb128 0x3a
 2511 00d2 0B       		.uleb128 0xb
 2512 00d3 3B       		.uleb128 0x3b
 2513 00d4 05       		.uleb128 0x5
 2514 00d5 01       		.uleb128 0x1
 2515 00d6 13       		.uleb128 0x13
 2516 00d7 00       		.byte	0x0
 2517 00d8 00       		.byte	0x0
 2518 00d9 14       		.uleb128 0x14
 2519 00da 0D       		.uleb128 0xd
 2520 00db 00       		.byte	0x0
 2521 00dc 03       		.uleb128 0x3
 2522 00dd 0E       		.uleb128 0xe
 2523 00de 3A       		.uleb128 0x3a
 2524 00df 0B       		.uleb128 0xb
 2525 00e0 3B       		.uleb128 0x3b
 2526 00e1 05       		.uleb128 0x5
 2527 00e2 49       		.uleb128 0x49
 2528 00e3 13       		.uleb128 0x13
 2529 00e4 38       		.uleb128 0x38
 2530 00e5 0A       		.uleb128 0xa
 2531 00e6 00       		.byte	0x0
 2532 00e7 00       		.byte	0x0
 2533 00e8 15       		.uleb128 0x15
 2534 00e9 0D       		.uleb128 0xd
 2535 00ea 00       		.byte	0x0
 2536 00eb 03       		.uleb128 0x3
 2537 00ec 08       		.uleb128 0x8
 2538 00ed 3A       		.uleb128 0x3a
 2539 00ee 0B       		.uleb128 0xb
ARM GAS  C:\Users\DNIEL~1\AppData\Local\Temp\cceZPiI7.s 			page 47


 2540 00ef 3B       		.uleb128 0x3b
 2541 00f0 05       		.uleb128 0x5
 2542 00f1 49       		.uleb128 0x49
 2543 00f2 13       		.uleb128 0x13
 2544 00f3 38       		.uleb128 0x38
 2545 00f4 0A       		.uleb128 0xa
 2546 00f5 00       		.byte	0x0
 2547 00f6 00       		.byte	0x0
 2548 00f7 16       		.uleb128 0x16
 2549 00f8 15       		.uleb128 0x15
 2550 00f9 01       		.byte	0x1
 2551 00fa 27       		.uleb128 0x27
 2552 00fb 0C       		.uleb128 0xc
 2553 00fc 01       		.uleb128 0x1
 2554 00fd 13       		.uleb128 0x13
 2555 00fe 00       		.byte	0x0
 2556 00ff 00       		.byte	0x0
 2557 0100 17       		.uleb128 0x17
 2558 0101 13       		.uleb128 0x13
 2559 0102 01       		.byte	0x1
 2560 0103 0B       		.uleb128 0xb
 2561 0104 0B       		.uleb128 0xb
 2562 0105 3A       		.uleb128 0x3a
 2563 0106 0B       		.uleb128 0xb
 2564 0107 3B       		.uleb128 0x3b
 2565 0108 05       		.uleb128 0x5
 2566 0109 01       		.uleb128 0x1
 2567 010a 13       		.uleb128 0x13
 2568 010b 00       		.byte	0x0
 2569 010c 00       		.byte	0x0
 2570 010d 18       		.uleb128 0x18
 2571 010e 16       		.uleb128 0x16
 2572 010f 00       		.byte	0x0
 2573 0110 03       		.uleb128 0x3
 2574 0111 0E       		.uleb128 0xe
 2575 0112 3A       		.uleb128 0x3a
 2576 0113 0B       		.uleb128 0xb
 2577 0114 3B       		.uleb128 0x3b
 2578 0115 05       		.uleb128 0x5
 2579 0116 49       		.uleb128 0x49
 2580 0117 13       		.uleb128 0x13
 2581 0118 00       		.byte	0x0
 2582 0119 00       		.byte	0x0
 2583 011a 19       		.uleb128 0x19
 2584 011b 0D       		.uleb128 0xd
 2585 011c 00       		.byte	0x0
 2586 011d 03       		.uleb128 0x3
 2587 011e 0E       		.uleb128 0xe
 2588 011f 49       		.uleb128 0x49
 2589 0120 13       		.uleb128 0x13
 2590 0121 38       		.uleb128 0x38
 2591 0122 0A       		.uleb128 0xa
 2592 0123 34       		.uleb128 0x34
 2593 0124 0C       		.uleb128 0xc
 2594 0125 00       		.byte	0x0
 2595 0126 00       		.byte	0x0
 2596 0127 1A       		.uleb128 0x1a
ARM GAS  C:\Users\DNIEL~1\AppData\Local\Temp\cceZPiI7.s 			page 48


 2597 0128 2E       		.uleb128 0x2e
 2598 0129 00       		.byte	0x0
 2599 012a 3F       		.uleb128 0x3f
 2600 012b 0C       		.uleb128 0xc
 2601 012c 03       		.uleb128 0x3
 2602 012d 0E       		.uleb128 0xe
 2603 012e 3A       		.uleb128 0x3a
 2604 012f 0B       		.uleb128 0xb
 2605 0130 3B       		.uleb128 0x3b
 2606 0131 0B       		.uleb128 0xb
 2607 0132 27       		.uleb128 0x27
 2608 0133 0C       		.uleb128 0xc
 2609 0134 20       		.uleb128 0x20
 2610 0135 0B       		.uleb128 0xb
 2611 0136 00       		.byte	0x0
 2612 0137 00       		.byte	0x0
 2613 0138 1B       		.uleb128 0x1b
 2614 0139 2E       		.uleb128 0x2e
 2615 013a 00       		.byte	0x0
 2616 013b 3F       		.uleb128 0x3f
 2617 013c 0C       		.uleb128 0xc
 2618 013d 03       		.uleb128 0x3
 2619 013e 0E       		.uleb128 0xe
 2620 013f 3A       		.uleb128 0x3a
 2621 0140 0B       		.uleb128 0xb
 2622 0141 3B       		.uleb128 0x3b
 2623 0142 0B       		.uleb128 0xb
 2624 0143 27       		.uleb128 0x27
 2625 0144 0C       		.uleb128 0xc
 2626 0145 49       		.uleb128 0x49
 2627 0146 13       		.uleb128 0x13
 2628 0147 20       		.uleb128 0x20
 2629 0148 0B       		.uleb128 0xb
 2630 0149 00       		.byte	0x0
 2631 014a 00       		.byte	0x0
 2632 014b 1C       		.uleb128 0x1c
 2633 014c 2E       		.uleb128 0x2e
 2634 014d 01       		.byte	0x1
 2635 014e 03       		.uleb128 0x3
 2636 014f 0E       		.uleb128 0xe
 2637 0150 3A       		.uleb128 0x3a
 2638 0151 0B       		.uleb128 0xb
 2639 0152 3B       		.uleb128 0x3b
 2640 0153 0B       		.uleb128 0xb
 2641 0154 27       		.uleb128 0x27
 2642 0155 0C       		.uleb128 0xc
 2643 0156 11       		.uleb128 0x11
 2644 0157 01       		.uleb128 0x1
 2645 0158 12       		.uleb128 0x12
 2646 0159 01       		.uleb128 0x1
 2647 015a 40       		.uleb128 0x40
 2648 015b 06       		.uleb128 0x6
 2649 015c 01       		.uleb128 0x1
 2650 015d 13       		.uleb128 0x13
 2651 015e 00       		.byte	0x0
 2652 015f 00       		.byte	0x0
 2653 0160 1D       		.uleb128 0x1d
ARM GAS  C:\Users\DNIEL~1\AppData\Local\Temp\cceZPiI7.s 			page 49


 2654 0161 05       		.uleb128 0x5
 2655 0162 00       		.byte	0x0
 2656 0163 03       		.uleb128 0x3
 2657 0164 08       		.uleb128 0x8
 2658 0165 3A       		.uleb128 0x3a
 2659 0166 0B       		.uleb128 0xb
 2660 0167 3B       		.uleb128 0x3b
 2661 0168 0B       		.uleb128 0xb
 2662 0169 49       		.uleb128 0x49
 2663 016a 13       		.uleb128 0x13
 2664 016b 02       		.uleb128 0x2
 2665 016c 06       		.uleb128 0x6
 2666 016d 00       		.byte	0x0
 2667 016e 00       		.byte	0x0
 2668 016f 1E       		.uleb128 0x1e
 2669 0170 05       		.uleb128 0x5
 2670 0171 00       		.byte	0x0
 2671 0172 03       		.uleb128 0x3
 2672 0173 08       		.uleb128 0x8
 2673 0174 3A       		.uleb128 0x3a
 2674 0175 0B       		.uleb128 0xb
 2675 0176 3B       		.uleb128 0x3b
 2676 0177 0B       		.uleb128 0xb
 2677 0178 49       		.uleb128 0x49
 2678 0179 13       		.uleb128 0x13
 2679 017a 02       		.uleb128 0x2
 2680 017b 0A       		.uleb128 0xa
 2681 017c 00       		.byte	0x0
 2682 017d 00       		.byte	0x0
 2683 017e 1F       		.uleb128 0x1f
 2684 017f 18       		.uleb128 0x18
 2685 0180 00       		.byte	0x0
 2686 0181 00       		.byte	0x0
 2687 0182 00       		.byte	0x0
 2688 0183 20       		.uleb128 0x20
 2689 0184 34       		.uleb128 0x34
 2690 0185 00       		.byte	0x0
 2691 0186 03       		.uleb128 0x3
 2692 0187 08       		.uleb128 0x8
 2693 0188 3A       		.uleb128 0x3a
 2694 0189 0B       		.uleb128 0xb
 2695 018a 3B       		.uleb128 0x3b
 2696 018b 0B       		.uleb128 0xb
 2697 018c 49       		.uleb128 0x49
 2698 018d 13       		.uleb128 0x13
 2699 018e 02       		.uleb128 0x2
 2700 018f 0A       		.uleb128 0xa
 2701 0190 00       		.byte	0x0
 2702 0191 00       		.byte	0x0
 2703 0192 21       		.uleb128 0x21
 2704 0193 2E       		.uleb128 0x2e
 2705 0194 00       		.byte	0x0
 2706 0195 3F       		.uleb128 0x3f
 2707 0196 0C       		.uleb128 0xc
 2708 0197 03       		.uleb128 0x3
 2709 0198 0E       		.uleb128 0xe
 2710 0199 3A       		.uleb128 0x3a
ARM GAS  C:\Users\DNIEL~1\AppData\Local\Temp\cceZPiI7.s 			page 50


 2711 019a 0B       		.uleb128 0xb
 2712 019b 3B       		.uleb128 0x3b
 2713 019c 0B       		.uleb128 0xb
 2714 019d 27       		.uleb128 0x27
 2715 019e 0C       		.uleb128 0xc
 2716 019f 11       		.uleb128 0x11
 2717 01a0 01       		.uleb128 0x1
 2718 01a1 12       		.uleb128 0x12
 2719 01a2 01       		.uleb128 0x1
 2720 01a3 40       		.uleb128 0x40
 2721 01a4 06       		.uleb128 0x6
 2722 01a5 00       		.byte	0x0
 2723 01a6 00       		.byte	0x0
 2724 01a7 22       		.uleb128 0x22
 2725 01a8 2E       		.uleb128 0x2e
 2726 01a9 00       		.byte	0x0
 2727 01aa 31       		.uleb128 0x31
 2728 01ab 13       		.uleb128 0x13
 2729 01ac 11       		.uleb128 0x11
 2730 01ad 01       		.uleb128 0x1
 2731 01ae 12       		.uleb128 0x12
 2732 01af 01       		.uleb128 0x1
 2733 01b0 40       		.uleb128 0x40
 2734 01b1 0A       		.uleb128 0xa
 2735 01b2 00       		.byte	0x0
 2736 01b3 00       		.byte	0x0
 2737 01b4 23       		.uleb128 0x23
 2738 01b5 2E       		.uleb128 0x2e
 2739 01b6 01       		.byte	0x1
 2740 01b7 3F       		.uleb128 0x3f
 2741 01b8 0C       		.uleb128 0xc
 2742 01b9 03       		.uleb128 0x3
 2743 01ba 0E       		.uleb128 0xe
 2744 01bb 3A       		.uleb128 0x3a
 2745 01bc 0B       		.uleb128 0xb
 2746 01bd 3B       		.uleb128 0x3b
 2747 01be 0B       		.uleb128 0xb
 2748 01bf 27       		.uleb128 0x27
 2749 01c0 0C       		.uleb128 0xc
 2750 01c1 11       		.uleb128 0x11
 2751 01c2 01       		.uleb128 0x1
 2752 01c3 12       		.uleb128 0x12
 2753 01c4 01       		.uleb128 0x1
 2754 01c5 40       		.uleb128 0x40
 2755 01c6 06       		.uleb128 0x6
 2756 01c7 01       		.uleb128 0x1
 2757 01c8 13       		.uleb128 0x13
 2758 01c9 00       		.byte	0x0
 2759 01ca 00       		.byte	0x0
 2760 01cb 24       		.uleb128 0x24
 2761 01cc 05       		.uleb128 0x5
 2762 01cd 00       		.byte	0x0
 2763 01ce 03       		.uleb128 0x3
 2764 01cf 0E       		.uleb128 0xe
 2765 01d0 3A       		.uleb128 0x3a
 2766 01d1 0B       		.uleb128 0xb
 2767 01d2 3B       		.uleb128 0x3b
ARM GAS  C:\Users\DNIEL~1\AppData\Local\Temp\cceZPiI7.s 			page 51


 2768 01d3 0B       		.uleb128 0xb
 2769 01d4 49       		.uleb128 0x49
 2770 01d5 13       		.uleb128 0x13
 2771 01d6 02       		.uleb128 0x2
 2772 01d7 06       		.uleb128 0x6
 2773 01d8 00       		.byte	0x0
 2774 01d9 00       		.byte	0x0
 2775 01da 25       		.uleb128 0x25
 2776 01db 0A       		.uleb128 0xa
 2777 01dc 00       		.byte	0x0
 2778 01dd 03       		.uleb128 0x3
 2779 01de 0E       		.uleb128 0xe
 2780 01df 3A       		.uleb128 0x3a
 2781 01e0 0B       		.uleb128 0xb
 2782 01e1 3B       		.uleb128 0x3b
 2783 01e2 0B       		.uleb128 0xb
 2784 01e3 11       		.uleb128 0x11
 2785 01e4 01       		.uleb128 0x1
 2786 01e5 00       		.byte	0x0
 2787 01e6 00       		.byte	0x0
 2788 01e7 26       		.uleb128 0x26
 2789 01e8 0B       		.uleb128 0xb
 2790 01e9 01       		.byte	0x1
 2791 01ea 11       		.uleb128 0x11
 2792 01eb 01       		.uleb128 0x1
 2793 01ec 12       		.uleb128 0x12
 2794 01ed 01       		.uleb128 0x1
 2795 01ee 00       		.byte	0x0
 2796 01ef 00       		.byte	0x0
 2797 01f0 27       		.uleb128 0x27
 2798 01f1 2E       		.uleb128 0x2e
 2799 01f2 01       		.byte	0x1
 2800 01f3 3F       		.uleb128 0x3f
 2801 01f4 0C       		.uleb128 0xc
 2802 01f5 03       		.uleb128 0x3
 2803 01f6 0E       		.uleb128 0xe
 2804 01f7 3A       		.uleb128 0x3a
 2805 01f8 0B       		.uleb128 0xb
 2806 01f9 3B       		.uleb128 0x3b
 2807 01fa 0B       		.uleb128 0xb
 2808 01fb 49       		.uleb128 0x49
 2809 01fc 13       		.uleb128 0x13
 2810 01fd 3C       		.uleb128 0x3c
 2811 01fe 0C       		.uleb128 0xc
 2812 01ff 01       		.uleb128 0x1
 2813 0200 13       		.uleb128 0x13
 2814 0201 00       		.byte	0x0
 2815 0202 00       		.byte	0x0
 2816 0203 28       		.uleb128 0x28
 2817 0204 1D       		.uleb128 0x1d
 2818 0205 00       		.byte	0x0
 2819 0206 31       		.uleb128 0x31
 2820 0207 13       		.uleb128 0x13
 2821 0208 11       		.uleb128 0x11
 2822 0209 01       		.uleb128 0x1
 2823 020a 12       		.uleb128 0x12
 2824 020b 01       		.uleb128 0x1
ARM GAS  C:\Users\DNIEL~1\AppData\Local\Temp\cceZPiI7.s 			page 52


 2825 020c 58       		.uleb128 0x58
 2826 020d 0B       		.uleb128 0xb
 2827 020e 59       		.uleb128 0x59
 2828 020f 0B       		.uleb128 0xb
 2829 0210 00       		.byte	0x0
 2830 0211 00       		.byte	0x0
 2831 0212 29       		.uleb128 0x29
 2832 0213 1D       		.uleb128 0x1d
 2833 0214 00       		.byte	0x0
 2834 0215 31       		.uleb128 0x31
 2835 0216 13       		.uleb128 0x13
 2836 0217 52       		.uleb128 0x52
 2837 0218 01       		.uleb128 0x1
 2838 0219 55       		.uleb128 0x55
 2839 021a 06       		.uleb128 0x6
 2840 021b 58       		.uleb128 0x58
 2841 021c 0B       		.uleb128 0xb
 2842 021d 59       		.uleb128 0x59
 2843 021e 0B       		.uleb128 0xb
 2844 021f 00       		.byte	0x0
 2845 0220 00       		.byte	0x0
 2846 0221 2A       		.uleb128 0x2a
 2847 0222 34       		.uleb128 0x34
 2848 0223 00       		.byte	0x0
 2849 0224 03       		.uleb128 0x3
 2850 0225 0E       		.uleb128 0xe
 2851 0226 3A       		.uleb128 0x3a
 2852 0227 0B       		.uleb128 0xb
 2853 0228 3B       		.uleb128 0x3b
 2854 0229 05       		.uleb128 0x5
 2855 022a 49       		.uleb128 0x49
 2856 022b 13       		.uleb128 0x13
 2857 022c 3F       		.uleb128 0x3f
 2858 022d 0C       		.uleb128 0xc
 2859 022e 3C       		.uleb128 0x3c
 2860 022f 0C       		.uleb128 0xc
 2861 0230 00       		.byte	0x0
 2862 0231 00       		.byte	0x0
 2863 0232 2B       		.uleb128 0x2b
 2864 0233 34       		.uleb128 0x34
 2865 0234 00       		.byte	0x0
 2866 0235 03       		.uleb128 0x3
 2867 0236 0E       		.uleb128 0xe
 2868 0237 3A       		.uleb128 0x3a
 2869 0238 0B       		.uleb128 0xb
 2870 0239 3B       		.uleb128 0x3b
 2871 023a 0B       		.uleb128 0xb
 2872 023b 49       		.uleb128 0x49
 2873 023c 13       		.uleb128 0x13
 2874 023d 02       		.uleb128 0x2
 2875 023e 0A       		.uleb128 0xa
 2876 023f 00       		.byte	0x0
 2877 0240 00       		.byte	0x0
 2878 0241 2C       		.uleb128 0x2c
 2879 0242 34       		.uleb128 0x34
 2880 0243 00       		.byte	0x0
 2881 0244 03       		.uleb128 0x3
ARM GAS  C:\Users\DNIEL~1\AppData\Local\Temp\cceZPiI7.s 			page 53


 2882 0245 0E       		.uleb128 0xe
 2883 0246 3A       		.uleb128 0x3a
 2884 0247 0B       		.uleb128 0xb
 2885 0248 3B       		.uleb128 0x3b
 2886 0249 0B       		.uleb128 0xb
 2887 024a 49       		.uleb128 0x49
 2888 024b 13       		.uleb128 0x13
 2889 024c 3F       		.uleb128 0x3f
 2890 024d 0C       		.uleb128 0xc
 2891 024e 3C       		.uleb128 0x3c
 2892 024f 0C       		.uleb128 0xc
 2893 0250 00       		.byte	0x0
 2894 0251 00       		.byte	0x0
 2895 0252 2D       		.uleb128 0x2d
 2896 0253 34       		.uleb128 0x34
 2897 0254 00       		.byte	0x0
 2898 0255 03       		.uleb128 0x3
 2899 0256 0E       		.uleb128 0xe
 2900 0257 3A       		.uleb128 0x3a
 2901 0258 0B       		.uleb128 0xb
 2902 0259 3B       		.uleb128 0x3b
 2903 025a 0B       		.uleb128 0xb
 2904 025b 49       		.uleb128 0x49
 2905 025c 13       		.uleb128 0x13
 2906 025d 3F       		.uleb128 0x3f
 2907 025e 0C       		.uleb128 0xc
 2908 025f 02       		.uleb128 0x2
 2909 0260 0A       		.uleb128 0xa
 2910 0261 00       		.byte	0x0
 2911 0262 00       		.byte	0x0
 2912 0263 00       		.byte	0x0
 2913              		.section	.debug_pubnames,"",%progbits
 2914 0000 CE000000 		.4byte	0xce
 2915 0004 0200     		.2byte	0x2
 2916 0006 00000000 		.4byte	.Ldebug_info0
 2917 000a 87090000 		.4byte	0x987
 2918 000e 54070000 		.4byte	0x754
 2919 0012 6C696768 		.ascii	"lightInit\000"
 2919      74496E69 
 2919      7400
 2920 001c 69070000 		.4byte	0x769
 2921 0020 6C696768 		.ascii	"lightCalc\000"
 2921      7443616C 
 2921      6300
 2922 002a 7E070000 		.4byte	0x77e
 2923 002e 6C696768 		.ascii	"lightRight\000"
 2923      74526967 
 2923      687400
 2924 0039 8E070000 		.4byte	0x78e
 2925 003d 6C696768 		.ascii	"lightLeft\000"
 2925      744C6566 
 2925      7400
 2926 0047 9E070000 		.4byte	0x79e
 2927 004b 6C696768 		.ascii	"lightWarning\000"
 2927      74576172 
 2927      6E696E67 
 2927      00
ARM GAS  C:\Users\DNIEL~1\AppData\Local\Temp\cceZPiI7.s 			page 54


 2928 0058 AE070000 		.4byte	0x7ae
 2929 005c 6C696768 		.ascii	"lightBrakeON\000"
 2929      74427261 
 2929      6B654F4E 
 2929      00
 2930 0069 BE070000 		.4byte	0x7be
 2931 006d 6C696768 		.ascii	"lightBrakeOFF\000"
 2931      74427261 
 2931      6B654F46 
 2931      4600
 2932 007b CE070000 		.4byte	0x7ce
 2933 007f 6C696768 		.ascii	"lightPosLampON\000"
 2933      74506F73 
 2933      4C616D70 
 2933      4F4E00
 2934 008e DE070000 		.4byte	0x7de
 2935 0092 6C696768 		.ascii	"lightPosLampOFF\000"
 2935      74506F73 
 2935      4C616D70 
 2935      4F464600 
 2936 00a2 EE070000 		.4byte	0x7ee
 2937 00a6 636D645F 		.ascii	"cmd_lightblink\000"
 2937      6C696768 
 2937      74626C69 
 2937      6E6B00
 2938 00b5 62090000 		.4byte	0x962
 2939 00b9 6C696768 		.ascii	"lightsOn\000"
 2939      74734F6E 
 2939      00
 2940 00c2 74090000 		.4byte	0x974
 2941 00c6 6272616B 		.ascii	"brakeOn\000"
 2941      654F6E00 
 2942 00ce 00000000 		.4byte	0x0
 2943              		.section	.debug_pubtypes,"",%progbits
 2944 0000 9C010000 		.4byte	0x19c
 2945 0004 0200     		.2byte	0x2
 2946 0006 00000000 		.4byte	.Ldebug_info0
 2947 000a 87090000 		.4byte	0x987
 2948 000e 30000000 		.4byte	0x30
 2949 0012 73697A65 		.ascii	"size_t\000"
 2949      5F7400
 2950 0019 49000000 		.4byte	0x49
 2951 001d 75696E74 		.ascii	"uint8_t\000"
 2951      385F7400 
 2952 0025 62000000 		.4byte	0x62
 2953 0029 75696E74 		.ascii	"uint16_t\000"
 2953      31365F74 
 2953      00
 2954 0032 74000000 		.4byte	0x74
 2955 0036 696E7433 		.ascii	"int32_t\000"
 2955      325F7400 
 2956 003e 86000000 		.4byte	0x86
 2957 0042 75696E74 		.ascii	"uint32_t\000"
 2957      33325F74 
 2957      00
 2958 004b 9F000000 		.4byte	0x9f
 2959 004f 75696E74 		.ascii	"uint64_t\000"
ARM GAS  C:\Users\DNIEL~1\AppData\Local\Temp\cceZPiI7.s 			page 55


 2959      36345F74 
 2959      00
 2960 0058 B1000000 		.4byte	0xb1
 2961 005c 626F6F6C 		.ascii	"bool_t\000"
 2961      5F7400
 2962 0063 C3000000 		.4byte	0xc3
 2963 0067 6D73675F 		.ascii	"msg_t\000"
 2963      7400
 2964 006d CE000000 		.4byte	0xce
 2965 0071 73797374 		.ascii	"systime_t\000"
 2965      696D655F 
 2965      7400
 2966 007b 0E010000 		.4byte	0x10e
 2967 007f 42617365 		.ascii	"BaseSequentialStreamVMT\000"
 2967      53657175 
 2967      656E7469 
 2967      616C5374 
 2967      7265616D 
 2968 0097 DB010000 		.4byte	0x1db
 2969 009b 42617365 		.ascii	"BaseSequentialStream\000"
 2969      53657175 
 2969      656E7469 
 2969      616C5374 
 2969      7265616D 
 2970 00b0 FB010000 		.4byte	0x1fb
 2971 00b4 42617365 		.ascii	"BaseChannelVMT\000"
 2971      4368616E 
 2971      6E656C56 
 2971      4D5400
 2972 00c3 1F030000 		.4byte	0x31f
 2973 00c7 42617365 		.ascii	"BaseChannel\000"
 2973      4368616E 
 2973      6E656C00 
 2974 00d3 45030000 		.4byte	0x345
 2975 00d7 70776D73 		.ascii	"pwmstate_t\000"
 2975      74617465 
 2975      5F7400
 2976 00e2 50030000 		.4byte	0x350
 2977 00e6 50574D44 		.ascii	"PWMDriver\000"
 2977      72697665 
 2977      7200
 2978 00f0 B4030000 		.4byte	0x3b4
 2979 00f4 70776D63 		.ascii	"pwmcallback_t\000"
 2979      616C6C62 
 2979      61636B5F 
 2979      7400
 2980 0102 1F050000 		.4byte	0x51f
 2981 0106 73746D33 		.ascii	"stm32_tim_t\000"
 2981      325F7469 
 2981      6D5F7400 
 2982 0112 2B050000 		.4byte	0x52b
 2983 0116 70776D6D 		.ascii	"pwmmode_t\000"
 2983      6F64655F 
 2983      7400
 2984 0120 37050000 		.4byte	0x537
 2985 0124 70776D63 		.ascii	"pwmcnt_t\000"
 2985      6E745F74 
ARM GAS  C:\Users\DNIEL~1\AppData\Local\Temp\cceZPiI7.s 			page 56


 2985      00
 2986 012d 6B050000 		.4byte	0x56b
 2987 0131 50574D43 		.ascii	"PWMChannelConfig\000"
 2987      68616E6E 
 2987      656C436F 
 2987      6E666967 
 2987      00
 2988 0142 EB050000 		.4byte	0x5eb
 2989 0146 50574D43 		.ascii	"PWMConfig\000"
 2989      6F6E6669 
 2989      6700
 2990 0150 5B030000 		.4byte	0x35b
 2991 0154 50574D44 		.ascii	"PWMDriver\000"
 2991      72697665 
 2991      7200
 2992 015e 2E060000 		.4byte	0x62e
 2993 0162 5F5F7661 		.ascii	"__va_list\000"
 2993      5F6C6973 
 2993      7400
 2994 016c 23060000 		.4byte	0x623
 2995 0170 5F5F676E 		.ascii	"__gnuc_va_list\000"
 2995      75635F76 
 2995      615F6C69 
 2995      737400
 2996 017f 48060000 		.4byte	0x648
 2997 0183 76615F6C 		.ascii	"va_list\000"
 2997      69737400 
 2998 018b 53060000 		.4byte	0x653
 2999 018f 6C696768 		.ascii	"lightChanels\000"
 2999      74436861 
 2999      6E656C73 
 2999      00
 3000 019c 00000000 		.4byte	0x0
 3001              		.section	.debug_aranges,"",%progbits
 3002 0000 6C000000 		.4byte	0x6c
 3003 0004 0200     		.2byte	0x2
 3004 0006 00000000 		.4byte	.Ldebug_info0
 3005 000a 04       		.byte	0x4
 3006 000b 00       		.byte	0x0
 3007 000c 0000     		.2byte	0x0
 3008 000e 0000     		.2byte	0x0
 3009 0010 00000000 		.4byte	.LFB118
 3010 0014 1E000000 		.4byte	.LFE118-.LFB118
 3011 0018 00000000 		.4byte	.LFB119
 3012 001c 3C000000 		.4byte	.LFE119-.LFB119
 3013 0020 00000000 		.4byte	.LFB120
 3014 0024 E8000000 		.4byte	.LFE120-.LFB120
 3015 0028 00000000 		.4byte	.LFB121
 3016 002c 24000000 		.4byte	.LFE121-.LFB121
 3017 0030 00000000 		.4byte	.LFB122
 3018 0034 24000000 		.4byte	.LFE122-.LFB122
 3019 0038 00000000 		.4byte	.LFB123
 3020 003c 24000000 		.4byte	.LFE123-.LFB123
 3021 0040 00000000 		.4byte	.LFB124
 3022 0044 0C000000 		.4byte	.LFE124-.LFB124
 3023 0048 00000000 		.4byte	.LFB125
 3024 004c 10000000 		.4byte	.LFE125-.LFB125
ARM GAS  C:\Users\DNIEL~1\AppData\Local\Temp\cceZPiI7.s 			page 57


 3025 0050 00000000 		.4byte	.LFB126
 3026 0054 0C000000 		.4byte	.LFE126-.LFB126
 3027 0058 00000000 		.4byte	.LFB127
 3028 005c 10000000 		.4byte	.LFE127-.LFB127
 3029 0060 00000000 		.4byte	.LFB128
 3030 0064 D4010000 		.4byte	.LFE128-.LFB128
 3031 0068 00000000 		.4byte	0x0
 3032 006c 00000000 		.4byte	0x0
 3033              		.section	.debug_ranges,"",%progbits
 3034              	.Ldebug_ranges0:
 3035 0000 10010000 		.4byte	.LBB26
 3036 0004 20010000 		.4byte	.LBE26
 3037 0008 28010000 		.4byte	.LBB29
 3038 000c 32010000 		.4byte	.LBE29
 3039 0010 00000000 		.4byte	0x0
 3040 0014 00000000 		.4byte	0x0
 3041 0018 00000000 		.4byte	.LFB118
 3042 001c 1E000000 		.4byte	.LFE118
 3043 0020 00000000 		.4byte	.LFB119
 3044 0024 3C000000 		.4byte	.LFE119
 3045 0028 00000000 		.4byte	.LFB120
 3046 002c E8000000 		.4byte	.LFE120
 3047 0030 00000000 		.4byte	.LFB121
 3048 0034 24000000 		.4byte	.LFE121
 3049 0038 00000000 		.4byte	.LFB122
 3050 003c 24000000 		.4byte	.LFE122
 3051 0040 00000000 		.4byte	.LFB123
 3052 0044 24000000 		.4byte	.LFE123
 3053 0048 00000000 		.4byte	.LFB124
 3054 004c 0C000000 		.4byte	.LFE124
 3055 0050 00000000 		.4byte	.LFB125
 3056 0054 10000000 		.4byte	.LFE125
 3057 0058 00000000 		.4byte	.LFB126
 3058 005c 0C000000 		.4byte	.LFE126
 3059 0060 00000000 		.4byte	.LFB127
 3060 0064 10000000 		.4byte	.LFE127
 3061 0068 00000000 		.4byte	.LFB128
 3062 006c D4010000 		.4byte	.LFE128
 3063 0070 00000000 		.4byte	0x0
 3064 0074 00000000 		.4byte	0x0
 3065              		.section	.debug_str,"MS",%progbits,1
 3066              	.LASF44:
 3067 0000 43434552 		.ascii	"CCER\000"
 3067      00
 3068              	.LASF20:
 3069 0005 77726974 		.ascii	"write\000"
 3069      6500
 3070              	.LASF68:
 3071 000b 72696768 		.ascii	"right\000"
 3071      7400
 3072              	.LASF78:
 3073 0011 6C696768 		.ascii	"lightPosLampON\000"
 3073      74506F73 
 3073      4C616D70 
 3073      4F4E00
 3074              	.LASF46:
 3075 0020 444D4152 		.ascii	"DMAR\000"
ARM GAS  C:\Users\DNIEL~1\AppData\Local\Temp\cceZPiI7.s 			page 58


 3075      00
 3076              	.LASF35:
 3077 0025 73746174 		.ascii	"state\000"
 3077      6500
 3078              	.LASF43:
 3079 002b 43434D52 		.ascii	"CCMR2\000"
 3079      3200
 3080              	.LASF47:
 3081 0031 43434D52 		.ascii	"CCMR3\000"
 3081      3300
 3082              	.LASF5:
 3083 0037 73686F72 		.ascii	"short int\000"
 3083      7420696E 
 3083      7400
 3084              	.LASF2:
 3085 0041 73697A65 		.ascii	"size_t\000"
 3085      5F7400
 3086              	.LASF52:
 3087 0048 70776D63 		.ascii	"pwmcnt_t\000"
 3087      6E745F74 
 3087      00
 3088              	.LASF22:
 3089 0051 42617365 		.ascii	"BaseSequentialStream\000"
 3089      53657175 
 3089      656E7469 
 3089      616C5374 
 3089      7265616D 
 3090              	.LASF53:
 3091 0066 6D6F6465 		.ascii	"mode\000"
 3091      00
 3092              	.LASF73:
 3093 006b 6C696768 		.ascii	"lightRight\000"
 3093      74526967 
 3093      687400
 3094              	.LASF27:
 3095 0076 77726974 		.ascii	"writet\000"
 3095      657400
 3096              	.LASF36:
 3097 007d 636F6E66 		.ascii	"config\000"
 3097      696700
 3098              	.LASF72:
 3099 0084 706F735F 		.ascii	"pos_lamp\000"
 3099      6C616D70 
 3099      00
 3100              	.LASF65:
 3101 008d 76615F6C 		.ascii	"va_list\000"
 3101      69737400 
 3102              	.LASF3:
 3103 0095 75696E74 		.ascii	"uint8_t\000"
 3103      385F7400 
 3104              	.LASF24:
 3105 009d 42617365 		.ascii	"BaseChannelVMT\000"
 3105      4368616E 
 3105      6E656C56 
 3105      4D5400
 3106              	.LASF67:
 3107 00ac 6C696768 		.ascii	"lights_disabled\000"
ARM GAS  C:\Users\DNIEL~1\AppData\Local\Temp\cceZPiI7.s 			page 59


 3107      74735F64 
 3107      69736162 
 3107      6C656400 
 3108              	.LASF81:
 3109 00bc 6C696768 		.ascii	"lightCalc\000"
 3109      7443616C 
 3109      6300
 3110              	.LASF61:
 3111 00c6 666C6F61 		.ascii	"float\000"
 3111      7400
 3112              	.LASF23:
 3113 00cc 42617365 		.ascii	"BaseSequentialStreamVMT\000"
 3113      53657175 
 3113      656E7469 
 3113      616C5374 
 3113      7265616D 
 3114              	.LASF21:
 3115 00e4 72656164 		.ascii	"read\000"
 3115      00
 3116              	.LASF12:
 3117 00e9 6C6F6E67 		.ascii	"long long int\000"
 3117      206C6F6E 
 3117      6720696E 
 3117      7400
 3118              	.LASF64:
 3119 00f7 5F5F7661 		.ascii	"__va_list\000"
 3119      5F6C6973 
 3119      7400
 3120              	.LASF9:
 3121 0101 6C6F6E67 		.ascii	"long int\000"
 3121      20696E74 
 3121      00
 3122              	.LASF48:
 3123 010a 43435235 		.ascii	"CCR5\000"
 3123      00
 3124              	.LASF49:
 3125 010f 43435236 		.ascii	"CCR6\000"
 3125      00
 3126              	.LASF26:
 3127 0114 67657474 		.ascii	"gett\000"
 3127      00
 3128              	.LASF77:
 3129 0119 6C696768 		.ascii	"lightBrakeOFF\000"
 3129      74427261 
 3129      6B654F46 
 3129      4600
 3130              	.LASF42:
 3131 0127 43434D52 		.ascii	"CCMR1\000"
 3131      3100
 3132              	.LASF86:
 3133 012d 6C696768 		.ascii	"lightchanels\000"
 3133      74636861 
 3133      6E656C73 
 3133      00
 3134              	.LASF83:
 3135 013a 61726776 		.ascii	"argv\000"
 3135      00
ARM GAS  C:\Users\DNIEL~1\AppData\Local\Temp\cceZPiI7.s 			page 60


 3136              	.LASF75:
 3137 013f 6C696768 		.ascii	"lightWarning\000"
 3137      74576172 
 3137      6E696E67 
 3137      00
 3138              	.LASF62:
 3139 014c 6C6F6E67 		.ascii	"long double\000"
 3139      20646F75 
 3139      626C6500 
 3140              	.LASF40:
 3141 0158 534D4352 		.ascii	"SMCR\000"
 3141      00
 3142              	.LASF30:
 3143 015d 50574D5F 		.ascii	"PWM_UNINIT\000"
 3143      554E494E 
 3143      495400
 3144              	.LASF4:
 3145 0168 756E7369 		.ascii	"unsigned char\000"
 3145      676E6564 
 3145      20636861 
 3145      7200
 3146              	.LASF45:
 3147 0176 42445452 		.ascii	"BDTR\000"
 3147      00
 3148              	.LASF82:
 3149 017b 61726763 		.ascii	"argc\000"
 3149      00
 3150              	.LASF70:
 3151 0180 7761726E 		.ascii	"warning\000"
 3151      696E6700 
 3152              	.LASF1:
 3153 0188 7369676E 		.ascii	"signed char\000"
 3153      65642063 
 3153      68617200 
 3154              	.LASF13:
 3155 0194 75696E74 		.ascii	"uint64_t\000"
 3155      36345F74 
 3155      00
 3156              	.LASF14:
 3157 019d 6C6F6E67 		.ascii	"long long unsigned int\000"
 3157      206C6F6E 
 3157      6720756E 
 3157      7369676E 
 3157      65642069 
 3158              	.LASF10:
 3159 01b4 75696E74 		.ascii	"uint32_t\000"
 3159      33325F74 
 3159      00
 3160              	.LASF79:
 3161 01bd 6C696768 		.ascii	"lightPosLampOFF\000"
 3161      74506F73 
 3161      4C616D70 
 3161      4F464600 
 3162              	.LASF0:
 3163 01cd 756E7369 		.ascii	"unsigned int\000"
 3163      676E6564 
 3163      20696E74 
ARM GAS  C:\Users\DNIEL~1\AppData\Local\Temp\cceZPiI7.s 			page 61


 3163      00
 3164              	.LASF94:
 3165 01da 5F5F6170 		.ascii	"__ap\000"
 3165      00
 3166              	.LASF6:
 3167 01df 75696E74 		.ascii	"uint16_t\000"
 3167      31365F74 
 3167      00
 3168              	.LASF59:
 3169 01e8 50574D43 		.ascii	"PWMConfig\000"
 3169      6F6E6669 
 3169      6700
 3170              	.LASF66:
 3171 01f2 6C696768 		.ascii	"lightChanels\000"
 3171      74436861 
 3171      6E656C73 
 3171      00
 3172              	.LASF25:
 3173 01ff 70757474 		.ascii	"putt\000"
 3173      00
 3174              	.LASF41:
 3175 0204 44494552 		.ascii	"DIER\000"
 3175      00
 3176              	.LASF69:
 3177 0209 6C656674 		.ascii	"left\000"
 3177      00
 3178              	.LASF7:
 3179 020e 73686F72 		.ascii	"short unsigned int\000"
 3179      7420756E 
 3179      7369676E 
 3179      65642069 
 3179      6E7400
 3180              	.LASF80:
 3181 0221 6C696768 		.ascii	"lightInit\000"
 3181      74496E69 
 3181      7400
 3182              	.LASF18:
 3183 022b 73797374 		.ascii	"systime_t\000"
 3183      696D655F 
 3183      7400
 3184              	.LASF28:
 3185 0235 72656164 		.ascii	"readt\000"
 3185      7400
 3186              	.LASF19:
 3187 023b 63686172 		.ascii	"char\000"
 3187      00
 3188              	.LASF50:
 3189 0240 73746D33 		.ascii	"stm32_tim_t\000"
 3189      325F7469 
 3189      6D5F7400 
 3190              	.LASF34:
 3191 024c 50574D44 		.ascii	"PWMDriver\000"
 3191      72697665 
 3191      7200
 3192              	.LASF8:
 3193 0256 696E7433 		.ascii	"int32_t\000"
 3193      325F7400 
ARM GAS  C:\Users\DNIEL~1\AppData\Local\Temp\cceZPiI7.s 			page 62


 3194              	.LASF15:
 3195 025e 626F6F6C 		.ascii	"bool_t\000"
 3195      5F7400
 3196              	.LASF96:
 3197 0265 636D645F 		.ascii	"cmd_lightblink\000"
 3197      6C696768 
 3197      74626C69 
 3197      6E6B00
 3198              	.LASF16:
 3199 0274 5F426F6F 		.ascii	"_Bool\000"
 3199      6C00
 3200              	.LASF95:
 3201 027a 63687072 		.ascii	"chprintf\000"
 3201      696E7466 
 3201      00
 3202              	.LASF87:
 3203 0283 70776D63 		.ascii	"pwmcfg\000"
 3203      666700
 3204              	.LASF56:
 3205 028a 66726571 		.ascii	"frequency\000"
 3205      75656E63 
 3205      7900
 3206              	.LASF92:
 3207 0294 7372632F 		.ascii	"src/light.c\000"
 3207      6C696768 
 3207      742E6300 
 3208              	.LASF57:
 3209 02a0 6368616E 		.ascii	"channels\000"
 3209      6E656C73 
 3209      00
 3210              	.LASF11:
 3211 02a9 6C6F6E67 		.ascii	"long unsigned int\000"
 3211      20756E73 
 3211      69676E65 
 3211      6420696E 
 3211      7400
 3212              	.LASF38:
 3213 02bb 636C6F63 		.ascii	"clock\000"
 3213      6B00
 3214              	.LASF60:
 3215 02c1 646F7562 		.ascii	"double\000"
 3215      6C6500
 3216              	.LASF71:
 3217 02c8 6272616B 		.ascii	"braking\000"
 3217      696E6700 
 3218              	.LASF74:
 3219 02d0 6C696768 		.ascii	"lightLeft\000"
 3219      744C6566 
 3219      7400
 3220              	.LASF91:
 3221 02da 474E5520 		.ascii	"GNU C 4.5.2\000"
 3221      4320342E 
 3221      352E3200 
 3222              	.LASF76:
 3223 02e6 6C696768 		.ascii	"lightBrakeON\000"
 3223      74427261 
 3223      6B654F4E 
ARM GAS  C:\Users\DNIEL~1\AppData\Local\Temp\cceZPiI7.s 			page 63


 3223      00
 3224              	.LASF89:
 3225 02f3 6C696768 		.ascii	"lightsOn\000"
 3225      74734F6E 
 3225      00
 3226              	.LASF32:
 3227 02fc 50574D5F 		.ascii	"PWM_READY\000"
 3227      52454144 
 3227      5900
 3228              	.LASF98:
 3229 0306 73747263 		.ascii	"strcmp\000"
 3229      6D7000
 3230              	.LASF31:
 3231 030d 50574D5F 		.ascii	"PWM_STOP\000"
 3231      53544F50 
 3231      00
 3232              	.LASF58:
 3233 0316 64696572 		.ascii	"dier\000"
 3233      00
 3234              	.LASF88:
 3235 031b 70657269 		.ascii	"period_num\000"
 3235      6F645F6E 
 3235      756D00
 3236              	.LASF97:
 3237 0326 4552524F 		.ascii	"ERROR\000"
 3237      5200
 3238              	.LASF63:
 3239 032c 5F5F676E 		.ascii	"__gnuc_va_list\000"
 3239      75635F76 
 3239      615F6C69 
 3239      737400
 3240              	.LASF85:
 3241 033b 50574D44 		.ascii	"PWMD1\000"
 3241      3100
 3242              	.LASF55:
 3243 0341 50574D43 		.ascii	"PWMChannelConfig\000"
 3243      68616E6E 
 3243      656C436F 
 3243      6E666967 
 3243      00
 3244              	.LASF37:
 3245 0352 70657269 		.ascii	"period\000"
 3245      6F6400
 3246              	.LASF29:
 3247 0359 42617365 		.ascii	"BaseChannel\000"
 3247      4368616E 
 3247      6E656C00 
 3248              	.LASF51:
 3249 0365 70776D6D 		.ascii	"pwmmode_t\000"
 3249      6F64655F 
 3249      7400
 3250              	.LASF84:
 3251 036f 49544D5F 		.ascii	"ITM_RxBuffer\000"
 3251      52784275 
 3251      66666572 
 3251      00
 3252              	.LASF93:
ARM GAS  C:\Users\DNIEL~1\AppData\Local\Temp\cceZPiI7.s 			page 64


 3253 037c 433A5C44 		.ascii	"C:\\Dani\\MegaLux\\Repo\\Modulux\\Modulux\\modulux\\"
 3253      616E695C 
 3253      4D656761 
 3253      4C75785C 
 3253      5265706F 
 3254 03a9 6669726D 		.ascii	"firmware\000"
 3254      77617265 
 3254      00
 3255              	.LASF33:
 3256 03b2 70776D73 		.ascii	"pwmstate_t\000"
 3256      74617465 
 3256      5F7400
 3257              	.LASF39:
 3258 03bd 70776D63 		.ascii	"pwmcallback_t\000"
 3258      616C6C62 
 3258      61636B5F 
 3258      7400
 3259              	.LASF17:
 3260 03cb 6D73675F 		.ascii	"msg_t\000"
 3260      7400
 3261              	.LASF54:
 3262 03d1 63616C6C 		.ascii	"callback\000"
 3262      6261636B 
 3262      00
 3263              	.LASF90:
 3264 03da 6272616B 		.ascii	"brakeOn\000"
 3264      654F6E00 
 3265              		.ident	"GCC: (Sourcery G++ Lite 2011.03-42) 4.5.2"
ARM GAS  C:\Users\DNIEL~1\AppData\Local\Temp\cceZPiI7.s 			page 65


DEFINED SYMBOLS
                            *ABS*:00000000 light.c
C:\Users\DNIEL~1\AppData\Local\Temp\cceZPiI7.s:24     .text.chprintf:00000000 $t
C:\Users\DNIEL~1\AppData\Local\Temp\cceZPiI7.s:29     .text.chprintf:00000000 chprintf
C:\Users\DNIEL~1\AppData\Local\Temp\cceZPiI7.s:69     .text.lightInit:00000000 $t
C:\Users\DNIEL~1\AppData\Local\Temp\cceZPiI7.s:75     .text.lightInit:00000000 lightInit
C:\Users\DNIEL~1\AppData\Local\Temp\cceZPiI7.s:119    .text.lightInit:00000024 $d
C:\Users\DNIEL~1\AppData\Local\Temp\cceZPiI7.s:129    .text.lightCalc:00000000 $t
C:\Users\DNIEL~1\AppData\Local\Temp\cceZPiI7.s:135    .text.lightCalc:00000000 lightCalc
C:\Users\DNIEL~1\AppData\Local\Temp\cceZPiI7.s:276    .text.lightCalc:000000d0 $d
C:\Users\DNIEL~1\AppData\Local\Temp\cceZPiI7.s:286    .text.lightRight:00000000 $t
C:\Users\DNIEL~1\AppData\Local\Temp\cceZPiI7.s:292    .text.lightRight:00000000 lightRight
C:\Users\DNIEL~1\AppData\Local\Temp\cceZPiI7.s:324    .text.lightRight:0000001c $d
C:\Users\DNIEL~1\AppData\Local\Temp\cceZPiI7.s:330    .text.lightLeft:00000000 $t
C:\Users\DNIEL~1\AppData\Local\Temp\cceZPiI7.s:336    .text.lightLeft:00000000 lightLeft
C:\Users\DNIEL~1\AppData\Local\Temp\cceZPiI7.s:368    .text.lightLeft:0000001c $d
C:\Users\DNIEL~1\AppData\Local\Temp\cceZPiI7.s:374    .text.lightWarning:00000000 $t
C:\Users\DNIEL~1\AppData\Local\Temp\cceZPiI7.s:380    .text.lightWarning:00000000 lightWarning
C:\Users\DNIEL~1\AppData\Local\Temp\cceZPiI7.s:412    .text.lightWarning:0000001c $d
C:\Users\DNIEL~1\AppData\Local\Temp\cceZPiI7.s:418    .text.lightBrakeON:00000000 $t
C:\Users\DNIEL~1\AppData\Local\Temp\cceZPiI7.s:424    .text.lightBrakeON:00000000 lightBrakeON
C:\Users\DNIEL~1\AppData\Local\Temp\cceZPiI7.s:440    .text.lightBrakeON:00000008 $d
C:\Users\DNIEL~1\AppData\Local\Temp\cceZPiI7.s:445    .text.lightBrakeOFF:00000000 $t
C:\Users\DNIEL~1\AppData\Local\Temp\cceZPiI7.s:451    .text.lightBrakeOFF:00000000 lightBrakeOFF
C:\Users\DNIEL~1\AppData\Local\Temp\cceZPiI7.s:468    .text.lightBrakeOFF:0000000c $d
C:\Users\DNIEL~1\AppData\Local\Temp\cceZPiI7.s:473    .text.lightPosLampON:00000000 $t
C:\Users\DNIEL~1\AppData\Local\Temp\cceZPiI7.s:479    .text.lightPosLampON:00000000 lightPosLampON
C:\Users\DNIEL~1\AppData\Local\Temp\cceZPiI7.s:495    .text.lightPosLampON:00000008 $d
C:\Users\DNIEL~1\AppData\Local\Temp\cceZPiI7.s:500    .text.lightPosLampOFF:00000000 $t
C:\Users\DNIEL~1\AppData\Local\Temp\cceZPiI7.s:506    .text.lightPosLampOFF:00000000 lightPosLampOFF
C:\Users\DNIEL~1\AppData\Local\Temp\cceZPiI7.s:523    .text.lightPosLampOFF:0000000c $d
C:\Users\DNIEL~1\AppData\Local\Temp\cceZPiI7.s:528    .text.cmd_lightblink:00000000 $t
C:\Users\DNIEL~1\AppData\Local\Temp\cceZPiI7.s:534    .text.cmd_lightblink:00000000 cmd_lightblink
C:\Users\DNIEL~1\AppData\Local\Temp\cceZPiI7.s:792    .text.cmd_lightblink:00000164 $d
C:\Users\DNIEL~1\AppData\Local\Temp\cceZPiI7.s:933    .bss.lightsOn:00000000 lightsOn
C:\Users\DNIEL~1\AppData\Local\Temp\cceZPiI7.s:946    .bss.brakeOn:00000000 brakeOn
C:\Users\DNIEL~1\AppData\Local\Temp\cceZPiI7.s:829    .data.pwmcfg:00000000 $d
C:\Users\DNIEL~1\AppData\Local\Temp\cceZPiI7.s:833    .data.pwmcfg:00000000 pwmcfg
C:\Users\DNIEL~1\AppData\Local\Temp\cceZPiI7.s:849    .bss.period:00000000 $d
C:\Users\DNIEL~1\AppData\Local\Temp\cceZPiI7.s:853    .bss.period:00000000 period
C:\Users\DNIEL~1\AppData\Local\Temp\cceZPiI7.s:856    .rodata.str1.4:00000000 $d
C:\Users\DNIEL~1\AppData\Local\Temp\cceZPiI7.s:934    .bss.lightsOn:00000000 $d
C:\Users\DNIEL~1\AppData\Local\Temp\cceZPiI7.s:936    .bss.lightchanels:00000000 $d
C:\Users\DNIEL~1\AppData\Local\Temp\cceZPiI7.s:940    .bss.lightchanels:00000000 lightchanels
C:\Users\DNIEL~1\AppData\Local\Temp\cceZPiI7.s:947    .bss.brakeOn:00000000 $d
C:\Users\DNIEL~1\AppData\Local\Temp\cceZPiI7.s:949    .bss.period_num:00000000 $d
C:\Users\DNIEL~1\AppData\Local\Temp\cceZPiI7.s:953    .bss.period_num:00000000 period_num
                     .debug_frame:00000010 $d
C:\Users\DNIEL~1\AppData\Local\Temp\cceZPiI7.s:128    .text.lightInit:0000003c $t
C:\Users\DNIEL~1\AppData\Local\Temp\cceZPiI7.s:285    .text.lightCalc:000000e8 $t
C:\Users\DNIEL~1\AppData\Local\Temp\cceZPiI7.s:329    .text.lightRight:00000024 $t
C:\Users\DNIEL~1\AppData\Local\Temp\cceZPiI7.s:373    .text.lightLeft:00000024 $t
C:\Users\DNIEL~1\AppData\Local\Temp\cceZPiI7.s:417    .text.lightWarning:00000024 $t
C:\Users\DNIEL~1\AppData\Local\Temp\cceZPiI7.s:444    .text.lightBrakeON:0000000c $t
C:\Users\DNIEL~1\AppData\Local\Temp\cceZPiI7.s:499    .text.lightPosLampON:0000000c $t
C:\Users\DNIEL~1\AppData\Local\Temp\cceZPiI7.s:828    .text.cmd_lightblink:000001d4 $t

ARM GAS  C:\Users\DNIEL~1\AppData\Local\Temp\cceZPiI7.s 			page 66


UNDEFINED SYMBOLS
chvprintf
pwmStart
PWMD1
pwmDisableChannel
pwmEnableChannel
strcmp
