ARM GAS  C:\Users\DNIEL~1\AppData\Local\Temp\cceZPiI7.s 			page 1


   1              		.syntax unified
   2              		.cpu cortex-m4
   3              		.fpu softvfp
   4              		.eabi_attribute 20, 1
   5              		.eabi_attribute 21, 1
   6              		.eabi_attribute 23, 3
   7              		.eabi_attribute 24, 1
   8              		.eabi_attribute 25, 1
   9              		.eabi_attribute 26, 1
  10              		.eabi_attribute 30, 2
  11              		.eabi_attribute 18, 4
  12              		.thumb
  13              		.file	"light.c"
  20 0000 20040000 		.text
  20      02008502 
  20      00000201 
  20      FB0E0D00 
  20      01010101 
  21              	.Ltext0:
  22              		.cfi_sections	.debug_frame
  23              		.section	.text.chprintf,"ax",%progbits
  24              		.align	2
  25              		.p2align 4,,15
  26              		.thumb
  27              		.thumb_func
  28              		.type	chprintf, %function
  29              	chprintf:
  30              	.LFB118:
  31              		.file 1 "../../../Chibios/os/various/chprintf.h"
  32              		.loc 1 69 0
  33              		.cfi_startproc
  34              		@ args = 4, pretend = 12, frame = 8
  35              		@ frame_needed = 0, uses_anonymous_args = 1
  36              	.LVL0:
  37 0000 0EB4     		push	{r1, r2, r3}
  38              	.LCFI0:
  39              		.cfi_def_cfa_offset 12
  40 0002 00B5     		push	{lr}
  41              	.LCFI1:
  42              		.cfi_def_cfa_offset 16
  43 0004 82B0     		sub	sp, sp, #8
  44              	.LCFI2:
  45              		.cfi_def_cfa_offset 24
  46              		.loc 1 69 0
  47 0006 03AB     		add	r3, sp, #12
  48              		.cfi_offset 14, -16
  49              		.cfi_offset 3, -4
  50              		.cfi_offset 2, -8
  51              		.cfi_offset 1, -12
  52 0008 53F8041B 		ldr	r1, [r3], #4
  53              		.loc 1 73 0
ARM GAS  C:\Users\DNIEL~1\AppData\Local\Temp\cceZPiI7.s 			page 2


  54 000c 1A46     		mov	r2, r3
  55              		.loc 1 72 0
  56 000e 0193     		str	r3, [sp, #4]
  57              		.loc 1 73 0
  58 0010 FFF7FEFF 		bl	chvprintf
  59              	.LVL1:
  60              		.loc 1 75 0
  61 0014 02B0     		add	sp, sp, #8
  62 0016 5DF804EB 		pop	{lr}
  63 001a 03B0     		add	sp, sp, #12
  64 001c 7047     		bx	lr
  65              		.cfi_endproc
  66              	.LFE118:
  67              		.size	chprintf, .-chprintf
  68 001e 00BF     		.section	.text.lightInit,"ax",%progbits
  69              		.align	2
  70              		.p2align 4,,15
  71              		.global	lightInit
  72              		.thumb
  73              		.thumb_func
  74              		.type	lightInit, %function
  75              	lightInit:
  76              	.LFB119:
  77              		.file 2 "src/light.c"
  78              		.loc 2 46 0
  79              		.cfi_startproc
  80              		@ args = 0, pretend = 0, frame = 0
  81              		@ frame_needed = 0, uses_anonymous_args = 0
  82              		.loc 2 48 0
  83 0000 084A     		ldr	r2, .L3
  84              		.loc 2 49 0
  85 0002 0948     		ldr	r0, .L3+4
  86 0004 0949     		ldr	r1, .L3+8
  87              		.loc 2 46 0
  88 0006 38B5     		push	{r3, r4, r5, lr}
  89              	.LCFI3:
  90              		.cfi_def_cfa_offset 16
  91              		.loc 2 48 0
  92 0008 0024     		movs	r4, #0
  93              		.cfi_offset 14, -4
  94              		.cfi_offset 5, -8
  95              		.cfi_offset 4, -12
  96              		.cfi_offset 3, -16
  97 000a 0025     		movs	r5, #0
  98 000c C2E90045 		strd	r4, [r2]
  99              		.loc 2 49 0
 100 0010 FFF7FEFF 		bl	pwmStart
 101              		.loc 2 50 0
 102 0014 0649     		ldr	r1, .L3+12
 103              		.loc 2 51 0
 104 0016 0748     		ldr	r0, .L3+16
 105              		.loc 2 52 0
 106 0018 074A     		ldr	r2, .L3+20
 107              		.loc 2 50 0
 108 001a 0023     		movs	r3, #0
 109 001c 0B60     		str	r3, [r1, #0]
 110              		.loc 2 51 0
ARM GAS  C:\Users\DNIEL~1\AppData\Local\Temp\cceZPiI7.s 			page 3


 111 001e 0370     		strb	r3, [r0, #0]
 112              		.loc 2 52 0
 113 0020 1370     		strb	r3, [r2, #0]
 114              		.loc 2 53 0
 115 0022 38BD     		pop	{r3, r4, r5, pc}
 116              	.L4:
 117              		.align	2
 118              	.L3:
 119 0024 00000000 		.word	.LANCHOR0
 120 0028 00000000 		.word	PWMD1
 121 002c 00000000 		.word	.LANCHOR1
 122 0030 00000000 		.word	.LANCHOR2
 123 0034 00000000 		.word	.LANCHOR3
 124 0038 00000000 		.word	.LANCHOR4
 125              		.cfi_endproc
 126              	.LFE119:
 127              		.size	lightInit, .-lightInit
 128 003c AFF30080 		.section	.text.lightCalc,"ax",%progbits
 129              		.align	2
 130              		.p2align 4,,15
 131              		.global	lightCalc
 132              		.thumb
 133              		.thumb_func
 134              		.type	lightCalc, %function
 135              	lightCalc:
 136              	.LFB120:
 137              		.loc 2 55 0
 138              		.cfi_startproc
 139              		@ args = 0, pretend = 0, frame = 0
 140              		@ frame_needed = 0, uses_anonymous_args = 0
 141 0000 10B5     		push	{r4, lr}
 142              	.LCFI4:
 143              		.cfi_def_cfa_offset 8
 144              		.loc 2 57 0
 145 0002 334C     		ldr	r4, .L19
 146              		.cfi_offset 14, -4
 147              		.cfi_offset 4, -8
 148 0004 D4E90023 		ldrd	r2, [r4]
 149 0008 0120     		movs	r0, #1
 150 000a 0021     		movs	r1, #0
 151 000c 1218     		adds	r2, r2, r0
 152 000e 43EB0103 		adc	r3, r3, r1
 153              		.loc 2 59 0
 154 0012 1F2A     		cmp	r2, #31
 155 0014 73F10001 		sbcs	r1, r3, #0
 156              		.loc 2 57 0
 157 0018 C4E90023 		strd	r2, [r4]
 158              		.loc 2 59 0
 159 001c 21D2     		bcs	.L13
 160              		.loc 2 66 0
 161 001e 2D4C     		ldr	r4, .L19+4
 162 0020 6378     		ldrb	r3, [r4, #1]	@ zero_extendqisi2
 163 0022 002B     		cmp	r3, #0
 164 0024 30D1     		bne	.L14
 165              		.loc 2 72 0
 166 0026 A178     		ldrb	r1, [r4, #2]	@ zero_extendqisi2
 167 0028 0029     		cmp	r1, #0
ARM GAS  C:\Users\DNIEL~1\AppData\Local\Temp\cceZPiI7.s 			page 4


 168 002a 37D1     		bne	.L15
 169              	.L9:
 170              		.loc 2 78 0
 171 002c E078     		ldrb	r0, [r4, #3]	@ zero_extendqisi2
 172 002e 0028     		cmp	r0, #0
 173 0030 3FD1     		bne	.L16
 174              	.L7:
 175              		.loc 2 86 0
 176 0032 294B     		ldr	r3, .L19+8
 177 0034 1B78     		ldrb	r3, [r3, #0]	@ zero_extendqisi2
 178 0036 002B     		cmp	r3, #0
 179 0038 1FD1     		bne	.L17
 180              	.L10:
 181              		.loc 2 90 0
 182 003a 2848     		ldr	r0, .L19+12
 183 003c 0178     		ldrb	r1, [r0, #0]	@ zero_extendqisi2
 184 003e 21B9     		cbnz	r1, .L18
 185              		.loc 2 94 0
 186 0040 2748     		ldr	r0, .L19+16
 187              		.loc 2 96 0
 188 0042 BDE81040 		pop	{r4, lr}
 189              		.loc 2 94 0
 190 0046 FFF7FEBF 		b	pwmDisableChannel
 191              	.L18:
 192              		.loc 2 91 0
 193 004a 2548     		ldr	r0, .L19+16
 194 004c 254C     		ldr	r4, .L19+20
 195 004e B0F808C0 		ldrh	ip, [r0, #8]
 196 0052 84FB0C42 		smull	r4, r2, r4, ip
 197 0056 1946     		mov	r1, r3
 198 0058 D208     		lsrs	r2, r2, #3
 199              		.loc 2 96 0
 200 005a BDE81040 		pop	{r4, lr}
 201              		.loc 2 91 0
 202 005e FFF7FEBF 		b	pwmEnableChannel
 203              	.L13:
 204              		.loc 2 61 0
 205 0062 1F48     		ldr	r0, .L19+16
 206 0064 0121     		movs	r1, #1
 207 0066 FFF7FEFF 		bl	pwmDisableChannel
 208              		.loc 2 62 0
 209 006a 1D48     		ldr	r0, .L19+16
 210 006c 0221     		movs	r1, #2
 211 006e FFF7FEFF 		bl	pwmDisableChannel
 212              		.loc 2 86 0
 213 0072 194B     		ldr	r3, .L19+8
 214 0074 1B78     		ldrb	r3, [r3, #0]	@ zero_extendqisi2
 215 0076 002B     		cmp	r3, #0
 216 0078 DFD0     		beq	.L10
 217              	.L17:
 218              		.loc 2 87 0
 219 007a 1948     		ldr	r0, .L19+16
 220 007c 0289     		ldrh	r2, [r0, #8]
 221 007e 0021     		movs	r1, #0
 222              		.loc 2 96 0
 223 0080 BDE81040 		pop	{r4, lr}
 224              		.loc 2 87 0
ARM GAS  C:\Users\DNIEL~1\AppData\Local\Temp\cceZPiI7.s 			page 5


 225 0084 FFF7FEBF 		b	pwmEnableChannel
 226              	.L14:
 227              		.loc 2 68 0
 228 0088 1548     		ldr	r0, .L19+16
 229 008a 0121     		movs	r1, #1
 230 008c 0289     		ldrh	r2, [r0, #8]
 231 008e FFF7FEFF 		bl	pwmEnableChannel
 232              		.loc 2 72 0
 233 0092 A178     		ldrb	r1, [r4, #2]	@ zero_extendqisi2
 234              		.loc 2 69 0
 235 0094 0020     		movs	r0, #0
 236 0096 6070     		strb	r0, [r4, #1]
 237              		.loc 2 72 0
 238 0098 0029     		cmp	r1, #0
 239 009a C7D0     		beq	.L9
 240              	.L15:
 241              		.loc 2 74 0
 242 009c 1048     		ldr	r0, .L19+16
 243 009e 0221     		movs	r1, #2
 244 00a0 0289     		ldrh	r2, [r0, #8]
 245 00a2 FFF7FEFF 		bl	pwmEnableChannel
 246              		.loc 2 75 0
 247 00a6 0B4B     		ldr	r3, .L19+4
 248              		.loc 2 78 0
 249 00a8 E078     		ldrb	r0, [r4, #3]	@ zero_extendqisi2
 250              		.loc 2 75 0
 251 00aa 0022     		movs	r2, #0
 252 00ac 9A70     		strb	r2, [r3, #2]
 253              		.loc 2 78 0
 254 00ae 0028     		cmp	r0, #0
 255 00b0 BFD0     		beq	.L7
 256              	.L16:
 257              		.loc 2 80 0
 258 00b2 0B4C     		ldr	r4, .L19+16
 259 00b4 0121     		movs	r1, #1
 260 00b6 2289     		ldrh	r2, [r4, #8]
 261 00b8 2046     		mov	r0, r4
 262 00ba FFF7FEFF 		bl	pwmEnableChannel
 263              		.loc 2 81 0
 264 00be 0221     		movs	r1, #2
 265 00c0 2289     		ldrh	r2, [r4, #8]
 266 00c2 2046     		mov	r0, r4
 267 00c4 FFF7FEFF 		bl	pwmEnableChannel
 268              		.loc 2 82 0
 269 00c8 024A     		ldr	r2, .L19+4
 270 00ca 0021     		movs	r1, #0
 271 00cc D170     		strb	r1, [r2, #3]
 272 00ce B0E7     		b	.L7
 273              	.L20:
 274              		.align	2
 275              	.L19:
 276 00d0 00000000 		.word	.LANCHOR0
 277 00d4 00000000 		.word	.LANCHOR5
 278 00d8 00000000 		.word	.LANCHOR4
 279 00dc 00000000 		.word	.LANCHOR3
 280 00e0 00000000 		.word	PWMD1
 281 00e4 67666666 		.word	1717986919
ARM GAS  C:\Users\DNIEL~1\AppData\Local\Temp\cceZPiI7.s 			page 6


 282              		.cfi_endproc
 283              	.LFE120:
 284              		.size	lightCalc, .-lightCalc
 285 00e8 AFF30080 		.section	.text.lightRight,"ax",%progbits
 285      AFF30080 
 286              		.align	2
 287              		.p2align 4,,15
 288              		.global	lightRight
 289              		.thumb
 290              		.thumb_func
 291              		.type	lightRight, %function
 292              	lightRight:
 293              	.LFB121:
 294              		.loc 2 98 0
 295              		.cfi_startproc
 296              		@ args = 0, pretend = 0, frame = 0
 297              		@ frame_needed = 0, uses_anonymous_args = 0
 298              		@ link register save eliminated.
 299              		.loc 2 99 0
 300 0000 0648     		ldr	r0, .L22
 301              		.loc 2 103 0
 302 0002 074B     		ldr	r3, .L22+4
 303              		.loc 2 99 0
 304 0004 0121     		movs	r1, #1
 305              		.loc 2 101 0
 306 0006 0022     		movs	r2, #0
 307              		.loc 2 99 0
 308 0008 0170     		strb	r1, [r0, #0]
 309              		.loc 2 100 0
 310 000a 4170     		strb	r1, [r0, #1]
 311              		.loc 2 101 0
 312 000c 8270     		strb	r2, [r0, #2]
 313              		.loc 2 102 0
 314 000e C270     		strb	r2, [r0, #3]
 315              		.loc 2 103 0
 316 0010 0021     		movs	r1, #0
 317 0012 0020     		movs	r0, #0
 318 0014 C3E90001 		strd	r0, [r3]
 319              		.loc 2 104 0
 320 0018 7047     		bx	lr
 321              	.L23:
 322 001a 00BF     		.align	2
 323              	.L22:
 324 001c 00000000 		.word	.LANCHOR5
 325 0020 00000000 		.word	.LANCHOR0
 326              		.cfi_endproc
 327              	.LFE121:
 328              		.size	lightRight, .-lightRight
 329 0024 AFF30080 		.section	.text.lightLeft,"ax",%progbits
 329      AFF30080 
 329      AFF30080 
 330              		.align	2
 331              		.p2align 4,,15
 332              		.global	lightLeft
 333              		.thumb
 334              		.thumb_func
 335              		.type	lightLeft, %function
ARM GAS  C:\Users\DNIEL~1\AppData\Local\Temp\cceZPiI7.s 			page 7


 336              	lightLeft:
 337              	.LFB122:
 338              		.loc 2 106 0
 339              		.cfi_startproc
 340              		@ args = 0, pretend = 0, frame = 0
 341              		@ frame_needed = 0, uses_anonymous_args = 0
 342              		@ link register save eliminated.
 343              		.loc 2 107 0
 344 0000 0648     		ldr	r0, .L25
 345              		.loc 2 111 0
 346 0002 074B     		ldr	r3, .L25+4
 347              		.loc 2 107 0
 348 0004 0121     		movs	r1, #1
 349              		.loc 2 108 0
 350 0006 0022     		movs	r2, #0
 351              		.loc 2 107 0
 352 0008 0170     		strb	r1, [r0, #0]
 353              		.loc 2 109 0
 354 000a 8170     		strb	r1, [r0, #2]
 355              		.loc 2 108 0
 356 000c 4270     		strb	r2, [r0, #1]
 357              		.loc 2 110 0
 358 000e C270     		strb	r2, [r0, #3]
 359              		.loc 2 111 0
 360 0010 0021     		movs	r1, #0
 361 0012 0020     		movs	r0, #0
 362 0014 C3E90001 		strd	r0, [r3]
 363              		.loc 2 112 0
 364 0018 7047     		bx	lr
 365              	.L26:
 366 001a 00BF     		.align	2
 367              	.L25:
 368 001c 00000000 		.word	.LANCHOR5
 369 0020 00000000 		.word	.LANCHOR0
 370              		.cfi_endproc
 371              	.LFE122:
 372              		.size	lightLeft, .-lightLeft
 373 0024 AFF30080 		.section	.text.lightWarning,"ax",%progbits
 373      AFF30080 
 373      AFF30080 
 374              		.align	2
 375              		.p2align 4,,15
 376              		.global	lightWarning
 377              		.thumb
 378              		.thumb_func
 379              		.type	lightWarning, %function
 380              	lightWarning:
 381              	.LFB123:
 382              		.loc 2 114 0
 383              		.cfi_startproc
 384              		@ args = 0, pretend = 0, frame = 0
 385              		@ frame_needed = 0, uses_anonymous_args = 0
 386              		@ link register save eliminated.
 387              		.loc 2 115 0
 388 0000 0648     		ldr	r0, .L28
 389              		.loc 2 119 0
 390 0002 074B     		ldr	r3, .L28+4
ARM GAS  C:\Users\DNIEL~1\AppData\Local\Temp\cceZPiI7.s 			page 8


 391              		.loc 2 116 0
 392 0004 0021     		movs	r1, #0
 393              		.loc 2 115 0
 394 0006 0122     		movs	r2, #1
 395              		.loc 2 116 0
 396 0008 4170     		strb	r1, [r0, #1]
 397              		.loc 2 117 0
 398 000a 8170     		strb	r1, [r0, #2]
 399              		.loc 2 115 0
 400 000c 0270     		strb	r2, [r0, #0]
 401              		.loc 2 118 0
 402 000e C270     		strb	r2, [r0, #3]
 403              		.loc 2 119 0
 404 0010 0021     		movs	r1, #0
 405 0012 0020     		movs	r0, #0
 406 0014 C3E90001 		strd	r0, [r3]
 407              		.loc 2 120 0
 408 0018 7047     		bx	lr
 409              	.L29:
 410 001a 00BF     		.align	2
 411              	.L28:
 412 001c 00000000 		.word	.LANCHOR5
 413 0020 00000000 		.word	.LANCHOR0
 414              		.cfi_endproc
 415              	.LFE123:
 416              		.size	lightWarning, .-lightWarning
 417 0024 AFF30080 		.section	.text.lightBrakeON,"ax",%progbits
 417      AFF30080 
 417      AFF30080 
 418              		.align	2
 419              		.p2align 4,,15
 420              		.global	lightBrakeON
 421              		.thumb
 422              		.thumb_func
 423              		.type	lightBrakeON, %function
 424              	lightBrakeON:
 425              	.LFB124:
 426              		.loc 2 122 0
 427              		.cfi_startproc
 428              		@ args = 0, pretend = 0, frame = 0
 429              		@ frame_needed = 0, uses_anonymous_args = 0
 430              		@ link register save eliminated.
 431              		.loc 2 123 0
 432 0000 014B     		ldr	r3, .L31
 433 0002 0120     		movs	r0, #1
 434 0004 1870     		strb	r0, [r3, #0]
 435              		.loc 2 125 0
 436 0006 7047     		bx	lr
 437              	.L32:
 438              		.align	2
 439              	.L31:
 440 0008 00000000 		.word	.LANCHOR4
 441              		.cfi_endproc
 442              	.LFE124:
 443              		.size	lightBrakeON, .-lightBrakeON
 444 000c AFF30080 		.section	.text.lightBrakeOFF,"ax",%progbits
 445              		.align	2
ARM GAS  C:\Users\DNIEL~1\AppData\Local\Temp\cceZPiI7.s 			page 9


 446              		.p2align 4,,15
 447              		.global	lightBrakeOFF
 448              		.thumb
 449              		.thumb_func
 450              		.type	lightBrakeOFF, %function
 451              	lightBrakeOFF:
 452              	.LFB125:
 453              		.loc 2 126 0
 454              		.cfi_startproc
 455              		@ args = 0, pretend = 0, frame = 0
 456              		@ frame_needed = 0, uses_anonymous_args = 0
 457              		@ link register save eliminated.
 458              		.loc 2 127 0
 459 0000 024B     		ldr	r3, .L34
 460 0002 0022     		movs	r2, #0
 461 0004 1A70     		strb	r2, [r3, #0]
 462              		.loc 2 129 0
 463 0006 0120     		movs	r0, #1
 464 0008 7047     		bx	lr
 465              	.L35:
 466 000a 00BF     		.align	2
 467              	.L34:
 468 000c 00000000 		.word	.LANCHOR4
 469              		.cfi_endproc
 470              	.LFE125:
 471              		.size	lightBrakeOFF, .-lightBrakeOFF
 472              		.section	.text.lightPosLampON,"ax",%progbits
 473              		.align	2
 474              		.p2align 4,,15
 475              		.global	lightPosLampON
 476              		.thumb
 477              		.thumb_func
 478              		.type	lightPosLampON, %function
 479              	lightPosLampON:
 480              	.LFB126:
 481              		.loc 2 131 0
 482              		.cfi_startproc
 483              		@ args = 0, pretend = 0, frame = 0
 484              		@ frame_needed = 0, uses_anonymous_args = 0
 485              		@ link register save eliminated.
 486              		.loc 2 132 0
 487 0000 014B     		ldr	r3, .L37
 488 0002 0120     		movs	r0, #1
 489 0004 1870     		strb	r0, [r3, #0]
 490              		.loc 2 134 0
 491 0006 7047     		bx	lr
 492              	.L38:
 493              		.align	2
 494              	.L37:
 495 0008 00000000 		.word	.LANCHOR3
 496              		.cfi_endproc
 497              	.LFE126:
 498              		.size	lightPosLampON, .-lightPosLampON
 499 000c AFF30080 		.section	.text.lightPosLampOFF,"ax",%progbits
 500              		.align	2
 501              		.p2align 4,,15
 502              		.global	lightPosLampOFF
ARM GAS  C:\Users\DNIEL~1\AppData\Local\Temp\cceZPiI7.s 			page 10


 503              		.thumb
 504              		.thumb_func
 505              		.type	lightPosLampOFF, %function
 506              	lightPosLampOFF:
 507              	.LFB127:
 508              		.loc 2 135 0
 509              		.cfi_startproc
 510              		@ args = 0, pretend = 0, frame = 0
 511              		@ frame_needed = 0, uses_anonymous_args = 0
 512              		@ link register save eliminated.
 513              		.loc 2 136 0
 514 0000 024B     		ldr	r3, .L40
 515 0002 0022     		movs	r2, #0
 516 0004 1A70     		strb	r2, [r3, #0]
 517              		.loc 2 138 0
 518 0006 0120     		movs	r0, #1
 519 0008 7047     		bx	lr
 520              	.L41:
 521 000a 00BF     		.align	2
 522              	.L40:
 523 000c 00000000 		.word	.LANCHOR3
 524              		.cfi_endproc
 525              	.LFE127:
 526              		.size	lightPosLampOFF, .-lightPosLampOFF
 527              		.section	.text.cmd_lightblink,"ax",%progbits
 528              		.align	2
 529              		.p2align 4,,15
 530              		.global	cmd_lightblink
 531              		.thumb
 532              		.thumb_func
 533              		.type	cmd_lightblink, %function
 534              	cmd_lightblink:
 535              	.LFB128:
 536              		.loc 2 140 0
 537              		.cfi_startproc
 538              		@ args = 0, pretend = 0, frame = 0
 539              		@ frame_needed = 0, uses_anonymous_args = 0
 540              	.LVL2:
 541 0000 2DE9F041 		push	{r4, r5, r6, r7, r8, lr}
 542              	.LCFI5:
 543              		.cfi_def_cfa_offset 24
 544              		.loc 2 140 0
 545 0004 0446     		mov	r4, r0
 546              		.cfi_offset 14, -4
 547              		.cfi_offset 8, -8
 548              		.cfi_offset 7, -12
 549              		.cfi_offset 6, -16
 550              		.cfi_offset 5, -20
 551              		.cfi_offset 4, -24
 552 0006 0D46     		mov	r5, r1
 553              		.loc 2 144 0
 554 0008 5649     		ldr	r1, .L59
 555              	.LVL3:
 556              		.loc 2 140 0
 557 000a 1646     		mov	r6, r2
 558              		.loc 2 144 0
 559 000c FFF7FEFF 		bl	chprintf
ARM GAS  C:\Users\DNIEL~1\AppData\Local\Temp\cceZPiI7.s 			page 11


 560              	.LVL4:
 561              		.loc 2 145 0
 562 0010 2046     		mov	r0, r4
 563 0012 5549     		ldr	r1, .L59+4
 564 0014 FFF7FEFF 		bl	chprintf
 565              		.loc 2 146 0
 566 0018 2168     		ldr	r1, [r4, #0]
 567 001a 2046     		mov	r0, r4
 568 001c 4B69     		ldr	r3, [r1, #20]
 569 001e 0021     		movs	r1, #0
 570 0020 9847     		blx	r3
 571 0022 B0F1FF3F 		cmp	r0, #-1
 572 0026 1DD0     		beq	.L52
 573              	.LVL5:
 574              	.L43:
 575              		.loc 2 203 0
 576 0028 2046     		mov	r0, r4
 577 002a 5049     		ldr	r1, .L59+8
 578 002c FFF7FEFF 		bl	chprintf
 579              		.loc 2 204 0
 580 0030 2046     		mov	r0, r4
 581 0032 4F49     		ldr	r1, .L59+12
 582 0034 FFF7FEFF 		bl	chprintf
 583              		.loc 2 205 0
 584 0038 2046     		mov	r0, r4
 585 003a 4E49     		ldr	r1, .L59+16
 586 003c FFF7FEFF 		bl	chprintf
 587              		.loc 2 206 0
 588 0040 2046     		mov	r0, r4
 589 0042 4D49     		ldr	r1, .L59+20
 590 0044 FFF7FEFF 		bl	chprintf
 591              		.loc 2 207 0
 592 0048 2046     		mov	r0, r4
 593 004a 4C49     		ldr	r1, .L59+24
 594 004c FFF7FEFF 		bl	chprintf
 595              		.loc 2 208 0
 596 0050 2046     		mov	r0, r4
 597 0052 4B49     		ldr	r1, .L59+28
 598 0054 FFF7FEFF 		bl	chprintf
 599              		.loc 2 209 0
 600 0058 4A49     		ldr	r1, .L59+32
 601 005a 2046     		mov	r0, r4
 602              		.loc 2 211 0
 603 005c BDE8F041 		pop	{r4, r5, r6, r7, r8, lr}
 604              		.loc 2 209 0
 605 0060 FFF7FEBF 		b	chprintf
 606              	.LVL6:
 607              	.L52:
 608              	.LBB17:
 609              		.loc 2 147 0
 610 0064 0022     		movs	r2, #0
 611 0066 2046     		mov	r0, r4
 612 0068 4749     		ldr	r1, .L59+36
 613 006a 1346     		mov	r3, r2
 614 006c FFF7FEFF 		bl	chprintf
 615              		.loc 2 148 0
 616 0070 012D     		cmp	r5, #1
ARM GAS  C:\Users\DNIEL~1\AppData\Local\Temp\cceZPiI7.s 			page 12


 617 0072 D9D1     		bne	.L43
 618              		.loc 2 148 0 is_stmt 0 discriminator 1
 619 0074 3668     		ldr	r6, [r6, #0]
 620              	.LVL7:
 621 0076 4549     		ldr	r1, .L59+40
 622 0078 3046     		mov	r0, r6
 623 007a FFF7FEFF 		bl	strcmp
 624 007e 0746     		mov	r7, r0
 625 0080 0028     		cmp	r0, #0
 626 0082 3DD0     		beq	.L53
 627              		.loc 2 155 0 is_stmt 1 discriminator 1
 628 0084 3046     		mov	r0, r6
 629 0086 4249     		ldr	r1, .L59+44
 630 0088 FFF7FEFF 		bl	strcmp
 631 008c 0746     		mov	r7, r0
 632 008e 0028     		cmp	r0, #0
 633 0090 46D0     		beq	.L54
 634              		.loc 2 162 0 discriminator 1
 635 0092 3046     		mov	r0, r6
 636 0094 3F49     		ldr	r1, .L59+48
 637 0096 FFF7FEFF 		bl	strcmp
 638 009a 0746     		mov	r7, r0
 639 009c 0028     		cmp	r0, #0
 640 009e 48D0     		beq	.L55
 641              		.loc 2 169 0 discriminator 1
 642 00a0 3046     		mov	r0, r6
 643 00a2 3D49     		ldr	r1, .L59+52
 644 00a4 FFF7FEFF 		bl	strcmp
 645 00a8 0028     		cmp	r0, #0
 646 00aa 52D0     		beq	.L56
 647              		.loc 2 176 0 discriminator 1
 648 00ac 3046     		mov	r0, r6
 649 00ae 3B49     		ldr	r1, .L59+56
 650 00b0 FFF7FEFF 		bl	strcmp
 651 00b4 0746     		mov	r7, r0
 652 00b6 98B1     		cbz	r0, .L57
 653              		.loc 2 183 0 discriminator 1
 654 00b8 3046     		mov	r0, r6
 655 00ba 3949     		ldr	r1, .L59+60
 656 00bc FFF7FEFF 		bl	strcmp
 657 00c0 B0B1     		cbz	r0, .L58
 658              		.loc 2 190 0 discriminator 1
 659 00c2 3046     		mov	r0, r6
 660 00c4 3749     		ldr	r1, .L59+64
 661 00c6 FFF7FEFF 		bl	strcmp
 662 00ca 0546     		mov	r5, r0
 663              	.LVL8:
 664 00cc 0028     		cmp	r0, #0
 665 00ce ABD1     		bne	.L43
 666              		.loc 2 192 0
 667 00d0 2046     		mov	r0, r4
 668 00d2 3549     		ldr	r1, .L59+68
 669 00d4 FFF7FEFF 		bl	chprintf
 670              	.LBB18:
 671              	.LBB19:
 672              		.loc 2 136 0
 673 00d8 3448     		ldr	r0, .L59+72
ARM GAS  C:\Users\DNIEL~1\AppData\Local\Temp\cceZPiI7.s 			page 13


 674 00da 0570     		strb	r5, [r0, #0]
 675 00dc BDE8F081 		pop	{r4, r5, r6, r7, r8, pc}
 676              	.LVL9:
 677              	.L57:
 678              	.LBE19:
 679              	.LBE18:
 680              		.loc 2 178 0
 681 00e0 2046     		mov	r0, r4
 682 00e2 3349     		ldr	r1, .L59+76
 683 00e4 FFF7FEFF 		bl	chprintf
 684              	.LBB20:
 685              	.LBB21:
 686              		.loc 2 127 0
 687 00e8 324A     		ldr	r2, .L59+80
 688 00ea 1770     		strb	r7, [r2, #0]
 689 00ec BDE8F081 		pop	{r4, r5, r6, r7, r8, pc}
 690              	.L58:
 691              	.LBE21:
 692              	.LBE20:
 693              		.loc 2 185 0
 694 00f0 2046     		mov	r0, r4
 695 00f2 3149     		ldr	r1, .L59+84
 696 00f4 FFF7FEFF 		bl	chprintf
 697              	.LBB22:
 698              	.LBB23:
 699              		.loc 2 132 0
 700 00f8 2C4B     		ldr	r3, .L59+72
 701 00fa 1D70     		strb	r5, [r3, #0]
 702 00fc BDE8F081 		pop	{r4, r5, r6, r7, r8, pc}
 703              	.L53:
 704              	.LBE23:
 705              	.LBE22:
 706              		.loc 2 150 0
 707 0100 2046     		mov	r0, r4
 708 0102 2E49     		ldr	r1, .L59+88
 709 0104 FFF7FEFF 		bl	chprintf
 710              	.LBB24:
 711              	.LBB25:
 712              		.loc 2 99 0
 713 0108 2D4B     		ldr	r3, .L59+92
 714 010a 1D70     		strb	r5, [r3, #0]
 715              		.loc 2 100 0
 716 010c 5D70     		strb	r5, [r3, #1]
 717              		.loc 2 101 0
 718 010e 9F70     		strb	r7, [r3, #2]
 719              	.L51:
 720              	.LBE25:
 721              	.LBE24:
 722              	.LBB26:
 723              	.LBB27:
 724              		.loc 2 111 0
 725 0110 2C4A     		ldr	r2, .L59+96
 726              		.loc 2 110 0
 727 0112 DF70     		strb	r7, [r3, #3]
 728              		.loc 2 111 0
 729 0114 0020     		movs	r0, #0
 730 0116 0021     		movs	r1, #0
ARM GAS  C:\Users\DNIEL~1\AppData\Local\Temp\cceZPiI7.s 			page 14


 731 0118 C2E90001 		strd	r0, [r2]
 732 011c BDE8F081 		pop	{r4, r5, r6, r7, r8, pc}
 733              	.L54:
 734              	.LBE27:
 735              	.LBE26:
 736              		.loc 2 157 0
 737 0120 2046     		mov	r0, r4
 738 0122 2949     		ldr	r1, .L59+100
 739 0124 FFF7FEFF 		bl	chprintf
 740              	.LBB29:
 741              	.LBB28:
 742              		.loc 2 107 0
 743 0128 254B     		ldr	r3, .L59+92
 744 012a 1D70     		strb	r5, [r3, #0]
 745              		.loc 2 108 0
 746 012c 5F70     		strb	r7, [r3, #1]
 747              		.loc 2 109 0
 748 012e 9D70     		strb	r5, [r3, #2]
 749 0130 EEE7     		b	.L51
 750              	.L55:
 751              	.LBE28:
 752              	.LBE29:
 753              		.loc 2 164 0
 754 0132 2046     		mov	r0, r4
 755 0134 2549     		ldr	r1, .L59+104
 756 0136 FFF7FEFF 		bl	chprintf
 757              	.LBB30:
 758              	.LBB31:
 759              		.loc 2 115 0
 760 013a 2148     		ldr	r0, .L59+92
 761              		.loc 2 119 0
 762 013c 214B     		ldr	r3, .L59+96
 763              		.loc 2 115 0
 764 013e 0570     		strb	r5, [r0, #0]
 765              		.loc 2 116 0
 766 0140 4770     		strb	r7, [r0, #1]
 767              		.loc 2 117 0
 768 0142 8770     		strb	r7, [r0, #2]
 769              		.loc 2 118 0
 770 0144 C570     		strb	r5, [r0, #3]
 771              		.loc 2 119 0
 772 0146 0021     		movs	r1, #0
 773 0148 0020     		movs	r0, #0
 774 014a C3E90001 		strd	r0, [r3]
 775 014e BDE8F081 		pop	{r4, r5, r6, r7, r8, pc}
 776              	.L56:
 777              	.LBE31:
 778              	.LBE30:
 779              		.loc 2 171 0
 780 0152 1F49     		ldr	r1, .L59+108
 781 0154 2046     		mov	r0, r4
 782 0156 FFF7FEFF 		bl	chprintf
 783              	.LBB32:
 784              	.LBB33:
 785              		.loc 2 123 0
 786 015a 1649     		ldr	r1, .L59+80
 787 015c 0D70     		strb	r5, [r1, #0]
ARM GAS  C:\Users\DNIEL~1\AppData\Local\Temp\cceZPiI7.s 			page 15


 788 015e BDE8F081 		pop	{r4, r5, r6, r7, r8, pc}
 789              	.L60:
 790 0162 00BF     		.align	2
 791              	.L59:
 792 0164 00000000 		.word	.LC0
 793 0168 04000000 		.word	.LC1
 794 016c DC010000 		.word	.LC17
 795 0170 F4010000 		.word	.LC18
 796 0174 08020000 		.word	.LC19
 797 0178 20020000 		.word	.LC20
 798 017c 38020000 		.word	.LC21
 799 0180 50020000 		.word	.LC22
 800 0184 68020000 		.word	.LC23
 801 0188 0C000000 		.word	.LC2
 802 018c 18000000 		.word	.LC3
 803 0190 58000000 		.word	.LC5
 804 0194 98000000 		.word	.LC7
 805 0198 DC000000 		.word	.LC9
 806 019c 18010000 		.word	.LC11
 807 01a0 5C010000 		.word	.LC13
 808 01a4 9C010000 		.word	.LC15
 809 01a8 A4010000 		.word	.LC16
 810 01ac 00000000 		.word	.LANCHOR3
 811 01b0 24010000 		.word	.LC12
 812 01b4 00000000 		.word	.LANCHOR4
 813 01b8 64010000 		.word	.LC14
 814 01bc 20000000 		.word	.LC4
 815 01c0 00000000 		.word	.LANCHOR5
 816 01c4 00000000 		.word	.LANCHOR0
 817 01c8 60000000 		.word	.LC6
 818 01cc A0000000 		.word	.LC8
 819 01d0 E4000000 		.word	.LC10
 820              	.LBE33:
 821              	.LBE32:
 822              	.LBE17:
 823              		.cfi_endproc
 824              	.LFE128:
 825              		.size	cmd_lightblink, .-cmd_lightblink
 826              		.global	lightsOn
 827              		.global	brakeOn
 828 01d4 AFF30080 		.section	.data.pwmcfg,"aw",%progbits
 828      AFF30080 
 828      AFF30080 
 829              		.align	2
 830              		.set	.LANCHOR1,. + 0
 831              		.type	pwmcfg, %object
 832              		.size	pwmcfg, 52
 833              	pwmcfg:
 834 0000 40420F00 		.word	1000000
 835 0004 E803     		.short	1000
 836 0006 0000     		.space	2
 837 0008 00000000 		.word	0
 838 000c 01000000 		.word	1
 839 0010 00000000 		.word	0
 840 0014 01000000 		.word	1
 841 0018 00000000 		.word	0
 842 001c 01000000 		.word	1
ARM GAS  C:\Users\DNIEL~1\AppData\Local\Temp\cceZPiI7.s 			page 16


 843 0020 00000000 		.word	0
 844 0024 00000000 		.word	0
 845 0028 00000000 		.word	0
 846 002c 00000000 		.word	0
 847 0030 00000000 		.space	4
 848              		.section	.bss.period,"aw",%nobits
 849              		.align	3
 850              		.set	.LANCHOR0,. + 0
 851              		.type	period, %object
 852              		.size	period, 8
 853              	period:
 854 0000 00000000 		.space	8
 854      00000000 
 855              		.section	.rodata.str1.4,"aMS",%progbits,1
 856              		.align	2
 857              	.LC0:
 858 0000 1B6300   		.ascii	"\033c\000"
 859 0003 00       		.space	1
 860              	.LC1:
 861 0004 1B5B324A 		.ascii	"\033[2J\000"
 861      00
 862 0009 000000   		.space	3
 863              	.LC2:
 864 000c 1B5B2564 		.ascii	"\033[%d;%dH\000"
 864      3B256448 
 864      00
 865 0015 000000   		.space	3
 866              	.LC3:
 867 0018 72696768 		.ascii	"right\000"
 867      7400
 868 001e 0000     		.space	2
 869              	.LC4:
 870 0020 2D2D2D2D 		.ascii	"-------------- Blinking right enabled -------------"
 870      2D2D2D2D 
 870      2D2D2D2D 
 870      2D2D2042 
 870      6C696E6B 
 871 0053 2D0D0A00 		.ascii	"-\015\012\000"
 872 0057 00       		.space	1
 873              	.LC5:
 874 0058 6C656674 		.ascii	"left\000"
 874      00
 875 005d 000000   		.space	3
 876              	.LC6:
 877 0060 2D2D2D2D 		.ascii	"-------------- Blinking left enabled --------------"
 877      2D2D2D2D 
 877      2D2D2D2D 
 877      2D2D2042 
 877      6C696E6B 
 878 0093 0D0A00   		.ascii	"\015\012\000"
 879 0096 0000     		.space	2
 880              	.LC7:
 881 0098 7761726E 		.ascii	"warning\000"
 881      696E6700 
 882              	.LC8:
 883 00a0 2D2D2D2D 		.ascii	"-------------- Blinking warning enabled -----------"
 883      2D2D2D2D 
ARM GAS  C:\Users\DNIEL~1\AppData\Local\Temp\cceZPiI7.s 			page 17


 883      2D2D2D2D 
 883      2D2D2042 
 883      6C696E6B 
 884 00d3 2D2D2D0D 		.ascii	"---\015\012\000"
 884      0A00
 885 00d9 000000   		.space	3
 886              	.LC9:
 887 00dc 6272616B 		.ascii	"brakeon\000"
 887      656F6E00 
 888              	.LC10:
 889 00e4 2D2D2D2D 		.ascii	"-------------- Brake light enabled --------------\015"
 889      2D2D2D2D 
 889      2D2D2D2D 
 889      2D2D2042 
 889      72616B65 
 890 0116 0A00     		.ascii	"\012\000"
 891              	.LC11:
 892 0118 6272616B 		.ascii	"brakeoff\000"
 892      656F6666 
 892      00
 893 0121 000000   		.space	3
 894              	.LC12:
 895 0124 2D2D2D2D 		.ascii	"-------------- Brake light disabled --------------\015"
 895      2D2D2D2D 
 895      2D2D2D2D 
 895      2D2D2042 
 895      72616B65 
 896 0157 0A00     		.ascii	"\012\000"
 897 0159 000000   		.space	3
 898              	.LC13:
 899 015c 6C616D70 		.ascii	"lampon\000"
 899      6F6E00
 900 0163 00       		.space	1
 901              	.LC14:
 902 0164 2D2D2D2D 		.ascii	"-------------- Position lamp enabled --------------"
 902      2D2D2D2D 
 902      2D2D2D2D 
 902      2D2D2050 
 902      6F736974 
 903 0197 0D0A00   		.ascii	"\015\012\000"
 904 019a 0000     		.space	2
 905              	.LC15:
 906 019c 6C616D70 		.ascii	"lampoff\000"
 906      6F666600 
 907              	.LC16:
 908 01a4 2D2D2D2D 		.ascii	"-------------- Position lamp disabled -------------"
 908      2D2D2D2D 
 908      2D2D2D2D 
 908      2D2D2050 
 908      6F736974 
 909 01d7 2D0D0A00 		.ascii	"-\015\012\000"
 910 01db 00       		.space	1
 911              	.LC17:
 912 01dc 55736167 		.ascii	"Usage: light right\015\012\000"
 912      653A206C 
 912      69676874 
 912      20726967 
ARM GAS  C:\Users\DNIEL~1\AppData\Local\Temp\cceZPiI7.s 			page 18


 912      68740D0A 
 913 01f1 000000   		.space	3
 914              	.LC18:
 915 01f4 20202020 		.ascii	"       light left\015\012\000"
 915      2020206C 
 915      69676874 
 915      206C6566 
 915      740D0A00 
 916              	.LC19:
 917 0208 20202020 		.ascii	"       light warning\015\012\000"
 917      2020206C 
 917      69676874 
 917      20776172 
 917      6E696E67 
 918 021f 00       		.space	1
 919              	.LC20:
 920 0220 20202020 		.ascii	"       light brakeon\015\012\000"
 920      2020206C 
 920      69676874 
 920      20627261 
 920      6B656F6E 
 921 0237 00       		.space	1
 922              	.LC21:
 923 0238 20202020 		.ascii	"       light brakeoff\015\012\000"
 923      2020206C 
 923      69676874 
 923      20627261 
 923      6B656F66 
 924              	.LC22:
 925 0250 20202020 		.ascii	"       light lampon\015\012\000"
 925      2020206C 
 925      69676874 
 925      206C616D 
 925      706F6E0D 
 926 0266 0000     		.space	2
 927              	.LC23:
 928 0268 20202020 		.ascii	"       light lampoff\015\012\000"
 928      2020206C 
 928      69676874 
 928      206C616D 
 928      706F6666 
 929 027f 00       		.section	.bss.lightsOn,"aw",%nobits
 930              		.set	.LANCHOR3,. + 0
 931              		.type	lightsOn, %object
 932              		.size	lightsOn, 1
 933              	lightsOn:
 934 0000 00       		.space	1
 935              		.section	.bss.lightchanels,"aw",%nobits
 936              		.align	2
 937              		.set	.LANCHOR5,. + 0
 938              		.type	lightchanels, %object
 939              		.size	lightchanels, 6
 940              	lightchanels:
 941 0000 00000000 		.space	6
 941      0000
 942 0006 0000     		.section	.bss.brakeOn,"aw",%nobits
 943              		.set	.LANCHOR4,. + 0
ARM GAS  C:\Users\DNIEL~1\AppData\Local\Temp\cceZPiI7.s 			page 19


 944              		.type	brakeOn, %object
 945              		.size	brakeOn, 1
 946              	brakeOn:
 947 0000 00       		.space	1
 948              		.section	.bss.period_num,"aw",%nobits
 949              		.align	2
 950              		.set	.LANCHOR2,. + 0
 951              		.type	period_num, %object
 952              		.size	period_num, 4
 953              	period_num:
 954 0000 00000000 		.space	4
 955              		.text
 956              	.Letext0: