ARM GAS  C:\Users\DNIEL~1\AppData\Local\Temp\ccXiW4Ag.s 			page 1


   1              		.syntax unified
   2              		.cpu cortex-m3
   3              		.fpu softvfp
   4              		.eabi_attribute 20, 1
   5              		.eabi_attribute 21, 1
   6              		.eabi_attribute 23, 3
   7              		.eabi_attribute 24, 1
   8              		.eabi_attribute 25, 1
   9              		.eabi_attribute 26, 1
  10              		.eabi_attribute 30, 2
  11              		.eabi_attribute 18, 4
  12              		.thumb
  13              		.file	"main.c"
  20 0000 7C020000 		.text
  20      0200CA01 
  20      00000201 
  20      FB0E0D00 
  20      01010101 
  21              	.Ltext0:
  22              		.cfi_sections	.debug_frame
  23              		.section	.text.Thread1,"ax",%progbits
  24              		.align	2
  25              		.p2align 4,,15
  26              		.thumb
  27              		.thumb_func
  28              		.type	Thread1, %function
  29              	Thread1:
  30              	.LFB118:
  31              		.file 1 "src/main.c"
  32              		.loc 1 23 0
  33              		.cfi_startproc
  34              		@ args = 0, pretend = 0, frame = 0
  35              		@ frame_needed = 0, uses_anonymous_args = 0
  36              	.LVL0:
  37              		.loc 1 28 0
  38 0000 0D48     		ldr	r0, .L4
  39              	.LVL1:
  40              		.loc 1 23 0
  41 0002 38B5     		push	{r3, r4, r5, lr}
  42              	.LCFI0:
  43              		.cfi_def_cfa_offset 16
  44              		.loc 1 28 0
  45 0004 0D4A     		ldr	r2, .L4+4
  46 0006 8369     		ldr	r3, [r0, #24]
  47              		.cfi_offset 14, -4
  48              		.cfi_offset 5, -8
  49              		.cfi_offset 4, -12
  50              		.cfi_offset 3, -16
  51              		.loc 1 31 0
  52 0008 0D4D     		ldr	r5, .L4+8
  53              		.loc 1 32 0
ARM GAS  C:\Users\DNIEL~1\AppData\Local\Temp\ccXiW4Ag.s 			page 2


  54 000a 0E4C     		ldr	r4, .L4+12
  55              		.loc 1 28 0
  56 000c 9A61     		str	r2, [r3, #24]
  57              	.L2:
  58              	.LVL2:
  59              		.loc 1 31 0 discriminator 1
  60 000e 0423     		movs	r3, #4
  61              		.loc 1 32 0 discriminator 1
  62 0010 4022     		movs	r2, #64
  63              		.loc 1 33 0 discriminator 1
  64 0012 8021     		movs	r1, #128
  65              		.loc 1 31 0 discriminator 1
  66 0014 6B83     		strh	r3, [r5, #26]	@ movhi
  67              		.loc 1 34 0 discriminator 1
  68 0016 4FF4FA70 		mov	r0, #500
  69              		.loc 1 32 0 discriminator 1
  70 001a 6283     		strh	r2, [r4, #26]	@ movhi
  71              		.loc 1 33 0 discriminator 1
  72 001c 6183     		strh	r1, [r4, #26]	@ movhi
  73              		.loc 1 34 0 discriminator 1
  74 001e FFF7FEFF 		bl	chThdSleep
  75              		.loc 1 35 0 discriminator 1
  76 0022 0423     		movs	r3, #4
  77              		.loc 1 36 0 discriminator 1
  78 0024 4022     		movs	r2, #64
  79              		.loc 1 37 0 discriminator 1
  80 0026 8021     		movs	r1, #128
  81              		.loc 1 35 0 discriminator 1
  82 0028 2B83     		strh	r3, [r5, #24]	@ movhi
  83              		.loc 1 38 0 discriminator 1
  84 002a 4FF4FA70 		mov	r0, #500
  85              		.loc 1 36 0 discriminator 1
  86 002e 2283     		strh	r2, [r4, #24]	@ movhi
  87              		.loc 1 37 0 discriminator 1
  88 0030 2183     		strh	r1, [r4, #24]	@ movhi
  89              		.loc 1 38 0 discriminator 1
  90 0032 FFF7FEFF 		bl	chThdSleep
  91 0036 EAE7     		b	.L2
  92              	.L5:
  93              		.align	2
  94              	.L4:
  95 0038 00000000 		.word	rlist
  96 003c 00000000 		.word	.LC0
  97 0040 00100240 		.word	1073876992
  98 0044 00040240 		.word	1073873920
  99              		.cfi_endproc
 100              	.LFE118:
 101              		.size	Thread1, .-Thread1
 102 0048 AFF30080 		.section	.text.task20ms,"ax",%progbits
 102      AFF30080 
 103              		.align	2
 104              		.p2align 4,,15
 105              		.thumb
 106              		.thumb_func
 107              		.type	task20ms, %function
 108              	task20ms:
 109              	.LFB119:
ARM GAS  C:\Users\DNIEL~1\AppData\Local\Temp\ccXiW4Ag.s 			page 3


 110              		.loc 1 46 0
 111              		.cfi_startproc
 112              		@ args = 0, pretend = 0, frame = 0
 113              		@ frame_needed = 0, uses_anonymous_args = 0
 114              	.LVL3:
 115              		.loc 1 50 0
 116 0000 0549     		ldr	r1, .L8
 117              		.loc 1 51 0
 118 0002 0648     		ldr	r0, .L8+4
 119              	.LVL4:
 120              		.loc 1 50 0
 121 0004 8B69     		ldr	r3, [r1, #24]
 122 0006 064A     		ldr	r2, .L8+8
 123              		.loc 1 46 0
 124 0008 10B5     		push	{r4, lr}
 125              	.LCFI1:
 126              		.cfi_def_cfa_offset 8
 127              		.loc 1 51 0
 128 000a C468     		ldr	r4, [r0, #12]
 129              		.cfi_offset 14, -4
 130              		.cfi_offset 4, -8
 131              		.loc 1 50 0
 132 000c 9A61     		str	r2, [r3, #24]
 133              	.LVL5:
 134              	.L7:
 135              		.loc 1 53 0 discriminator 1
 136 000e 1434     		adds	r4, r4, #20
 137              	.LVL6:
 138              		.loc 1 57 0 discriminator 1
 139 0010 2046     		mov	r0, r4
 140 0012 FFF7FEFF 		bl	chThdSleepUntil
 141 0016 FAE7     		b	.L7
 142              	.L9:
 143              		.align	2
 144              	.L8:
 145 0018 00000000 		.word	rlist
 146 001c 00000000 		.word	vtlist
 147 0020 08000000 		.word	.LC1
 148              		.cfi_endproc
 149              	.LFE119:
 150              		.size	task20ms, .-task20ms
 151 0024 AFF30080 		.section	.text.main,"ax",%progbits
 151      AFF30080 
 151      AFF30080 
 152              		.align	2
 153              		.p2align 4,,15
 154              		.global	main
 155              		.thumb
 156              		.thumb_func
 157              		.type	main, %function
 158              	main:
 159              	.LFB120:
 160              		.loc 1 64 0
 161              		.cfi_startproc
 162              		@ args = 0, pretend = 0, frame = 0
 163              		@ frame_needed = 0, uses_anonymous_args = 0
 164 0000 70B5     		push	{r4, r5, r6, lr}
ARM GAS  C:\Users\DNIEL~1\AppData\Local\Temp\ccXiW4Ag.s 			page 4


 165              	.LCFI2:
 166              		.cfi_def_cfa_offset 16
 167              		.loc 1 77 0
 168 0002 0F4D     		ldr	r5, .L12
 169              		.cfi_offset 14, -4
 170              		.cfi_offset 6, -8
 171              		.cfi_offset 5, -12
 172              		.cfi_offset 4, -16
 173              		.loc 1 64 0
 174 0004 82B0     		sub	sp, sp, #8
 175              	.LCFI3:
 176              		.cfi_def_cfa_offset 24
 177              		.loc 1 77 0
 178 0006 1026     		movs	r6, #16
 179              		.loc 1 73 0
 180 0008 FFF7FEFF 		bl	halInit
 181              		.loc 1 82 0
 182 000c 0024     		movs	r4, #0
 183              		.loc 1 74 0
 184 000e FFF7FEFF 		bl	chSysInit
 185              		.loc 1 82 0
 186 0012 4FF4D871 		mov	r1, #432
 187 0016 4022     		movs	r2, #64
 188 0018 0A4B     		ldr	r3, .L12+4
 189              		.loc 1 77 0
 190 001a 2E83     		strh	r6, [r5, #24]	@ movhi
 191              		.loc 1 82 0
 192 001c 0A48     		ldr	r0, .L12+8
 193 001e 0094     		str	r4, [sp, #0]
 194 0020 FFF7FEFF 		bl	chThdCreateStatic
 195              		.loc 1 87 0
 196 0024 0948     		ldr	r0, .L12+12
 197 0026 4FF49871 		mov	r1, #304
 198 002a 4022     		movs	r2, #64
 199 002c 084B     		ldr	r3, .L12+16
 200 002e 0094     		str	r4, [sp, #0]
 201 0030 FFF7FEFF 		bl	chThdCreateStatic
 202              	.L11:
 203              		.loc 1 94 0 discriminator 1
 204 0034 4FF47A70 		mov	r0, #1000
 205 0038 FFF7FEFF 		bl	chThdSleep
 206 003c FAE7     		b	.L11
 207              	.L13:
 208 003e 00BF     		.align	2
 209              	.L12:
 210 0040 000C0240 		.word	1073875968
 211 0044 00000000 		.word	task20ms
 212 0048 00000000 		.word	.LANCHOR0
 213 004c 00000000 		.word	.LANCHOR1
 214 0050 00000000 		.word	Thread1
 215              		.cfi_endproc
 216              	.LFE120:
 217              		.size	main, .-main
 218 0054 AFF30080 		.section	.bss.waThread1,"aw",%nobits
 218      AFF30080 
 218      AFF30080 
 219              		.align	3
ARM GAS  C:\Users\DNIEL~1\AppData\Local\Temp\ccXiW4Ag.s 			page 5


 220              		.set	.LANCHOR1,. + 0
 221              		.type	waThread1, %object
 222              		.size	waThread1, 304
 223              	waThread1:
 224 0000 00000000 		.space	304
 224      00000000 
 224      00000000 
 224      00000000 
 224      00000000 
 225              		.section	.bss.watask20ms,"aw",%nobits
 226              		.align	3
 227              		.set	.LANCHOR0,. + 0
 228              		.type	watask20ms, %object
 229              		.size	watask20ms, 432
 230              	watask20ms:
 231 0000 00000000 		.space	432
 231      00000000 
 231      00000000 
 231      00000000 
 231      00000000 
 232              		.section	.rodata.str1.4,"aMS",%progbits,1
 233              		.align	2
 234              	.LC0:
 235 0000 626C696E 		.ascii	"blinker\000"
 235      6B657200 
 236              	.LC1:
 237 0008 7461736B 		.ascii	"task20ms\000"
 237      32306D73 
 237      00
 238 0011 000000   		.text
 239              	.Letext0: