ARM GAS  C:\Users\RICHRD~1\AppData\Local\Temp\ccSYCwWo.s 			page 1


   1              		.syntax unified
   2              		.cpu cortex-m4
   3              		.fpu softvfp
   4              		.eabi_attribute 20, 1
   5              		.eabi_attribute 21, 1
   6              		.eabi_attribute 23, 3
   7              		.eabi_attribute 24, 1
   8              		.eabi_attribute 25, 1
   9              		.eabi_attribute 26, 1
  10              		.eabi_attribute 30, 2
  11              		.eabi_attribute 34, 1
  12              		.eabi_attribute 18, 4
  13              		.thumb
  14              		.file	"main.c"
  15              		.text
  16              	.Ltext0:
  17              		.cfi_sections	.debug_frame
  18              		.section	.text.ds18b20_polling_thread,"ax",%progbits
  19              		.align	2
  20              		.p2align 4,,15
  21              		.thumb
  22              		.thumb_func
  23              		.type	ds18b20_polling_thread, %function
  24              	ds18b20_polling_thread:
  25              	.LFB120:
  26              		.file 1 "src/main.c"
  27              		.loc 1 50 0
  28              		.cfi_startproc
  29              		@ args = 0, pretend = 0, frame = 0
  30              		@ frame_needed = 0, uses_anonymous_args = 0
  31              	.LVL0:
  32 0000 38B5     		push	{r3, r4, r5, lr}
  33              	.LCFI0:
  34              		.cfi_def_cfa_offset 16
  35              		.cfi_offset 3, -16
  36              		.cfi_offset 4, -12
  37              		.cfi_offset 5, -8
  38              		.cfi_offset 14, -4
  39              		.loc 1 51 0
  40 0002 4FF47A70 		mov	r0, #1000
  41              	.LVL1:
  42 0006 FFF7FEFF 		bl	chThdSleep
  43              	.LVL2:
  44              		.loc 1 52 0
  45 000a FFF7FEFF 		bl	DS18B20_Init
  46              	.LVL3:
  47              		.loc 1 55 0
  48 000e 074B     		ldr	r3, .L4
  49 0010 074D     		ldr	r5, .L4+4
  50 0012 DC68     		ldr	r4, [r3, #12]
  51              	.LVL4:
  52              	.L2:
  53              		.loc 1 60 0 discriminator 1
  54 0014 0020     		movs	r0, #0
  55 0016 FFF7FEFF 		bl	DS18B20_GetTemp
  56              	.LVL5:
  57              		.loc 1 58 0 discriminator 1
ARM GAS  C:\Users\RICHRD~1\AppData\Local\Temp\ccSYCwWo.s 			page 2


  58 001a 04F5FA74 		add	r4, r4, #500
  59              	.LVL6:
  60              		.loc 1 60 0 discriminator 1
  61 001e 0146     		mov	r1, r0
  62              		.loc 1 62 0 discriminator 1
  63 0020 2046     		mov	r0, r4
  64              		.loc 1 60 0 discriminator 1
  65 0022 2960     		str	r1, [r5, #0]	@ float
  66              		.loc 1 62 0 discriminator 1
  67 0024 FFF7FEFF 		bl	chThdSleepUntil
  68              	.LVL7:
  69 0028 F4E7     		b	.L2
  70              	.L5:
  71 002a 00BF     		.align	2
  72              	.L4:
  73 002c 00000000 		.word	vtlist
  74 0030 00000000 		.word	.LANCHOR0
  75              		.cfi_endproc
  76              	.LFE120:
  77              		.size	ds18b20_polling_thread, .-ds18b20_polling_thread
  78 0034 AFF30080 		.section	.text.serial_init,"ax",%progbits
  78      AFF30080 
  78      AFF30080 
  79              		.align	2
  80              		.p2align 4,,15
  81              		.global	serial_init
  82              		.thumb
  83              		.thumb_func
  84              		.type	serial_init, %function
  85              	serial_init:
  86              	.LFB118:
  87              		.loc 1 32 0
  88              		.cfi_startproc
  89              		@ args = 0, pretend = 0, frame = 0
  90              		@ frame_needed = 0, uses_anonymous_args = 0
  91 0000 10B5     		push	{r4, lr}
  92              	.LCFI1:
  93              		.cfi_def_cfa_offset 8
  94              		.cfi_offset 4, -8
  95              		.cfi_offset 14, -4
  96              		.loc 1 33 0
  97 0002 4FF48064 		mov	r4, #1024
  98 0006 C4F20204 		movt	r4, 16386
  99 000a 4021     		movs	r1, #64
 100 000c 2046     		mov	r0, r4
 101 000e 40F28232 		movw	r2, #898
 102 0012 FFF7FEFF 		bl	_pal_lld_setgroupmode
 103              	.LVL8:
 104              		.loc 1 34 0
 105 0016 2046     		mov	r0, r4
 106 0018 8021     		movs	r1, #128
 107 001a 40F28232 		movw	r2, #898
 108 001e FFF7FEFF 		bl	_pal_lld_setgroupmode
 109              	.LVL9:
 110              		.loc 1 35 0
 111 0022 FFF7FEFF 		bl	sdInit
 112              	.LVL10:
ARM GAS  C:\Users\RICHRD~1\AppData\Local\Temp\ccSYCwWo.s 			page 3


 113              		.loc 1 36 0
 114 0026 40F20000 		movw	r0, #:lower16:SD1
 115 002a 40F20001 		movw	r1, #:lower16:.LANCHOR1
 116 002e C0F20000 		movt	r0, #:upper16:SD1
 117 0032 C0F20001 		movt	r1, #:upper16:.LANCHOR1
 118              		.loc 1 37 0
 119 0036 BDE81040 		pop	{r4, lr}
 120              		.loc 1 36 0
 121 003a FFF7FEBF 		b	sdStart
 122              	.LVL11:
 123              		.cfi_endproc
 124              	.LFE118:
 125              		.size	serial_init, .-serial_init
 126              		.section	.text.serial_send,"ax",%progbits
 127              		.align	2
 128              		.p2align 4,,15
 129              		.global	serial_send
 130              		.thumb
 131              		.thumb_func
 132              		.type	serial_send, %function
 133              	serial_send:
 134              	.LFB119:
 135              		.loc 1 40 0
 136              		.cfi_startproc
 137              		@ args = 0, pretend = 0, frame = 0
 138              		@ frame_needed = 0, uses_anonymous_args = 0
 139              		@ link register save eliminated.
 140              		.loc 1 43 0
 141 0000 0248     		ldr	r0, .L8
 142 0002 0121     		movs	r1, #1
 143 0004 4FF0FF32 		mov	r2, #-1
 144              		.loc 1 44 0
 145              		.loc 1 43 0
 146 0008 FFF7FEBF 		b	chOQPutTimeout
 147              	.LVL12:
 148              	.L9:
 149              		.align	2
 150              	.L8:
 151 000c 30000000 		.word	SD1+48
 152              		.cfi_endproc
 153              	.LFE119:
 154              		.size	serial_send, .-serial_send
 155              		.section	.text.Thread1,"ax",%progbits
 156              		.align	2
 157              		.p2align 4,,15
 158              		.thumb
 159              		.thumb_func
 160              		.type	Thread1, %function
 161              	Thread1:
 162              	.LFB121:
 163              		.loc 1 69 0
 164              		.cfi_startproc
 165              		@ args = 0, pretend = 0, frame = 0
 166              		@ frame_needed = 0, uses_anonymous_args = 0
 167              	.LVL13:
 168 0000 2DE9F843 		push	{r3, r4, r5, r6, r7, r8, r9, lr}
 169              	.LCFI2:
ARM GAS  C:\Users\RICHRD~1\AppData\Local\Temp\ccSYCwWo.s 			page 4


 170              		.cfi_def_cfa_offset 32
 171              		.cfi_offset 3, -32
 172              		.cfi_offset 4, -28
 173              		.cfi_offset 5, -24
 174              		.cfi_offset 6, -20
 175              		.cfi_offset 7, -16
 176              		.cfi_offset 8, -12
 177              		.cfi_offset 9, -8
 178              		.cfi_offset 14, -4
 179              		.loc 1 72 0
 180 0004 0F4B     		ldr	r3, .L12
 181 0006 104A     		ldr	r2, .L12+4
 182 0008 9869     		ldr	r0, [r3, #24]
 183              	.LVL14:
 184              		.loc 1 74 0
 185 000a 4FF48055 		mov	r5, #4096
 186              		.loc 1 76 0
 187 000e 2E46     		mov	r6, r5
 188              		.loc 1 74 0
 189 0010 0427     		movs	r7, #4
 190              		.loc 1 76 0
 191 0012 4FF44064 		mov	r4, #3072
 192              		.loc 1 72 0
 193 0016 8261     		str	r2, [r0, #24]
 194              		.loc 1 74 0
 195 0018 C4F20205 		movt	r5, 16386
 196 001c B946     		mov	r9, r7	@ movhi
 197              		.loc 1 76 0
 198 001e C4F20204 		movt	r4, 16386
 199 0022 B046     		mov	r8, r6	@ movhi
 200              	.L11:
 201              		.loc 1 74 0 discriminator 1
 202 0024 A5F81890 		strh	r9, [r5, #24]	@ movhi
 203              		.loc 1 77 0 discriminator 1
 204 0028 6420     		movs	r0, #100
 205              		.loc 1 76 0 discriminator 1
 206 002a A4F81A80 		strh	r8, [r4, #26]	@ movhi
 207              		.loc 1 77 0 discriminator 1
 208 002e FFF7FEFF 		bl	chThdSleep
 209              	.LVL15:
 210              		.loc 1 78 0 discriminator 1
 211 0032 6F83     		strh	r7, [r5, #26]	@ movhi
 212              		.loc 1 81 0 discriminator 1
 213 0034 6420     		movs	r0, #100
 214              		.loc 1 80 0 discriminator 1
 215 0036 2683     		strh	r6, [r4, #24]	@ movhi
 216              		.loc 1 81 0 discriminator 1
 217 0038 FFF7FEFF 		bl	chThdSleep
 218              	.LVL16:
 219              		.loc 1 82 0 discriminator 1
 220 003c FFF7FEFF 		bl	serial_send
 221              	.LVL17:
 222 0040 F0E7     		b	.L11
 223              	.L13:
 224 0042 00BF     		.align	2
 225              	.L12:
 226 0044 00000000 		.word	rlist
ARM GAS  C:\Users\RICHRD~1\AppData\Local\Temp\ccSYCwWo.s 			page 5


 227 0048 00000000 		.word	.LC0
 228              		.cfi_endproc
 229              	.LFE121:
 230              		.size	Thread1, .-Thread1
 231 004c AFF30080 		.section	.text.startup.main,"ax",%progbits
 232              		.align	2
 233              		.p2align 4,,15
 234              		.global	main
 235              		.thumb
 236              		.thumb_func
 237              		.type	main, %function
 238              	main:
 239              	.LFB122:
 240              		.loc 1 90 0
 241              		.cfi_startproc
 242              		@ args = 0, pretend = 0, frame = 0
 243              		@ frame_needed = 0, uses_anonymous_args = 0
 244 0000 F0B5     		push	{r4, r5, r6, r7, lr}
 245              	.LCFI3:
 246              		.cfi_def_cfa_offset 20
 247              		.cfi_offset 4, -20
 248              		.cfi_offset 5, -16
 249              		.cfi_offset 6, -12
 250              		.cfi_offset 7, -8
 251              		.cfi_offset 14, -4
 252 0002 83B0     		sub	sp, sp, #12
 253              	.LCFI4:
 254              		.cfi_def_cfa_offset 32
 255              		.loc 1 92 0
 256 0004 FFF7FEFF 		bl	halInit
 257              	.LVL18:
 258              		.loc 1 93 0
 259 0008 FFF7FEFF 		bl	chSysInit
 260              	.LVL19:
 261              		.loc 1 94 0
 262 000c 4FF44063 		mov	r3, #3072
 263              		.loc 1 96 0
 264 0010 4FF48051 		mov	r1, #4096
 265              		.loc 1 94 0
 266 0014 C4F20203 		movt	r3, 16386
 267              		.loc 1 96 0
 268 0018 C4F20201 		movt	r1, 16386
 269              		.loc 1 94 0
 270 001c 1025     		movs	r5, #16
 271              		.loc 1 96 0
 272 001e 4FF40077 		mov	r7, #512
 273              		.loc 1 100 0
 274 0022 0022     		movs	r2, #0
 275              		.loc 1 94 0
 276 0024 1D83     		strh	r5, [r3, #24]	@ movhi
 277              		.loc 1 99 0
 278 0026 4FF48040 		mov	r0, #16384
 279              		.loc 1 96 0
 280 002a 4F83     		strh	r7, [r1, #26]	@ movhi
 281              		.loc 1 100 0
 282 002c C4F20202 		movt	r2, 16386
 283              		.loc 1 98 0
ARM GAS  C:\Users\RICHRD~1\AppData\Local\Temp\ccSYCwWo.s 			page 6


 284 0030 4FF40056 		mov	r6, #8192
 285              		.loc 1 97 0
 286 0034 4FF40067 		mov	r7, #2048
 287 0038 4F83     		strh	r7, [r1, #26]	@ movhi
 288              		.loc 1 100 0
 289 003a 4024     		movs	r4, #64
 290              		.loc 1 98 0
 291 003c 4E83     		strh	r6, [r1, #26]	@ movhi
 292              		.loc 1 99 0
 293 003e 4883     		strh	r0, [r1, #26]	@ movhi
 294              		.loc 1 101 0
 295 0040 8021     		movs	r1, #128
 296              		.loc 1 100 0
 297 0042 5483     		strh	r4, [r2, #26]	@ movhi
 298              		.loc 1 101 0
 299 0044 5183     		strh	r1, [r2, #26]	@ movhi
 300              		.loc 1 103 0
 301 0046 4FF48052 		mov	r2, #4096
 302 004a 1A83     		strh	r2, [r3, #24]	@ movhi
 303              		.loc 1 104 0
 304 004c 1E83     		strh	r6, [r3, #24]	@ movhi
 305              		.loc 1 106 0
 306 004e 4FF40046 		mov	r6, #32768
 307              		.loc 1 105 0
 308 0052 1883     		strh	r0, [r3, #24]	@ movhi
 309              		.loc 1 117 0
 310 0054 0025     		movs	r5, #0
 311              		.loc 1 106 0
 312 0056 1E83     		strh	r6, [r3, #24]	@ movhi
 313              		.loc 1 110 0
 314 0058 FFF7FEFF 		bl	serial_init
 315              	.LVL20:
 316              		.loc 1 112 0
 317 005c FFF7FEFF 		bl	can_commInit
 318              	.LVL21:
 319              		.loc 1 117 0
 320 0060 4FF4A871 		mov	r1, #336
 321 0064 2246     		mov	r2, r4
 322 0066 094B     		ldr	r3, .L16
 323 0068 0095     		str	r5, [sp, #0]
 324 006a 0948     		ldr	r0, .L16+4
 325 006c FFF7FEFF 		bl	chThdCreateStatic
 326              	.LVL22:
 327              		.loc 1 118 0
 328 0070 0095     		str	r5, [sp, #0]
 329 0072 0848     		ldr	r0, .L16+8
 330 0074 084B     		ldr	r3, .L16+12
 331 0076 4FF43471 		mov	r1, #720
 332 007a 2246     		mov	r2, r4
 333 007c FFF7FEFF 		bl	chThdCreateStatic
 334              	.LVL23:
 335              	.L15:
 336              		.loc 1 121 0 discriminator 1
 337 0080 4FF4FA70 		mov	r0, #500
 338 0084 FFF7FEFF 		bl	chThdSleep
 339              	.LVL24:
 340 0088 FAE7     		b	.L15
ARM GAS  C:\Users\RICHRD~1\AppData\Local\Temp\ccSYCwWo.s 			page 7


 341              	.L17:
 342 008a 00BF     		.align	2
 343              	.L16:
 344 008c 00000000 		.word	Thread1
 345 0090 00000000 		.word	.LANCHOR2
 346 0094 00000000 		.word	.LANCHOR3
 347 0098 00000000 		.word	ds18b20_polling_thread
 348              		.cfi_endproc
 349              	.LFE122:
 350              		.size	main, .-main
 351              		.global	currentTemp
 352 009c AFF30080 		.section	.bss.waThread1,"aw",%nobits
 353              		.align	3
 354              		.set	.LANCHOR2,. + 0
 355              		.type	waThread1, %object
 356              		.size	waThread1, 336
 357              	waThread1:
 358 0000 00000000 		.space	336
 358      00000000 
 358      00000000 
 358      00000000 
 358      00000000 
 359              		.section	.bss.currentTemp,"aw",%nobits
 360              		.align	2
 361              		.set	.LANCHOR0,. + 0
 362              		.type	currentTemp, %object
 363              		.size	currentTemp, 4
 364              	currentTemp:
 365 0000 00000000 		.space	4
 366              		.section	.data.uartCfg,"aw",%progbits
 367              		.align	2
 368              		.set	.LANCHOR1,. + 0
 369              		.type	uartCfg, %object
 370              		.size	uartCfg, 12
 371              	uartCfg:
 372 0000 00C20100 		.word	115200
 373 0004 0000     		.short	0
 374 0006 0000     		.short	0
 375 0008 0000     		.short	0
 376 000a 0000     		.space	2
 377              		.section	.rodata.str1.4,"aMS",%progbits,1
 378              		.align	2
 379              	.LC0:
 380 0000 626C696E 		.ascii	"blinker\000"
 380      6B657200 
 381              		.section	.bss.wa_ds18b20_polling,"aw",%nobits
 382              		.align	3
 383              		.set	.LANCHOR3,. + 0
 384              		.type	wa_ds18b20_polling, %object
 385              		.size	wa_ds18b20_polling, 720
 386              	wa_ds18b20_polling:
 387 0000 00000000 		.space	720
 387      00000000 
 387      00000000 
 387      00000000 
 387      00000000 
 388              		.text
ARM GAS  C:\Users\RICHRD~1\AppData\Local\Temp\ccSYCwWo.s 			page 8


 389              	.Letext0:
 390              		.file 2 "c:\\chibistudio\\tools\\gnu tools arm embedded\\4.7 2014q2\\bin\\../lib/gcc/arm-none-eabi
 391              		.file 3 "c:\\chibistudio\\tools\\gnu tools arm embedded\\4.7 2014q2\\bin\\../lib/gcc/arm-none-eabi
 392              		.file 4 "../../Chibios/os/ports/GCC/ARMCMx/chtypes.h"
 393              		.file 5 "../../Chibios/os/kernel/include/chlists.h"
 394              		.file 6 "../../Chibios/os/kernel/include/chthreads.h"
 395              		.file 7 "../../Chibios/os/ports/GCC/ARMCMx/chcore_v7m.h"
 396              		.file 8 "../../Chibios/os/kernel/include/chvt.h"
 397              		.file 9 "../../Chibios/os/kernel/include/chschd.h"
 398              		.file 10 "../../Chibios/os/kernel/include/chmtx.h"
 399              		.file 11 "../../Chibios/os/kernel/include/chevents.h"
 400              		.file 12 "../../Chibios/os/kernel/include/chqueues.h"
 401              		.file 13 "../../Chibios/os/hal/platforms/STM32F4xx/stm32f4xx.h"
 402              		.file 14 "../../Chibios/os/hal/platforms/STM32/GPIOv2/pal_lld.h"
 403              		.file 15 "../../Chibios/os/hal/include/serial.h"
 404              		.file 16 "../../Chibios/os/hal/platforms/STM32/USARTv1/serial_lld.h"
 405              		.file 17 "../../Chibios/os/ports/common/ARMCMx/CMSIS/include/core_cm4.h"
 406              		.file 18 "include/ds18b20.h"
 407              		.file 19 "../../Chibios/os/hal/include/hal.h"
 408              		.file 20 "../../Chibios/os/kernel/include/chsys.h"
 409              		.file 21 "include/can_comm.h"
 410              		.section	.debug_info,"",%progbits
 411              	.Ldebug_info0:
 412 0000 320F0000 		.4byte	0xf32
 413 0004 0200     		.2byte	0x2
 414 0006 00000000 		.4byte	.Ldebug_abbrev0
 415 000a 04       		.byte	0x4
 416 000b 01       		.uleb128 0x1
 417 000c FE020000 		.4byte	.LASF165
 418 0010 01       		.byte	0x1
 419 0011 01010000 		.4byte	.LASF166
 420 0015 56060000 		.4byte	.LASF167
 421 0019 00000000 		.4byte	.Ldebug_ranges0+0
 422 001d 00000000 		.4byte	0
 423 0021 00000000 		.4byte	0
 424 0025 00000000 		.4byte	.Ldebug_line0
 425 0029 02       		.uleb128 0x2
 426 002a 04       		.byte	0x4
 427 002b 05       		.byte	0x5
 428 002c 696E7400 		.ascii	"int\000"
 429 0030 03       		.uleb128 0x3
 430 0031 23000000 		.4byte	.LASF2
 431 0035 02       		.byte	0x2
 432 0036 D5       		.byte	0xd5
 433 0037 3B000000 		.4byte	0x3b
 434 003b 04       		.uleb128 0x4
 435 003c 04       		.byte	0x4
 436 003d 07       		.byte	0x7
 437 003e 85010000 		.4byte	.LASF0
 438 0042 04       		.uleb128 0x4
 439 0043 01       		.byte	0x1
 440 0044 06       		.byte	0x6
 441 0045 BF000000 		.4byte	.LASF1
 442 0049 03       		.uleb128 0x3
 443 004a ED050000 		.4byte	.LASF3
 444 004e 03       		.byte	0x3
 445 004f 2A       		.byte	0x2a
ARM GAS  C:\Users\RICHRD~1\AppData\Local\Temp\ccSYCwWo.s 			page 9


 446 0050 54000000 		.4byte	0x54
 447 0054 04       		.uleb128 0x4
 448 0055 01       		.byte	0x1
 449 0056 08       		.byte	0x8
 450 0057 39040000 		.4byte	.LASF4
 451 005b 04       		.uleb128 0x4
 452 005c 02       		.byte	0x2
 453 005d 05       		.byte	0x5
 454 005e 72040000 		.4byte	.LASF5
 455 0062 03       		.uleb128 0x3
 456 0063 43020000 		.4byte	.LASF6
 457 0067 03       		.byte	0x3
 458 0068 36       		.byte	0x36
 459 0069 6D000000 		.4byte	0x6d
 460 006d 04       		.uleb128 0x4
 461 006e 02       		.byte	0x2
 462 006f 07       		.byte	0x7
 463 0070 F6010000 		.4byte	.LASF7
 464 0074 03       		.uleb128 0x3
 465 0075 31040000 		.4byte	.LASF8
 466 0079 03       		.byte	0x3
 467 007a 4F       		.byte	0x4f
 468 007b 7F000000 		.4byte	0x7f
 469 007f 04       		.uleb128 0x4
 470 0080 04       		.byte	0x4
 471 0081 05       		.byte	0x5
 472 0082 0C010000 		.4byte	.LASF9
 473 0086 03       		.uleb128 0x3
 474 0087 B6050000 		.4byte	.LASF10
 475 008b 03       		.byte	0x3
 476 008c 50       		.byte	0x50
 477 008d 91000000 		.4byte	0x91
 478 0091 04       		.uleb128 0x4
 479 0092 04       		.byte	0x4
 480 0093 07       		.byte	0x7
 481 0094 2D050000 		.4byte	.LASF11
 482 0098 04       		.uleb128 0x4
 483 0099 08       		.byte	0x8
 484 009a 05       		.byte	0x5
 485 009b B1000000 		.4byte	.LASF12
 486 009f 03       		.uleb128 0x3
 487 00a0 31000000 		.4byte	.LASF13
 488 00a4 03       		.byte	0x3
 489 00a5 78       		.byte	0x78
 490 00a6 AA000000 		.4byte	0xaa
 491 00aa 04       		.uleb128 0x4
 492 00ab 08       		.byte	0x8
 493 00ac 07       		.byte	0x7
 494 00ad 67000000 		.4byte	.LASF14
 495 00b1 04       		.uleb128 0x4
 496 00b2 01       		.byte	0x1
 497 00b3 02       		.byte	0x2
 498 00b4 2B040000 		.4byte	.LASF15
 499 00b8 03       		.uleb128 0x3
 500 00b9 3B020000 		.4byte	.LASF16
 501 00bd 04       		.byte	0x4
 502 00be 2C       		.byte	0x2c
ARM GAS  C:\Users\RICHRD~1\AppData\Local\Temp\ccSYCwWo.s 			page 10


 503 00bf 49000000 		.4byte	0x49
 504 00c3 03       		.uleb128 0x3
 505 00c4 15010000 		.4byte	.LASF17
 506 00c8 04       		.byte	0x4
 507 00c9 2D       		.byte	0x2d
 508 00ca 49000000 		.4byte	0x49
 509 00ce 03       		.uleb128 0x3
 510 00cf D0030000 		.4byte	.LASF18
 511 00d3 04       		.byte	0x4
 512 00d4 2E       		.byte	0x2e
 513 00d5 49000000 		.4byte	0x49
 514 00d9 03       		.uleb128 0x3
 515 00da 23050000 		.4byte	.LASF19
 516 00de 04       		.byte	0x4
 517 00df 2F       		.byte	0x2f
 518 00e0 49000000 		.4byte	0x49
 519 00e4 03       		.uleb128 0x3
 520 00e5 1B040000 		.4byte	.LASF20
 521 00e9 04       		.byte	0x4
 522 00ea 30       		.byte	0x30
 523 00eb 86000000 		.4byte	0x86
 524 00ef 03       		.uleb128 0x3
 525 00f0 09020000 		.4byte	.LASF21
 526 00f4 04       		.byte	0x4
 527 00f5 31       		.byte	0x31
 528 00f6 74000000 		.4byte	0x74
 529 00fa 03       		.uleb128 0x3
 530 00fb 58020000 		.4byte	.LASF22
 531 00ff 04       		.byte	0x4
 532 0100 33       		.byte	0x33
 533 0101 86000000 		.4byte	0x86
 534 0105 03       		.uleb128 0x3
 535 0106 C7040000 		.4byte	.LASF23
 536 010a 04       		.byte	0x4
 537 010b 34       		.byte	0x34
 538 010c 86000000 		.4byte	0x86
 539 0110 03       		.uleb128 0x3
 540 0111 58050000 		.4byte	.LASF24
 541 0115 04       		.byte	0x4
 542 0116 35       		.byte	0x35
 543 0117 86000000 		.4byte	0x86
 544 011b 03       		.uleb128 0x3
 545 011c BB040000 		.4byte	.LASF25
 546 0120 05       		.byte	0x5
 547 0121 2A       		.byte	0x2a
 548 0122 26010000 		.4byte	0x126
 549 0126 05       		.uleb128 0x5
 550 0127 BB040000 		.4byte	.LASF25
 551 012b 48       		.byte	0x48
 552 012c 06       		.byte	0x6
 553 012d 5E       		.byte	0x5e
 554 012e 4B020000 		.4byte	0x24b
 555 0132 06       		.uleb128 0x6
 556 0133 9C040000 		.4byte	.LASF26
 557 0137 06       		.byte	0x6
 558 0138 5F       		.byte	0x5f
 559 0139 70020000 		.4byte	0x270
ARM GAS  C:\Users\RICHRD~1\AppData\Local\Temp\ccSYCwWo.s 			page 11


 560 013d 02       		.byte	0x2
 561 013e 23       		.byte	0x23
 562 013f 00       		.uleb128 0
 563 0140 06       		.uleb128 0x6
 564 0141 0A040000 		.4byte	.LASF27
 565 0145 06       		.byte	0x6
 566 0146 61       		.byte	0x61
 567 0147 70020000 		.4byte	0x270
 568 014b 02       		.byte	0x2
 569 014c 23       		.byte	0x23
 570 014d 04       		.uleb128 0x4
 571 014e 06       		.uleb128 0x6
 572 014f 9A000000 		.4byte	.LASF28
 573 0153 06       		.byte	0x6
 574 0154 63       		.byte	0x63
 575 0155 E4000000 		.4byte	0xe4
 576 0159 02       		.byte	0x2
 577 015a 23       		.byte	0x23
 578 015b 08       		.uleb128 0x8
 579 015c 06       		.uleb128 0x6
 580 015d 84060000 		.4byte	.LASF29
 581 0161 06       		.byte	0x6
 582 0162 64       		.byte	0x64
 583 0163 49030000 		.4byte	0x349
 584 0167 02       		.byte	0x2
 585 0168 23       		.byte	0x23
 586 0169 0C       		.uleb128 0xc
 587 016a 06       		.uleb128 0x6
 588 016b 4A010000 		.4byte	.LASF30
 589 016f 06       		.byte	0x6
 590 0170 66       		.byte	0x66
 591 0171 70020000 		.4byte	0x270
 592 0175 02       		.byte	0x2
 593 0176 23       		.byte	0x23
 594 0177 10       		.uleb128 0x10
 595 0178 06       		.uleb128 0x6
 596 0179 47030000 		.4byte	.LASF31
 597 017d 06       		.byte	0x6
 598 017e 67       		.byte	0x67
 599 017f 70020000 		.4byte	0x270
 600 0183 02       		.byte	0x2
 601 0184 23       		.byte	0x23
 602 0185 14       		.uleb128 0x14
 603 0186 06       		.uleb128 0x6
 604 0187 C5050000 		.4byte	.LASF32
 605 018b 06       		.byte	0x6
 606 018c 6E       		.byte	0x6e
 607 018d AB050000 		.4byte	0x5ab
 608 0191 02       		.byte	0x2
 609 0192 23       		.byte	0x23
 610 0193 18       		.uleb128 0x18
 611 0194 06       		.uleb128 0x6
 612 0195 7C040000 		.4byte	.LASF33
 613 0199 06       		.byte	0x6
 614 019a 79       		.byte	0x79
 615 019b C3000000 		.4byte	0xc3
 616 019f 02       		.byte	0x2
ARM GAS  C:\Users\RICHRD~1\AppData\Local\Temp\ccSYCwWo.s 			page 12


 617 01a0 23       		.byte	0x23
 618 01a1 1C       		.uleb128 0x1c
 619 01a2 06       		.uleb128 0x6
 620 01a3 A3040000 		.4byte	.LASF34
 621 01a7 06       		.byte	0x6
 622 01a8 7D       		.byte	0x7d
 623 01a9 B8000000 		.4byte	0xb8
 624 01ad 02       		.byte	0x2
 625 01ae 23       		.byte	0x23
 626 01af 1D       		.uleb128 0x1d
 627 01b0 06       		.uleb128 0x6
 628 01b1 1E010000 		.4byte	.LASF35
 629 01b5 06       		.byte	0x6
 630 01b6 82       		.byte	0x82
 631 01b7 CE000000 		.4byte	0xce
 632 01bb 02       		.byte	0x2
 633 01bc 23       		.byte	0x23
 634 01bd 1E       		.uleb128 0x1e
 635 01be 06       		.uleb128 0x6
 636 01bf 84040000 		.4byte	.LASF36
 637 01c3 06       		.byte	0x6
 638 01c4 88       		.byte	0x88
 639 01c5 D9000000 		.4byte	0xd9
 640 01c9 02       		.byte	0x2
 641 01ca 23       		.byte	0x23
 642 01cb 1F       		.uleb128 0x1f
 643 01cc 06       		.uleb128 0x6
 644 01cd B0010000 		.4byte	.LASF37
 645 01d1 06       		.byte	0x6
 646 01d2 8F       		.byte	0x8f
 647 01d3 3A040000 		.4byte	0x43a
 648 01d7 02       		.byte	0x2
 649 01d8 23       		.byte	0x23
 650 01d9 20       		.uleb128 0x20
 651 01da 07       		.uleb128 0x7
 652 01db 705F7500 		.ascii	"p_u\000"
 653 01df 06       		.byte	0x6
 654 01e0 B4       		.byte	0xb4
 655 01e1 76050000 		.4byte	0x576
 656 01e5 02       		.byte	0x2
 657 01e6 23       		.byte	0x23
 658 01e7 24       		.uleb128 0x24
 659 01e8 06       		.uleb128 0x6
 660 01e9 C4020000 		.4byte	.LASF38
 661 01ed 06       		.byte	0x6
 662 01ee B9       		.byte	0xb9
 663 01ef 98020000 		.4byte	0x298
 664 01f3 02       		.byte	0x2
 665 01f4 23       		.byte	0x23
 666 01f5 28       		.uleb128 0x28
 667 01f6 06       		.uleb128 0x6
 668 01f7 BE010000 		.4byte	.LASF39
 669 01fb 06       		.byte	0x6
 670 01fc BF       		.byte	0xbf
 671 01fd 76020000 		.4byte	0x276
 672 0201 02       		.byte	0x2
 673 0202 23       		.byte	0x23
ARM GAS  C:\Users\RICHRD~1\AppData\Local\Temp\ccSYCwWo.s 			page 13


 674 0203 2C       		.uleb128 0x2c
 675 0204 06       		.uleb128 0x6
 676 0205 2C060000 		.4byte	.LASF40
 677 0209 06       		.byte	0x6
 678 020a C3       		.byte	0xc3
 679 020b EF000000 		.4byte	0xef
 680 020f 02       		.byte	0x2
 681 0210 23       		.byte	0x23
 682 0211 34       		.uleb128 0x34
 683 0212 06       		.uleb128 0x6
 684 0213 D3040000 		.4byte	.LASF41
 685 0217 06       		.byte	0x6
 686 0218 C9       		.byte	0xc9
 687 0219 FA000000 		.4byte	0xfa
 688 021d 02       		.byte	0x2
 689 021e 23       		.byte	0x23
 690 021f 38       		.uleb128 0x38
 691 0220 06       		.uleb128 0x6
 692 0221 68040000 		.4byte	.LASF42
 693 0225 06       		.byte	0x6
 694 0226 D0       		.byte	0xd0
 695 0227 BD050000 		.4byte	0x5bd
 696 022b 02       		.byte	0x2
 697 022c 23       		.byte	0x23
 698 022d 3C       		.uleb128 0x3c
 699 022e 06       		.uleb128 0x6
 700 022f 62050000 		.4byte	.LASF43
 701 0233 06       		.byte	0x6
 702 0234 D4       		.byte	0xd4
 703 0235 E4000000 		.4byte	0xe4
 704 0239 02       		.byte	0x2
 705 023a 23       		.byte	0x23
 706 023b 40       		.uleb128 0x40
 707 023c 06       		.uleb128 0x6
 708 023d DF000000 		.4byte	.LASF44
 709 0241 06       		.byte	0x6
 710 0242 DA       		.byte	0xda
 711 0243 AE020000 		.4byte	0x2ae
 712 0247 02       		.byte	0x2
 713 0248 23       		.byte	0x23
 714 0249 44       		.uleb128 0x44
 715 024a 00       		.byte	0
 716 024b 08       		.uleb128 0x8
 717 024c 08       		.byte	0x8
 718 024d 05       		.byte	0x5
 719 024e 61       		.byte	0x61
 720 024f 70020000 		.4byte	0x270
 721 0253 06       		.uleb128 0x6
 722 0254 9C040000 		.4byte	.LASF26
 723 0258 05       		.byte	0x5
 724 0259 62       		.byte	0x62
 725 025a 70020000 		.4byte	0x270
 726 025e 02       		.byte	0x2
 727 025f 23       		.byte	0x23
 728 0260 00       		.uleb128 0
 729 0261 06       		.uleb128 0x6
 730 0262 0A040000 		.4byte	.LASF27
ARM GAS  C:\Users\RICHRD~1\AppData\Local\Temp\ccSYCwWo.s 			page 14


 731 0266 05       		.byte	0x5
 732 0267 64       		.byte	0x64
 733 0268 70020000 		.4byte	0x270
 734 026c 02       		.byte	0x2
 735 026d 23       		.byte	0x23
 736 026e 04       		.uleb128 0x4
 737 026f 00       		.byte	0
 738 0270 09       		.uleb128 0x9
 739 0271 04       		.byte	0x4
 740 0272 1B010000 		.4byte	0x11b
 741 0276 03       		.uleb128 0x3
 742 0277 55030000 		.4byte	.LASF45
 743 027b 05       		.byte	0x5
 744 027c 66       		.byte	0x66
 745 027d 4B020000 		.4byte	0x24b
 746 0281 08       		.uleb128 0x8
 747 0282 04       		.byte	0x4
 748 0283 05       		.byte	0x5
 749 0284 6B       		.byte	0x6b
 750 0285 98020000 		.4byte	0x298
 751 0289 06       		.uleb128 0x6
 752 028a 9C040000 		.4byte	.LASF26
 753 028e 05       		.byte	0x5
 754 028f 6D       		.byte	0x6d
 755 0290 70020000 		.4byte	0x270
 756 0294 02       		.byte	0x2
 757 0295 23       		.byte	0x23
 758 0296 00       		.uleb128 0
 759 0297 00       		.byte	0
 760 0298 03       		.uleb128 0x3
 761 0299 4C020000 		.4byte	.LASF46
 762 029d 05       		.byte	0x5
 763 029e 70       		.byte	0x70
 764 029f 81020000 		.4byte	0x281
 765 02a3 03       		.uleb128 0x3
 766 02a4 62010000 		.4byte	.LASF47
 767 02a8 07       		.byte	0x7
 768 02a9 E5       		.byte	0xe5
 769 02aa AE020000 		.4byte	0x2ae
 770 02ae 0A       		.uleb128 0xa
 771 02af 04       		.byte	0x4
 772 02b0 03       		.uleb128 0x3
 773 02b1 8C020000 		.4byte	.LASF48
 774 02b5 07       		.byte	0x7
 775 02b6 EB       		.byte	0xeb
 776 02b7 9F000000 		.4byte	0x9f
 777 02bb 0B       		.uleb128 0xb
 778 02bc 9F050000 		.4byte	.LASF49
 779 02c0 24       		.byte	0x24
 780 02c1 07       		.byte	0x7
 781 02c2 0C01     		.2byte	0x10c
 782 02c4 49030000 		.4byte	0x349
 783 02c8 0C       		.uleb128 0xc
 784 02c9 723400   		.ascii	"r4\000"
 785 02cc 07       		.byte	0x7
 786 02cd 1F01     		.2byte	0x11f
 787 02cf A3020000 		.4byte	0x2a3
ARM GAS  C:\Users\RICHRD~1\AppData\Local\Temp\ccSYCwWo.s 			page 15


 788 02d3 02       		.byte	0x2
 789 02d4 23       		.byte	0x23
 790 02d5 00       		.uleb128 0
 791 02d6 0C       		.uleb128 0xc
 792 02d7 723500   		.ascii	"r5\000"
 793 02da 07       		.byte	0x7
 794 02db 2001     		.2byte	0x120
 795 02dd A3020000 		.4byte	0x2a3
 796 02e1 02       		.byte	0x2
 797 02e2 23       		.byte	0x23
 798 02e3 04       		.uleb128 0x4
 799 02e4 0C       		.uleb128 0xc
 800 02e5 723600   		.ascii	"r6\000"
 801 02e8 07       		.byte	0x7
 802 02e9 2101     		.2byte	0x121
 803 02eb A3020000 		.4byte	0x2a3
 804 02ef 02       		.byte	0x2
 805 02f0 23       		.byte	0x23
 806 02f1 08       		.uleb128 0x8
 807 02f2 0C       		.uleb128 0xc
 808 02f3 723700   		.ascii	"r7\000"
 809 02f6 07       		.byte	0x7
 810 02f7 2201     		.2byte	0x122
 811 02f9 A3020000 		.4byte	0x2a3
 812 02fd 02       		.byte	0x2
 813 02fe 23       		.byte	0x23
 814 02ff 0C       		.uleb128 0xc
 815 0300 0C       		.uleb128 0xc
 816 0301 723800   		.ascii	"r8\000"
 817 0304 07       		.byte	0x7
 818 0305 2301     		.2byte	0x123
 819 0307 A3020000 		.4byte	0x2a3
 820 030b 02       		.byte	0x2
 821 030c 23       		.byte	0x23
 822 030d 10       		.uleb128 0x10
 823 030e 0C       		.uleb128 0xc
 824 030f 723900   		.ascii	"r9\000"
 825 0312 07       		.byte	0x7
 826 0313 2401     		.2byte	0x124
 827 0315 A3020000 		.4byte	0x2a3
 828 0319 02       		.byte	0x2
 829 031a 23       		.byte	0x23
 830 031b 14       		.uleb128 0x14
 831 031c 0C       		.uleb128 0xc
 832 031d 72313000 		.ascii	"r10\000"
 833 0321 07       		.byte	0x7
 834 0322 2501     		.2byte	0x125
 835 0324 A3020000 		.4byte	0x2a3
 836 0328 02       		.byte	0x2
 837 0329 23       		.byte	0x23
 838 032a 18       		.uleb128 0x18
 839 032b 0C       		.uleb128 0xc
 840 032c 72313100 		.ascii	"r11\000"
 841 0330 07       		.byte	0x7
 842 0331 2601     		.2byte	0x126
 843 0333 A3020000 		.4byte	0x2a3
 844 0337 02       		.byte	0x2
ARM GAS  C:\Users\RICHRD~1\AppData\Local\Temp\ccSYCwWo.s 			page 16


 845 0338 23       		.byte	0x23
 846 0339 1C       		.uleb128 0x1c
 847 033a 0C       		.uleb128 0xc
 848 033b 6C7200   		.ascii	"lr\000"
 849 033e 07       		.byte	0x7
 850 033f 2701     		.2byte	0x127
 851 0341 A3020000 		.4byte	0x2a3
 852 0345 02       		.byte	0x2
 853 0346 23       		.byte	0x23
 854 0347 20       		.uleb128 0x20
 855 0348 00       		.byte	0
 856 0349 0B       		.uleb128 0xb
 857 034a 81050000 		.4byte	.LASF50
 858 034e 04       		.byte	0x4
 859 034f 07       		.byte	0x7
 860 0350 3101     		.2byte	0x131
 861 0352 66030000 		.4byte	0x366
 862 0356 0C       		.uleb128 0xc
 863 0357 72313300 		.ascii	"r13\000"
 864 035b 07       		.byte	0x7
 865 035c 3201     		.2byte	0x132
 866 035e 66030000 		.4byte	0x366
 867 0362 02       		.byte	0x2
 868 0363 23       		.byte	0x23
 869 0364 00       		.uleb128 0
 870 0365 00       		.byte	0
 871 0366 09       		.uleb128 0x9
 872 0367 04       		.byte	0x4
 873 0368 BB020000 		.4byte	0x2bb
 874 036c 0D       		.uleb128 0xd
 875 036d 86000000 		.4byte	0x86
 876 0371 04       		.uleb128 0x4
 877 0372 04       		.byte	0x4
 878 0373 07       		.byte	0x7
 879 0374 CE020000 		.4byte	.LASF51
 880 0378 03       		.uleb128 0x3
 881 0379 6D050000 		.4byte	.LASF52
 882 037d 08       		.byte	0x8
 883 037e 58       		.byte	0x58
 884 037f 83030000 		.4byte	0x383
 885 0383 09       		.uleb128 0x9
 886 0384 04       		.byte	0x4
 887 0385 89030000 		.4byte	0x389
 888 0389 0E       		.uleb128 0xe
 889 038a 01       		.byte	0x1
 890 038b 95030000 		.4byte	0x395
 891 038f 0F       		.uleb128 0xf
 892 0390 AE020000 		.4byte	0x2ae
 893 0394 00       		.byte	0
 894 0395 03       		.uleb128 0x3
 895 0396 E3010000 		.4byte	.LASF53
 896 039a 08       		.byte	0x8
 897 039b 5D       		.byte	0x5d
 898 039c A0030000 		.4byte	0x3a0
 899 03a0 05       		.uleb128 0x5
 900 03a1 E3010000 		.4byte	.LASF53
 901 03a5 14       		.byte	0x14
ARM GAS  C:\Users\RICHRD~1\AppData\Local\Temp\ccSYCwWo.s 			page 17


 902 03a6 08       		.byte	0x8
 903 03a7 64       		.byte	0x64
 904 03a8 F3030000 		.4byte	0x3f3
 905 03ac 06       		.uleb128 0x6
 906 03ad 92010000 		.4byte	.LASF54
 907 03b1 08       		.byte	0x8
 908 03b2 65       		.byte	0x65
 909 03b3 F3030000 		.4byte	0x3f3
 910 03b7 02       		.byte	0x2
 911 03b8 23       		.byte	0x23
 912 03b9 00       		.uleb128 0
 913 03ba 06       		.uleb128 0x6
 914 03bb 6B010000 		.4byte	.LASF55
 915 03bf 08       		.byte	0x8
 916 03c0 67       		.byte	0x67
 917 03c1 F3030000 		.4byte	0x3f3
 918 03c5 02       		.byte	0x2
 919 03c6 23       		.byte	0x23
 920 03c7 04       		.uleb128 0x4
 921 03c8 06       		.uleb128 0x6
 922 03c9 BC020000 		.4byte	.LASF56
 923 03cd 08       		.byte	0x8
 924 03ce 69       		.byte	0x69
 925 03cf 10010000 		.4byte	0x110
 926 03d3 02       		.byte	0x2
 927 03d4 23       		.byte	0x23
 928 03d5 08       		.uleb128 0x8
 929 03d6 06       		.uleb128 0x6
 930 03d7 8A060000 		.4byte	.LASF57
 931 03db 08       		.byte	0x8
 932 03dc 6A       		.byte	0x6a
 933 03dd 78030000 		.4byte	0x378
 934 03e1 02       		.byte	0x2
 935 03e2 23       		.byte	0x23
 936 03e3 0C       		.uleb128 0xc
 937 03e4 06       		.uleb128 0x6
 938 03e5 AF050000 		.4byte	.LASF58
 939 03e9 08       		.byte	0x8
 940 03ea 6C       		.byte	0x6c
 941 03eb AE020000 		.4byte	0x2ae
 942 03ef 02       		.byte	0x2
 943 03f0 23       		.byte	0x23
 944 03f1 10       		.uleb128 0x10
 945 03f2 00       		.byte	0
 946 03f3 09       		.uleb128 0x9
 947 03f4 04       		.byte	0x4
 948 03f5 95030000 		.4byte	0x395
 949 03f9 08       		.uleb128 0x8
 950 03fa 10       		.byte	0x10
 951 03fb 08       		.byte	0x8
 952 03fc 76       		.byte	0x76
 953 03fd 3A040000 		.4byte	0x43a
 954 0401 06       		.uleb128 0x6
 955 0402 92010000 		.4byte	.LASF54
 956 0406 08       		.byte	0x8
 957 0407 77       		.byte	0x77
 958 0408 F3030000 		.4byte	0x3f3
ARM GAS  C:\Users\RICHRD~1\AppData\Local\Temp\ccSYCwWo.s 			page 18


 959 040c 02       		.byte	0x2
 960 040d 23       		.byte	0x23
 961 040e 00       		.uleb128 0
 962 040f 06       		.uleb128 0x6
 963 0410 6B010000 		.4byte	.LASF55
 964 0414 08       		.byte	0x8
 965 0415 79       		.byte	0x79
 966 0416 F3030000 		.4byte	0x3f3
 967 041a 02       		.byte	0x2
 968 041b 23       		.byte	0x23
 969 041c 04       		.uleb128 0x4
 970 041d 06       		.uleb128 0x6
 971 041e BC020000 		.4byte	.LASF56
 972 0422 08       		.byte	0x8
 973 0423 7B       		.byte	0x7b
 974 0424 10010000 		.4byte	0x110
 975 0428 02       		.byte	0x2
 976 0429 23       		.byte	0x23
 977 042a 08       		.uleb128 0x8
 978 042b 06       		.uleb128 0x6
 979 042c 0A060000 		.4byte	.LASF59
 980 0430 08       		.byte	0x8
 981 0431 7C       		.byte	0x7c
 982 0432 3A040000 		.4byte	0x43a
 983 0436 02       		.byte	0x2
 984 0437 23       		.byte	0x23
 985 0438 0C       		.uleb128 0xc
 986 0439 00       		.byte	0
 987 043a 0D       		.uleb128 0xd
 988 043b 10010000 		.4byte	0x110
 989 043f 03       		.uleb128 0x3
 990 0440 32060000 		.4byte	.LASF60
 991 0444 08       		.byte	0x8
 992 0445 7D       		.byte	0x7d
 993 0446 F9030000 		.4byte	0x3f9
 994 044a 08       		.uleb128 0x8
 995 044b 1C       		.byte	0x1c
 996 044c 09       		.byte	0x9
 997 044d 5E       		.byte	0x5e
 998 044e A7040000 		.4byte	0x4a7
 999 0452 06       		.uleb128 0x6
 1000 0453 FC040000 		.4byte	.LASF61
 1001 0457 09       		.byte	0x9
 1002 0458 5F       		.byte	0x5f
 1003 0459 76020000 		.4byte	0x276
 1004 045d 02       		.byte	0x2
 1005 045e 23       		.byte	0x23
 1006 045f 00       		.uleb128 0
 1007 0460 06       		.uleb128 0x6
 1008 0461 8E040000 		.4byte	.LASF62
 1009 0465 09       		.byte	0x9
 1010 0466 60       		.byte	0x60
 1011 0467 E4000000 		.4byte	0xe4
 1012 046b 02       		.byte	0x2
 1013 046c 23       		.byte	0x23
 1014 046d 08       		.uleb128 0x8
 1015 046e 06       		.uleb128 0x6
ARM GAS  C:\Users\RICHRD~1\AppData\Local\Temp\ccSYCwWo.s 			page 19


 1016 046f 4F030000 		.4byte	.LASF63
 1017 0473 09       		.byte	0x9
 1018 0474 62       		.byte	0x62
 1019 0475 49030000 		.4byte	0x349
 1020 0479 02       		.byte	0x2
 1021 047a 23       		.byte	0x23
 1022 047b 0C       		.uleb128 0xc
 1023 047c 06       		.uleb128 0x6
 1024 047d 5A010000 		.4byte	.LASF64
 1025 0481 09       		.byte	0x9
 1026 0482 65       		.byte	0x65
 1027 0483 70020000 		.4byte	0x270
 1028 0487 02       		.byte	0x2
 1029 0488 23       		.byte	0x23
 1030 0489 10       		.uleb128 0x10
 1031 048a 06       		.uleb128 0x6
 1032 048b 71030000 		.4byte	.LASF65
 1033 048f 09       		.byte	0x9
 1034 0490 66       		.byte	0x66
 1035 0491 70020000 		.4byte	0x270
 1036 0495 02       		.byte	0x2
 1037 0496 23       		.byte	0x23
 1038 0497 14       		.uleb128 0x14
 1039 0498 06       		.uleb128 0x6
 1040 0499 67030000 		.4byte	.LASF66
 1041 049d 09       		.byte	0x9
 1042 049e 69       		.byte	0x69
 1043 049f 70020000 		.4byte	0x270
 1044 04a3 02       		.byte	0x2
 1045 04a4 23       		.byte	0x23
 1046 04a5 18       		.uleb128 0x18
 1047 04a6 00       		.byte	0
 1048 04a7 03       		.uleb128 0x3
 1049 04a8 D4050000 		.4byte	.LASF67
 1050 04ac 09       		.byte	0x9
 1051 04ad 6B       		.byte	0x6b
 1052 04ae 4A040000 		.4byte	0x44a
 1053 04b2 05       		.uleb128 0x5
 1054 04b3 F0020000 		.4byte	.LASF68
 1055 04b7 10       		.byte	0x10
 1056 04b8 0A       		.byte	0xa
 1057 04b9 2C       		.byte	0x2c
 1058 04ba E9040000 		.4byte	0x4e9
 1059 04be 06       		.uleb128 0x6
 1060 04bf E7000000 		.4byte	.LASF69
 1061 04c3 0A       		.byte	0xa
 1062 04c4 2D       		.byte	0x2d
 1063 04c5 76020000 		.4byte	0x276
 1064 04c9 02       		.byte	0x2
 1065 04ca 23       		.byte	0x23
 1066 04cb 00       		.uleb128 0
 1067 04cc 06       		.uleb128 0x6
 1068 04cd 4E060000 		.4byte	.LASF70
 1069 04d1 0A       		.byte	0xa
 1070 04d2 2F       		.byte	0x2f
 1071 04d3 70020000 		.4byte	0x270
 1072 04d7 02       		.byte	0x2
ARM GAS  C:\Users\RICHRD~1\AppData\Local\Temp\ccSYCwWo.s 			page 20


 1073 04d8 23       		.byte	0x23
 1074 04d9 08       		.uleb128 0x8
 1075 04da 06       		.uleb128 0x6
 1076 04db 51050000 		.4byte	.LASF71
 1077 04df 0A       		.byte	0xa
 1078 04e0 31       		.byte	0x31
 1079 04e1 E9040000 		.4byte	0x4e9
 1080 04e5 02       		.byte	0x2
 1081 04e6 23       		.byte	0x23
 1082 04e7 0C       		.uleb128 0xc
 1083 04e8 00       		.byte	0
 1084 04e9 09       		.uleb128 0x9
 1085 04ea 04       		.byte	0x4
 1086 04eb B2040000 		.4byte	0x4b2
 1087 04ef 03       		.uleb128 0x3
 1088 04f0 F0020000 		.4byte	.LASF68
 1089 04f4 0A       		.byte	0xa
 1090 04f5 33       		.byte	0x33
 1091 04f6 B2040000 		.4byte	0x4b2
 1092 04fa 03       		.uleb128 0x3
 1093 04fb F5050000 		.4byte	.LASF72
 1094 04ff 0B       		.byte	0xb
 1095 0500 2C       		.byte	0x2c
 1096 0501 05050000 		.4byte	0x505
 1097 0505 05       		.uleb128 0x5
 1098 0506 F5050000 		.4byte	.LASF72
 1099 050a 10       		.byte	0x10
 1100 050b 0B       		.byte	0xb
 1101 050c 31       		.byte	0x31
 1102 050d 4A050000 		.4byte	0x54a
 1103 0511 06       		.uleb128 0x6
 1104 0512 AB040000 		.4byte	.LASF73
 1105 0516 0B       		.byte	0xb
 1106 0517 32       		.byte	0x32
 1107 0518 4A050000 		.4byte	0x54a
 1108 051c 02       		.byte	0x2
 1109 051d 23       		.byte	0x23
 1110 051e 00       		.uleb128 0
 1111 051f 06       		.uleb128 0x6
 1112 0520 53040000 		.4byte	.LASF74
 1113 0524 0B       		.byte	0xb
 1114 0525 35       		.byte	0x35
 1115 0526 70020000 		.4byte	0x270
 1116 052a 02       		.byte	0x2
 1117 052b 23       		.byte	0x23
 1118 052c 04       		.uleb128 0x4
 1119 052d 06       		.uleb128 0x6
 1120 052e 79030000 		.4byte	.LASF75
 1121 0532 0B       		.byte	0xb
 1122 0533 37       		.byte	0x37
 1123 0534 FA000000 		.4byte	0xfa
 1124 0538 02       		.byte	0x2
 1125 0539 23       		.byte	0x23
 1126 053a 08       		.uleb128 0x8
 1127 053b 06       		.uleb128 0x6
 1128 053c 5F040000 		.4byte	.LASF76
 1129 0540 0B       		.byte	0xb
ARM GAS  C:\Users\RICHRD~1\AppData\Local\Temp\ccSYCwWo.s 			page 21


 1130 0541 3A       		.byte	0x3a
 1131 0542 05010000 		.4byte	0x105
 1132 0546 02       		.byte	0x2
 1133 0547 23       		.byte	0x23
 1134 0548 0C       		.uleb128 0xc
 1135 0549 00       		.byte	0
 1136 054a 09       		.uleb128 0x9
 1137 054b 04       		.byte	0x4
 1138 054c FA040000 		.4byte	0x4fa
 1139 0550 05       		.uleb128 0x5
 1140 0551 73010000 		.4byte	.LASF77
 1141 0555 04       		.byte	0x4
 1142 0556 0B       		.byte	0xb
 1143 0557 41       		.byte	0x41
 1144 0558 6B050000 		.4byte	0x56b
 1145 055c 06       		.uleb128 0x6
 1146 055d CC050000 		.4byte	.LASF78
 1147 0561 0B       		.byte	0xb
 1148 0562 42       		.byte	0x42
 1149 0563 4A050000 		.4byte	0x54a
 1150 0567 02       		.byte	0x2
 1151 0568 23       		.byte	0x23
 1152 0569 00       		.uleb128 0
 1153 056a 00       		.byte	0
 1154 056b 03       		.uleb128 0x3
 1155 056c 73010000 		.4byte	.LASF77
 1156 0570 0B       		.byte	0xb
 1157 0571 45       		.byte	0x45
 1158 0572 50050000 		.4byte	0x550
 1159 0576 10       		.uleb128 0x10
 1160 0577 04       		.byte	0x4
 1161 0578 06       		.byte	0x6
 1162 0579 96       		.byte	0x96
 1163 057a AB050000 		.4byte	0x5ab
 1164 057e 11       		.uleb128 0x11
 1165 057f 2A000000 		.4byte	.LASF79
 1166 0583 06       		.byte	0x6
 1167 0584 9D       		.byte	0x9d
 1168 0585 EF000000 		.4byte	0xef
 1169 0589 11       		.uleb128 0x11
 1170 058a 84000000 		.4byte	.LASF80
 1171 058e 06       		.byte	0x6
 1172 058f A4       		.byte	0xa4
 1173 0590 EF000000 		.4byte	0xef
 1174 0594 11       		.uleb128 0x11
 1175 0595 03060000 		.4byte	.LASF81
 1176 0599 06       		.byte	0x6
 1177 059a AB       		.byte	0xab
 1178 059b AE020000 		.4byte	0x2ae
 1179 059f 11       		.uleb128 0x11
 1180 05a0 95040000 		.4byte	.LASF82
 1181 05a4 06       		.byte	0x6
 1182 05a5 B2       		.byte	0xb2
 1183 05a6 FA000000 		.4byte	0xfa
 1184 05aa 00       		.byte	0
 1185 05ab 09       		.uleb128 0x9
 1186 05ac 04       		.byte	0x4
ARM GAS  C:\Users\RICHRD~1\AppData\Local\Temp\ccSYCwWo.s 			page 22


 1187 05ad B1050000 		.4byte	0x5b1
 1188 05b1 12       		.uleb128 0x12
 1189 05b2 B6050000 		.4byte	0x5b6
 1190 05b6 04       		.uleb128 0x4
 1191 05b7 01       		.byte	0x1
 1192 05b8 08       		.byte	0x8
 1193 05b9 44050000 		.4byte	.LASF83
 1194 05bd 09       		.uleb128 0x9
 1195 05be 04       		.byte	0x4
 1196 05bf EF040000 		.4byte	0x4ef
 1197 05c3 03       		.uleb128 0x3
 1198 05c4 0F000000 		.4byte	.LASF84
 1199 05c8 06       		.byte	0x6
 1200 05c9 E5       		.byte	0xe5
 1201 05ca CE050000 		.4byte	0x5ce
 1202 05ce 09       		.uleb128 0x9
 1203 05cf 04       		.byte	0x4
 1204 05d0 D4050000 		.4byte	0x5d4
 1205 05d4 13       		.uleb128 0x13
 1206 05d5 01       		.byte	0x1
 1207 05d6 EF000000 		.4byte	0xef
 1208 05da E4050000 		.4byte	0x5e4
 1209 05de 0F       		.uleb128 0xf
 1210 05df AE020000 		.4byte	0x2ae
 1211 05e3 00       		.byte	0
 1212 05e4 03       		.uleb128 0x3
 1213 05e5 7F020000 		.4byte	.LASF85
 1214 05e9 0C       		.byte	0xc
 1215 05ea 37       		.byte	0x37
 1216 05eb EF050000 		.4byte	0x5ef
 1217 05ef 05       		.uleb128 0x5
 1218 05f0 7F020000 		.4byte	.LASF85
 1219 05f4 24       		.byte	0x24
 1220 05f5 0C       		.byte	0xc
 1221 05f6 45       		.byte	0x45
 1222 05f7 6C060000 		.4byte	0x66c
 1223 05fb 06       		.uleb128 0x6
 1224 05fc A7000000 		.4byte	.LASF86
 1225 0600 0C       		.byte	0xc
 1226 0601 46       		.byte	0x46
 1227 0602 76020000 		.4byte	0x276
 1228 0606 02       		.byte	0x2
 1229 0607 23       		.byte	0x23
 1230 0608 00       		.uleb128 0
 1231 0609 06       		.uleb128 0x6
 1232 060a F2040000 		.4byte	.LASF87
 1233 060e 0C       		.byte	0xc
 1234 060f 47       		.byte	0x47
 1235 0610 30000000 		.4byte	0x30
 1236 0614 02       		.byte	0x2
 1237 0615 23       		.byte	0x23
 1238 0616 08       		.uleb128 0x8
 1239 0617 06       		.uleb128 0x6
 1240 0618 25010000 		.4byte	.LASF88
 1241 061c 0C       		.byte	0xc
 1242 061d 48       		.byte	0x48
 1243 061e 8F060000 		.4byte	0x68f
ARM GAS  C:\Users\RICHRD~1\AppData\Local\Temp\ccSYCwWo.s 			page 23


 1244 0622 02       		.byte	0x2
 1245 0623 23       		.byte	0x23
 1246 0624 0C       		.uleb128 0xc
 1247 0625 06       		.uleb128 0x6
 1248 0626 BF050000 		.4byte	.LASF89
 1249 062a 0C       		.byte	0xc
 1250 062b 49       		.byte	0x49
 1251 062c 8F060000 		.4byte	0x68f
 1252 0630 02       		.byte	0x2
 1253 0631 23       		.byte	0x23
 1254 0632 10       		.uleb128 0x10
 1255 0633 06       		.uleb128 0x6
 1256 0634 2E010000 		.4byte	.LASF90
 1257 0638 0C       		.byte	0xc
 1258 0639 4B       		.byte	0x4b
 1259 063a 8F060000 		.4byte	0x68f
 1260 063e 02       		.byte	0x2
 1261 063f 23       		.byte	0x23
 1262 0640 14       		.uleb128 0x14
 1263 0641 06       		.uleb128 0x6
 1264 0642 23040000 		.4byte	.LASF91
 1265 0646 0C       		.byte	0xc
 1266 0647 4C       		.byte	0x4c
 1267 0648 8F060000 		.4byte	0x68f
 1268 064c 02       		.byte	0x2
 1269 064d 23       		.byte	0x23
 1270 064e 18       		.uleb128 0x18
 1271 064f 06       		.uleb128 0x6
 1272 0650 DE050000 		.4byte	.LASF92
 1273 0654 0C       		.byte	0xc
 1274 0655 4D       		.byte	0x4d
 1275 0656 6C060000 		.4byte	0x66c
 1276 065a 02       		.byte	0x2
 1277 065b 23       		.byte	0x23
 1278 065c 1C       		.uleb128 0x1c
 1279 065d 06       		.uleb128 0x6
 1280 065e 36010000 		.4byte	.LASF93
 1281 0662 0C       		.byte	0xc
 1282 0663 4E       		.byte	0x4e
 1283 0664 AE020000 		.4byte	0x2ae
 1284 0668 02       		.byte	0x2
 1285 0669 23       		.byte	0x23
 1286 066a 20       		.uleb128 0x20
 1287 066b 00       		.byte	0
 1288 066c 03       		.uleb128 0x3
 1289 066d 75020000 		.4byte	.LASF94
 1290 0671 0C       		.byte	0xc
 1291 0672 3A       		.byte	0x3a
 1292 0673 77060000 		.4byte	0x677
 1293 0677 09       		.uleb128 0x9
 1294 0678 04       		.byte	0x4
 1295 0679 7D060000 		.4byte	0x67d
 1296 067d 0E       		.uleb128 0xe
 1297 067e 01       		.byte	0x1
 1298 067f 89060000 		.4byte	0x689
 1299 0683 0F       		.uleb128 0xf
 1300 0684 89060000 		.4byte	0x689
ARM GAS  C:\Users\RICHRD~1\AppData\Local\Temp\ccSYCwWo.s 			page 24


 1301 0688 00       		.byte	0
 1302 0689 09       		.uleb128 0x9
 1303 068a 04       		.byte	0x4
 1304 068b E4050000 		.4byte	0x5e4
 1305 068f 09       		.uleb128 0x9
 1306 0690 04       		.byte	0x4
 1307 0691 49000000 		.4byte	0x49
 1308 0695 03       		.uleb128 0x3
 1309 0696 64020000 		.4byte	.LASF95
 1310 069a 0C       		.byte	0xc
 1311 069b 82       		.byte	0x82
 1312 069c E4050000 		.4byte	0x5e4
 1313 06a0 03       		.uleb128 0x3
 1314 06a1 3A000000 		.4byte	.LASF96
 1315 06a5 0C       		.byte	0xc
 1316 06a6 F5       		.byte	0xf5
 1317 06a7 E4050000 		.4byte	0x5e4
 1318 06ab 13       		.uleb128 0x13
 1319 06ac 01       		.byte	0x1
 1320 06ad 30000000 		.4byte	0x30
 1321 06b1 C5060000 		.4byte	0x6c5
 1322 06b5 0F       		.uleb128 0xf
 1323 06b6 AE020000 		.4byte	0x2ae
 1324 06ba 0F       		.uleb128 0xf
 1325 06bb C5060000 		.4byte	0x6c5
 1326 06bf 0F       		.uleb128 0xf
 1327 06c0 30000000 		.4byte	0x30
 1328 06c4 00       		.byte	0
 1329 06c5 09       		.uleb128 0x9
 1330 06c6 04       		.byte	0x4
 1331 06c7 CB060000 		.4byte	0x6cb
 1332 06cb 12       		.uleb128 0x12
 1333 06cc 49000000 		.4byte	0x49
 1334 06d0 09       		.uleb128 0x9
 1335 06d1 04       		.byte	0x4
 1336 06d2 AB060000 		.4byte	0x6ab
 1337 06d6 13       		.uleb128 0x13
 1338 06d7 01       		.byte	0x1
 1339 06d8 30000000 		.4byte	0x30
 1340 06dc F0060000 		.4byte	0x6f0
 1341 06e0 0F       		.uleb128 0xf
 1342 06e1 AE020000 		.4byte	0x2ae
 1343 06e5 0F       		.uleb128 0xf
 1344 06e6 8F060000 		.4byte	0x68f
 1345 06ea 0F       		.uleb128 0xf
 1346 06eb 30000000 		.4byte	0x30
 1347 06ef 00       		.byte	0
 1348 06f0 09       		.uleb128 0x9
 1349 06f1 04       		.byte	0x4
 1350 06f2 D6060000 		.4byte	0x6d6
 1351 06f6 13       		.uleb128 0x13
 1352 06f7 01       		.byte	0x1
 1353 06f8 EF000000 		.4byte	0xef
 1354 06fc 0B070000 		.4byte	0x70b
 1355 0700 0F       		.uleb128 0xf
 1356 0701 AE020000 		.4byte	0x2ae
 1357 0705 0F       		.uleb128 0xf
ARM GAS  C:\Users\RICHRD~1\AppData\Local\Temp\ccSYCwWo.s 			page 25


 1358 0706 49000000 		.4byte	0x49
 1359 070a 00       		.byte	0
 1360 070b 09       		.uleb128 0x9
 1361 070c 04       		.byte	0x4
 1362 070d F6060000 		.4byte	0x6f6
 1363 0711 0D       		.uleb128 0xd
 1364 0712 62000000 		.4byte	0x62
 1365 0716 0D       		.uleb128 0xd
 1366 0717 74000000 		.4byte	0x74
 1367 071b 14       		.uleb128 0x14
 1368 071c 1C       		.byte	0x1c
 1369 071d 0D       		.byte	0xd
 1370 071e 2905     		.2byte	0x529
 1371 0720 F5070000 		.4byte	0x7f5
 1372 0724 0C       		.uleb128 0xc
 1373 0725 535200   		.ascii	"SR\000"
 1374 0728 0D       		.byte	0xd
 1375 0729 2B05     		.2byte	0x52b
 1376 072b 11070000 		.4byte	0x711
 1377 072f 02       		.byte	0x2
 1378 0730 23       		.byte	0x23
 1379 0731 00       		.uleb128 0
 1380 0732 15       		.uleb128 0x15
 1381 0733 D8030000 		.4byte	.LASF97
 1382 0737 0D       		.byte	0xd
 1383 0738 2C05     		.2byte	0x52c
 1384 073a 62000000 		.4byte	0x62
 1385 073e 02       		.byte	0x2
 1386 073f 23       		.byte	0x23
 1387 0740 02       		.uleb128 0x2
 1388 0741 0C       		.uleb128 0xc
 1389 0742 445200   		.ascii	"DR\000"
 1390 0745 0D       		.byte	0xd
 1391 0746 2D05     		.2byte	0x52d
 1392 0748 11070000 		.4byte	0x711
 1393 074c 02       		.byte	0x2
 1394 074d 23       		.byte	0x23
 1395 074e 04       		.uleb128 0x4
 1396 074f 15       		.uleb128 0x15
 1397 0750 E2030000 		.4byte	.LASF98
 1398 0754 0D       		.byte	0xd
 1399 0755 2E05     		.2byte	0x52e
 1400 0757 62000000 		.4byte	0x62
 1401 075b 02       		.byte	0x2
 1402 075c 23       		.byte	0x23
 1403 075d 06       		.uleb128 0x6
 1404 075e 0C       		.uleb128 0xc
 1405 075f 42525200 		.ascii	"BRR\000"
 1406 0763 0D       		.byte	0xd
 1407 0764 2F05     		.2byte	0x52f
 1408 0766 11070000 		.4byte	0x711
 1409 076a 02       		.byte	0x2
 1410 076b 23       		.byte	0x23
 1411 076c 08       		.uleb128 0x8
 1412 076d 15       		.uleb128 0x15
 1413 076e EC030000 		.4byte	.LASF99
 1414 0772 0D       		.byte	0xd
ARM GAS  C:\Users\RICHRD~1\AppData\Local\Temp\ccSYCwWo.s 			page 26


 1415 0773 3005     		.2byte	0x530
 1416 0775 62000000 		.4byte	0x62
 1417 0779 02       		.byte	0x2
 1418 077a 23       		.byte	0x23
 1419 077b 0A       		.uleb128 0xa
 1420 077c 0C       		.uleb128 0xc
 1421 077d 43523100 		.ascii	"CR1\000"
 1422 0781 0D       		.byte	0xd
 1423 0782 3105     		.2byte	0x531
 1424 0784 11070000 		.4byte	0x711
 1425 0788 02       		.byte	0x2
 1426 0789 23       		.byte	0x23
 1427 078a 0C       		.uleb128 0xc
 1428 078b 15       		.uleb128 0x15
 1429 078c F6030000 		.4byte	.LASF100
 1430 0790 0D       		.byte	0xd
 1431 0791 3205     		.2byte	0x532
 1432 0793 62000000 		.4byte	0x62
 1433 0797 02       		.byte	0x2
 1434 0798 23       		.byte	0x23
 1435 0799 0E       		.uleb128 0xe
 1436 079a 0C       		.uleb128 0xc
 1437 079b 43523200 		.ascii	"CR2\000"
 1438 079f 0D       		.byte	0xd
 1439 07a0 3305     		.2byte	0x533
 1440 07a2 11070000 		.4byte	0x711
 1441 07a6 02       		.byte	0x2
 1442 07a7 23       		.byte	0x23
 1443 07a8 10       		.uleb128 0x10
 1444 07a9 15       		.uleb128 0x15
 1445 07aa 00040000 		.4byte	.LASF101
 1446 07ae 0D       		.byte	0xd
 1447 07af 3405     		.2byte	0x534
 1448 07b1 62000000 		.4byte	0x62
 1449 07b5 02       		.byte	0x2
 1450 07b6 23       		.byte	0x23
 1451 07b7 12       		.uleb128 0x12
 1452 07b8 0C       		.uleb128 0xc
 1453 07b9 43523300 		.ascii	"CR3\000"
 1454 07bd 0D       		.byte	0xd
 1455 07be 3505     		.2byte	0x535
 1456 07c0 11070000 		.4byte	0x711
 1457 07c4 02       		.byte	0x2
 1458 07c5 23       		.byte	0x23
 1459 07c6 14       		.uleb128 0x14
 1460 07c7 15       		.uleb128 0x15
 1461 07c8 E8040000 		.4byte	.LASF102
 1462 07cc 0D       		.byte	0xd
 1463 07cd 3605     		.2byte	0x536
 1464 07cf 62000000 		.4byte	0x62
 1465 07d3 02       		.byte	0x2
 1466 07d4 23       		.byte	0x23
 1467 07d5 16       		.uleb128 0x16
 1468 07d6 15       		.uleb128 0x15
 1469 07d7 DA000000 		.4byte	.LASF103
 1470 07db 0D       		.byte	0xd
 1471 07dc 3705     		.2byte	0x537
ARM GAS  C:\Users\RICHRD~1\AppData\Local\Temp\ccSYCwWo.s 			page 27


 1472 07de 11070000 		.4byte	0x711
 1473 07e2 02       		.byte	0x2
 1474 07e3 23       		.byte	0x23
 1475 07e4 18       		.uleb128 0x18
 1476 07e5 15       		.uleb128 0x15
 1477 07e6 11040000 		.4byte	.LASF104
 1478 07ea 0D       		.byte	0xd
 1479 07eb 3805     		.2byte	0x538
 1480 07ed 62000000 		.4byte	0x62
 1481 07f1 02       		.byte	0x2
 1482 07f2 23       		.byte	0x23
 1483 07f3 1A       		.uleb128 0x1a
 1484 07f4 00       		.byte	0
 1485 07f5 16       		.uleb128 0x16
 1486 07f6 26020000 		.4byte	.LASF105
 1487 07fa 0D       		.byte	0xd
 1488 07fb 3905     		.2byte	0x539
 1489 07fd 1B070000 		.4byte	0x71b
 1490 0801 13       		.uleb128 0x13
 1491 0802 01       		.byte	0x1
 1492 0803 EF000000 		.4byte	0xef
 1493 0807 1B080000 		.4byte	0x81b
 1494 080b 0F       		.uleb128 0xf
 1495 080c AE020000 		.4byte	0x2ae
 1496 0810 0F       		.uleb128 0xf
 1497 0811 49000000 		.4byte	0x49
 1498 0815 0F       		.uleb128 0xf
 1499 0816 10010000 		.4byte	0x110
 1500 081a 00       		.byte	0
 1501 081b 09       		.uleb128 0x9
 1502 081c 04       		.byte	0x4
 1503 081d 01080000 		.4byte	0x801
 1504 0821 13       		.uleb128 0x13
 1505 0822 01       		.byte	0x1
 1506 0823 EF000000 		.4byte	0xef
 1507 0827 36080000 		.4byte	0x836
 1508 082b 0F       		.uleb128 0xf
 1509 082c AE020000 		.4byte	0x2ae
 1510 0830 0F       		.uleb128 0xf
 1511 0831 10010000 		.4byte	0x110
 1512 0835 00       		.byte	0
 1513 0836 09       		.uleb128 0x9
 1514 0837 04       		.byte	0x4
 1515 0838 21080000 		.4byte	0x821
 1516 083c 13       		.uleb128 0x13
 1517 083d 01       		.byte	0x1
 1518 083e 30000000 		.4byte	0x30
 1519 0842 5B080000 		.4byte	0x85b
 1520 0846 0F       		.uleb128 0xf
 1521 0847 AE020000 		.4byte	0x2ae
 1522 084b 0F       		.uleb128 0xf
 1523 084c C5060000 		.4byte	0x6c5
 1524 0850 0F       		.uleb128 0xf
 1525 0851 30000000 		.4byte	0x30
 1526 0855 0F       		.uleb128 0xf
 1527 0856 10010000 		.4byte	0x110
 1528 085a 00       		.byte	0
ARM GAS  C:\Users\RICHRD~1\AppData\Local\Temp\ccSYCwWo.s 			page 28


 1529 085b 09       		.uleb128 0x9
 1530 085c 04       		.byte	0x4
 1531 085d 3C080000 		.4byte	0x83c
 1532 0861 13       		.uleb128 0x13
 1533 0862 01       		.byte	0x1
 1534 0863 30000000 		.4byte	0x30
 1535 0867 80080000 		.4byte	0x880
 1536 086b 0F       		.uleb128 0xf
 1537 086c AE020000 		.4byte	0x2ae
 1538 0870 0F       		.uleb128 0xf
 1539 0871 8F060000 		.4byte	0x68f
 1540 0875 0F       		.uleb128 0xf
 1541 0876 30000000 		.4byte	0x30
 1542 087a 0F       		.uleb128 0xf
 1543 087b 10010000 		.4byte	0x110
 1544 087f 00       		.byte	0
 1545 0880 09       		.uleb128 0x9
 1546 0881 04       		.byte	0x4
 1547 0882 61080000 		.4byte	0x861
 1548 0886 08       		.uleb128 0x8
 1549 0887 04       		.byte	0x4
 1550 0888 0E       		.byte	0xe
 1551 0889 96       		.byte	0x96
 1552 088a AB080000 		.4byte	0x8ab
 1553 088e 07       		.uleb128 0x7
 1554 088f 73657400 		.ascii	"set\000"
 1555 0893 0E       		.byte	0xe
 1556 0894 97       		.byte	0x97
 1557 0895 62000000 		.4byte	0x62
 1558 0899 02       		.byte	0x2
 1559 089a 23       		.byte	0x23
 1560 089b 00       		.uleb128 0
 1561 089c 06       		.uleb128 0x6
 1562 089d EA020000 		.4byte	.LASF106
 1563 08a1 0E       		.byte	0xe
 1564 08a2 98       		.byte	0x98
 1565 08a3 62000000 		.4byte	0x62
 1566 08a7 02       		.byte	0x2
 1567 08a8 23       		.byte	0x23
 1568 08a9 02       		.uleb128 0x2
 1569 08aa 00       		.byte	0
 1570 08ab 10       		.uleb128 0x10
 1571 08ac 04       		.byte	0x4
 1572 08ad 0E       		.byte	0xe
 1573 08ae 94       		.byte	0x94
 1574 08af C6080000 		.4byte	0x8c6
 1575 08b3 17       		.uleb128 0x17
 1576 08b4 5700     		.ascii	"W\000"
 1577 08b6 0E       		.byte	0xe
 1578 08b7 95       		.byte	0x95
 1579 08b8 86000000 		.4byte	0x86
 1580 08bc 17       		.uleb128 0x17
 1581 08bd 4800     		.ascii	"H\000"
 1582 08bf 0E       		.byte	0xe
 1583 08c0 99       		.byte	0x99
 1584 08c1 86080000 		.4byte	0x886
 1585 08c5 00       		.byte	0
ARM GAS  C:\Users\RICHRD~1\AppData\Local\Temp\ccSYCwWo.s 			page 29


 1586 08c6 08       		.uleb128 0x8
 1587 08c7 28       		.byte	0x28
 1588 08c8 0E       		.byte	0xe
 1589 08c9 8C       		.byte	0x8c
 1590 08ca 5B090000 		.4byte	0x95b
 1591 08ce 06       		.uleb128 0x6
 1592 08cf 61000000 		.4byte	.LASF107
 1593 08d3 0E       		.byte	0xe
 1594 08d4 8E       		.byte	0x8e
 1595 08d5 6C030000 		.4byte	0x36c
 1596 08d9 02       		.byte	0x2
 1597 08da 23       		.byte	0x23
 1598 08db 00       		.uleb128 0
 1599 08dc 06       		.uleb128 0x6
 1600 08dd 46000000 		.4byte	.LASF108
 1601 08e1 0E       		.byte	0xe
 1602 08e2 8F       		.byte	0x8f
 1603 08e3 6C030000 		.4byte	0x36c
 1604 08e7 02       		.byte	0x2
 1605 08e8 23       		.byte	0x23
 1606 08e9 04       		.uleb128 0x4
 1607 08ea 06       		.uleb128 0x6
 1608 08eb 52010000 		.4byte	.LASF109
 1609 08ef 0E       		.byte	0xe
 1610 08f0 90       		.byte	0x90
 1611 08f1 6C030000 		.4byte	0x36c
 1612 08f5 02       		.byte	0x2
 1613 08f6 23       		.byte	0x23
 1614 08f7 08       		.uleb128 0x8
 1615 08f8 06       		.uleb128 0x6
 1616 08f9 7E000000 		.4byte	.LASF110
 1617 08fd 0E       		.byte	0xe
 1618 08fe 91       		.byte	0x91
 1619 08ff 6C030000 		.4byte	0x36c
 1620 0903 02       		.byte	0x2
 1621 0904 23       		.byte	0x23
 1622 0905 0C       		.uleb128 0xc
 1623 0906 07       		.uleb128 0x7
 1624 0907 49445200 		.ascii	"IDR\000"
 1625 090b 0E       		.byte	0xe
 1626 090c 92       		.byte	0x92
 1627 090d 6C030000 		.4byte	0x36c
 1628 0911 02       		.byte	0x2
 1629 0912 23       		.byte	0x23
 1630 0913 10       		.uleb128 0x10
 1631 0914 07       		.uleb128 0x7
 1632 0915 4F445200 		.ascii	"ODR\000"
 1633 0919 0E       		.byte	0xe
 1634 091a 93       		.byte	0x93
 1635 091b 6C030000 		.4byte	0x36c
 1636 091f 02       		.byte	0x2
 1637 0920 23       		.byte	0x23
 1638 0921 14       		.uleb128 0x14
 1639 0922 06       		.uleb128 0x6
 1640 0923 CB000000 		.4byte	.LASF111
 1641 0927 0E       		.byte	0xe
 1642 0928 9A       		.byte	0x9a
ARM GAS  C:\Users\RICHRD~1\AppData\Local\Temp\ccSYCwWo.s 			page 30


 1643 0929 5B090000 		.4byte	0x95b
 1644 092d 02       		.byte	0x2
 1645 092e 23       		.byte	0x23
 1646 092f 18       		.uleb128 0x18
 1647 0930 06       		.uleb128 0x6
 1648 0931 C2040000 		.4byte	.LASF112
 1649 0935 0E       		.byte	0xe
 1650 0936 9B       		.byte	0x9b
 1651 0937 6C030000 		.4byte	0x36c
 1652 093b 02       		.byte	0x2
 1653 093c 23       		.byte	0x23
 1654 093d 1C       		.uleb128 0x1c
 1655 093e 06       		.uleb128 0x6
 1656 093f B4030000 		.4byte	.LASF113
 1657 0943 0E       		.byte	0xe
 1658 0944 9C       		.byte	0x9c
 1659 0945 6C030000 		.4byte	0x36c
 1660 0949 02       		.byte	0x2
 1661 094a 23       		.byte	0x23
 1662 094b 20       		.uleb128 0x20
 1663 094c 06       		.uleb128 0x6
 1664 094d A9030000 		.4byte	.LASF114
 1665 0951 0E       		.byte	0xe
 1666 0952 9D       		.byte	0x9d
 1667 0953 6C030000 		.4byte	0x36c
 1668 0957 02       		.byte	0x2
 1669 0958 23       		.byte	0x23
 1670 0959 24       		.uleb128 0x24
 1671 095a 00       		.byte	0
 1672 095b 0D       		.uleb128 0xd
 1673 095c AB080000 		.4byte	0x8ab
 1674 0960 03       		.uleb128 0x3
 1675 0961 C9010000 		.4byte	.LASF115
 1676 0965 0E       		.byte	0xe
 1677 0966 9E       		.byte	0x9e
 1678 0967 C6080000 		.4byte	0x8c6
 1679 096b 03       		.uleb128 0x3
 1680 096c 54000000 		.4byte	.LASF116
 1681 0970 0E       		.byte	0xe
 1682 0971 F0       		.byte	0xf0
 1683 0972 86000000 		.4byte	0x86
 1684 0976 03       		.uleb128 0x3
 1685 0977 45060000 		.4byte	.LASF117
 1686 097b 0E       		.byte	0xe
 1687 097c F5       		.byte	0xf5
 1688 097d 86000000 		.4byte	0x86
 1689 0981 03       		.uleb128 0x3
 1690 0982 76050000 		.4byte	.LASF118
 1691 0986 0E       		.byte	0xe
 1692 0987 FD       		.byte	0xfd
 1693 0988 8C090000 		.4byte	0x98c
 1694 098c 09       		.uleb128 0x9
 1695 098d 04       		.byte	0x4
 1696 098e 60090000 		.4byte	0x960
 1697 0992 18       		.uleb128 0x18
 1698 0993 01       		.byte	0x1
 1699 0994 0F       		.byte	0xf
ARM GAS  C:\Users\RICHRD~1\AppData\Local\Temp\ccSYCwWo.s 			page 31


 1700 0995 64       		.byte	0x64
 1701 0996 AD090000 		.4byte	0x9ad
 1702 099a 19       		.uleb128 0x19
 1703 099b DE040000 		.4byte	.LASF119
 1704 099f 00       		.sleb128 0
 1705 09a0 19       		.uleb128 0x19
 1706 09a1 B3040000 		.4byte	.LASF120
 1707 09a5 01       		.sleb128 1
 1708 09a6 19       		.uleb128 0x19
 1709 09a7 A6050000 		.4byte	.LASF121
 1710 09ab 02       		.sleb128 2
 1711 09ac 00       		.byte	0
 1712 09ad 03       		.uleb128 0x3
 1713 09ae 04050000 		.4byte	.LASF122
 1714 09b2 0F       		.byte	0xf
 1715 09b3 68       		.byte	0x68
 1716 09b4 92090000 		.4byte	0x992
 1717 09b8 03       		.uleb128 0x3
 1718 09b9 16050000 		.4byte	.LASF123
 1719 09bd 0F       		.byte	0xf
 1720 09be 6D       		.byte	0x6d
 1721 09bf C3090000 		.4byte	0x9c3
 1722 09c3 05       		.uleb128 0x5
 1723 09c4 16050000 		.4byte	.LASF123
 1724 09c8 78       		.byte	0x78
 1725 09c9 0F       		.byte	0xf
 1726 09ca 87       		.byte	0x87
 1727 09cb 3E0A0000 		.4byte	0xa3e
 1728 09cf 07       		.uleb128 0x7
 1729 09d0 766D7400 		.ascii	"vmt\000"
 1730 09d4 0F       		.byte	0xf
 1731 09d5 89       		.byte	0x89
 1732 09d6 070B0000 		.4byte	0xb07
 1733 09da 02       		.byte	0x2
 1734 09db 23       		.byte	0x23
 1735 09dc 00       		.uleb128 0
 1736 09dd 06       		.uleb128 0x6
 1737 09de F0010000 		.4byte	.LASF124
 1738 09e2 0F       		.byte	0xf
 1739 09e3 8A       		.byte	0x8a
 1740 09e4 6B050000 		.4byte	0x56b
 1741 09e8 02       		.byte	0x2
 1742 09e9 23       		.byte	0x23
 1743 09ea 04       		.uleb128 0x4
 1744 09eb 06       		.uleb128 0x6
 1745 09ec FB000000 		.4byte	.LASF125
 1746 09f0 0F       		.byte	0xf
 1747 09f1 8A       		.byte	0x8a
 1748 09f2 AD090000 		.4byte	0x9ad
 1749 09f6 02       		.byte	0x2
 1750 09f7 23       		.byte	0x23
 1751 09f8 08       		.uleb128 0x8
 1752 09f9 06       		.uleb128 0x6
 1753 09fa B7010000 		.4byte	.LASF126
 1754 09fe 0F       		.byte	0xf
 1755 09ff 8A       		.byte	0x8a
 1756 0a00 95060000 		.4byte	0x695
ARM GAS  C:\Users\RICHRD~1\AppData\Local\Temp\ccSYCwWo.s 			page 32


 1757 0a04 02       		.byte	0x2
 1758 0a05 23       		.byte	0x23
 1759 0a06 0C       		.uleb128 0xc
 1760 0a07 06       		.uleb128 0x6
 1761 0a08 0F020000 		.4byte	.LASF127
 1762 0a0c 0F       		.byte	0xf
 1763 0a0d 8A       		.byte	0x8a
 1764 0a0e A0060000 		.4byte	0x6a0
 1765 0a12 02       		.byte	0x2
 1766 0a13 23       		.byte	0x23
 1767 0a14 30       		.uleb128 0x30
 1768 0a15 07       		.uleb128 0x7
 1769 0a16 696200   		.ascii	"ib\000"
 1770 0a19 0F       		.byte	0xf
 1771 0a1a 8A       		.byte	0x8a
 1772 0a1b 120B0000 		.4byte	0xb12
 1773 0a1f 02       		.byte	0x2
 1774 0a20 23       		.byte	0x23
 1775 0a21 54       		.uleb128 0x54
 1776 0a22 07       		.uleb128 0x7
 1777 0a23 6F6200   		.ascii	"ob\000"
 1778 0a26 0F       		.byte	0xf
 1779 0a27 8A       		.byte	0x8a
 1780 0a28 120B0000 		.4byte	0xb12
 1781 0a2c 02       		.byte	0x2
 1782 0a2d 23       		.byte	0x23
 1783 0a2e 64       		.uleb128 0x64
 1784 0a2f 06       		.uleb128 0x6
 1785 0a30 7F010000 		.4byte	.LASF128
 1786 0a34 0F       		.byte	0xf
 1787 0a35 8A       		.byte	0x8a
 1788 0a36 220B0000 		.4byte	0xb22
 1789 0a3a 02       		.byte	0x2
 1790 0a3b 23       		.byte	0x23
 1791 0a3c 74       		.uleb128 0x74
 1792 0a3d 00       		.byte	0
 1793 0a3e 08       		.uleb128 0x8
 1794 0a3f 0C       		.byte	0xc
 1795 0a40 10       		.byte	0x10
 1796 0a41 D7       		.byte	0xd7
 1797 0a42 7F0A0000 		.4byte	0xa7f
 1798 0a46 06       		.uleb128 0x6
 1799 0a47 6F020000 		.4byte	.LASF129
 1800 0a4b 10       		.byte	0x10
 1801 0a4c DB       		.byte	0xdb
 1802 0a4d 86000000 		.4byte	0x86
 1803 0a51 02       		.byte	0x2
 1804 0a52 23       		.byte	0x23
 1805 0a53 00       		.uleb128 0
 1806 0a54 07       		.uleb128 0x7
 1807 0a55 63723100 		.ascii	"cr1\000"
 1808 0a59 10       		.byte	0x10
 1809 0a5a E0       		.byte	0xe0
 1810 0a5b 62000000 		.4byte	0x62
 1811 0a5f 02       		.byte	0x2
 1812 0a60 23       		.byte	0x23
 1813 0a61 04       		.uleb128 0x4
ARM GAS  C:\Users\RICHRD~1\AppData\Local\Temp\ccSYCwWo.s 			page 33


 1814 0a62 07       		.uleb128 0x7
 1815 0a63 63723200 		.ascii	"cr2\000"
 1816 0a67 10       		.byte	0x10
 1817 0a68 E4       		.byte	0xe4
 1818 0a69 62000000 		.4byte	0x62
 1819 0a6d 02       		.byte	0x2
 1820 0a6e 23       		.byte	0x23
 1821 0a6f 06       		.uleb128 0x6
 1822 0a70 07       		.uleb128 0x7
 1823 0a71 63723300 		.ascii	"cr3\000"
 1824 0a75 10       		.byte	0x10
 1825 0a76 E8       		.byte	0xe8
 1826 0a77 62000000 		.4byte	0x62
 1827 0a7b 02       		.byte	0x2
 1828 0a7c 23       		.byte	0x23
 1829 0a7d 08       		.uleb128 0x8
 1830 0a7e 00       		.byte	0
 1831 0a7f 03       		.uleb128 0x3
 1832 0a80 9C030000 		.4byte	.LASF130
 1833 0a84 10       		.byte	0x10
 1834 0a85 E9       		.byte	0xe9
 1835 0a86 3E0A0000 		.4byte	0xa3e
 1836 0a8a 05       		.uleb128 0x5
 1837 0a8b A0010000 		.4byte	.LASF131
 1838 0a8f 20       		.byte	0x20
 1839 0a90 0F       		.byte	0xf
 1840 0a91 7C       		.byte	0x7c
 1841 0a92 070B0000 		.4byte	0xb07
 1842 0a96 06       		.uleb128 0x6
 1843 0a97 B1020000 		.4byte	.LASF132
 1844 0a9b 0F       		.byte	0xf
 1845 0a9c 7D       		.byte	0x7d
 1846 0a9d D0060000 		.4byte	0x6d0
 1847 0aa1 02       		.byte	0x2
 1848 0aa2 23       		.byte	0x23
 1849 0aa3 00       		.uleb128 0
 1850 0aa4 06       		.uleb128 0x6
 1851 0aa5 3F050000 		.4byte	.LASF133
 1852 0aa9 0F       		.byte	0xf
 1853 0aaa 7D       		.byte	0x7d
 1854 0aab F0060000 		.4byte	0x6f0
 1855 0aaf 02       		.byte	0x2
 1856 0ab0 23       		.byte	0x23
 1857 0ab1 04       		.uleb128 0x4
 1858 0ab2 07       		.uleb128 0x7
 1859 0ab3 70757400 		.ascii	"put\000"
 1860 0ab7 0F       		.byte	0xf
 1861 0ab8 7D       		.byte	0x7d
 1862 0ab9 0B070000 		.4byte	0x70b
 1863 0abd 02       		.byte	0x2
 1864 0abe 23       		.byte	0x23
 1865 0abf 08       		.uleb128 0x8
 1866 0ac0 07       		.uleb128 0x7
 1867 0ac1 67657400 		.ascii	"get\000"
 1868 0ac5 0F       		.byte	0xf
 1869 0ac6 7D       		.byte	0x7d
 1870 0ac7 CE050000 		.4byte	0x5ce
ARM GAS  C:\Users\RICHRD~1\AppData\Local\Temp\ccSYCwWo.s 			page 34


 1871 0acb 02       		.byte	0x2
 1872 0acc 23       		.byte	0x23
 1873 0acd 0C       		.uleb128 0xc
 1874 0ace 06       		.uleb128 0x6
 1875 0acf B7020000 		.4byte	.LASF134
 1876 0ad3 0F       		.byte	0xf
 1877 0ad4 7D       		.byte	0x7d
 1878 0ad5 1B080000 		.4byte	0x81b
 1879 0ad9 02       		.byte	0x2
 1880 0ada 23       		.byte	0x23
 1881 0adb 10       		.uleb128 0x10
 1882 0adc 06       		.uleb128 0x6
 1883 0add DE010000 		.4byte	.LASF135
 1884 0ae1 0F       		.byte	0xf
 1885 0ae2 7D       		.byte	0x7d
 1886 0ae3 36080000 		.4byte	0x836
 1887 0ae7 02       		.byte	0x2
 1888 0ae8 23       		.byte	0x23
 1889 0ae9 14       		.uleb128 0x14
 1890 0aea 06       		.uleb128 0x6
 1891 0aeb 34020000 		.4byte	.LASF136
 1892 0aef 0F       		.byte	0xf
 1893 0af0 7D       		.byte	0x7d
 1894 0af1 5B080000 		.4byte	0x85b
 1895 0af5 02       		.byte	0x2
 1896 0af6 23       		.byte	0x23
 1897 0af7 18       		.uleb128 0x18
 1898 0af8 06       		.uleb128 0x6
 1899 0af9 A1000000 		.4byte	.LASF137
 1900 0afd 0F       		.byte	0xf
 1901 0afe 7D       		.byte	0x7d
 1902 0aff 80080000 		.4byte	0x880
 1903 0b03 02       		.byte	0x2
 1904 0b04 23       		.byte	0x23
 1905 0b05 1C       		.uleb128 0x1c
 1906 0b06 00       		.byte	0
 1907 0b07 09       		.uleb128 0x9
 1908 0b08 04       		.byte	0x4
 1909 0b09 0D0B0000 		.4byte	0xb0d
 1910 0b0d 12       		.uleb128 0x12
 1911 0b0e 8A0A0000 		.4byte	0xa8a
 1912 0b12 1A       		.uleb128 0x1a
 1913 0b13 49000000 		.4byte	0x49
 1914 0b17 220B0000 		.4byte	0xb22
 1915 0b1b 1B       		.uleb128 0x1b
 1916 0b1c 71030000 		.4byte	0x371
 1917 0b20 0F       		.byte	0xf
 1918 0b21 00       		.byte	0
 1919 0b22 09       		.uleb128 0x9
 1920 0b23 04       		.byte	0x4
 1921 0b24 F5070000 		.4byte	0x7f5
 1922 0b28 1A       		.uleb128 0x1a
 1923 0b29 B0020000 		.4byte	0x2b0
 1924 0b2d 380B0000 		.4byte	0xb38
 1925 0b31 1B       		.uleb128 0x1b
 1926 0b32 71030000 		.4byte	0x371
 1927 0b36 29       		.byte	0x29
ARM GAS  C:\Users\RICHRD~1\AppData\Local\Temp\ccSYCwWo.s 			page 35


 1928 0b37 00       		.byte	0
 1929 0b38 1C       		.uleb128 0x1c
 1930 0b39 15060000 		.4byte	.LASF142
 1931 0b3d 01       		.byte	0x1
 1932 0b3e 31       		.byte	0x31
 1933 0b3f 01       		.byte	0x1
 1934 0b40 EF000000 		.4byte	0xef
 1935 0b44 00000000 		.4byte	.LFB120
 1936 0b48 34000000 		.4byte	.LFE120
 1937 0b4c 00000000 		.4byte	.LLST0
 1938 0b50 01       		.byte	0x1
 1939 0b51 BD0B0000 		.4byte	0xbbd
 1940 0b55 1D       		.uleb128 0x1d
 1941 0b56 7000     		.ascii	"p\000"
 1942 0b58 01       		.byte	0x1
 1943 0b59 31       		.byte	0x31
 1944 0b5a AE020000 		.4byte	0x2ae
 1945 0b5e 20000000 		.4byte	.LLST1
 1946 0b62 1E       		.uleb128 0x1e
 1947 0b63 F6020000 		.4byte	.LASF138
 1948 0b67 01       		.byte	0x1
 1949 0b68 36       		.byte	0x36
 1950 0b69 29000000 		.4byte	0x29
 1951 0b6d 00       		.byte	0
 1952 0b6e 1F       		.uleb128 0x1f
 1953 0b6f 62030000 		.4byte	.LASF139
 1954 0b73 01       		.byte	0x1
 1955 0b74 37       		.byte	0x37
 1956 0b75 10010000 		.4byte	0x110
 1957 0b79 01       		.byte	0x1
 1958 0b7a 54       		.byte	0x54
 1959 0b7b 20       		.uleb128 0x20
 1960 0b7c 0A000000 		.4byte	.LVL2
 1961 0b80 240E0000 		.4byte	0xe24
 1962 0b84 900B0000 		.4byte	0xb90
 1963 0b88 21       		.uleb128 0x21
 1964 0b89 01       		.byte	0x1
 1965 0b8a 50       		.byte	0x50
 1966 0b8b 03       		.byte	0x3
 1967 0b8c 0A       		.byte	0xa
 1968 0b8d E803     		.2byte	0x3e8
 1969 0b8f 00       		.byte	0
 1970 0b90 22       		.uleb128 0x22
 1971 0b91 0E000000 		.4byte	.LVL3
 1972 0b95 390E0000 		.4byte	0xe39
 1973 0b99 20       		.uleb128 0x20
 1974 0b9a 1A000000 		.4byte	.LVL5
 1975 0b9e 430E0000 		.4byte	0xe43
 1976 0ba2 AC0B0000 		.4byte	0xbac
 1977 0ba6 21       		.uleb128 0x21
 1978 0ba7 01       		.byte	0x1
 1979 0ba8 50       		.byte	0x50
 1980 0ba9 01       		.byte	0x1
 1981 0baa 30       		.byte	0x30
 1982 0bab 00       		.byte	0
 1983 0bac 23       		.uleb128 0x23
 1984 0bad 28000000 		.4byte	.LVL7
ARM GAS  C:\Users\RICHRD~1\AppData\Local\Temp\ccSYCwWo.s 			page 36


 1985 0bb1 5B0E0000 		.4byte	0xe5b
 1986 0bb5 21       		.uleb128 0x21
 1987 0bb6 01       		.byte	0x1
 1988 0bb7 50       		.byte	0x50
 1989 0bb8 02       		.byte	0x2
 1990 0bb9 74       		.byte	0x74
 1991 0bba 00       		.sleb128 0
 1992 0bbb 00       		.byte	0
 1993 0bbc 00       		.byte	0
 1994 0bbd 24       		.uleb128 0x24
 1995 0bbe 01       		.byte	0x1
 1996 0bbf 17000000 		.4byte	.LASF140
 1997 0bc3 01       		.byte	0x1
 1998 0bc4 1F       		.byte	0x1f
 1999 0bc5 01       		.byte	0x1
 2000 0bc6 00000000 		.4byte	.LFB118
 2001 0bca 3E000000 		.4byte	.LFE118
 2002 0bce 41000000 		.4byte	.LLST2
 2003 0bd2 01       		.byte	0x1
 2004 0bd3 370C0000 		.4byte	0xc37
 2005 0bd7 20       		.uleb128 0x20
 2006 0bd8 16000000 		.4byte	.LVL8
 2007 0bdc 700E0000 		.4byte	0xe70
 2008 0be0 F80B0000 		.4byte	0xbf8
 2009 0be4 21       		.uleb128 0x21
 2010 0be5 01       		.byte	0x1
 2011 0be6 52       		.byte	0x52
 2012 0be7 03       		.byte	0x3
 2013 0be8 0A       		.byte	0xa
 2014 0be9 8203     		.2byte	0x382
 2015 0beb 21       		.uleb128 0x21
 2016 0bec 01       		.byte	0x1
 2017 0bed 51       		.byte	0x51
 2018 0bee 02       		.byte	0x2
 2019 0bef 08       		.byte	0x8
 2020 0bf0 40       		.byte	0x40
 2021 0bf1 21       		.uleb128 0x21
 2022 0bf2 01       		.byte	0x1
 2023 0bf3 50       		.byte	0x50
 2024 0bf4 02       		.byte	0x2
 2025 0bf5 74       		.byte	0x74
 2026 0bf6 00       		.sleb128 0
 2027 0bf7 00       		.byte	0
 2028 0bf8 20       		.uleb128 0x20
 2029 0bf9 22000000 		.4byte	.LVL9
 2030 0bfd 700E0000 		.4byte	0xe70
 2031 0c01 190C0000 		.4byte	0xc19
 2032 0c05 21       		.uleb128 0x21
 2033 0c06 01       		.byte	0x1
 2034 0c07 52       		.byte	0x52
 2035 0c08 03       		.byte	0x3
 2036 0c09 0A       		.byte	0xa
 2037 0c0a 8203     		.2byte	0x382
 2038 0c0c 21       		.uleb128 0x21
 2039 0c0d 01       		.byte	0x1
 2040 0c0e 51       		.byte	0x51
 2041 0c0f 02       		.byte	0x2
ARM GAS  C:\Users\RICHRD~1\AppData\Local\Temp\ccSYCwWo.s 			page 37


 2042 0c10 08       		.byte	0x8
 2043 0c11 80       		.byte	0x80
 2044 0c12 21       		.uleb128 0x21
 2045 0c13 01       		.byte	0x1
 2046 0c14 50       		.byte	0x50
 2047 0c15 02       		.byte	0x2
 2048 0c16 74       		.byte	0x74
 2049 0c17 00       		.sleb128 0
 2050 0c18 00       		.byte	0
 2051 0c19 22       		.uleb128 0x22
 2052 0c1a 26000000 		.4byte	.LVL10
 2053 0c1e 8F0E0000 		.4byte	0xe8f
 2054 0c22 25       		.uleb128 0x25
 2055 0c23 3E000000 		.4byte	.LVL11
 2056 0c27 01       		.byte	0x1
 2057 0c28 9A0E0000 		.4byte	0xe9a
 2058 0c2c 21       		.uleb128 0x21
 2059 0c2d 01       		.byte	0x1
 2060 0c2e 51       		.byte	0x51
 2061 0c2f 05       		.byte	0x5
 2062 0c30 03       		.byte	0x3
 2063 0c31 00000000 		.4byte	.LANCHOR1
 2064 0c35 00       		.byte	0
 2065 0c36 00       		.byte	0
 2066 0c37 26       		.uleb128 0x26
 2067 0c38 01       		.byte	0x1
 2068 0c39 EF000000 		.4byte	.LASF141
 2069 0c3d 01       		.byte	0x1
 2070 0c3e 27       		.byte	0x27
 2071 0c3f 01       		.byte	0x1
 2072 0c40 00000000 		.4byte	.LFB119
 2073 0c44 10000000 		.4byte	.LFE119
 2074 0c48 02       		.byte	0x2
 2075 0c49 7D       		.byte	0x7d
 2076 0c4a 00       		.sleb128 0
 2077 0c4b 01       		.byte	0x1
 2078 0c4c 670C0000 		.4byte	0xc67
 2079 0c50 25       		.uleb128 0x25
 2080 0c51 0C000000 		.4byte	.LVL12
 2081 0c55 01       		.byte	0x1
 2082 0c56 C50E0000 		.4byte	0xec5
 2083 0c5a 21       		.uleb128 0x21
 2084 0c5b 01       		.byte	0x1
 2085 0c5c 52       		.byte	0x52
 2086 0c5d 02       		.byte	0x2
 2087 0c5e 09       		.byte	0x9
 2088 0c5f FF       		.byte	0xff
 2089 0c60 21       		.uleb128 0x21
 2090 0c61 01       		.byte	0x1
 2091 0c62 51       		.byte	0x51
 2092 0c63 01       		.byte	0x1
 2093 0c64 31       		.byte	0x31
 2094 0c65 00       		.byte	0
 2095 0c66 00       		.byte	0
 2096 0c67 1C       		.uleb128 0x1c
 2097 0c68 97020000 		.4byte	.LASF143
 2098 0c6c 01       		.byte	0x1
ARM GAS  C:\Users\RICHRD~1\AppData\Local\Temp\ccSYCwWo.s 			page 38


 2099 0c6d 45       		.byte	0x45
 2100 0c6e 01       		.byte	0x1
 2101 0c6f EF000000 		.4byte	0xef
 2102 0c73 00000000 		.4byte	.LFB121
 2103 0c77 4C000000 		.4byte	.LFE121
 2104 0c7b 61000000 		.4byte	.LLST3
 2105 0c7f 01       		.byte	0x1
 2106 0c80 C50C0000 		.4byte	0xcc5
 2107 0c84 1D       		.uleb128 0x1d
 2108 0c85 61726700 		.ascii	"arg\000"
 2109 0c89 01       		.byte	0x1
 2110 0c8a 45       		.byte	0x45
 2111 0c8b AE020000 		.4byte	0x2ae
 2112 0c8f 81000000 		.4byte	.LLST4
 2113 0c93 20       		.uleb128 0x20
 2114 0c94 32000000 		.4byte	.LVL15
 2115 0c98 240E0000 		.4byte	0xe24
 2116 0c9c A70C0000 		.4byte	0xca7
 2117 0ca0 21       		.uleb128 0x21
 2118 0ca1 01       		.byte	0x1
 2119 0ca2 50       		.byte	0x50
 2120 0ca3 02       		.byte	0x2
 2121 0ca4 08       		.byte	0x8
 2122 0ca5 64       		.byte	0x64
 2123 0ca6 00       		.byte	0
 2124 0ca7 20       		.uleb128 0x20
 2125 0ca8 3C000000 		.4byte	.LVL16
 2126 0cac 240E0000 		.4byte	0xe24
 2127 0cb0 BB0C0000 		.4byte	0xcbb
 2128 0cb4 21       		.uleb128 0x21
 2129 0cb5 01       		.byte	0x1
 2130 0cb6 50       		.byte	0x50
 2131 0cb7 02       		.byte	0x2
 2132 0cb8 08       		.byte	0x8
 2133 0cb9 64       		.byte	0x64
 2134 0cba 00       		.byte	0
 2135 0cbb 22       		.uleb128 0x22
 2136 0cbc 40000000 		.4byte	.LVL17
 2137 0cc0 370C0000 		.4byte	0xc37
 2138 0cc4 00       		.byte	0
 2139 0cc5 27       		.uleb128 0x27
 2140 0cc6 01       		.byte	0x1
 2141 0cc7 40060000 		.4byte	.LASF168
 2142 0ccb 01       		.byte	0x1
 2143 0ccc 5A       		.byte	0x5a
 2144 0ccd 01       		.byte	0x1
 2145 0cce 29000000 		.4byte	0x29
 2146 0cd2 00000000 		.4byte	.LFB122
 2147 0cd6 9C000000 		.4byte	.LFE122
 2148 0cda A2000000 		.4byte	.LLST5
 2149 0cde 01       		.byte	0x1
 2150 0cdf 810D0000 		.4byte	0xd81
 2151 0ce3 22       		.uleb128 0x22
 2152 0ce4 08000000 		.4byte	.LVL18
 2153 0ce8 EE0E0000 		.4byte	0xeee
 2154 0cec 22       		.uleb128 0x22
 2155 0ced 0C000000 		.4byte	.LVL19
ARM GAS  C:\Users\RICHRD~1\AppData\Local\Temp\ccSYCwWo.s 			page 39


 2156 0cf1 F80E0000 		.4byte	0xef8
 2157 0cf5 22       		.uleb128 0x22
 2158 0cf6 5C000000 		.4byte	.LVL20
 2159 0cfa BD0B0000 		.4byte	0xbbd
 2160 0cfe 22       		.uleb128 0x22
 2161 0cff 60000000 		.4byte	.LVL21
 2162 0d03 020F0000 		.4byte	0xf02
 2163 0d07 20       		.uleb128 0x20
 2164 0d08 70000000 		.4byte	.LVL22
 2165 0d0c 0C0F0000 		.4byte	0xf0c
 2166 0d10 3B0D0000 		.4byte	0xd3b
 2167 0d14 21       		.uleb128 0x21
 2168 0d15 01       		.byte	0x1
 2169 0d16 53       		.byte	0x53
 2170 0d17 05       		.byte	0x5
 2171 0d18 03       		.byte	0x3
 2172 0d19 00000000 		.4byte	Thread1
 2173 0d1d 21       		.uleb128 0x21
 2174 0d1e 01       		.byte	0x1
 2175 0d1f 52       		.byte	0x52
 2176 0d20 02       		.byte	0x2
 2177 0d21 74       		.byte	0x74
 2178 0d22 00       		.sleb128 0
 2179 0d23 21       		.uleb128 0x21
 2180 0d24 01       		.byte	0x1
 2181 0d25 51       		.byte	0x51
 2182 0d26 03       		.byte	0x3
 2183 0d27 0A       		.byte	0xa
 2184 0d28 5001     		.2byte	0x150
 2185 0d2a 21       		.uleb128 0x21
 2186 0d2b 01       		.byte	0x1
 2187 0d2c 50       		.byte	0x50
 2188 0d2d 05       		.byte	0x5
 2189 0d2e 03       		.byte	0x3
 2190 0d2f 00000000 		.4byte	.LANCHOR2
 2191 0d33 21       		.uleb128 0x21
 2192 0d34 02       		.byte	0x2
 2193 0d35 7D       		.byte	0x7d
 2194 0d36 00       		.sleb128 0
 2195 0d37 02       		.byte	0x2
 2196 0d38 75       		.byte	0x75
 2197 0d39 00       		.sleb128 0
 2198 0d3a 00       		.byte	0
 2199 0d3b 20       		.uleb128 0x20
 2200 0d3c 80000000 		.4byte	.LVL23
 2201 0d40 0C0F0000 		.4byte	0xf0c
 2202 0d44 6F0D0000 		.4byte	0xd6f
 2203 0d48 21       		.uleb128 0x21
 2204 0d49 01       		.byte	0x1
 2205 0d4a 53       		.byte	0x53
 2206 0d4b 05       		.byte	0x5
 2207 0d4c 03       		.byte	0x3
 2208 0d4d 00000000 		.4byte	ds18b20_polling_thread
 2209 0d51 21       		.uleb128 0x21
 2210 0d52 01       		.byte	0x1
 2211 0d53 52       		.byte	0x52
 2212 0d54 02       		.byte	0x2
ARM GAS  C:\Users\RICHRD~1\AppData\Local\Temp\ccSYCwWo.s 			page 40


 2213 0d55 74       		.byte	0x74
 2214 0d56 00       		.sleb128 0
 2215 0d57 21       		.uleb128 0x21
 2216 0d58 01       		.byte	0x1
 2217 0d59 51       		.byte	0x51
 2218 0d5a 03       		.byte	0x3
 2219 0d5b 0A       		.byte	0xa
 2220 0d5c D002     		.2byte	0x2d0
 2221 0d5e 21       		.uleb128 0x21
 2222 0d5f 01       		.byte	0x1
 2223 0d60 50       		.byte	0x50
 2224 0d61 05       		.byte	0x5
 2225 0d62 03       		.byte	0x3
 2226 0d63 00000000 		.4byte	.LANCHOR3
 2227 0d67 21       		.uleb128 0x21
 2228 0d68 02       		.byte	0x2
 2229 0d69 7D       		.byte	0x7d
 2230 0d6a 00       		.sleb128 0
 2231 0d6b 02       		.byte	0x2
 2232 0d6c 75       		.byte	0x75
 2233 0d6d 00       		.sleb128 0
 2234 0d6e 00       		.byte	0
 2235 0d6f 23       		.uleb128 0x23
 2236 0d70 88000000 		.4byte	.LVL24
 2237 0d74 240E0000 		.4byte	0xe24
 2238 0d78 21       		.uleb128 0x21
 2239 0d79 01       		.byte	0x1
 2240 0d7a 50       		.byte	0x50
 2241 0d7b 03       		.byte	0x3
 2242 0d7c 0A       		.byte	0xa
 2243 0d7d F401     		.2byte	0x1f4
 2244 0d7f 00       		.byte	0
 2245 0d80 00       		.byte	0
 2246 0d81 1F       		.uleb128 0x1f
 2247 0d82 0E050000 		.4byte	.LASF144
 2248 0d86 01       		.byte	0x1
 2249 0d87 17       		.byte	0x17
 2250 0d88 7F0A0000 		.4byte	0xa7f
 2251 0d8c 05       		.byte	0x5
 2252 0d8d 03       		.byte	0x3
 2253 0d8e 00000000 		.4byte	uartCfg
 2254 0d92 1E       		.uleb128 0x1e
 2255 0d93 9A010000 		.4byte	.LASF145
 2256 0d97 01       		.byte	0x1
 2257 0d98 26       		.byte	0x26
 2258 0d99 CB060000 		.4byte	0x6cb
 2259 0d9d 01       		.byte	0x1
 2260 0d9e 1A       		.uleb128 0x1a
 2261 0d9f B0020000 		.4byte	0x2b0
 2262 0da3 AE0D0000 		.4byte	0xdae
 2263 0da7 1B       		.uleb128 0x1b
 2264 0da8 71030000 		.4byte	0x371
 2265 0dac 59       		.byte	0x59
 2266 0dad 00       		.byte	0
 2267 0dae 1F       		.uleb128 0x1f
 2268 0daf D7020000 		.4byte	.LASF146
 2269 0db3 01       		.byte	0x1
ARM GAS  C:\Users\RICHRD~1\AppData\Local\Temp\ccSYCwWo.s 			page 41


 2270 0db4 2E       		.byte	0x2e
 2271 0db5 9E0D0000 		.4byte	0xd9e
 2272 0db9 05       		.byte	0x5
 2273 0dba 03       		.byte	0x3
 2274 0dbb 00000000 		.4byte	wa_ds18b20_polling
 2275 0dbf 1F       		.uleb128 0x1f
 2276 0dc0 B9030000 		.4byte	.LASF147
 2277 0dc4 01       		.byte	0x1
 2278 0dc5 44       		.byte	0x44
 2279 0dc6 280B0000 		.4byte	0xb28
 2280 0dca 05       		.byte	0x5
 2281 0dcb 03       		.byte	0x3
 2282 0dcc 00000000 		.4byte	waThread1
 2283 0dd0 28       		.uleb128 0x28
 2284 0dd1 4D000000 		.4byte	.LASF148
 2285 0dd5 08       		.byte	0x8
 2286 0dd6 F5       		.byte	0xf5
 2287 0dd7 3F040000 		.4byte	0x43f
 2288 0ddb 01       		.byte	0x1
 2289 0ddc 01       		.byte	0x1
 2290 0ddd 28       		.uleb128 0x28
 2291 0dde E7050000 		.4byte	.LASF149
 2292 0de2 09       		.byte	0x9
 2293 0de3 6F       		.byte	0x6f
 2294 0de4 A7040000 		.4byte	0x4a7
 2295 0de8 01       		.byte	0x1
 2296 0de9 01       		.byte	0x1
 2297 0dea 29       		.uleb128 0x29
 2298 0deb 8D000000 		.4byte	.LASF150
 2299 0def 11       		.byte	0x11
 2300 0df0 9806     		.2byte	0x698
 2301 0df2 16070000 		.4byte	0x716
 2302 0df6 01       		.byte	0x1
 2303 0df7 01       		.byte	0x1
 2304 0df8 2A       		.uleb128 0x2a
 2305 0df9 53443100 		.ascii	"SD1\000"
 2306 0dfd 10       		.byte	0x10
 2307 0dfe 0F01     		.2byte	0x10f
 2308 0e00 B8090000 		.4byte	0x9b8
 2309 0e04 01       		.byte	0x1
 2310 0e05 01       		.byte	0x1
 2311 0e06 2B       		.uleb128 0x2b
 2312 0e07 47040000 		.4byte	.LASF151
 2313 0e0b 01       		.byte	0x1
 2314 0e0c 30       		.byte	0x30
 2315 0e0d 180E0000 		.4byte	0xe18
 2316 0e11 01       		.byte	0x1
 2317 0e12 05       		.byte	0x5
 2318 0e13 03       		.byte	0x3
 2319 0e14 00000000 		.4byte	currentTemp
 2320 0e18 0D       		.uleb128 0xd
 2321 0e19 1D0E0000 		.4byte	0xe1d
 2322 0e1d 04       		.uleb128 0x4
 2323 0e1e 04       		.byte	0x4
 2324 0e1f 04       		.byte	0x4
 2325 0e20 AE030000 		.4byte	.LASF152
 2326 0e24 2C       		.uleb128 0x2c
ARM GAS  C:\Users\RICHRD~1\AppData\Local\Temp\ccSYCwWo.s 			page 42


 2327 0e25 01       		.byte	0x1
 2328 0e26 91030000 		.4byte	.LASF153
 2329 0e2a 06       		.byte	0x6
 2330 0e2b 7501     		.2byte	0x175
 2331 0e2d 01       		.byte	0x1
 2332 0e2e 01       		.byte	0x1
 2333 0e2f 390E0000 		.4byte	0xe39
 2334 0e33 0F       		.uleb128 0xf
 2335 0e34 10010000 		.4byte	0x110
 2336 0e38 00       		.byte	0
 2337 0e39 2D       		.uleb128 0x2d
 2338 0e3a 01       		.byte	0x1
 2339 0e3b 3D010000 		.4byte	.LASF156
 2340 0e3f 12       		.byte	0x12
 2341 0e40 18       		.byte	0x18
 2342 0e41 01       		.byte	0x1
 2343 0e42 01       		.byte	0x1
 2344 0e43 2E       		.uleb128 0x2e
 2345 0e44 01       		.byte	0x1
 2346 0e45 16020000 		.4byte	.LASF159
 2347 0e49 12       		.byte	0x12
 2348 0e4a 1E       		.byte	0x1e
 2349 0e4b 01       		.byte	0x1
 2350 0e4c 1D0E0000 		.4byte	0xe1d
 2351 0e50 01       		.byte	0x1
 2352 0e51 5B0E0000 		.4byte	0xe5b
 2353 0e55 0F       		.uleb128 0xf
 2354 0e56 49000000 		.4byte	0x49
 2355 0e5a 00       		.byte	0
 2356 0e5b 2C       		.uleb128 0x2c
 2357 0e5c 01       		.byte	0x1
 2358 0e5d 81030000 		.4byte	.LASF154
 2359 0e61 06       		.byte	0x6
 2360 0e62 7601     		.2byte	0x176
 2361 0e64 01       		.byte	0x1
 2362 0e65 01       		.byte	0x1
 2363 0e66 700E0000 		.4byte	0xe70
 2364 0e6a 0F       		.uleb128 0xf
 2365 0e6b 10010000 		.4byte	0x110
 2366 0e6f 00       		.byte	0
 2367 0e70 2C       		.uleb128 0x2c
 2368 0e71 01       		.byte	0x1
 2369 0e72 89050000 		.4byte	.LASF155
 2370 0e76 0E       		.byte	0xe
 2371 0e77 C201     		.2byte	0x1c2
 2372 0e79 01       		.byte	0x1
 2373 0e7a 01       		.byte	0x1
 2374 0e7b 8F0E0000 		.4byte	0xe8f
 2375 0e7f 0F       		.uleb128 0xf
 2376 0e80 81090000 		.4byte	0x981
 2377 0e84 0F       		.uleb128 0xf
 2378 0e85 6B090000 		.4byte	0x96b
 2379 0e89 0F       		.uleb128 0xf
 2380 0e8a 76090000 		.4byte	0x976
 2381 0e8e 00       		.byte	0
 2382 0e8f 2F       		.uleb128 0x2f
 2383 0e90 01       		.byte	0x1
ARM GAS  C:\Users\RICHRD~1\AppData\Local\Temp\ccSYCwWo.s 			page 43


 2384 0e91 39060000 		.4byte	.LASF157
 2385 0e95 0F       		.byte	0xf
 2386 0e96 3501     		.2byte	0x135
 2387 0e98 01       		.byte	0x1
 2388 0e99 01       		.byte	0x1
 2389 0e9a 2C       		.uleb128 0x2c
 2390 0e9b 01       		.byte	0x1
 2391 0e9c 49050000 		.4byte	.LASF158
 2392 0ea0 0F       		.byte	0xf
 2393 0ea1 3701     		.2byte	0x137
 2394 0ea3 01       		.byte	0x1
 2395 0ea4 01       		.byte	0x1
 2396 0ea5 B40E0000 		.4byte	0xeb4
 2397 0ea9 0F       		.uleb128 0xf
 2398 0eaa B40E0000 		.4byte	0xeb4
 2399 0eae 0F       		.uleb128 0xf
 2400 0eaf BA0E0000 		.4byte	0xeba
 2401 0eb3 00       		.byte	0
 2402 0eb4 09       		.uleb128 0x9
 2403 0eb5 04       		.byte	0x4
 2404 0eb6 B8090000 		.4byte	0x9b8
 2405 0eba 09       		.uleb128 0x9
 2406 0ebb 04       		.byte	0x4
 2407 0ebc C00E0000 		.4byte	0xec0
 2408 0ec0 12       		.uleb128 0x12
 2409 0ec1 7F0A0000 		.4byte	0xa7f
 2410 0ec5 30       		.uleb128 0x30
 2411 0ec6 01       		.byte	0x1
 2412 0ec7 00000000 		.4byte	.LASF160
 2413 0ecb 0C       		.byte	0xc
 2414 0ecc 6D01     		.2byte	0x16d
 2415 0ece 01       		.byte	0x1
 2416 0ecf EF000000 		.4byte	0xef
 2417 0ed3 01       		.byte	0x1
 2418 0ed4 E80E0000 		.4byte	0xee8
 2419 0ed8 0F       		.uleb128 0xf
 2420 0ed9 E80E0000 		.4byte	0xee8
 2421 0edd 0F       		.uleb128 0xf
 2422 0ede 49000000 		.4byte	0x49
 2423 0ee2 0F       		.uleb128 0xf
 2424 0ee3 10010000 		.4byte	0x110
 2425 0ee7 00       		.byte	0
 2426 0ee8 09       		.uleb128 0x9
 2427 0ee9 04       		.byte	0x4
 2428 0eea A0060000 		.4byte	0x6a0
 2429 0eee 2D       		.uleb128 0x2d
 2430 0eef 01       		.byte	0x1
 2431 0ef0 D6010000 		.4byte	.LASF161
 2432 0ef4 13       		.byte	0x13
 2433 0ef5 D0       		.byte	0xd0
 2434 0ef6 01       		.byte	0x1
 2435 0ef7 01       		.byte	0x1
 2436 0ef8 2D       		.uleb128 0x2d
 2437 0ef9 01       		.byte	0x1
 2438 0efa D0000000 		.4byte	.LASF162
 2439 0efe 14       		.byte	0x14
 2440 0eff F6       		.byte	0xf6
ARM GAS  C:\Users\RICHRD~1\AppData\Local\Temp\ccSYCwWo.s 			page 44


 2441 0f00 01       		.byte	0x1
 2442 0f01 01       		.byte	0x1
 2443 0f02 2D       		.uleb128 0x2d
 2444 0f03 01       		.byte	0x1
 2445 0f04 C3030000 		.4byte	.LASF163
 2446 0f08 15       		.byte	0x15
 2447 0f09 0E       		.byte	0xe
 2448 0f0a 01       		.byte	0x1
 2449 0f0b 01       		.byte	0x1
 2450 0f0c 31       		.uleb128 0x31
 2451 0f0d 01       		.byte	0x1
 2452 0f0e 9F020000 		.4byte	.LASF164
 2453 0f12 06       		.byte	0x6
 2454 0f13 7001     		.2byte	0x170
 2455 0f15 01       		.byte	0x1
 2456 0f16 70020000 		.4byte	0x270
 2457 0f1a 01       		.byte	0x1
 2458 0f1b 0F       		.uleb128 0xf
 2459 0f1c AE020000 		.4byte	0x2ae
 2460 0f20 0F       		.uleb128 0xf
 2461 0f21 30000000 		.4byte	0x30
 2462 0f25 0F       		.uleb128 0xf
 2463 0f26 E4000000 		.4byte	0xe4
 2464 0f2a 0F       		.uleb128 0xf
 2465 0f2b C3050000 		.4byte	0x5c3
 2466 0f2f 0F       		.uleb128 0xf
 2467 0f30 AE020000 		.4byte	0x2ae
 2468 0f34 00       		.byte	0
 2469 0f35 00       		.byte	0
 2470              		.section	.debug_abbrev,"",%progbits
 2471              	.Ldebug_abbrev0:
 2472 0000 01       		.uleb128 0x1
 2473 0001 11       		.uleb128 0x11
 2474 0002 01       		.byte	0x1
 2475 0003 25       		.uleb128 0x25
 2476 0004 0E       		.uleb128 0xe
 2477 0005 13       		.uleb128 0x13
 2478 0006 0B       		.uleb128 0xb
 2479 0007 03       		.uleb128 0x3
 2480 0008 0E       		.uleb128 0xe
 2481 0009 1B       		.uleb128 0x1b
 2482 000a 0E       		.uleb128 0xe
 2483 000b 55       		.uleb128 0x55
 2484 000c 06       		.uleb128 0x6
 2485 000d 11       		.uleb128 0x11
 2486 000e 01       		.uleb128 0x1
 2487 000f 52       		.uleb128 0x52
 2488 0010 01       		.uleb128 0x1
 2489 0011 10       		.uleb128 0x10
 2490 0012 06       		.uleb128 0x6
 2491 0013 00       		.byte	0
 2492 0014 00       		.byte	0
 2493 0015 02       		.uleb128 0x2
 2494 0016 24       		.uleb128 0x24
 2495 0017 00       		.byte	0
 2496 0018 0B       		.uleb128 0xb
 2497 0019 0B       		.uleb128 0xb
ARM GAS  C:\Users\RICHRD~1\AppData\Local\Temp\ccSYCwWo.s 			page 45


 2498 001a 3E       		.uleb128 0x3e
 2499 001b 0B       		.uleb128 0xb
 2500 001c 03       		.uleb128 0x3
 2501 001d 08       		.uleb128 0x8
 2502 001e 00       		.byte	0
 2503 001f 00       		.byte	0
 2504 0020 03       		.uleb128 0x3
 2505 0021 16       		.uleb128 0x16
 2506 0022 00       		.byte	0
 2507 0023 03       		.uleb128 0x3
 2508 0024 0E       		.uleb128 0xe
 2509 0025 3A       		.uleb128 0x3a
 2510 0026 0B       		.uleb128 0xb
 2511 0027 3B       		.uleb128 0x3b
 2512 0028 0B       		.uleb128 0xb
 2513 0029 49       		.uleb128 0x49
 2514 002a 13       		.uleb128 0x13
 2515 002b 00       		.byte	0
 2516 002c 00       		.byte	0
 2517 002d 04       		.uleb128 0x4
 2518 002e 24       		.uleb128 0x24
 2519 002f 00       		.byte	0
 2520 0030 0B       		.uleb128 0xb
 2521 0031 0B       		.uleb128 0xb
 2522 0032 3E       		.uleb128 0x3e
 2523 0033 0B       		.uleb128 0xb
 2524 0034 03       		.uleb128 0x3
 2525 0035 0E       		.uleb128 0xe
 2526 0036 00       		.byte	0
 2527 0037 00       		.byte	0
 2528 0038 05       		.uleb128 0x5
 2529 0039 13       		.uleb128 0x13
 2530 003a 01       		.byte	0x1
 2531 003b 03       		.uleb128 0x3
 2532 003c 0E       		.uleb128 0xe
 2533 003d 0B       		.uleb128 0xb
 2534 003e 0B       		.uleb128 0xb
 2535 003f 3A       		.uleb128 0x3a
 2536 0040 0B       		.uleb128 0xb
 2537 0041 3B       		.uleb128 0x3b
 2538 0042 0B       		.uleb128 0xb
 2539 0043 01       		.uleb128 0x1
 2540 0044 13       		.uleb128 0x13
 2541 0045 00       		.byte	0
 2542 0046 00       		.byte	0
 2543 0047 06       		.uleb128 0x6
 2544 0048 0D       		.uleb128 0xd
 2545 0049 00       		.byte	0
 2546 004a 03       		.uleb128 0x3
 2547 004b 0E       		.uleb128 0xe
 2548 004c 3A       		.uleb128 0x3a
 2549 004d 0B       		.uleb128 0xb
 2550 004e 3B       		.uleb128 0x3b
 2551 004f 0B       		.uleb128 0xb
 2552 0050 49       		.uleb128 0x49
 2553 0051 13       		.uleb128 0x13
 2554 0052 38       		.uleb128 0x38
ARM GAS  C:\Users\RICHRD~1\AppData\Local\Temp\ccSYCwWo.s 			page 46


 2555 0053 0A       		.uleb128 0xa
 2556 0054 00       		.byte	0
 2557 0055 00       		.byte	0
 2558 0056 07       		.uleb128 0x7
 2559 0057 0D       		.uleb128 0xd
 2560 0058 00       		.byte	0
 2561 0059 03       		.uleb128 0x3
 2562 005a 08       		.uleb128 0x8
 2563 005b 3A       		.uleb128 0x3a
 2564 005c 0B       		.uleb128 0xb
 2565 005d 3B       		.uleb128 0x3b
 2566 005e 0B       		.uleb128 0xb
 2567 005f 49       		.uleb128 0x49
 2568 0060 13       		.uleb128 0x13
 2569 0061 38       		.uleb128 0x38
 2570 0062 0A       		.uleb128 0xa
 2571 0063 00       		.byte	0
 2572 0064 00       		.byte	0
 2573 0065 08       		.uleb128 0x8
 2574 0066 13       		.uleb128 0x13
 2575 0067 01       		.byte	0x1
 2576 0068 0B       		.uleb128 0xb
 2577 0069 0B       		.uleb128 0xb
 2578 006a 3A       		.uleb128 0x3a
 2579 006b 0B       		.uleb128 0xb
 2580 006c 3B       		.uleb128 0x3b
 2581 006d 0B       		.uleb128 0xb
 2582 006e 01       		.uleb128 0x1
 2583 006f 13       		.uleb128 0x13
 2584 0070 00       		.byte	0
 2585 0071 00       		.byte	0
 2586 0072 09       		.uleb128 0x9
 2587 0073 0F       		.uleb128 0xf
 2588 0074 00       		.byte	0
 2589 0075 0B       		.uleb128 0xb
 2590 0076 0B       		.uleb128 0xb
 2591 0077 49       		.uleb128 0x49
 2592 0078 13       		.uleb128 0x13
 2593 0079 00       		.byte	0
 2594 007a 00       		.byte	0
 2595 007b 0A       		.uleb128 0xa
 2596 007c 0F       		.uleb128 0xf
 2597 007d 00       		.byte	0
 2598 007e 0B       		.uleb128 0xb
 2599 007f 0B       		.uleb128 0xb
 2600 0080 00       		.byte	0
 2601 0081 00       		.byte	0
 2602 0082 0B       		.uleb128 0xb
 2603 0083 13       		.uleb128 0x13
 2604 0084 01       		.byte	0x1
 2605 0085 03       		.uleb128 0x3
 2606 0086 0E       		.uleb128 0xe
 2607 0087 0B       		.uleb128 0xb
 2608 0088 0B       		.uleb128 0xb
 2609 0089 3A       		.uleb128 0x3a
 2610 008a 0B       		.uleb128 0xb
 2611 008b 3B       		.uleb128 0x3b
ARM GAS  C:\Users\RICHRD~1\AppData\Local\Temp\ccSYCwWo.s 			page 47


 2612 008c 05       		.uleb128 0x5
 2613 008d 01       		.uleb128 0x1
 2614 008e 13       		.uleb128 0x13
 2615 008f 00       		.byte	0
 2616 0090 00       		.byte	0
 2617 0091 0C       		.uleb128 0xc
 2618 0092 0D       		.uleb128 0xd
 2619 0093 00       		.byte	0
 2620 0094 03       		.uleb128 0x3
 2621 0095 08       		.uleb128 0x8
 2622 0096 3A       		.uleb128 0x3a
 2623 0097 0B       		.uleb128 0xb
 2624 0098 3B       		.uleb128 0x3b
 2625 0099 05       		.uleb128 0x5
 2626 009a 49       		.uleb128 0x49
 2627 009b 13       		.uleb128 0x13
 2628 009c 38       		.uleb128 0x38
 2629 009d 0A       		.uleb128 0xa
 2630 009e 00       		.byte	0
 2631 009f 00       		.byte	0
 2632 00a0 0D       		.uleb128 0xd
 2633 00a1 35       		.uleb128 0x35
 2634 00a2 00       		.byte	0
 2635 00a3 49       		.uleb128 0x49
 2636 00a4 13       		.uleb128 0x13
 2637 00a5 00       		.byte	0
 2638 00a6 00       		.byte	0
 2639 00a7 0E       		.uleb128 0xe
 2640 00a8 15       		.uleb128 0x15
 2641 00a9 01       		.byte	0x1
 2642 00aa 27       		.uleb128 0x27
 2643 00ab 0C       		.uleb128 0xc
 2644 00ac 01       		.uleb128 0x1
 2645 00ad 13       		.uleb128 0x13
 2646 00ae 00       		.byte	0
 2647 00af 00       		.byte	0
 2648 00b0 0F       		.uleb128 0xf
 2649 00b1 05       		.uleb128 0x5
 2650 00b2 00       		.byte	0
 2651 00b3 49       		.uleb128 0x49
 2652 00b4 13       		.uleb128 0x13
 2653 00b5 00       		.byte	0
 2654 00b6 00       		.byte	0
 2655 00b7 10       		.uleb128 0x10
 2656 00b8 17       		.uleb128 0x17
 2657 00b9 01       		.byte	0x1
 2658 00ba 0B       		.uleb128 0xb
 2659 00bb 0B       		.uleb128 0xb
 2660 00bc 3A       		.uleb128 0x3a
 2661 00bd 0B       		.uleb128 0xb
 2662 00be 3B       		.uleb128 0x3b
 2663 00bf 0B       		.uleb128 0xb
 2664 00c0 01       		.uleb128 0x1
 2665 00c1 13       		.uleb128 0x13
 2666 00c2 00       		.byte	0
 2667 00c3 00       		.byte	0
 2668 00c4 11       		.uleb128 0x11
ARM GAS  C:\Users\RICHRD~1\AppData\Local\Temp\ccSYCwWo.s 			page 48


 2669 00c5 0D       		.uleb128 0xd
 2670 00c6 00       		.byte	0
 2671 00c7 03       		.uleb128 0x3
 2672 00c8 0E       		.uleb128 0xe
 2673 00c9 3A       		.uleb128 0x3a
 2674 00ca 0B       		.uleb128 0xb
 2675 00cb 3B       		.uleb128 0x3b
 2676 00cc 0B       		.uleb128 0xb
 2677 00cd 49       		.uleb128 0x49
 2678 00ce 13       		.uleb128 0x13
 2679 00cf 00       		.byte	0
 2680 00d0 00       		.byte	0
 2681 00d1 12       		.uleb128 0x12
 2682 00d2 26       		.uleb128 0x26
 2683 00d3 00       		.byte	0
 2684 00d4 49       		.uleb128 0x49
 2685 00d5 13       		.uleb128 0x13
 2686 00d6 00       		.byte	0
 2687 00d7 00       		.byte	0
 2688 00d8 13       		.uleb128 0x13
 2689 00d9 15       		.uleb128 0x15
 2690 00da 01       		.byte	0x1
 2691 00db 27       		.uleb128 0x27
 2692 00dc 0C       		.uleb128 0xc
 2693 00dd 49       		.uleb128 0x49
 2694 00de 13       		.uleb128 0x13
 2695 00df 01       		.uleb128 0x1
 2696 00e0 13       		.uleb128 0x13
 2697 00e1 00       		.byte	0
 2698 00e2 00       		.byte	0
 2699 00e3 14       		.uleb128 0x14
 2700 00e4 13       		.uleb128 0x13
 2701 00e5 01       		.byte	0x1
 2702 00e6 0B       		.uleb128 0xb
 2703 00e7 0B       		.uleb128 0xb
 2704 00e8 3A       		.uleb128 0x3a
 2705 00e9 0B       		.uleb128 0xb
 2706 00ea 3B       		.uleb128 0x3b
 2707 00eb 05       		.uleb128 0x5
 2708 00ec 01       		.uleb128 0x1
 2709 00ed 13       		.uleb128 0x13
 2710 00ee 00       		.byte	0
 2711 00ef 00       		.byte	0
 2712 00f0 15       		.uleb128 0x15
 2713 00f1 0D       		.uleb128 0xd
 2714 00f2 00       		.byte	0
 2715 00f3 03       		.uleb128 0x3
 2716 00f4 0E       		.uleb128 0xe
 2717 00f5 3A       		.uleb128 0x3a
 2718 00f6 0B       		.uleb128 0xb
 2719 00f7 3B       		.uleb128 0x3b
 2720 00f8 05       		.uleb128 0x5
 2721 00f9 49       		.uleb128 0x49
 2722 00fa 13       		.uleb128 0x13
 2723 00fb 38       		.uleb128 0x38
 2724 00fc 0A       		.uleb128 0xa
 2725 00fd 00       		.byte	0
ARM GAS  C:\Users\RICHRD~1\AppData\Local\Temp\ccSYCwWo.s 			page 49


 2726 00fe 00       		.byte	0
 2727 00ff 16       		.uleb128 0x16
 2728 0100 16       		.uleb128 0x16
 2729 0101 00       		.byte	0
 2730 0102 03       		.uleb128 0x3
 2731 0103 0E       		.uleb128 0xe
 2732 0104 3A       		.uleb128 0x3a
 2733 0105 0B       		.uleb128 0xb
 2734 0106 3B       		.uleb128 0x3b
 2735 0107 05       		.uleb128 0x5
 2736 0108 49       		.uleb128 0x49
 2737 0109 13       		.uleb128 0x13
 2738 010a 00       		.byte	0
 2739 010b 00       		.byte	0
 2740 010c 17       		.uleb128 0x17
 2741 010d 0D       		.uleb128 0xd
 2742 010e 00       		.byte	0
 2743 010f 03       		.uleb128 0x3
 2744 0110 08       		.uleb128 0x8
 2745 0111 3A       		.uleb128 0x3a
 2746 0112 0B       		.uleb128 0xb
 2747 0113 3B       		.uleb128 0x3b
 2748 0114 0B       		.uleb128 0xb
 2749 0115 49       		.uleb128 0x49
 2750 0116 13       		.uleb128 0x13
 2751 0117 00       		.byte	0
 2752 0118 00       		.byte	0
 2753 0119 18       		.uleb128 0x18
 2754 011a 04       		.uleb128 0x4
 2755 011b 01       		.byte	0x1
 2756 011c 0B       		.uleb128 0xb
 2757 011d 0B       		.uleb128 0xb
 2758 011e 3A       		.uleb128 0x3a
 2759 011f 0B       		.uleb128 0xb
 2760 0120 3B       		.uleb128 0x3b
 2761 0121 0B       		.uleb128 0xb
 2762 0122 01       		.uleb128 0x1
 2763 0123 13       		.uleb128 0x13
 2764 0124 00       		.byte	0
 2765 0125 00       		.byte	0
 2766 0126 19       		.uleb128 0x19
 2767 0127 28       		.uleb128 0x28
 2768 0128 00       		.byte	0
 2769 0129 03       		.uleb128 0x3
 2770 012a 0E       		.uleb128 0xe
 2771 012b 1C       		.uleb128 0x1c
 2772 012c 0D       		.uleb128 0xd
 2773 012d 00       		.byte	0
 2774 012e 00       		.byte	0
 2775 012f 1A       		.uleb128 0x1a
 2776 0130 01       		.uleb128 0x1
 2777 0131 01       		.byte	0x1
 2778 0132 49       		.uleb128 0x49
 2779 0133 13       		.uleb128 0x13
 2780 0134 01       		.uleb128 0x1
 2781 0135 13       		.uleb128 0x13
 2782 0136 00       		.byte	0
ARM GAS  C:\Users\RICHRD~1\AppData\Local\Temp\ccSYCwWo.s 			page 50


 2783 0137 00       		.byte	0
 2784 0138 1B       		.uleb128 0x1b
 2785 0139 21       		.uleb128 0x21
 2786 013a 00       		.byte	0
 2787 013b 49       		.uleb128 0x49
 2788 013c 13       		.uleb128 0x13
 2789 013d 2F       		.uleb128 0x2f
 2790 013e 0B       		.uleb128 0xb
 2791 013f 00       		.byte	0
 2792 0140 00       		.byte	0
 2793 0141 1C       		.uleb128 0x1c
 2794 0142 2E       		.uleb128 0x2e
 2795 0143 01       		.byte	0x1
 2796 0144 03       		.uleb128 0x3
 2797 0145 0E       		.uleb128 0xe
 2798 0146 3A       		.uleb128 0x3a
 2799 0147 0B       		.uleb128 0xb
 2800 0148 3B       		.uleb128 0x3b
 2801 0149 0B       		.uleb128 0xb
 2802 014a 27       		.uleb128 0x27
 2803 014b 0C       		.uleb128 0xc
 2804 014c 49       		.uleb128 0x49
 2805 014d 13       		.uleb128 0x13
 2806 014e 11       		.uleb128 0x11
 2807 014f 01       		.uleb128 0x1
 2808 0150 12       		.uleb128 0x12
 2809 0151 01       		.uleb128 0x1
 2810 0152 40       		.uleb128 0x40
 2811 0153 06       		.uleb128 0x6
 2812 0154 9742     		.uleb128 0x2117
 2813 0156 0C       		.uleb128 0xc
 2814 0157 01       		.uleb128 0x1
 2815 0158 13       		.uleb128 0x13
 2816 0159 00       		.byte	0
 2817 015a 00       		.byte	0
 2818 015b 1D       		.uleb128 0x1d
 2819 015c 05       		.uleb128 0x5
 2820 015d 00       		.byte	0
 2821 015e 03       		.uleb128 0x3
 2822 015f 08       		.uleb128 0x8
 2823 0160 3A       		.uleb128 0x3a
 2824 0161 0B       		.uleb128 0xb
 2825 0162 3B       		.uleb128 0x3b
 2826 0163 0B       		.uleb128 0xb
 2827 0164 49       		.uleb128 0x49
 2828 0165 13       		.uleb128 0x13
 2829 0166 02       		.uleb128 0x2
 2830 0167 06       		.uleb128 0x6
 2831 0168 00       		.byte	0
 2832 0169 00       		.byte	0
 2833 016a 1E       		.uleb128 0x1e
 2834 016b 34       		.uleb128 0x34
 2835 016c 00       		.byte	0
 2836 016d 03       		.uleb128 0x3
 2837 016e 0E       		.uleb128 0xe
 2838 016f 3A       		.uleb128 0x3a
 2839 0170 0B       		.uleb128 0xb
ARM GAS  C:\Users\RICHRD~1\AppData\Local\Temp\ccSYCwWo.s 			page 51


 2840 0171 3B       		.uleb128 0x3b
 2841 0172 0B       		.uleb128 0xb
 2842 0173 49       		.uleb128 0x49
 2843 0174 13       		.uleb128 0x13
 2844 0175 1C       		.uleb128 0x1c
 2845 0176 0B       		.uleb128 0xb
 2846 0177 00       		.byte	0
 2847 0178 00       		.byte	0
 2848 0179 1F       		.uleb128 0x1f
 2849 017a 34       		.uleb128 0x34
 2850 017b 00       		.byte	0
 2851 017c 03       		.uleb128 0x3
 2852 017d 0E       		.uleb128 0xe
 2853 017e 3A       		.uleb128 0x3a
 2854 017f 0B       		.uleb128 0xb
 2855 0180 3B       		.uleb128 0x3b
 2856 0181 0B       		.uleb128 0xb
 2857 0182 49       		.uleb128 0x49
 2858 0183 13       		.uleb128 0x13
 2859 0184 02       		.uleb128 0x2
 2860 0185 0A       		.uleb128 0xa
 2861 0186 00       		.byte	0
 2862 0187 00       		.byte	0
 2863 0188 20       		.uleb128 0x20
 2864 0189 898201   		.uleb128 0x4109
 2865 018c 01       		.byte	0x1
 2866 018d 11       		.uleb128 0x11
 2867 018e 01       		.uleb128 0x1
 2868 018f 31       		.uleb128 0x31
 2869 0190 13       		.uleb128 0x13
 2870 0191 01       		.uleb128 0x1
 2871 0192 13       		.uleb128 0x13
 2872 0193 00       		.byte	0
 2873 0194 00       		.byte	0
 2874 0195 21       		.uleb128 0x21
 2875 0196 8A8201   		.uleb128 0x410a
 2876 0199 00       		.byte	0
 2877 019a 02       		.uleb128 0x2
 2878 019b 0A       		.uleb128 0xa
 2879 019c 9142     		.uleb128 0x2111
 2880 019e 0A       		.uleb128 0xa
 2881 019f 00       		.byte	0
 2882 01a0 00       		.byte	0
 2883 01a1 22       		.uleb128 0x22
 2884 01a2 898201   		.uleb128 0x4109
 2885 01a5 00       		.byte	0
 2886 01a6 11       		.uleb128 0x11
 2887 01a7 01       		.uleb128 0x1
 2888 01a8 31       		.uleb128 0x31
 2889 01a9 13       		.uleb128 0x13
 2890 01aa 00       		.byte	0
 2891 01ab 00       		.byte	0
 2892 01ac 23       		.uleb128 0x23
 2893 01ad 898201   		.uleb128 0x4109
 2894 01b0 01       		.byte	0x1
 2895 01b1 11       		.uleb128 0x11
 2896 01b2 01       		.uleb128 0x1
ARM GAS  C:\Users\RICHRD~1\AppData\Local\Temp\ccSYCwWo.s 			page 52


 2897 01b3 31       		.uleb128 0x31
 2898 01b4 13       		.uleb128 0x13
 2899 01b5 00       		.byte	0
 2900 01b6 00       		.byte	0
 2901 01b7 24       		.uleb128 0x24
 2902 01b8 2E       		.uleb128 0x2e
 2903 01b9 01       		.byte	0x1
 2904 01ba 3F       		.uleb128 0x3f
 2905 01bb 0C       		.uleb128 0xc
 2906 01bc 03       		.uleb128 0x3
 2907 01bd 0E       		.uleb128 0xe
 2908 01be 3A       		.uleb128 0x3a
 2909 01bf 0B       		.uleb128 0xb
 2910 01c0 3B       		.uleb128 0x3b
 2911 01c1 0B       		.uleb128 0xb
 2912 01c2 27       		.uleb128 0x27
 2913 01c3 0C       		.uleb128 0xc
 2914 01c4 11       		.uleb128 0x11
 2915 01c5 01       		.uleb128 0x1
 2916 01c6 12       		.uleb128 0x12
 2917 01c7 01       		.uleb128 0x1
 2918 01c8 40       		.uleb128 0x40
 2919 01c9 06       		.uleb128 0x6
 2920 01ca 9742     		.uleb128 0x2117
 2921 01cc 0C       		.uleb128 0xc
 2922 01cd 01       		.uleb128 0x1
 2923 01ce 13       		.uleb128 0x13
 2924 01cf 00       		.byte	0
 2925 01d0 00       		.byte	0
 2926 01d1 25       		.uleb128 0x25
 2927 01d2 898201   		.uleb128 0x4109
 2928 01d5 01       		.byte	0x1
 2929 01d6 11       		.uleb128 0x11
 2930 01d7 01       		.uleb128 0x1
 2931 01d8 9542     		.uleb128 0x2115
 2932 01da 0C       		.uleb128 0xc
 2933 01db 31       		.uleb128 0x31
 2934 01dc 13       		.uleb128 0x13
 2935 01dd 00       		.byte	0
 2936 01de 00       		.byte	0
 2937 01df 26       		.uleb128 0x26
 2938 01e0 2E       		.uleb128 0x2e
 2939 01e1 01       		.byte	0x1
 2940 01e2 3F       		.uleb128 0x3f
 2941 01e3 0C       		.uleb128 0xc
 2942 01e4 03       		.uleb128 0x3
 2943 01e5 0E       		.uleb128 0xe
 2944 01e6 3A       		.uleb128 0x3a
 2945 01e7 0B       		.uleb128 0xb
 2946 01e8 3B       		.uleb128 0x3b
 2947 01e9 0B       		.uleb128 0xb
 2948 01ea 27       		.uleb128 0x27
 2949 01eb 0C       		.uleb128 0xc
 2950 01ec 11       		.uleb128 0x11
 2951 01ed 01       		.uleb128 0x1
 2952 01ee 12       		.uleb128 0x12
 2953 01ef 01       		.uleb128 0x1
ARM GAS  C:\Users\RICHRD~1\AppData\Local\Temp\ccSYCwWo.s 			page 53


 2954 01f0 40       		.uleb128 0x40
 2955 01f1 0A       		.uleb128 0xa
 2956 01f2 9742     		.uleb128 0x2117
 2957 01f4 0C       		.uleb128 0xc
 2958 01f5 01       		.uleb128 0x1
 2959 01f6 13       		.uleb128 0x13
 2960 01f7 00       		.byte	0
 2961 01f8 00       		.byte	0
 2962 01f9 27       		.uleb128 0x27
 2963 01fa 2E       		.uleb128 0x2e
 2964 01fb 01       		.byte	0x1
 2965 01fc 3F       		.uleb128 0x3f
 2966 01fd 0C       		.uleb128 0xc
 2967 01fe 03       		.uleb128 0x3
 2968 01ff 0E       		.uleb128 0xe
 2969 0200 3A       		.uleb128 0x3a
 2970 0201 0B       		.uleb128 0xb
 2971 0202 3B       		.uleb128 0x3b
 2972 0203 0B       		.uleb128 0xb
 2973 0204 27       		.uleb128 0x27
 2974 0205 0C       		.uleb128 0xc
 2975 0206 49       		.uleb128 0x49
 2976 0207 13       		.uleb128 0x13
 2977 0208 11       		.uleb128 0x11
 2978 0209 01       		.uleb128 0x1
 2979 020a 12       		.uleb128 0x12
 2980 020b 01       		.uleb128 0x1
 2981 020c 40       		.uleb128 0x40
 2982 020d 06       		.uleb128 0x6
 2983 020e 9742     		.uleb128 0x2117
 2984 0210 0C       		.uleb128 0xc
 2985 0211 01       		.uleb128 0x1
 2986 0212 13       		.uleb128 0x13
 2987 0213 00       		.byte	0
 2988 0214 00       		.byte	0
 2989 0215 28       		.uleb128 0x28
 2990 0216 34       		.uleb128 0x34
 2991 0217 00       		.byte	0
 2992 0218 03       		.uleb128 0x3
 2993 0219 0E       		.uleb128 0xe
 2994 021a 3A       		.uleb128 0x3a
 2995 021b 0B       		.uleb128 0xb
 2996 021c 3B       		.uleb128 0x3b
 2997 021d 0B       		.uleb128 0xb
 2998 021e 49       		.uleb128 0x49
 2999 021f 13       		.uleb128 0x13
 3000 0220 3F       		.uleb128 0x3f
 3001 0221 0C       		.uleb128 0xc
 3002 0222 3C       		.uleb128 0x3c
 3003 0223 0C       		.uleb128 0xc
 3004 0224 00       		.byte	0
 3005 0225 00       		.byte	0
 3006 0226 29       		.uleb128 0x29
 3007 0227 34       		.uleb128 0x34
 3008 0228 00       		.byte	0
 3009 0229 03       		.uleb128 0x3
 3010 022a 0E       		.uleb128 0xe
ARM GAS  C:\Users\RICHRD~1\AppData\Local\Temp\ccSYCwWo.s 			page 54


 3011 022b 3A       		.uleb128 0x3a
 3012 022c 0B       		.uleb128 0xb
 3013 022d 3B       		.uleb128 0x3b
 3014 022e 05       		.uleb128 0x5
 3015 022f 49       		.uleb128 0x49
 3016 0230 13       		.uleb128 0x13
 3017 0231 3F       		.uleb128 0x3f
 3018 0232 0C       		.uleb128 0xc
 3019 0233 3C       		.uleb128 0x3c
 3020 0234 0C       		.uleb128 0xc
 3021 0235 00       		.byte	0
 3022 0236 00       		.byte	0
 3023 0237 2A       		.uleb128 0x2a
 3024 0238 34       		.uleb128 0x34
 3025 0239 00       		.byte	0
 3026 023a 03       		.uleb128 0x3
 3027 023b 08       		.uleb128 0x8
 3028 023c 3A       		.uleb128 0x3a
 3029 023d 0B       		.uleb128 0xb
 3030 023e 3B       		.uleb128 0x3b
 3031 023f 05       		.uleb128 0x5
 3032 0240 49       		.uleb128 0x49
 3033 0241 13       		.uleb128 0x13
 3034 0242 3F       		.uleb128 0x3f
 3035 0243 0C       		.uleb128 0xc
 3036 0244 3C       		.uleb128 0x3c
 3037 0245 0C       		.uleb128 0xc
 3038 0246 00       		.byte	0
 3039 0247 00       		.byte	0
 3040 0248 2B       		.uleb128 0x2b
 3041 0249 34       		.uleb128 0x34
 3042 024a 00       		.byte	0
 3043 024b 03       		.uleb128 0x3
 3044 024c 0E       		.uleb128 0xe
 3045 024d 3A       		.uleb128 0x3a
 3046 024e 0B       		.uleb128 0xb
 3047 024f 3B       		.uleb128 0x3b
 3048 0250 0B       		.uleb128 0xb
 3049 0251 49       		.uleb128 0x49
 3050 0252 13       		.uleb128 0x13
 3051 0253 3F       		.uleb128 0x3f
 3052 0254 0C       		.uleb128 0xc
 3053 0255 02       		.uleb128 0x2
 3054 0256 0A       		.uleb128 0xa
 3055 0257 00       		.byte	0
 3056 0258 00       		.byte	0
 3057 0259 2C       		.uleb128 0x2c
 3058 025a 2E       		.uleb128 0x2e
 3059 025b 01       		.byte	0x1
 3060 025c 3F       		.uleb128 0x3f
 3061 025d 0C       		.uleb128 0xc
 3062 025e 03       		.uleb128 0x3
 3063 025f 0E       		.uleb128 0xe
 3064 0260 3A       		.uleb128 0x3a
 3065 0261 0B       		.uleb128 0xb
 3066 0262 3B       		.uleb128 0x3b
 3067 0263 05       		.uleb128 0x5
ARM GAS  C:\Users\RICHRD~1\AppData\Local\Temp\ccSYCwWo.s 			page 55


 3068 0264 27       		.uleb128 0x27
 3069 0265 0C       		.uleb128 0xc
 3070 0266 3C       		.uleb128 0x3c
 3071 0267 0C       		.uleb128 0xc
 3072 0268 01       		.uleb128 0x1
 3073 0269 13       		.uleb128 0x13
 3074 026a 00       		.byte	0
 3075 026b 00       		.byte	0
 3076 026c 2D       		.uleb128 0x2d
 3077 026d 2E       		.uleb128 0x2e
 3078 026e 00       		.byte	0
 3079 026f 3F       		.uleb128 0x3f
 3080 0270 0C       		.uleb128 0xc
 3081 0271 03       		.uleb128 0x3
 3082 0272 0E       		.uleb128 0xe
 3083 0273 3A       		.uleb128 0x3a
 3084 0274 0B       		.uleb128 0xb
 3085 0275 3B       		.uleb128 0x3b
 3086 0276 0B       		.uleb128 0xb
 3087 0277 27       		.uleb128 0x27
 3088 0278 0C       		.uleb128 0xc
 3089 0279 3C       		.uleb128 0x3c
 3090 027a 0C       		.uleb128 0xc
 3091 027b 00       		.byte	0
 3092 027c 00       		.byte	0
 3093 027d 2E       		.uleb128 0x2e
 3094 027e 2E       		.uleb128 0x2e
 3095 027f 01       		.byte	0x1
 3096 0280 3F       		.uleb128 0x3f
 3097 0281 0C       		.uleb128 0xc
 3098 0282 03       		.uleb128 0x3
 3099 0283 0E       		.uleb128 0xe
 3100 0284 3A       		.uleb128 0x3a
 3101 0285 0B       		.uleb128 0xb
 3102 0286 3B       		.uleb128 0x3b
 3103 0287 0B       		.uleb128 0xb
 3104 0288 27       		.uleb128 0x27
 3105 0289 0C       		.uleb128 0xc
 3106 028a 49       		.uleb128 0x49
 3107 028b 13       		.uleb128 0x13
 3108 028c 3C       		.uleb128 0x3c
 3109 028d 0C       		.uleb128 0xc
 3110 028e 01       		.uleb128 0x1
 3111 028f 13       		.uleb128 0x13
 3112 0290 00       		.byte	0
 3113 0291 00       		.byte	0
 3114 0292 2F       		.uleb128 0x2f
 3115 0293 2E       		.uleb128 0x2e
 3116 0294 00       		.byte	0
 3117 0295 3F       		.uleb128 0x3f
 3118 0296 0C       		.uleb128 0xc
 3119 0297 03       		.uleb128 0x3
 3120 0298 0E       		.uleb128 0xe
 3121 0299 3A       		.uleb128 0x3a
 3122 029a 0B       		.uleb128 0xb
 3123 029b 3B       		.uleb128 0x3b
 3124 029c 05       		.uleb128 0x5
ARM GAS  C:\Users\RICHRD~1\AppData\Local\Temp\ccSYCwWo.s 			page 56


 3125 029d 27       		.uleb128 0x27
 3126 029e 0C       		.uleb128 0xc
 3127 029f 3C       		.uleb128 0x3c
 3128 02a0 0C       		.uleb128 0xc
 3129 02a1 00       		.byte	0
 3130 02a2 00       		.byte	0
 3131 02a3 30       		.uleb128 0x30
 3132 02a4 2E       		.uleb128 0x2e
 3133 02a5 01       		.byte	0x1
 3134 02a6 3F       		.uleb128 0x3f
 3135 02a7 0C       		.uleb128 0xc
 3136 02a8 03       		.uleb128 0x3
 3137 02a9 0E       		.uleb128 0xe
 3138 02aa 3A       		.uleb128 0x3a
 3139 02ab 0B       		.uleb128 0xb
 3140 02ac 3B       		.uleb128 0x3b
 3141 02ad 05       		.uleb128 0x5
 3142 02ae 27       		.uleb128 0x27
 3143 02af 0C       		.uleb128 0xc
 3144 02b0 49       		.uleb128 0x49
 3145 02b1 13       		.uleb128 0x13
 3146 02b2 3C       		.uleb128 0x3c
 3147 02b3 0C       		.uleb128 0xc
 3148 02b4 01       		.uleb128 0x1
 3149 02b5 13       		.uleb128 0x13
 3150 02b6 00       		.byte	0
 3151 02b7 00       		.byte	0
 3152 02b8 31       		.uleb128 0x31
 3153 02b9 2E       		.uleb128 0x2e
 3154 02ba 01       		.byte	0x1
 3155 02bb 3F       		.uleb128 0x3f
 3156 02bc 0C       		.uleb128 0xc
 3157 02bd 03       		.uleb128 0x3
 3158 02be 0E       		.uleb128 0xe
 3159 02bf 3A       		.uleb128 0x3a
 3160 02c0 0B       		.uleb128 0xb
 3161 02c1 3B       		.uleb128 0x3b
 3162 02c2 05       		.uleb128 0x5
 3163 02c3 27       		.uleb128 0x27
 3164 02c4 0C       		.uleb128 0xc
 3165 02c5 49       		.uleb128 0x49
 3166 02c6 13       		.uleb128 0x13
 3167 02c7 3C       		.uleb128 0x3c
 3168 02c8 0C       		.uleb128 0xc
 3169 02c9 00       		.byte	0
 3170 02ca 00       		.byte	0
 3171 02cb 00       		.byte	0
 3172              		.section	.debug_loc,"",%progbits
 3173              	.Ldebug_loc0:
 3174              	.LLST0:
 3175 0000 00000000 		.4byte	.LFB120
 3176 0004 02000000 		.4byte	.LCFI0
 3177 0008 0200     		.2byte	0x2
 3178 000a 7D       		.byte	0x7d
 3179 000b 00       		.sleb128 0
 3180 000c 02000000 		.4byte	.LCFI0
 3181 0010 34000000 		.4byte	.LFE120
ARM GAS  C:\Users\RICHRD~1\AppData\Local\Temp\ccSYCwWo.s 			page 57


 3182 0014 0200     		.2byte	0x2
 3183 0016 7D       		.byte	0x7d
 3184 0017 10       		.sleb128 16
 3185 0018 00000000 		.4byte	0
 3186 001c 00000000 		.4byte	0
 3187              	.LLST1:
 3188 0020 00000000 		.4byte	.LVL0
 3189 0024 06000000 		.4byte	.LVL1
 3190 0028 0100     		.2byte	0x1
 3191 002a 50       		.byte	0x50
 3192 002b 06000000 		.4byte	.LVL1
 3193 002f 34000000 		.4byte	.LFE120
 3194 0033 0400     		.2byte	0x4
 3195 0035 F3       		.byte	0xf3
 3196 0036 01       		.uleb128 0x1
 3197 0037 50       		.byte	0x50
 3198 0038 9F       		.byte	0x9f
 3199 0039 00000000 		.4byte	0
 3200 003d 00000000 		.4byte	0
 3201              	.LLST2:
 3202 0041 00000000 		.4byte	.LFB118
 3203 0045 02000000 		.4byte	.LCFI1
 3204 0049 0200     		.2byte	0x2
 3205 004b 7D       		.byte	0x7d
 3206 004c 00       		.sleb128 0
 3207 004d 02000000 		.4byte	.LCFI1
 3208 0051 3E000000 		.4byte	.LFE118
 3209 0055 0200     		.2byte	0x2
 3210 0057 7D       		.byte	0x7d
 3211 0058 08       		.sleb128 8
 3212 0059 00000000 		.4byte	0
 3213 005d 00000000 		.4byte	0
 3214              	.LLST3:
 3215 0061 00000000 		.4byte	.LFB121
 3216 0065 04000000 		.4byte	.LCFI2
 3217 0069 0200     		.2byte	0x2
 3218 006b 7D       		.byte	0x7d
 3219 006c 00       		.sleb128 0
 3220 006d 04000000 		.4byte	.LCFI2
 3221 0071 4C000000 		.4byte	.LFE121
 3222 0075 0200     		.2byte	0x2
 3223 0077 7D       		.byte	0x7d
 3224 0078 20       		.sleb128 32
 3225 0079 00000000 		.4byte	0
 3226 007d 00000000 		.4byte	0
 3227              	.LLST4:
 3228 0081 00000000 		.4byte	.LVL13
 3229 0085 0A000000 		.4byte	.LVL14
 3230 0089 0100     		.2byte	0x1
 3231 008b 50       		.byte	0x50
 3232 008c 0A000000 		.4byte	.LVL14
 3233 0090 4C000000 		.4byte	.LFE121
 3234 0094 0400     		.2byte	0x4
 3235 0096 F3       		.byte	0xf3
 3236 0097 01       		.uleb128 0x1
 3237 0098 50       		.byte	0x50
 3238 0099 9F       		.byte	0x9f
ARM GAS  C:\Users\RICHRD~1\AppData\Local\Temp\ccSYCwWo.s 			page 58


 3239 009a 00000000 		.4byte	0
 3240 009e 00000000 		.4byte	0
 3241              	.LLST5:
 3242 00a2 00000000 		.4byte	.LFB122
 3243 00a6 02000000 		.4byte	.LCFI3
 3244 00aa 0200     		.2byte	0x2
 3245 00ac 7D       		.byte	0x7d
 3246 00ad 00       		.sleb128 0
 3247 00ae 02000000 		.4byte	.LCFI3
 3248 00b2 04000000 		.4byte	.LCFI4
 3249 00b6 0200     		.2byte	0x2
 3250 00b8 7D       		.byte	0x7d
 3251 00b9 14       		.sleb128 20
 3252 00ba 04000000 		.4byte	.LCFI4
 3253 00be 9C000000 		.4byte	.LFE122
 3254 00c2 0200     		.2byte	0x2
 3255 00c4 7D       		.byte	0x7d
 3256 00c5 20       		.sleb128 32
 3257 00c6 00000000 		.4byte	0
 3258 00ca 00000000 		.4byte	0
 3259              		.section	.debug_aranges,"",%progbits
 3260 0000 3C000000 		.4byte	0x3c
 3261 0004 0200     		.2byte	0x2
 3262 0006 00000000 		.4byte	.Ldebug_info0
 3263 000a 04       		.byte	0x4
 3264 000b 00       		.byte	0
 3265 000c 0000     		.2byte	0
 3266 000e 0000     		.2byte	0
 3267 0010 00000000 		.4byte	.LFB120
 3268 0014 34000000 		.4byte	.LFE120-.LFB120
 3269 0018 00000000 		.4byte	.LFB118
 3270 001c 3E000000 		.4byte	.LFE118-.LFB118
 3271 0020 00000000 		.4byte	.LFB119
 3272 0024 10000000 		.4byte	.LFE119-.LFB119
 3273 0028 00000000 		.4byte	.LFB121
 3274 002c 4C000000 		.4byte	.LFE121-.LFB121
 3275 0030 00000000 		.4byte	.LFB122
 3276 0034 9C000000 		.4byte	.LFE122-.LFB122
 3277 0038 00000000 		.4byte	0
 3278 003c 00000000 		.4byte	0
 3279              		.section	.debug_ranges,"",%progbits
 3280              	.Ldebug_ranges0:
 3281 0000 00000000 		.4byte	.LFB120
 3282 0004 34000000 		.4byte	.LFE120
 3283 0008 00000000 		.4byte	.LFB118
 3284 000c 3E000000 		.4byte	.LFE118
 3285 0010 00000000 		.4byte	.LFB119
 3286 0014 10000000 		.4byte	.LFE119
 3287 0018 00000000 		.4byte	.LFB121
 3288 001c 4C000000 		.4byte	.LFE121
 3289 0020 00000000 		.4byte	.LFB122
 3290 0024 9C000000 		.4byte	.LFE122
 3291 0028 00000000 		.4byte	0
 3292 002c 00000000 		.4byte	0
 3293              		.section	.debug_line,"",%progbits
 3294              	.Ldebug_line0:
 3295 0000 FA030000 		.section	.debug_str,"MS",%progbits,1
ARM GAS  C:\Users\RICHRD~1\AppData\Local\Temp\ccSYCwWo.s 			page 59


 3295      02001E03 
 3295      00000201 
 3295      FB0E0D00 
 3295      01010101 
 3296              	.LASF160:
 3297 0000 63684F51 		.ascii	"chOQPutTimeout\000"
 3297      50757454 
 3297      696D656F 
 3297      757400
 3298              	.LASF84:
 3299 000f 7466756E 		.ascii	"tfunc_t\000"
 3299      635F7400 
 3300              	.LASF140:
 3301 0017 73657269 		.ascii	"serial_init\000"
 3301      616C5F69 
 3301      6E697400 
 3302              	.LASF2:
 3303 0023 73697A65 		.ascii	"size_t\000"
 3303      5F7400
 3304              	.LASF79:
 3305 002a 7264796D 		.ascii	"rdymsg\000"
 3305      736700
 3306              	.LASF13:
 3307 0031 75696E74 		.ascii	"uint64_t\000"
 3307      36345F74 
 3307      00
 3308              	.LASF96:
 3309 003a 4F757470 		.ascii	"OutputQueue\000"
 3309      75745175 
 3309      65756500 
 3310              	.LASF108:
 3311 0046 4F545950 		.ascii	"OTYPER\000"
 3311      455200
 3312              	.LASF148:
 3313 004d 76746C69 		.ascii	"vtlist\000"
 3313      737400
 3314              	.LASF116:
 3315 0054 696F706F 		.ascii	"ioportmask_t\000"
 3315      72746D61 
 3315      736B5F74 
 3315      00
 3316              	.LASF107:
 3317 0061 4D4F4445 		.ascii	"MODER\000"
 3317      5200
 3318              	.LASF14:
 3319 0067 6C6F6E67 		.ascii	"long long unsigned int\000"
 3319      206C6F6E 
 3319      6720756E 
 3319      7369676E 
 3319      65642069 
 3320              	.LASF110:
 3321 007e 50555044 		.ascii	"PUPDR\000"
 3321      5200
 3322              	.LASF80:
 3323 0084 65786974 		.ascii	"exitcode\000"
 3323      636F6465 
 3323      00
ARM GAS  C:\Users\RICHRD~1\AppData\Local\Temp\ccSYCwWo.s 			page 60


 3324              	.LASF150:
 3325 008d 49544D5F 		.ascii	"ITM_RxBuffer\000"
 3325      52784275 
 3325      66666572 
 3325      00
 3326              	.LASF28:
 3327 009a 705F7072 		.ascii	"p_prio\000"
 3327      696F00
 3328              	.LASF137:
 3329 00a1 72656164 		.ascii	"readt\000"
 3329      7400
 3330              	.LASF86:
 3331 00a7 715F7761 		.ascii	"q_waiting\000"
 3331      6974696E 
 3331      6700
 3332              	.LASF12:
 3333 00b1 6C6F6E67 		.ascii	"long long int\000"
 3333      206C6F6E 
 3333      6720696E 
 3333      7400
 3334              	.LASF1:
 3335 00bf 7369676E 		.ascii	"signed char\000"
 3335      65642063 
 3335      68617200 
 3336              	.LASF111:
 3337 00cb 42535252 		.ascii	"BSRR\000"
 3337      00
 3338              	.LASF162:
 3339 00d0 63685379 		.ascii	"chSysInit\000"
 3339      73496E69 
 3339      7400
 3340              	.LASF103:
 3341 00da 47545052 		.ascii	"GTPR\000"
 3341      00
 3342              	.LASF44:
 3343 00df 705F6D70 		.ascii	"p_mpool\000"
 3343      6F6F6C00 
 3344              	.LASF69:
 3345 00e7 6D5F7175 		.ascii	"m_queue\000"
 3345      65756500 
 3346              	.LASF141:
 3347 00ef 73657269 		.ascii	"serial_send\000"
 3347      616C5F73 
 3347      656E6400 
 3348              	.LASF125:
 3349 00fb 73746174 		.ascii	"state\000"
 3349      6500
 3350              	.LASF166:
 3351 0101 7372632F 		.ascii	"src/main.c\000"
 3351      6D61696E 
 3351      2E6300
 3352              	.LASF9:
 3353 010c 6C6F6E67 		.ascii	"long int\000"
 3353      20696E74 
 3353      00
 3354              	.LASF17:
 3355 0115 74737461 		.ascii	"tstate_t\000"
ARM GAS  C:\Users\RICHRD~1\AppData\Local\Temp\ccSYCwWo.s 			page 61


 3355      74655F74 
 3355      00
 3356              	.LASF35:
 3357 011e 705F7265 		.ascii	"p_refs\000"
 3357      667300
 3358              	.LASF88:
 3359 0125 715F6275 		.ascii	"q_buffer\000"
 3359      66666572 
 3359      00
 3360              	.LASF90:
 3361 012e 715F7772 		.ascii	"q_wrptr\000"
 3361      70747200 
 3362              	.LASF93:
 3363 0136 715F6C69 		.ascii	"q_link\000"
 3363      6E6B00
 3364              	.LASF156:
 3365 013d 44533138 		.ascii	"DS18B20_Init\000"
 3365      4232305F 
 3365      496E6974 
 3365      00
 3366              	.LASF30:
 3367 014a 705F6E65 		.ascii	"p_newer\000"
 3367      77657200 
 3368              	.LASF109:
 3369 0152 4F535045 		.ascii	"OSPEEDR\000"
 3369      45445200 
 3370              	.LASF64:
 3371 015a 725F6E65 		.ascii	"r_newer\000"
 3371      77657200 
 3372              	.LASF47:
 3373 0162 72656761 		.ascii	"regarm_t\000"
 3373      726D5F74 
 3373      00
 3374              	.LASF55:
 3375 016b 76745F70 		.ascii	"vt_prev\000"
 3375      72657600 
 3376              	.LASF77:
 3377 0173 4576656E 		.ascii	"EventSource\000"
 3377      74536F75 
 3377      72636500 
 3378              	.LASF128:
 3379 017f 75736172 		.ascii	"usart\000"
 3379      7400
 3380              	.LASF0:
 3381 0185 756E7369 		.ascii	"unsigned int\000"
 3381      676E6564 
 3381      20696E74 
 3381      00
 3382              	.LASF54:
 3383 0192 76745F6E 		.ascii	"vt_next\000"
 3383      65787400 
 3384              	.LASF145:
 3385 019a 74786275 		.ascii	"txbuf\000"
 3385      6600
 3386              	.LASF131:
 3387 01a0 53657269 		.ascii	"SerialDriverVMT\000"
 3387      616C4472 
ARM GAS  C:\Users\RICHRD~1\AppData\Local\Temp\ccSYCwWo.s 			page 62


 3387      69766572 
 3387      564D5400 
 3388              	.LASF37:
 3389 01b0 705F7469 		.ascii	"p_time\000"
 3389      6D6500
 3390              	.LASF126:
 3391 01b7 69717565 		.ascii	"iqueue\000"
 3391      756500
 3392              	.LASF39:
 3393 01be 705F6D73 		.ascii	"p_msgqueue\000"
 3393      67717565 
 3393      756500
 3394              	.LASF115:
 3395 01c9 4750494F 		.ascii	"GPIO_TypeDef\000"
 3395      5F547970 
 3395      65446566 
 3395      00
 3396              	.LASF161:
 3397 01d6 68616C49 		.ascii	"halInit\000"
 3397      6E697400 
 3398              	.LASF135:
 3399 01de 67657474 		.ascii	"gett\000"
 3399      00
 3400              	.LASF53:
 3401 01e3 56697274 		.ascii	"VirtualTimer\000"
 3401      75616C54 
 3401      696D6572 
 3401      00
 3402              	.LASF124:
 3403 01f0 6576656E 		.ascii	"event\000"
 3403      7400
 3404              	.LASF7:
 3405 01f6 73686F72 		.ascii	"short unsigned int\000"
 3405      7420756E 
 3405      7369676E 
 3405      65642069 
 3405      6E7400
 3406              	.LASF21:
 3407 0209 6D73675F 		.ascii	"msg_t\000"
 3407      7400
 3408              	.LASF127:
 3409 020f 6F717565 		.ascii	"oqueue\000"
 3409      756500
 3410              	.LASF159:
 3411 0216 44533138 		.ascii	"DS18B20_GetTemp\000"
 3411      4232305F 
 3411      47657454 
 3411      656D7000 
 3412              	.LASF105:
 3413 0226 55534152 		.ascii	"USART_TypeDef\000"
 3413      545F5479 
 3413      70654465 
 3413      6600
 3414              	.LASF136:
 3415 0234 77726974 		.ascii	"writet\000"
 3415      657400
 3416              	.LASF16:
ARM GAS  C:\Users\RICHRD~1\AppData\Local\Temp\ccSYCwWo.s 			page 63


 3417 023b 746D6F64 		.ascii	"tmode_t\000"
 3417      655F7400 
 3418              	.LASF6:
 3419 0243 75696E74 		.ascii	"uint16_t\000"
 3419      31365F74 
 3419      00
 3420              	.LASF46:
 3421 024c 54687265 		.ascii	"ThreadsList\000"
 3421      6164734C 
 3421      69737400 
 3422              	.LASF22:
 3423 0258 6576656E 		.ascii	"eventmask_t\000"
 3423      746D6173 
 3423      6B5F7400 
 3424              	.LASF95:
 3425 0264 496E7075 		.ascii	"InputQueue\000"
 3425      74517565 
 3425      756500
 3426              	.LASF129:
 3427 026f 73706565 		.ascii	"speed\000"
 3427      6400
 3428              	.LASF94:
 3429 0275 716E6F74 		.ascii	"qnotify_t\000"
 3429      6966795F 
 3429      7400
 3430              	.LASF85:
 3431 027f 47656E65 		.ascii	"GenericQueue\000"
 3431      72696351 
 3431      75657565 
 3431      00
 3432              	.LASF48:
 3433 028c 73746B61 		.ascii	"stkalign_t\000"
 3433      6C69676E 
 3433      5F7400
 3434              	.LASF143:
 3435 0297 54687265 		.ascii	"Thread1\000"
 3435      61643100 
 3436              	.LASF164:
 3437 029f 63685468 		.ascii	"chThdCreateStatic\000"
 3437      64437265 
 3437      61746553 
 3437      74617469 
 3437      6300
 3438              	.LASF132:
 3439 02b1 77726974 		.ascii	"write\000"
 3439      6500
 3440              	.LASF134:
 3441 02b7 70757474 		.ascii	"putt\000"
 3441      00
 3442              	.LASF56:
 3443 02bc 76745F74 		.ascii	"vt_time\000"
 3443      696D6500 
 3444              	.LASF38:
 3445 02c4 705F7761 		.ascii	"p_waiting\000"
 3445      6974696E 
 3445      6700
 3446              	.LASF51:
ARM GAS  C:\Users\RICHRD~1\AppData\Local\Temp\ccSYCwWo.s 			page 64


 3447 02ce 73697A65 		.ascii	"sizetype\000"
 3447      74797065 
 3447      00
 3448              	.LASF146:
 3449 02d7 77615F64 		.ascii	"wa_ds18b20_polling\000"
 3449      73313862 
 3449      32305F70 
 3449      6F6C6C69 
 3449      6E6700
 3450              	.LASF106:
 3451 02ea 636C6561 		.ascii	"clear\000"
 3451      7200
 3452              	.LASF68:
 3453 02f0 4D757465 		.ascii	"Mutex\000"
 3453      7800
 3454              	.LASF138:
 3455 02f6 7365636F 		.ascii	"seconds\000"
 3455      6E647300 
 3456              	.LASF165:
 3457 02fe 474E5520 		.ascii	"GNU C 4.7.4 20140401 (release) [ARM/embedded-4_7-br"
 3457      4320342E 
 3457      372E3420 
 3457      32303134 
 3457      30343031 
 3458 0331 616E6368 		.ascii	"anch revision 209195]\000"
 3458      20726576 
 3458      6973696F 
 3458      6E203230 
 3458      39313935 
 3459              	.LASF31:
 3460 0347 705F6F6C 		.ascii	"p_older\000"
 3460      64657200 
 3461              	.LASF63:
 3462 034f 725F6374 		.ascii	"r_ctx\000"
 3462      7800
 3463              	.LASF45:
 3464 0355 54687265 		.ascii	"ThreadsQueue\000"
 3464      61647351 
 3464      75657565 
 3464      00
 3465              	.LASF139:
 3466 0362 74696D65 		.ascii	"time\000"
 3466      00
 3467              	.LASF66:
 3468 0367 725F6375 		.ascii	"r_current\000"
 3468      7272656E 
 3468      7400
 3469              	.LASF65:
 3470 0371 725F6F6C 		.ascii	"r_older\000"
 3470      64657200 
 3471              	.LASF75:
 3472 0379 656C5F6D 		.ascii	"el_mask\000"
 3472      61736B00 
 3473              	.LASF154:
 3474 0381 63685468 		.ascii	"chThdSleepUntil\000"
 3474      64536C65 
 3474      6570556E 
ARM GAS  C:\Users\RICHRD~1\AppData\Local\Temp\ccSYCwWo.s 			page 65


 3474      74696C00 
 3475              	.LASF153:
 3476 0391 63685468 		.ascii	"chThdSleep\000"
 3476      64536C65 
 3476      657000
 3477              	.LASF130:
 3478 039c 53657269 		.ascii	"SerialConfig\000"
 3478      616C436F 
 3478      6E666967 
 3478      00
 3479              	.LASF114:
 3480 03a9 41465248 		.ascii	"AFRH\000"
 3480      00
 3481              	.LASF152:
 3482 03ae 666C6F61 		.ascii	"float\000"
 3482      7400
 3483              	.LASF113:
 3484 03b4 4146524C 		.ascii	"AFRL\000"
 3484      00
 3485              	.LASF147:
 3486 03b9 77615468 		.ascii	"waThread1\000"
 3486      72656164 
 3486      3100
 3487              	.LASF163:
 3488 03c3 63616E5F 		.ascii	"can_commInit\000"
 3488      636F6D6D 
 3488      496E6974 
 3488      00
 3489              	.LASF18:
 3490 03d0 74726566 		.ascii	"trefs_t\000"
 3490      735F7400 
 3491              	.LASF97:
 3492 03d8 52455345 		.ascii	"RESERVED0\000"
 3492      52564544 
 3492      3000
 3493              	.LASF98:
 3494 03e2 52455345 		.ascii	"RESERVED1\000"
 3494      52564544 
 3494      3100
 3495              	.LASF99:
 3496 03ec 52455345 		.ascii	"RESERVED2\000"
 3496      52564544 
 3496      3200
 3497              	.LASF100:
 3498 03f6 52455345 		.ascii	"RESERVED3\000"
 3498      52564544 
 3498      3300
 3499              	.LASF101:
 3500 0400 52455345 		.ascii	"RESERVED4\000"
 3500      52564544 
 3500      3400
 3501              	.LASF27:
 3502 040a 705F7072 		.ascii	"p_prev\000"
 3502      657600
 3503              	.LASF104:
 3504 0411 52455345 		.ascii	"RESERVED6\000"
 3504      52564544 
ARM GAS  C:\Users\RICHRD~1\AppData\Local\Temp\ccSYCwWo.s 			page 66


 3504      3600
 3505              	.LASF20:
 3506 041b 74707269 		.ascii	"tprio_t\000"
 3506      6F5F7400 
 3507              	.LASF91:
 3508 0423 715F7264 		.ascii	"q_rdptr\000"
 3508      70747200 
 3509              	.LASF15:
 3510 042b 5F426F6F 		.ascii	"_Bool\000"
 3510      6C00
 3511              	.LASF8:
 3512 0431 696E7433 		.ascii	"int32_t\000"
 3512      325F7400 
 3513              	.LASF4:
 3514 0439 756E7369 		.ascii	"unsigned char\000"
 3514      676E6564 
 3514      20636861 
 3514      7200
 3515              	.LASF151:
 3516 0447 63757272 		.ascii	"currentTemp\000"
 3516      656E7454 
 3516      656D7000 
 3517              	.LASF74:
 3518 0453 656C5F6C 		.ascii	"el_listener\000"
 3518      69737465 
 3518      6E657200 
 3519              	.LASF76:
 3520 045f 656C5F66 		.ascii	"el_flags\000"
 3520      6C616773 
 3520      00
 3521              	.LASF42:
 3522 0468 705F6D74 		.ascii	"p_mtxlist\000"
 3522      786C6973 
 3522      7400
 3523              	.LASF5:
 3524 0472 73686F72 		.ascii	"short int\000"
 3524      7420696E 
 3524      7400
 3525              	.LASF33:
 3526 047c 705F7374 		.ascii	"p_state\000"
 3526      61746500 
 3527              	.LASF36:
 3528 0484 705F7072 		.ascii	"p_preempt\000"
 3528      65656D70 
 3528      7400
 3529              	.LASF62:
 3530 048e 725F7072 		.ascii	"r_prio\000"
 3530      696F00
 3531              	.LASF82:
 3532 0495 65776D61 		.ascii	"ewmask\000"
 3532      736B00
 3533              	.LASF26:
 3534 049c 705F6E65 		.ascii	"p_next\000"
 3534      787400
 3535              	.LASF34:
 3536 04a3 705F666C 		.ascii	"p_flags\000"
 3536      61677300 
ARM GAS  C:\Users\RICHRD~1\AppData\Local\Temp\ccSYCwWo.s 			page 67


 3537              	.LASF73:
 3538 04ab 656C5F6E 		.ascii	"el_next\000"
 3538      65787400 
 3539              	.LASF120:
 3540 04b3 53445F53 		.ascii	"SD_STOP\000"
 3540      544F5000 
 3541              	.LASF25:
 3542 04bb 54687265 		.ascii	"Thread\000"
 3542      616400
 3543              	.LASF112:
 3544 04c2 4C434B52 		.ascii	"LCKR\000"
 3544      00
 3545              	.LASF23:
 3546 04c7 666C6167 		.ascii	"flagsmask_t\000"
 3546      736D6173 
 3546      6B5F7400 
 3547              	.LASF41:
 3548 04d3 705F6570 		.ascii	"p_epending\000"
 3548      656E6469 
 3548      6E6700
 3549              	.LASF119:
 3550 04de 53445F55 		.ascii	"SD_UNINIT\000"
 3550      4E494E49 
 3550      5400
 3551              	.LASF102:
 3552 04e8 52455345 		.ascii	"RESERVED5\000"
 3552      52564544 
 3552      3500
 3553              	.LASF87:
 3554 04f2 715F636F 		.ascii	"q_counter\000"
 3554      756E7465 
 3554      7200
 3555              	.LASF61:
 3556 04fc 725F7175 		.ascii	"r_queue\000"
 3556      65756500 
 3557              	.LASF122:
 3558 0504 73647374 		.ascii	"sdstate_t\000"
 3558      6174655F 
 3558      7400
 3559              	.LASF144:
 3560 050e 75617274 		.ascii	"uartCfg\000"
 3560      43666700 
 3561              	.LASF123:
 3562 0516 53657269 		.ascii	"SerialDriver\000"
 3562      616C4472 
 3562      69766572 
 3562      00
 3563              	.LASF19:
 3564 0523 74736C69 		.ascii	"tslices_t\000"
 3564      6365735F 
 3564      7400
 3565              	.LASF11:
 3566 052d 6C6F6E67 		.ascii	"long unsigned int\000"
 3566      20756E73 
 3566      69676E65 
 3566      6420696E 
 3566      7400
ARM GAS  C:\Users\RICHRD~1\AppData\Local\Temp\ccSYCwWo.s 			page 68


 3567              	.LASF133:
 3568 053f 72656164 		.ascii	"read\000"
 3568      00
 3569              	.LASF83:
 3570 0544 63686172 		.ascii	"char\000"
 3570      00
 3571              	.LASF158:
 3572 0549 73645374 		.ascii	"sdStart\000"
 3572      61727400 
 3573              	.LASF71:
 3574 0551 6D5F6E65 		.ascii	"m_next\000"
 3574      787400
 3575              	.LASF24:
 3576 0558 73797374 		.ascii	"systime_t\000"
 3576      696D655F 
 3576      7400
 3577              	.LASF43:
 3578 0562 705F7265 		.ascii	"p_realprio\000"
 3578      616C7072 
 3578      696F00
 3579              	.LASF52:
 3580 056d 76746675 		.ascii	"vtfunc_t\000"
 3580      6E635F74 
 3580      00
 3581              	.LASF118:
 3582 0576 696F706F 		.ascii	"ioportid_t\000"
 3582      72746964 
 3582      5F7400
 3583              	.LASF50:
 3584 0581 636F6E74 		.ascii	"context\000"
 3584      65787400 
 3585              	.LASF155:
 3586 0589 5F70616C 		.ascii	"_pal_lld_setgroupmode\000"
 3586      5F6C6C64 
 3586      5F736574 
 3586      67726F75 
 3586      706D6F64 
 3587              	.LASF49:
 3588 059f 696E7463 		.ascii	"intctx\000"
 3588      747800
 3589              	.LASF121:
 3590 05a6 53445F52 		.ascii	"SD_READY\000"
 3590      45414459 
 3590      00
 3591              	.LASF58:
 3592 05af 76745F70 		.ascii	"vt_par\000"
 3592      617200
 3593              	.LASF10:
 3594 05b6 75696E74 		.ascii	"uint32_t\000"
 3594      33325F74 
 3594      00
 3595              	.LASF89:
 3596 05bf 715F746F 		.ascii	"q_top\000"
 3596      7000
 3597              	.LASF32:
 3598 05c5 705F6E61 		.ascii	"p_name\000"
 3598      6D6500
ARM GAS  C:\Users\RICHRD~1\AppData\Local\Temp\ccSYCwWo.s 			page 69


 3599              	.LASF78:
 3600 05cc 65735F6E 		.ascii	"es_next\000"
 3600      65787400 
 3601              	.LASF67:
 3602 05d4 52656164 		.ascii	"ReadyList\000"
 3602      794C6973 
 3602      7400
 3603              	.LASF92:
 3604 05de 715F6E6F 		.ascii	"q_notify\000"
 3604      74696679 
 3604      00
 3605              	.LASF149:
 3606 05e7 726C6973 		.ascii	"rlist\000"
 3606      7400
 3607              	.LASF3:
 3608 05ed 75696E74 		.ascii	"uint8_t\000"
 3608      385F7400 
 3609              	.LASF72:
 3610 05f5 4576656E 		.ascii	"EventListener\000"
 3610      744C6973 
 3610      74656E65 
 3610      7200
 3611              	.LASF81:
 3612 0603 77746F62 		.ascii	"wtobjp\000"
 3612      6A7000
 3613              	.LASF59:
 3614 060a 76745F73 		.ascii	"vt_systime\000"
 3614      79737469 
 3614      6D6500
 3615              	.LASF142:
 3616 0615 64733138 		.ascii	"ds18b20_polling_thread\000"
 3616      6232305F 
 3616      706F6C6C 
 3616      696E675F 
 3616      74687265 
 3617              	.LASF40:
 3618 062c 705F6D73 		.ascii	"p_msg\000"
 3618      6700
 3619              	.LASF60:
 3620 0632 56544C69 		.ascii	"VTList\000"
 3620      737400
 3621              	.LASF157:
 3622 0639 7364496E 		.ascii	"sdInit\000"
 3622      697400
 3623              	.LASF168:
 3624 0640 6D61696E 		.ascii	"main\000"
 3624      00
 3625              	.LASF117:
 3626 0645 696F6D6F 		.ascii	"iomode_t\000"
 3626      64655F74 
 3626      00
 3627              	.LASF70:
 3628 064e 6D5F6F77 		.ascii	"m_owner\000"
 3628      6E657200 
 3629              	.LASF167:
 3630 0656 433A5C55 		.ascii	"C:\\Users\\Rich\341rd\\git\\Modulux\\modulux\\firmw"
 3630      73657273 
ARM GAS  C:\Users\RICHRD~1\AppData\Local\Temp\ccSYCwWo.s 			page 70


 3630      5C526963 
 3630      68E17264 
 3630      5C676974 
 3631 0680 61726500 		.ascii	"are\000"
 3632              	.LASF29:
 3633 0684 705F6374 		.ascii	"p_ctx\000"
 3633      7800
 3634              	.LASF57:
 3635 068a 76745F66 		.ascii	"vt_func\000"
 3635      756E6300 
 3636              		.ident	"GCC: (GNU Tools for ARM Embedded Processors) 4.7.4 20140401 (release) [ARM/embedded-4_7-br
ARM GAS  C:\Users\RICHRD~1\AppData\Local\Temp\ccSYCwWo.s 			page 71


DEFINED SYMBOLS
                            *ABS*:00000000 main.c
C:\Users\RICHRD~1\AppData\Local\Temp\ccSYCwWo.s:19     .text.ds18b20_polling_thread:00000000 $t
C:\Users\RICHRD~1\AppData\Local\Temp\ccSYCwWo.s:24     .text.ds18b20_polling_thread:00000000 ds18b20_polling_thread
C:\Users\RICHRD~1\AppData\Local\Temp\ccSYCwWo.s:73     .text.ds18b20_polling_thread:0000002c $d
C:\Users\RICHRD~1\AppData\Local\Temp\ccSYCwWo.s:79     .text.serial_init:00000000 $t
C:\Users\RICHRD~1\AppData\Local\Temp\ccSYCwWo.s:85     .text.serial_init:00000000 serial_init
C:\Users\RICHRD~1\AppData\Local\Temp\ccSYCwWo.s:368    .data.uartCfg:00000000 .LANCHOR1
C:\Users\RICHRD~1\AppData\Local\Temp\ccSYCwWo.s:127    .text.serial_send:00000000 $t
C:\Users\RICHRD~1\AppData\Local\Temp\ccSYCwWo.s:133    .text.serial_send:00000000 serial_send
C:\Users\RICHRD~1\AppData\Local\Temp\ccSYCwWo.s:151    .text.serial_send:0000000c $d
C:\Users\RICHRD~1\AppData\Local\Temp\ccSYCwWo.s:156    .text.Thread1:00000000 $t
C:\Users\RICHRD~1\AppData\Local\Temp\ccSYCwWo.s:161    .text.Thread1:00000000 Thread1
C:\Users\RICHRD~1\AppData\Local\Temp\ccSYCwWo.s:226    .text.Thread1:00000044 $d
C:\Users\RICHRD~1\AppData\Local\Temp\ccSYCwWo.s:232    .text.startup.main:00000000 $t
C:\Users\RICHRD~1\AppData\Local\Temp\ccSYCwWo.s:238    .text.startup.main:00000000 main
C:\Users\RICHRD~1\AppData\Local\Temp\ccSYCwWo.s:344    .text.startup.main:0000008c $d
C:\Users\RICHRD~1\AppData\Local\Temp\ccSYCwWo.s:364    .bss.currentTemp:00000000 currentTemp
C:\Users\RICHRD~1\AppData\Local\Temp\ccSYCwWo.s:353    .bss.waThread1:00000000 $d
C:\Users\RICHRD~1\AppData\Local\Temp\ccSYCwWo.s:357    .bss.waThread1:00000000 waThread1
C:\Users\RICHRD~1\AppData\Local\Temp\ccSYCwWo.s:360    .bss.currentTemp:00000000 $d
C:\Users\RICHRD~1\AppData\Local\Temp\ccSYCwWo.s:367    .data.uartCfg:00000000 $d
C:\Users\RICHRD~1\AppData\Local\Temp\ccSYCwWo.s:371    .data.uartCfg:00000000 uartCfg
C:\Users\RICHRD~1\AppData\Local\Temp\ccSYCwWo.s:378    .rodata.str1.4:00000000 $d
C:\Users\RICHRD~1\AppData\Local\Temp\ccSYCwWo.s:382    .bss.wa_ds18b20_polling:00000000 $d
C:\Users\RICHRD~1\AppData\Local\Temp\ccSYCwWo.s:386    .bss.wa_ds18b20_polling:00000000 wa_ds18b20_polling
                     .debug_frame:00000010 $d
C:\Users\RICHRD~1\AppData\Local\Temp\ccSYCwWo.s:78     .text.ds18b20_polling_thread:00000034 $t
C:\Users\RICHRD~1\AppData\Local\Temp\ccSYCwWo.s:231    .text.Thread1:0000004c $t
C:\Users\RICHRD~1\AppData\Local\Temp\ccSYCwWo.s:352    .text.startup.main:0000009c $t

UNDEFINED SYMBOLS
chThdSleep
DS18B20_Init
DS18B20_GetTemp
chThdSleepUntil
vtlist
_pal_lld_setgroupmode
sdInit
SD1
sdStart
chOQPutTimeout
rlist
halInit
chSysInit
can_commInit
chThdCreateStatic
