ARM GAS  C:\Users\DNIEL~1\AppData\Local\Temp\ccXiW4Ag.s 			page 1


   1              		.syntax unified
   2              		.cpu cortex-m3
   3              		.fpu softvfp
   4              		.eabi_attribute 20, 1
   5              		.eabi_attribute 21, 1
   6              		.eabi_attribute 23, 3
   7              		.eabi_attribute 24, 1
   8              		.eabi_attribute 25, 1
   9              		.eabi_attribute 26, 1
  10              		.eabi_attribute 30, 2
  11              		.eabi_attribute 18, 4
  12              		.thumb
  13              		.file	"main.c"
  14              		.section	.debug_abbrev,"",%progbits
  15              	.Ldebug_abbrev0:
  16              		.section	.debug_info,"",%progbits
  17              	.Ldebug_info0:
  18              		.section	.debug_line,"",%progbits
  19              	.Ldebug_line0:
  20 0000 7C020000 		.text
  20      0200CA01 
  20      00000201 
  20      FB0E0D00 
  20      01010101 
  21              	.Ltext0:
  22              		.cfi_sections	.debug_frame
  23              		.section	.text.Thread1,"ax",%progbits
  24              		.align	2
  25              		.p2align 4,,15
  26              		.thumb
  27              		.thumb_func
  28              		.type	Thread1, %function
  29              	Thread1:
  30              	.LFB118:
  31              		.file 1 "src/main.c"
  32              		.loc 1 23 0
  33              		.cfi_startproc
  34              		@ args = 0, pretend = 0, frame = 0
  35              		@ frame_needed = 0, uses_anonymous_args = 0
  36              	.LVL0:
  37              		.loc 1 28 0
  38 0000 0D48     		ldr	r0, .L4
  39              	.LVL1:
  40              		.loc 1 23 0
  41 0002 38B5     		push	{r3, r4, r5, lr}
  42              	.LCFI0:
  43              		.cfi_def_cfa_offset 16
  44              		.loc 1 28 0
  45 0004 0D4A     		ldr	r2, .L4+4
  46 0006 8369     		ldr	r3, [r0, #24]
  47              		.cfi_offset 14, -4
  48              		.cfi_offset 5, -8
  49              		.cfi_offset 4, -12
  50              		.cfi_offset 3, -16
  51              		.loc 1 31 0
  52 0008 0D4D     		ldr	r5, .L4+8
  53              		.loc 1 32 0
ARM GAS  C:\Users\DNIEL~1\AppData\Local\Temp\ccXiW4Ag.s 			page 2


  54 000a 0E4C     		ldr	r4, .L4+12
  55              		.loc 1 28 0
  56 000c 9A61     		str	r2, [r3, #24]
  57              	.L2:
  58              	.LVL2:
  59              		.loc 1 31 0 discriminator 1
  60 000e 0423     		movs	r3, #4
  61              		.loc 1 32 0 discriminator 1
  62 0010 4022     		movs	r2, #64
  63              		.loc 1 33 0 discriminator 1
  64 0012 8021     		movs	r1, #128
  65              		.loc 1 31 0 discriminator 1
  66 0014 6B83     		strh	r3, [r5, #26]	@ movhi
  67              		.loc 1 34 0 discriminator 1
  68 0016 4FF4FA70 		mov	r0, #500
  69              		.loc 1 32 0 discriminator 1
  70 001a 6283     		strh	r2, [r4, #26]	@ movhi
  71              		.loc 1 33 0 discriminator 1
  72 001c 6183     		strh	r1, [r4, #26]	@ movhi
  73              		.loc 1 34 0 discriminator 1
  74 001e FFF7FEFF 		bl	chThdSleep
  75              		.loc 1 35 0 discriminator 1
  76 0022 0423     		movs	r3, #4
  77              		.loc 1 36 0 discriminator 1
  78 0024 4022     		movs	r2, #64
  79              		.loc 1 37 0 discriminator 1
  80 0026 8021     		movs	r1, #128
  81              		.loc 1 35 0 discriminator 1
  82 0028 2B83     		strh	r3, [r5, #24]	@ movhi
  83              		.loc 1 38 0 discriminator 1
  84 002a 4FF4FA70 		mov	r0, #500
  85              		.loc 1 36 0 discriminator 1
  86 002e 2283     		strh	r2, [r4, #24]	@ movhi
  87              		.loc 1 37 0 discriminator 1
  88 0030 2183     		strh	r1, [r4, #24]	@ movhi
  89              		.loc 1 38 0 discriminator 1
  90 0032 FFF7FEFF 		bl	chThdSleep
  91 0036 EAE7     		b	.L2
  92              	.L5:
  93              		.align	2
  94              	.L4:
  95 0038 00000000 		.word	rlist
  96 003c 00000000 		.word	.LC0
  97 0040 00100240 		.word	1073876992
  98 0044 00040240 		.word	1073873920
  99              		.cfi_endproc
 100              	.LFE118:
 101              		.size	Thread1, .-Thread1
 102 0048 AFF30080 		.section	.text.task20ms,"ax",%progbits
 102      AFF30080 
 103              		.align	2
 104              		.p2align 4,,15
 105              		.thumb
 106              		.thumb_func
 107              		.type	task20ms, %function
 108              	task20ms:
 109              	.LFB119:
ARM GAS  C:\Users\DNIEL~1\AppData\Local\Temp\ccXiW4Ag.s 			page 3


 110              		.loc 1 46 0
 111              		.cfi_startproc
 112              		@ args = 0, pretend = 0, frame = 0
 113              		@ frame_needed = 0, uses_anonymous_args = 0
 114              	.LVL3:
 115              		.loc 1 50 0
 116 0000 0549     		ldr	r1, .L8
 117              		.loc 1 51 0
 118 0002 0648     		ldr	r0, .L8+4
 119              	.LVL4:
 120              		.loc 1 50 0
 121 0004 8B69     		ldr	r3, [r1, #24]
 122 0006 064A     		ldr	r2, .L8+8
 123              		.loc 1 46 0
 124 0008 10B5     		push	{r4, lr}
 125              	.LCFI1:
 126              		.cfi_def_cfa_offset 8
 127              		.loc 1 51 0
 128 000a C468     		ldr	r4, [r0, #12]
 129              		.cfi_offset 14, -4
 130              		.cfi_offset 4, -8
 131              		.loc 1 50 0
 132 000c 9A61     		str	r2, [r3, #24]
 133              	.LVL5:
 134              	.L7:
 135              		.loc 1 53 0 discriminator 1
 136 000e 1434     		adds	r4, r4, #20
 137              	.LVL6:
 138              		.loc 1 57 0 discriminator 1
 139 0010 2046     		mov	r0, r4
 140 0012 FFF7FEFF 		bl	chThdSleepUntil
 141 0016 FAE7     		b	.L7
 142              	.L9:
 143              		.align	2
 144              	.L8:
 145 0018 00000000 		.word	rlist
 146 001c 00000000 		.word	vtlist
 147 0020 08000000 		.word	.LC1
 148              		.cfi_endproc
 149              	.LFE119:
 150              		.size	task20ms, .-task20ms
 151 0024 AFF30080 		.section	.text.main,"ax",%progbits
 151      AFF30080 
 151      AFF30080 
 152              		.align	2
 153              		.p2align 4,,15
 154              		.global	main
 155              		.thumb
 156              		.thumb_func
 157              		.type	main, %function
 158              	main:
 159              	.LFB120:
 160              		.loc 1 64 0
 161              		.cfi_startproc
 162              		@ args = 0, pretend = 0, frame = 0
 163              		@ frame_needed = 0, uses_anonymous_args = 0
 164 0000 70B5     		push	{r4, r5, r6, lr}
ARM GAS  C:\Users\DNIEL~1\AppData\Local\Temp\ccXiW4Ag.s 			page 4


 165              	.LCFI2:
 166              		.cfi_def_cfa_offset 16
 167              		.loc 1 77 0
 168 0002 0F4D     		ldr	r5, .L12
 169              		.cfi_offset 14, -4
 170              		.cfi_offset 6, -8
 171              		.cfi_offset 5, -12
 172              		.cfi_offset 4, -16
 173              		.loc 1 64 0
 174 0004 82B0     		sub	sp, sp, #8
 175              	.LCFI3:
 176              		.cfi_def_cfa_offset 24
 177              		.loc 1 77 0
 178 0006 1026     		movs	r6, #16
 179              		.loc 1 73 0
 180 0008 FFF7FEFF 		bl	halInit
 181              		.loc 1 82 0
 182 000c 0024     		movs	r4, #0
 183              		.loc 1 74 0
 184 000e FFF7FEFF 		bl	chSysInit
 185              		.loc 1 82 0
 186 0012 4FF4D871 		mov	r1, #432
 187 0016 4022     		movs	r2, #64
 188 0018 0A4B     		ldr	r3, .L12+4
 189              		.loc 1 77 0
 190 001a 2E83     		strh	r6, [r5, #24]	@ movhi
 191              		.loc 1 82 0
 192 001c 0A48     		ldr	r0, .L12+8
 193 001e 0094     		str	r4, [sp, #0]
 194 0020 FFF7FEFF 		bl	chThdCreateStatic
 195              		.loc 1 87 0
 196 0024 0948     		ldr	r0, .L12+12
 197 0026 4FF49871 		mov	r1, #304
 198 002a 4022     		movs	r2, #64
 199 002c 084B     		ldr	r3, .L12+16
 200 002e 0094     		str	r4, [sp, #0]
 201 0030 FFF7FEFF 		bl	chThdCreateStatic
 202              	.L11:
 203              		.loc 1 94 0 discriminator 1
 204 0034 4FF47A70 		mov	r0, #1000
 205 0038 FFF7FEFF 		bl	chThdSleep
 206 003c FAE7     		b	.L11
 207              	.L13:
 208 003e 00BF     		.align	2
 209              	.L12:
 210 0040 000C0240 		.word	1073875968
 211 0044 00000000 		.word	task20ms
 212 0048 00000000 		.word	.LANCHOR0
 213 004c 00000000 		.word	.LANCHOR1
 214 0050 00000000 		.word	Thread1
 215              		.cfi_endproc
 216              	.LFE120:
 217              		.size	main, .-main
 218 0054 AFF30080 		.section	.bss.waThread1,"aw",%nobits
 218      AFF30080 
 218      AFF30080 
 219              		.align	3
ARM GAS  C:\Users\DNIEL~1\AppData\Local\Temp\ccXiW4Ag.s 			page 5


 220              		.set	.LANCHOR1,. + 0
 221              		.type	waThread1, %object
 222              		.size	waThread1, 304
 223              	waThread1:
 224 0000 00000000 		.space	304
 224      00000000 
 224      00000000 
 224      00000000 
 224      00000000 
 225              		.section	.bss.watask20ms,"aw",%nobits
 226              		.align	3
 227              		.set	.LANCHOR0,. + 0
 228              		.type	watask20ms, %object
 229              		.size	watask20ms, 432
 230              	watask20ms:
 231 0000 00000000 		.space	432
 231      00000000 
 231      00000000 
 231      00000000 
 231      00000000 
 232              		.section	.rodata.str1.4,"aMS",%progbits,1
 233              		.align	2
 234              	.LC0:
 235 0000 626C696E 		.ascii	"blinker\000"
 235      6B657200 
 236              	.LC1:
 237 0008 7461736B 		.ascii	"task20ms\000"
 237      32306D73 
 237      00
 238 0011 000000   		.text
 239              	.Letext0:
 240              		.section	.debug_loc,"",%progbits
 241              	.Ldebug_loc0:
 242              	.LLST0:
 243 0000 00000000 		.4byte	.LFB118
 244 0004 04000000 		.4byte	.LCFI0
 245 0008 0200     		.2byte	0x2
 246 000a 7D       		.byte	0x7d
 247 000b 00       		.sleb128 0
 248 000c 04000000 		.4byte	.LCFI0
 249 0010 48000000 		.4byte	.LFE118
 250 0014 0200     		.2byte	0x2
 251 0016 7D       		.byte	0x7d
 252 0017 10       		.sleb128 16
 253 0018 00000000 		.4byte	0x0
 254 001c 00000000 		.4byte	0x0
 255              	.LLST1:
 256 0020 00000000 		.4byte	.LVL0
 257 0024 02000000 		.4byte	.LVL1
 258 0028 0100     		.2byte	0x1
 259 002a 50       		.byte	0x50
 260 002b 00000000 		.4byte	0x0
 261 002f 00000000 		.4byte	0x0
 262              	.LLST2:
 263 0033 00000000 		.4byte	.LFB119
 264 0037 0A000000 		.4byte	.LCFI1
 265 003b 0200     		.2byte	0x2
ARM GAS  C:\Users\DNIEL~1\AppData\Local\Temp\ccXiW4Ag.s 			page 6


 266 003d 7D       		.byte	0x7d
 267 003e 00       		.sleb128 0
 268 003f 0A000000 		.4byte	.LCFI1
 269 0043 24000000 		.4byte	.LFE119
 270 0047 0200     		.2byte	0x2
 271 0049 7D       		.byte	0x7d
 272 004a 08       		.sleb128 8
 273 004b 00000000 		.4byte	0x0
 274 004f 00000000 		.4byte	0x0
 275              	.LLST3:
 276 0053 00000000 		.4byte	.LVL3
 277 0057 04000000 		.4byte	.LVL4
 278 005b 0100     		.2byte	0x1
 279 005d 50       		.byte	0x50
 280 005e 00000000 		.4byte	0x0
 281 0062 00000000 		.4byte	0x0
 282              	.LLST4:
 283 0066 0E000000 		.4byte	.LVL5
 284 006a 10000000 		.4byte	.LVL6
 285 006e 0100     		.2byte	0x1
 286 0070 54       		.byte	0x54
 287 0071 10000000 		.4byte	.LVL6
 288 0075 24000000 		.4byte	.LFE119
 289 0079 0100     		.2byte	0x1
 290 007b 54       		.byte	0x54
 291 007c 00000000 		.4byte	0x0
 292 0080 00000000 		.4byte	0x0
 293              	.LLST5:
 294 0084 00000000 		.4byte	.LFB120
 295 0088 02000000 		.4byte	.LCFI2
 296 008c 0200     		.2byte	0x2
 297 008e 7D       		.byte	0x7d
 298 008f 00       		.sleb128 0
 299 0090 02000000 		.4byte	.LCFI2
 300 0094 06000000 		.4byte	.LCFI3
 301 0098 0200     		.2byte	0x2
 302 009a 7D       		.byte	0x7d
 303 009b 10       		.sleb128 16
 304 009c 06000000 		.4byte	.LCFI3
 305 00a0 54000000 		.4byte	.LFE120
 306 00a4 0200     		.2byte	0x2
 307 00a6 7D       		.byte	0x7d
 308 00a7 18       		.sleb128 24
 309 00a8 00000000 		.4byte	0x0
 310 00ac 00000000 		.4byte	0x0
 311              		.file 2 "c:\\program files (x86)\\codesourcery\\sourcery g++ lite\\bin\\../lib/gcc/arm-none-eabi/4
 312              		.file 3 "../../../ChibiOS/os/ports/GCC/ARMCMx/chtypes.h"
 313              		.file 4 "../../../ChibiOS/os/kernel/include/chlists.h"
 314              		.file 5 "../../../ChibiOS/os/kernel/include/chthreads.h"
 315              		.file 6 "../../../ChibiOS/os/ports/GCC/ARMCMx/chcore_v7m.h"
 316              		.file 7 "../../../ChibiOS/os/kernel/include/chvt.h"
 317              		.file 8 "../../../ChibiOS/os/kernel/include/chschd.h"
 318              		.file 9 "../../../ChibiOS/os/kernel/include/chmtx.h"
 319              		.file 10 "../../../ChibiOS/os/hal/platforms/STM32/GPIOv2/pal_lld.h"
 320              		.file 11 "../../../ChibiOS/os/ports/common/ARMCMx/CMSIS/include/core_cm4.h"
 321              		.section	.debug_info
 322 0000 48070000 		.4byte	0x748
ARM GAS  C:\Users\DNIEL~1\AppData\Local\Temp\ccXiW4Ag.s 			page 7


 323 0004 0200     		.2byte	0x2
 324 0006 00000000 		.4byte	.Ldebug_abbrev0
 325 000a 04       		.byte	0x4
 326 000b 01       		.uleb128 0x1
 327 000c EB020000 		.4byte	.LASF93
 328 0010 01       		.byte	0x1
 329 0011 8E030000 		.4byte	.LASF94
 330 0015 59010000 		.4byte	.LASF95
 331 0019 00000000 		.4byte	0x0
 332 001d 00000000 		.4byte	0x0
 333 0021 00000000 		.4byte	.Ldebug_ranges0+0x0
 334 0025 00000000 		.4byte	.Ldebug_line0
 335 0029 02       		.uleb128 0x2
 336 002a 04       		.byte	0x4
 337 002b 07       		.byte	0x7
 338 002c FA010000 		.4byte	.LASF0
 339 0030 03       		.uleb128 0x3
 340 0031 04       		.byte	0x4
 341 0032 02       		.uleb128 0x2
 342 0033 01       		.byte	0x1
 343 0034 06       		.byte	0x6
 344 0035 C6010000 		.4byte	.LASF1
 345 0039 02       		.uleb128 0x2
 346 003a 01       		.byte	0x1
 347 003b 08       		.byte	0x8
 348 003c B1010000 		.4byte	.LASF2
 349 0040 02       		.uleb128 0x2
 350 0041 02       		.byte	0x2
 351 0042 05       		.byte	0x5
 352 0043 30000000 		.4byte	.LASF3
 353 0047 02       		.uleb128 0x2
 354 0048 02       		.byte	0x2
 355 0049 07       		.byte	0x7
 356 004a 87020000 		.4byte	.LASF4
 357 004e 04       		.uleb128 0x4
 358 004f 04       		.byte	0x4
 359 0050 05       		.byte	0x5
 360 0051 696E7400 		.ascii	"int\000"
 361 0055 02       		.uleb128 0x2
 362 0056 08       		.byte	0x8
 363 0057 05       		.byte	0x5
 364 0058 F9000000 		.4byte	.LASF5
 365 005c 02       		.uleb128 0x2
 366 005d 08       		.byte	0x8
 367 005e 07       		.byte	0x7
 368 005f DA010000 		.4byte	.LASF6
 369 0063 02       		.uleb128 0x2
 370 0064 04       		.byte	0x4
 371 0065 05       		.byte	0x5
 372 0066 20010000 		.4byte	.LASF7
 373 006a 02       		.uleb128 0x2
 374 006b 04       		.byte	0x4
 375 006c 07       		.byte	0x7
 376 006d D9020000 		.4byte	.LASF8
 377 0071 02       		.uleb128 0x2
 378 0072 01       		.byte	0x1
 379 0073 08       		.byte	0x8
ARM GAS  C:\Users\DNIEL~1\AppData\Local\Temp\ccXiW4Ag.s 			page 8


 380 0074 64020000 		.4byte	.LASF9
 381 0078 05       		.uleb128 0x5
 382 0079 04       		.byte	0x4
 383 007a 7E000000 		.4byte	0x7e
 384 007e 06       		.uleb128 0x6
 385 007f 71000000 		.4byte	0x71
 386 0083 07       		.uleb128 0x7
 387 0084 B9000000 		.4byte	.LASF10
 388 0088 02       		.byte	0x2
 389 0089 2A       		.byte	0x2a
 390 008a 39000000 		.4byte	0x39
 391 008e 07       		.uleb128 0x7
 392 008f 07020000 		.4byte	.LASF11
 393 0093 02       		.byte	0x2
 394 0094 36       		.byte	0x36
 395 0095 47000000 		.4byte	0x47
 396 0099 07       		.uleb128 0x7
 397 009a 70020000 		.4byte	.LASF12
 398 009e 02       		.byte	0x2
 399 009f 4F       		.byte	0x4f
 400 00a0 63000000 		.4byte	0x63
 401 00a4 07       		.uleb128 0x7
 402 00a5 F1010000 		.4byte	.LASF13
 403 00a9 02       		.byte	0x2
 404 00aa 50       		.byte	0x50
 405 00ab 6A000000 		.4byte	0x6a
 406 00af 07       		.uleb128 0x7
 407 00b0 1B000000 		.4byte	.LASF14
 408 00b4 02       		.byte	0x2
 409 00b5 78       		.byte	0x78
 410 00b6 5C000000 		.4byte	0x5c
 411 00ba 07       		.uleb128 0x7
 412 00bb F1000000 		.4byte	.LASF15
 413 00bf 03       		.byte	0x3
 414 00c0 28       		.byte	0x28
 415 00c1 83000000 		.4byte	0x83
 416 00c5 07       		.uleb128 0x7
 417 00c6 0D030000 		.4byte	.LASF16
 418 00ca 03       		.byte	0x3
 419 00cb 29       		.byte	0x29
 420 00cc 83000000 		.4byte	0x83
 421 00d0 07       		.uleb128 0x7
 422 00d1 0D000000 		.4byte	.LASF17
 423 00d5 03       		.byte	0x3
 424 00d6 2A       		.byte	0x2a
 425 00d7 83000000 		.4byte	0x83
 426 00db 07       		.uleb128 0x7
 427 00dc CC000000 		.4byte	.LASF18
 428 00e0 03       		.byte	0x3
 429 00e1 2B       		.byte	0x2b
 430 00e2 83000000 		.4byte	0x83
 431 00e6 07       		.uleb128 0x7
 432 00e7 07010000 		.4byte	.LASF19
 433 00eb 03       		.byte	0x3
 434 00ec 2C       		.byte	0x2c
 435 00ed A4000000 		.4byte	0xa4
 436 00f1 07       		.uleb128 0x7
ARM GAS  C:\Users\DNIEL~1\AppData\Local\Temp\ccXiW4Ag.s 			page 9


 437 00f2 AB010000 		.4byte	.LASF20
 438 00f6 03       		.byte	0x3
 439 00f7 2D       		.byte	0x2d
 440 00f8 99000000 		.4byte	0x99
 441 00fc 07       		.uleb128 0x7
 442 00fd 70000000 		.4byte	.LASF21
 443 0101 03       		.byte	0x3
 444 0102 2F       		.byte	0x2f
 445 0103 A4000000 		.4byte	0xa4
 446 0107 07       		.uleb128 0x7
 447 0108 54020000 		.4byte	.LASF22
 448 010c 03       		.byte	0x3
 449 010d 31       		.byte	0x31
 450 010e A4000000 		.4byte	0xa4
 451 0112 07       		.uleb128 0x7
 452 0113 FF020000 		.4byte	.LASF23
 453 0117 04       		.byte	0x4
 454 0118 23       		.byte	0x23
 455 0119 1D010000 		.4byte	0x11d
 456 011d 08       		.uleb128 0x8
 457 011e FF020000 		.4byte	.LASF23
 458 0122 4C       		.byte	0x4c
 459 0123 05       		.byte	0x5
 460 0124 57       		.byte	0x57
 461 0125 50020000 		.4byte	0x250
 462 0129 09       		.uleb128 0x9
 463 012a 8E000000 		.4byte	.LASF24
 464 012e 05       		.byte	0x5
 465 012f 58       		.byte	0x58
 466 0130 75020000 		.4byte	0x275
 467 0134 02       		.byte	0x2
 468 0135 23       		.byte	0x23
 469 0136 00       		.uleb128 0x0
 470 0137 09       		.uleb128 0x9
 471 0138 5E000000 		.4byte	.LASF25
 472 013c 05       		.byte	0x5
 473 013d 5A       		.byte	0x5a
 474 013e 75020000 		.4byte	0x275
 475 0142 02       		.byte	0x2
 476 0143 23       		.byte	0x23
 477 0144 04       		.uleb128 0x4
 478 0145 09       		.uleb128 0x9
 479 0146 87000000 		.4byte	.LASF26
 480 014a 05       		.byte	0x5
 481 014b 5C       		.byte	0x5c
 482 014c E6000000 		.4byte	0xe6
 483 0150 02       		.byte	0x2
 484 0151 23       		.byte	0x23
 485 0152 08       		.uleb128 0x8
 486 0153 09       		.uleb128 0x9
 487 0154 5F030000 		.4byte	.LASF27
 488 0158 05       		.byte	0x5
 489 0159 5D       		.byte	0x5d
 490 015a 4C030000 		.4byte	0x34c
 491 015e 02       		.byte	0x2
 492 015f 23       		.byte	0x23
 493 0160 0C       		.uleb128 0xc
ARM GAS  C:\Users\DNIEL~1\AppData\Local\Temp\ccXiW4Ag.s 			page 10


 494 0161 09       		.uleb128 0x9
 495 0162 D2010000 		.4byte	.LASF28
 496 0166 05       		.byte	0x5
 497 0167 5F       		.byte	0x5f
 498 0168 75020000 		.4byte	0x275
 499 016c 02       		.byte	0x2
 500 016d 23       		.byte	0x23
 501 016e 10       		.uleb128 0x10
 502 016f 09       		.uleb128 0x9
 503 0170 3C030000 		.4byte	.LASF29
 504 0174 05       		.byte	0x5
 505 0175 60       		.byte	0x60
 506 0176 75020000 		.4byte	0x275
 507 017a 02       		.byte	0x2
 508 017b 23       		.byte	0x23
 509 017c 14       		.uleb128 0x14
 510 017d 09       		.uleb128 0x9
 511 017e 69020000 		.4byte	.LASF30
 512 0182 05       		.byte	0x5
 513 0183 67       		.byte	0x67
 514 0184 78000000 		.4byte	0x78
 515 0188 02       		.byte	0x2
 516 0189 23       		.byte	0x23
 517 018a 18       		.uleb128 0x18
 518 018b 09       		.uleb128 0x9
 519 018c 15010000 		.4byte	.LASF31
 520 0190 05       		.byte	0x5
 521 0191 6D       		.byte	0x6d
 522 0192 2B050000 		.4byte	0x52b
 523 0196 02       		.byte	0x2
 524 0197 23       		.byte	0x23
 525 0198 1C       		.uleb128 0x1c
 526 0199 09       		.uleb128 0x9
 527 019a 7F020000 		.4byte	.LASF32
 528 019e 05       		.byte	0x5
 529 019f 72       		.byte	0x72
 530 01a0 C5000000 		.4byte	0xc5
 531 01a4 02       		.byte	0x2
 532 01a5 23       		.byte	0x23
 533 01a6 20       		.uleb128 0x20
 534 01a7 09       		.uleb128 0x9
 535 01a8 37020000 		.4byte	.LASF33
 536 01ac 05       		.byte	0x5
 537 01ad 76       		.byte	0x76
 538 01ae BA000000 		.4byte	0xba
 539 01b2 02       		.byte	0x2
 540 01b3 23       		.byte	0x23
 541 01b4 21       		.uleb128 0x21
 542 01b5 09       		.uleb128 0x9
 543 01b6 58030000 		.4byte	.LASF34
 544 01ba 05       		.byte	0x5
 545 01bb 7B       		.byte	0x7b
 546 01bc D0000000 		.4byte	0xd0
 547 01c0 02       		.byte	0x2
 548 01c1 23       		.byte	0x23
 549 01c2 22       		.uleb128 0x22
 550 01c3 09       		.uleb128 0x9
ARM GAS  C:\Users\DNIEL~1\AppData\Local\Temp\ccXiW4Ag.s 			page 11


 551 01c4 3F020000 		.4byte	.LASF35
 552 01c8 05       		.byte	0x5
 553 01c9 81       		.byte	0x81
 554 01ca DB000000 		.4byte	0xdb
 555 01ce 02       		.byte	0x2
 556 01cf 23       		.byte	0x23
 557 01d0 23       		.uleb128 0x23
 558 01d1 09       		.uleb128 0x9
 559 01d2 E3000000 		.4byte	.LASF36
 560 01d6 05       		.byte	0x5
 561 01d7 88       		.byte	0x88
 562 01d8 36040000 		.4byte	0x436
 563 01dc 02       		.byte	0x2
 564 01dd 23       		.byte	0x23
 565 01de 24       		.uleb128 0x24
 566 01df 0A       		.uleb128 0xa
 567 01e0 705F7500 		.ascii	"p_u\000"
 568 01e4 05       		.byte	0x5
 569 01e5 AD       		.byte	0xad
 570 01e6 F6040000 		.4byte	0x4f6
 571 01ea 02       		.byte	0x2
 572 01eb 23       		.byte	0x23
 573 01ec 28       		.uleb128 0x28
 574 01ed 09       		.uleb128 0x9
 575 01ee 3F010000 		.4byte	.LASF37
 576 01f2 05       		.byte	0x5
 577 01f3 B2       		.byte	0xb2
 578 01f4 9D020000 		.4byte	0x29d
 579 01f8 02       		.byte	0x2
 580 01f9 23       		.byte	0x23
 581 01fa 2C       		.uleb128 0x2c
 582 01fb 09       		.uleb128 0x9
 583 01fc 7C000000 		.4byte	.LASF38
 584 0200 05       		.byte	0x5
 585 0201 B8       		.byte	0xb8
 586 0202 7B020000 		.4byte	0x27b
 587 0206 02       		.byte	0x2
 588 0207 23       		.byte	0x23
 589 0208 30       		.uleb128 0x30
 590 0209 09       		.uleb128 0x9
 591 020a 53010000 		.4byte	.LASF39
 592 020e 05       		.byte	0x5
 593 020f BC       		.byte	0xbc
 594 0210 F1000000 		.4byte	0xf1
 595 0214 02       		.byte	0x2
 596 0215 23       		.byte	0x23
 597 0216 38       		.uleb128 0x38
 598 0217 09       		.uleb128 0x9
 599 0218 49000000 		.4byte	.LASF40
 600 021c 05       		.byte	0x5
 601 021d C2       		.byte	0xc2
 602 021e FC000000 		.4byte	0xfc
 603 0222 02       		.byte	0x2
 604 0223 23       		.byte	0x23
 605 0224 3C       		.uleb128 0x3c
 606 0225 09       		.uleb128 0x9
 607 0226 C0020000 		.4byte	.LASF41
ARM GAS  C:\Users\DNIEL~1\AppData\Local\Temp\ccXiW4Ag.s 			page 12


 608 022a 05       		.byte	0x5
 609 022b C9       		.byte	0xc9
 610 022c 31050000 		.4byte	0x531
 611 0230 02       		.byte	0x2
 612 0231 23       		.byte	0x23
 613 0232 40       		.uleb128 0x40
 614 0233 09       		.uleb128 0x9
 615 0234 49020000 		.4byte	.LASF42
 616 0238 05       		.byte	0x5
 617 0239 CD       		.byte	0xcd
 618 023a E6000000 		.4byte	0xe6
 619 023e 02       		.byte	0x2
 620 023f 23       		.byte	0x23
 621 0240 44       		.uleb128 0x44
 622 0241 09       		.uleb128 0x9
 623 0242 22020000 		.4byte	.LASF43
 624 0246 05       		.byte	0x5
 625 0247 D3       		.byte	0xd3
 626 0248 30000000 		.4byte	0x30
 627 024c 02       		.byte	0x2
 628 024d 23       		.byte	0x23
 629 024e 48       		.uleb128 0x48
 630 024f 00       		.byte	0x0
 631 0250 0B       		.uleb128 0xb
 632 0251 08       		.byte	0x8
 633 0252 04       		.byte	0x4
 634 0253 5A       		.byte	0x5a
 635 0254 75020000 		.4byte	0x275
 636 0258 09       		.uleb128 0x9
 637 0259 8E000000 		.4byte	.LASF24
 638 025d 04       		.byte	0x4
 639 025e 5B       		.byte	0x5b
 640 025f 75020000 		.4byte	0x275
 641 0263 02       		.byte	0x2
 642 0264 23       		.byte	0x23
 643 0265 00       		.uleb128 0x0
 644 0266 09       		.uleb128 0x9
 645 0267 5E000000 		.4byte	.LASF25
 646 026b 04       		.byte	0x4
 647 026c 5D       		.byte	0x5d
 648 026d 75020000 		.4byte	0x275
 649 0271 02       		.byte	0x2
 650 0272 23       		.byte	0x23
 651 0273 04       		.uleb128 0x4
 652 0274 00       		.byte	0x0
 653 0275 05       		.uleb128 0x5
 654 0276 04       		.byte	0x4
 655 0277 12010000 		.4byte	0x112
 656 027b 07       		.uleb128 0x7
 657 027c 9A020000 		.4byte	.LASF44
 658 0280 04       		.byte	0x4
 659 0281 5F       		.byte	0x5f
 660 0282 50020000 		.4byte	0x250
 661 0286 0B       		.uleb128 0xb
 662 0287 04       		.byte	0x4
 663 0288 04       		.byte	0x4
 664 0289 64       		.byte	0x64
ARM GAS  C:\Users\DNIEL~1\AppData\Local\Temp\ccXiW4Ag.s 			page 13


 665 028a 9D020000 		.4byte	0x29d
 666 028e 09       		.uleb128 0x9
 667 028f 8E000000 		.4byte	.LASF24
 668 0293 04       		.byte	0x4
 669 0294 66       		.byte	0x66
 670 0295 75020000 		.4byte	0x275
 671 0299 02       		.byte	0x2
 672 029a 23       		.byte	0x23
 673 029b 00       		.uleb128 0x0
 674 029c 00       		.byte	0x0
 675 029d 07       		.uleb128 0x7
 676 029e 24000000 		.4byte	.LASF45
 677 02a2 04       		.byte	0x4
 678 02a3 69       		.byte	0x69
 679 02a4 86020000 		.4byte	0x286
 680 02a8 07       		.uleb128 0x7
 681 02a9 B0000000 		.4byte	.LASF46
 682 02ad 06       		.byte	0x6
 683 02ae DE       		.byte	0xde
 684 02af 30000000 		.4byte	0x30
 685 02b3 07       		.uleb128 0x7
 686 02b4 16030000 		.4byte	.LASF47
 687 02b8 06       		.byte	0x6
 688 02b9 E4       		.byte	0xe4
 689 02ba AF000000 		.4byte	0xaf
 690 02be 0C       		.uleb128 0xc
 691 02bf CA020000 		.4byte	.LASF48
 692 02c3 24       		.byte	0x24
 693 02c4 06       		.byte	0x6
 694 02c5 0501     		.2byte	0x105
 695 02c7 4C030000 		.4byte	0x34c
 696 02cb 0D       		.uleb128 0xd
 697 02cc 723400   		.ascii	"r4\000"
 698 02cf 06       		.byte	0x6
 699 02d0 1801     		.2byte	0x118
 700 02d2 A8020000 		.4byte	0x2a8
 701 02d6 02       		.byte	0x2
 702 02d7 23       		.byte	0x23
 703 02d8 00       		.uleb128 0x0
 704 02d9 0D       		.uleb128 0xd
 705 02da 723500   		.ascii	"r5\000"
 706 02dd 06       		.byte	0x6
 707 02de 1901     		.2byte	0x119
 708 02e0 A8020000 		.4byte	0x2a8
 709 02e4 02       		.byte	0x2
 710 02e5 23       		.byte	0x23
 711 02e6 04       		.uleb128 0x4
 712 02e7 0D       		.uleb128 0xd
 713 02e8 723600   		.ascii	"r6\000"
 714 02eb 06       		.byte	0x6
 715 02ec 1A01     		.2byte	0x11a
 716 02ee A8020000 		.4byte	0x2a8
 717 02f2 02       		.byte	0x2
 718 02f3 23       		.byte	0x23
 719 02f4 08       		.uleb128 0x8
 720 02f5 0D       		.uleb128 0xd
 721 02f6 723700   		.ascii	"r7\000"
ARM GAS  C:\Users\DNIEL~1\AppData\Local\Temp\ccXiW4Ag.s 			page 14


 722 02f9 06       		.byte	0x6
 723 02fa 1B01     		.2byte	0x11b
 724 02fc A8020000 		.4byte	0x2a8
 725 0300 02       		.byte	0x2
 726 0301 23       		.byte	0x23
 727 0302 0C       		.uleb128 0xc
 728 0303 0D       		.uleb128 0xd
 729 0304 723800   		.ascii	"r8\000"
 730 0307 06       		.byte	0x6
 731 0308 1C01     		.2byte	0x11c
 732 030a A8020000 		.4byte	0x2a8
 733 030e 02       		.byte	0x2
 734 030f 23       		.byte	0x23
 735 0310 10       		.uleb128 0x10
 736 0311 0D       		.uleb128 0xd
 737 0312 723900   		.ascii	"r9\000"
 738 0315 06       		.byte	0x6
 739 0316 1D01     		.2byte	0x11d
 740 0318 A8020000 		.4byte	0x2a8
 741 031c 02       		.byte	0x2
 742 031d 23       		.byte	0x23
 743 031e 14       		.uleb128 0x14
 744 031f 0D       		.uleb128 0xd
 745 0320 72313000 		.ascii	"r10\000"
 746 0324 06       		.byte	0x6
 747 0325 1E01     		.2byte	0x11e
 748 0327 A8020000 		.4byte	0x2a8
 749 032b 02       		.byte	0x2
 750 032c 23       		.byte	0x23
 751 032d 18       		.uleb128 0x18
 752 032e 0D       		.uleb128 0xd
 753 032f 72313100 		.ascii	"r11\000"
 754 0333 06       		.byte	0x6
 755 0334 1F01     		.2byte	0x11f
 756 0336 A8020000 		.4byte	0x2a8
 757 033a 02       		.byte	0x2
 758 033b 23       		.byte	0x23
 759 033c 1C       		.uleb128 0x1c
 760 033d 0D       		.uleb128 0xd
 761 033e 6C7200   		.ascii	"lr\000"
 762 0341 06       		.byte	0x6
 763 0342 2001     		.2byte	0x120
 764 0344 A8020000 		.4byte	0x2a8
 765 0348 02       		.byte	0x2
 766 0349 23       		.byte	0x23
 767 034a 20       		.uleb128 0x20
 768 034b 00       		.byte	0x0
 769 034c 0C       		.uleb128 0xc
 770 034d 37010000 		.4byte	.LASF49
 771 0351 04       		.byte	0x4
 772 0352 06       		.byte	0x6
 773 0353 2A01     		.2byte	0x12a
 774 0355 69030000 		.4byte	0x369
 775 0359 0D       		.uleb128 0xd
 776 035a 72313300 		.ascii	"r13\000"
 777 035e 06       		.byte	0x6
 778 035f 2B01     		.2byte	0x12b
ARM GAS  C:\Users\DNIEL~1\AppData\Local\Temp\ccXiW4Ag.s 			page 15


 779 0361 69030000 		.4byte	0x369
 780 0365 02       		.byte	0x2
 781 0366 23       		.byte	0x23
 782 0367 00       		.uleb128 0x0
 783 0368 00       		.byte	0x0
 784 0369 05       		.uleb128 0x5
 785 036a 04       		.byte	0x4
 786 036b BE020000 		.4byte	0x2be
 787 036f 0E       		.uleb128 0xe
 788 0370 A4000000 		.4byte	0xa4
 789 0374 07       		.uleb128 0x7
 790 0375 2A030000 		.4byte	.LASF50
 791 0379 07       		.byte	0x7
 792 037a 4E       		.byte	0x4e
 793 037b 7F030000 		.4byte	0x37f
 794 037f 05       		.uleb128 0x5
 795 0380 04       		.byte	0x4
 796 0381 85030000 		.4byte	0x385
 797 0385 0F       		.uleb128 0xf
 798 0386 01       		.byte	0x1
 799 0387 91030000 		.4byte	0x391
 800 038b 10       		.uleb128 0x10
 801 038c 30000000 		.4byte	0x30
 802 0390 00       		.byte	0x0
 803 0391 07       		.uleb128 0x7
 804 0392 44030000 		.4byte	.LASF51
 805 0396 07       		.byte	0x7
 806 0397 53       		.byte	0x53
 807 0398 9C030000 		.4byte	0x39c
 808 039c 08       		.uleb128 0x8
 809 039d 44030000 		.4byte	.LASF51
 810 03a1 14       		.byte	0x14
 811 03a2 07       		.byte	0x7
 812 03a3 5A       		.byte	0x5a
 813 03a4 EF030000 		.4byte	0x3ef
 814 03a8 09       		.uleb128 0x9
 815 03a9 10020000 		.4byte	.LASF52
 816 03ad 07       		.byte	0x7
 817 03ae 5B       		.byte	0x5b
 818 03af EF030000 		.4byte	0x3ef
 819 03b3 02       		.byte	0x2
 820 03b4 23       		.byte	0x23
 821 03b5 00       		.uleb128 0x0
 822 03b6 09       		.uleb128 0x9
 823 03b7 F7020000 		.4byte	.LASF53
 824 03bb 07       		.byte	0x7
 825 03bc 5D       		.byte	0x5d
 826 03bd EF030000 		.4byte	0x3ef
 827 03c1 02       		.byte	0x2
 828 03c2 23       		.byte	0x23
 829 03c3 04       		.uleb128 0x4
 830 03c4 09       		.uleb128 0x9
 831 03c5 86030000 		.4byte	.LASF54
 832 03c9 07       		.byte	0x7
 833 03ca 5F       		.byte	0x5f
 834 03cb 07010000 		.4byte	0x107
 835 03cf 02       		.byte	0x2
ARM GAS  C:\Users\DNIEL~1\AppData\Local\Temp\ccXiW4Ag.s 			page 16


 836 03d0 23       		.byte	0x23
 837 03d1 08       		.uleb128 0x8
 838 03d2 09       		.uleb128 0x9
 839 03d3 A8000000 		.4byte	.LASF55
 840 03d7 07       		.byte	0x7
 841 03d8 60       		.byte	0x60
 842 03d9 74030000 		.4byte	0x374
 843 03dd 02       		.byte	0x2
 844 03de 23       		.byte	0x23
 845 03df 0C       		.uleb128 0xc
 846 03e0 09       		.uleb128 0x9
 847 03e1 A1000000 		.4byte	.LASF56
 848 03e5 07       		.byte	0x7
 849 03e6 62       		.byte	0x62
 850 03e7 30000000 		.4byte	0x30
 851 03eb 02       		.byte	0x2
 852 03ec 23       		.byte	0x23
 853 03ed 10       		.uleb128 0x10
 854 03ee 00       		.byte	0x0
 855 03ef 05       		.uleb128 0x5
 856 03f0 04       		.byte	0x4
 857 03f1 91030000 		.4byte	0x391
 858 03f5 0B       		.uleb128 0xb
 859 03f6 10       		.byte	0x10
 860 03f7 07       		.byte	0x7
 861 03f8 6C       		.byte	0x6c
 862 03f9 36040000 		.4byte	0x436
 863 03fd 09       		.uleb128 0x9
 864 03fe 10020000 		.4byte	.LASF52
 865 0402 07       		.byte	0x7
 866 0403 6D       		.byte	0x6d
 867 0404 EF030000 		.4byte	0x3ef
 868 0408 02       		.byte	0x2
 869 0409 23       		.byte	0x23
 870 040a 00       		.uleb128 0x0
 871 040b 09       		.uleb128 0x9
 872 040c F7020000 		.4byte	.LASF53
 873 0410 07       		.byte	0x7
 874 0411 6F       		.byte	0x6f
 875 0412 EF030000 		.4byte	0x3ef
 876 0416 02       		.byte	0x2
 877 0417 23       		.byte	0x23
 878 0418 04       		.uleb128 0x4
 879 0419 09       		.uleb128 0x9
 880 041a 86030000 		.4byte	.LASF54
 881 041e 07       		.byte	0x7
 882 041f 71       		.byte	0x71
 883 0420 07010000 		.4byte	0x107
 884 0424 02       		.byte	0x2
 885 0425 23       		.byte	0x23
 886 0426 08       		.uleb128 0x8
 887 0427 09       		.uleb128 0x9
 888 0428 C1000000 		.4byte	.LASF57
 889 042c 07       		.byte	0x7
 890 042d 72       		.byte	0x72
 891 042e 36040000 		.4byte	0x436
 892 0432 02       		.byte	0x2
ARM GAS  C:\Users\DNIEL~1\AppData\Local\Temp\ccXiW4Ag.s 			page 17


 893 0433 23       		.byte	0x23
 894 0434 0C       		.uleb128 0xc
 895 0435 00       		.byte	0x0
 896 0436 0E       		.uleb128 0xe
 897 0437 07010000 		.4byte	0x107
 898 043b 07       		.uleb128 0x7
 899 043c 51030000 		.4byte	.LASF58
 900 0440 07       		.byte	0x7
 901 0441 73       		.byte	0x73
 902 0442 F5030000 		.4byte	0x3f5
 903 0446 0B       		.uleb128 0xb
 904 0447 1C       		.byte	0x1c
 905 0448 08       		.byte	0x8
 906 0449 57       		.byte	0x57
 907 044a A3040000 		.4byte	0x4a3
 908 044e 09       		.uleb128 0x9
 909 044f 3A000000 		.4byte	.LASF59
 910 0453 08       		.byte	0x8
 911 0454 58       		.byte	0x58
 912 0455 7B020000 		.4byte	0x27b
 913 0459 02       		.byte	0x2
 914 045a 23       		.byte	0x23
 915 045b 00       		.uleb128 0x0
 916 045c 09       		.uleb128 0x9
 917 045d 78020000 		.4byte	.LASF60
 918 0461 08       		.byte	0x8
 919 0462 59       		.byte	0x59
 920 0463 E6000000 		.4byte	0xe6
 921 0467 02       		.byte	0x2
 922 0468 23       		.byte	0x23
 923 0469 08       		.uleb128 0x8
 924 046a 09       		.uleb128 0x9
 925 046b 65000000 		.4byte	.LASF61
 926 046f 08       		.byte	0x8
 927 0470 5B       		.byte	0x5b
 928 0471 4C030000 		.4byte	0x34c
 929 0475 02       		.byte	0x2
 930 0476 23       		.byte	0x23
 931 0477 0C       		.uleb128 0xc
 932 0478 09       		.uleb128 0x9
 933 0479 2F020000 		.4byte	.LASF62
 934 047d 08       		.byte	0x8
 935 047e 5E       		.byte	0x5e
 936 047f 75020000 		.4byte	0x275
 937 0483 02       		.byte	0x2
 938 0484 23       		.byte	0x23
 939 0485 10       		.uleb128 0x10
 940 0486 09       		.uleb128 0x9
 941 0487 99030000 		.4byte	.LASF63
 942 048b 08       		.byte	0x8
 943 048c 5F       		.byte	0x5f
 944 048d 75020000 		.4byte	0x275
 945 0491 02       		.byte	0x2
 946 0492 23       		.byte	0x23
 947 0493 14       		.uleb128 0x14
 948 0494 09       		.uleb128 0x9
 949 0495 49010000 		.4byte	.LASF64
ARM GAS  C:\Users\DNIEL~1\AppData\Local\Temp\ccXiW4Ag.s 			page 18


 950 0499 08       		.byte	0x8
 951 049a 62       		.byte	0x62
 952 049b 75020000 		.4byte	0x275
 953 049f 02       		.byte	0x2
 954 04a0 23       		.byte	0x23
 955 04a1 18       		.uleb128 0x18
 956 04a2 00       		.byte	0x0
 957 04a3 07       		.uleb128 0x7
 958 04a4 54000000 		.4byte	.LASF65
 959 04a8 08       		.byte	0x8
 960 04a9 64       		.byte	0x64
 961 04aa 46040000 		.4byte	0x446
 962 04ae 08       		.uleb128 0x8
 963 04af 29010000 		.4byte	.LASF66
 964 04b3 10       		.byte	0x10
 965 04b4 09       		.byte	0x9
 966 04b5 25       		.byte	0x25
 967 04b6 E5040000 		.4byte	0x4e5
 968 04ba 09       		.uleb128 0x9
 969 04bb 2F010000 		.4byte	.LASF67
 970 04bf 09       		.byte	0x9
 971 04c0 26       		.byte	0x26
 972 04c1 7B020000 		.4byte	0x27b
 973 04c5 02       		.byte	0x2
 974 04c6 23       		.byte	0x23
 975 04c7 00       		.uleb128 0x0
 976 04c8 09       		.uleb128 0x9
 977 04c9 72030000 		.4byte	.LASF68
 978 04cd 09       		.byte	0x9
 979 04ce 28       		.byte	0x28
 980 04cf 75020000 		.4byte	0x275
 981 04d3 02       		.byte	0x2
 982 04d4 23       		.byte	0x23
 983 04d5 08       		.uleb128 0x8
 984 04d6 09       		.uleb128 0x9
 985 04d7 42000000 		.4byte	.LASF69
 986 04db 09       		.byte	0x9
 987 04dc 2A       		.byte	0x2a
 988 04dd E5040000 		.4byte	0x4e5
 989 04e1 02       		.byte	0x2
 990 04e2 23       		.byte	0x23
 991 04e3 0C       		.uleb128 0xc
 992 04e4 00       		.byte	0x0
 993 04e5 05       		.uleb128 0x5
 994 04e6 04       		.byte	0x4
 995 04e7 AE040000 		.4byte	0x4ae
 996 04eb 07       		.uleb128 0x7
 997 04ec 29010000 		.4byte	.LASF66
 998 04f0 09       		.byte	0x9
 999 04f1 2C       		.byte	0x2c
 1000 04f2 AE040000 		.4byte	0x4ae
 1001 04f6 11       		.uleb128 0x11
 1002 04f7 04       		.byte	0x4
 1003 04f8 05       		.byte	0x5
 1004 04f9 8F       		.byte	0x8f
 1005 04fa 2B050000 		.4byte	0x52b
 1006 04fe 12       		.uleb128 0x12
ARM GAS  C:\Users\DNIEL~1\AppData\Local\Temp\ccXiW4Ag.s 			page 19


 1007 04ff 7F030000 		.4byte	.LASF70
 1008 0503 05       		.byte	0x5
 1009 0504 96       		.byte	0x96
 1010 0505 F1000000 		.4byte	0xf1
 1011 0509 12       		.uleb128 0x12
 1012 050a 21030000 		.4byte	.LASF71
 1013 050e 05       		.byte	0x5
 1014 050f 9D       		.byte	0x9d
 1015 0510 F1000000 		.4byte	0xf1
 1016 0514 12       		.uleb128 0x12
 1017 0515 06030000 		.4byte	.LASF72
 1018 0519 05       		.byte	0x5
 1019 051a A4       		.byte	0xa4
 1020 051b 30000000 		.4byte	0x30
 1021 051f 12       		.uleb128 0x12
 1022 0520 BF010000 		.4byte	.LASF73
 1023 0524 05       		.byte	0x5
 1024 0525 AB       		.byte	0xab
 1025 0526 FC000000 		.4byte	0xfc
 1026 052a 00       		.byte	0x0
 1027 052b 05       		.uleb128 0x5
 1028 052c 04       		.byte	0x4
 1029 052d B3020000 		.4byte	0x2b3
 1030 0531 05       		.uleb128 0x5
 1031 0532 04       		.byte	0x4
 1032 0533 EB040000 		.4byte	0x4eb
 1033 0537 0E       		.uleb128 0xe
 1034 0538 99000000 		.4byte	0x99
 1035 053c 0B       		.uleb128 0xb
 1036 053d 04       		.byte	0x4
 1037 053e 0A       		.byte	0xa
 1038 053f 97       		.byte	0x97
 1039 0540 61050000 		.4byte	0x561
 1040 0544 0A       		.uleb128 0xa
 1041 0545 73657400 		.ascii	"set\000"
 1042 0549 0A       		.byte	0xa
 1043 054a 98       		.byte	0x98
 1044 054b 8E000000 		.4byte	0x8e
 1045 054f 02       		.byte	0x2
 1046 0550 23       		.byte	0x23
 1047 0551 00       		.uleb128 0x0
 1048 0552 09       		.uleb128 0x9
 1049 0553 15000000 		.4byte	.LASF74
 1050 0557 0A       		.byte	0xa
 1051 0558 99       		.byte	0x99
 1052 0559 8E000000 		.4byte	0x8e
 1053 055d 02       		.byte	0x2
 1054 055e 23       		.byte	0x23
 1055 055f 02       		.uleb128 0x2
 1056 0560 00       		.byte	0x0
 1057 0561 11       		.uleb128 0x11
 1058 0562 04       		.byte	0x4
 1059 0563 0A       		.byte	0xa
 1060 0564 95       		.byte	0x95
 1061 0565 7C050000 		.4byte	0x57c
 1062 0569 13       		.uleb128 0x13
 1063 056a 5700     		.ascii	"W\000"
ARM GAS  C:\Users\DNIEL~1\AppData\Local\Temp\ccXiW4Ag.s 			page 20


 1064 056c 0A       		.byte	0xa
 1065 056d 96       		.byte	0x96
 1066 056e A4000000 		.4byte	0xa4
 1067 0572 13       		.uleb128 0x13
 1068 0573 4800     		.ascii	"H\000"
 1069 0575 0A       		.byte	0xa
 1070 0576 9A       		.byte	0x9a
 1071 0577 3C050000 		.4byte	0x53c
 1072 057b 00       		.byte	0x0
 1073 057c 0B       		.uleb128 0xb
 1074 057d 28       		.byte	0x28
 1075 057e 0A       		.byte	0xa
 1076 057f 8D       		.byte	0x8d
 1077 0580 11060000 		.4byte	0x611
 1078 0584 09       		.uleb128 0x9
 1079 0585 A7020000 		.4byte	.LASF75
 1080 0589 0A       		.byte	0xa
 1081 058a 8F       		.byte	0x8f
 1082 058b 6F030000 		.4byte	0x36f
 1083 058f 02       		.byte	0x2
 1084 0590 23       		.byte	0x23
 1085 0591 00       		.uleb128 0x0
 1086 0592 09       		.uleb128 0x9
 1087 0593 EA000000 		.4byte	.LASF76
 1088 0597 0A       		.byte	0xa
 1089 0598 90       		.byte	0x90
 1090 0599 6F030000 		.4byte	0x36f
 1091 059d 02       		.byte	0x2
 1092 059e 23       		.byte	0x23
 1093 059f 04       		.uleb128 0x4
 1094 05a0 09       		.uleb128 0x9
 1095 05a1 D1020000 		.4byte	.LASF77
 1096 05a5 0A       		.byte	0xa
 1097 05a6 91       		.byte	0x91
 1098 05a7 6F030000 		.4byte	0x36f
 1099 05ab 02       		.byte	0x2
 1100 05ac 23       		.byte	0x23
 1101 05ad 08       		.uleb128 0x8
 1102 05ae 09       		.uleb128 0x9
 1103 05af 0F010000 		.4byte	.LASF78
 1104 05b3 0A       		.byte	0xa
 1105 05b4 92       		.byte	0x92
 1106 05b5 6F030000 		.4byte	0x36f
 1107 05b9 02       		.byte	0x2
 1108 05ba 23       		.byte	0x23
 1109 05bb 0C       		.uleb128 0xc
 1110 05bc 0A       		.uleb128 0xa
 1111 05bd 49445200 		.ascii	"IDR\000"
 1112 05c1 0A       		.byte	0xa
 1113 05c2 93       		.byte	0x93
 1114 05c3 6F030000 		.4byte	0x36f
 1115 05c7 02       		.byte	0x2
 1116 05c8 23       		.byte	0x23
 1117 05c9 10       		.uleb128 0x10
 1118 05ca 0A       		.uleb128 0xa
 1119 05cb 4F445200 		.ascii	"ODR\000"
 1120 05cf 0A       		.byte	0xa
ARM GAS  C:\Users\DNIEL~1\AppData\Local\Temp\ccXiW4Ag.s 			page 21


 1121 05d0 94       		.byte	0x94
 1122 05d1 6F030000 		.4byte	0x36f
 1123 05d5 02       		.byte	0x2
 1124 05d6 23       		.byte	0x23
 1125 05d7 14       		.uleb128 0x14
 1126 05d8 09       		.uleb128 0x9
 1127 05d9 9C000000 		.4byte	.LASF79
 1128 05dd 0A       		.byte	0xa
 1129 05de 9B       		.byte	0x9b
 1130 05df 11060000 		.4byte	0x611
 1131 05e3 02       		.byte	0x2
 1132 05e4 23       		.byte	0x23
 1133 05e5 18       		.uleb128 0x18
 1134 05e6 09       		.uleb128 0x9
 1135 05e7 7A030000 		.4byte	.LASF80
 1136 05eb 0A       		.byte	0xa
 1137 05ec 9C       		.byte	0x9c
 1138 05ed 6F030000 		.4byte	0x36f
 1139 05f1 02       		.byte	0x2
 1140 05f2 23       		.byte	0x23
 1141 05f3 1C       		.uleb128 0x1c
 1142 05f4 09       		.uleb128 0x9
 1143 05f5 2A020000 		.4byte	.LASF81
 1144 05f9 0A       		.byte	0xa
 1145 05fa 9D       		.byte	0x9d
 1146 05fb 6F030000 		.4byte	0x36f
 1147 05ff 02       		.byte	0x2
 1148 0600 23       		.byte	0x23
 1149 0601 20       		.uleb128 0x20
 1150 0602 09       		.uleb128 0x9
 1151 0603 1D020000 		.4byte	.LASF82
 1152 0607 0A       		.byte	0xa
 1153 0608 9E       		.byte	0x9e
 1154 0609 6F030000 		.4byte	0x36f
 1155 060d 02       		.byte	0x2
 1156 060e 23       		.byte	0x23
 1157 060f 24       		.uleb128 0x24
 1158 0610 00       		.byte	0x0
 1159 0611 0E       		.uleb128 0xe
 1160 0612 61050000 		.4byte	0x561
 1161 0616 07       		.uleb128 0x7
 1162 0617 00000000 		.4byte	.LASF83
 1163 061b 0A       		.byte	0xa
 1164 061c 9F       		.byte	0x9f
 1165 061d 7C050000 		.4byte	0x57c
 1166 0621 07       		.uleb128 0x7
 1167 0622 D6000000 		.4byte	.LASF84
 1168 0626 0A       		.byte	0xa
 1169 0627 E9       		.byte	0xe9
 1170 0628 A4000000 		.4byte	0xa4
 1171 062c 14       		.uleb128 0x14
 1172 062d B3020000 		.4byte	0x2b3
 1173 0631 3C060000 		.4byte	0x63c
 1174 0635 15       		.uleb128 0x15
 1175 0636 29000000 		.4byte	0x29
 1176 063a 25       		.byte	0x25
 1177 063b 00       		.byte	0x0
ARM GAS  C:\Users\DNIEL~1\AppData\Local\Temp\ccXiW4Ag.s 			page 22


 1178 063c 16       		.uleb128 0x16
 1179 063d AD020000 		.4byte	.LASF85
 1180 0641 01       		.byte	0x1
 1181 0642 17       		.byte	0x17
 1182 0643 01       		.byte	0x1
 1183 0644 F1000000 		.4byte	0xf1
 1184 0648 00000000 		.4byte	.LFB118
 1185 064c 48000000 		.4byte	.LFE118
 1186 0650 00000000 		.4byte	.LLST0
 1187 0654 75060000 		.4byte	0x675
 1188 0658 17       		.uleb128 0x17
 1189 0659 61726700 		.ascii	"arg\000"
 1190 065d 01       		.byte	0x1
 1191 065e 17       		.byte	0x17
 1192 065f 30000000 		.4byte	0x30
 1193 0663 20000000 		.4byte	.LLST1
 1194 0667 18       		.uleb128 0x18
 1195 0668 18020000 		.4byte	.LASF87
 1196 066c 01       		.byte	0x1
 1197 066d 19       		.byte	0x19
 1198 066e 07010000 		.4byte	0x107
 1199 0672 F401     		.2byte	0x1f4
 1200 0674 00       		.byte	0x0
 1201 0675 16       		.uleb128 0x16
 1202 0676 33030000 		.4byte	.LASF86
 1203 067a 01       		.byte	0x1
 1204 067b 2E       		.byte	0x2e
 1205 067c 01       		.byte	0x1
 1206 067d F1000000 		.4byte	0xf1
 1207 0681 00000000 		.4byte	.LFB119
 1208 0685 24000000 		.4byte	.LFE119
 1209 0689 33000000 		.4byte	.LLST2
 1210 068d B0060000 		.4byte	0x6b0
 1211 0691 17       		.uleb128 0x17
 1212 0692 61726700 		.ascii	"arg\000"
 1213 0696 01       		.byte	0x1
 1214 0697 2E       		.byte	0x2e
 1215 0698 30000000 		.4byte	0x30
 1216 069c 53000000 		.4byte	.LLST3
 1217 06a0 19       		.uleb128 0x19
 1218 06a1 18020000 		.4byte	.LASF87
 1219 06a5 01       		.byte	0x1
 1220 06a6 2F       		.byte	0x2f
 1221 06a7 07010000 		.4byte	0x107
 1222 06ab 66000000 		.4byte	.LLST4
 1223 06af 00       		.byte	0x0
 1224 06b0 1A       		.uleb128 0x1a
 1225 06b1 01       		.byte	0x1
 1226 06b2 6B000000 		.4byte	.LASF96
 1227 06b6 01       		.byte	0x1
 1228 06b7 40       		.byte	0x40
 1229 06b8 01       		.byte	0x1
 1230 06b9 4E000000 		.4byte	0x4e
 1231 06bd 00000000 		.4byte	.LFB120
 1232 06c1 54000000 		.4byte	.LFE120
 1233 06c5 84000000 		.4byte	.LLST5
 1234 06c9 1B       		.uleb128 0x1b
ARM GAS  C:\Users\DNIEL~1\AppData\Local\Temp\ccXiW4Ag.s 			page 23


 1235 06ca 95000000 		.4byte	.LASF88
 1236 06ce 07       		.byte	0x7
 1237 06cf D1       		.byte	0xd1
 1238 06d0 3B040000 		.4byte	0x43b
 1239 06d4 01       		.byte	0x1
 1240 06d5 01       		.byte	0x1
 1241 06d6 1B       		.uleb128 0x1b
 1242 06d7 5E020000 		.4byte	.LASF89
 1243 06db 08       		.byte	0x8
 1244 06dc 68       		.byte	0x68
 1245 06dd A3040000 		.4byte	0x4a3
 1246 06e1 01       		.byte	0x1
 1247 06e2 01       		.byte	0x1
 1248 06e3 1C       		.uleb128 0x1c
 1249 06e4 65030000 		.4byte	.LASF90
 1250 06e8 0B       		.byte	0xb
 1251 06e9 9806     		.2byte	0x698
 1252 06eb 37050000 		.4byte	0x537
 1253 06ef 01       		.byte	0x1
 1254 06f0 01       		.byte	0x1
 1255 06f1 1D       		.uleb128 0x1d
 1256 06f2 A1030000 		.4byte	.LASF91
 1257 06f6 01       		.byte	0x1
 1258 06f7 16       		.byte	0x16
 1259 06f8 2C060000 		.4byte	0x62c
 1260 06fc 05       		.byte	0x5
 1261 06fd 03       		.byte	0x3
 1262 06fe 00000000 		.4byte	waThread1
 1263 0702 14       		.uleb128 0x14
 1264 0703 B3020000 		.4byte	0x2b3
 1265 0707 12070000 		.4byte	0x712
 1266 070b 15       		.uleb128 0x15
 1267 070c 29000000 		.4byte	0x29
 1268 0710 35       		.byte	0x35
 1269 0711 00       		.byte	0x0
 1270 0712 1D       		.uleb128 0x1d
 1271 0713 B5020000 		.4byte	.LASF92
 1272 0717 01       		.byte	0x1
 1273 0718 2D       		.byte	0x2d
 1274 0719 02070000 		.4byte	0x702
 1275 071d 05       		.byte	0x5
 1276 071e 03       		.byte	0x3
 1277 071f 00000000 		.4byte	watask20ms
 1278 0723 1B       		.uleb128 0x1b
 1279 0724 95000000 		.4byte	.LASF88
 1280 0728 07       		.byte	0x7
 1281 0729 D1       		.byte	0xd1
 1282 072a 3B040000 		.4byte	0x43b
 1283 072e 01       		.byte	0x1
 1284 072f 01       		.byte	0x1
 1285 0730 1B       		.uleb128 0x1b
 1286 0731 5E020000 		.4byte	.LASF89
 1287 0735 08       		.byte	0x8
 1288 0736 68       		.byte	0x68
 1289 0737 A3040000 		.4byte	0x4a3
 1290 073b 01       		.byte	0x1
 1291 073c 01       		.byte	0x1
ARM GAS  C:\Users\DNIEL~1\AppData\Local\Temp\ccXiW4Ag.s 			page 24


 1292 073d 1C       		.uleb128 0x1c
 1293 073e 65030000 		.4byte	.LASF90
 1294 0742 0B       		.byte	0xb
 1295 0743 9806     		.2byte	0x698
 1296 0745 37050000 		.4byte	0x537
 1297 0749 01       		.byte	0x1
 1298 074a 01       		.byte	0x1
 1299 074b 00       		.byte	0x0
 1300              		.section	.debug_abbrev
 1301 0000 01       		.uleb128 0x1
 1302 0001 11       		.uleb128 0x11
 1303 0002 01       		.byte	0x1
 1304 0003 25       		.uleb128 0x25
 1305 0004 0E       		.uleb128 0xe
 1306 0005 13       		.uleb128 0x13
 1307 0006 0B       		.uleb128 0xb
 1308 0007 03       		.uleb128 0x3
 1309 0008 0E       		.uleb128 0xe
 1310 0009 1B       		.uleb128 0x1b
 1311 000a 0E       		.uleb128 0xe
 1312 000b 11       		.uleb128 0x11
 1313 000c 01       		.uleb128 0x1
 1314 000d 52       		.uleb128 0x52
 1315 000e 01       		.uleb128 0x1
 1316 000f 55       		.uleb128 0x55
 1317 0010 06       		.uleb128 0x6
 1318 0011 10       		.uleb128 0x10
 1319 0012 06       		.uleb128 0x6
 1320 0013 00       		.byte	0x0
 1321 0014 00       		.byte	0x0
 1322 0015 02       		.uleb128 0x2
 1323 0016 24       		.uleb128 0x24
 1324 0017 00       		.byte	0x0
 1325 0018 0B       		.uleb128 0xb
 1326 0019 0B       		.uleb128 0xb
 1327 001a 3E       		.uleb128 0x3e
 1328 001b 0B       		.uleb128 0xb
 1329 001c 03       		.uleb128 0x3
 1330 001d 0E       		.uleb128 0xe
 1331 001e 00       		.byte	0x0
 1332 001f 00       		.byte	0x0
 1333 0020 03       		.uleb128 0x3
 1334 0021 0F       		.uleb128 0xf
 1335 0022 00       		.byte	0x0
 1336 0023 0B       		.uleb128 0xb
 1337 0024 0B       		.uleb128 0xb
 1338 0025 00       		.byte	0x0
 1339 0026 00       		.byte	0x0
 1340 0027 04       		.uleb128 0x4
 1341 0028 24       		.uleb128 0x24
 1342 0029 00       		.byte	0x0
 1343 002a 0B       		.uleb128 0xb
 1344 002b 0B       		.uleb128 0xb
 1345 002c 3E       		.uleb128 0x3e
 1346 002d 0B       		.uleb128 0xb
 1347 002e 03       		.uleb128 0x3
 1348 002f 08       		.uleb128 0x8
ARM GAS  C:\Users\DNIEL~1\AppData\Local\Temp\ccXiW4Ag.s 			page 25


 1349 0030 00       		.byte	0x0
 1350 0031 00       		.byte	0x0
 1351 0032 05       		.uleb128 0x5
 1352 0033 0F       		.uleb128 0xf
 1353 0034 00       		.byte	0x0
 1354 0035 0B       		.uleb128 0xb
 1355 0036 0B       		.uleb128 0xb
 1356 0037 49       		.uleb128 0x49
 1357 0038 13       		.uleb128 0x13
 1358 0039 00       		.byte	0x0
 1359 003a 00       		.byte	0x0
 1360 003b 06       		.uleb128 0x6
 1361 003c 26       		.uleb128 0x26
 1362 003d 00       		.byte	0x0
 1363 003e 49       		.uleb128 0x49
 1364 003f 13       		.uleb128 0x13
 1365 0040 00       		.byte	0x0
 1366 0041 00       		.byte	0x0
 1367 0042 07       		.uleb128 0x7
 1368 0043 16       		.uleb128 0x16
 1369 0044 00       		.byte	0x0
 1370 0045 03       		.uleb128 0x3
 1371 0046 0E       		.uleb128 0xe
 1372 0047 3A       		.uleb128 0x3a
 1373 0048 0B       		.uleb128 0xb
 1374 0049 3B       		.uleb128 0x3b
 1375 004a 0B       		.uleb128 0xb
 1376 004b 49       		.uleb128 0x49
 1377 004c 13       		.uleb128 0x13
 1378 004d 00       		.byte	0x0
 1379 004e 00       		.byte	0x0
 1380 004f 08       		.uleb128 0x8
 1381 0050 13       		.uleb128 0x13
 1382 0051 01       		.byte	0x1
 1383 0052 03       		.uleb128 0x3
 1384 0053 0E       		.uleb128 0xe
 1385 0054 0B       		.uleb128 0xb
 1386 0055 0B       		.uleb128 0xb
 1387 0056 3A       		.uleb128 0x3a
 1388 0057 0B       		.uleb128 0xb
 1389 0058 3B       		.uleb128 0x3b
 1390 0059 0B       		.uleb128 0xb
 1391 005a 01       		.uleb128 0x1
 1392 005b 13       		.uleb128 0x13
 1393 005c 00       		.byte	0x0
 1394 005d 00       		.byte	0x0
 1395 005e 09       		.uleb128 0x9
 1396 005f 0D       		.uleb128 0xd
 1397 0060 00       		.byte	0x0
 1398 0061 03       		.uleb128 0x3
 1399 0062 0E       		.uleb128 0xe
 1400 0063 3A       		.uleb128 0x3a
 1401 0064 0B       		.uleb128 0xb
 1402 0065 3B       		.uleb128 0x3b
 1403 0066 0B       		.uleb128 0xb
 1404 0067 49       		.uleb128 0x49
 1405 0068 13       		.uleb128 0x13
ARM GAS  C:\Users\DNIEL~1\AppData\Local\Temp\ccXiW4Ag.s 			page 26


 1406 0069 38       		.uleb128 0x38
 1407 006a 0A       		.uleb128 0xa
 1408 006b 00       		.byte	0x0
 1409 006c 00       		.byte	0x0
 1410 006d 0A       		.uleb128 0xa
 1411 006e 0D       		.uleb128 0xd
 1412 006f 00       		.byte	0x0
 1413 0070 03       		.uleb128 0x3
 1414 0071 08       		.uleb128 0x8
 1415 0072 3A       		.uleb128 0x3a
 1416 0073 0B       		.uleb128 0xb
 1417 0074 3B       		.uleb128 0x3b
 1418 0075 0B       		.uleb128 0xb
 1419 0076 49       		.uleb128 0x49
 1420 0077 13       		.uleb128 0x13
 1421 0078 38       		.uleb128 0x38
 1422 0079 0A       		.uleb128 0xa
 1423 007a 00       		.byte	0x0
 1424 007b 00       		.byte	0x0
 1425 007c 0B       		.uleb128 0xb
 1426 007d 13       		.uleb128 0x13
 1427 007e 01       		.byte	0x1
 1428 007f 0B       		.uleb128 0xb
 1429 0080 0B       		.uleb128 0xb
 1430 0081 3A       		.uleb128 0x3a
 1431 0082 0B       		.uleb128 0xb
 1432 0083 3B       		.uleb128 0x3b
 1433 0084 0B       		.uleb128 0xb
 1434 0085 01       		.uleb128 0x1
 1435 0086 13       		.uleb128 0x13
 1436 0087 00       		.byte	0x0
 1437 0088 00       		.byte	0x0
 1438 0089 0C       		.uleb128 0xc
 1439 008a 13       		.uleb128 0x13
 1440 008b 01       		.byte	0x1
 1441 008c 03       		.uleb128 0x3
 1442 008d 0E       		.uleb128 0xe
 1443 008e 0B       		.uleb128 0xb
 1444 008f 0B       		.uleb128 0xb
 1445 0090 3A       		.uleb128 0x3a
 1446 0091 0B       		.uleb128 0xb
 1447 0092 3B       		.uleb128 0x3b
 1448 0093 05       		.uleb128 0x5
 1449 0094 01       		.uleb128 0x1
 1450 0095 13       		.uleb128 0x13
 1451 0096 00       		.byte	0x0
 1452 0097 00       		.byte	0x0
 1453 0098 0D       		.uleb128 0xd
 1454 0099 0D       		.uleb128 0xd
 1455 009a 00       		.byte	0x0
 1456 009b 03       		.uleb128 0x3
 1457 009c 08       		.uleb128 0x8
 1458 009d 3A       		.uleb128 0x3a
 1459 009e 0B       		.uleb128 0xb
 1460 009f 3B       		.uleb128 0x3b
 1461 00a0 05       		.uleb128 0x5
 1462 00a1 49       		.uleb128 0x49
ARM GAS  C:\Users\DNIEL~1\AppData\Local\Temp\ccXiW4Ag.s 			page 27


 1463 00a2 13       		.uleb128 0x13
 1464 00a3 38       		.uleb128 0x38
 1465 00a4 0A       		.uleb128 0xa
 1466 00a5 00       		.byte	0x0
 1467 00a6 00       		.byte	0x0
 1468 00a7 0E       		.uleb128 0xe
 1469 00a8 35       		.uleb128 0x35
 1470 00a9 00       		.byte	0x0
 1471 00aa 49       		.uleb128 0x49
 1472 00ab 13       		.uleb128 0x13
 1473 00ac 00       		.byte	0x0
 1474 00ad 00       		.byte	0x0
 1475 00ae 0F       		.uleb128 0xf
 1476 00af 15       		.uleb128 0x15
 1477 00b0 01       		.byte	0x1
 1478 00b1 27       		.uleb128 0x27
 1479 00b2 0C       		.uleb128 0xc
 1480 00b3 01       		.uleb128 0x1
 1481 00b4 13       		.uleb128 0x13
 1482 00b5 00       		.byte	0x0
 1483 00b6 00       		.byte	0x0
 1484 00b7 10       		.uleb128 0x10
 1485 00b8 05       		.uleb128 0x5
 1486 00b9 00       		.byte	0x0
 1487 00ba 49       		.uleb128 0x49
 1488 00bb 13       		.uleb128 0x13
 1489 00bc 00       		.byte	0x0
 1490 00bd 00       		.byte	0x0
 1491 00be 11       		.uleb128 0x11
 1492 00bf 17       		.uleb128 0x17
 1493 00c0 01       		.byte	0x1
 1494 00c1 0B       		.uleb128 0xb
 1495 00c2 0B       		.uleb128 0xb
 1496 00c3 3A       		.uleb128 0x3a
 1497 00c4 0B       		.uleb128 0xb
 1498 00c5 3B       		.uleb128 0x3b
 1499 00c6 0B       		.uleb128 0xb
 1500 00c7 01       		.uleb128 0x1
 1501 00c8 13       		.uleb128 0x13
 1502 00c9 00       		.byte	0x0
 1503 00ca 00       		.byte	0x0
 1504 00cb 12       		.uleb128 0x12
 1505 00cc 0D       		.uleb128 0xd
 1506 00cd 00       		.byte	0x0
 1507 00ce 03       		.uleb128 0x3
 1508 00cf 0E       		.uleb128 0xe
 1509 00d0 3A       		.uleb128 0x3a
 1510 00d1 0B       		.uleb128 0xb
 1511 00d2 3B       		.uleb128 0x3b
 1512 00d3 0B       		.uleb128 0xb
 1513 00d4 49       		.uleb128 0x49
 1514 00d5 13       		.uleb128 0x13
 1515 00d6 00       		.byte	0x0
 1516 00d7 00       		.byte	0x0
 1517 00d8 13       		.uleb128 0x13
 1518 00d9 0D       		.uleb128 0xd
 1519 00da 00       		.byte	0x0
ARM GAS  C:\Users\DNIEL~1\AppData\Local\Temp\ccXiW4Ag.s 			page 28


 1520 00db 03       		.uleb128 0x3
 1521 00dc 08       		.uleb128 0x8
 1522 00dd 3A       		.uleb128 0x3a
 1523 00de 0B       		.uleb128 0xb
 1524 00df 3B       		.uleb128 0x3b
 1525 00e0 0B       		.uleb128 0xb
 1526 00e1 49       		.uleb128 0x49
 1527 00e2 13       		.uleb128 0x13
 1528 00e3 00       		.byte	0x0
 1529 00e4 00       		.byte	0x0
 1530 00e5 14       		.uleb128 0x14
 1531 00e6 01       		.uleb128 0x1
 1532 00e7 01       		.byte	0x1
 1533 00e8 49       		.uleb128 0x49
 1534 00e9 13       		.uleb128 0x13
 1535 00ea 01       		.uleb128 0x1
 1536 00eb 13       		.uleb128 0x13
 1537 00ec 00       		.byte	0x0
 1538 00ed 00       		.byte	0x0
 1539 00ee 15       		.uleb128 0x15
 1540 00ef 21       		.uleb128 0x21
 1541 00f0 00       		.byte	0x0
 1542 00f1 49       		.uleb128 0x49
 1543 00f2 13       		.uleb128 0x13
 1544 00f3 2F       		.uleb128 0x2f
 1545 00f4 0B       		.uleb128 0xb
 1546 00f5 00       		.byte	0x0
 1547 00f6 00       		.byte	0x0
 1548 00f7 16       		.uleb128 0x16
 1549 00f8 2E       		.uleb128 0x2e
 1550 00f9 01       		.byte	0x1
 1551 00fa 03       		.uleb128 0x3
 1552 00fb 0E       		.uleb128 0xe
 1553 00fc 3A       		.uleb128 0x3a
 1554 00fd 0B       		.uleb128 0xb
 1555 00fe 3B       		.uleb128 0x3b
 1556 00ff 0B       		.uleb128 0xb
 1557 0100 27       		.uleb128 0x27
 1558 0101 0C       		.uleb128 0xc
 1559 0102 49       		.uleb128 0x49
 1560 0103 13       		.uleb128 0x13
 1561 0104 11       		.uleb128 0x11
 1562 0105 01       		.uleb128 0x1
 1563 0106 12       		.uleb128 0x12
 1564 0107 01       		.uleb128 0x1
 1565 0108 40       		.uleb128 0x40
 1566 0109 06       		.uleb128 0x6
 1567 010a 01       		.uleb128 0x1
 1568 010b 13       		.uleb128 0x13
 1569 010c 00       		.byte	0x0
 1570 010d 00       		.byte	0x0
 1571 010e 17       		.uleb128 0x17
 1572 010f 05       		.uleb128 0x5
 1573 0110 00       		.byte	0x0
 1574 0111 03       		.uleb128 0x3
 1575 0112 08       		.uleb128 0x8
 1576 0113 3A       		.uleb128 0x3a
ARM GAS  C:\Users\DNIEL~1\AppData\Local\Temp\ccXiW4Ag.s 			page 29


 1577 0114 0B       		.uleb128 0xb
 1578 0115 3B       		.uleb128 0x3b
 1579 0116 0B       		.uleb128 0xb
 1580 0117 49       		.uleb128 0x49
 1581 0118 13       		.uleb128 0x13
 1582 0119 02       		.uleb128 0x2
 1583 011a 06       		.uleb128 0x6
 1584 011b 00       		.byte	0x0
 1585 011c 00       		.byte	0x0
 1586 011d 18       		.uleb128 0x18
 1587 011e 34       		.uleb128 0x34
 1588 011f 00       		.byte	0x0
 1589 0120 03       		.uleb128 0x3
 1590 0121 0E       		.uleb128 0xe
 1591 0122 3A       		.uleb128 0x3a
 1592 0123 0B       		.uleb128 0xb
 1593 0124 3B       		.uleb128 0x3b
 1594 0125 0B       		.uleb128 0xb
 1595 0126 49       		.uleb128 0x49
 1596 0127 13       		.uleb128 0x13
 1597 0128 1C       		.uleb128 0x1c
 1598 0129 05       		.uleb128 0x5
 1599 012a 00       		.byte	0x0
 1600 012b 00       		.byte	0x0
 1601 012c 19       		.uleb128 0x19
 1602 012d 34       		.uleb128 0x34
 1603 012e 00       		.byte	0x0
 1604 012f 03       		.uleb128 0x3
 1605 0130 0E       		.uleb128 0xe
 1606 0131 3A       		.uleb128 0x3a
 1607 0132 0B       		.uleb128 0xb
 1608 0133 3B       		.uleb128 0x3b
 1609 0134 0B       		.uleb128 0xb
 1610 0135 49       		.uleb128 0x49
 1611 0136 13       		.uleb128 0x13
 1612 0137 02       		.uleb128 0x2
 1613 0138 06       		.uleb128 0x6
 1614 0139 00       		.byte	0x0
 1615 013a 00       		.byte	0x0
 1616 013b 1A       		.uleb128 0x1a
 1617 013c 2E       		.uleb128 0x2e
 1618 013d 00       		.byte	0x0
 1619 013e 3F       		.uleb128 0x3f
 1620 013f 0C       		.uleb128 0xc
 1621 0140 03       		.uleb128 0x3
 1622 0141 0E       		.uleb128 0xe
 1623 0142 3A       		.uleb128 0x3a
 1624 0143 0B       		.uleb128 0xb
 1625 0144 3B       		.uleb128 0x3b
 1626 0145 0B       		.uleb128 0xb
 1627 0146 27       		.uleb128 0x27
 1628 0147 0C       		.uleb128 0xc
 1629 0148 49       		.uleb128 0x49
 1630 0149 13       		.uleb128 0x13
 1631 014a 11       		.uleb128 0x11
 1632 014b 01       		.uleb128 0x1
 1633 014c 12       		.uleb128 0x12
ARM GAS  C:\Users\DNIEL~1\AppData\Local\Temp\ccXiW4Ag.s 			page 30


 1634 014d 01       		.uleb128 0x1
 1635 014e 40       		.uleb128 0x40
 1636 014f 06       		.uleb128 0x6
 1637 0150 00       		.byte	0x0
 1638 0151 00       		.byte	0x0
 1639 0152 1B       		.uleb128 0x1b
 1640 0153 34       		.uleb128 0x34
 1641 0154 00       		.byte	0x0
 1642 0155 03       		.uleb128 0x3
 1643 0156 0E       		.uleb128 0xe
 1644 0157 3A       		.uleb128 0x3a
 1645 0158 0B       		.uleb128 0xb
 1646 0159 3B       		.uleb128 0x3b
 1647 015a 0B       		.uleb128 0xb
 1648 015b 49       		.uleb128 0x49
 1649 015c 13       		.uleb128 0x13
 1650 015d 3F       		.uleb128 0x3f
 1651 015e 0C       		.uleb128 0xc
 1652 015f 3C       		.uleb128 0x3c
 1653 0160 0C       		.uleb128 0xc
 1654 0161 00       		.byte	0x0
 1655 0162 00       		.byte	0x0
 1656 0163 1C       		.uleb128 0x1c
 1657 0164 34       		.uleb128 0x34
 1658 0165 00       		.byte	0x0
 1659 0166 03       		.uleb128 0x3
 1660 0167 0E       		.uleb128 0xe
 1661 0168 3A       		.uleb128 0x3a
 1662 0169 0B       		.uleb128 0xb
 1663 016a 3B       		.uleb128 0x3b
 1664 016b 05       		.uleb128 0x5
 1665 016c 49       		.uleb128 0x49
 1666 016d 13       		.uleb128 0x13
 1667 016e 3F       		.uleb128 0x3f
 1668 016f 0C       		.uleb128 0xc
 1669 0170 3C       		.uleb128 0x3c
 1670 0171 0C       		.uleb128 0xc
 1671 0172 00       		.byte	0x0
 1672 0173 00       		.byte	0x0
 1673 0174 1D       		.uleb128 0x1d
 1674 0175 34       		.uleb128 0x34
 1675 0176 00       		.byte	0x0
 1676 0177 03       		.uleb128 0x3
 1677 0178 0E       		.uleb128 0xe
 1678 0179 3A       		.uleb128 0x3a
 1679 017a 0B       		.uleb128 0xb
 1680 017b 3B       		.uleb128 0x3b
 1681 017c 0B       		.uleb128 0xb
 1682 017d 49       		.uleb128 0x49
 1683 017e 13       		.uleb128 0x13
 1684 017f 02       		.uleb128 0x2
 1685 0180 0A       		.uleb128 0xa
 1686 0181 00       		.byte	0x0
 1687 0182 00       		.byte	0x0
 1688 0183 00       		.byte	0x0
 1689              		.section	.debug_pubnames,"",%progbits
 1690 0000 17000000 		.4byte	0x17
ARM GAS  C:\Users\DNIEL~1\AppData\Local\Temp\ccXiW4Ag.s 			page 31


 1691 0004 0200     		.2byte	0x2
 1692 0006 00000000 		.4byte	.Ldebug_info0
 1693 000a 4C070000 		.4byte	0x74c
 1694 000e B0060000 		.4byte	0x6b0
 1695 0012 6D61696E 		.ascii	"main\000"
 1695      00
 1696 0017 00000000 		.4byte	0x0
 1697              		.section	.debug_pubtypes,"",%progbits
 1698 0000 9C010000 		.4byte	0x19c
 1699 0004 0200     		.2byte	0x2
 1700 0006 00000000 		.4byte	.Ldebug_info0
 1701 000a 4C070000 		.4byte	0x74c
 1702 000e 83000000 		.4byte	0x83
 1703 0012 75696E74 		.ascii	"uint8_t\000"
 1703      385F7400 
 1704 001a 8E000000 		.4byte	0x8e
 1705 001e 75696E74 		.ascii	"uint16_t\000"
 1705      31365F74 
 1705      00
 1706 0027 99000000 		.4byte	0x99
 1707 002b 696E7433 		.ascii	"int32_t\000"
 1707      325F7400 
 1708 0033 A4000000 		.4byte	0xa4
 1709 0037 75696E74 		.ascii	"uint32_t\000"
 1709      33325F74 
 1709      00
 1710 0040 AF000000 		.4byte	0xaf
 1711 0044 75696E74 		.ascii	"uint64_t\000"
 1711      36345F74 
 1711      00
 1712 004d BA000000 		.4byte	0xba
 1713 0051 746D6F64 		.ascii	"tmode_t\000"
 1713      655F7400 
 1714 0059 C5000000 		.4byte	0xc5
 1715 005d 74737461 		.ascii	"tstate_t\000"
 1715      74655F74 
 1715      00
 1716 0066 D0000000 		.4byte	0xd0
 1717 006a 74726566 		.ascii	"trefs_t\000"
 1717      735F7400 
 1718 0072 DB000000 		.4byte	0xdb
 1719 0076 74736C69 		.ascii	"tslices_t\000"
 1719      6365735F 
 1719      7400
 1720 0080 E6000000 		.4byte	0xe6
 1721 0084 74707269 		.ascii	"tprio_t\000"
 1721      6F5F7400 
 1722 008c F1000000 		.4byte	0xf1
 1723 0090 6D73675F 		.ascii	"msg_t\000"
 1723      7400
 1724 0096 FC000000 		.4byte	0xfc
 1725 009a 6576656E 		.ascii	"eventmask_t\000"
 1725      746D6173 
 1725      6B5F7400 
 1726 00a6 07010000 		.4byte	0x107
 1727 00aa 73797374 		.ascii	"systime_t\000"
 1727      696D655F 
ARM GAS  C:\Users\DNIEL~1\AppData\Local\Temp\ccXiW4Ag.s 			page 32


 1727      7400
 1728 00b4 12010000 		.4byte	0x112
 1729 00b8 54687265 		.ascii	"Thread\000"
 1729      616400
 1730 00bf 7B020000 		.4byte	0x27b
 1731 00c3 54687265 		.ascii	"ThreadsQueue\000"
 1731      61647351 
 1731      75657565 
 1731      00
 1732 00d0 9D020000 		.4byte	0x29d
 1733 00d4 54687265 		.ascii	"ThreadsList\000"
 1733      6164734C 
 1733      69737400 
 1734 00e0 A8020000 		.4byte	0x2a8
 1735 00e4 72656761 		.ascii	"regarm_t\000"
 1735      726D5F74 
 1735      00
 1736 00ed B3020000 		.4byte	0x2b3
 1737 00f1 73746B61 		.ascii	"stkalign_t\000"
 1737      6C69676E 
 1737      5F7400
 1738 00fc BE020000 		.4byte	0x2be
 1739 0100 696E7463 		.ascii	"intctx\000"
 1739      747800
 1740 0107 4C030000 		.4byte	0x34c
 1741 010b 636F6E74 		.ascii	"context\000"
 1741      65787400 
 1742 0113 74030000 		.4byte	0x374
 1743 0117 76746675 		.ascii	"vtfunc_t\000"
 1743      6E635F74 
 1743      00
 1744 0120 91030000 		.4byte	0x391
 1745 0124 56697274 		.ascii	"VirtualTimer\000"
 1745      75616C54 
 1745      696D6572 
 1745      00
 1746 0131 9C030000 		.4byte	0x39c
 1747 0135 56697274 		.ascii	"VirtualTimer\000"
 1747      75616C54 
 1747      696D6572 
 1747      00
 1748 0142 3B040000 		.4byte	0x43b
 1749 0146 56544C69 		.ascii	"VTList\000"
 1749      737400
 1750 014d A3040000 		.4byte	0x4a3
 1751 0151 52656164 		.ascii	"ReadyList\000"
 1751      794C6973 
 1751      7400
 1752 015b AE040000 		.4byte	0x4ae
 1753 015f 4D757465 		.ascii	"Mutex\000"
 1753      7800
 1754 0165 EB040000 		.4byte	0x4eb
 1755 0169 4D757465 		.ascii	"Mutex\000"
 1755      7800
 1756 016f 1D010000 		.4byte	0x11d
 1757 0173 54687265 		.ascii	"Thread\000"
 1757      616400
ARM GAS  C:\Users\DNIEL~1\AppData\Local\Temp\ccXiW4Ag.s 			page 33


 1758 017a 16060000 		.4byte	0x616
 1759 017e 4750494F 		.ascii	"GPIO_TypeDef\000"
 1759      5F547970 
 1759      65446566 
 1759      00
 1760 018b 21060000 		.4byte	0x621
 1761 018f 696F706F 		.ascii	"ioportmask_t\000"
 1761      72746D61 
 1761      736B5F74 
 1761      00
 1762 019c 00000000 		.4byte	0x0
 1763              		.section	.debug_aranges,"",%progbits
 1764 0000 2C000000 		.4byte	0x2c
 1765 0004 0200     		.2byte	0x2
 1766 0006 00000000 		.4byte	.Ldebug_info0
 1767 000a 04       		.byte	0x4
 1768 000b 00       		.byte	0x0
 1769 000c 0000     		.2byte	0x0
 1770 000e 0000     		.2byte	0x0
 1771 0010 00000000 		.4byte	.LFB118
 1772 0014 48000000 		.4byte	.LFE118-.LFB118
 1773 0018 00000000 		.4byte	.LFB119
 1774 001c 24000000 		.4byte	.LFE119-.LFB119
 1775 0020 00000000 		.4byte	.LFB120
 1776 0024 54000000 		.4byte	.LFE120-.LFB120
 1777 0028 00000000 		.4byte	0x0
 1778 002c 00000000 		.4byte	0x0
 1779              		.section	.debug_ranges,"",%progbits
 1780              	.Ldebug_ranges0:
 1781 0000 00000000 		.4byte	.LFB118
 1782 0004 48000000 		.4byte	.LFE118
 1783 0008 00000000 		.4byte	.LFB119
 1784 000c 24000000 		.4byte	.LFE119
 1785 0010 00000000 		.4byte	.LFB120
 1786 0014 54000000 		.4byte	.LFE120
 1787 0018 00000000 		.4byte	0x0
 1788 001c 00000000 		.4byte	0x0
 1789              		.section	.debug_str,"MS",%progbits,1
 1790              	.LASF83:
 1791 0000 4750494F 		.ascii	"GPIO_TypeDef\000"
 1791      5F547970 
 1791      65446566 
 1791      00
 1792              	.LASF17:
 1793 000d 74726566 		.ascii	"trefs_t\000"
 1793      735F7400 
 1794              	.LASF74:
 1795 0015 636C6561 		.ascii	"clear\000"
 1795      7200
 1796              	.LASF14:
 1797 001b 75696E74 		.ascii	"uint64_t\000"
 1797      36345F74 
 1797      00
 1798              	.LASF45:
 1799 0024 54687265 		.ascii	"ThreadsList\000"
 1799      6164734C 
 1799      69737400 
ARM GAS  C:\Users\DNIEL~1\AppData\Local\Temp\ccXiW4Ag.s 			page 34


 1800              	.LASF3:
 1801 0030 73686F72 		.ascii	"short int\000"
 1801      7420696E 
 1801      7400
 1802              	.LASF59:
 1803 003a 725F7175 		.ascii	"r_queue\000"
 1803      65756500 
 1804              	.LASF69:
 1805 0042 6D5F6E65 		.ascii	"m_next\000"
 1805      787400
 1806              	.LASF40:
 1807 0049 705F6570 		.ascii	"p_epending\000"
 1807      656E6469 
 1807      6E6700
 1808              	.LASF65:
 1809 0054 52656164 		.ascii	"ReadyList\000"
 1809      794C6973 
 1809      7400
 1810              	.LASF25:
 1811 005e 705F7072 		.ascii	"p_prev\000"
 1811      657600
 1812              	.LASF61:
 1813 0065 725F6374 		.ascii	"r_ctx\000"
 1813      7800
 1814              	.LASF96:
 1815 006b 6D61696E 		.ascii	"main\000"
 1815      00
 1816              	.LASF21:
 1817 0070 6576656E 		.ascii	"eventmask_t\000"
 1817      746D6173 
 1817      6B5F7400 
 1818              	.LASF38:
 1819 007c 705F6D73 		.ascii	"p_msgqueue\000"
 1819      67717565 
 1819      756500
 1820              	.LASF26:
 1821 0087 705F7072 		.ascii	"p_prio\000"
 1821      696F00
 1822              	.LASF24:
 1823 008e 705F6E65 		.ascii	"p_next\000"
 1823      787400
 1824              	.LASF88:
 1825 0095 76746C69 		.ascii	"vtlist\000"
 1825      737400
 1826              	.LASF79:
 1827 009c 42535252 		.ascii	"BSRR\000"
 1827      00
 1828              	.LASF56:
 1829 00a1 76745F70 		.ascii	"vt_par\000"
 1829      617200
 1830              	.LASF55:
 1831 00a8 76745F66 		.ascii	"vt_func\000"
 1831      756E6300 
 1832              	.LASF46:
 1833 00b0 72656761 		.ascii	"regarm_t\000"
 1833      726D5F74 
 1833      00
ARM GAS  C:\Users\DNIEL~1\AppData\Local\Temp\ccXiW4Ag.s 			page 35


 1834              	.LASF10:
 1835 00b9 75696E74 		.ascii	"uint8_t\000"
 1835      385F7400 
 1836              	.LASF57:
 1837 00c1 76745F73 		.ascii	"vt_systime\000"
 1837      79737469 
 1837      6D6500
 1838              	.LASF18:
 1839 00cc 74736C69 		.ascii	"tslices_t\000"
 1839      6365735F 
 1839      7400
 1840              	.LASF84:
 1841 00d6 696F706F 		.ascii	"ioportmask_t\000"
 1841      72746D61 
 1841      736B5F74 
 1841      00
 1842              	.LASF36:
 1843 00e3 705F7469 		.ascii	"p_time\000"
 1843      6D6500
 1844              	.LASF76:
 1845 00ea 4F545950 		.ascii	"OTYPER\000"
 1845      455200
 1846              	.LASF15:
 1847 00f1 746D6F64 		.ascii	"tmode_t\000"
 1847      655F7400 
 1848              	.LASF5:
 1849 00f9 6C6F6E67 		.ascii	"long long int\000"
 1849      206C6F6E 
 1849      6720696E 
 1849      7400
 1850              	.LASF19:
 1851 0107 74707269 		.ascii	"tprio_t\000"
 1851      6F5F7400 
 1852              	.LASF78:
 1853 010f 50555044 		.ascii	"PUPDR\000"
 1853      5200
 1854              	.LASF31:
 1855 0115 705F7374 		.ascii	"p_stklimit\000"
 1855      6B6C696D 
 1855      697400
 1856              	.LASF7:
 1857 0120 6C6F6E67 		.ascii	"long int\000"
 1857      20696E74 
 1857      00
 1858              	.LASF66:
 1859 0129 4D757465 		.ascii	"Mutex\000"
 1859      7800
 1860              	.LASF67:
 1861 012f 6D5F7175 		.ascii	"m_queue\000"
 1861      65756500 
 1862              	.LASF49:
 1863 0137 636F6E74 		.ascii	"context\000"
 1863      65787400 
 1864              	.LASF37:
 1865 013f 705F7761 		.ascii	"p_waiting\000"
 1865      6974696E 
 1865      6700
ARM GAS  C:\Users\DNIEL~1\AppData\Local\Temp\ccXiW4Ag.s 			page 36


 1866              	.LASF64:
 1867 0149 725F6375 		.ascii	"r_current\000"
 1867      7272656E 
 1867      7400
 1868              	.LASF39:
 1869 0153 705F6D73 		.ascii	"p_msg\000"
 1869      6700
 1870              	.LASF95:
 1871 0159 433A5C55 		.ascii	"C:\\Users\\D\341niel\\Dropbox\\Solar Racing\\Szoftv"
 1871      73657273 
 1871      5C44E16E 
 1871      69656C5C 
 1871      44726F70 
 1872 0184 65725C4D 		.ascii	"er\\Modulux\\Modulux_v0\\modulux\\firmware\000"
 1872      6F64756C 
 1872      75785C4D 
 1872      6F64756C 
 1872      75785F76 
 1873              	.LASF20:
 1874 01ab 6D73675F 		.ascii	"msg_t\000"
 1874      7400
 1875              	.LASF2:
 1876 01b1 756E7369 		.ascii	"unsigned char\000"
 1876      676E6564 
 1876      20636861 
 1876      7200
 1877              	.LASF73:
 1878 01bf 65776D61 		.ascii	"ewmask\000"
 1878      736B00
 1879              	.LASF1:
 1880 01c6 7369676E 		.ascii	"signed char\000"
 1880      65642063 
 1880      68617200 
 1881              	.LASF28:
 1882 01d2 705F6E65 		.ascii	"p_newer\000"
 1882      77657200 
 1883              	.LASF6:
 1884 01da 6C6F6E67 		.ascii	"long long unsigned int\000"
 1884      206C6F6E 
 1884      6720756E 
 1884      7369676E 
 1884      65642069 
 1885              	.LASF13:
 1886 01f1 75696E74 		.ascii	"uint32_t\000"
 1886      33325F74 
 1886      00
 1887              	.LASF0:
 1888 01fa 756E7369 		.ascii	"unsigned int\000"
 1888      676E6564 
 1888      20696E74 
 1888      00
 1889              	.LASF11:
 1890 0207 75696E74 		.ascii	"uint16_t\000"
 1890      31365F74 
 1890      00
 1891              	.LASF52:
 1892 0210 76745F6E 		.ascii	"vt_next\000"
ARM GAS  C:\Users\DNIEL~1\AppData\Local\Temp\ccXiW4Ag.s 			page 37


 1892      65787400 
 1893              	.LASF87:
 1894 0218 74696D65 		.ascii	"time\000"
 1894      00
 1895              	.LASF82:
 1896 021d 41465248 		.ascii	"AFRH\000"
 1896      00
 1897              	.LASF43:
 1898 0222 705F6D70 		.ascii	"p_mpool\000"
 1898      6F6F6C00 
 1899              	.LASF81:
 1900 022a 4146524C 		.ascii	"AFRL\000"
 1900      00
 1901              	.LASF62:
 1902 022f 725F6E65 		.ascii	"r_newer\000"
 1902      77657200 
 1903              	.LASF33:
 1904 0237 705F666C 		.ascii	"p_flags\000"
 1904      61677300 
 1905              	.LASF35:
 1906 023f 705F7072 		.ascii	"p_preempt\000"
 1906      65656D70 
 1906      7400
 1907              	.LASF42:
 1908 0249 705F7265 		.ascii	"p_realprio\000"
 1908      616C7072 
 1908      696F00
 1909              	.LASF22:
 1910 0254 73797374 		.ascii	"systime_t\000"
 1910      696D655F 
 1910      7400
 1911              	.LASF89:
 1912 025e 726C6973 		.ascii	"rlist\000"
 1912      7400
 1913              	.LASF9:
 1914 0264 63686172 		.ascii	"char\000"
 1914      00
 1915              	.LASF30:
 1916 0269 705F6E61 		.ascii	"p_name\000"
 1916      6D6500
 1917              	.LASF12:
 1918 0270 696E7433 		.ascii	"int32_t\000"
 1918      325F7400 
 1919              	.LASF60:
 1920 0278 725F7072 		.ascii	"r_prio\000"
 1920      696F00
 1921              	.LASF32:
 1922 027f 705F7374 		.ascii	"p_state\000"
 1922      61746500 
 1923              	.LASF4:
 1924 0287 73686F72 		.ascii	"short unsigned int\000"
 1924      7420756E 
 1924      7369676E 
 1924      65642069 
 1924      6E7400
 1925              	.LASF44:
 1926 029a 54687265 		.ascii	"ThreadsQueue\000"
ARM GAS  C:\Users\DNIEL~1\AppData\Local\Temp\ccXiW4Ag.s 			page 38


 1926      61647351 
 1926      75657565 
 1926      00
 1927              	.LASF75:
 1928 02a7 4D4F4445 		.ascii	"MODER\000"
 1928      5200
 1929              	.LASF85:
 1930 02ad 54687265 		.ascii	"Thread1\000"
 1930      61643100 
 1931              	.LASF92:
 1932 02b5 77617461 		.ascii	"watask20ms\000"
 1932      736B3230 
 1932      6D7300
 1933              	.LASF41:
 1934 02c0 705F6D74 		.ascii	"p_mtxlist\000"
 1934      786C6973 
 1934      7400
 1935              	.LASF48:
 1936 02ca 696E7463 		.ascii	"intctx\000"
 1936      747800
 1937              	.LASF77:
 1938 02d1 4F535045 		.ascii	"OSPEEDR\000"
 1938      45445200 
 1939              	.LASF8:
 1940 02d9 6C6F6E67 		.ascii	"long unsigned int\000"
 1940      20756E73 
 1940      69676E65 
 1940      6420696E 
 1940      7400
 1941              	.LASF93:
 1942 02eb 474E5520 		.ascii	"GNU C 4.5.2\000"
 1942      4320342E 
 1942      352E3200 
 1943              	.LASF53:
 1944 02f7 76745F70 		.ascii	"vt_prev\000"
 1944      72657600 
 1945              	.LASF23:
 1946 02ff 54687265 		.ascii	"Thread\000"
 1946      616400
 1947              	.LASF72:
 1948 0306 77746F62 		.ascii	"wtobjp\000"
 1948      6A7000
 1949              	.LASF16:
 1950 030d 74737461 		.ascii	"tstate_t\000"
 1950      74655F74 
 1950      00
 1951              	.LASF47:
 1952 0316 73746B61 		.ascii	"stkalign_t\000"
 1952      6C69676E 
 1952      5F7400
 1953              	.LASF71:
 1954 0321 65786974 		.ascii	"exitcode\000"
 1954      636F6465 
 1954      00
 1955              	.LASF50:
 1956 032a 76746675 		.ascii	"vtfunc_t\000"
 1956      6E635F74 
ARM GAS  C:\Users\DNIEL~1\AppData\Local\Temp\ccXiW4Ag.s 			page 39


 1956      00
 1957              	.LASF86:
 1958 0333 7461736B 		.ascii	"task20ms\000"
 1958      32306D73 
 1958      00
 1959              	.LASF29:
 1960 033c 705F6F6C 		.ascii	"p_older\000"
 1960      64657200 
 1961              	.LASF51:
 1962 0344 56697274 		.ascii	"VirtualTimer\000"
 1962      75616C54 
 1962      696D6572 
 1962      00
 1963              	.LASF58:
 1964 0351 56544C69 		.ascii	"VTList\000"
 1964      737400
 1965              	.LASF34:
 1966 0358 705F7265 		.ascii	"p_refs\000"
 1966      667300
 1967              	.LASF27:
 1968 035f 705F6374 		.ascii	"p_ctx\000"
 1968      7800
 1969              	.LASF90:
 1970 0365 49544D5F 		.ascii	"ITM_RxBuffer\000"
 1970      52784275 
 1970      66666572 
 1970      00
 1971              	.LASF68:
 1972 0372 6D5F6F77 		.ascii	"m_owner\000"
 1972      6E657200 
 1973              	.LASF80:
 1974 037a 4C434B52 		.ascii	"LCKR\000"
 1974      00
 1975              	.LASF70:
 1976 037f 7264796D 		.ascii	"rdymsg\000"
 1976      736700
 1977              	.LASF54:
 1978 0386 76745F74 		.ascii	"vt_time\000"
 1978      696D6500 
 1979              	.LASF94:
 1980 038e 7372632F 		.ascii	"src/main.c\000"
 1980      6D61696E 
 1980      2E6300
 1981              	.LASF63:
 1982 0399 725F6F6C 		.ascii	"r_older\000"
 1982      64657200 
 1983              	.LASF91:
 1984 03a1 77615468 		.ascii	"waThread1\000"
 1984      72656164 
 1984      3100
 1985              		.ident	"GCC: (Sourcery G++ Lite 2011.03-42) 4.5.2"
ARM GAS  C:\Users\DNIEL~1\AppData\Local\Temp\ccXiW4Ag.s 			page 40


DEFINED SYMBOLS
                            *ABS*:00000000 main.c
C:\Users\DNIEL~1\AppData\Local\Temp\ccXiW4Ag.s:24     .text.Thread1:00000000 $t
C:\Users\DNIEL~1\AppData\Local\Temp\ccXiW4Ag.s:29     .text.Thread1:00000000 Thread1
C:\Users\DNIEL~1\AppData\Local\Temp\ccXiW4Ag.s:95     .text.Thread1:00000038 $d
C:\Users\DNIEL~1\AppData\Local\Temp\ccXiW4Ag.s:103    .text.task20ms:00000000 $t
C:\Users\DNIEL~1\AppData\Local\Temp\ccXiW4Ag.s:108    .text.task20ms:00000000 task20ms
C:\Users\DNIEL~1\AppData\Local\Temp\ccXiW4Ag.s:145    .text.task20ms:00000018 $d
C:\Users\DNIEL~1\AppData\Local\Temp\ccXiW4Ag.s:152    .text.main:00000000 $t
C:\Users\DNIEL~1\AppData\Local\Temp\ccXiW4Ag.s:158    .text.main:00000000 main
C:\Users\DNIEL~1\AppData\Local\Temp\ccXiW4Ag.s:210    .text.main:00000040 $d
C:\Users\DNIEL~1\AppData\Local\Temp\ccXiW4Ag.s:219    .bss.waThread1:00000000 $d
C:\Users\DNIEL~1\AppData\Local\Temp\ccXiW4Ag.s:223    .bss.waThread1:00000000 waThread1
C:\Users\DNIEL~1\AppData\Local\Temp\ccXiW4Ag.s:226    .bss.watask20ms:00000000 $d
C:\Users\DNIEL~1\AppData\Local\Temp\ccXiW4Ag.s:230    .bss.watask20ms:00000000 watask20ms
C:\Users\DNIEL~1\AppData\Local\Temp\ccXiW4Ag.s:233    .rodata.str1.4:00000000 $d
                     .debug_frame:00000010 $d
C:\Users\DNIEL~1\AppData\Local\Temp\ccXiW4Ag.s:102    .text.Thread1:00000048 $t
C:\Users\DNIEL~1\AppData\Local\Temp\ccXiW4Ag.s:151    .text.task20ms:00000024 $t
C:\Users\DNIEL~1\AppData\Local\Temp\ccXiW4Ag.s:218    .text.main:00000054 $t

UNDEFINED SYMBOLS
chThdSleep
rlist
chThdSleepUntil
vtlist
halInit
chSysInit
chThdCreateStatic
