ARM GAS  C:\Users\RICHRD~1\AppData\Local\Temp\ccN71VnR.s 			page 1


   1              		.syntax unified
   2              		.cpu cortex-m4
   3              		.fpu softvfp
   4              		.eabi_attribute 20, 1
   5              		.eabi_attribute 21, 1
   6              		.eabi_attribute 23, 3
   7              		.eabi_attribute 24, 1
   8              		.eabi_attribute 25, 1
   9              		.eabi_attribute 26, 1
  10              		.eabi_attribute 30, 2
  11              		.eabi_attribute 34, 1
  12              		.eabi_attribute 18, 4
  13              		.thumb
  14              		.file	"one_vire_comm.c"
  15              		.text
  16              	.Ltext0:
  17              		.cfi_sections	.debug_frame
  18              		.section	.text.chprintf,"ax",%progbits
  19              		.align	2
  20              		.p2align 4,,15
  21              		.thumb
  22              		.thumb_func
  23              		.type	chprintf, %function
  24              	chprintf:
  25              	.LFB118:
  26              		.file 1 "../../Chibios/os/various/chprintf.h"
  27              		.loc 1 69 0
  28              		.cfi_startproc
  29              		@ args = 4, pretend = 12, frame = 8
  30              		@ frame_needed = 0, uses_anonymous_args = 1
  31              	.LVL0:
  32 0000 0EB4     		push	{r1, r2, r3}
  33              	.LCFI0:
  34              		.cfi_def_cfa_offset 12
  35              		.cfi_offset 1, -12
  36              		.cfi_offset 2, -8
  37              		.cfi_offset 3, -4
  38 0002 00B5     		push	{lr}
  39              	.LCFI1:
  40              		.cfi_def_cfa_offset 16
  41              		.cfi_offset 14, -16
  42 0004 82B0     		sub	sp, sp, #8
  43              	.LCFI2:
  44              		.cfi_def_cfa_offset 24
  45              		.loc 1 69 0
  46 0006 03AB     		add	r3, sp, #12
  47 0008 53F8041B 		ldr	r1, [r3], #4
  48              		.loc 1 73 0
  49 000c 1A46     		mov	r2, r3
  50              		.loc 1 72 0
  51 000e 0193     		str	r3, [sp, #4]
  52              		.loc 1 73 0
  53 0010 FFF7FEFF 		bl	chvprintf
  54              	.LVL1:
  55              		.loc 1 75 0
  56 0014 02B0     		add	sp, sp, #8
  57 0016 5DF804EB 		pop	{lr}
ARM GAS  C:\Users\RICHRD~1\AppData\Local\Temp\ccN71VnR.s 			page 2


  58 001a 03B0     		add	sp, sp, #12
  59 001c 7047     		bx	lr
  60              		.cfi_endproc
  61              	.LFE118:
  62              		.size	chprintf, .-chprintf
  63 001e 00BF     		.section	.text.ds18b20_polling_thread,"ax",%progbits
  64              		.align	2
  65              		.p2align 4,,15
  66              		.thumb
  67              		.thumb_func
  68              		.type	ds18b20_polling_thread, %function
  69              	ds18b20_polling_thread:
  70              	.LFB119:
  71              		.file 2 "src/one_vire_comm.c"
  72              		.loc 2 19 0
  73              		.cfi_startproc
  74              		@ args = 0, pretend = 0, frame = 0
  75              		@ frame_needed = 0, uses_anonymous_args = 0
  76              	.LVL2:
  77              		.loc 2 22 0
  78 0000 114B     		ldr	r3, .L8
  79              		.loc 2 19 0
  80 0002 2DE9F041 		push	{r4, r5, r6, r7, r8, lr}
  81              	.LCFI3:
  82              		.cfi_def_cfa_offset 24
  83              		.cfi_offset 4, -24
  84              		.cfi_offset 5, -20
  85              		.cfi_offset 6, -16
  86              		.cfi_offset 7, -12
  87              		.cfi_offset 8, -8
  88              		.cfi_offset 14, -4
  89 0006 114E     		ldr	r6, .L8+4
  90              		.loc 2 22 0
  91 0008 DC68     		ldr	r4, [r3, #12]
  92              	.LVL3:
  93 000a 114F     		ldr	r7, .L8+8
  94 000c 114D     		ldr	r5, .L8+12
  95 000e 11E0     		b	.L6
  96              	.LVL4:
  97              	.L3:
  98              		.loc 2 32 0
  99 0010 2968     		ldr	r1, [r5, #0]
 100 0012 C8B2     		uxtb	r0, r1
 101 0014 01F1FF38 		add	r8, r1, #-1
 102 0018 FFF7FEFF 		bl	DS18B20_GetTemp
 103              	.LVL5:
 104 001c 47F82800 		str	r0, [r7, r8, lsl #2]	@ float
 105              	.L4:
 106              		.loc 2 35 0
 107 0020 2B68     		ldr	r3, [r5, #0]
 108              		.loc 2 36 0
 109 0022 3268     		ldr	r2, [r6, #0]
 110              		.loc 2 35 0
 111 0024 591C     		adds	r1, r3, #1
 112              		.loc 2 36 0
 113 0026 9142     		cmp	r1, r2
 114 0028 C8BF     		it	gt
ARM GAS  C:\Users\RICHRD~1\AppData\Local\Temp\ccN71VnR.s 			page 3


 115 002a 0121     		movgt	r1, #1
 116              		.loc 2 38 0
 117 002c 2046     		mov	r0, r4
 118              		.loc 2 36 0
 119 002e 2960     		str	r1, [r5, #0]
 120              		.loc 2 38 0
 121 0030 FFF7FEFF 		bl	chThdSleepUntil
 122              	.LVL6:
 123              	.L6:
 124              		.loc 2 27 0
 125 0034 3068     		ldr	r0, [r6, #0]
 126 0036 0128     		cmp	r0, #1
 127              		.loc 2 25 0
 128 0038 04F5FA74 		add	r4, r4, #500
 129              	.LVL7:
 130              		.loc 2 27 0
 131 003c E8D1     		bne	.L3
 132              		.loc 2 28 0
 133 003e 0020     		movs	r0, #0
 134 0040 FFF7FEFF 		bl	DS18B20_GetTemp
 135              	.LVL8:
 136 0044 3860     		str	r0, [r7, #0]	@ float
 137 0046 EBE7     		b	.L4
 138              	.L9:
 139              		.align	2
 140              	.L8:
 141 0048 00000000 		.word	vtlist
 142 004c 00000000 		.word	.LANCHOR0
 143 0050 00000000 		.word	.LANCHOR1
 144 0054 00000000 		.word	.LANCHOR2
 145              		.cfi_endproc
 146              	.LFE119:
 147              		.size	ds18b20_polling_thread, .-ds18b20_polling_thread
 148 0058 AFF30080 		.section	.text.one_vireInit,"ax",%progbits
 148      AFF30080 
 149              		.align	2
 150              		.p2align 4,,15
 151              		.global	one_vireInit
 152              		.thumb
 153              		.thumb_func
 154              		.type	one_vireInit, %function
 155              	one_vireInit:
 156              	.LFB120:
 157              		.loc 2 42 0
 158              		.cfi_startproc
 159              		@ args = 0, pretend = 0, frame = 0
 160              		@ frame_needed = 0, uses_anonymous_args = 0
 161 0000 00B5     		push	{lr}
 162              	.LCFI4:
 163              		.cfi_def_cfa_offset 4
 164              		.cfi_offset 14, -4
 165 0002 83B0     		sub	sp, sp, #12
 166              	.LCFI5:
 167              		.cfi_def_cfa_offset 16
 168              		.loc 2 44 0
 169 0004 FFF7FEFF 		bl	DS18B20_Init
 170              	.LVL9:
ARM GAS  C:\Users\RICHRD~1\AppData\Local\Temp\ccN71VnR.s 			page 4


 171              		.loc 2 46 0
 172 0008 FFF7FEFF 		bl	DS18B20_ScanBus
 173              	.LVL10:
 174 000c 40F20003 		movw	r3, #:lower16:.LANCHOR0
 175 0010 C0F20003 		movt	r3, #:upper16:.LANCHOR0
 176              		.loc 2 51 0
 177 0014 4FF43471 		mov	r1, #720
 178              		.loc 2 46 0
 179 0018 1860     		str	r0, [r3, #0]
 180              		.loc 2 51 0
 181 001a 0020     		movs	r0, #0
 182 001c 0090     		str	r0, [sp, #0]
 183 001e 40F20003 		movw	r3, #:lower16:ds18b20_polling_thread
 184 0022 40F20000 		movw	r0, #:lower16:.LANCHOR3
 185 0026 4022     		movs	r2, #64
 186 0028 C0F20003 		movt	r3, #:upper16:ds18b20_polling_thread
 187 002c C0F20000 		movt	r0, #:upper16:.LANCHOR3
 188 0030 FFF7FEFF 		bl	chThdCreateStatic
 189              	.LVL11:
 190              		.loc 2 53 0
 191 0034 03B0     		add	sp, sp, #12
 192 0036 00BD     		pop	{pc}
 193              		.cfi_endproc
 194              	.LFE120:
 195              		.size	one_vireInit, .-one_vireInit
 196              		.global	__aeabi_fmul
 197              		.global	__aeabi_f2uiz
 198 0038 AFF30080 		.section	.text.one_vireGetValue,"ax",%progbits
 198      AFF30080 
 199              		.align	2
 200              		.p2align 4,,15
 201              		.global	one_vireGetValue
 202              		.thumb
 203              		.thumb_func
 204              		.type	one_vireGetValue, %function
 205              	one_vireGetValue:
 206              	.LFB121:
 207              		.loc 2 55 0
 208              		.cfi_startproc
 209              		@ args = 0, pretend = 0, frame = 0
 210              		@ frame_needed = 0, uses_anonymous_args = 0
 211              	.LVL12:
 212 0000 08B5     		push	{r3, lr}
 213              	.LCFI6:
 214              		.cfi_def_cfa_offset 8
 215              		.cfi_offset 3, -8
 216              		.cfi_offset 14, -4
 217              		.loc 2 57 0
 218 0002 114B     		ldr	r3, .L20
 219 0004 1968     		ldr	r1, [r3, #0]
 220 0006 0129     		cmp	r1, #1
 221 0008 03D0     		beq	.L18
 222              		.loc 2 65 0
 223 000a 8142     		cmp	r1, r0
 224 000c 07DA     		bge	.L15
 225              		.loc 2 66 0
 226 000e 0220     		movs	r0, #2
ARM GAS  C:\Users\RICHRD~1\AppData\Local\Temp\ccN71VnR.s 			page 5


 227              	.LVL13:
 228              		.loc 2 70 0
 229 0010 08BD     		pop	{r3, pc}
 230              	.LVL14:
 231              	.L18:
 232              		.loc 2 57 0 discriminator 1
 233 0012 0128     		cmp	r0, #1
 234 0014 0ED0     		beq	.L19
 235              		.loc 2 61 0 discriminator 1
 236 0016 0028     		cmp	r0, #0
 237 0018 01DD     		ble	.L15
 238              		.loc 2 62 0
 239 001a 0846     		mov	r0, r1
 240              	.LVL15:
 241 001c 08BD     		pop	{r3, pc}
 242              	.LVL16:
 243              	.L15:
 244              		.loc 2 69 0
 245 001e 0B4A     		ldr	r2, .L20+4
 246 0020 0021     		movs	r1, #0
 247 0022 C4F22011 		movt	r1, 16672
 248 0026 52F82000 		ldr	r0, [r2, r0, lsl #2]	@ float
 249              	.LVL17:
 250 002a FFF7FEFF 		bl	__aeabi_fmul
 251              	.LVL18:
 252 002e FFF7FEFF 		bl	__aeabi_f2uiz
 253              	.LVL19:
 254 0032 08BD     		pop	{r3, pc}
 255              	.LVL20:
 256              	.L19:
 257              		.loc 2 58 0
 258 0034 0548     		ldr	r0, .L20+4
 259              	.LVL21:
 260 0036 0021     		movs	r1, #0
 261 0038 C4F22011 		movt	r1, 16672
 262 003c 0068     		ldr	r0, [r0, #0]	@ float
 263 003e FFF7FEFF 		bl	__aeabi_fmul
 264              	.LVL22:
 265 0042 FFF7FEFF 		bl	__aeabi_f2uiz
 266              	.LVL23:
 267 0046 08BD     		pop	{r3, pc}
 268              	.L21:
 269              		.align	2
 270              	.L20:
 271 0048 00000000 		.word	.LANCHOR0
 272 004c 00000000 		.word	.LANCHOR1
 273              		.cfi_endproc
 274              	.LFE121:
 275              		.size	one_vireGetValue, .-one_vireGetValue
 276              		.global	__aeabi_f2d
 277              		.section	.text.cmd_one_virevalues,"ax",%progbits
 278              		.align	2
 279              		.p2align 4,,15
 280              		.global	cmd_one_virevalues
 281              		.thumb
 282              		.thumb_func
 283              		.type	cmd_one_virevalues, %function
ARM GAS  C:\Users\RICHRD~1\AppData\Local\Temp\ccN71VnR.s 			page 6


 284              	cmd_one_virevalues:
 285              	.LFB122:
 286              		.loc 2 73 0
 287              		.cfi_startproc
 288              		@ args = 0, pretend = 0, frame = 0
 289              		@ frame_needed = 0, uses_anonymous_args = 0
 290              	.LVL24:
 291 0000 38B5     		push	{r3, r4, r5, lr}
 292              	.LCFI7:
 293              		.cfi_def_cfa_offset 16
 294              		.cfi_offset 3, -16
 295              		.cfi_offset 4, -12
 296              		.cfi_offset 5, -8
 297              		.cfi_offset 14, -4
 298              		.loc 2 77 0
 299 0002 1B49     		ldr	r1, .L25
 300              	.LVL25:
 301              		.loc 2 82 0
 302 0004 1B4D     		ldr	r5, .L25+4
 303              		.loc 2 73 0
 304 0006 0446     		mov	r4, r0
 305              		.loc 2 77 0
 306 0008 FFF7FEFF 		bl	chprintf
 307              	.LVL26:
 308              		.loc 2 78 0
 309 000c 2046     		mov	r0, r4
 310 000e 1A49     		ldr	r1, .L25+8
 311 0010 FFF7FEFF 		bl	chprintf
 312              	.LVL27:
 313              		.loc 2 79 0
 314 0014 20E0     		b	.L23
 315              	.LVL28:
 316              	.L24:
 317              		.loc 2 80 0
 318 0016 FFF7FEFF 		bl	chprintf
 319              	.LVL29:
 320              		.loc 2 82 0
 321 001a 2868     		ldr	r0, [r5, #0]	@ float
 322 001c FFF7FEFF 		bl	__aeabi_f2d
 323              	.LVL30:
 324 0020 0246     		mov	r2, r0
 325 0022 0B46     		mov	r3, r1
 326 0024 2046     		mov	r0, r4
 327 0026 1549     		ldr	r1, .L25+12
 328 0028 FFF7FEFF 		bl	chprintf
 329              	.LVL31:
 330              		.loc 2 83 0
 331 002c 6868     		ldr	r0, [r5, #4]	@ float
 332 002e FFF7FEFF 		bl	__aeabi_f2d
 333              	.LVL32:
 334 0032 0246     		mov	r2, r0
 335 0034 0B46     		mov	r3, r1
 336 0036 2046     		mov	r0, r4
 337 0038 1149     		ldr	r1, .L25+16
 338 003a FFF7FEFF 		bl	chprintf
 339              	.LVL33:
 340              		.loc 2 84 0
ARM GAS  C:\Users\RICHRD~1\AppData\Local\Temp\ccN71VnR.s 			page 7


 341 003e A868     		ldr	r0, [r5, #8]	@ float
 342 0040 FFF7FEFF 		bl	__aeabi_f2d
 343              	.LVL34:
 344 0044 0246     		mov	r2, r0
 345 0046 0B46     		mov	r3, r1
 346 0048 2046     		mov	r0, r4
 347 004a 0E49     		ldr	r1, .L25+20
 348 004c FFF7FEFF 		bl	chprintf
 349              	.LVL35:
 350              		.loc 2 86 0
 351 0050 4FF47A70 		mov	r0, #1000
 352 0054 FFF7FEFF 		bl	chThdSleep
 353              	.LVL36:
 354              	.L23:
 355              		.loc 2 79 0 discriminator 1
 356 0058 2368     		ldr	r3, [r4, #0]
 357 005a 0021     		movs	r1, #0
 358 005c 5A69     		ldr	r2, [r3, #20]
 359 005e 2046     		mov	r0, r4
 360 0060 9047     		blx	r2
 361              	.LVL37:
 362              		.loc 2 80 0 discriminator 1
 363 0062 0022     		movs	r2, #0
 364              		.loc 2 79 0 discriminator 1
 365 0064 0130     		adds	r0, r0, #1
 366              		.loc 2 80 0 discriminator 1
 367 0066 1346     		mov	r3, r2
 368 0068 0749     		ldr	r1, .L25+24
 369 006a 2046     		mov	r0, r4
 370              		.loc 2 79 0 discriminator 1
 371 006c D3D0     		beq	.L24
 372              	.LVL38:
 373              		.loc 2 88 0
 374 006e 38BD     		pop	{r3, r4, r5, pc}
 375              	.L26:
 376              		.align	2
 377              	.L25:
 378 0070 00000000 		.word	.LC0
 379 0074 00000000 		.word	.LANCHOR1
 380 0078 04000000 		.word	.LC1
 381 007c 18000000 		.word	.LC3
 382 0080 30000000 		.word	.LC4
 383 0084 48000000 		.word	.LC5
 384 0088 0C000000 		.word	.LC2
 385              		.cfi_endproc
 386              	.LFE122:
 387              		.size	cmd_one_virevalues, .-cmd_one_virevalues
 388              		.global	currentTemp
 389 008c AFF30080 		.section	.bss.currentTemp,"aw",%nobits
 390              		.align	2
 391              		.set	.LANCHOR1,. + 0
 392              		.type	currentTemp, %object
 393              		.size	currentTemp, 20
 394              	currentTemp:
 395 0000 00000000 		.space	20
 395      00000000 
 395      00000000 
ARM GAS  C:\Users\RICHRD~1\AppData\Local\Temp\ccN71VnR.s 			page 8


 395      00000000 
 395      00000000 
 396              		.section	.rodata.str1.4,"aMS",%progbits,1
 397              		.align	2
 398              	.LC0:
 399 0000 1B6300   		.ascii	"\033c\000"
 400 0003 00       		.space	1
 401              	.LC1:
 402 0004 1B5B324A 		.ascii	"\033[2J\000"
 402      00
 403 0009 000000   		.space	3
 404              	.LC2:
 405 000c 1B5B2564 		.ascii	"\033[%d;%dH\000"
 405      3B256448 
 405      00
 406 0015 000000   		.space	3
 407              	.LC3:
 408 0018 64737031 		.ascii	"dsp18b20 temp0: %15d\015\012\000"
 408      38623230 
 408      2074656D 
 408      70303A20 
 408      25313564 
 409 002f 00       		.space	1
 410              	.LC4:
 411 0030 64737031 		.ascii	"dsp18b20 temp1: %15d\015\012\000"
 411      38623230 
 411      2074656D 
 411      70313A20 
 411      25313564 
 412 0047 00       		.space	1
 413              	.LC5:
 414 0048 64737031 		.ascii	"dsp18b20 temp2: %15d\015\012\000"
 414      38623230 
 414      2074656D 
 414      70323A20 
 414      25313564 
 415 005f 00       		.section	.bss.wa_ds18b20_polling,"aw",%nobits
 416              		.align	3
 417              		.set	.LANCHOR3,. + 0
 418              		.type	wa_ds18b20_polling, %object
 419              		.size	wa_ds18b20_polling, 720
 420              	wa_ds18b20_polling:
 421 0000 00000000 		.space	720
 421      00000000 
 421      00000000 
 421      00000000 
 421      00000000 
 422              		.section	.bss.sensor_num,"aw",%nobits
 423              		.align	2
 424              		.set	.LANCHOR0,. + 0
 425              		.type	sensor_num, %object
 426              		.size	sensor_num, 4
 427              	sensor_num:
 428 0000 00000000 		.space	4
 429              		.section	.data.seconds,"aw",%progbits
 430              		.align	2
 431              		.set	.LANCHOR2,. + 0
ARM GAS  C:\Users\RICHRD~1\AppData\Local\Temp\ccN71VnR.s 			page 9


 432              		.type	seconds, %object
 433              		.size	seconds, 4
 434              	seconds:
 435 0000 01000000 		.word	1
 436              		.text
 437              	.Letext0:
 438              		.file 3 "c:\\chibistudio\\tools\\gnu tools arm embedded\\4.7 2014q2\\bin\\../lib/gcc/arm-none-eabi
 439              		.file 4 "c:\\chibistudio\\tools\\gnu tools arm embedded\\4.7 2014q2\\bin\\../lib/gcc/arm-none-eabi
 440              		.file 5 "../../Chibios/os/ports/GCC/ARMCMx/chtypes.h"
 441              		.file 6 "../../Chibios/os/kernel/include/chlists.h"
 442              		.file 7 "../../Chibios/os/kernel/include/chthreads.h"
 443              		.file 8 "../../Chibios/os/ports/GCC/ARMCMx/chcore_v7m.h"
 444              		.file 9 "../../Chibios/os/kernel/include/chvt.h"
 445              		.file 10 "../../Chibios/os/kernel/include/chmtx.h"
 446              		.file 11 "../../Chibios/os/kernel/include/chstreams.h"
 447              		.file 12 "../../Chibios/os/hal/include/io_channel.h"
 448              		.file 13 "c:\\chibistudio\\tools\\gnu tools arm embedded\\4.7 2014q2\\bin\\../lib/gcc/arm-none-eab
 449              		.file 14 "<built-in>"
 450              		.file 15 "../../Chibios/os/ports/common/ARMCMx/CMSIS/include/core_cm4.h"
 451              		.file 16 "include/ds18b20.h"