ARM GAS  C:\Users\RICHRD~1\AppData\Local\Temp\ccN71VnR.s 			page 1


   1              		.syntax unified
   2              		.cpu cortex-m4
   3              		.fpu softvfp
   4              		.eabi_attribute 20, 1
   5              		.eabi_attribute 21, 1
   6              		.eabi_attribute 23, 3
   7              		.eabi_attribute 24, 1
   8              		.eabi_attribute 25, 1
   9              		.eabi_attribute 26, 1
  10              		.eabi_attribute 30, 2
  11              		.eabi_attribute 34, 1
  12              		.eabi_attribute 18, 4
  13              		.thumb
  14              		.file	"one_vire_comm.c"
  15              		.text
  16              	.Ltext0:
  17              		.cfi_sections	.debug_frame
  18              		.section	.text.chprintf,"ax",%progbits
  19              		.align	2
  20              		.p2align 4,,15
  21              		.thumb
  22              		.thumb_func
  23              		.type	chprintf, %function
  24              	chprintf:
  25              	.LFB118:
  26              		.file 1 "../../Chibios/os/various/chprintf.h"
  27              		.loc 1 69 0
  28              		.cfi_startproc
  29              		@ args = 4, pretend = 12, frame = 8
  30              		@ frame_needed = 0, uses_anonymous_args = 1
  31              	.LVL0:
  32 0000 0EB4     		push	{r1, r2, r3}
  33              	.LCFI0:
  34              		.cfi_def_cfa_offset 12
  35              		.cfi_offset 1, -12
  36              		.cfi_offset 2, -8
  37              		.cfi_offset 3, -4
  38 0002 00B5     		push	{lr}
  39              	.LCFI1:
  40              		.cfi_def_cfa_offset 16
  41              		.cfi_offset 14, -16
  42 0004 82B0     		sub	sp, sp, #8
  43              	.LCFI2:
  44              		.cfi_def_cfa_offset 24
  45              		.loc 1 69 0
  46 0006 03AB     		add	r3, sp, #12
  47 0008 53F8041B 		ldr	r1, [r3], #4
  48              		.loc 1 73 0
  49 000c 1A46     		mov	r2, r3
  50              		.loc 1 72 0
  51 000e 0193     		str	r3, [sp, #4]
  52              		.loc 1 73 0
  53 0010 FFF7FEFF 		bl	chvprintf
  54              	.LVL1:
  55              		.loc 1 75 0
  56 0014 02B0     		add	sp, sp, #8
  57 0016 5DF804EB 		pop	{lr}
ARM GAS  C:\Users\RICHRD~1\AppData\Local\Temp\ccN71VnR.s 			page 2


  58 001a 03B0     		add	sp, sp, #12
  59 001c 7047     		bx	lr
  60              		.cfi_endproc
  61              	.LFE118:
  62              		.size	chprintf, .-chprintf
  63 001e 00BF     		.section	.text.ds18b20_polling_thread,"ax",%progbits
  64              		.align	2
  65              		.p2align 4,,15
  66              		.thumb
  67              		.thumb_func
  68              		.type	ds18b20_polling_thread, %function
  69              	ds18b20_polling_thread:
  70              	.LFB119:
  71              		.file 2 "src/one_vire_comm.c"
  72              		.loc 2 19 0
  73              		.cfi_startproc
  74              		@ args = 0, pretend = 0, frame = 0
  75              		@ frame_needed = 0, uses_anonymous_args = 0
  76              	.LVL2:
  77              		.loc 2 22 0
  78 0000 114B     		ldr	r3, .L8
  79              		.loc 2 19 0
  80 0002 2DE9F041 		push	{r4, r5, r6, r7, r8, lr}
  81              	.LCFI3:
  82              		.cfi_def_cfa_offset 24
  83              		.cfi_offset 4, -24
  84              		.cfi_offset 5, -20
  85              		.cfi_offset 6, -16
  86              		.cfi_offset 7, -12
  87              		.cfi_offset 8, -8
  88              		.cfi_offset 14, -4
  89 0006 114E     		ldr	r6, .L8+4
  90              		.loc 2 22 0
  91 0008 DC68     		ldr	r4, [r3, #12]
  92              	.LVL3:
  93 000a 114F     		ldr	r7, .L8+8
  94 000c 114D     		ldr	r5, .L8+12
  95 000e 11E0     		b	.L6
  96              	.LVL4:
  97              	.L3:
  98              		.loc 2 32 0
  99 0010 2968     		ldr	r1, [r5, #0]
 100 0012 C8B2     		uxtb	r0, r1
 101 0014 01F1FF38 		add	r8, r1, #-1
 102 0018 FFF7FEFF 		bl	DS18B20_GetTemp
 103              	.LVL5:
 104 001c 47F82800 		str	r0, [r7, r8, lsl #2]	@ float
 105              	.L4:
 106              		.loc 2 35 0
 107 0020 2B68     		ldr	r3, [r5, #0]
 108              		.loc 2 36 0
 109 0022 3268     		ldr	r2, [r6, #0]
 110              		.loc 2 35 0
 111 0024 591C     		adds	r1, r3, #1
 112              		.loc 2 36 0
 113 0026 9142     		cmp	r1, r2
 114 0028 C8BF     		it	gt
ARM GAS  C:\Users\RICHRD~1\AppData\Local\Temp\ccN71VnR.s 			page 3


 115 002a 0121     		movgt	r1, #1
 116              		.loc 2 38 0
 117 002c 2046     		mov	r0, r4
 118              		.loc 2 36 0
 119 002e 2960     		str	r1, [r5, #0]
 120              		.loc 2 38 0
 121 0030 FFF7FEFF 		bl	chThdSleepUntil
 122              	.LVL6:
 123              	.L6:
 124              		.loc 2 27 0
 125 0034 3068     		ldr	r0, [r6, #0]
 126 0036 0128     		cmp	r0, #1
 127              		.loc 2 25 0
 128 0038 04F5FA74 		add	r4, r4, #500
 129              	.LVL7:
 130              		.loc 2 27 0
 131 003c E8D1     		bne	.L3
 132              		.loc 2 28 0
 133 003e 0020     		movs	r0, #0
 134 0040 FFF7FEFF 		bl	DS18B20_GetTemp
 135              	.LVL8:
 136 0044 3860     		str	r0, [r7, #0]	@ float
 137 0046 EBE7     		b	.L4
 138              	.L9:
 139              		.align	2
 140              	.L8:
 141 0048 00000000 		.word	vtlist
 142 004c 00000000 		.word	.LANCHOR0
 143 0050 00000000 		.word	.LANCHOR1
 144 0054 00000000 		.word	.LANCHOR2
 145              		.cfi_endproc
 146              	.LFE119:
 147              		.size	ds18b20_polling_thread, .-ds18b20_polling_thread
 148 0058 AFF30080 		.section	.text.one_vireInit,"ax",%progbits
 148      AFF30080 
 149              		.align	2
 150              		.p2align 4,,15
 151              		.global	one_vireInit
 152              		.thumb
 153              		.thumb_func
 154              		.type	one_vireInit, %function
 155              	one_vireInit:
 156              	.LFB120:
 157              		.loc 2 42 0
 158              		.cfi_startproc
 159              		@ args = 0, pretend = 0, frame = 0
 160              		@ frame_needed = 0, uses_anonymous_args = 0
 161 0000 00B5     		push	{lr}
 162              	.LCFI4:
 163              		.cfi_def_cfa_offset 4
 164              		.cfi_offset 14, -4
 165 0002 83B0     		sub	sp, sp, #12
 166              	.LCFI5:
 167              		.cfi_def_cfa_offset 16
 168              		.loc 2 44 0
 169 0004 FFF7FEFF 		bl	DS18B20_Init
 170              	.LVL9:
ARM GAS  C:\Users\RICHRD~1\AppData\Local\Temp\ccN71VnR.s 			page 4


 171              		.loc 2 46 0
 172 0008 FFF7FEFF 		bl	DS18B20_ScanBus
 173              	.LVL10:
 174 000c 40F20003 		movw	r3, #:lower16:.LANCHOR0
 175 0010 C0F20003 		movt	r3, #:upper16:.LANCHOR0
 176              		.loc 2 51 0
 177 0014 4FF43471 		mov	r1, #720
 178              		.loc 2 46 0
 179 0018 1860     		str	r0, [r3, #0]
 180              		.loc 2 51 0
 181 001a 0020     		movs	r0, #0
 182 001c 0090     		str	r0, [sp, #0]
 183 001e 40F20003 		movw	r3, #:lower16:ds18b20_polling_thread
 184 0022 40F20000 		movw	r0, #:lower16:.LANCHOR3
 185 0026 4022     		movs	r2, #64
 186 0028 C0F20003 		movt	r3, #:upper16:ds18b20_polling_thread
 187 002c C0F20000 		movt	r0, #:upper16:.LANCHOR3
 188 0030 FFF7FEFF 		bl	chThdCreateStatic
 189              	.LVL11:
 190              		.loc 2 53 0
 191 0034 03B0     		add	sp, sp, #12
 192 0036 00BD     		pop	{pc}
 193              		.cfi_endproc
 194              	.LFE120:
 195              		.size	one_vireInit, .-one_vireInit
 196              		.global	__aeabi_fmul
 197              		.global	__aeabi_f2uiz
 198 0038 AFF30080 		.section	.text.one_vireGetValue,"ax",%progbits
 198      AFF30080 
 199              		.align	2
 200              		.p2align 4,,15
 201              		.global	one_vireGetValue
 202              		.thumb
 203              		.thumb_func
 204              		.type	one_vireGetValue, %function
 205              	one_vireGetValue:
 206              	.LFB121:
 207              		.loc 2 55 0
 208              		.cfi_startproc
 209              		@ args = 0, pretend = 0, frame = 0
 210              		@ frame_needed = 0, uses_anonymous_args = 0
 211              	.LVL12:
 212 0000 08B5     		push	{r3, lr}
 213              	.LCFI6:
 214              		.cfi_def_cfa_offset 8
 215              		.cfi_offset 3, -8
 216              		.cfi_offset 14, -4
 217              		.loc 2 57 0
 218 0002 114B     		ldr	r3, .L20
 219 0004 1968     		ldr	r1, [r3, #0]
 220 0006 0129     		cmp	r1, #1
 221 0008 03D0     		beq	.L18
 222              		.loc 2 65 0
 223 000a 8142     		cmp	r1, r0
 224 000c 07DA     		bge	.L15
 225              		.loc 2 66 0
 226 000e 0220     		movs	r0, #2
ARM GAS  C:\Users\RICHRD~1\AppData\Local\Temp\ccN71VnR.s 			page 5


 227              	.LVL13:
 228              		.loc 2 70 0
 229 0010 08BD     		pop	{r3, pc}
 230              	.LVL14:
 231              	.L18:
 232              		.loc 2 57 0 discriminator 1
 233 0012 0128     		cmp	r0, #1
 234 0014 0ED0     		beq	.L19
 235              		.loc 2 61 0 discriminator 1
 236 0016 0028     		cmp	r0, #0
 237 0018 01DD     		ble	.L15
 238              		.loc 2 62 0
 239 001a 0846     		mov	r0, r1
 240              	.LVL15:
 241 001c 08BD     		pop	{r3, pc}
 242              	.LVL16:
 243              	.L15:
 244              		.loc 2 69 0
 245 001e 0B4A     		ldr	r2, .L20+4
 246 0020 0021     		movs	r1, #0
 247 0022 C4F22011 		movt	r1, 16672
 248 0026 52F82000 		ldr	r0, [r2, r0, lsl #2]	@ float
 249              	.LVL17:
 250 002a FFF7FEFF 		bl	__aeabi_fmul
 251              	.LVL18:
 252 002e FFF7FEFF 		bl	__aeabi_f2uiz
 253              	.LVL19:
 254 0032 08BD     		pop	{r3, pc}
 255              	.LVL20:
 256              	.L19:
 257              		.loc 2 58 0
 258 0034 0548     		ldr	r0, .L20+4
 259              	.LVL21:
 260 0036 0021     		movs	r1, #0
 261 0038 C4F22011 		movt	r1, 16672
 262 003c 0068     		ldr	r0, [r0, #0]	@ float
 263 003e FFF7FEFF 		bl	__aeabi_fmul
 264              	.LVL22:
 265 0042 FFF7FEFF 		bl	__aeabi_f2uiz
 266              	.LVL23:
 267 0046 08BD     		pop	{r3, pc}
 268              	.L21:
 269              		.align	2
 270              	.L20:
 271 0048 00000000 		.word	.LANCHOR0
 272 004c 00000000 		.word	.LANCHOR1
 273              		.cfi_endproc
 274              	.LFE121:
 275              		.size	one_vireGetValue, .-one_vireGetValue
 276              		.global	__aeabi_f2d
 277              		.section	.text.cmd_one_virevalues,"ax",%progbits
 278              		.align	2
 279              		.p2align 4,,15
 280              		.global	cmd_one_virevalues
 281              		.thumb
 282              		.thumb_func
 283              		.type	cmd_one_virevalues, %function
ARM GAS  C:\Users\RICHRD~1\AppData\Local\Temp\ccN71VnR.s 			page 6


 284              	cmd_one_virevalues:
 285              	.LFB122:
 286              		.loc 2 73 0
 287              		.cfi_startproc
 288              		@ args = 0, pretend = 0, frame = 0
 289              		@ frame_needed = 0, uses_anonymous_args = 0
 290              	.LVL24:
 291 0000 38B5     		push	{r3, r4, r5, lr}
 292              	.LCFI7:
 293              		.cfi_def_cfa_offset 16
 294              		.cfi_offset 3, -16
 295              		.cfi_offset 4, -12
 296              		.cfi_offset 5, -8
 297              		.cfi_offset 14, -4
 298              		.loc 2 77 0
 299 0002 1B49     		ldr	r1, .L25
 300              	.LVL25:
 301              		.loc 2 82 0
 302 0004 1B4D     		ldr	r5, .L25+4
 303              		.loc 2 73 0
 304 0006 0446     		mov	r4, r0
 305              		.loc 2 77 0
 306 0008 FFF7FEFF 		bl	chprintf
 307              	.LVL26:
 308              		.loc 2 78 0
 309 000c 2046     		mov	r0, r4
 310 000e 1A49     		ldr	r1, .L25+8
 311 0010 FFF7FEFF 		bl	chprintf
 312              	.LVL27:
 313              		.loc 2 79 0
 314 0014 20E0     		b	.L23
 315              	.LVL28:
 316              	.L24:
 317              		.loc 2 80 0
 318 0016 FFF7FEFF 		bl	chprintf
 319              	.LVL29:
 320              		.loc 2 82 0
 321 001a 2868     		ldr	r0, [r5, #0]	@ float
 322 001c FFF7FEFF 		bl	__aeabi_f2d
 323              	.LVL30:
 324 0020 0246     		mov	r2, r0
 325 0022 0B46     		mov	r3, r1
 326 0024 2046     		mov	r0, r4
 327 0026 1549     		ldr	r1, .L25+12
 328 0028 FFF7FEFF 		bl	chprintf
 329              	.LVL31:
 330              		.loc 2 83 0
 331 002c 6868     		ldr	r0, [r5, #4]	@ float
 332 002e FFF7FEFF 		bl	__aeabi_f2d
 333              	.LVL32:
 334 0032 0246     		mov	r2, r0
 335 0034 0B46     		mov	r3, r1
 336 0036 2046     		mov	r0, r4
 337 0038 1149     		ldr	r1, .L25+16
 338 003a FFF7FEFF 		bl	chprintf
 339              	.LVL33:
 340              		.loc 2 84 0
ARM GAS  C:\Users\RICHRD~1\AppData\Local\Temp\ccN71VnR.s 			page 7


 341 003e A868     		ldr	r0, [r5, #8]	@ float
 342 0040 FFF7FEFF 		bl	__aeabi_f2d
 343              	.LVL34:
 344 0044 0246     		mov	r2, r0
 345 0046 0B46     		mov	r3, r1
 346 0048 2046     		mov	r0, r4
 347 004a 0E49     		ldr	r1, .L25+20
 348 004c FFF7FEFF 		bl	chprintf
 349              	.LVL35:
 350              		.loc 2 86 0
 351 0050 4FF47A70 		mov	r0, #1000
 352 0054 FFF7FEFF 		bl	chThdSleep
 353              	.LVL36:
 354              	.L23:
 355              		.loc 2 79 0 discriminator 1
 356 0058 2368     		ldr	r3, [r4, #0]
 357 005a 0021     		movs	r1, #0
 358 005c 5A69     		ldr	r2, [r3, #20]
 359 005e 2046     		mov	r0, r4
 360 0060 9047     		blx	r2
 361              	.LVL37:
 362              		.loc 2 80 0 discriminator 1
 363 0062 0022     		movs	r2, #0
 364              		.loc 2 79 0 discriminator 1
 365 0064 0130     		adds	r0, r0, #1
 366              		.loc 2 80 0 discriminator 1
 367 0066 1346     		mov	r3, r2
 368 0068 0749     		ldr	r1, .L25+24
 369 006a 2046     		mov	r0, r4
 370              		.loc 2 79 0 discriminator 1
 371 006c D3D0     		beq	.L24
 372              	.LVL38:
 373              		.loc 2 88 0
 374 006e 38BD     		pop	{r3, r4, r5, pc}
 375              	.L26:
 376              		.align	2
 377              	.L25:
 378 0070 00000000 		.word	.LC0
 379 0074 00000000 		.word	.LANCHOR1
 380 0078 04000000 		.word	.LC1
 381 007c 18000000 		.word	.LC3
 382 0080 30000000 		.word	.LC4
 383 0084 48000000 		.word	.LC5
 384 0088 0C000000 		.word	.LC2
 385              		.cfi_endproc
 386              	.LFE122:
 387              		.size	cmd_one_virevalues, .-cmd_one_virevalues
 388              		.global	currentTemp
 389 008c AFF30080 		.section	.bss.currentTemp,"aw",%nobits
 390              		.align	2
 391              		.set	.LANCHOR1,. + 0
 392              		.type	currentTemp, %object
 393              		.size	currentTemp, 20
 394              	currentTemp:
 395 0000 00000000 		.space	20
 395      00000000 
 395      00000000 
ARM GAS  C:\Users\RICHRD~1\AppData\Local\Temp\ccN71VnR.s 			page 8


 395      00000000 
 395      00000000 
 396              		.section	.rodata.str1.4,"aMS",%progbits,1
 397              		.align	2
 398              	.LC0:
 399 0000 1B6300   		.ascii	"\033c\000"
 400 0003 00       		.space	1
 401              	.LC1:
 402 0004 1B5B324A 		.ascii	"\033[2J\000"
 402      00
 403 0009 000000   		.space	3
 404              	.LC2:
 405 000c 1B5B2564 		.ascii	"\033[%d;%dH\000"
 405      3B256448 
 405      00
 406 0015 000000   		.space	3
 407              	.LC3:
 408 0018 64737031 		.ascii	"dsp18b20 temp0: %15d\015\012\000"
 408      38623230 
 408      2074656D 
 408      70303A20 
 408      25313564 
 409 002f 00       		.space	1
 410              	.LC4:
 411 0030 64737031 		.ascii	"dsp18b20 temp1: %15d\015\012\000"
 411      38623230 
 411      2074656D 
 411      70313A20 
 411      25313564 
 412 0047 00       		.space	1
 413              	.LC5:
 414 0048 64737031 		.ascii	"dsp18b20 temp2: %15d\015\012\000"
 414      38623230 
 414      2074656D 
 414      70323A20 
 414      25313564 
 415 005f 00       		.section	.bss.wa_ds18b20_polling,"aw",%nobits
 416              		.align	3
 417              		.set	.LANCHOR3,. + 0
 418              		.type	wa_ds18b20_polling, %object
 419              		.size	wa_ds18b20_polling, 720
 420              	wa_ds18b20_polling:
 421 0000 00000000 		.space	720
 421      00000000 
 421      00000000 
 421      00000000 
 421      00000000 
 422              		.section	.bss.sensor_num,"aw",%nobits
 423              		.align	2
 424              		.set	.LANCHOR0,. + 0
 425              		.type	sensor_num, %object
 426              		.size	sensor_num, 4
 427              	sensor_num:
 428 0000 00000000 		.space	4
 429              		.section	.data.seconds,"aw",%progbits
 430              		.align	2
 431              		.set	.LANCHOR2,. + 0
ARM GAS  C:\Users\RICHRD~1\AppData\Local\Temp\ccN71VnR.s 			page 9


 432              		.type	seconds, %object
 433              		.size	seconds, 4
 434              	seconds:
 435 0000 01000000 		.word	1
 436              		.text
 437              	.Letext0:
 438              		.file 3 "c:\\chibistudio\\tools\\gnu tools arm embedded\\4.7 2014q2\\bin\\../lib/gcc/arm-none-eabi
 439              		.file 4 "c:\\chibistudio\\tools\\gnu tools arm embedded\\4.7 2014q2\\bin\\../lib/gcc/arm-none-eabi
 440              		.file 5 "../../Chibios/os/ports/GCC/ARMCMx/chtypes.h"
 441              		.file 6 "../../Chibios/os/kernel/include/chlists.h"
 442              		.file 7 "../../Chibios/os/kernel/include/chthreads.h"
 443              		.file 8 "../../Chibios/os/ports/GCC/ARMCMx/chcore_v7m.h"
 444              		.file 9 "../../Chibios/os/kernel/include/chvt.h"
 445              		.file 10 "../../Chibios/os/kernel/include/chmtx.h"
 446              		.file 11 "../../Chibios/os/kernel/include/chstreams.h"
 447              		.file 12 "../../Chibios/os/hal/include/io_channel.h"
 448              		.file 13 "c:\\chibistudio\\tools\\gnu tools arm embedded\\4.7 2014q2\\bin\\../lib/gcc/arm-none-eab
 449              		.file 14 "<built-in>"
 450              		.file 15 "../../Chibios/os/ports/common/ARMCMx/CMSIS/include/core_cm4.h"
 451              		.file 16 "include/ds18b20.h"
 452              		.section	.debug_info,"",%progbits
 453              	.Ldebug_info0:
 454 0000 C70A0000 		.4byte	0xac7
 455 0004 0200     		.2byte	0x2
 456 0006 00000000 		.4byte	.Ldebug_abbrev0
 457 000a 04       		.byte	0x4
 458 000b 01       		.uleb128 0x1
 459 000c 23020000 		.4byte	.LASF99
 460 0010 01       		.byte	0x1
 461 0011 CE030000 		.4byte	.LASF100
 462 0015 60040000 		.4byte	.LASF101
 463 0019 00000000 		.4byte	.Ldebug_ranges0+0
 464 001d 00000000 		.4byte	0
 465 0021 00000000 		.4byte	0
 466 0025 00000000 		.4byte	.Ldebug_line0
 467 0029 02       		.uleb128 0x2
 468 002a 04       		.byte	0x4
 469 002b 05       		.byte	0x5
 470 002c 696E7400 		.ascii	"int\000"
 471 0030 03       		.uleb128 0x3
 472 0031 08000000 		.4byte	.LASF2
 473 0035 03       		.byte	0x3
 474 0036 D5       		.byte	0xd5
 475 0037 3B000000 		.4byte	0x3b
 476 003b 04       		.uleb128 0x4
 477 003c 04       		.byte	0x4
 478 003d 07       		.byte	0x7
 479 003e 2D010000 		.4byte	.LASF0
 480 0042 04       		.uleb128 0x4
 481 0043 01       		.byte	0x1
 482 0044 06       		.byte	0x6
 483 0045 A5000000 		.4byte	.LASF1
 484 0049 03       		.uleb128 0x3
 485 004a EF030000 		.4byte	.LASF3
 486 004e 04       		.byte	0x4
 487 004f 2A       		.byte	0x2a
 488 0050 54000000 		.4byte	0x54
ARM GAS  C:\Users\RICHRD~1\AppData\Local\Temp\ccN71VnR.s 			page 10


 489 0054 04       		.uleb128 0x4
 490 0055 01       		.byte	0x1
 491 0056 08       		.byte	0x8
 492 0057 C9020000 		.4byte	.LASF4
 493 005b 04       		.uleb128 0x4
 494 005c 02       		.byte	0x2
 495 005d 05       		.byte	0x5
 496 005e F5020000 		.4byte	.LASF5
 497 0062 04       		.uleb128 0x4
 498 0063 02       		.byte	0x2
 499 0064 07       		.byte	0x7
 500 0065 5F010000 		.4byte	.LASF6
 501 0069 03       		.uleb128 0x3
 502 006a C1020000 		.4byte	.LASF7
 503 006e 04       		.byte	0x4
 504 006f 4F       		.byte	0x4f
 505 0070 74000000 		.4byte	0x74
 506 0074 04       		.uleb128 0x4
 507 0075 04       		.byte	0x4
 508 0076 05       		.byte	0x5
 509 0077 C3000000 		.4byte	.LASF8
 510 007b 03       		.uleb128 0x3
 511 007c 51030000 		.4byte	.LASF9
 512 0080 04       		.byte	0x4
 513 0081 50       		.byte	0x50
 514 0082 86000000 		.4byte	0x86
 515 0086 04       		.uleb128 0x4
 516 0087 04       		.byte	0x4
 517 0088 07       		.byte	0x7
 518 0089 65030000 		.4byte	.LASF10
 519 008d 04       		.uleb128 0x4
 520 008e 08       		.byte	0x8
 521 008f 05       		.byte	0x5
 522 0090 97000000 		.4byte	.LASF11
 523 0094 03       		.uleb128 0x3
 524 0095 23000000 		.4byte	.LASF12
 525 0099 04       		.byte	0x4
 526 009a 78       		.byte	0x78
 527 009b 9F000000 		.4byte	0x9f
 528 009f 04       		.uleb128 0x4
 529 00a0 08       		.byte	0x8
 530 00a1 07       		.byte	0x7
 531 00a2 3B000000 		.4byte	.LASF13
 532 00a6 04       		.uleb128 0x4
 533 00a7 01       		.byte	0x1
 534 00a8 02       		.byte	0x2
 535 00a9 BB020000 		.4byte	.LASF14
 536 00ad 03       		.uleb128 0x3
 537 00ae 94010000 		.4byte	.LASF15
 538 00b2 05       		.byte	0x5
 539 00b3 2C       		.byte	0x2c
 540 00b4 49000000 		.4byte	0x49
 541 00b8 03       		.uleb128 0x3
 542 00b9 CC000000 		.4byte	.LASF16
 543 00bd 05       		.byte	0x5
 544 00be 2D       		.byte	0x2d
 545 00bf 49000000 		.4byte	0x49
ARM GAS  C:\Users\RICHRD~1\AppData\Local\Temp\ccN71VnR.s 			page 11


 546 00c3 03       		.uleb128 0x3
 547 00c4 9C020000 		.4byte	.LASF17
 548 00c8 05       		.byte	0x5
 549 00c9 2E       		.byte	0x2e
 550 00ca 49000000 		.4byte	0x49
 551 00ce 03       		.uleb128 0x3
 552 00cf B9000000 		.4byte	.LASF18
 553 00d3 05       		.byte	0x5
 554 00d4 2F       		.byte	0x2f
 555 00d5 49000000 		.4byte	0x49
 556 00d9 03       		.uleb128 0x3
 557 00da B3020000 		.4byte	.LASF19
 558 00de 05       		.byte	0x5
 559 00df 30       		.byte	0x30
 560 00e0 7B000000 		.4byte	0x7b
 561 00e4 03       		.uleb128 0x3
 562 00e5 72010000 		.4byte	.LASF20
 563 00e9 05       		.byte	0x5
 564 00ea 31       		.byte	0x31
 565 00eb 69000000 		.4byte	0x69
 566 00ef 03       		.uleb128 0x3
 567 00f0 AC010000 		.4byte	.LASF21
 568 00f4 05       		.byte	0x5
 569 00f5 33       		.byte	0x33
 570 00f6 7B000000 		.4byte	0x7b
 571 00fa 03       		.uleb128 0x3
 572 00fb 83030000 		.4byte	.LASF22
 573 00ff 05       		.byte	0x5
 574 0100 35       		.byte	0x35
 575 0101 7B000000 		.4byte	0x7b
 576 0105 03       		.uleb128 0x3
 577 0106 3F030000 		.4byte	.LASF23
 578 010a 06       		.byte	0x6
 579 010b 2A       		.byte	0x2a
 580 010c 10010000 		.4byte	0x110
 581 0110 05       		.uleb128 0x5
 582 0111 3F030000 		.4byte	.LASF23
 583 0115 48       		.byte	0x48
 584 0116 07       		.byte	0x7
 585 0117 5E       		.byte	0x5e
 586 0118 35020000 		.4byte	0x235
 587 011c 06       		.uleb128 0x6
 588 011d 18030000 		.4byte	.LASF24
 589 0121 07       		.byte	0x7
 590 0122 5F       		.byte	0x5f
 591 0123 5A020000 		.4byte	0x25a
 592 0127 02       		.byte	0x2
 593 0128 23       		.byte	0x23
 594 0129 00       		.uleb128 0
 595 012a 06       		.uleb128 0x6
 596 012b AC020000 		.4byte	.LASF25
 597 012f 07       		.byte	0x7
 598 0130 61       		.byte	0x61
 599 0131 5A020000 		.4byte	0x25a
 600 0135 02       		.byte	0x2
 601 0136 23       		.byte	0x23
 602 0137 04       		.uleb128 0x4
ARM GAS  C:\Users\RICHRD~1\AppData\Local\Temp\ccN71VnR.s 			page 12


 603 0138 06       		.uleb128 0x6
 604 0139 8A000000 		.4byte	.LASF26
 605 013d 07       		.byte	0x7
 606 013e 63       		.byte	0x63
 607 013f D9000000 		.4byte	0xd9
 608 0143 02       		.byte	0x2
 609 0144 23       		.byte	0x23
 610 0145 08       		.uleb128 0x8
 611 0146 06       		.uleb128 0x6
 612 0147 8E040000 		.4byte	.LASF27
 613 014b 07       		.byte	0x7
 614 014c 64       		.byte	0x64
 615 014d 33030000 		.4byte	0x333
 616 0151 02       		.byte	0x2
 617 0152 23       		.byte	0x23
 618 0153 0C       		.uleb128 0xc
 619 0154 06       		.uleb128 0x6
 620 0155 FF000000 		.4byte	.LASF28
 621 0159 07       		.byte	0x7
 622 015a 66       		.byte	0x66
 623 015b 5A020000 		.4byte	0x25a
 624 015f 02       		.byte	0x2
 625 0160 23       		.byte	0x23
 626 0161 10       		.uleb128 0x10
 627 0162 06       		.uleb128 0x6
 628 0163 6C020000 		.4byte	.LASF29
 629 0167 07       		.byte	0x7
 630 0168 67       		.byte	0x67
 631 0169 5A020000 		.4byte	0x25a
 632 016d 02       		.byte	0x2
 633 016e 23       		.byte	0x23
 634 016f 14       		.uleb128 0x14
 635 0170 06       		.uleb128 0x6
 636 0171 A1030000 		.4byte	.LASF30
 637 0175 07       		.byte	0x7
 638 0176 6E       		.byte	0x6e
 639 0177 AC040000 		.4byte	0x4ac
 640 017b 02       		.byte	0x2
 641 017c 23       		.byte	0x23
 642 017d 18       		.uleb128 0x18
 643 017e 06       		.uleb128 0x6
 644 017f FF020000 		.4byte	.LASF31
 645 0183 07       		.byte	0x7
 646 0184 79       		.byte	0x79
 647 0185 B8000000 		.4byte	0xb8
 648 0189 02       		.byte	0x2
 649 018a 23       		.byte	0x23
 650 018b 1C       		.uleb128 0x1c
 651 018c 06       		.uleb128 0x6
 652 018d 37030000 		.4byte	.LASF32
 653 0191 07       		.byte	0x7
 654 0192 7D       		.byte	0x7d
 655 0193 AD000000 		.4byte	0xad
 656 0197 02       		.byte	0x2
 657 0198 23       		.byte	0x23
 658 0199 1D       		.uleb128 0x1d
 659 019a 06       		.uleb128 0x6
ARM GAS  C:\Users\RICHRD~1\AppData\Local\Temp\ccN71VnR.s 			page 13


 660 019b E2030000 		.4byte	.LASF33
 661 019f 07       		.byte	0x7
 662 01a0 82       		.byte	0x82
 663 01a1 C3000000 		.4byte	0xc3
 664 01a5 02       		.byte	0x2
 665 01a6 23       		.byte	0x23
 666 01a7 1E       		.uleb128 0x1e
 667 01a8 06       		.uleb128 0x6
 668 01a9 07030000 		.4byte	.LASF34
 669 01ad 07       		.byte	0x7
 670 01ae 88       		.byte	0x88
 671 01af CE000000 		.4byte	0xce
 672 01b3 02       		.byte	0x2
 673 01b4 23       		.byte	0x23
 674 01b5 1F       		.uleb128 0x1f
 675 01b6 06       		.uleb128 0x6
 676 01b7 EB000000 		.4byte	.LASF35
 677 01bb 07       		.byte	0x7
 678 01bc 8F       		.byte	0x8f
 679 01bd 1F040000 		.4byte	0x41f
 680 01c1 02       		.byte	0x2
 681 01c2 23       		.byte	0x23
 682 01c3 20       		.uleb128 0x20
 683 01c4 07       		.uleb128 0x7
 684 01c5 705F7500 		.ascii	"p_u\000"
 685 01c9 07       		.byte	0x7
 686 01ca B4       		.byte	0xb4
 687 01cb 77040000 		.4byte	0x477
 688 01cf 02       		.byte	0x2
 689 01d0 23       		.byte	0x23
 690 01d1 24       		.uleb128 0x24
 691 01d2 06       		.uleb128 0x6
 692 01d3 E8010000 		.4byte	.LASF36
 693 01d7 07       		.byte	0x7
 694 01d8 B9       		.byte	0xb9
 695 01d9 82020000 		.4byte	0x282
 696 01dd 02       		.byte	0x2
 697 01de 23       		.byte	0x23
 698 01df 28       		.uleb128 0x28
 699 01e0 06       		.uleb128 0x6
 700 01e1 42010000 		.4byte	.LASF37
 701 01e5 07       		.byte	0x7
 702 01e6 BF       		.byte	0xbf
 703 01e7 60020000 		.4byte	0x260
 704 01eb 02       		.byte	0x2
 705 01ec 23       		.byte	0x23
 706 01ed 2C       		.uleb128 0x2c
 707 01ee 06       		.uleb128 0x6
 708 01ef E9030000 		.4byte	.LASF38
 709 01f3 07       		.byte	0x7
 710 01f4 C3       		.byte	0xc3
 711 01f5 E4000000 		.4byte	0xe4
 712 01f9 02       		.byte	0x2
 713 01fa 23       		.byte	0x23
 714 01fb 34       		.uleb128 0x34
 715 01fc 06       		.uleb128 0x6
 716 01fd 46030000 		.4byte	.LASF39
ARM GAS  C:\Users\RICHRD~1\AppData\Local\Temp\ccN71VnR.s 			page 14


 717 0201 07       		.byte	0x7
 718 0202 C9       		.byte	0xc9
 719 0203 EF000000 		.4byte	0xef
 720 0207 02       		.byte	0x2
 721 0208 23       		.byte	0x23
 722 0209 38       		.uleb128 0x38
 723 020a 06       		.uleb128 0x6
 724 020b EB020000 		.4byte	.LASF40
 725 020f 07       		.byte	0x7
 726 0210 D0       		.byte	0xd0
 727 0211 BE040000 		.4byte	0x4be
 728 0215 02       		.byte	0x2
 729 0216 23       		.byte	0x23
 730 0217 3C       		.uleb128 0x3c
 731 0218 06       		.uleb128 0x6
 732 0219 8D030000 		.4byte	.LASF41
 733 021d 07       		.byte	0x7
 734 021e D4       		.byte	0xd4
 735 021f D9000000 		.4byte	0xd9
 736 0223 02       		.byte	0x2
 737 0224 23       		.byte	0x23
 738 0225 40       		.uleb128 0x40
 739 0226 06       		.uleb128 0x6
 740 0227 B1000000 		.4byte	.LASF42
 741 022b 07       		.byte	0x7
 742 022c DA       		.byte	0xda
 743 022d 98020000 		.4byte	0x298
 744 0231 02       		.byte	0x2
 745 0232 23       		.byte	0x23
 746 0233 44       		.uleb128 0x44
 747 0234 00       		.byte	0
 748 0235 08       		.uleb128 0x8
 749 0236 08       		.byte	0x8
 750 0237 06       		.byte	0x6
 751 0238 61       		.byte	0x61
 752 0239 5A020000 		.4byte	0x25a
 753 023d 06       		.uleb128 0x6
 754 023e 18030000 		.4byte	.LASF24
 755 0242 06       		.byte	0x6
 756 0243 62       		.byte	0x62
 757 0244 5A020000 		.4byte	0x25a
 758 0248 02       		.byte	0x2
 759 0249 23       		.byte	0x23
 760 024a 00       		.uleb128 0
 761 024b 06       		.uleb128 0x6
 762 024c AC020000 		.4byte	.LASF25
 763 0250 06       		.byte	0x6
 764 0251 64       		.byte	0x64
 765 0252 5A020000 		.4byte	0x25a
 766 0256 02       		.byte	0x2
 767 0257 23       		.byte	0x23
 768 0258 04       		.uleb128 0x4
 769 0259 00       		.byte	0
 770 025a 09       		.uleb128 0x9
 771 025b 04       		.byte	0x4
 772 025c 05010000 		.4byte	0x105
 773 0260 03       		.uleb128 0x3
ARM GAS  C:\Users\RICHRD~1\AppData\Local\Temp\ccN71VnR.s 			page 15


 774 0261 74020000 		.4byte	.LASF43
 775 0265 06       		.byte	0x6
 776 0266 66       		.byte	0x66
 777 0267 35020000 		.4byte	0x235
 778 026b 08       		.uleb128 0x8
 779 026c 04       		.byte	0x4
 780 026d 06       		.byte	0x6
 781 026e 6B       		.byte	0x6b
 782 026f 82020000 		.4byte	0x282
 783 0273 06       		.uleb128 0x6
 784 0274 18030000 		.4byte	.LASF24
 785 0278 06       		.byte	0x6
 786 0279 6D       		.byte	0x6d
 787 027a 5A020000 		.4byte	0x25a
 788 027e 02       		.byte	0x2
 789 027f 23       		.byte	0x23
 790 0280 00       		.uleb128 0
 791 0281 00       		.byte	0
 792 0282 03       		.uleb128 0x3
 793 0283 DF000000 		.4byte	.LASF44
 794 0287 06       		.byte	0x6
 795 0288 70       		.byte	0x70
 796 0289 6B020000 		.4byte	0x26b
 797 028d 03       		.uleb128 0x3
 798 028e 07010000 		.4byte	.LASF45
 799 0292 08       		.byte	0x8
 800 0293 E5       		.byte	0xe5
 801 0294 98020000 		.4byte	0x298
 802 0298 0A       		.uleb128 0xa
 803 0299 04       		.byte	0x4
 804 029a 03       		.uleb128 0x3
 805 029b B8010000 		.4byte	.LASF46
 806 029f 08       		.byte	0x8
 807 02a0 EB       		.byte	0xeb
 808 02a1 94000000 		.4byte	0x94
 809 02a5 0B       		.uleb128 0xb
 810 02a6 B5030000 		.4byte	.LASF47
 811 02aa 24       		.byte	0x24
 812 02ab 08       		.byte	0x8
 813 02ac 0C01     		.2byte	0x10c
 814 02ae 33030000 		.4byte	0x333
 815 02b2 0C       		.uleb128 0xc
 816 02b3 723400   		.ascii	"r4\000"
 817 02b6 08       		.byte	0x8
 818 02b7 1F01     		.2byte	0x11f
 819 02b9 8D020000 		.4byte	0x28d
 820 02bd 02       		.byte	0x2
 821 02be 23       		.byte	0x23
 822 02bf 00       		.uleb128 0
 823 02c0 0C       		.uleb128 0xc
 824 02c1 723500   		.ascii	"r5\000"
 825 02c4 08       		.byte	0x8
 826 02c5 2001     		.2byte	0x120
 827 02c7 8D020000 		.4byte	0x28d
 828 02cb 02       		.byte	0x2
 829 02cc 23       		.byte	0x23
 830 02cd 04       		.uleb128 0x4
ARM GAS  C:\Users\RICHRD~1\AppData\Local\Temp\ccN71VnR.s 			page 16


 831 02ce 0C       		.uleb128 0xc
 832 02cf 723600   		.ascii	"r6\000"
 833 02d2 08       		.byte	0x8
 834 02d3 2101     		.2byte	0x121
 835 02d5 8D020000 		.4byte	0x28d
 836 02d9 02       		.byte	0x2
 837 02da 23       		.byte	0x23
 838 02db 08       		.uleb128 0x8
 839 02dc 0C       		.uleb128 0xc
 840 02dd 723700   		.ascii	"r7\000"
 841 02e0 08       		.byte	0x8
 842 02e1 2201     		.2byte	0x122
 843 02e3 8D020000 		.4byte	0x28d
 844 02e7 02       		.byte	0x2
 845 02e8 23       		.byte	0x23
 846 02e9 0C       		.uleb128 0xc
 847 02ea 0C       		.uleb128 0xc
 848 02eb 723800   		.ascii	"r8\000"
 849 02ee 08       		.byte	0x8
 850 02ef 2301     		.2byte	0x123
 851 02f1 8D020000 		.4byte	0x28d
 852 02f5 02       		.byte	0x2
 853 02f6 23       		.byte	0x23
 854 02f7 10       		.uleb128 0x10
 855 02f8 0C       		.uleb128 0xc
 856 02f9 723900   		.ascii	"r9\000"
 857 02fc 08       		.byte	0x8
 858 02fd 2401     		.2byte	0x124
 859 02ff 8D020000 		.4byte	0x28d
 860 0303 02       		.byte	0x2
 861 0304 23       		.byte	0x23
 862 0305 14       		.uleb128 0x14
 863 0306 0C       		.uleb128 0xc
 864 0307 72313000 		.ascii	"r10\000"
 865 030b 08       		.byte	0x8
 866 030c 2501     		.2byte	0x125
 867 030e 8D020000 		.4byte	0x28d
 868 0312 02       		.byte	0x2
 869 0313 23       		.byte	0x23
 870 0314 18       		.uleb128 0x18
 871 0315 0C       		.uleb128 0xc
 872 0316 72313100 		.ascii	"r11\000"
 873 031a 08       		.byte	0x8
 874 031b 2601     		.2byte	0x126
 875 031d 8D020000 		.4byte	0x28d
 876 0321 02       		.byte	0x2
 877 0322 23       		.byte	0x23
 878 0323 1C       		.uleb128 0x1c
 879 0324 0C       		.uleb128 0xc
 880 0325 6C7200   		.ascii	"lr\000"
 881 0328 08       		.byte	0x8
 882 0329 2701     		.2byte	0x127
 883 032b 8D020000 		.4byte	0x28d
 884 032f 02       		.byte	0x2
 885 0330 23       		.byte	0x23
 886 0331 20       		.uleb128 0x20
 887 0332 00       		.byte	0
ARM GAS  C:\Users\RICHRD~1\AppData\Local\Temp\ccN71VnR.s 			page 17


 888 0333 0B       		.uleb128 0xb
 889 0334 AD030000 		.4byte	.LASF48
 890 0338 04       		.byte	0x4
 891 0339 08       		.byte	0x8
 892 033a 3101     		.2byte	0x131
 893 033c 50030000 		.4byte	0x350
 894 0340 0C       		.uleb128 0xc
 895 0341 72313300 		.ascii	"r13\000"
 896 0345 08       		.byte	0x8
 897 0346 3201     		.2byte	0x132
 898 0348 50030000 		.4byte	0x350
 899 034c 02       		.byte	0x2
 900 034d 23       		.byte	0x23
 901 034e 00       		.uleb128 0
 902 034f 00       		.byte	0
 903 0350 09       		.uleb128 0x9
 904 0351 04       		.byte	0x4
 905 0352 A5020000 		.4byte	0x2a5
 906 0356 04       		.uleb128 0x4
 907 0357 04       		.byte	0x4
 908 0358 07       		.byte	0x7
 909 0359 F2010000 		.4byte	.LASF49
 910 035d 03       		.uleb128 0x3
 911 035e 98030000 		.4byte	.LASF50
 912 0362 09       		.byte	0x9
 913 0363 58       		.byte	0x58
 914 0364 68030000 		.4byte	0x368
 915 0368 09       		.uleb128 0x9
 916 0369 04       		.byte	0x4
 917 036a 6E030000 		.4byte	0x36e
 918 036e 0D       		.uleb128 0xd
 919 036f 01       		.byte	0x1
 920 0370 7A030000 		.4byte	0x37a
 921 0374 0E       		.uleb128 0xe
 922 0375 98020000 		.4byte	0x298
 923 0379 00       		.byte	0
 924 037a 03       		.uleb128 0x3
 925 037b 52010000 		.4byte	.LASF51
 926 037f 09       		.byte	0x9
 927 0380 5D       		.byte	0x5d
 928 0381 85030000 		.4byte	0x385
 929 0385 05       		.uleb128 0x5
 930 0386 52010000 		.4byte	.LASF51
 931 038a 14       		.byte	0x14
 932 038b 09       		.byte	0x9
 933 038c 64       		.byte	0x64
 934 038d D8030000 		.4byte	0x3d8
 935 0391 06       		.uleb128 0x6
 936 0392 3A010000 		.4byte	.LASF52
 937 0396 09       		.byte	0x9
 938 0397 65       		.byte	0x65
 939 0398 D8030000 		.4byte	0x3d8
 940 039c 02       		.byte	0x2
 941 039d 23       		.byte	0x23
 942 039e 00       		.uleb128 0
 943 039f 06       		.uleb128 0x6
 944 03a0 10010000 		.4byte	.LASF53
ARM GAS  C:\Users\RICHRD~1\AppData\Local\Temp\ccN71VnR.s 			page 18


 945 03a4 09       		.byte	0x9
 946 03a5 67       		.byte	0x67
 947 03a6 D8030000 		.4byte	0x3d8
 948 03aa 02       		.byte	0x2
 949 03ab 23       		.byte	0x23
 950 03ac 04       		.uleb128 0x4
 951 03ad 06       		.uleb128 0x6
 952 03ae E0010000 		.4byte	.LASF54
 953 03b2 09       		.byte	0x9
 954 03b3 69       		.byte	0x69
 955 03b4 FA000000 		.4byte	0xfa
 956 03b8 02       		.byte	0x2
 957 03b9 23       		.byte	0x23
 958 03ba 08       		.uleb128 0x8
 959 03bb 06       		.uleb128 0x6
 960 03bc 94040000 		.4byte	.LASF55
 961 03c0 09       		.byte	0x9
 962 03c1 6A       		.byte	0x6a
 963 03c2 5D030000 		.4byte	0x35d
 964 03c6 02       		.byte	0x2
 965 03c7 23       		.byte	0x23
 966 03c8 0C       		.uleb128 0xc
 967 03c9 06       		.uleb128 0x6
 968 03ca BC030000 		.4byte	.LASF56
 969 03ce 09       		.byte	0x9
 970 03cf 6C       		.byte	0x6c
 971 03d0 98020000 		.4byte	0x298
 972 03d4 02       		.byte	0x2
 973 03d5 23       		.byte	0x23
 974 03d6 10       		.uleb128 0x10
 975 03d7 00       		.byte	0
 976 03d8 09       		.uleb128 0x9
 977 03d9 04       		.byte	0x4
 978 03da 7A030000 		.4byte	0x37a
 979 03de 08       		.uleb128 0x8
 980 03df 10       		.byte	0x10
 981 03e0 09       		.byte	0x9
 982 03e1 76       		.byte	0x76
 983 03e2 1F040000 		.4byte	0x41f
 984 03e6 06       		.uleb128 0x6
 985 03e7 3A010000 		.4byte	.LASF52
 986 03eb 09       		.byte	0x9
 987 03ec 77       		.byte	0x77
 988 03ed D8030000 		.4byte	0x3d8
 989 03f1 02       		.byte	0x2
 990 03f2 23       		.byte	0x23
 991 03f3 00       		.uleb128 0
 992 03f4 06       		.uleb128 0x6
 993 03f5 10010000 		.4byte	.LASF53
 994 03f9 09       		.byte	0x9
 995 03fa 79       		.byte	0x79
 996 03fb D8030000 		.4byte	0x3d8
 997 03ff 02       		.byte	0x2
 998 0400 23       		.byte	0x23
 999 0401 04       		.uleb128 0x4
 1000 0402 06       		.uleb128 0x6
 1001 0403 E0010000 		.4byte	.LASF54
ARM GAS  C:\Users\RICHRD~1\AppData\Local\Temp\ccN71VnR.s 			page 19


 1002 0407 09       		.byte	0x9
 1003 0408 7B       		.byte	0x7b
 1004 0409 FA000000 		.4byte	0xfa
 1005 040d 02       		.byte	0x2
 1006 040e 23       		.byte	0x23
 1007 040f 08       		.uleb128 0x8
 1008 0410 06       		.uleb128 0x6
 1009 0411 5A030000 		.4byte	.LASF57
 1010 0415 09       		.byte	0x9
 1011 0416 7C       		.byte	0x7c
 1012 0417 1F040000 		.4byte	0x41f
 1013 041b 02       		.byte	0x2
 1014 041c 23       		.byte	0x23
 1015 041d 0C       		.uleb128 0xc
 1016 041e 00       		.byte	0
 1017 041f 0F       		.uleb128 0xf
 1018 0420 FA000000 		.4byte	0xfa
 1019 0424 03       		.uleb128 0x3
 1020 0425 41040000 		.4byte	.LASF58
 1021 0429 09       		.byte	0x9
 1022 042a 7D       		.byte	0x7d
 1023 042b DE030000 		.4byte	0x3de
 1024 042f 05       		.uleb128 0x5
 1025 0430 0E020000 		.4byte	.LASF59
 1026 0434 10       		.byte	0x10
 1027 0435 0A       		.byte	0xa
 1028 0436 2C       		.byte	0x2c
 1029 0437 66040000 		.4byte	0x466
 1030 043b 06       		.uleb128 0x6
 1031 043c D7020000 		.4byte	.LASF60
 1032 0440 0A       		.byte	0xa
 1033 0441 2D       		.byte	0x2d
 1034 0442 60020000 		.4byte	0x260
 1035 0446 02       		.byte	0x2
 1036 0447 23       		.byte	0x23
 1037 0448 00       		.uleb128 0
 1038 0449 06       		.uleb128 0x6
 1039 044a 58040000 		.4byte	.LASF61
 1040 044e 0A       		.byte	0xa
 1041 044f 2F       		.byte	0x2f
 1042 0450 5A020000 		.4byte	0x25a
 1043 0454 02       		.byte	0x2
 1044 0455 23       		.byte	0x23
 1045 0456 08       		.uleb128 0x8
 1046 0457 06       		.uleb128 0x6
 1047 0458 7C030000 		.4byte	.LASF62
 1048 045c 0A       		.byte	0xa
 1049 045d 31       		.byte	0x31
 1050 045e 66040000 		.4byte	0x466
 1051 0462 02       		.byte	0x2
 1052 0463 23       		.byte	0x23
 1053 0464 0C       		.uleb128 0xc
 1054 0465 00       		.byte	0
 1055 0466 09       		.uleb128 0x9
 1056 0467 04       		.byte	0x4
 1057 0468 2F040000 		.4byte	0x42f
 1058 046c 03       		.uleb128 0x3
ARM GAS  C:\Users\RICHRD~1\AppData\Local\Temp\ccN71VnR.s 			page 20


 1059 046d 0E020000 		.4byte	.LASF59
 1060 0471 0A       		.byte	0xa
 1061 0472 33       		.byte	0x33
 1062 0473 2F040000 		.4byte	0x42f
 1063 0477 10       		.uleb128 0x10
 1064 0478 04       		.byte	0x4
 1065 0479 07       		.byte	0x7
 1066 047a 96       		.byte	0x96
 1067 047b AC040000 		.4byte	0x4ac
 1068 047f 11       		.uleb128 0x11
 1069 0480 1C000000 		.4byte	.LASF63
 1070 0484 07       		.byte	0x7
 1071 0485 9D       		.byte	0x9d
 1072 0486 E4000000 		.4byte	0xe4
 1073 048a 11       		.uleb128 0x11
 1074 048b 61000000 		.4byte	.LASF64
 1075 048f 07       		.byte	0x7
 1076 0490 A4       		.byte	0xa4
 1077 0491 E4000000 		.4byte	0xe4
 1078 0495 11       		.uleb128 0x11
 1079 0496 0D040000 		.4byte	.LASF65
 1080 049a 07       		.byte	0x7
 1081 049b AB       		.byte	0xab
 1082 049c 98020000 		.4byte	0x298
 1083 04a0 11       		.uleb128 0x11
 1084 04a1 11030000 		.4byte	.LASF66
 1085 04a5 07       		.byte	0x7
 1086 04a6 B2       		.byte	0xb2
 1087 04a7 EF000000 		.4byte	0xef
 1088 04ab 00       		.byte	0
 1089 04ac 09       		.uleb128 0x9
 1090 04ad 04       		.byte	0x4
 1091 04ae B2040000 		.4byte	0x4b2
 1092 04b2 12       		.uleb128 0x12
 1093 04b3 B7040000 		.4byte	0x4b7
 1094 04b7 04       		.uleb128 0x4
 1095 04b8 01       		.byte	0x1
 1096 04b9 08       		.byte	0x8
 1097 04ba 77030000 		.4byte	.LASF67
 1098 04be 09       		.uleb128 0x9
 1099 04bf 04       		.byte	0x4
 1100 04c0 6C040000 		.4byte	0x46c
 1101 04c4 03       		.uleb128 0x3
 1102 04c5 00000000 		.4byte	.LASF68
 1103 04c9 07       		.byte	0x7
 1104 04ca E5       		.byte	0xe5
 1105 04cb CF040000 		.4byte	0x4cf
 1106 04cf 09       		.uleb128 0x9
 1107 04d0 04       		.byte	0x4
 1108 04d1 D5040000 		.4byte	0x4d5
 1109 04d5 13       		.uleb128 0x13
 1110 04d6 01       		.byte	0x1
 1111 04d7 E4000000 		.4byte	0xe4
 1112 04db E5040000 		.4byte	0x4e5
 1113 04df 0E       		.uleb128 0xe
 1114 04e0 98020000 		.4byte	0x298
 1115 04e4 00       		.byte	0
ARM GAS  C:\Users\RICHRD~1\AppData\Local\Temp\ccN71VnR.s 			page 21


 1116 04e5 09       		.uleb128 0x9
 1117 04e6 04       		.byte	0x4
 1118 04e7 49000000 		.4byte	0x49
 1119 04eb 05       		.uleb128 0x5
 1120 04ec 1F030000 		.4byte	.LASF69
 1121 04f0 10       		.byte	0x10
 1122 04f1 0B       		.byte	0xb
 1123 04f2 48       		.byte	0x48
 1124 04f3 30050000 		.4byte	0x530
 1125 04f7 06       		.uleb128 0x6
 1126 04f8 D5010000 		.4byte	.LASF70
 1127 04fc 0B       		.byte	0xb
 1128 04fd 49       		.byte	0x49
 1129 04fe 55050000 		.4byte	0x555
 1130 0502 02       		.byte	0x2
 1131 0503 23       		.byte	0x23
 1132 0504 00       		.uleb128 0
 1133 0505 06       		.uleb128 0x6
 1134 0506 88010000 		.4byte	.LASF71
 1135 050a 0B       		.byte	0xb
 1136 050b 49       		.byte	0x49
 1137 050c 75050000 		.4byte	0x575
 1138 0510 02       		.byte	0x2
 1139 0511 23       		.byte	0x23
 1140 0512 04       		.uleb128 0x4
 1141 0513 07       		.uleb128 0x7
 1142 0514 70757400 		.ascii	"put\000"
 1143 0518 0B       		.byte	0xb
 1144 0519 49       		.byte	0x49
 1145 051a 90050000 		.4byte	0x590
 1146 051e 02       		.byte	0x2
 1147 051f 23       		.byte	0x23
 1148 0520 08       		.uleb128 0x8
 1149 0521 07       		.uleb128 0x7
 1150 0522 67657400 		.ascii	"get\000"
 1151 0526 0B       		.byte	0xb
 1152 0527 49       		.byte	0x49
 1153 0528 CF040000 		.4byte	0x4cf
 1154 052c 02       		.byte	0x2
 1155 052d 23       		.byte	0x23
 1156 052e 0C       		.uleb128 0xc
 1157 052f 00       		.byte	0
 1158 0530 13       		.uleb128 0x13
 1159 0531 01       		.byte	0x1
 1160 0532 30000000 		.4byte	0x30
 1161 0536 4A050000 		.4byte	0x54a
 1162 053a 0E       		.uleb128 0xe
 1163 053b 98020000 		.4byte	0x298
 1164 053f 0E       		.uleb128 0xe
 1165 0540 4A050000 		.4byte	0x54a
 1166 0544 0E       		.uleb128 0xe
 1167 0545 30000000 		.4byte	0x30
 1168 0549 00       		.byte	0
 1169 054a 09       		.uleb128 0x9
 1170 054b 04       		.byte	0x4
 1171 054c 50050000 		.4byte	0x550
 1172 0550 12       		.uleb128 0x12
ARM GAS  C:\Users\RICHRD~1\AppData\Local\Temp\ccN71VnR.s 			page 22


 1173 0551 49000000 		.4byte	0x49
 1174 0555 09       		.uleb128 0x9
 1175 0556 04       		.byte	0x4
 1176 0557 30050000 		.4byte	0x530
 1177 055b 13       		.uleb128 0x13
 1178 055c 01       		.byte	0x1
 1179 055d 30000000 		.4byte	0x30
 1180 0561 75050000 		.4byte	0x575
 1181 0565 0E       		.uleb128 0xe
 1182 0566 98020000 		.4byte	0x298
 1183 056a 0E       		.uleb128 0xe
 1184 056b E5040000 		.4byte	0x4e5
 1185 056f 0E       		.uleb128 0xe
 1186 0570 30000000 		.4byte	0x30
 1187 0574 00       		.byte	0
 1188 0575 09       		.uleb128 0x9
 1189 0576 04       		.byte	0x4
 1190 0577 5B050000 		.4byte	0x55b
 1191 057b 13       		.uleb128 0x13
 1192 057c 01       		.byte	0x1
 1193 057d E4000000 		.4byte	0xe4
 1194 0581 90050000 		.4byte	0x590
 1195 0585 0E       		.uleb128 0xe
 1196 0586 98020000 		.4byte	0x298
 1197 058a 0E       		.uleb128 0xe
 1198 058b 49000000 		.4byte	0x49
 1199 058f 00       		.byte	0
 1200 0590 09       		.uleb128 0x9
 1201 0591 04       		.byte	0x4
 1202 0592 7B050000 		.4byte	0x57b
 1203 0596 08       		.uleb128 0x8
 1204 0597 04       		.byte	0x4
 1205 0598 0B       		.byte	0xb
 1206 0599 51       		.byte	0x51
 1207 059a AD050000 		.4byte	0x5ad
 1208 059e 07       		.uleb128 0x7
 1209 059f 766D7400 		.ascii	"vmt\000"
 1210 05a3 0B       		.byte	0xb
 1211 05a4 53       		.byte	0x53
 1212 05a5 AD050000 		.4byte	0x5ad
 1213 05a9 02       		.byte	0x2
 1214 05aa 23       		.byte	0x23
 1215 05ab 00       		.uleb128 0
 1216 05ac 00       		.byte	0
 1217 05ad 09       		.uleb128 0x9
 1218 05ae 04       		.byte	0x4
 1219 05af B3050000 		.4byte	0x5b3
 1220 05b3 12       		.uleb128 0x12
 1221 05b4 EB040000 		.4byte	0x4eb
 1222 05b8 03       		.uleb128 0x3
 1223 05b9 18010000 		.4byte	.LASF72
 1224 05bd 0B       		.byte	0xb
 1225 05be 55       		.byte	0x55
 1226 05bf 96050000 		.4byte	0x596
 1227 05c3 0F       		.uleb128 0xf
 1228 05c4 69000000 		.4byte	0x69
 1229 05c8 05       		.uleb128 0x5
ARM GAS  C:\Users\RICHRD~1\AppData\Local\Temp\ccN71VnR.s 			page 23


 1230 05c9 52000000 		.4byte	.LASF73
 1231 05cd 20       		.byte	0x20
 1232 05ce 0C       		.byte	0xc
 1233 05cf 4E       		.byte	0x4e
 1234 05d0 45060000 		.4byte	0x645
 1235 05d4 06       		.uleb128 0x6
 1236 05d5 D5010000 		.4byte	.LASF70
 1237 05d9 0C       		.byte	0xc
 1238 05da 4F       		.byte	0x4f
 1239 05db 55050000 		.4byte	0x555
 1240 05df 02       		.byte	0x2
 1241 05e0 23       		.byte	0x23
 1242 05e1 00       		.uleb128 0
 1243 05e2 06       		.uleb128 0x6
 1244 05e3 88010000 		.4byte	.LASF71
 1245 05e7 0C       		.byte	0xc
 1246 05e8 4F       		.byte	0x4f
 1247 05e9 75050000 		.4byte	0x575
 1248 05ed 02       		.byte	0x2
 1249 05ee 23       		.byte	0x23
 1250 05ef 04       		.uleb128 0x4
 1251 05f0 07       		.uleb128 0x7
 1252 05f1 70757400 		.ascii	"put\000"
 1253 05f5 0C       		.byte	0xc
 1254 05f6 4F       		.byte	0x4f
 1255 05f7 90050000 		.4byte	0x590
 1256 05fb 02       		.byte	0x2
 1257 05fc 23       		.byte	0x23
 1258 05fd 08       		.uleb128 0x8
 1259 05fe 07       		.uleb128 0x7
 1260 05ff 67657400 		.ascii	"get\000"
 1261 0603 0C       		.byte	0xc
 1262 0604 4F       		.byte	0x4f
 1263 0605 CF040000 		.4byte	0x4cf
 1264 0609 02       		.byte	0x2
 1265 060a 23       		.byte	0x23
 1266 060b 0C       		.uleb128 0xc
 1267 060c 06       		.uleb128 0x6
 1268 060d DB010000 		.4byte	.LASF74
 1269 0611 0C       		.byte	0xc
 1270 0612 4F       		.byte	0x4f
 1271 0613 5F060000 		.4byte	0x65f
 1272 0617 02       		.byte	0x2
 1273 0618 23       		.byte	0x23
 1274 0619 10       		.uleb128 0x10
 1275 061a 06       		.uleb128 0x6
 1276 061b 4D010000 		.4byte	.LASF75
 1277 061f 0C       		.byte	0xc
 1278 0620 4F       		.byte	0x4f
 1279 0621 7A060000 		.4byte	0x67a
 1280 0625 02       		.byte	0x2
 1281 0626 23       		.byte	0x23
 1282 0627 14       		.uleb128 0x14
 1283 0628 06       		.uleb128 0x6
 1284 0629 8D010000 		.4byte	.LASF76
 1285 062d 0C       		.byte	0xc
 1286 062e 4F       		.byte	0x4f
ARM GAS  C:\Users\RICHRD~1\AppData\Local\Temp\ccN71VnR.s 			page 24


 1287 062f 9F060000 		.4byte	0x69f
 1288 0633 02       		.byte	0x2
 1289 0634 23       		.byte	0x23
 1290 0635 18       		.uleb128 0x18
 1291 0636 06       		.uleb128 0x6
 1292 0637 91000000 		.4byte	.LASF77
 1293 063b 0C       		.byte	0xc
 1294 063c 4F       		.byte	0x4f
 1295 063d C4060000 		.4byte	0x6c4
 1296 0641 02       		.byte	0x2
 1297 0642 23       		.byte	0x23
 1298 0643 1C       		.uleb128 0x1c
 1299 0644 00       		.byte	0
 1300 0645 13       		.uleb128 0x13
 1301 0646 01       		.byte	0x1
 1302 0647 E4000000 		.4byte	0xe4
 1303 064b 5F060000 		.4byte	0x65f
 1304 064f 0E       		.uleb128 0xe
 1305 0650 98020000 		.4byte	0x298
 1306 0654 0E       		.uleb128 0xe
 1307 0655 49000000 		.4byte	0x49
 1308 0659 0E       		.uleb128 0xe
 1309 065a FA000000 		.4byte	0xfa
 1310 065e 00       		.byte	0
 1311 065f 09       		.uleb128 0x9
 1312 0660 04       		.byte	0x4
 1313 0661 45060000 		.4byte	0x645
 1314 0665 13       		.uleb128 0x13
 1315 0666 01       		.byte	0x1
 1316 0667 E4000000 		.4byte	0xe4
 1317 066b 7A060000 		.4byte	0x67a
 1318 066f 0E       		.uleb128 0xe
 1319 0670 98020000 		.4byte	0x298
 1320 0674 0E       		.uleb128 0xe
 1321 0675 FA000000 		.4byte	0xfa
 1322 0679 00       		.byte	0
 1323 067a 09       		.uleb128 0x9
 1324 067b 04       		.byte	0x4
 1325 067c 65060000 		.4byte	0x665
 1326 0680 13       		.uleb128 0x13
 1327 0681 01       		.byte	0x1
 1328 0682 30000000 		.4byte	0x30
 1329 0686 9F060000 		.4byte	0x69f
 1330 068a 0E       		.uleb128 0xe
 1331 068b 98020000 		.4byte	0x298
 1332 068f 0E       		.uleb128 0xe
 1333 0690 4A050000 		.4byte	0x54a
 1334 0694 0E       		.uleb128 0xe
 1335 0695 30000000 		.4byte	0x30
 1336 0699 0E       		.uleb128 0xe
 1337 069a FA000000 		.4byte	0xfa
 1338 069e 00       		.byte	0
 1339 069f 09       		.uleb128 0x9
 1340 06a0 04       		.byte	0x4
 1341 06a1 80060000 		.4byte	0x680
 1342 06a5 13       		.uleb128 0x13
 1343 06a6 01       		.byte	0x1
ARM GAS  C:\Users\RICHRD~1\AppData\Local\Temp\ccN71VnR.s 			page 25


 1344 06a7 30000000 		.4byte	0x30
 1345 06ab C4060000 		.4byte	0x6c4
 1346 06af 0E       		.uleb128 0xe
 1347 06b0 98020000 		.4byte	0x298
 1348 06b4 0E       		.uleb128 0xe
 1349 06b5 E5040000 		.4byte	0x4e5
 1350 06b9 0E       		.uleb128 0xe
 1351 06ba 30000000 		.4byte	0x30
 1352 06be 0E       		.uleb128 0xe
 1353 06bf FA000000 		.4byte	0xfa
 1354 06c3 00       		.byte	0
 1355 06c4 09       		.uleb128 0x9
 1356 06c5 04       		.byte	0x4
 1357 06c6 A5060000 		.4byte	0x6a5
 1358 06ca 08       		.uleb128 0x8
 1359 06cb 04       		.byte	0x4
 1360 06cc 0C       		.byte	0xc
 1361 06cd 59       		.byte	0x59
 1362 06ce E1060000 		.4byte	0x6e1
 1363 06d2 07       		.uleb128 0x7
 1364 06d3 766D7400 		.ascii	"vmt\000"
 1365 06d7 0C       		.byte	0xc
 1366 06d8 5B       		.byte	0x5b
 1367 06d9 E1060000 		.4byte	0x6e1
 1368 06dd 02       		.byte	0x2
 1369 06de 23       		.byte	0x23
 1370 06df 00       		.uleb128 0
 1371 06e0 00       		.byte	0
 1372 06e1 09       		.uleb128 0x9
 1373 06e2 04       		.byte	0x4
 1374 06e3 E7060000 		.4byte	0x6e7
 1375 06e7 12       		.uleb128 0x12
 1376 06e8 C8050000 		.4byte	0x5c8
 1377 06ec 03       		.uleb128 0x3
 1378 06ed 01040000 		.4byte	.LASF78
 1379 06f1 0C       		.byte	0xc
 1380 06f2 5D       		.byte	0x5d
 1381 06f3 CA060000 		.4byte	0x6ca
 1382 06f7 03       		.uleb128 0x3
 1383 06f8 14020000 		.4byte	.LASF79
 1384 06fc 0D       		.byte	0xd
 1385 06fd 28       		.byte	0x28
 1386 06fe 02070000 		.4byte	0x702
 1387 0702 05       		.uleb128 0x5
 1388 0703 D5000000 		.4byte	.LASF80
 1389 0707 04       		.byte	0x4
 1390 0708 0E       		.byte	0xe
 1391 0709 00       		.byte	0
 1392 070a 1C070000 		.4byte	0x71c
 1393 070e 14       		.uleb128 0x14
 1394 070f A8030000 		.4byte	.LASF81
 1395 0713 98020000 		.4byte	0x298
 1396 0717 02       		.byte	0x2
 1397 0718 23       		.byte	0x23
 1398 0719 00       		.uleb128 0
 1399 071a 01       		.byte	0x1
 1400 071b 00       		.byte	0
ARM GAS  C:\Users\RICHRD~1\AppData\Local\Temp\ccN71VnR.s 			page 26


 1401 071c 03       		.uleb128 0x3
 1402 071d 2C000000 		.4byte	.LASF82
 1403 0721 0D       		.byte	0xd
 1404 0722 66       		.byte	0x66
 1405 0723 F7060000 		.4byte	0x6f7
 1406 0727 15       		.uleb128 0x15
 1407 0728 9C040000 		.4byte	.LASF102
 1408 072c 01       		.byte	0x1
 1409 072d 45       		.byte	0x45
 1410 072e 01       		.byte	0x1
 1411 072f 00000000 		.4byte	.LFB118
 1412 0733 1E000000 		.4byte	.LFE118
 1413 0737 00000000 		.4byte	.LLST0
 1414 073b 01       		.byte	0x1
 1415 073c 8A070000 		.4byte	0x78a
 1416 0740 16       		.uleb128 0x16
 1417 0741 63687000 		.ascii	"chp\000"
 1418 0745 01       		.byte	0x1
 1419 0746 45       		.byte	0x45
 1420 0747 8A070000 		.4byte	0x78a
 1421 074b 38000000 		.4byte	.LLST1
 1422 074f 17       		.uleb128 0x17
 1423 0750 666D7400 		.ascii	"fmt\000"
 1424 0754 01       		.byte	0x1
 1425 0755 45       		.byte	0x45
 1426 0756 AC040000 		.4byte	0x4ac
 1427 075a 02       		.byte	0x2
 1428 075b 91       		.byte	0x91
 1429 075c 74       		.sleb128 -12
 1430 075d 18       		.uleb128 0x18
 1431 075e 19       		.uleb128 0x19
 1432 075f 617000   		.ascii	"ap\000"
 1433 0762 01       		.byte	0x1
 1434 0763 46       		.byte	0x46
 1435 0764 1C070000 		.4byte	0x71c
 1436 0768 02       		.byte	0x2
 1437 0769 91       		.byte	0x91
 1438 076a 6C       		.sleb128 -20
 1439 076b 1A       		.uleb128 0x1a
 1440 076c 14000000 		.4byte	.LVL1
 1441 0770 290A0000 		.4byte	0xa29
 1442 0774 1B       		.uleb128 0x1b
 1443 0775 01       		.byte	0x1
 1444 0776 52       		.byte	0x52
 1445 0777 02       		.byte	0x2
 1446 0778 91       		.byte	0x91
 1447 0779 60       		.sleb128 -32
 1448 077a 1B       		.uleb128 0x1b
 1449 077b 01       		.byte	0x1
 1450 077c 51       		.byte	0x51
 1451 077d 03       		.byte	0x3
 1452 077e 91       		.byte	0x91
 1453 077f 5C       		.sleb128 -36
 1454 0780 06       		.byte	0x6
 1455 0781 1B       		.uleb128 0x1b
 1456 0782 01       		.byte	0x1
 1457 0783 50       		.byte	0x50
ARM GAS  C:\Users\RICHRD~1\AppData\Local\Temp\ccN71VnR.s 			page 27


 1458 0784 03       		.byte	0x3
 1459 0785 F3       		.byte	0xf3
 1460 0786 01       		.uleb128 0x1
 1461 0787 50       		.byte	0x50
 1462 0788 00       		.byte	0
 1463 0789 00       		.byte	0
 1464 078a 09       		.uleb128 0x9
 1465 078b 04       		.byte	0x4
 1466 078c B8050000 		.4byte	0x5b8
 1467 0790 1C       		.uleb128 0x1c
 1468 0791 19040000 		.4byte	.LASF103
 1469 0795 02       		.byte	0x2
 1470 0796 12       		.byte	0x12
 1471 0797 01       		.byte	0x1
 1472 0798 E4000000 		.4byte	0xe4
 1473 079c 00000000 		.4byte	.LFB119
 1474 07a0 58000000 		.4byte	.LFE119
 1475 07a4 59000000 		.4byte	.LLST2
 1476 07a8 01       		.byte	0x1
 1477 07a9 FF070000 		.4byte	0x7ff
 1478 07ad 16       		.uleb128 0x16
 1479 07ae 7000     		.ascii	"p\000"
 1480 07b0 02       		.byte	0x2
 1481 07b1 12       		.byte	0x12
 1482 07b2 98020000 		.4byte	0x298
 1483 07b6 79000000 		.4byte	.LLST3
 1484 07ba 1D       		.uleb128 0x1d
 1485 07bb 81020000 		.4byte	.LASF83
 1486 07bf 02       		.byte	0x2
 1487 07c0 14       		.byte	0x14
 1488 07c1 FA000000 		.4byte	0xfa
 1489 07c5 01       		.byte	0x1
 1490 07c6 54       		.byte	0x54
 1491 07c7 1E       		.uleb128 0x1e
 1492 07c8 1C000000 		.4byte	.LVL5
 1493 07cc 470A0000 		.4byte	0xa47
 1494 07d0 DB070000 		.4byte	0x7db
 1495 07d4 1B       		.uleb128 0x1b
 1496 07d5 01       		.byte	0x1
 1497 07d6 50       		.byte	0x50
 1498 07d7 02       		.byte	0x2
 1499 07d8 78       		.byte	0x78
 1500 07d9 01       		.sleb128 1
 1501 07da 00       		.byte	0
 1502 07db 1E       		.uleb128 0x1e
 1503 07dc 34000000 		.4byte	.LVL6
 1504 07e0 5F0A0000 		.4byte	0xa5f
 1505 07e4 EF070000 		.4byte	0x7ef
 1506 07e8 1B       		.uleb128 0x1b
 1507 07e9 01       		.byte	0x1
 1508 07ea 50       		.byte	0x50
 1509 07eb 02       		.byte	0x2
 1510 07ec 74       		.byte	0x74
 1511 07ed 00       		.sleb128 0
 1512 07ee 00       		.byte	0
 1513 07ef 1A       		.uleb128 0x1a
 1514 07f0 44000000 		.4byte	.LVL8
ARM GAS  C:\Users\RICHRD~1\AppData\Local\Temp\ccN71VnR.s 			page 28


 1515 07f4 470A0000 		.4byte	0xa47
 1516 07f8 1B       		.uleb128 0x1b
 1517 07f9 01       		.byte	0x1
 1518 07fa 50       		.byte	0x50
 1519 07fb 01       		.byte	0x1
 1520 07fc 30       		.byte	0x30
 1521 07fd 00       		.byte	0
 1522 07fe 00       		.byte	0
 1523 07ff 1F       		.uleb128 0x1f
 1524 0800 01       		.byte	0x1
 1525 0801 0F000000 		.4byte	.LASF84
 1526 0805 02       		.byte	0x2
 1527 0806 2A       		.byte	0x2a
 1528 0807 01       		.byte	0x1
 1529 0808 00000000 		.4byte	.LFB120
 1530 080c 38000000 		.4byte	.LFE120
 1531 0810 9A000000 		.4byte	.LLST4
 1532 0814 01       		.byte	0x1
 1533 0815 5B080000 		.4byte	0x85b
 1534 0819 20       		.uleb128 0x20
 1535 081a 08000000 		.4byte	.LVL9
 1536 081e 740A0000 		.4byte	0xa74
 1537 0822 20       		.uleb128 0x20
 1538 0823 0C000000 		.4byte	.LVL10
 1539 0827 7E0A0000 		.4byte	0xa7e
 1540 082b 1A       		.uleb128 0x1a
 1541 082c 34000000 		.4byte	.LVL11
 1542 0830 8C0A0000 		.4byte	0xa8c
 1543 0834 1B       		.uleb128 0x1b
 1544 0835 01       		.byte	0x1
 1545 0836 53       		.byte	0x53
 1546 0837 05       		.byte	0x5
 1547 0838 03       		.byte	0x3
 1548 0839 00000000 		.4byte	ds18b20_polling_thread
 1549 083d 1B       		.uleb128 0x1b
 1550 083e 01       		.byte	0x1
 1551 083f 52       		.byte	0x52
 1552 0840 02       		.byte	0x2
 1553 0841 08       		.byte	0x8
 1554 0842 40       		.byte	0x40
 1555 0843 1B       		.uleb128 0x1b
 1556 0844 01       		.byte	0x1
 1557 0845 51       		.byte	0x51
 1558 0846 03       		.byte	0x3
 1559 0847 0A       		.byte	0xa
 1560 0848 D002     		.2byte	0x2d0
 1561 084a 1B       		.uleb128 0x1b
 1562 084b 01       		.byte	0x1
 1563 084c 50       		.byte	0x50
 1564 084d 05       		.byte	0x5
 1565 084e 03       		.byte	0x3
 1566 084f 00000000 		.4byte	.LANCHOR3
 1567 0853 1B       		.uleb128 0x1b
 1568 0854 02       		.byte	0x2
 1569 0855 7D       		.byte	0x7d
 1570 0856 00       		.sleb128 0
 1571 0857 01       		.byte	0x1
ARM GAS  C:\Users\RICHRD~1\AppData\Local\Temp\ccN71VnR.s 			page 29


 1572 0858 30       		.byte	0x30
 1573 0859 00       		.byte	0
 1574 085a 00       		.byte	0
 1575 085b 21       		.uleb128 0x21
 1576 085c 01       		.byte	0x1
 1577 085d 30040000 		.4byte	.LASF104
 1578 0861 02       		.byte	0x2
 1579 0862 37       		.byte	0x37
 1580 0863 01       		.byte	0x1
 1581 0864 7B000000 		.4byte	0x7b
 1582 0868 00000000 		.4byte	.LFB121
 1583 086c 50000000 		.4byte	.LFE121
 1584 0870 C6000000 		.4byte	.LLST5
 1585 0874 01       		.byte	0x1
 1586 0875 89080000 		.4byte	0x889
 1587 0879 16       		.uleb128 0x16
 1588 087a 6E756D00 		.ascii	"num\000"
 1589 087e 02       		.byte	0x2
 1590 087f 37       		.byte	0x37
 1591 0880 29000000 		.4byte	0x29
 1592 0884 E6000000 		.4byte	.LLST6
 1593 0888 00       		.byte	0
 1594 0889 22       		.uleb128 0x22
 1595 088a 01       		.byte	0x1
 1596 088b 77000000 		.4byte	.LASF85
 1597 088f 02       		.byte	0x2
 1598 0890 49       		.byte	0x49
 1599 0891 01       		.byte	0x1
 1600 0892 00000000 		.4byte	.LFB122
 1601 0896 8C000000 		.4byte	.LFE122
 1602 089a 52010000 		.4byte	.LLST7
 1603 089e 01       		.byte	0x1
 1604 089f 91090000 		.4byte	0x991
 1605 08a3 16       		.uleb128 0x16
 1606 08a4 63687000 		.ascii	"chp\000"
 1607 08a8 02       		.byte	0x2
 1608 08a9 49       		.byte	0x49
 1609 08aa 8A070000 		.4byte	0x78a
 1610 08ae 72010000 		.4byte	.LLST8
 1611 08b2 23       		.uleb128 0x23
 1612 08b3 14040000 		.4byte	.LASF86
 1613 08b7 02       		.byte	0x2
 1614 08b8 49       		.byte	0x49
 1615 08b9 29000000 		.4byte	0x29
 1616 08bd B1010000 		.4byte	.LLST9
 1617 08c1 23       		.uleb128 0x23
 1618 08c2 48040000 		.4byte	.LASF87
 1619 08c6 02       		.byte	0x2
 1620 08c7 49       		.byte	0x49
 1621 08c8 91090000 		.4byte	0x991
 1622 08cc D2010000 		.4byte	.LLST10
 1623 08d0 1E       		.uleb128 0x1e
 1624 08d1 0C000000 		.4byte	.LVL26
 1625 08d5 27070000 		.4byte	0x727
 1626 08d9 ED080000 		.4byte	0x8ed
 1627 08dd 1B       		.uleb128 0x1b
 1628 08de 01       		.byte	0x1
ARM GAS  C:\Users\RICHRD~1\AppData\Local\Temp\ccN71VnR.s 			page 30


 1629 08df 51       		.byte	0x51
 1630 08e0 05       		.byte	0x5
 1631 08e1 03       		.byte	0x3
 1632 08e2 00000000 		.4byte	.LC0
 1633 08e6 1B       		.uleb128 0x1b
 1634 08e7 01       		.byte	0x1
 1635 08e8 50       		.byte	0x50
 1636 08e9 02       		.byte	0x2
 1637 08ea 74       		.byte	0x74
 1638 08eb 00       		.sleb128 0
 1639 08ec 00       		.byte	0
 1640 08ed 1E       		.uleb128 0x1e
 1641 08ee 14000000 		.4byte	.LVL27
 1642 08f2 27070000 		.4byte	0x727
 1643 08f6 0A090000 		.4byte	0x90a
 1644 08fa 1B       		.uleb128 0x1b
 1645 08fb 01       		.byte	0x1
 1646 08fc 51       		.byte	0x51
 1647 08fd 05       		.byte	0x5
 1648 08fe 03       		.byte	0x3
 1649 08ff 04000000 		.4byte	.LC1
 1650 0903 1B       		.uleb128 0x1b
 1651 0904 01       		.byte	0x1
 1652 0905 50       		.byte	0x50
 1653 0906 02       		.byte	0x2
 1654 0907 74       		.byte	0x74
 1655 0908 00       		.sleb128 0
 1656 0909 00       		.byte	0
 1657 090a 20       		.uleb128 0x20
 1658 090b 1A000000 		.4byte	.LVL29
 1659 090f 27070000 		.4byte	0x727
 1660 0913 1E       		.uleb128 0x1e
 1661 0914 2C000000 		.4byte	.LVL31
 1662 0918 27070000 		.4byte	0x727
 1663 091c 30090000 		.4byte	0x930
 1664 0920 1B       		.uleb128 0x1b
 1665 0921 01       		.byte	0x1
 1666 0922 51       		.byte	0x51
 1667 0923 05       		.byte	0x5
 1668 0924 03       		.byte	0x3
 1669 0925 18000000 		.4byte	.LC3
 1670 0929 1B       		.uleb128 0x1b
 1671 092a 01       		.byte	0x1
 1672 092b 50       		.byte	0x50
 1673 092c 02       		.byte	0x2
 1674 092d 74       		.byte	0x74
 1675 092e 00       		.sleb128 0
 1676 092f 00       		.byte	0
 1677 0930 1E       		.uleb128 0x1e
 1678 0931 3E000000 		.4byte	.LVL33
 1679 0935 27070000 		.4byte	0x727
 1680 0939 4D090000 		.4byte	0x94d
 1681 093d 1B       		.uleb128 0x1b
 1682 093e 01       		.byte	0x1
 1683 093f 51       		.byte	0x51
 1684 0940 05       		.byte	0x5
 1685 0941 03       		.byte	0x3
ARM GAS  C:\Users\RICHRD~1\AppData\Local\Temp\ccN71VnR.s 			page 31


 1686 0942 30000000 		.4byte	.LC4
 1687 0946 1B       		.uleb128 0x1b
 1688 0947 01       		.byte	0x1
 1689 0948 50       		.byte	0x50
 1690 0949 02       		.byte	0x2
 1691 094a 74       		.byte	0x74
 1692 094b 00       		.sleb128 0
 1693 094c 00       		.byte	0
 1694 094d 1E       		.uleb128 0x1e
 1695 094e 50000000 		.4byte	.LVL35
 1696 0952 27070000 		.4byte	0x727
 1697 0956 6A090000 		.4byte	0x96a
 1698 095a 1B       		.uleb128 0x1b
 1699 095b 01       		.byte	0x1
 1700 095c 51       		.byte	0x51
 1701 095d 05       		.byte	0x5
 1702 095e 03       		.byte	0x3
 1703 095f 48000000 		.4byte	.LC5
 1704 0963 1B       		.uleb128 0x1b
 1705 0964 01       		.byte	0x1
 1706 0965 50       		.byte	0x50
 1707 0966 02       		.byte	0x2
 1708 0967 74       		.byte	0x74
 1709 0968 00       		.sleb128 0
 1710 0969 00       		.byte	0
 1711 096a 1E       		.uleb128 0x1e
 1712 096b 58000000 		.4byte	.LVL36
 1713 096f B90A0000 		.4byte	0xab9
 1714 0973 7F090000 		.4byte	0x97f
 1715 0977 1B       		.uleb128 0x1b
 1716 0978 01       		.byte	0x1
 1717 0979 50       		.byte	0x50
 1718 097a 03       		.byte	0x3
 1719 097b 0A       		.byte	0xa
 1720 097c E803     		.2byte	0x3e8
 1721 097e 00       		.byte	0
 1722 097f 24       		.uleb128 0x24
 1723 0980 62000000 		.4byte	.LVL37
 1724 0984 1B       		.uleb128 0x1b
 1725 0985 01       		.byte	0x1
 1726 0986 51       		.byte	0x51
 1727 0987 01       		.byte	0x1
 1728 0988 30       		.byte	0x30
 1729 0989 1B       		.uleb128 0x1b
 1730 098a 01       		.byte	0x1
 1731 098b 50       		.byte	0x50
 1732 098c 02       		.byte	0x2
 1733 098d 74       		.byte	0x74
 1734 098e 00       		.sleb128 0
 1735 098f 00       		.byte	0
 1736 0990 00       		.byte	0
 1737 0991 09       		.uleb128 0x9
 1738 0992 04       		.byte	0x4
 1739 0993 97090000 		.4byte	0x997
 1740 0997 09       		.uleb128 0x9
 1741 0998 04       		.byte	0x4
 1742 0999 B7040000 		.4byte	0x4b7
ARM GAS  C:\Users\RICHRD~1\AppData\Local\Temp\ccN71VnR.s 			page 32


 1743 099d 25       		.uleb128 0x25
 1744 099e 9A020000 		.4byte	0x29a
 1745 09a2 AD090000 		.4byte	0x9ad
 1746 09a6 26       		.uleb128 0x26
 1747 09a7 56030000 		.4byte	0x356
 1748 09ab 59       		.byte	0x59
 1749 09ac 00       		.byte	0
 1750 09ad 1D       		.uleb128 0x1d
 1751 09ae FB010000 		.4byte	.LASF88
 1752 09b2 02       		.byte	0x2
 1753 09b3 0C       		.byte	0xc
 1754 09b4 9D090000 		.4byte	0x99d
 1755 09b8 05       		.byte	0x5
 1756 09b9 03       		.byte	0x3
 1757 09ba 00000000 		.4byte	wa_ds18b20_polling
 1758 09be 1D       		.uleb128 0x1d
 1759 09bf A4020000 		.4byte	.LASF89
 1760 09c3 02       		.byte	0x2
 1761 09c4 0F       		.byte	0xf
 1762 09c5 29000000 		.4byte	0x29
 1763 09c9 05       		.byte	0x5
 1764 09ca 03       		.byte	0x3
 1765 09cb 00000000 		.4byte	seconds
 1766 09cf 1D       		.uleb128 0x1d
 1767 09d0 4D040000 		.4byte	.LASF90
 1768 09d4 02       		.byte	0x2
 1769 09d5 10       		.byte	0x10
 1770 09d6 29000000 		.4byte	0x29
 1771 09da 05       		.byte	0x5
 1772 09db 03       		.byte	0x3
 1773 09dc 00000000 		.4byte	sensor_num
 1774 09e0 27       		.uleb128 0x27
 1775 09e1 34000000 		.4byte	.LASF91
 1776 09e5 09       		.byte	0x9
 1777 09e6 F5       		.byte	0xf5
 1778 09e7 24040000 		.4byte	0x424
 1779 09eb 01       		.byte	0x1
 1780 09ec 01       		.byte	0x1
 1781 09ed 28       		.uleb128 0x28
 1782 09ee 6A000000 		.4byte	.LASF92
 1783 09f2 0F       		.byte	0xf
 1784 09f3 9806     		.2byte	0x698
 1785 09f5 C3050000 		.4byte	0x5c3
 1786 09f9 01       		.byte	0x1
 1787 09fa 01       		.byte	0x1
 1788 09fb 25       		.uleb128 0x25
 1789 09fc 0B0A0000 		.4byte	0xa0b
 1790 0a00 0B0A0000 		.4byte	0xa0b
 1791 0a04 26       		.uleb128 0x26
 1792 0a05 56030000 		.4byte	0x356
 1793 0a09 04       		.byte	0x4
 1794 0a0a 00       		.byte	0
 1795 0a0b 04       		.uleb128 0x4
 1796 0a0c 04       		.byte	0x4
 1797 0a0d 04       		.byte	0x4
 1798 0a0e 96020000 		.4byte	.LASF93
 1799 0a12 29       		.uleb128 0x29
ARM GAS  C:\Users\RICHRD~1\AppData\Local\Temp\ccN71VnR.s 			page 33


 1800 0a13 DF020000 		.4byte	.LASF94
 1801 0a17 02       		.byte	0x2
 1802 0a18 0E       		.byte	0xe
 1803 0a19 240A0000 		.4byte	0xa24
 1804 0a1d 01       		.byte	0x1
 1805 0a1e 05       		.byte	0x5
 1806 0a1f 03       		.byte	0x3
 1807 0a20 00000000 		.4byte	currentTemp
 1808 0a24 0F       		.uleb128 0xf
 1809 0a25 FB090000 		.4byte	0x9fb
 1810 0a29 2A       		.uleb128 0x2a
 1811 0a2a 01       		.byte	0x1
 1812 0a2b F7030000 		.4byte	.LASF95
 1813 0a2f 01       		.byte	0x1
 1814 0a30 28       		.byte	0x28
 1815 0a31 01       		.byte	0x1
 1816 0a32 01       		.byte	0x1
 1817 0a33 470A0000 		.4byte	0xa47
 1818 0a37 0E       		.uleb128 0xe
 1819 0a38 8A070000 		.4byte	0x78a
 1820 0a3c 0E       		.uleb128 0xe
 1821 0a3d AC040000 		.4byte	0x4ac
 1822 0a41 0E       		.uleb128 0xe
 1823 0a42 1C070000 		.4byte	0x71c
 1824 0a46 00       		.byte	0
 1825 0a47 2B       		.uleb128 0x2b
 1826 0a48 01       		.byte	0x1
 1827 0a49 78010000 		.4byte	.LASF97
 1828 0a4d 10       		.byte	0x10
 1829 0a4e 1E       		.byte	0x1e
 1830 0a4f 01       		.byte	0x1
 1831 0a50 0B0A0000 		.4byte	0xa0b
 1832 0a54 01       		.byte	0x1
 1833 0a55 5F0A0000 		.4byte	0xa5f
 1834 0a59 0E       		.uleb128 0xe
 1835 0a5a 49000000 		.4byte	0x49
 1836 0a5e 00       		.byte	0
 1837 0a5f 2C       		.uleb128 0x2c
 1838 0a60 01       		.byte	0x1
 1839 0a61 86020000 		.4byte	.LASF96
 1840 0a65 07       		.byte	0x7
 1841 0a66 7601     		.2byte	0x176
 1842 0a68 01       		.byte	0x1
 1843 0a69 01       		.byte	0x1
 1844 0a6a 740A0000 		.4byte	0xa74
 1845 0a6e 0E       		.uleb128 0xe
 1846 0a6f FA000000 		.4byte	0xfa
 1847 0a73 00       		.byte	0
 1848 0a74 2D       		.uleb128 0x2d
 1849 0a75 01       		.byte	0x1
 1850 0a76 F2000000 		.4byte	.LASF105
 1851 0a7a 10       		.byte	0x10
 1852 0a7b 18       		.byte	0x18
 1853 0a7c 01       		.byte	0x1
 1854 0a7d 01       		.byte	0x1
 1855 0a7e 2E       		.uleb128 0x2e
 1856 0a7f 01       		.byte	0x1
ARM GAS  C:\Users\RICHRD~1\AppData\Local\Temp\ccN71VnR.s 			page 34


 1857 0a80 9C010000 		.4byte	.LASF106
 1858 0a84 10       		.byte	0x10
 1859 0a85 1C       		.byte	0x1c
 1860 0a86 01       		.byte	0x1
 1861 0a87 49000000 		.4byte	0x49
 1862 0a8b 01       		.byte	0x1
 1863 0a8c 2F       		.uleb128 0x2f
 1864 0a8d 01       		.byte	0x1
 1865 0a8e C3010000 		.4byte	.LASF98
 1866 0a92 07       		.byte	0x7
 1867 0a93 7001     		.2byte	0x170
 1868 0a95 01       		.byte	0x1
 1869 0a96 5A020000 		.4byte	0x25a
 1870 0a9a 01       		.byte	0x1
 1871 0a9b B90A0000 		.4byte	0xab9
 1872 0a9f 0E       		.uleb128 0xe
 1873 0aa0 98020000 		.4byte	0x298
 1874 0aa4 0E       		.uleb128 0xe
 1875 0aa5 30000000 		.4byte	0x30
 1876 0aa9 0E       		.uleb128 0xe
 1877 0aaa D9000000 		.4byte	0xd9
 1878 0aae 0E       		.uleb128 0xe
 1879 0aaf C4040000 		.4byte	0x4c4
 1880 0ab3 0E       		.uleb128 0xe
 1881 0ab4 98020000 		.4byte	0x298
 1882 0ab8 00       		.byte	0
 1883 0ab9 30       		.uleb128 0x30
 1884 0aba 01       		.byte	0x1
 1885 0abb C3030000 		.4byte	.LASF107
 1886 0abf 07       		.byte	0x7
 1887 0ac0 7501     		.2byte	0x175
 1888 0ac2 01       		.byte	0x1
 1889 0ac3 01       		.byte	0x1
 1890 0ac4 0E       		.uleb128 0xe
 1891 0ac5 FA000000 		.4byte	0xfa
 1892 0ac9 00       		.byte	0
 1893 0aca 00       		.byte	0
 1894              		.section	.debug_abbrev,"",%progbits
 1895              	.Ldebug_abbrev0:
 1896 0000 01       		.uleb128 0x1
 1897 0001 11       		.uleb128 0x11
 1898 0002 01       		.byte	0x1
 1899 0003 25       		.uleb128 0x25
 1900 0004 0E       		.uleb128 0xe
 1901 0005 13       		.uleb128 0x13
 1902 0006 0B       		.uleb128 0xb
 1903 0007 03       		.uleb128 0x3
 1904 0008 0E       		.uleb128 0xe
 1905 0009 1B       		.uleb128 0x1b
 1906 000a 0E       		.uleb128 0xe
 1907 000b 55       		.uleb128 0x55
 1908 000c 06       		.uleb128 0x6
 1909 000d 11       		.uleb128 0x11
 1910 000e 01       		.uleb128 0x1
 1911 000f 52       		.uleb128 0x52
 1912 0010 01       		.uleb128 0x1
 1913 0011 10       		.uleb128 0x10
ARM GAS  C:\Users\RICHRD~1\AppData\Local\Temp\ccN71VnR.s 			page 35


 1914 0012 06       		.uleb128 0x6
 1915 0013 00       		.byte	0
 1916 0014 00       		.byte	0
 1917 0015 02       		.uleb128 0x2
 1918 0016 24       		.uleb128 0x24
 1919 0017 00       		.byte	0
 1920 0018 0B       		.uleb128 0xb
 1921 0019 0B       		.uleb128 0xb
 1922 001a 3E       		.uleb128 0x3e
 1923 001b 0B       		.uleb128 0xb
 1924 001c 03       		.uleb128 0x3
 1925 001d 08       		.uleb128 0x8
 1926 001e 00       		.byte	0
 1927 001f 00       		.byte	0
 1928 0020 03       		.uleb128 0x3
 1929 0021 16       		.uleb128 0x16
 1930 0022 00       		.byte	0
 1931 0023 03       		.uleb128 0x3
 1932 0024 0E       		.uleb128 0xe
 1933 0025 3A       		.uleb128 0x3a
 1934 0026 0B       		.uleb128 0xb
 1935 0027 3B       		.uleb128 0x3b
 1936 0028 0B       		.uleb128 0xb
 1937 0029 49       		.uleb128 0x49
 1938 002a 13       		.uleb128 0x13
 1939 002b 00       		.byte	0
 1940 002c 00       		.byte	0
 1941 002d 04       		.uleb128 0x4
 1942 002e 24       		.uleb128 0x24
 1943 002f 00       		.byte	0
 1944 0030 0B       		.uleb128 0xb
 1945 0031 0B       		.uleb128 0xb
 1946 0032 3E       		.uleb128 0x3e
 1947 0033 0B       		.uleb128 0xb
 1948 0034 03       		.uleb128 0x3
 1949 0035 0E       		.uleb128 0xe
 1950 0036 00       		.byte	0
 1951 0037 00       		.byte	0
 1952 0038 05       		.uleb128 0x5
 1953 0039 13       		.uleb128 0x13
 1954 003a 01       		.byte	0x1
 1955 003b 03       		.uleb128 0x3
 1956 003c 0E       		.uleb128 0xe
 1957 003d 0B       		.uleb128 0xb
 1958 003e 0B       		.uleb128 0xb
 1959 003f 3A       		.uleb128 0x3a
 1960 0040 0B       		.uleb128 0xb
 1961 0041 3B       		.uleb128 0x3b
 1962 0042 0B       		.uleb128 0xb
 1963 0043 01       		.uleb128 0x1
 1964 0044 13       		.uleb128 0x13
 1965 0045 00       		.byte	0
 1966 0046 00       		.byte	0
 1967 0047 06       		.uleb128 0x6
 1968 0048 0D       		.uleb128 0xd
 1969 0049 00       		.byte	0
 1970 004a 03       		.uleb128 0x3
ARM GAS  C:\Users\RICHRD~1\AppData\Local\Temp\ccN71VnR.s 			page 36


 1971 004b 0E       		.uleb128 0xe
 1972 004c 3A       		.uleb128 0x3a
 1973 004d 0B       		.uleb128 0xb
 1974 004e 3B       		.uleb128 0x3b
 1975 004f 0B       		.uleb128 0xb
 1976 0050 49       		.uleb128 0x49
 1977 0051 13       		.uleb128 0x13
 1978 0052 38       		.uleb128 0x38
 1979 0053 0A       		.uleb128 0xa
 1980 0054 00       		.byte	0
 1981 0055 00       		.byte	0
 1982 0056 07       		.uleb128 0x7
 1983 0057 0D       		.uleb128 0xd
 1984 0058 00       		.byte	0
 1985 0059 03       		.uleb128 0x3
 1986 005a 08       		.uleb128 0x8
 1987 005b 3A       		.uleb128 0x3a
 1988 005c 0B       		.uleb128 0xb
 1989 005d 3B       		.uleb128 0x3b
 1990 005e 0B       		.uleb128 0xb
 1991 005f 49       		.uleb128 0x49
 1992 0060 13       		.uleb128 0x13
 1993 0061 38       		.uleb128 0x38
 1994 0062 0A       		.uleb128 0xa
 1995 0063 00       		.byte	0
 1996 0064 00       		.byte	0
 1997 0065 08       		.uleb128 0x8
 1998 0066 13       		.uleb128 0x13
 1999 0067 01       		.byte	0x1
 2000 0068 0B       		.uleb128 0xb
 2001 0069 0B       		.uleb128 0xb
 2002 006a 3A       		.uleb128 0x3a
 2003 006b 0B       		.uleb128 0xb
 2004 006c 3B       		.uleb128 0x3b
 2005 006d 0B       		.uleb128 0xb
 2006 006e 01       		.uleb128 0x1
 2007 006f 13       		.uleb128 0x13
 2008 0070 00       		.byte	0
 2009 0071 00       		.byte	0
 2010 0072 09       		.uleb128 0x9
 2011 0073 0F       		.uleb128 0xf
 2012 0074 00       		.byte	0
 2013 0075 0B       		.uleb128 0xb
 2014 0076 0B       		.uleb128 0xb
 2015 0077 49       		.uleb128 0x49
 2016 0078 13       		.uleb128 0x13
 2017 0079 00       		.byte	0
 2018 007a 00       		.byte	0
 2019 007b 0A       		.uleb128 0xa
 2020 007c 0F       		.uleb128 0xf
 2021 007d 00       		.byte	0
 2022 007e 0B       		.uleb128 0xb
 2023 007f 0B       		.uleb128 0xb
 2024 0080 00       		.byte	0
 2025 0081 00       		.byte	0
 2026 0082 0B       		.uleb128 0xb
 2027 0083 13       		.uleb128 0x13
ARM GAS  C:\Users\RICHRD~1\AppData\Local\Temp\ccN71VnR.s 			page 37


 2028 0084 01       		.byte	0x1
 2029 0085 03       		.uleb128 0x3
 2030 0086 0E       		.uleb128 0xe
 2031 0087 0B       		.uleb128 0xb
 2032 0088 0B       		.uleb128 0xb
 2033 0089 3A       		.uleb128 0x3a
 2034 008a 0B       		.uleb128 0xb
 2035 008b 3B       		.uleb128 0x3b
 2036 008c 05       		.uleb128 0x5
 2037 008d 01       		.uleb128 0x1
 2038 008e 13       		.uleb128 0x13
 2039 008f 00       		.byte	0
 2040 0090 00       		.byte	0
 2041 0091 0C       		.uleb128 0xc
 2042 0092 0D       		.uleb128 0xd
 2043 0093 00       		.byte	0
 2044 0094 03       		.uleb128 0x3
 2045 0095 08       		.uleb128 0x8
 2046 0096 3A       		.uleb128 0x3a
 2047 0097 0B       		.uleb128 0xb
 2048 0098 3B       		.uleb128 0x3b
 2049 0099 05       		.uleb128 0x5
 2050 009a 49       		.uleb128 0x49
 2051 009b 13       		.uleb128 0x13
 2052 009c 38       		.uleb128 0x38
 2053 009d 0A       		.uleb128 0xa
 2054 009e 00       		.byte	0
 2055 009f 00       		.byte	0
 2056 00a0 0D       		.uleb128 0xd
 2057 00a1 15       		.uleb128 0x15
 2058 00a2 01       		.byte	0x1
 2059 00a3 27       		.uleb128 0x27
 2060 00a4 0C       		.uleb128 0xc
 2061 00a5 01       		.uleb128 0x1
 2062 00a6 13       		.uleb128 0x13
 2063 00a7 00       		.byte	0
 2064 00a8 00       		.byte	0
 2065 00a9 0E       		.uleb128 0xe
 2066 00aa 05       		.uleb128 0x5
 2067 00ab 00       		.byte	0
 2068 00ac 49       		.uleb128 0x49
 2069 00ad 13       		.uleb128 0x13
 2070 00ae 00       		.byte	0
 2071 00af 00       		.byte	0
 2072 00b0 0F       		.uleb128 0xf
 2073 00b1 35       		.uleb128 0x35
 2074 00b2 00       		.byte	0
 2075 00b3 49       		.uleb128 0x49
 2076 00b4 13       		.uleb128 0x13
 2077 00b5 00       		.byte	0
 2078 00b6 00       		.byte	0
 2079 00b7 10       		.uleb128 0x10
 2080 00b8 17       		.uleb128 0x17
 2081 00b9 01       		.byte	0x1
 2082 00ba 0B       		.uleb128 0xb
 2083 00bb 0B       		.uleb128 0xb
 2084 00bc 3A       		.uleb128 0x3a
ARM GAS  C:\Users\RICHRD~1\AppData\Local\Temp\ccN71VnR.s 			page 38


 2085 00bd 0B       		.uleb128 0xb
 2086 00be 3B       		.uleb128 0x3b
 2087 00bf 0B       		.uleb128 0xb
 2088 00c0 01       		.uleb128 0x1
 2089 00c1 13       		.uleb128 0x13
 2090 00c2 00       		.byte	0
 2091 00c3 00       		.byte	0
 2092 00c4 11       		.uleb128 0x11
 2093 00c5 0D       		.uleb128 0xd
 2094 00c6 00       		.byte	0
 2095 00c7 03       		.uleb128 0x3
 2096 00c8 0E       		.uleb128 0xe
 2097 00c9 3A       		.uleb128 0x3a
 2098 00ca 0B       		.uleb128 0xb
 2099 00cb 3B       		.uleb128 0x3b
 2100 00cc 0B       		.uleb128 0xb
 2101 00cd 49       		.uleb128 0x49
 2102 00ce 13       		.uleb128 0x13
 2103 00cf 00       		.byte	0
 2104 00d0 00       		.byte	0
 2105 00d1 12       		.uleb128 0x12
 2106 00d2 26       		.uleb128 0x26
 2107 00d3 00       		.byte	0
 2108 00d4 49       		.uleb128 0x49
 2109 00d5 13       		.uleb128 0x13
 2110 00d6 00       		.byte	0
 2111 00d7 00       		.byte	0
 2112 00d8 13       		.uleb128 0x13
 2113 00d9 15       		.uleb128 0x15
 2114 00da 01       		.byte	0x1
 2115 00db 27       		.uleb128 0x27
 2116 00dc 0C       		.uleb128 0xc
 2117 00dd 49       		.uleb128 0x49
 2118 00de 13       		.uleb128 0x13
 2119 00df 01       		.uleb128 0x1
 2120 00e0 13       		.uleb128 0x13
 2121 00e1 00       		.byte	0
 2122 00e2 00       		.byte	0
 2123 00e3 14       		.uleb128 0x14
 2124 00e4 0D       		.uleb128 0xd
 2125 00e5 00       		.byte	0
 2126 00e6 03       		.uleb128 0x3
 2127 00e7 0E       		.uleb128 0xe
 2128 00e8 49       		.uleb128 0x49
 2129 00e9 13       		.uleb128 0x13
 2130 00ea 38       		.uleb128 0x38
 2131 00eb 0A       		.uleb128 0xa
 2132 00ec 34       		.uleb128 0x34
 2133 00ed 0C       		.uleb128 0xc
 2134 00ee 00       		.byte	0
 2135 00ef 00       		.byte	0
 2136 00f0 15       		.uleb128 0x15
 2137 00f1 2E       		.uleb128 0x2e
 2138 00f2 01       		.byte	0x1
 2139 00f3 03       		.uleb128 0x3
 2140 00f4 0E       		.uleb128 0xe
 2141 00f5 3A       		.uleb128 0x3a
ARM GAS  C:\Users\RICHRD~1\AppData\Local\Temp\ccN71VnR.s 			page 39


 2142 00f6 0B       		.uleb128 0xb
 2143 00f7 3B       		.uleb128 0x3b
 2144 00f8 0B       		.uleb128 0xb
 2145 00f9 27       		.uleb128 0x27
 2146 00fa 0C       		.uleb128 0xc
 2147 00fb 11       		.uleb128 0x11
 2148 00fc 01       		.uleb128 0x1
 2149 00fd 12       		.uleb128 0x12
 2150 00fe 01       		.uleb128 0x1
 2151 00ff 40       		.uleb128 0x40
 2152 0100 06       		.uleb128 0x6
 2153 0101 9742     		.uleb128 0x2117
 2154 0103 0C       		.uleb128 0xc
 2155 0104 01       		.uleb128 0x1
 2156 0105 13       		.uleb128 0x13
 2157 0106 00       		.byte	0
 2158 0107 00       		.byte	0
 2159 0108 16       		.uleb128 0x16
 2160 0109 05       		.uleb128 0x5
 2161 010a 00       		.byte	0
 2162 010b 03       		.uleb128 0x3
 2163 010c 08       		.uleb128 0x8
 2164 010d 3A       		.uleb128 0x3a
 2165 010e 0B       		.uleb128 0xb
 2166 010f 3B       		.uleb128 0x3b
 2167 0110 0B       		.uleb128 0xb
 2168 0111 49       		.uleb128 0x49
 2169 0112 13       		.uleb128 0x13
 2170 0113 02       		.uleb128 0x2
 2171 0114 06       		.uleb128 0x6
 2172 0115 00       		.byte	0
 2173 0116 00       		.byte	0
 2174 0117 17       		.uleb128 0x17
 2175 0118 05       		.uleb128 0x5
 2176 0119 00       		.byte	0
 2177 011a 03       		.uleb128 0x3
 2178 011b 08       		.uleb128 0x8
 2179 011c 3A       		.uleb128 0x3a
 2180 011d 0B       		.uleb128 0xb
 2181 011e 3B       		.uleb128 0x3b
 2182 011f 0B       		.uleb128 0xb
 2183 0120 49       		.uleb128 0x49
 2184 0121 13       		.uleb128 0x13
 2185 0122 02       		.uleb128 0x2
 2186 0123 0A       		.uleb128 0xa
 2187 0124 00       		.byte	0
 2188 0125 00       		.byte	0
 2189 0126 18       		.uleb128 0x18
 2190 0127 18       		.uleb128 0x18
 2191 0128 00       		.byte	0
 2192 0129 00       		.byte	0
 2193 012a 00       		.byte	0
 2194 012b 19       		.uleb128 0x19
 2195 012c 34       		.uleb128 0x34
 2196 012d 00       		.byte	0
 2197 012e 03       		.uleb128 0x3
 2198 012f 08       		.uleb128 0x8
ARM GAS  C:\Users\RICHRD~1\AppData\Local\Temp\ccN71VnR.s 			page 40


 2199 0130 3A       		.uleb128 0x3a
 2200 0131 0B       		.uleb128 0xb
 2201 0132 3B       		.uleb128 0x3b
 2202 0133 0B       		.uleb128 0xb
 2203 0134 49       		.uleb128 0x49
 2204 0135 13       		.uleb128 0x13
 2205 0136 02       		.uleb128 0x2
 2206 0137 0A       		.uleb128 0xa
 2207 0138 00       		.byte	0
 2208 0139 00       		.byte	0
 2209 013a 1A       		.uleb128 0x1a
 2210 013b 898201   		.uleb128 0x4109
 2211 013e 01       		.byte	0x1
 2212 013f 11       		.uleb128 0x11
 2213 0140 01       		.uleb128 0x1
 2214 0141 31       		.uleb128 0x31
 2215 0142 13       		.uleb128 0x13
 2216 0143 00       		.byte	0
 2217 0144 00       		.byte	0
 2218 0145 1B       		.uleb128 0x1b
 2219 0146 8A8201   		.uleb128 0x410a
 2220 0149 00       		.byte	0
 2221 014a 02       		.uleb128 0x2
 2222 014b 0A       		.uleb128 0xa
 2223 014c 9142     		.uleb128 0x2111
 2224 014e 0A       		.uleb128 0xa
 2225 014f 00       		.byte	0
 2226 0150 00       		.byte	0
 2227 0151 1C       		.uleb128 0x1c
 2228 0152 2E       		.uleb128 0x2e
 2229 0153 01       		.byte	0x1
 2230 0154 03       		.uleb128 0x3
 2231 0155 0E       		.uleb128 0xe
 2232 0156 3A       		.uleb128 0x3a
 2233 0157 0B       		.uleb128 0xb
 2234 0158 3B       		.uleb128 0x3b
 2235 0159 0B       		.uleb128 0xb
 2236 015a 27       		.uleb128 0x27
 2237 015b 0C       		.uleb128 0xc
 2238 015c 49       		.uleb128 0x49
 2239 015d 13       		.uleb128 0x13
 2240 015e 11       		.uleb128 0x11
 2241 015f 01       		.uleb128 0x1
 2242 0160 12       		.uleb128 0x12
 2243 0161 01       		.uleb128 0x1
 2244 0162 40       		.uleb128 0x40
 2245 0163 06       		.uleb128 0x6
 2246 0164 9742     		.uleb128 0x2117
 2247 0166 0C       		.uleb128 0xc
 2248 0167 01       		.uleb128 0x1
 2249 0168 13       		.uleb128 0x13
 2250 0169 00       		.byte	0
 2251 016a 00       		.byte	0
 2252 016b 1D       		.uleb128 0x1d
 2253 016c 34       		.uleb128 0x34
 2254 016d 00       		.byte	0
 2255 016e 03       		.uleb128 0x3
ARM GAS  C:\Users\RICHRD~1\AppData\Local\Temp\ccN71VnR.s 			page 41


 2256 016f 0E       		.uleb128 0xe
 2257 0170 3A       		.uleb128 0x3a
 2258 0171 0B       		.uleb128 0xb
 2259 0172 3B       		.uleb128 0x3b
 2260 0173 0B       		.uleb128 0xb
 2261 0174 49       		.uleb128 0x49
 2262 0175 13       		.uleb128 0x13
 2263 0176 02       		.uleb128 0x2
 2264 0177 0A       		.uleb128 0xa
 2265 0178 00       		.byte	0
 2266 0179 00       		.byte	0
 2267 017a 1E       		.uleb128 0x1e
 2268 017b 898201   		.uleb128 0x4109
 2269 017e 01       		.byte	0x1
 2270 017f 11       		.uleb128 0x11
 2271 0180 01       		.uleb128 0x1
 2272 0181 31       		.uleb128 0x31
 2273 0182 13       		.uleb128 0x13
 2274 0183 01       		.uleb128 0x1
 2275 0184 13       		.uleb128 0x13
 2276 0185 00       		.byte	0
 2277 0186 00       		.byte	0
 2278 0187 1F       		.uleb128 0x1f
 2279 0188 2E       		.uleb128 0x2e
 2280 0189 01       		.byte	0x1
 2281 018a 3F       		.uleb128 0x3f
 2282 018b 0C       		.uleb128 0xc
 2283 018c 03       		.uleb128 0x3
 2284 018d 0E       		.uleb128 0xe
 2285 018e 3A       		.uleb128 0x3a
 2286 018f 0B       		.uleb128 0xb
 2287 0190 3B       		.uleb128 0x3b
 2288 0191 0B       		.uleb128 0xb
 2289 0192 27       		.uleb128 0x27
 2290 0193 0C       		.uleb128 0xc
 2291 0194 11       		.uleb128 0x11
 2292 0195 01       		.uleb128 0x1
 2293 0196 12       		.uleb128 0x12
 2294 0197 01       		.uleb128 0x1
 2295 0198 40       		.uleb128 0x40
 2296 0199 06       		.uleb128 0x6
 2297 019a 9742     		.uleb128 0x2117
 2298 019c 0C       		.uleb128 0xc
 2299 019d 01       		.uleb128 0x1
 2300 019e 13       		.uleb128 0x13
 2301 019f 00       		.byte	0
 2302 01a0 00       		.byte	0
 2303 01a1 20       		.uleb128 0x20
 2304 01a2 898201   		.uleb128 0x4109
 2305 01a5 00       		.byte	0
 2306 01a6 11       		.uleb128 0x11
 2307 01a7 01       		.uleb128 0x1
 2308 01a8 31       		.uleb128 0x31
 2309 01a9 13       		.uleb128 0x13
 2310 01aa 00       		.byte	0
 2311 01ab 00       		.byte	0
 2312 01ac 21       		.uleb128 0x21
ARM GAS  C:\Users\RICHRD~1\AppData\Local\Temp\ccN71VnR.s 			page 42


 2313 01ad 2E       		.uleb128 0x2e
 2314 01ae 01       		.byte	0x1
 2315 01af 3F       		.uleb128 0x3f
 2316 01b0 0C       		.uleb128 0xc
 2317 01b1 03       		.uleb128 0x3
 2318 01b2 0E       		.uleb128 0xe
 2319 01b3 3A       		.uleb128 0x3a
 2320 01b4 0B       		.uleb128 0xb
 2321 01b5 3B       		.uleb128 0x3b
 2322 01b6 0B       		.uleb128 0xb
 2323 01b7 27       		.uleb128 0x27
 2324 01b8 0C       		.uleb128 0xc
 2325 01b9 49       		.uleb128 0x49
 2326 01ba 13       		.uleb128 0x13
 2327 01bb 11       		.uleb128 0x11
 2328 01bc 01       		.uleb128 0x1
 2329 01bd 12       		.uleb128 0x12
 2330 01be 01       		.uleb128 0x1
 2331 01bf 40       		.uleb128 0x40
 2332 01c0 06       		.uleb128 0x6
 2333 01c1 9642     		.uleb128 0x2116
 2334 01c3 0C       		.uleb128 0xc
 2335 01c4 01       		.uleb128 0x1
 2336 01c5 13       		.uleb128 0x13
 2337 01c6 00       		.byte	0
 2338 01c7 00       		.byte	0
 2339 01c8 22       		.uleb128 0x22
 2340 01c9 2E       		.uleb128 0x2e
 2341 01ca 01       		.byte	0x1
 2342 01cb 3F       		.uleb128 0x3f
 2343 01cc 0C       		.uleb128 0xc
 2344 01cd 03       		.uleb128 0x3
 2345 01ce 0E       		.uleb128 0xe
 2346 01cf 3A       		.uleb128 0x3a
 2347 01d0 0B       		.uleb128 0xb
 2348 01d1 3B       		.uleb128 0x3b
 2349 01d2 0B       		.uleb128 0xb
 2350 01d3 27       		.uleb128 0x27
 2351 01d4 0C       		.uleb128 0xc
 2352 01d5 11       		.uleb128 0x11
 2353 01d6 01       		.uleb128 0x1
 2354 01d7 12       		.uleb128 0x12
 2355 01d8 01       		.uleb128 0x1
 2356 01d9 40       		.uleb128 0x40
 2357 01da 06       		.uleb128 0x6
 2358 01db 9642     		.uleb128 0x2116
 2359 01dd 0C       		.uleb128 0xc
 2360 01de 01       		.uleb128 0x1
 2361 01df 13       		.uleb128 0x13
 2362 01e0 00       		.byte	0
 2363 01e1 00       		.byte	0
 2364 01e2 23       		.uleb128 0x23
 2365 01e3 05       		.uleb128 0x5
 2366 01e4 00       		.byte	0
 2367 01e5 03       		.uleb128 0x3
 2368 01e6 0E       		.uleb128 0xe
 2369 01e7 3A       		.uleb128 0x3a
ARM GAS  C:\Users\RICHRD~1\AppData\Local\Temp\ccN71VnR.s 			page 43


 2370 01e8 0B       		.uleb128 0xb
 2371 01e9 3B       		.uleb128 0x3b
 2372 01ea 0B       		.uleb128 0xb
 2373 01eb 49       		.uleb128 0x49
 2374 01ec 13       		.uleb128 0x13
 2375 01ed 02       		.uleb128 0x2
 2376 01ee 06       		.uleb128 0x6
 2377 01ef 00       		.byte	0
 2378 01f0 00       		.byte	0
 2379 01f1 24       		.uleb128 0x24
 2380 01f2 898201   		.uleb128 0x4109
 2381 01f5 01       		.byte	0x1
 2382 01f6 11       		.uleb128 0x11
 2383 01f7 01       		.uleb128 0x1
 2384 01f8 00       		.byte	0
 2385 01f9 00       		.byte	0
 2386 01fa 25       		.uleb128 0x25
 2387 01fb 01       		.uleb128 0x1
 2388 01fc 01       		.byte	0x1
 2389 01fd 49       		.uleb128 0x49
 2390 01fe 13       		.uleb128 0x13
 2391 01ff 01       		.uleb128 0x1
 2392 0200 13       		.uleb128 0x13
 2393 0201 00       		.byte	0
 2394 0202 00       		.byte	0
 2395 0203 26       		.uleb128 0x26
 2396 0204 21       		.uleb128 0x21
 2397 0205 00       		.byte	0
 2398 0206 49       		.uleb128 0x49
 2399 0207 13       		.uleb128 0x13
 2400 0208 2F       		.uleb128 0x2f
 2401 0209 0B       		.uleb128 0xb
 2402 020a 00       		.byte	0
 2403 020b 00       		.byte	0
 2404 020c 27       		.uleb128 0x27
 2405 020d 34       		.uleb128 0x34
 2406 020e 00       		.byte	0
 2407 020f 03       		.uleb128 0x3
 2408 0210 0E       		.uleb128 0xe
 2409 0211 3A       		.uleb128 0x3a
 2410 0212 0B       		.uleb128 0xb
 2411 0213 3B       		.uleb128 0x3b
 2412 0214 0B       		.uleb128 0xb
 2413 0215 49       		.uleb128 0x49
 2414 0216 13       		.uleb128 0x13
 2415 0217 3F       		.uleb128 0x3f
 2416 0218 0C       		.uleb128 0xc
 2417 0219 3C       		.uleb128 0x3c
 2418 021a 0C       		.uleb128 0xc
 2419 021b 00       		.byte	0
 2420 021c 00       		.byte	0
 2421 021d 28       		.uleb128 0x28
 2422 021e 34       		.uleb128 0x34
 2423 021f 00       		.byte	0
 2424 0220 03       		.uleb128 0x3
 2425 0221 0E       		.uleb128 0xe
 2426 0222 3A       		.uleb128 0x3a
ARM GAS  C:\Users\RICHRD~1\AppData\Local\Temp\ccN71VnR.s 			page 44


 2427 0223 0B       		.uleb128 0xb
 2428 0224 3B       		.uleb128 0x3b
 2429 0225 05       		.uleb128 0x5
 2430 0226 49       		.uleb128 0x49
 2431 0227 13       		.uleb128 0x13
 2432 0228 3F       		.uleb128 0x3f
 2433 0229 0C       		.uleb128 0xc
 2434 022a 3C       		.uleb128 0x3c
 2435 022b 0C       		.uleb128 0xc
 2436 022c 00       		.byte	0
 2437 022d 00       		.byte	0
 2438 022e 29       		.uleb128 0x29
 2439 022f 34       		.uleb128 0x34
 2440 0230 00       		.byte	0
 2441 0231 03       		.uleb128 0x3
 2442 0232 0E       		.uleb128 0xe
 2443 0233 3A       		.uleb128 0x3a
 2444 0234 0B       		.uleb128 0xb
 2445 0235 3B       		.uleb128 0x3b
 2446 0236 0B       		.uleb128 0xb
 2447 0237 49       		.uleb128 0x49
 2448 0238 13       		.uleb128 0x13
 2449 0239 3F       		.uleb128 0x3f
 2450 023a 0C       		.uleb128 0xc
 2451 023b 02       		.uleb128 0x2
 2452 023c 0A       		.uleb128 0xa
 2453 023d 00       		.byte	0
 2454 023e 00       		.byte	0
 2455 023f 2A       		.uleb128 0x2a
 2456 0240 2E       		.uleb128 0x2e
 2457 0241 01       		.byte	0x1
 2458 0242 3F       		.uleb128 0x3f
 2459 0243 0C       		.uleb128 0xc
 2460 0244 03       		.uleb128 0x3
 2461 0245 0E       		.uleb128 0xe
 2462 0246 3A       		.uleb128 0x3a
 2463 0247 0B       		.uleb128 0xb
 2464 0248 3B       		.uleb128 0x3b
 2465 0249 0B       		.uleb128 0xb
 2466 024a 27       		.uleb128 0x27
 2467 024b 0C       		.uleb128 0xc
 2468 024c 3C       		.uleb128 0x3c
 2469 024d 0C       		.uleb128 0xc
 2470 024e 01       		.uleb128 0x1
 2471 024f 13       		.uleb128 0x13
 2472 0250 00       		.byte	0
 2473 0251 00       		.byte	0
 2474 0252 2B       		.uleb128 0x2b
 2475 0253 2E       		.uleb128 0x2e
 2476 0254 01       		.byte	0x1
 2477 0255 3F       		.uleb128 0x3f
 2478 0256 0C       		.uleb128 0xc
 2479 0257 03       		.uleb128 0x3
 2480 0258 0E       		.uleb128 0xe
 2481 0259 3A       		.uleb128 0x3a
 2482 025a 0B       		.uleb128 0xb
 2483 025b 3B       		.uleb128 0x3b
ARM GAS  C:\Users\RICHRD~1\AppData\Local\Temp\ccN71VnR.s 			page 45


 2484 025c 0B       		.uleb128 0xb
 2485 025d 27       		.uleb128 0x27
 2486 025e 0C       		.uleb128 0xc
 2487 025f 49       		.uleb128 0x49
 2488 0260 13       		.uleb128 0x13
 2489 0261 3C       		.uleb128 0x3c
 2490 0262 0C       		.uleb128 0xc
 2491 0263 01       		.uleb128 0x1
 2492 0264 13       		.uleb128 0x13
 2493 0265 00       		.byte	0
 2494 0266 00       		.byte	0
 2495 0267 2C       		.uleb128 0x2c
 2496 0268 2E       		.uleb128 0x2e
 2497 0269 01       		.byte	0x1
 2498 026a 3F       		.uleb128 0x3f
 2499 026b 0C       		.uleb128 0xc
 2500 026c 03       		.uleb128 0x3
 2501 026d 0E       		.uleb128 0xe
 2502 026e 3A       		.uleb128 0x3a
 2503 026f 0B       		.uleb128 0xb
 2504 0270 3B       		.uleb128 0x3b
 2505 0271 05       		.uleb128 0x5
 2506 0272 27       		.uleb128 0x27
 2507 0273 0C       		.uleb128 0xc
 2508 0274 3C       		.uleb128 0x3c
 2509 0275 0C       		.uleb128 0xc
 2510 0276 01       		.uleb128 0x1
 2511 0277 13       		.uleb128 0x13
 2512 0278 00       		.byte	0
 2513 0279 00       		.byte	0
 2514 027a 2D       		.uleb128 0x2d
 2515 027b 2E       		.uleb128 0x2e
 2516 027c 00       		.byte	0
 2517 027d 3F       		.uleb128 0x3f
 2518 027e 0C       		.uleb128 0xc
 2519 027f 03       		.uleb128 0x3
 2520 0280 0E       		.uleb128 0xe
 2521 0281 3A       		.uleb128 0x3a
 2522 0282 0B       		.uleb128 0xb
 2523 0283 3B       		.uleb128 0x3b
 2524 0284 0B       		.uleb128 0xb
 2525 0285 27       		.uleb128 0x27
 2526 0286 0C       		.uleb128 0xc
 2527 0287 3C       		.uleb128 0x3c
 2528 0288 0C       		.uleb128 0xc
 2529 0289 00       		.byte	0
 2530 028a 00       		.byte	0
 2531 028b 2E       		.uleb128 0x2e
 2532 028c 2E       		.uleb128 0x2e
 2533 028d 00       		.byte	0
 2534 028e 3F       		.uleb128 0x3f
 2535 028f 0C       		.uleb128 0xc
 2536 0290 03       		.uleb128 0x3
 2537 0291 0E       		.uleb128 0xe
 2538 0292 3A       		.uleb128 0x3a
 2539 0293 0B       		.uleb128 0xb
 2540 0294 3B       		.uleb128 0x3b
ARM GAS  C:\Users\RICHRD~1\AppData\Local\Temp\ccN71VnR.s 			page 46


 2541 0295 0B       		.uleb128 0xb
 2542 0296 27       		.uleb128 0x27
 2543 0297 0C       		.uleb128 0xc
 2544 0298 49       		.uleb128 0x49
 2545 0299 13       		.uleb128 0x13
 2546 029a 3C       		.uleb128 0x3c
 2547 029b 0C       		.uleb128 0xc
 2548 029c 00       		.byte	0
 2549 029d 00       		.byte	0
 2550 029e 2F       		.uleb128 0x2f
 2551 029f 2E       		.uleb128 0x2e
 2552 02a0 01       		.byte	0x1
 2553 02a1 3F       		.uleb128 0x3f
 2554 02a2 0C       		.uleb128 0xc
 2555 02a3 03       		.uleb128 0x3
 2556 02a4 0E       		.uleb128 0xe
 2557 02a5 3A       		.uleb128 0x3a
 2558 02a6 0B       		.uleb128 0xb
 2559 02a7 3B       		.uleb128 0x3b
 2560 02a8 05       		.uleb128 0x5
 2561 02a9 27       		.uleb128 0x27
 2562 02aa 0C       		.uleb128 0xc
 2563 02ab 49       		.uleb128 0x49
 2564 02ac 13       		.uleb128 0x13
 2565 02ad 3C       		.uleb128 0x3c
 2566 02ae 0C       		.uleb128 0xc
 2567 02af 01       		.uleb128 0x1
 2568 02b0 13       		.uleb128 0x13
 2569 02b1 00       		.byte	0
 2570 02b2 00       		.byte	0
 2571 02b3 30       		.uleb128 0x30
 2572 02b4 2E       		.uleb128 0x2e
 2573 02b5 01       		.byte	0x1
 2574 02b6 3F       		.uleb128 0x3f
 2575 02b7 0C       		.uleb128 0xc
 2576 02b8 03       		.uleb128 0x3
 2577 02b9 0E       		.uleb128 0xe
 2578 02ba 3A       		.uleb128 0x3a
 2579 02bb 0B       		.uleb128 0xb
 2580 02bc 3B       		.uleb128 0x3b
 2581 02bd 05       		.uleb128 0x5
 2582 02be 27       		.uleb128 0x27
 2583 02bf 0C       		.uleb128 0xc
 2584 02c0 3C       		.uleb128 0x3c
 2585 02c1 0C       		.uleb128 0xc
 2586 02c2 00       		.byte	0
 2587 02c3 00       		.byte	0
 2588 02c4 00       		.byte	0
 2589              		.section	.debug_loc,"",%progbits
 2590              	.Ldebug_loc0:
 2591              	.LLST0:
 2592 0000 00000000 		.4byte	.LFB118
 2593 0004 02000000 		.4byte	.LCFI0
 2594 0008 0200     		.2byte	0x2
 2595 000a 7D       		.byte	0x7d
 2596 000b 00       		.sleb128 0
 2597 000c 02000000 		.4byte	.LCFI0
ARM GAS  C:\Users\RICHRD~1\AppData\Local\Temp\ccN71VnR.s 			page 47


 2598 0010 04000000 		.4byte	.LCFI1
 2599 0014 0200     		.2byte	0x2
 2600 0016 7D       		.byte	0x7d
 2601 0017 0C       		.sleb128 12
 2602 0018 04000000 		.4byte	.LCFI1
 2603 001c 06000000 		.4byte	.LCFI2
 2604 0020 0200     		.2byte	0x2
 2605 0022 7D       		.byte	0x7d
 2606 0023 10       		.sleb128 16
 2607 0024 06000000 		.4byte	.LCFI2
 2608 0028 1E000000 		.4byte	.LFE118
 2609 002c 0200     		.2byte	0x2
 2610 002e 7D       		.byte	0x7d
 2611 002f 18       		.sleb128 24
 2612 0030 00000000 		.4byte	0
 2613 0034 00000000 		.4byte	0
 2614              	.LLST1:
 2615 0038 00000000 		.4byte	.LVL0
 2616 003c 13000000 		.4byte	.LVL1-1
 2617 0040 0100     		.2byte	0x1
 2618 0042 50       		.byte	0x50
 2619 0043 13000000 		.4byte	.LVL1-1
 2620 0047 1E000000 		.4byte	.LFE118
 2621 004b 0400     		.2byte	0x4
 2622 004d F3       		.byte	0xf3
 2623 004e 01       		.uleb128 0x1
 2624 004f 50       		.byte	0x50
 2625 0050 9F       		.byte	0x9f
 2626 0051 00000000 		.4byte	0
 2627 0055 00000000 		.4byte	0
 2628              	.LLST2:
 2629 0059 00000000 		.4byte	.LFB119
 2630 005d 06000000 		.4byte	.LCFI3
 2631 0061 0200     		.2byte	0x2
 2632 0063 7D       		.byte	0x7d
 2633 0064 00       		.sleb128 0
 2634 0065 06000000 		.4byte	.LCFI3
 2635 0069 58000000 		.4byte	.LFE119
 2636 006d 0200     		.2byte	0x2
 2637 006f 7D       		.byte	0x7d
 2638 0070 18       		.sleb128 24
 2639 0071 00000000 		.4byte	0
 2640 0075 00000000 		.4byte	0
 2641              	.LLST3:
 2642 0079 00000000 		.4byte	.LVL2
 2643 007d 10000000 		.4byte	.LVL4
 2644 0081 0100     		.2byte	0x1
 2645 0083 50       		.byte	0x50
 2646 0084 10000000 		.4byte	.LVL4
 2647 0088 58000000 		.4byte	.LFE119
 2648 008c 0400     		.2byte	0x4
 2649 008e F3       		.byte	0xf3
 2650 008f 01       		.uleb128 0x1
 2651 0090 50       		.byte	0x50
 2652 0091 9F       		.byte	0x9f
 2653 0092 00000000 		.4byte	0
 2654 0096 00000000 		.4byte	0
ARM GAS  C:\Users\RICHRD~1\AppData\Local\Temp\ccN71VnR.s 			page 48


 2655              	.LLST4:
 2656 009a 00000000 		.4byte	.LFB120
 2657 009e 02000000 		.4byte	.LCFI4
 2658 00a2 0200     		.2byte	0x2
 2659 00a4 7D       		.byte	0x7d
 2660 00a5 00       		.sleb128 0
 2661 00a6 02000000 		.4byte	.LCFI4
 2662 00aa 04000000 		.4byte	.LCFI5
 2663 00ae 0200     		.2byte	0x2
 2664 00b0 7D       		.byte	0x7d
 2665 00b1 04       		.sleb128 4
 2666 00b2 04000000 		.4byte	.LCFI5
 2667 00b6 38000000 		.4byte	.LFE120
 2668 00ba 0200     		.2byte	0x2
 2669 00bc 7D       		.byte	0x7d
 2670 00bd 10       		.sleb128 16
 2671 00be 00000000 		.4byte	0
 2672 00c2 00000000 		.4byte	0
 2673              	.LLST5:
 2674 00c6 00000000 		.4byte	.LFB121
 2675 00ca 02000000 		.4byte	.LCFI6
 2676 00ce 0200     		.2byte	0x2
 2677 00d0 7D       		.byte	0x7d
 2678 00d1 00       		.sleb128 0
 2679 00d2 02000000 		.4byte	.LCFI6
 2680 00d6 50000000 		.4byte	.LFE121
 2681 00da 0200     		.2byte	0x2
 2682 00dc 7D       		.byte	0x7d
 2683 00dd 08       		.sleb128 8
 2684 00de 00000000 		.4byte	0
 2685 00e2 00000000 		.4byte	0
 2686              	.LLST6:
 2687 00e6 00000000 		.4byte	.LVL12
 2688 00ea 10000000 		.4byte	.LVL13
 2689 00ee 0100     		.2byte	0x1
 2690 00f0 50       		.byte	0x50
 2691 00f1 10000000 		.4byte	.LVL13
 2692 00f5 12000000 		.4byte	.LVL14
 2693 00f9 0400     		.2byte	0x4
 2694 00fb F3       		.byte	0xf3
 2695 00fc 01       		.uleb128 0x1
 2696 00fd 50       		.byte	0x50
 2697 00fe 9F       		.byte	0x9f
 2698 00ff 12000000 		.4byte	.LVL14
 2699 0103 1C000000 		.4byte	.LVL15
 2700 0107 0100     		.2byte	0x1
 2701 0109 50       		.byte	0x50
 2702 010a 1C000000 		.4byte	.LVL15
 2703 010e 1E000000 		.4byte	.LVL16
 2704 0112 0400     		.2byte	0x4
 2705 0114 F3       		.byte	0xf3
 2706 0115 01       		.uleb128 0x1
 2707 0116 50       		.byte	0x50
 2708 0117 9F       		.byte	0x9f
 2709 0118 1E000000 		.4byte	.LVL16
 2710 011c 2A000000 		.4byte	.LVL17
 2711 0120 0100     		.2byte	0x1
ARM GAS  C:\Users\RICHRD~1\AppData\Local\Temp\ccN71VnR.s 			page 49


 2712 0122 50       		.byte	0x50
 2713 0123 2A000000 		.4byte	.LVL17
 2714 0127 34000000 		.4byte	.LVL20
 2715 012b 0400     		.2byte	0x4
 2716 012d F3       		.byte	0xf3
 2717 012e 01       		.uleb128 0x1
 2718 012f 50       		.byte	0x50
 2719 0130 9F       		.byte	0x9f
 2720 0131 34000000 		.4byte	.LVL20
 2721 0135 36000000 		.4byte	.LVL21
 2722 0139 0100     		.2byte	0x1
 2723 013b 50       		.byte	0x50
 2724 013c 36000000 		.4byte	.LVL21
 2725 0140 50000000 		.4byte	.LFE121
 2726 0144 0400     		.2byte	0x4
 2727 0146 F3       		.byte	0xf3
 2728 0147 01       		.uleb128 0x1
 2729 0148 50       		.byte	0x50
 2730 0149 9F       		.byte	0x9f
 2731 014a 00000000 		.4byte	0
 2732 014e 00000000 		.4byte	0
 2733              	.LLST7:
 2734 0152 00000000 		.4byte	.LFB122
 2735 0156 02000000 		.4byte	.LCFI7
 2736 015a 0200     		.2byte	0x2
 2737 015c 7D       		.byte	0x7d
 2738 015d 00       		.sleb128 0
 2739 015e 02000000 		.4byte	.LCFI7
 2740 0162 8C000000 		.4byte	.LFE122
 2741 0166 0200     		.2byte	0x2
 2742 0168 7D       		.byte	0x7d
 2743 0169 10       		.sleb128 16
 2744 016a 00000000 		.4byte	0
 2745 016e 00000000 		.4byte	0
 2746              	.LLST8:
 2747 0172 00000000 		.4byte	.LVL24
 2748 0176 0B000000 		.4byte	.LVL26-1
 2749 017a 0100     		.2byte	0x1
 2750 017c 50       		.byte	0x50
 2751 017d 0B000000 		.4byte	.LVL26-1
 2752 0181 16000000 		.4byte	.LVL28
 2753 0185 0100     		.2byte	0x1
 2754 0187 54       		.byte	0x54
 2755 0188 16000000 		.4byte	.LVL28
 2756 018c 19000000 		.4byte	.LVL29-1
 2757 0190 0100     		.2byte	0x1
 2758 0192 50       		.byte	0x50
 2759 0193 19000000 		.4byte	.LVL29-1
 2760 0197 6E000000 		.4byte	.LVL38
 2761 019b 0100     		.2byte	0x1
 2762 019d 54       		.byte	0x54
 2763 019e 6E000000 		.4byte	.LVL38
 2764 01a2 8C000000 		.4byte	.LFE122
 2765 01a6 0100     		.2byte	0x1
 2766 01a8 50       		.byte	0x50
 2767 01a9 00000000 		.4byte	0
 2768 01ad 00000000 		.4byte	0
ARM GAS  C:\Users\RICHRD~1\AppData\Local\Temp\ccN71VnR.s 			page 50


 2769              	.LLST9:
 2770 01b1 00000000 		.4byte	.LVL24
 2771 01b5 04000000 		.4byte	.LVL25
 2772 01b9 0100     		.2byte	0x1
 2773 01bb 51       		.byte	0x51
 2774 01bc 04000000 		.4byte	.LVL25
 2775 01c0 8C000000 		.4byte	.LFE122
 2776 01c4 0400     		.2byte	0x4
 2777 01c6 F3       		.byte	0xf3
 2778 01c7 01       		.uleb128 0x1
 2779 01c8 51       		.byte	0x51
 2780 01c9 9F       		.byte	0x9f
 2781 01ca 00000000 		.4byte	0
 2782 01ce 00000000 		.4byte	0
 2783              	.LLST10:
 2784 01d2 00000000 		.4byte	.LVL24
 2785 01d6 0B000000 		.4byte	.LVL26-1
 2786 01da 0100     		.2byte	0x1
 2787 01dc 52       		.byte	0x52
 2788 01dd 0B000000 		.4byte	.LVL26-1
 2789 01e1 8C000000 		.4byte	.LFE122
 2790 01e5 0400     		.2byte	0x4
 2791 01e7 F3       		.byte	0xf3
 2792 01e8 01       		.uleb128 0x1
 2793 01e9 52       		.byte	0x52
 2794 01ea 9F       		.byte	0x9f
 2795 01eb 00000000 		.4byte	0
 2796 01ef 00000000 		.4byte	0
 2797              		.section	.debug_aranges,"",%progbits
 2798 0000 3C000000 		.4byte	0x3c
 2799 0004 0200     		.2byte	0x2
 2800 0006 00000000 		.4byte	.Ldebug_info0
 2801 000a 04       		.byte	0x4
 2802 000b 00       		.byte	0
 2803 000c 0000     		.2byte	0
 2804 000e 0000     		.2byte	0
 2805 0010 00000000 		.4byte	.LFB118
 2806 0014 1E000000 		.4byte	.LFE118-.LFB118
 2807 0018 00000000 		.4byte	.LFB119
 2808 001c 58000000 		.4byte	.LFE119-.LFB119
 2809 0020 00000000 		.4byte	.LFB120
 2810 0024 38000000 		.4byte	.LFE120-.LFB120
 2811 0028 00000000 		.4byte	.LFB121
 2812 002c 50000000 		.4byte	.LFE121-.LFB121
 2813 0030 00000000 		.4byte	.LFB122
 2814 0034 8C000000 		.4byte	.LFE122-.LFB122
 2815 0038 00000000 		.4byte	0
 2816 003c 00000000 		.4byte	0
 2817              		.section	.debug_ranges,"",%progbits
 2818              	.Ldebug_ranges0:
 2819 0000 00000000 		.4byte	.LFB118
 2820 0004 1E000000 		.4byte	.LFE118
 2821 0008 00000000 		.4byte	.LFB119
 2822 000c 58000000 		.4byte	.LFE119
 2823 0010 00000000 		.4byte	.LFB120
 2824 0014 38000000 		.4byte	.LFE120
 2825 0018 00000000 		.4byte	.LFB121
ARM GAS  C:\Users\RICHRD~1\AppData\Local\Temp\ccN71VnR.s 			page 51


 2826 001c 50000000 		.4byte	.LFE121
 2827 0020 00000000 		.4byte	.LFB122
 2828 0024 8C000000 		.4byte	.LFE122
 2829 0028 00000000 		.4byte	0
 2830 002c 00000000 		.4byte	0
 2831              		.section	.debug_line,"",%progbits
 2832              	.Ldebug_line0:
 2833 0000 3C030000 		.section	.debug_str,"MS",%progbits,1
 2833      02008302 
 2833      00000201 
 2833      FB0E0D00 
 2833      01010101 
 2834              	.LASF68:
 2835 0000 7466756E 		.ascii	"tfunc_t\000"
 2835      635F7400 
 2836              	.LASF2:
 2837 0008 73697A65 		.ascii	"size_t\000"
 2837      5F7400
 2838              	.LASF84:
 2839 000f 6F6E655F 		.ascii	"one_vireInit\000"
 2839      76697265 
 2839      496E6974 
 2839      00
 2840              	.LASF63:
 2841 001c 7264796D 		.ascii	"rdymsg\000"
 2841      736700
 2842              	.LASF12:
 2843 0023 75696E74 		.ascii	"uint64_t\000"
 2843      36345F74 
 2843      00
 2844              	.LASF82:
 2845 002c 76615F6C 		.ascii	"va_list\000"
 2845      69737400 
 2846              	.LASF91:
 2847 0034 76746C69 		.ascii	"vtlist\000"
 2847      737400
 2848              	.LASF13:
 2849 003b 6C6F6E67 		.ascii	"long long unsigned int\000"
 2849      206C6F6E 
 2849      6720756E 
 2849      7369676E 
 2849      65642069 
 2850              	.LASF73:
 2851 0052 42617365 		.ascii	"BaseChannelVMT\000"
 2851      4368616E 
 2851      6E656C56 
 2851      4D5400
 2852              	.LASF64:
 2853 0061 65786974 		.ascii	"exitcode\000"
 2853      636F6465 
 2853      00
 2854              	.LASF92:
 2855 006a 49544D5F 		.ascii	"ITM_RxBuffer\000"
 2855      52784275 
 2855      66666572 
 2855      00
 2856              	.LASF85:
ARM GAS  C:\Users\RICHRD~1\AppData\Local\Temp\ccN71VnR.s 			page 52


 2857 0077 636D645F 		.ascii	"cmd_one_virevalues\000"
 2857      6F6E655F 
 2857      76697265 
 2857      76616C75 
 2857      657300
 2858              	.LASF26:
 2859 008a 705F7072 		.ascii	"p_prio\000"
 2859      696F00
 2860              	.LASF77:
 2861 0091 72656164 		.ascii	"readt\000"
 2861      7400
 2862              	.LASF11:
 2863 0097 6C6F6E67 		.ascii	"long long int\000"
 2863      206C6F6E 
 2863      6720696E 
 2863      7400
 2864              	.LASF1:
 2865 00a5 7369676E 		.ascii	"signed char\000"
 2865      65642063 
 2865      68617200 
 2866              	.LASF42:
 2867 00b1 705F6D70 		.ascii	"p_mpool\000"
 2867      6F6F6C00 
 2868              	.LASF18:
 2869 00b9 74736C69 		.ascii	"tslices_t\000"
 2869      6365735F 
 2869      7400
 2870              	.LASF8:
 2871 00c3 6C6F6E67 		.ascii	"long int\000"
 2871      20696E74 
 2871      00
 2872              	.LASF16:
 2873 00cc 74737461 		.ascii	"tstate_t\000"
 2873      74655F74 
 2873      00
 2874              	.LASF80:
 2875 00d5 5F5F7661 		.ascii	"__va_list\000"
 2875      5F6C6973 
 2875      7400
 2876              	.LASF44:
 2877 00df 54687265 		.ascii	"ThreadsList\000"
 2877      6164734C 
 2877      69737400 
 2878              	.LASF35:
 2879 00eb 705F7469 		.ascii	"p_time\000"
 2879      6D6500
 2880              	.LASF105:
 2881 00f2 44533138 		.ascii	"DS18B20_Init\000"
 2881      4232305F 
 2881      496E6974 
 2881      00
 2882              	.LASF28:
 2883 00ff 705F6E65 		.ascii	"p_newer\000"
 2883      77657200 
 2884              	.LASF45:
 2885 0107 72656761 		.ascii	"regarm_t\000"
 2885      726D5F74 
ARM GAS  C:\Users\RICHRD~1\AppData\Local\Temp\ccN71VnR.s 			page 53


 2885      00
 2886              	.LASF53:
 2887 0110 76745F70 		.ascii	"vt_prev\000"
 2887      72657600 
 2888              	.LASF72:
 2889 0118 42617365 		.ascii	"BaseSequentialStream\000"
 2889      53657175 
 2889      656E7469 
 2889      616C5374 
 2889      7265616D 
 2890              	.LASF0:
 2891 012d 756E7369 		.ascii	"unsigned int\000"
 2891      676E6564 
 2891      20696E74 
 2891      00
 2892              	.LASF52:
 2893 013a 76745F6E 		.ascii	"vt_next\000"
 2893      65787400 
 2894              	.LASF37:
 2895 0142 705F6D73 		.ascii	"p_msgqueue\000"
 2895      67717565 
 2895      756500
 2896              	.LASF75:
 2897 014d 67657474 		.ascii	"gett\000"
 2897      00
 2898              	.LASF51:
 2899 0152 56697274 		.ascii	"VirtualTimer\000"
 2899      75616C54 
 2899      696D6572 
 2899      00
 2900              	.LASF6:
 2901 015f 73686F72 		.ascii	"short unsigned int\000"
 2901      7420756E 
 2901      7369676E 
 2901      65642069 
 2901      6E7400
 2902              	.LASF20:
 2903 0172 6D73675F 		.ascii	"msg_t\000"
 2903      7400
 2904              	.LASF97:
 2905 0178 44533138 		.ascii	"DS18B20_GetTemp\000"
 2905      4232305F 
 2905      47657454 
 2905      656D7000 
 2906              	.LASF71:
 2907 0188 72656164 		.ascii	"read\000"
 2907      00
 2908              	.LASF76:
 2909 018d 77726974 		.ascii	"writet\000"
 2909      657400
 2910              	.LASF15:
 2911 0194 746D6F64 		.ascii	"tmode_t\000"
 2911      655F7400 
 2912              	.LASF106:
 2913 019c 44533138 		.ascii	"DS18B20_ScanBus\000"
 2913      4232305F 
 2913      5363616E 
ARM GAS  C:\Users\RICHRD~1\AppData\Local\Temp\ccN71VnR.s 			page 54


 2913      42757300 
 2914              	.LASF21:
 2915 01ac 6576656E 		.ascii	"eventmask_t\000"
 2915      746D6173 
 2915      6B5F7400 
 2916              	.LASF46:
 2917 01b8 73746B61 		.ascii	"stkalign_t\000"
 2917      6C69676E 
 2917      5F7400
 2918              	.LASF98:
 2919 01c3 63685468 		.ascii	"chThdCreateStatic\000"
 2919      64437265 
 2919      61746553 
 2919      74617469 
 2919      6300
 2920              	.LASF70:
 2921 01d5 77726974 		.ascii	"write\000"
 2921      6500
 2922              	.LASF74:
 2923 01db 70757474 		.ascii	"putt\000"
 2923      00
 2924              	.LASF54:
 2925 01e0 76745F74 		.ascii	"vt_time\000"
 2925      696D6500 
 2926              	.LASF36:
 2927 01e8 705F7761 		.ascii	"p_waiting\000"
 2927      6974696E 
 2927      6700
 2928              	.LASF49:
 2929 01f2 73697A65 		.ascii	"sizetype\000"
 2929      74797065 
 2929      00
 2930              	.LASF88:
 2931 01fb 77615F64 		.ascii	"wa_ds18b20_polling\000"
 2931      73313862 
 2931      32305F70 
 2931      6F6C6C69 
 2931      6E6700
 2932              	.LASF59:
 2933 020e 4D757465 		.ascii	"Mutex\000"
 2933      7800
 2934              	.LASF79:
 2935 0214 5F5F676E 		.ascii	"__gnuc_va_list\000"
 2935      75635F76 
 2935      615F6C69 
 2935      737400
 2936              	.LASF99:
 2937 0223 474E5520 		.ascii	"GNU C 4.7.4 20140401 (release) [ARM/embedded-4_7-br"
 2937      4320342E 
 2937      372E3420 
 2937      32303134 
 2937      30343031 
 2938 0256 616E6368 		.ascii	"anch revision 209195]\000"
 2938      20726576 
 2938      6973696F 
 2938      6E203230 
 2938      39313935 
ARM GAS  C:\Users\RICHRD~1\AppData\Local\Temp\ccN71VnR.s 			page 55


 2939              	.LASF29:
 2940 026c 705F6F6C 		.ascii	"p_older\000"
 2940      64657200 
 2941              	.LASF43:
 2942 0274 54687265 		.ascii	"ThreadsQueue\000"
 2942      61647351 
 2942      75657565 
 2942      00
 2943              	.LASF83:
 2944 0281 74696D65 		.ascii	"time\000"
 2944      00
 2945              	.LASF96:
 2946 0286 63685468 		.ascii	"chThdSleepUntil\000"
 2946      64536C65 
 2946      6570556E 
 2946      74696C00 
 2947              	.LASF93:
 2948 0296 666C6F61 		.ascii	"float\000"
 2948      7400
 2949              	.LASF17:
 2950 029c 74726566 		.ascii	"trefs_t\000"
 2950      735F7400 
 2951              	.LASF89:
 2952 02a4 7365636F 		.ascii	"seconds\000"
 2952      6E647300 
 2953              	.LASF25:
 2954 02ac 705F7072 		.ascii	"p_prev\000"
 2954      657600
 2955              	.LASF19:
 2956 02b3 74707269 		.ascii	"tprio_t\000"
 2956      6F5F7400 
 2957              	.LASF14:
 2958 02bb 5F426F6F 		.ascii	"_Bool\000"
 2958      6C00
 2959              	.LASF7:
 2960 02c1 696E7433 		.ascii	"int32_t\000"
 2960      325F7400 
 2961              	.LASF4:
 2962 02c9 756E7369 		.ascii	"unsigned char\000"
 2962      676E6564 
 2962      20636861 
 2962      7200
 2963              	.LASF60:
 2964 02d7 6D5F7175 		.ascii	"m_queue\000"
 2964      65756500 
 2965              	.LASF94:
 2966 02df 63757272 		.ascii	"currentTemp\000"
 2966      656E7454 
 2966      656D7000 
 2967              	.LASF40:
 2968 02eb 705F6D74 		.ascii	"p_mtxlist\000"
 2968      786C6973 
 2968      7400
 2969              	.LASF5:
 2970 02f5 73686F72 		.ascii	"short int\000"
 2970      7420696E 
 2970      7400
ARM GAS  C:\Users\RICHRD~1\AppData\Local\Temp\ccN71VnR.s 			page 56


 2971              	.LASF31:
 2972 02ff 705F7374 		.ascii	"p_state\000"
 2972      61746500 
 2973              	.LASF34:
 2974 0307 705F7072 		.ascii	"p_preempt\000"
 2974      65656D70 
 2974      7400
 2975              	.LASF66:
 2976 0311 65776D61 		.ascii	"ewmask\000"
 2976      736B00
 2977              	.LASF24:
 2978 0318 705F6E65 		.ascii	"p_next\000"
 2978      787400
 2979              	.LASF69:
 2980 031f 42617365 		.ascii	"BaseSequentialStreamVMT\000"
 2980      53657175 
 2980      656E7469 
 2980      616C5374 
 2980      7265616D 
 2981              	.LASF32:
 2982 0337 705F666C 		.ascii	"p_flags\000"
 2982      61677300 
 2983              	.LASF23:
 2984 033f 54687265 		.ascii	"Thread\000"
 2984      616400
 2985              	.LASF39:
 2986 0346 705F6570 		.ascii	"p_epending\000"
 2986      656E6469 
 2986      6E6700
 2987              	.LASF9:
 2988 0351 75696E74 		.ascii	"uint32_t\000"
 2988      33325F74 
 2988      00
 2989              	.LASF57:
 2990 035a 76745F73 		.ascii	"vt_systime\000"
 2990      79737469 
 2990      6D6500
 2991              	.LASF10:
 2992 0365 6C6F6E67 		.ascii	"long unsigned int\000"
 2992      20756E73 
 2992      69676E65 
 2992      6420696E 
 2992      7400
 2993              	.LASF67:
 2994 0377 63686172 		.ascii	"char\000"
 2994      00
 2995              	.LASF62:
 2996 037c 6D5F6E65 		.ascii	"m_next\000"
 2996      787400
 2997              	.LASF22:
 2998 0383 73797374 		.ascii	"systime_t\000"
 2998      696D655F 
 2998      7400
 2999              	.LASF41:
 3000 038d 705F7265 		.ascii	"p_realprio\000"
 3000      616C7072 
 3000      696F00
ARM GAS  C:\Users\RICHRD~1\AppData\Local\Temp\ccN71VnR.s 			page 57


 3001              	.LASF50:
 3002 0398 76746675 		.ascii	"vtfunc_t\000"
 3002      6E635F74 
 3002      00
 3003              	.LASF30:
 3004 03a1 705F6E61 		.ascii	"p_name\000"
 3004      6D6500
 3005              	.LASF81:
 3006 03a8 5F5F6170 		.ascii	"__ap\000"
 3006      00
 3007              	.LASF48:
 3008 03ad 636F6E74 		.ascii	"context\000"
 3008      65787400 
 3009              	.LASF47:
 3010 03b5 696E7463 		.ascii	"intctx\000"
 3010      747800
 3011              	.LASF56:
 3012 03bc 76745F70 		.ascii	"vt_par\000"
 3012      617200
 3013              	.LASF107:
 3014 03c3 63685468 		.ascii	"chThdSleep\000"
 3014      64536C65 
 3014      657000
 3015              	.LASF100:
 3016 03ce 7372632F 		.ascii	"src/one_vire_comm.c\000"
 3016      6F6E655F 
 3016      76697265 
 3016      5F636F6D 
 3016      6D2E6300 
 3017              	.LASF33:
 3018 03e2 705F7265 		.ascii	"p_refs\000"
 3018      667300
 3019              	.LASF38:
 3020 03e9 705F6D73 		.ascii	"p_msg\000"
 3020      6700
 3021              	.LASF3:
 3022 03ef 75696E74 		.ascii	"uint8_t\000"
 3022      385F7400 
 3023              	.LASF95:
 3024 03f7 63687670 		.ascii	"chvprintf\000"
 3024      72696E74 
 3024      6600
 3025              	.LASF78:
 3026 0401 42617365 		.ascii	"BaseChannel\000"
 3026      4368616E 
 3026      6E656C00 
 3027              	.LASF65:
 3028 040d 77746F62 		.ascii	"wtobjp\000"
 3028      6A7000
 3029              	.LASF86:
 3030 0414 61726763 		.ascii	"argc\000"
 3030      00
 3031              	.LASF103:
 3032 0419 64733138 		.ascii	"ds18b20_polling_thread\000"
 3032      6232305F 
 3032      706F6C6C 
 3032      696E675F 
ARM GAS  C:\Users\RICHRD~1\AppData\Local\Temp\ccN71VnR.s 			page 58


 3032      74687265 
 3033              	.LASF104:
 3034 0430 6F6E655F 		.ascii	"one_vireGetValue\000"
 3034      76697265 
 3034      47657456 
 3034      616C7565 
 3034      00
 3035              	.LASF58:
 3036 0441 56544C69 		.ascii	"VTList\000"
 3036      737400
 3037              	.LASF87:
 3038 0448 61726776 		.ascii	"argv\000"
 3038      00
 3039              	.LASF90:
 3040 044d 73656E73 		.ascii	"sensor_num\000"
 3040      6F725F6E 
 3040      756D00
 3041              	.LASF61:
 3042 0458 6D5F6F77 		.ascii	"m_owner\000"
 3042      6E657200 
 3043              	.LASF101:
 3044 0460 433A5C55 		.ascii	"C:\\Users\\Rich\341rd\\git\\Modulux\\modulux\\firmw"
 3044      73657273 
 3044      5C526963 
 3044      68E17264 
 3044      5C676974 
 3045 048a 61726500 		.ascii	"are\000"
 3046              	.LASF27:
 3047 048e 705F6374 		.ascii	"p_ctx\000"
 3047      7800
 3048              	.LASF55:
 3049 0494 76745F66 		.ascii	"vt_func\000"
 3049      756E6300 
 3050              	.LASF102:
 3051 049c 63687072 		.ascii	"chprintf\000"
 3051      696E7466 
 3051      00
 3052              		.ident	"GCC: (GNU Tools for ARM Embedded Processors) 4.7.4 20140401 (release) [ARM/embedded-4_7-br
ARM GAS  C:\Users\RICHRD~1\AppData\Local\Temp\ccN71VnR.s 			page 59


DEFINED SYMBOLS
                            *ABS*:00000000 one_vire_comm.c
C:\Users\RICHRD~1\AppData\Local\Temp\ccN71VnR.s:19     .text.chprintf:00000000 $t
C:\Users\RICHRD~1\AppData\Local\Temp\ccN71VnR.s:24     .text.chprintf:00000000 chprintf
C:\Users\RICHRD~1\AppData\Local\Temp\ccN71VnR.s:64     .text.ds18b20_polling_thread:00000000 $t
C:\Users\RICHRD~1\AppData\Local\Temp\ccN71VnR.s:69     .text.ds18b20_polling_thread:00000000 ds18b20_polling_thread
C:\Users\RICHRD~1\AppData\Local\Temp\ccN71VnR.s:141    .text.ds18b20_polling_thread:00000048 $d
C:\Users\RICHRD~1\AppData\Local\Temp\ccN71VnR.s:149    .text.one_vireInit:00000000 $t
C:\Users\RICHRD~1\AppData\Local\Temp\ccN71VnR.s:155    .text.one_vireInit:00000000 one_vireInit
C:\Users\RICHRD~1\AppData\Local\Temp\ccN71VnR.s:424    .bss.sensor_num:00000000 .LANCHOR0
C:\Users\RICHRD~1\AppData\Local\Temp\ccN71VnR.s:417    .bss.wa_ds18b20_polling:00000000 .LANCHOR3
C:\Users\RICHRD~1\AppData\Local\Temp\ccN71VnR.s:199    .text.one_vireGetValue:00000000 $t
C:\Users\RICHRD~1\AppData\Local\Temp\ccN71VnR.s:205    .text.one_vireGetValue:00000000 one_vireGetValue
C:\Users\RICHRD~1\AppData\Local\Temp\ccN71VnR.s:271    .text.one_vireGetValue:00000048 $d
C:\Users\RICHRD~1\AppData\Local\Temp\ccN71VnR.s:278    .text.cmd_one_virevalues:00000000 $t
C:\Users\RICHRD~1\AppData\Local\Temp\ccN71VnR.s:284    .text.cmd_one_virevalues:00000000 cmd_one_virevalues
C:\Users\RICHRD~1\AppData\Local\Temp\ccN71VnR.s:378    .text.cmd_one_virevalues:00000070 $d
C:\Users\RICHRD~1\AppData\Local\Temp\ccN71VnR.s:394    .bss.currentTemp:00000000 currentTemp
C:\Users\RICHRD~1\AppData\Local\Temp\ccN71VnR.s:390    .bss.currentTemp:00000000 $d
C:\Users\RICHRD~1\AppData\Local\Temp\ccN71VnR.s:397    .rodata.str1.4:00000000 $d
C:\Users\RICHRD~1\AppData\Local\Temp\ccN71VnR.s:416    .bss.wa_ds18b20_polling:00000000 $d
C:\Users\RICHRD~1\AppData\Local\Temp\ccN71VnR.s:420    .bss.wa_ds18b20_polling:00000000 wa_ds18b20_polling
C:\Users\RICHRD~1\AppData\Local\Temp\ccN71VnR.s:423    .bss.sensor_num:00000000 $d
C:\Users\RICHRD~1\AppData\Local\Temp\ccN71VnR.s:427    .bss.sensor_num:00000000 sensor_num
C:\Users\RICHRD~1\AppData\Local\Temp\ccN71VnR.s:430    .data.seconds:00000000 $d
C:\Users\RICHRD~1\AppData\Local\Temp\ccN71VnR.s:434    .data.seconds:00000000 seconds
                     .debug_frame:00000010 $d
C:\Users\RICHRD~1\AppData\Local\Temp\ccN71VnR.s:148    .text.ds18b20_polling_thread:00000058 $t
C:\Users\RICHRD~1\AppData\Local\Temp\ccN71VnR.s:389    .text.cmd_one_virevalues:0000008c $t

UNDEFINED SYMBOLS
chvprintf
DS18B20_GetTemp
chThdSleepUntil
vtlist
DS18B20_Init
DS18B20_ScanBus
chThdCreateStatic
__aeabi_fmul
__aeabi_f2uiz
__aeabi_f2d
chThdSleep
