ARM GAS  C:\Users\DNIEL~1\AppData\Local\Temp\cc6IvFbi.s 			page 1


   1              		.syntax unified
   2              		.cpu cortex-m3
   3              		.fpu softvfp
   4              		.eabi_attribute 20, 1
   5              		.eabi_attribute 21, 1
   6              		.eabi_attribute 23, 3
   7              		.eabi_attribute 24, 1
   8              		.eabi_attribute 25, 1
   9              		.eabi_attribute 26, 1
  10              		.eabi_attribute 30, 2
  11              		.eabi_attribute 18, 4
  12              		.thumb
  13              		.file	"pal_lld.c"
  14              		.section	.debug_abbrev,"",%progbits
  15              	.Ldebug_abbrev0:
  16              		.section	.debug_info,"",%progbits
  17              	.Ldebug_info0:
  18              		.section	.debug_line,"",%progbits
  19              	.Ldebug_line0:
  20 0000 2B020000 		.text
  20      02006201 
  20      00000201 
  20      FB0E0D00 
  20      01010101 
  21              	.Ltext0:
  22              		.cfi_sections	.debug_frame
  23              		.section	.text._pal_lld_init,"ax",%progbits
  24              		.align	2
  25              		.p2align 4,,15
  26              		.global	_pal_lld_init
  27              		.thumb
  28              		.thumb_func
  29              		.type	_pal_lld_init, %function
  30              	_pal_lld_init:
  31              	.LFB119:
  32              		.file 1 "../../../ChibiOS/os/hal/platforms/STM32/GPIOv2/pal_lld.c"
  33              		.loc 1 104 0
  34              		.cfi_startproc
  35              		@ args = 0, pretend = 0, frame = 0
  36              		@ frame_needed = 0, uses_anonymous_args = 0
  37              		@ link register save eliminated.
  38              	.LVL0:
  39              		.loc 1 115 0
  40 0000 6E4B     		ldr	r3, .L2
  41              		.loc 1 104 0
  42 0002 2DE9F003 		push	{r4, r5, r6, r7, r8, r9}
  43              	.LCFI0:
  44              		.cfi_def_cfa_offset 24
  45              		.loc 1 115 0
  46 0006 1C6B     		ldr	r4, [r3, #48]
  47              		.cfi_offset 9, -4
  48              		.cfi_offset 8, -8
  49              		.cfi_offset 7, -12
  50              		.cfi_offset 6, -16
  51              		.cfi_offset 5, -20
  52              		.cfi_offset 4, -24
  53              	.LBB20:
ARM GAS  C:\Users\DNIEL~1\AppData\Local\Temp\cc6IvFbi.s 			page 2


  54              	.LBB25:
  55              		.loc 1 79 0
  56 0008 DFF8D081 		ldr	r8, .L2+32
  57              	.LBE25:
  58              	.LBE20:
  59              		.loc 1 115 0
  60 000c 6FEA542C 		mvn	ip, r4, lsr #9
  61 0010 6FEA4C21 		mvn	r1, ip, lsl #9
  62 0014 1963     		str	r1, [r3, #48]
  63              		.loc 1 116 0
  64 0016 1A6D     		ldr	r2, [r3, #80]
  65              	.LBB30:
  66              	.LBB31:
  67              		.loc 1 79 0
  68 0018 DFF8C4C1 		ldr	ip, .L2+36
  69              	.LBE31:
  70              	.LBE30:
  71              		.loc 1 116 0
  72 001c 6FEA5229 		mvn	r9, r2, lsr #9
  73 0020 6FEA4927 		mvn	r7, r9, lsl #9
  74 0024 1F65     		str	r7, [r3, #80]
  75              	.LVL1:
  76              	.LBB33:
  77              	.LBB24:
  78              		.loc 1 79 0
  79 0026 4668     		ldr	r6, [r0, #4]
  80              	.LBE24:
  81              	.LBE33:
  82              	.LBB34:
  83              	.LBB35:
  84 0028 654F     		ldr	r7, .L2+4
  85              	.LBE35:
  86              	.LBE34:
  87              	.LBB37:
  88              	.LBB26:
  89 002a C8F80460 		str	r6, [r8, #4]
  90              		.loc 1 80 0
  91 002e 8568     		ldr	r5, [r0, #8]
  92              	.LBE26:
  93              	.LBE37:
  94              	.LBB38:
  95              	.LBB39:
  96              		.loc 1 79 0
  97 0030 644E     		ldr	r6, .L2+8
  98              	.LBE39:
  99              	.LBE38:
 100              	.LBB41:
 101              	.LBB23:
 102              		.loc 1 80 0
 103 0032 C8F80850 		str	r5, [r8, #8]
 104              		.loc 1 81 0
 105 0036 C468     		ldr	r4, [r0, #12]
 106              	.LBE23:
 107              	.LBE41:
 108              	.LBB42:
 109              	.LBB43:
 110              		.loc 1 79 0
ARM GAS  C:\Users\DNIEL~1\AppData\Local\Temp\cc6IvFbi.s 			page 3


 111 0038 634D     		ldr	r5, .L2+12
 112              	.LBE43:
 113              	.LBE42:
 114              	.LBB45:
 115              	.LBB27:
 116              		.loc 1 81 0
 117 003a C8F80C40 		str	r4, [r8, #12]
 118              		.loc 1 82 0
 119 003e 0169     		ldr	r1, [r0, #16]
 120              	.LBE27:
 121              	.LBE45:
 122              	.LBB46:
 123              	.LBB47:
 124              		.loc 1 79 0
 125 0040 624C     		ldr	r4, .L2+16
 126              	.LBE47:
 127              	.LBE46:
 128              	.LBB49:
 129              	.LBB22:
 130              		.loc 1 82 0
 131 0042 C8F81410 		str	r1, [r8, #20]
 132              		.loc 1 83 0
 133 0046 4269     		ldr	r2, [r0, #20]
 134              	.LBE22:
 135              	.LBE49:
 136              	.LBB50:
 137              	.LBB51:
 138              		.loc 1 79 0
 139 0048 6149     		ldr	r1, .L2+20
 140              	.LBE51:
 141              	.LBE50:
 142              	.LBB53:
 143              	.LBB28:
 144              		.loc 1 83 0
 145 004a C8F82020 		str	r2, [r8, #32]
 146              		.loc 1 84 0
 147 004e 8369     		ldr	r3, [r0, #24]
 148              	.LBE28:
 149              	.LBE53:
 150              	.LBB54:
 151              	.LBB55:
 152              		.loc 1 79 0
 153 0050 604A     		ldr	r2, .L2+24
 154              	.LBE55:
 155              	.LBE54:
 156              	.LBB57:
 157              	.LBB21:
 158              		.loc 1 84 0
 159 0052 C8F82430 		str	r3, [r8, #36]
 160              		.loc 1 85 0
 161 0056 D0F80090 		ldr	r9, [r0, #0]
 162              	.LBE21:
 163              	.LBE57:
 164              	.LBB58:
 165              	.LBB59:
 166              		.loc 1 79 0
 167 005a 5F4B     		ldr	r3, .L2+28
ARM GAS  C:\Users\DNIEL~1\AppData\Local\Temp\cc6IvFbi.s 			page 4


 168              	.LBE59:
 169              	.LBE58:
 170              	.LBB61:
 171              	.LBB29:
 172              		.loc 1 85 0
 173 005c C8F80090 		str	r9, [r8, #0]
 174              	.LVL2:
 175              	.LBE29:
 176              	.LBE61:
 177              	.LBB62:
 178              	.LBB32:
 179              		.loc 1 79 0
 180 0060 D0F82080 		ldr	r8, [r0, #32]
 181 0064 CCF80480 		str	r8, [ip, #4]
 182              		.loc 1 80 0
 183 0068 D0F82480 		ldr	r8, [r0, #36]
 184 006c CCF80880 		str	r8, [ip, #8]
 185              		.loc 1 81 0
 186 0070 D0F82880 		ldr	r8, [r0, #40]
 187 0074 CCF80C80 		str	r8, [ip, #12]
 188              		.loc 1 82 0
 189 0078 D0F82C80 		ldr	r8, [r0, #44]
 190 007c CCF81480 		str	r8, [ip, #20]
 191              		.loc 1 83 0
 192 0080 D0F83080 		ldr	r8, [r0, #48]
 193 0084 CCF82080 		str	r8, [ip, #32]
 194              		.loc 1 84 0
 195 0088 D0F83480 		ldr	r8, [r0, #52]
 196 008c CCF82480 		str	r8, [ip, #36]
 197              		.loc 1 85 0
 198 0090 D0F81C80 		ldr	r8, [r0, #28]
 199 0094 CCF80080 		str	r8, [ip, #0]
 200              	.LVL3:
 201              	.LBE32:
 202              	.LBE62:
 203              	.LBB63:
 204              	.LBB36:
 205              		.loc 1 79 0
 206 0098 D0F83CC0 		ldr	ip, [r0, #60]
 207 009c C7F804C0 		str	ip, [r7, #4]
 208              		.loc 1 80 0
 209 00a0 D0F840C0 		ldr	ip, [r0, #64]
 210 00a4 C7F808C0 		str	ip, [r7, #8]
 211              		.loc 1 81 0
 212 00a8 D0F844C0 		ldr	ip, [r0, #68]
 213 00ac C7F80CC0 		str	ip, [r7, #12]
 214              		.loc 1 82 0
 215 00b0 D0F848C0 		ldr	ip, [r0, #72]
 216 00b4 C7F814C0 		str	ip, [r7, #20]
 217              		.loc 1 83 0
 218 00b8 D0F84CC0 		ldr	ip, [r0, #76]
 219 00bc C7F820C0 		str	ip, [r7, #32]
 220              		.loc 1 84 0
 221 00c0 D0F850C0 		ldr	ip, [r0, #80]
 222 00c4 C7F824C0 		str	ip, [r7, #36]
 223              		.loc 1 85 0
 224 00c8 D0F838C0 		ldr	ip, [r0, #56]
ARM GAS  C:\Users\DNIEL~1\AppData\Local\Temp\cc6IvFbi.s 			page 5


 225 00cc C7F800C0 		str	ip, [r7, #0]
 226              	.LVL4:
 227              	.LBE36:
 228              	.LBE63:
 229              	.LBB64:
 230              	.LBB40:
 231              		.loc 1 79 0
 232 00d0 876D     		ldr	r7, [r0, #88]
 233 00d2 7760     		str	r7, [r6, #4]
 234              		.loc 1 80 0
 235 00d4 C76D     		ldr	r7, [r0, #92]
 236 00d6 B760     		str	r7, [r6, #8]
 237              		.loc 1 81 0
 238 00d8 076E     		ldr	r7, [r0, #96]
 239 00da F760     		str	r7, [r6, #12]
 240              		.loc 1 82 0
 241 00dc 476E     		ldr	r7, [r0, #100]
 242 00de 7761     		str	r7, [r6, #20]
 243              		.loc 1 83 0
 244 00e0 876E     		ldr	r7, [r0, #104]
 245 00e2 3762     		str	r7, [r6, #32]
 246              		.loc 1 84 0
 247 00e4 C76E     		ldr	r7, [r0, #108]
 248 00e6 7762     		str	r7, [r6, #36]
 249              		.loc 1 85 0
 250 00e8 476D     		ldr	r7, [r0, #84]
 251 00ea 3760     		str	r7, [r6, #0]
 252              	.LVL5:
 253              	.LBE40:
 254              	.LBE64:
 255              	.LBB65:
 256              	.LBB44:
 257              		.loc 1 79 0
 258 00ec 466F     		ldr	r6, [r0, #116]
 259 00ee 6E60     		str	r6, [r5, #4]
 260              		.loc 1 80 0
 261 00f0 866F     		ldr	r6, [r0, #120]
 262 00f2 AE60     		str	r6, [r5, #8]
 263              		.loc 1 81 0
 264 00f4 C66F     		ldr	r6, [r0, #124]
 265 00f6 EE60     		str	r6, [r5, #12]
 266              		.loc 1 82 0
 267 00f8 D0F88060 		ldr	r6, [r0, #128]
 268 00fc 6E61     		str	r6, [r5, #20]
 269              		.loc 1 83 0
 270 00fe D0F88460 		ldr	r6, [r0, #132]
 271 0102 2E62     		str	r6, [r5, #32]
 272              		.loc 1 84 0
 273 0104 D0F88860 		ldr	r6, [r0, #136]
 274 0108 6E62     		str	r6, [r5, #36]
 275              		.loc 1 85 0
 276 010a 066F     		ldr	r6, [r0, #112]
 277 010c 2E60     		str	r6, [r5, #0]
 278              	.LVL6:
 279              	.LBE44:
 280              	.LBE65:
 281              	.LBB66:
ARM GAS  C:\Users\DNIEL~1\AppData\Local\Temp\cc6IvFbi.s 			page 6


 282              	.LBB48:
 283              		.loc 1 79 0
 284 010e D0F89050 		ldr	r5, [r0, #144]
 285 0112 6560     		str	r5, [r4, #4]
 286              		.loc 1 80 0
 287 0114 D0F89450 		ldr	r5, [r0, #148]
 288 0118 A560     		str	r5, [r4, #8]
 289              		.loc 1 81 0
 290 011a D0F89850 		ldr	r5, [r0, #152]
 291 011e E560     		str	r5, [r4, #12]
 292              		.loc 1 82 0
 293 0120 D0F89C50 		ldr	r5, [r0, #156]
 294 0124 6561     		str	r5, [r4, #20]
 295              		.loc 1 83 0
 296 0126 D0F8A050 		ldr	r5, [r0, #160]
 297 012a 2562     		str	r5, [r4, #32]
 298              		.loc 1 84 0
 299 012c D0F8A450 		ldr	r5, [r0, #164]
 300 0130 6562     		str	r5, [r4, #36]
 301              		.loc 1 85 0
 302 0132 D0F88C50 		ldr	r5, [r0, #140]
 303 0136 2560     		str	r5, [r4, #0]
 304              	.LVL7:
 305              	.LBE48:
 306              	.LBE66:
 307              	.LBB67:
 308              	.LBB52:
 309              		.loc 1 79 0
 310 0138 D0F8AC40 		ldr	r4, [r0, #172]
 311 013c 4C60     		str	r4, [r1, #4]
 312              		.loc 1 80 0
 313 013e D0F8B040 		ldr	r4, [r0, #176]
 314 0142 8C60     		str	r4, [r1, #8]
 315              		.loc 1 81 0
 316 0144 D0F8B440 		ldr	r4, [r0, #180]
 317 0148 CC60     		str	r4, [r1, #12]
 318              		.loc 1 82 0
 319 014a D0F8B840 		ldr	r4, [r0, #184]
 320 014e 4C61     		str	r4, [r1, #20]
 321              		.loc 1 83 0
 322 0150 D0F8BC40 		ldr	r4, [r0, #188]
 323 0154 0C62     		str	r4, [r1, #32]
 324              		.loc 1 84 0
 325 0156 D0F8C040 		ldr	r4, [r0, #192]
 326 015a 4C62     		str	r4, [r1, #36]
 327              		.loc 1 85 0
 328 015c D0F8A840 		ldr	r4, [r0, #168]
 329 0160 0C60     		str	r4, [r1, #0]
 330              	.LVL8:
 331              	.LBE52:
 332              	.LBE67:
 333              	.LBB68:
 334              	.LBB56:
 335              		.loc 1 79 0
 336 0162 D0F8C810 		ldr	r1, [r0, #200]
 337 0166 5160     		str	r1, [r2, #4]
 338              		.loc 1 80 0
ARM GAS  C:\Users\DNIEL~1\AppData\Local\Temp\cc6IvFbi.s 			page 7


 339 0168 D0F8CC10 		ldr	r1, [r0, #204]
 340 016c 9160     		str	r1, [r2, #8]
 341              		.loc 1 81 0
 342 016e D0F8D010 		ldr	r1, [r0, #208]
 343 0172 D160     		str	r1, [r2, #12]
 344              		.loc 1 82 0
 345 0174 D0F8D410 		ldr	r1, [r0, #212]
 346 0178 5161     		str	r1, [r2, #20]
 347              		.loc 1 83 0
 348 017a D0F8D810 		ldr	r1, [r0, #216]
 349 017e 1162     		str	r1, [r2, #32]
 350              		.loc 1 84 0
 351 0180 D0F8DC10 		ldr	r1, [r0, #220]
 352 0184 5162     		str	r1, [r2, #36]
 353              		.loc 1 85 0
 354 0186 D0F8C410 		ldr	r1, [r0, #196]
 355 018a 1160     		str	r1, [r2, #0]
 356              	.LVL9:
 357              	.LBE56:
 358              	.LBE68:
 359              	.LBB69:
 360              	.LBB60:
 361              		.loc 1 79 0
 362 018c D0F8E420 		ldr	r2, [r0, #228]
 363 0190 5A60     		str	r2, [r3, #4]
 364              		.loc 1 80 0
 365 0192 D0F8E810 		ldr	r1, [r0, #232]
 366 0196 9960     		str	r1, [r3, #8]
 367              		.loc 1 81 0
 368 0198 D0F8EC20 		ldr	r2, [r0, #236]
 369 019c DA60     		str	r2, [r3, #12]
 370              		.loc 1 82 0
 371 019e D0F8F010 		ldr	r1, [r0, #240]
 372 01a2 5961     		str	r1, [r3, #20]
 373              		.loc 1 83 0
 374 01a4 D0F8F420 		ldr	r2, [r0, #244]
 375 01a8 1A62     		str	r2, [r3, #32]
 376              		.loc 1 84 0
 377 01aa D0F8F810 		ldr	r1, [r0, #248]
 378 01ae 5962     		str	r1, [r3, #36]
 379              		.loc 1 85 0
 380 01b0 D0F8E020 		ldr	r2, [r0, #224]
 381 01b4 1A60     		str	r2, [r3, #0]
 382              	.LBE60:
 383              	.LBE69:
 384              		.loc 1 141 0
 385 01b6 BDE8F003 		pop	{r4, r5, r6, r7, r8, r9}
 386 01ba 7047     		bx	lr
 387              	.L3:
 388              		.align	2
 389              	.L2:
 390 01bc 00380240 		.word	1073887232
 391 01c0 00080240 		.word	1073874944
 392 01c4 000C0240 		.word	1073875968
 393 01c8 00100240 		.word	1073876992
 394 01cc 00140240 		.word	1073878016
 395 01d0 00180240 		.word	1073879040
ARM GAS  C:\Users\DNIEL~1\AppData\Local\Temp\cc6IvFbi.s 			page 8


 396 01d4 001C0240 		.word	1073880064
 397 01d8 00200240 		.word	1073881088
 398 01dc 00000240 		.word	1073872896
 399 01e0 00040240 		.word	1073873920
 400              		.cfi_endproc
 401              	.LFE119:
 402              		.size	_pal_lld_init, .-_pal_lld_init
 403 01e4 AFF30080 		.section	.text._pal_lld_setgroupmode,"ax",%progbits
 403      AFF30080 
 403      AFF30080 
 404              		.align	2
 405              		.p2align 4,,15
 406              		.global	_pal_lld_setgroupmode
 407              		.thumb
 408              		.thumb_func
 409              		.type	_pal_lld_setgroupmode, %function
 410              	_pal_lld_setgroupmode:
 411              	.LFB120:
 412              		.loc 1 159 0
 413              		.cfi_startproc
 414              		@ args = 0, pretend = 0, frame = 0
 415              		@ frame_needed = 0, uses_anonymous_args = 0
 416              		@ link register save eliminated.
 417              	.LVL10:
 418 0000 2DE9F00F 		push	{r4, r5, r6, r7, r8, r9, sl, fp}
 419              	.LCFI1:
 420              		.cfi_def_cfa_offset 32
 421              		.loc 1 166 0
 422 0004 0023     		movs	r3, #0
 423              		.loc 1 161 0
 424 0006 02F00307 		and	r7, r2, #3
 425              		.cfi_offset 11, -4
 426              		.cfi_offset 10, -8
 427              		.cfi_offset 9, -12
 428              		.cfi_offset 8, -16
 429              		.cfi_offset 7, -20
 430              		.cfi_offset 6, -24
 431              		.cfi_offset 5, -28
 432              		.cfi_offset 4, -32
 433              	.LVL11:
 434              		.loc 1 162 0
 435 000a C2F38006 		ubfx	r6, r2, #2, #1
 436              	.LVL12:
 437              		.loc 1 163 0
 438 000e C2F3C105 		ubfx	r5, r2, #3, #2
 439              	.LVL13:
 440              		.loc 1 164 0
 441 0012 C2F34114 		ubfx	r4, r2, #5, #2
 442              	.LVL14:
 443              		.loc 1 165 0
 444 0016 C2F3C31A 		ubfx	sl, r2, #7, #4
 445              	.LVL15:
 446              	.LBB70:
 447              		.loc 1 172 0
 448 001a 4FF00F09 		mov	r9, #15
 449              		.loc 1 177 0
 450 001e 4FF0010B 		mov	fp, #1
ARM GAS  C:\Users\DNIEL~1\AppData\Local\Temp\cc6IvFbi.s 			page 9


 451 0022 34E0     		b	.L9
 452              	.LVL16:
 453              	.L11:
 454              		.loc 1 174 0
 455 0024 D0F82080 		ldr	r8, [r0, #32]
 456 0028 28EA0C08 		bic	r8, r8, ip
 457 002c 48EA0202 		orr	r2, r8, r2
 458              	.LVL17:
 459 0030 0262     		str	r2, [r0, #32]
 460              	.LVL18:
 461              	.L7:
 462              		.loc 1 177 0
 463 0032 0BFA03F8 		lsl	r8, fp, r3
 464              		.loc 1 179 0
 465 0036 4FF0030C 		mov	ip, #3
 466              		.loc 1 157 0
 467 003a 5A00     		lsls	r2, r3, #1
 468              		.loc 1 179 0
 469 003c 0CFA02F2 		lsl	r2, ip, r2
 470              		.loc 1 178 0
 471 0040 D0F804C0 		ldr	ip, [r0, #4]
 472              		.loc 1 180 0
 473 0044 D243     		mvns	r2, r2
 474              		.loc 1 178 0
 475 0046 2CEA080C 		bic	ip, ip, r8
 476 004a 4CEA060C 		orr	ip, ip, r6
 477 004e C0F804C0 		str	ip, [r0, #4]
 478              	.LVL19:
 479              		.loc 1 180 0
 480 0052 D0F808C0 		ldr	ip, [r0, #8]
 481 0056 02EA0C0C 		and	ip, r2, ip
 482 005a 4CEA050C 		orr	ip, ip, r5
 483 005e C0F808C0 		str	ip, [r0, #8]
 484              		.loc 1 181 0
 485 0062 D0F80CC0 		ldr	ip, [r0, #12]
 486 0066 02EA0C0C 		and	ip, r2, ip
 487 006a 4CEA040C 		orr	ip, ip, r4
 488 006e C0F80CC0 		str	ip, [r0, #12]
 489              		.loc 1 182 0
 490 0072 D0F800C0 		ldr	ip, [r0, #0]
 491 0076 02EA0C0C 		and	ip, r2, ip
 492 007a 4CEA0702 		orr	r2, ip, r7
 493 007e 0260     		str	r2, [r0, #0]
 494              	.LVL20:
 495              	.L5:
 496              	.LBE70:
 497              		.loc 1 185 0
 498 0080 4908     		lsrs	r1, r1, #1
 499              	.LVL21:
 500 0082 19D0     		beq	.L4
 501              		.loc 1 187 0
 502 0084 7600     		lsls	r6, r6, #1
 503              	.LVL22:
 504              		.loc 1 188 0
 505 0086 AD00     		lsls	r5, r5, #2
 506              	.LVL23:
 507              		.loc 1 189 0
ARM GAS  C:\Users\DNIEL~1\AppData\Local\Temp\cc6IvFbi.s 			page 10


 508 0088 A400     		lsls	r4, r4, #2
 509              	.LVL24:
 510              		.loc 1 190 0
 511 008a BF00     		lsls	r7, r7, #2
 512              	.LVL25:
 513              		.loc 1 191 0
 514 008c 0133     		adds	r3, r3, #1
 515              	.LVL26:
 516              	.L9:
 517              	.LBB71:
 518              		.loc 1 171 0
 519 008e 03F0070C 		and	ip, r3, #7
 520              	.LBE71:
 521              		.loc 1 168 0
 522 0092 11F0010F 		tst	r1, #1
 523              	.LBB72:
 524              		.loc 1 171 0
 525 0096 4FEA8C0C 		lsl	ip, ip, #2
 526              	.LBE72:
 527              		.loc 1 168 0
 528 009a F1D0     		beq	.L5
 529              	.LBB73:
 530              		.loc 1 173 0
 531 009c 072B     		cmp	r3, #7
 532              		.loc 1 171 0
 533 009e 0AFA0CF2 		lsl	r2, sl, ip
 534              	.LVL27:
 535              		.loc 1 172 0
 536 00a2 09FA0CFC 		lsl	ip, r9, ip
 537              	.LVL28:
 538              		.loc 1 173 0
 539 00a6 BDD9     		bls	.L11
 540              		.loc 1 176 0
 541 00a8 D0F82480 		ldr	r8, [r0, #36]
 542 00ac 28EA0C0C 		bic	ip, r8, ip
 543              	.LVL29:
 544 00b0 4CEA0202 		orr	r2, ip, r2
 545              	.LVL30:
 546 00b4 4262     		str	r2, [r0, #36]
 547 00b6 BCE7     		b	.L7
 548              	.L4:
 549              	.LBE73:
 550              		.loc 1 193 0
 551 00b8 BDE8F00F 		pop	{r4, r5, r6, r7, r8, r9, sl, fp}
 552 00bc 7047     		bx	lr
 553              		.cfi_endproc
 554              	.LFE120:
 555              		.size	_pal_lld_setgroupmode, .-_pal_lld_setgroupmode
 556 00be 00BF     		.text
 557              	.Letext0:
 558              		.section	.debug_loc,"",%progbits
 559              	.Ldebug_loc0:
 560              	.LLST0:
 561 0000 00000000 		.4byte	.LFB119
 562 0004 06000000 		.4byte	.LCFI0
 563 0008 0200     		.2byte	0x2
 564 000a 7D       		.byte	0x7d
ARM GAS  C:\Users\DNIEL~1\AppData\Local\Temp\cc6IvFbi.s 			page 11


 565 000b 00       		.sleb128 0
 566 000c 06000000 		.4byte	.LCFI0
 567 0010 E4010000 		.4byte	.LFE119
 568 0014 0200     		.2byte	0x2
 569 0016 7D       		.byte	0x7d
 570 0017 18       		.sleb128 24
 571 0018 00000000 		.4byte	0x0
 572 001c 00000000 		.4byte	0x0
 573              	.LLST1:
 574 0020 00000000 		.4byte	.LFB120
 575 0024 04000000 		.4byte	.LCFI1
 576 0028 0200     		.2byte	0x2
 577 002a 7D       		.byte	0x7d
 578 002b 00       		.sleb128 0
 579 002c 04000000 		.4byte	.LCFI1
 580 0030 BE000000 		.4byte	.LFE120
 581 0034 0200     		.2byte	0x2
 582 0036 7D       		.byte	0x7d
 583 0037 20       		.sleb128 32
 584 0038 00000000 		.4byte	0x0
 585 003c 00000000 		.4byte	0x0
 586              	.LLST2:
 587 0040 00000000 		.4byte	.LVL10
 588 0044 80000000 		.4byte	.LVL20
 589 0048 0100     		.2byte	0x1
 590 004a 51       		.byte	0x51
 591 004b 80000000 		.4byte	.LVL20
 592 004f 82000000 		.4byte	.LVL21
 593 0053 0500     		.2byte	0x5
 594 0055 71       		.byte	0x71
 595 0056 00       		.sleb128 0
 596 0057 31       		.byte	0x31
 597 0058 25       		.byte	0x25
 598 0059 9F       		.byte	0x9f
 599 005a 82000000 		.4byte	.LVL21
 600 005e BE000000 		.4byte	.LFE120
 601 0062 0100     		.2byte	0x1
 602 0064 51       		.byte	0x51
 603 0065 00000000 		.4byte	0x0
 604 0069 00000000 		.4byte	0x0
 605              	.LLST3:
 606 006d 00000000 		.4byte	.LVL10
 607 0071 24000000 		.4byte	.LVL16
 608 0075 0100     		.2byte	0x1
 609 0077 52       		.byte	0x52
 610 0078 00000000 		.4byte	0x0
 611 007c 00000000 		.4byte	0x0
 612              	.LLST4:
 613 0080 0A000000 		.4byte	.LVL11
 614 0084 8C000000 		.4byte	.LVL25
 615 0088 0100     		.2byte	0x1
 616 008a 57       		.byte	0x57
 617 008b 8C000000 		.4byte	.LVL25
 618 008f BE000000 		.4byte	.LFE120
 619 0093 0100     		.2byte	0x1
 620 0095 57       		.byte	0x57
 621 0096 00000000 		.4byte	0x0
ARM GAS  C:\Users\DNIEL~1\AppData\Local\Temp\cc6IvFbi.s 			page 12


 622 009a 00000000 		.4byte	0x0
 623              	.LLST5:
 624 009e 0E000000 		.4byte	.LVL12
 625 00a2 86000000 		.4byte	.LVL22
 626 00a6 0100     		.2byte	0x1
 627 00a8 56       		.byte	0x56
 628 00a9 86000000 		.4byte	.LVL22
 629 00ad BE000000 		.4byte	.LFE120
 630 00b1 0100     		.2byte	0x1
 631 00b3 56       		.byte	0x56
 632 00b4 00000000 		.4byte	0x0
 633 00b8 00000000 		.4byte	0x0
 634              	.LLST6:
 635 00bc 12000000 		.4byte	.LVL13
 636 00c0 88000000 		.4byte	.LVL23
 637 00c4 0100     		.2byte	0x1
 638 00c6 55       		.byte	0x55
 639 00c7 88000000 		.4byte	.LVL23
 640 00cb BE000000 		.4byte	.LFE120
 641 00cf 0100     		.2byte	0x1
 642 00d1 55       		.byte	0x55
 643 00d2 00000000 		.4byte	0x0
 644 00d6 00000000 		.4byte	0x0
 645              	.LLST7:
 646 00da 16000000 		.4byte	.LVL14
 647 00de 8A000000 		.4byte	.LVL24
 648 00e2 0100     		.2byte	0x1
 649 00e4 54       		.byte	0x54
 650 00e5 8A000000 		.4byte	.LVL24
 651 00e9 BE000000 		.4byte	.LFE120
 652 00ed 0100     		.2byte	0x1
 653 00ef 54       		.byte	0x54
 654 00f0 00000000 		.4byte	0x0
 655 00f4 00000000 		.4byte	0x0
 656              	.LLST8:
 657 00f8 1A000000 		.4byte	.LVL15
 658 00fc 24000000 		.4byte	.LVL16
 659 0100 0200     		.2byte	0x2
 660 0102 30       		.byte	0x30
 661 0103 9F       		.byte	0x9f
 662 0104 24000000 		.4byte	.LVL16
 663 0108 8E000000 		.4byte	.LVL26
 664 010c 0100     		.2byte	0x1
 665 010e 53       		.byte	0x53
 666 010f 8E000000 		.4byte	.LVL26
 667 0113 BE000000 		.4byte	.LFE120
 668 0117 0100     		.2byte	0x1
 669 0119 53       		.byte	0x53
 670 011a 00000000 		.4byte	0x0
 671 011e 00000000 		.4byte	0x0
 672              	.LLST9:
 673 0122 24000000 		.4byte	.LVL16
 674 0126 30000000 		.4byte	.LVL17
 675 012a 0100     		.2byte	0x1
 676 012c 52       		.byte	0x52
 677 012d A2000000 		.4byte	.LVL27
 678 0131 B4000000 		.4byte	.LVL30
ARM GAS  C:\Users\DNIEL~1\AppData\Local\Temp\cc6IvFbi.s 			page 13


 679 0135 0100     		.2byte	0x1
 680 0137 52       		.byte	0x52
 681 0138 00000000 		.4byte	0x0
 682 013c 00000000 		.4byte	0x0
 683              	.LLST10:
 684 0140 32000000 		.4byte	.LVL18
 685 0144 80000000 		.4byte	.LVL20
 686 0148 0500     		.2byte	0x5
 687 014a 31       		.byte	0x31
 688 014b 73       		.byte	0x73
 689 014c 00       		.sleb128 0
 690 014d 24       		.byte	0x24
 691 014e 9F       		.byte	0x9f
 692 014f 00000000 		.4byte	0x0
 693 0153 00000000 		.4byte	0x0
 694              	.LLST11:
 695 0157 52000000 		.4byte	.LVL19
 696 015b 80000000 		.4byte	.LVL20
 697 015f 0700     		.2byte	0x7
 698 0161 33       		.byte	0x33
 699 0162 73       		.byte	0x73
 700 0163 00       		.sleb128 0
 701 0164 31       		.byte	0x31
 702 0165 24       		.byte	0x24
 703 0166 24       		.byte	0x24
 704 0167 9F       		.byte	0x9f
 705 0168 00000000 		.4byte	0x0
 706 016c 00000000 		.4byte	0x0
 707              	.LLST12:
 708 0170 24000000 		.4byte	.LVL16
 709 0174 32000000 		.4byte	.LVL18
 710 0178 0100     		.2byte	0x1
 711 017a 5C       		.byte	0x5c
 712 017b A6000000 		.4byte	.LVL28
 713 017f B0000000 		.4byte	.LVL29
 714 0183 0100     		.2byte	0x1
 715 0185 5C       		.byte	0x5c
 716 0186 00000000 		.4byte	0x0
 717 018a 00000000 		.4byte	0x0
 718              		.file 2 "c:\\program files (x86)\\codesourcery\\sourcery g++ lite\\bin\\../lib/gcc/arm-none-eabi/4
 719              		.file 3 "../../../ChibiOS/os/hal/platforms/STM32F4xx/stm32f4xx.h"
 720              		.file 4 "../../../ChibiOS/os/hal/platforms/STM32/GPIOv2/pal_lld.h"
 721              		.file 5 "../../../ChibiOS/os/ports/common/ARMCMx/CMSIS/include/core_cm4.h"
 722              		.section	.debug_info
 723 0000 4E070000 		.4byte	0x74e
 724 0004 0200     		.2byte	0x2
 725 0006 00000000 		.4byte	.Ldebug_abbrev0
 726 000a 04       		.byte	0x4
 727 000b 01       		.uleb128 0x1
 728 000c BE020000 		.4byte	.LASF81
 729 0010 01       		.byte	0x1
 730 0011 09030000 		.4byte	.LASF82
 731 0015 51010000 		.4byte	.LASF83
 732 0019 00000000 		.4byte	0x0
 733 001d 00000000 		.4byte	0x0
 734 0021 38010000 		.4byte	.Ldebug_ranges0+0x138
 735 0025 00000000 		.4byte	.Ldebug_line0
ARM GAS  C:\Users\DNIEL~1\AppData\Local\Temp\cc6IvFbi.s 			page 14


 736 0029 02       		.uleb128 0x2
 737 002a 04       		.byte	0x4
 738 002b 05       		.byte	0x5
 739 002c 696E7400 		.ascii	"int\000"
 740 0030 03       		.uleb128 0x3
 741 0031 04       		.byte	0x4
 742 0032 07       		.byte	0x7
 743 0033 58030000 		.4byte	.LASF0
 744 0037 03       		.uleb128 0x3
 745 0038 01       		.byte	0x1
 746 0039 06       		.byte	0x6
 747 003a B9010000 		.4byte	.LASF1
 748 003e 03       		.uleb128 0x3
 749 003f 01       		.byte	0x1
 750 0040 08       		.byte	0x8
 751 0041 A3010000 		.4byte	.LASF2
 752 0045 03       		.uleb128 0x3
 753 0046 02       		.byte	0x2
 754 0047 05       		.byte	0x5
 755 0048 60000000 		.4byte	.LASF3
 756 004c 04       		.uleb128 0x4
 757 004d F5010000 		.4byte	.LASF5
 758 0051 02       		.byte	0x2
 759 0052 36       		.byte	0x36
 760 0053 57000000 		.4byte	0x57
 761 0057 03       		.uleb128 0x3
 762 0058 02       		.byte	0x2
 763 0059 07       		.byte	0x7
 764 005a 22020000 		.4byte	.LASF4
 765 005e 04       		.uleb128 0x4
 766 005f 44020000 		.4byte	.LASF6
 767 0063 02       		.byte	0x2
 768 0064 4F       		.byte	0x4f
 769 0065 69000000 		.4byte	0x69
 770 0069 03       		.uleb128 0x3
 771 006a 04       		.byte	0x4
 772 006b 05       		.byte	0x5
 773 006c 07010000 		.4byte	.LASF7
 774 0070 04       		.uleb128 0x4
 775 0071 DC010000 		.4byte	.LASF8
 776 0075 02       		.byte	0x2
 777 0076 50       		.byte	0x50
 778 0077 7B000000 		.4byte	0x7b
 779 007b 03       		.uleb128 0x3
 780 007c 04       		.byte	0x4
 781 007d 07       		.byte	0x7
 782 007e FE010000 		.4byte	.LASF9
 783 0082 03       		.uleb128 0x3
 784 0083 08       		.byte	0x8
 785 0084 05       		.byte	0x5
 786 0085 EB000000 		.4byte	.LASF10
 787 0089 03       		.uleb128 0x3
 788 008a 08       		.byte	0x8
 789 008b 07       		.byte	0x7
 790 008c C5010000 		.4byte	.LASF11
 791 0090 05       		.uleb128 0x5
 792 0091 70000000 		.4byte	0x70
ARM GAS  C:\Users\DNIEL~1\AppData\Local\Temp\cc6IvFbi.s 			page 15


 793 0095 03       		.uleb128 0x3
 794 0096 01       		.byte	0x1
 795 0097 08       		.byte	0x8
 796 0098 3F020000 		.4byte	.LASF12
 797 009c 06       		.uleb128 0x6
 798 009d 70000000 		.4byte	0x70
 799 00a1 AC000000 		.4byte	0xac
 800 00a5 07       		.uleb128 0x7
 801 00a6 30000000 		.4byte	0x30
 802 00aa 01       		.byte	0x1
 803 00ab 00       		.byte	0x0
 804 00ac 05       		.uleb128 0x5
 805 00ad 5E000000 		.4byte	0x5e
 806 00b1 08       		.uleb128 0x8
 807 00b2 88       		.byte	0x88
 808 00b3 03       		.byte	0x3
 809 00b4 DB02     		.2byte	0x2db
 810 00b6 7E020000 		.4byte	0x27e
 811 00ba 09       		.uleb128 0x9
 812 00bb 435200   		.ascii	"CR\000"
 813 00be 03       		.byte	0x3
 814 00bf DD02     		.2byte	0x2dd
 815 00c1 90000000 		.4byte	0x90
 816 00c5 02       		.byte	0x2
 817 00c6 23       		.byte	0x23
 818 00c7 00       		.uleb128 0x0
 819 00c8 0A       		.uleb128 0xa
 820 00c9 15020000 		.4byte	.LASF13
 821 00cd 03       		.byte	0x3
 822 00ce DE02     		.2byte	0x2de
 823 00d0 90000000 		.4byte	0x90
 824 00d4 02       		.byte	0x2
 825 00d5 23       		.byte	0x23
 826 00d6 04       		.uleb128 0x4
 827 00d7 0A       		.uleb128 0xa
 828 00d8 65030000 		.4byte	.LASF14
 829 00dc 03       		.byte	0x3
 830 00dd DF02     		.2byte	0x2df
 831 00df 90000000 		.4byte	0x90
 832 00e3 02       		.byte	0x2
 833 00e4 23       		.byte	0x23
 834 00e5 08       		.uleb128 0x8
 835 00e6 09       		.uleb128 0x9
 836 00e7 43495200 		.ascii	"CIR\000"
 837 00eb 03       		.byte	0x3
 838 00ec E002     		.2byte	0x2e0
 839 00ee 90000000 		.4byte	0x90
 840 00f2 02       		.byte	0x2
 841 00f3 23       		.byte	0x23
 842 00f4 0C       		.uleb128 0xc
 843 00f5 0A       		.uleb128 0xa
 844 00f6 E5020000 		.4byte	.LASF15
 845 00fa 03       		.byte	0x3
 846 00fb E102     		.2byte	0x2e1
 847 00fd 90000000 		.4byte	0x90
 848 0101 02       		.byte	0x2
 849 0102 23       		.byte	0x23
ARM GAS  C:\Users\DNIEL~1\AppData\Local\Temp\cc6IvFbi.s 			page 16


 850 0103 10       		.uleb128 0x10
 851 0104 0A       		.uleb128 0xa
 852 0105 EC010000 		.4byte	.LASF16
 853 0109 03       		.byte	0x3
 854 010a E202     		.2byte	0x2e2
 855 010c 90000000 		.4byte	0x90
 856 0110 02       		.byte	0x2
 857 0111 23       		.byte	0x23
 858 0112 14       		.uleb128 0x14
 859 0113 0A       		.uleb128 0xa
 860 0114 FB020000 		.4byte	.LASF17
 861 0118 03       		.byte	0x3
 862 0119 E302     		.2byte	0x2e3
 863 011b 90000000 		.4byte	0x90
 864 011f 02       		.byte	0x2
 865 0120 23       		.byte	0x23
 866 0121 18       		.uleb128 0x18
 867 0122 0A       		.uleb128 0xa
 868 0123 71020000 		.4byte	.LASF18
 869 0127 03       		.byte	0x3
 870 0128 E402     		.2byte	0x2e4
 871 012a 70000000 		.4byte	0x70
 872 012e 02       		.byte	0x2
 873 012f 23       		.byte	0x23
 874 0130 1C       		.uleb128 0x1c
 875 0131 0A       		.uleb128 0xa
 876 0132 27000000 		.4byte	.LASF19
 877 0136 03       		.byte	0x3
 878 0137 E502     		.2byte	0x2e5
 879 0139 90000000 		.4byte	0x90
 880 013d 02       		.byte	0x2
 881 013e 23       		.byte	0x23
 882 013f 20       		.uleb128 0x20
 883 0140 0A       		.uleb128 0xa
 884 0141 29010000 		.4byte	.LASF20
 885 0145 03       		.byte	0x3
 886 0146 E602     		.2byte	0x2e6
 887 0148 90000000 		.4byte	0x90
 888 014c 02       		.byte	0x2
 889 014d 23       		.byte	0x23
 890 014e 24       		.uleb128 0x24
 891 014f 0A       		.uleb128 0xa
 892 0150 7B020000 		.4byte	.LASF21
 893 0154 03       		.byte	0x3
 894 0155 E702     		.2byte	0x2e7
 895 0157 9C000000 		.4byte	0x9c
 896 015b 02       		.byte	0x2
 897 015c 23       		.byte	0x23
 898 015d 28       		.uleb128 0x28
 899 015e 0A       		.uleb128 0xa
 900 015f 90000000 		.4byte	.LASF22
 901 0163 03       		.byte	0x3
 902 0164 E802     		.2byte	0x2e8
 903 0166 90000000 		.4byte	0x90
 904 016a 02       		.byte	0x2
 905 016b 23       		.byte	0x23
 906 016c 30       		.uleb128 0x30
ARM GAS  C:\Users\DNIEL~1\AppData\Local\Temp\cc6IvFbi.s 			page 17


 907 016d 0A       		.uleb128 0xa
 908 016e 30000000 		.4byte	.LASF23
 909 0172 03       		.byte	0x3
 910 0173 E902     		.2byte	0x2e9
 911 0175 90000000 		.4byte	0x90
 912 0179 02       		.byte	0x2
 913 017a 23       		.byte	0x23
 914 017b 34       		.uleb128 0x34
 915 017c 0A       		.uleb128 0xa
 916 017d DB000000 		.4byte	.LASF24
 917 0181 03       		.byte	0x3
 918 0182 EA02     		.2byte	0x2ea
 919 0184 90000000 		.4byte	0x90
 920 0188 02       		.byte	0x2
 921 0189 23       		.byte	0x23
 922 018a 38       		.uleb128 0x38
 923 018b 0A       		.uleb128 0xa
 924 018c 85020000 		.4byte	.LASF25
 925 0190 03       		.byte	0x3
 926 0191 EB02     		.2byte	0x2eb
 927 0193 70000000 		.4byte	0x70
 928 0197 02       		.byte	0x2
 929 0198 23       		.byte	0x23
 930 0199 3C       		.uleb128 0x3c
 931 019a 0A       		.uleb128 0xa
 932 019b BF000000 		.4byte	.LASF26
 933 019f 03       		.byte	0x3
 934 01a0 EC02     		.2byte	0x2ec
 935 01a2 90000000 		.4byte	0x90
 936 01a6 02       		.byte	0x2
 937 01a7 23       		.byte	0x23
 938 01a8 40       		.uleb128 0x40
 939 01a9 0A       		.uleb128 0xa
 940 01aa B1010000 		.4byte	.LASF27
 941 01ae 03       		.byte	0x3
 942 01af ED02     		.2byte	0x2ed
 943 01b1 90000000 		.4byte	0x90
 944 01b5 02       		.byte	0x2
 945 01b6 23       		.byte	0x23
 946 01b7 44       		.uleb128 0x44
 947 01b8 0A       		.uleb128 0xa
 948 01b9 8F020000 		.4byte	.LASF28
 949 01bd 03       		.byte	0x3
 950 01be EE02     		.2byte	0x2ee
 951 01c0 9C000000 		.4byte	0x9c
 952 01c4 02       		.byte	0x2
 953 01c5 23       		.byte	0x23
 954 01c6 48       		.uleb128 0x48
 955 01c7 0A       		.uleb128 0xa
 956 01c8 00000000 		.4byte	.LASF29
 957 01cc 03       		.byte	0x3
 958 01cd EF02     		.2byte	0x2ef
 959 01cf 90000000 		.4byte	0x90
 960 01d3 02       		.byte	0x2
 961 01d4 23       		.byte	0x23
 962 01d5 50       		.uleb128 0x50
 963 01d6 0A       		.uleb128 0xa
ARM GAS  C:\Users\DNIEL~1\AppData\Local\Temp\cc6IvFbi.s 			page 18


 964 01d7 5B020000 		.4byte	.LASF30
 965 01db 03       		.byte	0x3
 966 01dc F002     		.2byte	0x2f0
 967 01de 90000000 		.4byte	0x90
 968 01e2 02       		.byte	0x2
 969 01e3 23       		.byte	0x23
 970 01e4 54       		.uleb128 0x54
 971 01e5 0A       		.uleb128 0xa
 972 01e6 A5000000 		.4byte	.LASF31
 973 01ea 03       		.byte	0x3
 974 01eb F102     		.2byte	0x2f1
 975 01ed 90000000 		.4byte	0x90
 976 01f1 02       		.byte	0x2
 977 01f2 23       		.byte	0x23
 978 01f3 58       		.uleb128 0x58
 979 01f4 0A       		.uleb128 0xa
 980 01f5 99020000 		.4byte	.LASF32
 981 01f9 03       		.byte	0x3
 982 01fa F202     		.2byte	0x2f2
 983 01fc 70000000 		.4byte	0x70
 984 0200 02       		.byte	0x2
 985 0201 23       		.byte	0x23
 986 0202 5C       		.uleb128 0x5c
 987 0203 0A       		.uleb128 0xa
 988 0204 35020000 		.4byte	.LASF33
 989 0208 03       		.byte	0x3
 990 0209 F302     		.2byte	0x2f3
 991 020b 90000000 		.4byte	0x90
 992 020f 02       		.byte	0x2
 993 0210 23       		.byte	0x23
 994 0211 60       		.uleb128 0x60
 995 0212 0A       		.uleb128 0xa
 996 0213 6F030000 		.4byte	.LASF34
 997 0217 03       		.byte	0x3
 998 0218 F402     		.2byte	0x2f4
 999 021a 90000000 		.4byte	0x90
 1000 021e 02       		.byte	0x2
 1001 021f 23       		.byte	0x23
 1002 0220 64       		.uleb128 0x64
 1003 0221 0A       		.uleb128 0xa
 1004 0222 A3020000 		.4byte	.LASF35
 1005 0226 03       		.byte	0x3
 1006 0227 F502     		.2byte	0x2f5
 1007 0229 9C000000 		.4byte	0x9c
 1008 022d 02       		.byte	0x2
 1009 022e 23       		.byte	0x23
 1010 022f 68       		.uleb128 0x68
 1011 0230 0A       		.uleb128 0xa
 1012 0231 79000000 		.4byte	.LASF36
 1013 0235 03       		.byte	0x3
 1014 0236 F602     		.2byte	0x2f6
 1015 0238 90000000 		.4byte	0x90
 1016 023c 02       		.byte	0x2
 1017 023d 23       		.byte	0x23
 1018 023e 70       		.uleb128 0x70
 1019 023f 09       		.uleb128 0x9
 1020 0240 43535200 		.ascii	"CSR\000"
ARM GAS  C:\Users\DNIEL~1\AppData\Local\Temp\cc6IvFbi.s 			page 19


 1021 0244 03       		.byte	0x3
 1022 0245 F702     		.2byte	0x2f7
 1023 0247 90000000 		.4byte	0x90
 1024 024b 02       		.byte	0x2
 1025 024c 23       		.byte	0x23
 1026 024d 74       		.uleb128 0x74
 1027 024e 0A       		.uleb128 0xa
 1028 024f AD020000 		.4byte	.LASF37
 1029 0253 03       		.byte	0x3
 1030 0254 F802     		.2byte	0x2f8
 1031 0256 9C000000 		.4byte	0x9c
 1032 025a 02       		.byte	0x2
 1033 025b 23       		.byte	0x23
 1034 025c 78       		.uleb128 0x78
 1035 025d 0A       		.uleb128 0xa
 1036 025e 98000000 		.4byte	.LASF38
 1037 0262 03       		.byte	0x3
 1038 0263 F902     		.2byte	0x2f9
 1039 0265 90000000 		.4byte	0x90
 1040 0269 03       		.byte	0x3
 1041 026a 23       		.byte	0x23
 1042 026b 8001     		.uleb128 0x80
 1043 026d 0A       		.uleb128 0xa
 1044 026e 85000000 		.4byte	.LASF39
 1045 0272 03       		.byte	0x3
 1046 0273 FA02     		.2byte	0x2fa
 1047 0275 90000000 		.4byte	0x90
 1048 0279 03       		.byte	0x3
 1049 027a 23       		.byte	0x23
 1050 027b 8401     		.uleb128 0x84
 1051 027d 00       		.byte	0x0
 1052 027e 0B       		.uleb128 0xb
 1053 027f 17010000 		.4byte	.LASF40
 1054 0283 03       		.byte	0x3
 1055 0284 FB02     		.2byte	0x2fb
 1056 0286 B1000000 		.4byte	0xb1
 1057 028a 0C       		.uleb128 0xc
 1058 028b 04       		.byte	0x4
 1059 028c 04       		.byte	0x4
 1060 028d 97       		.byte	0x97
 1061 028e AF020000 		.4byte	0x2af
 1062 0292 0D       		.uleb128 0xd
 1063 0293 73657400 		.ascii	"set\000"
 1064 0297 04       		.byte	0x4
 1065 0298 98       		.byte	0x98
 1066 0299 4C000000 		.4byte	0x4c
 1067 029d 02       		.byte	0x2
 1068 029e 23       		.byte	0x23
 1069 029f 00       		.uleb128 0x0
 1070 02a0 0E       		.uleb128 0xe
 1071 02a1 32010000 		.4byte	.LASF41
 1072 02a5 04       		.byte	0x4
 1073 02a6 99       		.byte	0x99
 1074 02a7 4C000000 		.4byte	0x4c
 1075 02ab 02       		.byte	0x2
 1076 02ac 23       		.byte	0x23
 1077 02ad 02       		.uleb128 0x2
ARM GAS  C:\Users\DNIEL~1\AppData\Local\Temp\cc6IvFbi.s 			page 20


 1078 02ae 00       		.byte	0x0
 1079 02af 0F       		.uleb128 0xf
 1080 02b0 04       		.byte	0x4
 1081 02b1 04       		.byte	0x4
 1082 02b2 95       		.byte	0x95
 1083 02b3 CA020000 		.4byte	0x2ca
 1084 02b7 10       		.uleb128 0x10
 1085 02b8 5700     		.ascii	"W\000"
 1086 02ba 04       		.byte	0x4
 1087 02bb 96       		.byte	0x96
 1088 02bc 70000000 		.4byte	0x70
 1089 02c0 10       		.uleb128 0x10
 1090 02c1 4800     		.ascii	"H\000"
 1091 02c3 04       		.byte	0x4
 1092 02c4 9A       		.byte	0x9a
 1093 02c5 8A020000 		.4byte	0x28a
 1094 02c9 00       		.byte	0x0
 1095 02ca 0C       		.uleb128 0xc
 1096 02cb 28       		.byte	0x28
 1097 02cc 04       		.byte	0x4
 1098 02cd 8D       		.byte	0x8d
 1099 02ce 5F030000 		.4byte	0x35f
 1100 02d2 0E       		.uleb128 0xe
 1101 02d3 23010000 		.4byte	.LASF42
 1102 02d7 04       		.byte	0x4
 1103 02d8 8F       		.byte	0x8f
 1104 02d9 90000000 		.4byte	0x90
 1105 02dd 02       		.byte	0x2
 1106 02de 23       		.byte	0x23
 1107 02df 00       		.uleb128 0x0
 1108 02e0 0E       		.uleb128 0xe
 1109 02e1 D4000000 		.4byte	.LASF43
 1110 02e5 04       		.byte	0x4
 1111 02e6 90       		.byte	0x90
 1112 02e7 90000000 		.4byte	0x90
 1113 02eb 02       		.byte	0x2
 1114 02ec 23       		.byte	0x23
 1115 02ed 04       		.uleb128 0x4
 1116 02ee 0E       		.uleb128 0xe
 1117 02ef E3000000 		.4byte	.LASF44
 1118 02f3 04       		.byte	0x4
 1119 02f4 91       		.byte	0x91
 1120 02f5 90000000 		.4byte	0x90
 1121 02f9 02       		.byte	0x2
 1122 02fa 23       		.byte	0x23
 1123 02fb 08       		.uleb128 0x8
 1124 02fc 0E       		.uleb128 0xe
 1125 02fd F9000000 		.4byte	.LASF45
 1126 0301 04       		.byte	0x4
 1127 0302 92       		.byte	0x92
 1128 0303 90000000 		.4byte	0x90
 1129 0307 02       		.byte	0x2
 1130 0308 23       		.byte	0x23
 1131 0309 0C       		.uleb128 0xc
 1132 030a 0D       		.uleb128 0xd
 1133 030b 49445200 		.ascii	"IDR\000"
 1134 030f 04       		.byte	0x4
ARM GAS  C:\Users\DNIEL~1\AppData\Local\Temp\cc6IvFbi.s 			page 21


 1135 0310 93       		.byte	0x93
 1136 0311 90000000 		.4byte	0x90
 1137 0315 02       		.byte	0x2
 1138 0316 23       		.byte	0x23
 1139 0317 10       		.uleb128 0x10
 1140 0318 0D       		.uleb128 0xd
 1141 0319 4F445200 		.ascii	"ODR\000"
 1142 031d 04       		.byte	0x4
 1143 031e 94       		.byte	0x94
 1144 031f 90000000 		.4byte	0x90
 1145 0323 02       		.byte	0x2
 1146 0324 23       		.byte	0x23
 1147 0325 14       		.uleb128 0x14
 1148 0326 0E       		.uleb128 0xe
 1149 0327 79030000 		.4byte	.LASF46
 1150 032b 04       		.byte	0x4
 1151 032c 9B       		.byte	0x9b
 1152 032d 5F030000 		.4byte	0x35f
 1153 0331 02       		.byte	0x2
 1154 0332 23       		.byte	0x23
 1155 0333 18       		.uleb128 0x18
 1156 0334 0E       		.uleb128 0xe
 1157 0335 6A030000 		.4byte	.LASF47
 1158 0339 04       		.byte	0x4
 1159 033a 9C       		.byte	0x9c
 1160 033b 90000000 		.4byte	0x90
 1161 033f 02       		.byte	0x2
 1162 0340 23       		.byte	0x23
 1163 0341 1C       		.uleb128 0x1c
 1164 0342 0E       		.uleb128 0xe
 1165 0343 1D020000 		.4byte	.LASF48
 1166 0347 04       		.byte	0x4
 1167 0348 9D       		.byte	0x9d
 1168 0349 90000000 		.4byte	0x90
 1169 034d 02       		.byte	0x2
 1170 034e 23       		.byte	0x23
 1171 034f 20       		.uleb128 0x20
 1172 0350 0E       		.uleb128 0xe
 1173 0351 10020000 		.4byte	.LASF49
 1174 0355 04       		.byte	0x4
 1175 0356 9E       		.byte	0x9e
 1176 0357 90000000 		.4byte	0x90
 1177 035b 02       		.byte	0x2
 1178 035c 23       		.byte	0x23
 1179 035d 24       		.uleb128 0x24
 1180 035e 00       		.byte	0x0
 1181 035f 05       		.uleb128 0x5
 1182 0360 AF020000 		.4byte	0x2af
 1183 0364 04       		.uleb128 0x4
 1184 0365 EE020000 		.4byte	.LASF50
 1185 0369 04       		.byte	0x4
 1186 036a 9F       		.byte	0x9f
 1187 036b CA020000 		.4byte	0x2ca
 1188 036f 0C       		.uleb128 0xc
 1189 0370 1C       		.byte	0x1c
 1190 0371 04       		.byte	0x4
 1191 0372 A4       		.byte	0xa4
ARM GAS  C:\Users\DNIEL~1\AppData\Local\Temp\cc6IvFbi.s 			page 22


 1192 0373 DA030000 		.4byte	0x3da
 1193 0377 0E       		.uleb128 0xe
 1194 0378 DF020000 		.4byte	.LASF51
 1195 037c 04       		.byte	0x4
 1196 037d A6       		.byte	0xa6
 1197 037e 70000000 		.4byte	0x70
 1198 0382 02       		.byte	0x2
 1199 0383 23       		.byte	0x23
 1200 0384 00       		.uleb128 0x0
 1201 0385 0E       		.uleb128 0xe
 1202 0386 E5010000 		.4byte	.LASF52
 1203 038a 04       		.byte	0x4
 1204 038b A8       		.byte	0xa8
 1205 038c 70000000 		.4byte	0x70
 1206 0390 02       		.byte	0x2
 1207 0391 23       		.byte	0x23
 1208 0392 04       		.uleb128 0x4
 1209 0393 0E       		.uleb128 0xe
 1210 0394 FF000000 		.4byte	.LASF53
 1211 0398 04       		.byte	0x4
 1212 0399 AA       		.byte	0xaa
 1213 039a 70000000 		.4byte	0x70
 1214 039e 02       		.byte	0x2
 1215 039f 23       		.byte	0x23
 1216 03a0 08       		.uleb128 0x8
 1217 03a1 0E       		.uleb128 0xe
 1218 03a2 CF020000 		.4byte	.LASF54
 1219 03a6 04       		.byte	0x4
 1220 03a7 AC       		.byte	0xac
 1221 03a8 70000000 		.4byte	0x70
 1222 03ac 02       		.byte	0x2
 1223 03ad 23       		.byte	0x23
 1224 03ae 0C       		.uleb128 0xc
 1225 03af 0D       		.uleb128 0xd
 1226 03b0 6F647200 		.ascii	"odr\000"
 1227 03b4 04       		.byte	0x4
 1228 03b5 AE       		.byte	0xae
 1229 03b6 70000000 		.4byte	0x70
 1230 03ba 02       		.byte	0x2
 1231 03bb 23       		.byte	0x23
 1232 03bc 10       		.uleb128 0x10
 1233 03bd 0E       		.uleb128 0xe
 1234 03be DA020000 		.4byte	.LASF55
 1235 03c2 04       		.byte	0x4
 1236 03c3 B0       		.byte	0xb0
 1237 03c4 70000000 		.4byte	0x70
 1238 03c8 02       		.byte	0x2
 1239 03c9 23       		.byte	0x23
 1240 03ca 14       		.uleb128 0x14
 1241 03cb 0E       		.uleb128 0xe
 1242 03cc D5020000 		.4byte	.LASF56
 1243 03d0 04       		.byte	0x4
 1244 03d1 B2       		.byte	0xb2
 1245 03d2 70000000 		.4byte	0x70
 1246 03d6 02       		.byte	0x2
 1247 03d7 23       		.byte	0x23
 1248 03d8 18       		.uleb128 0x18
ARM GAS  C:\Users\DNIEL~1\AppData\Local\Temp\cc6IvFbi.s 			page 23


 1249 03d9 00       		.byte	0x0
 1250 03da 04       		.uleb128 0x4
 1251 03db 38000000 		.4byte	.LASF57
 1252 03df 04       		.byte	0x4
 1253 03e0 B3       		.byte	0xb3
 1254 03e1 6F030000 		.4byte	0x36f
 1255 03e5 0C       		.uleb128 0xc
 1256 03e6 FC       		.byte	0xfc
 1257 03e7 04       		.byte	0x4
 1258 03e8 BC       		.byte	0xbc
 1259 03e9 70040000 		.4byte	0x470
 1260 03ed 0E       		.uleb128 0xe
 1261 03ee 3F010000 		.4byte	.LASF58
 1262 03f2 04       		.byte	0x4
 1263 03f3 BE       		.byte	0xbe
 1264 03f4 DA030000 		.4byte	0x3da
 1265 03f8 02       		.byte	0x2
 1266 03f9 23       		.byte	0x23
 1267 03fa 00       		.uleb128 0x0
 1268 03fb 0E       		.uleb128 0xe
 1269 03fc 9E000000 		.4byte	.LASF59
 1270 0400 04       		.byte	0x4
 1271 0401 C0       		.byte	0xc0
 1272 0402 DA030000 		.4byte	0x3da
 1273 0406 02       		.byte	0x2
 1274 0407 23       		.byte	0x23
 1275 0408 1C       		.uleb128 0x1c
 1276 0409 0E       		.uleb128 0xe
 1277 040a 0A000000 		.4byte	.LASF60
 1278 040e 04       		.byte	0x4
 1279 040f C2       		.byte	0xc2
 1280 0410 DA030000 		.4byte	0x3da
 1281 0414 02       		.byte	0x2
 1282 0415 23       		.byte	0x23
 1283 0416 38       		.uleb128 0x38
 1284 0417 0E       		.uleb128 0xe
 1285 0418 10010000 		.4byte	.LASF61
 1286 041c 04       		.byte	0x4
 1287 041d C4       		.byte	0xc4
 1288 041e DA030000 		.4byte	0x3da
 1289 0422 02       		.byte	0x2
 1290 0423 23       		.byte	0x23
 1291 0424 54       		.uleb128 0x54
 1292 0425 0E       		.uleb128 0xe
 1293 0426 6A020000 		.4byte	.LASF62
 1294 042a 04       		.byte	0x4
 1295 042b C7       		.byte	0xc7
 1296 042c DA030000 		.4byte	0x3da
 1297 0430 02       		.byte	0x2
 1298 0431 23       		.byte	0x23
 1299 0432 70       		.uleb128 0x70
 1300 0433 0E       		.uleb128 0xe
 1301 0434 4B000000 		.4byte	.LASF63
 1302 0438 04       		.byte	0x4
 1303 0439 CB       		.byte	0xcb
 1304 043a DA030000 		.4byte	0x3da
 1305 043e 03       		.byte	0x3
ARM GAS  C:\Users\DNIEL~1\AppData\Local\Temp\cc6IvFbi.s 			page 24


 1306 043f 23       		.byte	0x23
 1307 0440 8C01     		.uleb128 0x8c
 1308 0442 0E       		.uleb128 0xe
 1309 0443 38010000 		.4byte	.LASF64
 1310 0447 04       		.byte	0x4
 1311 0448 CF       		.byte	0xcf
 1312 0449 DA030000 		.4byte	0x3da
 1313 044d 03       		.byte	0x3
 1314 044e 23       		.byte	0x23
 1315 044f A801     		.uleb128 0xa8
 1316 0451 0E       		.uleb128 0xe
 1317 0452 B7020000 		.4byte	.LASF65
 1318 0456 04       		.byte	0x4
 1319 0457 D3       		.byte	0xd3
 1320 0458 DA030000 		.4byte	0x3da
 1321 045c 03       		.byte	0x3
 1322 045d 23       		.byte	0x23
 1323 045e C401     		.uleb128 0xc4
 1324 0460 0E       		.uleb128 0xe
 1325 0461 7E000000 		.4byte	.LASF66
 1326 0465 04       		.byte	0x4
 1327 0466 D7       		.byte	0xd7
 1328 0467 DA030000 		.4byte	0x3da
 1329 046b 03       		.byte	0x3
 1330 046c 23       		.byte	0x23
 1331 046d E001     		.uleb128 0xe0
 1332 046f 00       		.byte	0x0
 1333 0470 04       		.uleb128 0x4
 1334 0471 4C020000 		.4byte	.LASF67
 1335 0475 04       		.byte	0x4
 1336 0476 D9       		.byte	0xd9
 1337 0477 E5030000 		.4byte	0x3e5
 1338 047b 04       		.uleb128 0x4
 1339 047c C7000000 		.4byte	.LASF68
 1340 0480 04       		.byte	0x4
 1341 0481 E9       		.byte	0xe9
 1342 0482 70000000 		.4byte	0x70
 1343 0486 04       		.uleb128 0x4
 1344 0487 B6000000 		.4byte	.LASF69
 1345 048b 04       		.byte	0x4
 1346 048c EE       		.byte	0xee
 1347 048d 70000000 		.4byte	0x70
 1348 0491 04       		.uleb128 0x4
 1349 0492 46010000 		.4byte	.LASF70
 1350 0496 04       		.byte	0x4
 1351 0497 F6       		.byte	0xf6
 1352 0498 9C040000 		.4byte	0x49c
 1353 049c 11       		.uleb128 0x11
 1354 049d 04       		.byte	0x4
 1355 049e 64030000 		.4byte	0x364
 1356 04a2 12       		.uleb128 0x12
 1357 04a3 6A000000 		.4byte	.LASF84
 1358 04a7 01       		.byte	0x1
 1359 04a8 4D       		.byte	0x4d
 1360 04a9 01       		.byte	0x1
 1361 04aa 01       		.byte	0x1
 1362 04ab C6040000 		.4byte	0x4c6
ARM GAS  C:\Users\DNIEL~1\AppData\Local\Temp\cc6IvFbi.s 			page 25


 1363 04af 13       		.uleb128 0x13
 1364 04b0 73000000 		.4byte	.LASF71
 1365 04b4 01       		.byte	0x1
 1366 04b5 4D       		.byte	0x4d
 1367 04b6 9C040000 		.4byte	0x49c
 1368 04ba 13       		.uleb128 0x13
 1369 04bb AF000000 		.4byte	.LASF72
 1370 04bf 01       		.byte	0x1
 1371 04c0 4D       		.byte	0x4d
 1372 04c1 C6040000 		.4byte	0x4c6
 1373 04c5 00       		.byte	0x0
 1374 04c6 11       		.uleb128 0x11
 1375 04c7 04       		.byte	0x4
 1376 04c8 CC040000 		.4byte	0x4cc
 1377 04cc 14       		.uleb128 0x14
 1378 04cd DA030000 		.4byte	0x3da
 1379 04d1 15       		.uleb128 0x15
 1380 04d2 01       		.byte	0x1
 1381 04d3 52000000 		.4byte	.LASF73
 1382 04d7 01       		.byte	0x1
 1383 04d8 68       		.byte	0x68
 1384 04d9 01       		.byte	0x1
 1385 04da 00000000 		.4byte	.LFB119
 1386 04de E4010000 		.4byte	.LFE119
 1387 04e2 00000000 		.4byte	.LLST0
 1388 04e6 4E060000 		.4byte	0x64e
 1389 04ea 16       		.uleb128 0x16
 1390 04eb AF000000 		.4byte	.LASF72
 1391 04ef 01       		.byte	0x1
 1392 04f0 68       		.byte	0x68
 1393 04f1 4E060000 		.4byte	0x64e
 1394 04f5 01       		.byte	0x1
 1395 04f6 50       		.byte	0x50
 1396 04f7 17       		.uleb128 0x17
 1397 04f8 A2040000 		.4byte	0x4a2
 1398 04fc 08000000 		.4byte	.LBB20
 1399 0500 00000000 		.4byte	.Ldebug_ranges0+0x0
 1400 0504 01       		.byte	0x1
 1401 0505 7A       		.byte	0x7a
 1402 0506 1B050000 		.4byte	0x51b
 1403 050a 18       		.uleb128 0x18
 1404 050b BA040000 		.4byte	0x4ba
 1405 050f 01       		.byte	0x1
 1406 0510 50       		.byte	0x50
 1407 0511 19       		.uleb128 0x19
 1408 0512 AF040000 		.4byte	0x4af
 1409 0516 00000240 		.4byte	0x40020000
 1410 051a 00       		.byte	0x0
 1411 051b 17       		.uleb128 0x17
 1412 051c A2040000 		.4byte	0x4a2
 1413 0520 18000000 		.4byte	.LBB30
 1414 0524 50000000 		.4byte	.Ldebug_ranges0+0x50
 1415 0528 01       		.byte	0x1
 1416 0529 7B       		.byte	0x7b
 1417 052a 41050000 		.4byte	0x541
 1418 052e 18       		.uleb128 0x18
 1419 052f BA040000 		.4byte	0x4ba
ARM GAS  C:\Users\DNIEL~1\AppData\Local\Temp\cc6IvFbi.s 			page 26


 1420 0533 03       		.byte	0x3
 1421 0534 70       		.byte	0x70
 1422 0535 1C       		.sleb128 28
 1423 0536 9F       		.byte	0x9f
 1424 0537 19       		.uleb128 0x19
 1425 0538 AF040000 		.4byte	0x4af
 1426 053c 00040240 		.4byte	0x40020400
 1427 0540 00       		.byte	0x0
 1428 0541 17       		.uleb128 0x17
 1429 0542 A2040000 		.4byte	0x4a2
 1430 0546 28000000 		.4byte	.LBB34
 1431 054a 68000000 		.4byte	.Ldebug_ranges0+0x68
 1432 054e 01       		.byte	0x1
 1433 054f 7C       		.byte	0x7c
 1434 0550 67050000 		.4byte	0x567
 1435 0554 18       		.uleb128 0x18
 1436 0555 BA040000 		.4byte	0x4ba
 1437 0559 03       		.byte	0x3
 1438 055a 70       		.byte	0x70
 1439 055b 38       		.sleb128 56
 1440 055c 9F       		.byte	0x9f
 1441 055d 19       		.uleb128 0x19
 1442 055e AF040000 		.4byte	0x4af
 1443 0562 00080240 		.4byte	0x40020800
 1444 0566 00       		.byte	0x0
 1445 0567 17       		.uleb128 0x17
 1446 0568 A2040000 		.4byte	0x4a2
 1447 056c 30000000 		.4byte	.LBB38
 1448 0570 80000000 		.4byte	.Ldebug_ranges0+0x80
 1449 0574 01       		.byte	0x1
 1450 0575 7D       		.byte	0x7d
 1451 0576 8E050000 		.4byte	0x58e
 1452 057a 18       		.uleb128 0x18
 1453 057b BA040000 		.4byte	0x4ba
 1454 057f 04       		.byte	0x4
 1455 0580 70       		.byte	0x70
 1456 0581 D400     		.sleb128 84
 1457 0583 9F       		.byte	0x9f
 1458 0584 19       		.uleb128 0x19
 1459 0585 AF040000 		.4byte	0x4af
 1460 0589 000C0240 		.4byte	0x40020c00
 1461 058d 00       		.byte	0x0
 1462 058e 17       		.uleb128 0x17
 1463 058f A2040000 		.4byte	0x4a2
 1464 0593 38000000 		.4byte	.LBB42
 1465 0597 98000000 		.4byte	.Ldebug_ranges0+0x98
 1466 059b 01       		.byte	0x1
 1467 059c 7F       		.byte	0x7f
 1468 059d B5050000 		.4byte	0x5b5
 1469 05a1 18       		.uleb128 0x18
 1470 05a2 BA040000 		.4byte	0x4ba
 1471 05a6 04       		.byte	0x4
 1472 05a7 70       		.byte	0x70
 1473 05a8 F000     		.sleb128 112
 1474 05aa 9F       		.byte	0x9f
 1475 05ab 19       		.uleb128 0x19
 1476 05ac AF040000 		.4byte	0x4af
ARM GAS  C:\Users\DNIEL~1\AppData\Local\Temp\cc6IvFbi.s 			page 27


 1477 05b0 00100240 		.4byte	0x40021000
 1478 05b4 00       		.byte	0x0
 1479 05b5 17       		.uleb128 0x17
 1480 05b6 A2040000 		.4byte	0x4a2
 1481 05ba 40000000 		.4byte	.LBB46
 1482 05be B0000000 		.4byte	.Ldebug_ranges0+0xb0
 1483 05c2 01       		.byte	0x1
 1484 05c3 82       		.byte	0x82
 1485 05c4 DC050000 		.4byte	0x5dc
 1486 05c8 18       		.uleb128 0x18
 1487 05c9 BA040000 		.4byte	0x4ba
 1488 05cd 04       		.byte	0x4
 1489 05ce 70       		.byte	0x70
 1490 05cf 8C01     		.sleb128 140
 1491 05d1 9F       		.byte	0x9f
 1492 05d2 19       		.uleb128 0x19
 1493 05d3 AF040000 		.4byte	0x4af
 1494 05d7 00140240 		.4byte	0x40021400
 1495 05db 00       		.byte	0x0
 1496 05dc 17       		.uleb128 0x17
 1497 05dd A2040000 		.4byte	0x4a2
 1498 05e1 48000000 		.4byte	.LBB50
 1499 05e5 C8000000 		.4byte	.Ldebug_ranges0+0xc8
 1500 05e9 01       		.byte	0x1
 1501 05ea 85       		.byte	0x85
 1502 05eb 03060000 		.4byte	0x603
 1503 05ef 18       		.uleb128 0x18
 1504 05f0 BA040000 		.4byte	0x4ba
 1505 05f4 04       		.byte	0x4
 1506 05f5 70       		.byte	0x70
 1507 05f6 A801     		.sleb128 168
 1508 05f8 9F       		.byte	0x9f
 1509 05f9 19       		.uleb128 0x19
 1510 05fa AF040000 		.4byte	0x4af
 1511 05fe 00180240 		.4byte	0x40021800
 1512 0602 00       		.byte	0x0
 1513 0603 17       		.uleb128 0x17
 1514 0604 A2040000 		.4byte	0x4a2
 1515 0608 50000000 		.4byte	.LBB54
 1516 060c E0000000 		.4byte	.Ldebug_ranges0+0xe0
 1517 0610 01       		.byte	0x1
 1518 0611 88       		.byte	0x88
 1519 0612 2A060000 		.4byte	0x62a
 1520 0616 18       		.uleb128 0x18
 1521 0617 BA040000 		.4byte	0x4ba
 1522 061b 04       		.byte	0x4
 1523 061c 70       		.byte	0x70
 1524 061d C401     		.sleb128 196
 1525 061f 9F       		.byte	0x9f
 1526 0620 19       		.uleb128 0x19
 1527 0621 AF040000 		.4byte	0x4af
 1528 0625 001C0240 		.4byte	0x40021c00
 1529 0629 00       		.byte	0x0
 1530 062a 1A       		.uleb128 0x1a
 1531 062b A2040000 		.4byte	0x4a2
 1532 062f 5A000000 		.4byte	.LBB58
 1533 0633 F8000000 		.4byte	.Ldebug_ranges0+0xf8
ARM GAS  C:\Users\DNIEL~1\AppData\Local\Temp\cc6IvFbi.s 			page 28


 1534 0637 01       		.byte	0x1
 1535 0638 8B       		.byte	0x8b
 1536 0639 18       		.uleb128 0x18
 1537 063a BA040000 		.4byte	0x4ba
 1538 063e 04       		.byte	0x4
 1539 063f 70       		.byte	0x70
 1540 0640 E001     		.sleb128 224
 1541 0642 9F       		.byte	0x9f
 1542 0643 19       		.uleb128 0x19
 1543 0644 AF040000 		.4byte	0x4af
 1544 0648 00200240 		.4byte	0x40022000
 1545 064c 00       		.byte	0x0
 1546 064d 00       		.byte	0x0
 1547 064e 11       		.uleb128 0x11
 1548 064f 04       		.byte	0x4
 1549 0650 54060000 		.4byte	0x654
 1550 0654 14       		.uleb128 0x14
 1551 0655 70040000 		.4byte	0x470
 1552 0659 15       		.uleb128 0x15
 1553 065a 01       		.byte	0x1
 1554 065b 11000000 		.4byte	.LASF74
 1555 065f 01       		.byte	0x1
 1556 0660 9D       		.byte	0x9d
 1557 0661 01       		.byte	0x1
 1558 0662 00000000 		.4byte	.LFB120
 1559 0666 BE000000 		.4byte	.LFE120
 1560 066a 20000000 		.4byte	.LLST1
 1561 066e 35070000 		.4byte	0x735
 1562 0672 16       		.uleb128 0x16
 1563 0673 65020000 		.4byte	.LASF75
 1564 0677 01       		.byte	0x1
 1565 0678 9D       		.byte	0x9d
 1566 0679 91040000 		.4byte	0x491
 1567 067d 01       		.byte	0x1
 1568 067e 50       		.byte	0x50
 1569 067f 1B       		.uleb128 0x1b
 1570 0680 CA020000 		.4byte	.LASF76
 1571 0684 01       		.byte	0x1
 1572 0685 9E       		.byte	0x9e
 1573 0686 7B040000 		.4byte	0x47b
 1574 068a 40000000 		.4byte	.LLST2
 1575 068e 1B       		.uleb128 0x1b
 1576 068f 56020000 		.4byte	.LASF77
 1577 0693 01       		.byte	0x1
 1578 0694 9F       		.byte	0x9f
 1579 0695 86040000 		.4byte	0x486
 1580 0699 6D000000 		.4byte	.LLST3
 1581 069d 1C       		.uleb128 0x1c
 1582 069e DF020000 		.4byte	.LASF51
 1583 06a2 01       		.byte	0x1
 1584 06a3 A1       		.byte	0xa1
 1585 06a4 70000000 		.4byte	0x70
 1586 06a8 80000000 		.4byte	.LLST4
 1587 06ac 1C       		.uleb128 0x1c
 1588 06ad E5010000 		.4byte	.LASF52
 1589 06b1 01       		.byte	0x1
 1590 06b2 A2       		.byte	0xa2
ARM GAS  C:\Users\DNIEL~1\AppData\Local\Temp\cc6IvFbi.s 			page 29


 1591 06b3 70000000 		.4byte	0x70
 1592 06b7 9E000000 		.4byte	.LLST5
 1593 06bb 1C       		.uleb128 0x1c
 1594 06bc FF000000 		.4byte	.LASF53
 1595 06c0 01       		.byte	0x1
 1596 06c1 A3       		.byte	0xa3
 1597 06c2 70000000 		.4byte	0x70
 1598 06c6 BC000000 		.4byte	.LLST6
 1599 06ca 1C       		.uleb128 0x1c
 1600 06cb CF020000 		.4byte	.LASF54
 1601 06cf 01       		.byte	0x1
 1602 06d0 A4       		.byte	0xa4
 1603 06d1 70000000 		.4byte	0x70
 1604 06d5 DA000000 		.4byte	.LLST7
 1605 06d9 1D       		.uleb128 0x1d
 1606 06da 04030000 		.4byte	.LASF78
 1607 06de 01       		.byte	0x1
 1608 06df A5       		.byte	0xa5
 1609 06e0 70000000 		.4byte	0x70
 1610 06e4 01       		.byte	0x1
 1611 06e5 5A       		.byte	0x5a
 1612 06e6 1E       		.uleb128 0x1e
 1613 06e7 62697400 		.ascii	"bit\000"
 1614 06eb 01       		.byte	0x1
 1615 06ec A6       		.byte	0xa6
 1616 06ed 70000000 		.4byte	0x70
 1617 06f1 F8000000 		.4byte	.LLST8
 1618 06f5 1F       		.uleb128 0x1f
 1619 06f6 10010000 		.4byte	.Ldebug_ranges0+0x110
 1620 06fa 1C       		.uleb128 0x1c
 1621 06fb 4F030000 		.4byte	.LASF79
 1622 06ff 01       		.byte	0x1
 1623 0700 A9       		.byte	0xa9
 1624 0701 70000000 		.4byte	0x70
 1625 0705 22010000 		.4byte	.LLST9
 1626 0709 1E       		.uleb128 0x1e
 1627 070a 6D3100   		.ascii	"m1\000"
 1628 070d 01       		.byte	0x1
 1629 070e A9       		.byte	0xa9
 1630 070f 70000000 		.4byte	0x70
 1631 0713 40010000 		.4byte	.LLST10
 1632 0717 1E       		.uleb128 0x1e
 1633 0718 6D3200   		.ascii	"m2\000"
 1634 071b 01       		.byte	0x1
 1635 071c A9       		.byte	0xa9
 1636 071d 70000000 		.4byte	0x70
 1637 0721 57010000 		.4byte	.LLST11
 1638 0725 1E       		.uleb128 0x1e
 1639 0726 6D3400   		.ascii	"m4\000"
 1640 0729 01       		.byte	0x1
 1641 072a A9       		.byte	0xa9
 1642 072b 70000000 		.4byte	0x70
 1643 072f 70010000 		.4byte	.LLST12
 1644 0733 00       		.byte	0x0
 1645 0734 00       		.byte	0x0
 1646 0735 20       		.uleb128 0x20
 1647 0736 42030000 		.4byte	.LASF80
ARM GAS  C:\Users\DNIEL~1\AppData\Local\Temp\cc6IvFbi.s 			page 30


 1648 073a 05       		.byte	0x5
 1649 073b 9806     		.2byte	0x698
 1650 073d AC000000 		.4byte	0xac
 1651 0741 01       		.byte	0x1
 1652 0742 01       		.byte	0x1
 1653 0743 20       		.uleb128 0x20
 1654 0744 42030000 		.4byte	.LASF80
 1655 0748 05       		.byte	0x5
 1656 0749 9806     		.2byte	0x698
 1657 074b AC000000 		.4byte	0xac
 1658 074f 01       		.byte	0x1
 1659 0750 01       		.byte	0x1
 1660 0751 00       		.byte	0x0
 1661              		.section	.debug_abbrev
 1662 0000 01       		.uleb128 0x1
 1663 0001 11       		.uleb128 0x11
 1664 0002 01       		.byte	0x1
 1665 0003 25       		.uleb128 0x25
 1666 0004 0E       		.uleb128 0xe
 1667 0005 13       		.uleb128 0x13
 1668 0006 0B       		.uleb128 0xb
 1669 0007 03       		.uleb128 0x3
 1670 0008 0E       		.uleb128 0xe
 1671 0009 1B       		.uleb128 0x1b
 1672 000a 0E       		.uleb128 0xe
 1673 000b 11       		.uleb128 0x11
 1674 000c 01       		.uleb128 0x1
 1675 000d 52       		.uleb128 0x52
 1676 000e 01       		.uleb128 0x1
 1677 000f 55       		.uleb128 0x55
 1678 0010 06       		.uleb128 0x6
 1679 0011 10       		.uleb128 0x10
 1680 0012 06       		.uleb128 0x6
 1681 0013 00       		.byte	0x0
 1682 0014 00       		.byte	0x0
 1683 0015 02       		.uleb128 0x2
 1684 0016 24       		.uleb128 0x24
 1685 0017 00       		.byte	0x0
 1686 0018 0B       		.uleb128 0xb
 1687 0019 0B       		.uleb128 0xb
 1688 001a 3E       		.uleb128 0x3e
 1689 001b 0B       		.uleb128 0xb
 1690 001c 03       		.uleb128 0x3
 1691 001d 08       		.uleb128 0x8
 1692 001e 00       		.byte	0x0
 1693 001f 00       		.byte	0x0
 1694 0020 03       		.uleb128 0x3
 1695 0021 24       		.uleb128 0x24
 1696 0022 00       		.byte	0x0
 1697 0023 0B       		.uleb128 0xb
 1698 0024 0B       		.uleb128 0xb
 1699 0025 3E       		.uleb128 0x3e
 1700 0026 0B       		.uleb128 0xb
 1701 0027 03       		.uleb128 0x3
 1702 0028 0E       		.uleb128 0xe
 1703 0029 00       		.byte	0x0
 1704 002a 00       		.byte	0x0
ARM GAS  C:\Users\DNIEL~1\AppData\Local\Temp\cc6IvFbi.s 			page 31


 1705 002b 04       		.uleb128 0x4
 1706 002c 16       		.uleb128 0x16
 1707 002d 00       		.byte	0x0
 1708 002e 03       		.uleb128 0x3
 1709 002f 0E       		.uleb128 0xe
 1710 0030 3A       		.uleb128 0x3a
 1711 0031 0B       		.uleb128 0xb
 1712 0032 3B       		.uleb128 0x3b
 1713 0033 0B       		.uleb128 0xb
 1714 0034 49       		.uleb128 0x49
 1715 0035 13       		.uleb128 0x13
 1716 0036 00       		.byte	0x0
 1717 0037 00       		.byte	0x0
 1718 0038 05       		.uleb128 0x5
 1719 0039 35       		.uleb128 0x35
 1720 003a 00       		.byte	0x0
 1721 003b 49       		.uleb128 0x49
 1722 003c 13       		.uleb128 0x13
 1723 003d 00       		.byte	0x0
 1724 003e 00       		.byte	0x0
 1725 003f 06       		.uleb128 0x6
 1726 0040 01       		.uleb128 0x1
 1727 0041 01       		.byte	0x1
 1728 0042 49       		.uleb128 0x49
 1729 0043 13       		.uleb128 0x13
 1730 0044 01       		.uleb128 0x1
 1731 0045 13       		.uleb128 0x13
 1732 0046 00       		.byte	0x0
 1733 0047 00       		.byte	0x0
 1734 0048 07       		.uleb128 0x7
 1735 0049 21       		.uleb128 0x21
 1736 004a 00       		.byte	0x0
 1737 004b 49       		.uleb128 0x49
 1738 004c 13       		.uleb128 0x13
 1739 004d 2F       		.uleb128 0x2f
 1740 004e 0B       		.uleb128 0xb
 1741 004f 00       		.byte	0x0
 1742 0050 00       		.byte	0x0
 1743 0051 08       		.uleb128 0x8
 1744 0052 13       		.uleb128 0x13
 1745 0053 01       		.byte	0x1
 1746 0054 0B       		.uleb128 0xb
 1747 0055 0B       		.uleb128 0xb
 1748 0056 3A       		.uleb128 0x3a
 1749 0057 0B       		.uleb128 0xb
 1750 0058 3B       		.uleb128 0x3b
 1751 0059 05       		.uleb128 0x5
 1752 005a 01       		.uleb128 0x1
 1753 005b 13       		.uleb128 0x13
 1754 005c 00       		.byte	0x0
 1755 005d 00       		.byte	0x0
 1756 005e 09       		.uleb128 0x9
 1757 005f 0D       		.uleb128 0xd
 1758 0060 00       		.byte	0x0
 1759 0061 03       		.uleb128 0x3
 1760 0062 08       		.uleb128 0x8
 1761 0063 3A       		.uleb128 0x3a
ARM GAS  C:\Users\DNIEL~1\AppData\Local\Temp\cc6IvFbi.s 			page 32


 1762 0064 0B       		.uleb128 0xb
 1763 0065 3B       		.uleb128 0x3b
 1764 0066 05       		.uleb128 0x5
 1765 0067 49       		.uleb128 0x49
 1766 0068 13       		.uleb128 0x13
 1767 0069 38       		.uleb128 0x38
 1768 006a 0A       		.uleb128 0xa
 1769 006b 00       		.byte	0x0
 1770 006c 00       		.byte	0x0
 1771 006d 0A       		.uleb128 0xa
 1772 006e 0D       		.uleb128 0xd
 1773 006f 00       		.byte	0x0
 1774 0070 03       		.uleb128 0x3
 1775 0071 0E       		.uleb128 0xe
 1776 0072 3A       		.uleb128 0x3a
 1777 0073 0B       		.uleb128 0xb
 1778 0074 3B       		.uleb128 0x3b
 1779 0075 05       		.uleb128 0x5
 1780 0076 49       		.uleb128 0x49
 1781 0077 13       		.uleb128 0x13
 1782 0078 38       		.uleb128 0x38
 1783 0079 0A       		.uleb128 0xa
 1784 007a 00       		.byte	0x0
 1785 007b 00       		.byte	0x0
 1786 007c 0B       		.uleb128 0xb
 1787 007d 16       		.uleb128 0x16
 1788 007e 00       		.byte	0x0
 1789 007f 03       		.uleb128 0x3
 1790 0080 0E       		.uleb128 0xe
 1791 0081 3A       		.uleb128 0x3a
 1792 0082 0B       		.uleb128 0xb
 1793 0083 3B       		.uleb128 0x3b
 1794 0084 05       		.uleb128 0x5
 1795 0085 49       		.uleb128 0x49
 1796 0086 13       		.uleb128 0x13
 1797 0087 00       		.byte	0x0
 1798 0088 00       		.byte	0x0
 1799 0089 0C       		.uleb128 0xc
 1800 008a 13       		.uleb128 0x13
 1801 008b 01       		.byte	0x1
 1802 008c 0B       		.uleb128 0xb
 1803 008d 0B       		.uleb128 0xb
 1804 008e 3A       		.uleb128 0x3a
 1805 008f 0B       		.uleb128 0xb
 1806 0090 3B       		.uleb128 0x3b
 1807 0091 0B       		.uleb128 0xb
 1808 0092 01       		.uleb128 0x1
 1809 0093 13       		.uleb128 0x13
 1810 0094 00       		.byte	0x0
 1811 0095 00       		.byte	0x0
 1812 0096 0D       		.uleb128 0xd
 1813 0097 0D       		.uleb128 0xd
 1814 0098 00       		.byte	0x0
 1815 0099 03       		.uleb128 0x3
 1816 009a 08       		.uleb128 0x8
 1817 009b 3A       		.uleb128 0x3a
 1818 009c 0B       		.uleb128 0xb
ARM GAS  C:\Users\DNIEL~1\AppData\Local\Temp\cc6IvFbi.s 			page 33


 1819 009d 3B       		.uleb128 0x3b
 1820 009e 0B       		.uleb128 0xb
 1821 009f 49       		.uleb128 0x49
 1822 00a0 13       		.uleb128 0x13
 1823 00a1 38       		.uleb128 0x38
 1824 00a2 0A       		.uleb128 0xa
 1825 00a3 00       		.byte	0x0
 1826 00a4 00       		.byte	0x0
 1827 00a5 0E       		.uleb128 0xe
 1828 00a6 0D       		.uleb128 0xd
 1829 00a7 00       		.byte	0x0
 1830 00a8 03       		.uleb128 0x3
 1831 00a9 0E       		.uleb128 0xe
 1832 00aa 3A       		.uleb128 0x3a
 1833 00ab 0B       		.uleb128 0xb
 1834 00ac 3B       		.uleb128 0x3b
 1835 00ad 0B       		.uleb128 0xb
 1836 00ae 49       		.uleb128 0x49
 1837 00af 13       		.uleb128 0x13
 1838 00b0 38       		.uleb128 0x38
 1839 00b1 0A       		.uleb128 0xa
 1840 00b2 00       		.byte	0x0
 1841 00b3 00       		.byte	0x0
 1842 00b4 0F       		.uleb128 0xf
 1843 00b5 17       		.uleb128 0x17
 1844 00b6 01       		.byte	0x1
 1845 00b7 0B       		.uleb128 0xb
 1846 00b8 0B       		.uleb128 0xb
 1847 00b9 3A       		.uleb128 0x3a
 1848 00ba 0B       		.uleb128 0xb
 1849 00bb 3B       		.uleb128 0x3b
 1850 00bc 0B       		.uleb128 0xb
 1851 00bd 01       		.uleb128 0x1
 1852 00be 13       		.uleb128 0x13
 1853 00bf 00       		.byte	0x0
 1854 00c0 00       		.byte	0x0
 1855 00c1 10       		.uleb128 0x10
 1856 00c2 0D       		.uleb128 0xd
 1857 00c3 00       		.byte	0x0
 1858 00c4 03       		.uleb128 0x3
 1859 00c5 08       		.uleb128 0x8
 1860 00c6 3A       		.uleb128 0x3a
 1861 00c7 0B       		.uleb128 0xb
 1862 00c8 3B       		.uleb128 0x3b
 1863 00c9 0B       		.uleb128 0xb
 1864 00ca 49       		.uleb128 0x49
 1865 00cb 13       		.uleb128 0x13
 1866 00cc 00       		.byte	0x0
 1867 00cd 00       		.byte	0x0
 1868 00ce 11       		.uleb128 0x11
 1869 00cf 0F       		.uleb128 0xf
 1870 00d0 00       		.byte	0x0
 1871 00d1 0B       		.uleb128 0xb
 1872 00d2 0B       		.uleb128 0xb
 1873 00d3 49       		.uleb128 0x49
 1874 00d4 13       		.uleb128 0x13
 1875 00d5 00       		.byte	0x0
ARM GAS  C:\Users\DNIEL~1\AppData\Local\Temp\cc6IvFbi.s 			page 34


 1876 00d6 00       		.byte	0x0
 1877 00d7 12       		.uleb128 0x12
 1878 00d8 2E       		.uleb128 0x2e
 1879 00d9 01       		.byte	0x1
 1880 00da 03       		.uleb128 0x3
 1881 00db 0E       		.uleb128 0xe
 1882 00dc 3A       		.uleb128 0x3a
 1883 00dd 0B       		.uleb128 0xb
 1884 00de 3B       		.uleb128 0x3b
 1885 00df 0B       		.uleb128 0xb
 1886 00e0 27       		.uleb128 0x27
 1887 00e1 0C       		.uleb128 0xc
 1888 00e2 20       		.uleb128 0x20
 1889 00e3 0B       		.uleb128 0xb
 1890 00e4 01       		.uleb128 0x1
 1891 00e5 13       		.uleb128 0x13
 1892 00e6 00       		.byte	0x0
 1893 00e7 00       		.byte	0x0
 1894 00e8 13       		.uleb128 0x13
 1895 00e9 05       		.uleb128 0x5
 1896 00ea 00       		.byte	0x0
 1897 00eb 03       		.uleb128 0x3
 1898 00ec 0E       		.uleb128 0xe
 1899 00ed 3A       		.uleb128 0x3a
 1900 00ee 0B       		.uleb128 0xb
 1901 00ef 3B       		.uleb128 0x3b
 1902 00f0 0B       		.uleb128 0xb
 1903 00f1 49       		.uleb128 0x49
 1904 00f2 13       		.uleb128 0x13
 1905 00f3 00       		.byte	0x0
 1906 00f4 00       		.byte	0x0
 1907 00f5 14       		.uleb128 0x14
 1908 00f6 26       		.uleb128 0x26
 1909 00f7 00       		.byte	0x0
 1910 00f8 49       		.uleb128 0x49
 1911 00f9 13       		.uleb128 0x13
 1912 00fa 00       		.byte	0x0
 1913 00fb 00       		.byte	0x0
 1914 00fc 15       		.uleb128 0x15
 1915 00fd 2E       		.uleb128 0x2e
 1916 00fe 01       		.byte	0x1
 1917 00ff 3F       		.uleb128 0x3f
 1918 0100 0C       		.uleb128 0xc
 1919 0101 03       		.uleb128 0x3
 1920 0102 0E       		.uleb128 0xe
 1921 0103 3A       		.uleb128 0x3a
 1922 0104 0B       		.uleb128 0xb
 1923 0105 3B       		.uleb128 0x3b
 1924 0106 0B       		.uleb128 0xb
 1925 0107 27       		.uleb128 0x27
 1926 0108 0C       		.uleb128 0xc
 1927 0109 11       		.uleb128 0x11
 1928 010a 01       		.uleb128 0x1
 1929 010b 12       		.uleb128 0x12
 1930 010c 01       		.uleb128 0x1
 1931 010d 40       		.uleb128 0x40
 1932 010e 06       		.uleb128 0x6
ARM GAS  C:\Users\DNIEL~1\AppData\Local\Temp\cc6IvFbi.s 			page 35


 1933 010f 01       		.uleb128 0x1
 1934 0110 13       		.uleb128 0x13
 1935 0111 00       		.byte	0x0
 1936 0112 00       		.byte	0x0
 1937 0113 16       		.uleb128 0x16
 1938 0114 05       		.uleb128 0x5
 1939 0115 00       		.byte	0x0
 1940 0116 03       		.uleb128 0x3
 1941 0117 0E       		.uleb128 0xe
 1942 0118 3A       		.uleb128 0x3a
 1943 0119 0B       		.uleb128 0xb
 1944 011a 3B       		.uleb128 0x3b
 1945 011b 0B       		.uleb128 0xb
 1946 011c 49       		.uleb128 0x49
 1947 011d 13       		.uleb128 0x13
 1948 011e 02       		.uleb128 0x2
 1949 011f 0A       		.uleb128 0xa
 1950 0120 00       		.byte	0x0
 1951 0121 00       		.byte	0x0
 1952 0122 17       		.uleb128 0x17
 1953 0123 1D       		.uleb128 0x1d
 1954 0124 01       		.byte	0x1
 1955 0125 31       		.uleb128 0x31
 1956 0126 13       		.uleb128 0x13
 1957 0127 52       		.uleb128 0x52
 1958 0128 01       		.uleb128 0x1
 1959 0129 55       		.uleb128 0x55
 1960 012a 06       		.uleb128 0x6
 1961 012b 58       		.uleb128 0x58
 1962 012c 0B       		.uleb128 0xb
 1963 012d 59       		.uleb128 0x59
 1964 012e 0B       		.uleb128 0xb
 1965 012f 01       		.uleb128 0x1
 1966 0130 13       		.uleb128 0x13
 1967 0131 00       		.byte	0x0
 1968 0132 00       		.byte	0x0
 1969 0133 18       		.uleb128 0x18
 1970 0134 05       		.uleb128 0x5
 1971 0135 00       		.byte	0x0
 1972 0136 31       		.uleb128 0x31
 1973 0137 13       		.uleb128 0x13
 1974 0138 02       		.uleb128 0x2
 1975 0139 0A       		.uleb128 0xa
 1976 013a 00       		.byte	0x0
 1977 013b 00       		.byte	0x0
 1978 013c 19       		.uleb128 0x19
 1979 013d 05       		.uleb128 0x5
 1980 013e 00       		.byte	0x0
 1981 013f 31       		.uleb128 0x31
 1982 0140 13       		.uleb128 0x13
 1983 0141 1C       		.uleb128 0x1c
 1984 0142 06       		.uleb128 0x6
 1985 0143 00       		.byte	0x0
 1986 0144 00       		.byte	0x0
 1987 0145 1A       		.uleb128 0x1a
 1988 0146 1D       		.uleb128 0x1d
 1989 0147 01       		.byte	0x1
ARM GAS  C:\Users\DNIEL~1\AppData\Local\Temp\cc6IvFbi.s 			page 36


 1990 0148 31       		.uleb128 0x31
 1991 0149 13       		.uleb128 0x13
 1992 014a 52       		.uleb128 0x52
 1993 014b 01       		.uleb128 0x1
 1994 014c 55       		.uleb128 0x55
 1995 014d 06       		.uleb128 0x6
 1996 014e 58       		.uleb128 0x58
 1997 014f 0B       		.uleb128 0xb
 1998 0150 59       		.uleb128 0x59
 1999 0151 0B       		.uleb128 0xb
 2000 0152 00       		.byte	0x0
 2001 0153 00       		.byte	0x0
 2002 0154 1B       		.uleb128 0x1b
 2003 0155 05       		.uleb128 0x5
 2004 0156 00       		.byte	0x0
 2005 0157 03       		.uleb128 0x3
 2006 0158 0E       		.uleb128 0xe
 2007 0159 3A       		.uleb128 0x3a
 2008 015a 0B       		.uleb128 0xb
 2009 015b 3B       		.uleb128 0x3b
 2010 015c 0B       		.uleb128 0xb
 2011 015d 49       		.uleb128 0x49
 2012 015e 13       		.uleb128 0x13
 2013 015f 02       		.uleb128 0x2
 2014 0160 06       		.uleb128 0x6
 2015 0161 00       		.byte	0x0
 2016 0162 00       		.byte	0x0
 2017 0163 1C       		.uleb128 0x1c
 2018 0164 34       		.uleb128 0x34
 2019 0165 00       		.byte	0x0
 2020 0166 03       		.uleb128 0x3
 2021 0167 0E       		.uleb128 0xe
 2022 0168 3A       		.uleb128 0x3a
 2023 0169 0B       		.uleb128 0xb
 2024 016a 3B       		.uleb128 0x3b
 2025 016b 0B       		.uleb128 0xb
 2026 016c 49       		.uleb128 0x49
 2027 016d 13       		.uleb128 0x13
 2028 016e 02       		.uleb128 0x2
 2029 016f 06       		.uleb128 0x6
 2030 0170 00       		.byte	0x0
 2031 0171 00       		.byte	0x0
 2032 0172 1D       		.uleb128 0x1d
 2033 0173 34       		.uleb128 0x34
 2034 0174 00       		.byte	0x0
 2035 0175 03       		.uleb128 0x3
 2036 0176 0E       		.uleb128 0xe
 2037 0177 3A       		.uleb128 0x3a
 2038 0178 0B       		.uleb128 0xb
 2039 0179 3B       		.uleb128 0x3b
 2040 017a 0B       		.uleb128 0xb
 2041 017b 49       		.uleb128 0x49
 2042 017c 13       		.uleb128 0x13
 2043 017d 02       		.uleb128 0x2
 2044 017e 0A       		.uleb128 0xa
 2045 017f 00       		.byte	0x0
 2046 0180 00       		.byte	0x0
ARM GAS  C:\Users\DNIEL~1\AppData\Local\Temp\cc6IvFbi.s 			page 37


 2047 0181 1E       		.uleb128 0x1e
 2048 0182 34       		.uleb128 0x34
 2049 0183 00       		.byte	0x0
 2050 0184 03       		.uleb128 0x3
 2051 0185 08       		.uleb128 0x8
 2052 0186 3A       		.uleb128 0x3a
 2053 0187 0B       		.uleb128 0xb
 2054 0188 3B       		.uleb128 0x3b
 2055 0189 0B       		.uleb128 0xb
 2056 018a 49       		.uleb128 0x49
 2057 018b 13       		.uleb128 0x13
 2058 018c 02       		.uleb128 0x2
 2059 018d 06       		.uleb128 0x6
 2060 018e 00       		.byte	0x0
 2061 018f 00       		.byte	0x0
 2062 0190 1F       		.uleb128 0x1f
 2063 0191 0B       		.uleb128 0xb
 2064 0192 01       		.byte	0x1
 2065 0193 55       		.uleb128 0x55
 2066 0194 06       		.uleb128 0x6
 2067 0195 00       		.byte	0x0
 2068 0196 00       		.byte	0x0
 2069 0197 20       		.uleb128 0x20
 2070 0198 34       		.uleb128 0x34
 2071 0199 00       		.byte	0x0
 2072 019a 03       		.uleb128 0x3
 2073 019b 0E       		.uleb128 0xe
 2074 019c 3A       		.uleb128 0x3a
 2075 019d 0B       		.uleb128 0xb
 2076 019e 3B       		.uleb128 0x3b
 2077 019f 05       		.uleb128 0x5
 2078 01a0 49       		.uleb128 0x49
 2079 01a1 13       		.uleb128 0x13
 2080 01a2 3F       		.uleb128 0x3f
 2081 01a3 0C       		.uleb128 0xc
 2082 01a4 3C       		.uleb128 0x3c
 2083 01a5 0C       		.uleb128 0xc
 2084 01a6 00       		.byte	0x0
 2085 01a7 00       		.byte	0x0
 2086 01a8 00       		.byte	0x0
 2087              		.section	.debug_pubnames,"",%progbits
 2088 0000 3A000000 		.4byte	0x3a
 2089 0004 0200     		.2byte	0x2
 2090 0006 00000000 		.4byte	.Ldebug_info0
 2091 000a 52070000 		.4byte	0x752
 2092 000e D1040000 		.4byte	0x4d1
 2093 0012 5F70616C 		.ascii	"_pal_lld_init\000"
 2093      5F6C6C64 
 2093      5F696E69 
 2093      7400
 2094 0020 59060000 		.4byte	0x659
 2095 0024 5F70616C 		.ascii	"_pal_lld_setgroupmode\000"
 2095      5F6C6C64 
 2095      5F736574 
 2095      67726F75 
 2095      706D6F64 
 2096 003a 00000000 		.4byte	0x0
ARM GAS  C:\Users\DNIEL~1\AppData\Local\Temp\cc6IvFbi.s 			page 38


 2097              		.section	.debug_pubtypes,"",%progbits
 2098 0000 A7000000 		.4byte	0xa7
 2099 0004 0200     		.2byte	0x2
 2100 0006 00000000 		.4byte	.Ldebug_info0
 2101 000a 52070000 		.4byte	0x752
 2102 000e 4C000000 		.4byte	0x4c
 2103 0012 75696E74 		.ascii	"uint16_t\000"
 2103      31365F74 
 2103      00
 2104 001b 5E000000 		.4byte	0x5e
 2105 001f 696E7433 		.ascii	"int32_t\000"
 2105      325F7400 
 2106 0027 70000000 		.4byte	0x70
 2107 002b 75696E74 		.ascii	"uint32_t\000"
 2107      33325F74 
 2107      00
 2108 0034 7E020000 		.4byte	0x27e
 2109 0038 5243435F 		.ascii	"RCC_TypeDef\000"
 2109      54797065 
 2109      44656600 
 2110 0044 64030000 		.4byte	0x364
 2111 0048 4750494F 		.ascii	"GPIO_TypeDef\000"
 2111      5F547970 
 2111      65446566 
 2111      00
 2112 0055 DA030000 		.4byte	0x3da
 2113 0059 73746D33 		.ascii	"stm32_gpio_setup_t\000"
 2113      325F6770 
 2113      696F5F73 
 2113      65747570 
 2113      5F7400
 2114 006c 70040000 		.4byte	0x470
 2115 0070 50414C43 		.ascii	"PALConfig\000"
 2115      6F6E6669 
 2115      6700
 2116 007a 7B040000 		.4byte	0x47b
 2117 007e 696F706F 		.ascii	"ioportmask_t\000"
 2117      72746D61 
 2117      736B5F74 
 2117      00
 2118 008b 86040000 		.4byte	0x486
 2119 008f 696F6D6F 		.ascii	"iomode_t\000"
 2119      64655F74 
 2119      00
 2120 0098 91040000 		.4byte	0x491
 2121 009c 696F706F 		.ascii	"ioportid_t\000"
 2121      72746964 
 2121      5F7400
 2122 00a7 00000000 		.4byte	0x0
 2123              		.section	.debug_aranges,"",%progbits
 2124 0000 24000000 		.4byte	0x24
 2125 0004 0200     		.2byte	0x2
 2126 0006 00000000 		.4byte	.Ldebug_info0
 2127 000a 04       		.byte	0x4
 2128 000b 00       		.byte	0x0
 2129 000c 0000     		.2byte	0x0
 2130 000e 0000     		.2byte	0x0
ARM GAS  C:\Users\DNIEL~1\AppData\Local\Temp\cc6IvFbi.s 			page 39


 2131 0010 00000000 		.4byte	.LFB119
 2132 0014 E4010000 		.4byte	.LFE119-.LFB119
 2133 0018 00000000 		.4byte	.LFB120
 2134 001c BE000000 		.4byte	.LFE120-.LFB120
 2135 0020 00000000 		.4byte	0x0
 2136 0024 00000000 		.4byte	0x0
 2137              		.section	.debug_ranges,"",%progbits
 2138              	.Ldebug_ranges0:
 2139 0000 08000000 		.4byte	.LBB20
 2140 0004 0C000000 		.4byte	.LBE20
 2141 0008 5C000000 		.4byte	.LBB61
 2142 000c 60000000 		.4byte	.LBE61
 2143 0010 52000000 		.4byte	.LBB57
 2144 0014 5A000000 		.4byte	.LBE57
 2145 0018 4A000000 		.4byte	.LBB53
 2146 001c 50000000 		.4byte	.LBE53
 2147 0020 42000000 		.4byte	.LBB49
 2148 0024 48000000 		.4byte	.LBE49
 2149 0028 3A000000 		.4byte	.LBB45
 2150 002c 40000000 		.4byte	.LBE45
 2151 0030 32000000 		.4byte	.LBB41
 2152 0034 38000000 		.4byte	.LBE41
 2153 0038 2A000000 		.4byte	.LBB37
 2154 003c 30000000 		.4byte	.LBE37
 2155 0040 26000000 		.4byte	.LBB33
 2156 0044 28000000 		.4byte	.LBE33
 2157 0048 00000000 		.4byte	0x0
 2158 004c 00000000 		.4byte	0x0
 2159 0050 18000000 		.4byte	.LBB30
 2160 0054 1C000000 		.4byte	.LBE30
 2161 0058 60000000 		.4byte	.LBB62
 2162 005c 98000000 		.4byte	.LBE62
 2163 0060 00000000 		.4byte	0x0
 2164 0064 00000000 		.4byte	0x0
 2165 0068 28000000 		.4byte	.LBB34
 2166 006c 2A000000 		.4byte	.LBE34
 2167 0070 98000000 		.4byte	.LBB63
 2168 0074 D0000000 		.4byte	.LBE63
 2169 0078 00000000 		.4byte	0x0
 2170 007c 00000000 		.4byte	0x0
 2171 0080 30000000 		.4byte	.LBB38
 2172 0084 32000000 		.4byte	.LBE38
 2173 0088 D0000000 		.4byte	.LBB64
 2174 008c EC000000 		.4byte	.LBE64
 2175 0090 00000000 		.4byte	0x0
 2176 0094 00000000 		.4byte	0x0
 2177 0098 38000000 		.4byte	.LBB42
 2178 009c 3A000000 		.4byte	.LBE42
 2179 00a0 EC000000 		.4byte	.LBB65
 2180 00a4 0E010000 		.4byte	.LBE65
 2181 00a8 00000000 		.4byte	0x0
 2182 00ac 00000000 		.4byte	0x0
 2183 00b0 40000000 		.4byte	.LBB46
 2184 00b4 42000000 		.4byte	.LBE46
 2185 00b8 0E010000 		.4byte	.LBB66
 2186 00bc 38010000 		.4byte	.LBE66
 2187 00c0 00000000 		.4byte	0x0
ARM GAS  C:\Users\DNIEL~1\AppData\Local\Temp\cc6IvFbi.s 			page 40


 2188 00c4 00000000 		.4byte	0x0
 2189 00c8 48000000 		.4byte	.LBB50
 2190 00cc 4A000000 		.4byte	.LBE50
 2191 00d0 38010000 		.4byte	.LBB67
 2192 00d4 62010000 		.4byte	.LBE67
 2193 00d8 00000000 		.4byte	0x0
 2194 00dc 00000000 		.4byte	0x0
 2195 00e0 50000000 		.4byte	.LBB54
 2196 00e4 52000000 		.4byte	.LBE54
 2197 00e8 62010000 		.4byte	.LBB68
 2198 00ec 8C010000 		.4byte	.LBE68
 2199 00f0 00000000 		.4byte	0x0
 2200 00f4 00000000 		.4byte	0x0
 2201 00f8 5A000000 		.4byte	.LBB58
 2202 00fc 5C000000 		.4byte	.LBE58
 2203 0100 8C010000 		.4byte	.LBB69
 2204 0104 B6010000 		.4byte	.LBE69
 2205 0108 00000000 		.4byte	0x0
 2206 010c 00000000 		.4byte	0x0
 2207 0110 1A000000 		.4byte	.LBB70
 2208 0114 80000000 		.4byte	.LBE70
 2209 0118 9C000000 		.4byte	.LBB73
 2210 011c B8000000 		.4byte	.LBE73
 2211 0120 96000000 		.4byte	.LBB72
 2212 0124 9A000000 		.4byte	.LBE72
 2213 0128 8E000000 		.4byte	.LBB71
 2214 012c 92000000 		.4byte	.LBE71
 2215 0130 00000000 		.4byte	0x0
 2216 0134 00000000 		.4byte	0x0
 2217 0138 00000000 		.4byte	.LFB119
 2218 013c E4010000 		.4byte	.LFE119
 2219 0140 00000000 		.4byte	.LFB120
 2220 0144 BE000000 		.4byte	.LFE120
 2221 0148 00000000 		.4byte	0x0
 2222 014c 00000000 		.4byte	0x0
 2223              		.section	.debug_str,"MS",%progbits,1
 2224              	.LASF29:
 2225 0000 41484231 		.ascii	"AHB1LPENR\000"
 2225      4C50454E 
 2225      5200
 2226              	.LASF60:
 2227 000a 50434461 		.ascii	"PCData\000"
 2227      746100
 2228              	.LASF74:
 2229 0011 5F70616C 		.ascii	"_pal_lld_setgroupmode\000"
 2229      5F6C6C64 
 2229      5F736574 
 2229      67726F75 
 2229      706D6F64 
 2230              	.LASF19:
 2231 0027 41504231 		.ascii	"APB1RSTR\000"
 2231      52535452 
 2231      00
 2232              	.LASF23:
 2233 0030 41484232 		.ascii	"AHB2ENR\000"
 2233      454E5200 
 2234              	.LASF57:
ARM GAS  C:\Users\DNIEL~1\AppData\Local\Temp\cc6IvFbi.s 			page 41


 2235 0038 73746D33 		.ascii	"stm32_gpio_setup_t\000"
 2235      325F6770 
 2235      696F5F73 
 2235      65747570 
 2235      5F7400
 2236              	.LASF63:
 2237 004b 50464461 		.ascii	"PFData\000"
 2237      746100
 2238              	.LASF73:
 2239 0052 5F70616C 		.ascii	"_pal_lld_init\000"
 2239      5F6C6C64 
 2239      5F696E69 
 2239      7400
 2240              	.LASF3:
 2241 0060 73686F72 		.ascii	"short int\000"
 2241      7420696E 
 2241      7400
 2242              	.LASF84:
 2243 006a 696E6974 		.ascii	"initgpio\000"
 2243      6770696F 
 2243      00
 2244              	.LASF71:
 2245 0073 6770696F 		.ascii	"gpiop\000"
 2245      7000
 2246              	.LASF36:
 2247 0079 42444352 		.ascii	"BDCR\000"
 2247      00
 2248              	.LASF66:
 2249 007e 50494461 		.ascii	"PIData\000"
 2249      746100
 2250              	.LASF39:
 2251 0085 504C4C49 		.ascii	"PLLI2SCFGR\000"
 2251      32534346 
 2251      475200
 2252              	.LASF22:
 2253 0090 41484231 		.ascii	"AHB1ENR\000"
 2253      454E5200 
 2254              	.LASF38:
 2255 0098 53534347 		.ascii	"SSCGR\000"
 2255      5200
 2256              	.LASF59:
 2257 009e 50424461 		.ascii	"PBData\000"
 2257      746100
 2258              	.LASF31:
 2259 00a5 41484233 		.ascii	"AHB3LPENR\000"
 2259      4C50454E 
 2259      5200
 2260              	.LASF72:
 2261 00af 636F6E66 		.ascii	"config\000"
 2261      696700
 2262              	.LASF69:
 2263 00b6 696F6D6F 		.ascii	"iomode_t\000"
 2263      64655F74 
 2263      00
 2264              	.LASF26:
 2265 00bf 41504231 		.ascii	"APB1ENR\000"
 2265      454E5200 
ARM GAS  C:\Users\DNIEL~1\AppData\Local\Temp\cc6IvFbi.s 			page 42


 2266              	.LASF68:
 2267 00c7 696F706F 		.ascii	"ioportmask_t\000"
 2267      72746D61 
 2267      736B5F74 
 2267      00
 2268              	.LASF43:
 2269 00d4 4F545950 		.ascii	"OTYPER\000"
 2269      455200
 2270              	.LASF24:
 2271 00db 41484233 		.ascii	"AHB3ENR\000"
 2271      454E5200 
 2272              	.LASF44:
 2273 00e3 4F535045 		.ascii	"OSPEEDR\000"
 2273      45445200 
 2274              	.LASF10:
 2275 00eb 6C6F6E67 		.ascii	"long long int\000"
 2275      206C6F6E 
 2275      6720696E 
 2275      7400
 2276              	.LASF45:
 2277 00f9 50555044 		.ascii	"PUPDR\000"
 2277      5200
 2278              	.LASF53:
 2279 00ff 6F737065 		.ascii	"ospeedr\000"
 2279      65647200 
 2280              	.LASF7:
 2281 0107 6C6F6E67 		.ascii	"long int\000"
 2281      20696E74 
 2281      00
 2282              	.LASF61:
 2283 0110 50444461 		.ascii	"PDData\000"
 2283      746100
 2284              	.LASF40:
 2285 0117 5243435F 		.ascii	"RCC_TypeDef\000"
 2285      54797065 
 2285      44656600 
 2286              	.LASF42:
 2287 0123 4D4F4445 		.ascii	"MODER\000"
 2287      5200
 2288              	.LASF20:
 2289 0129 41504232 		.ascii	"APB2RSTR\000"
 2289      52535452 
 2289      00
 2290              	.LASF41:
 2291 0132 636C6561 		.ascii	"clear\000"
 2291      7200
 2292              	.LASF64:
 2293 0138 50474461 		.ascii	"PGData\000"
 2293      746100
 2294              	.LASF58:
 2295 013f 50414461 		.ascii	"PAData\000"
 2295      746100
 2296              	.LASF70:
 2297 0146 696F706F 		.ascii	"ioportid_t\000"
 2297      72746964 
 2297      5F7400
 2298              	.LASF83:
ARM GAS  C:\Users\DNIEL~1\AppData\Local\Temp\cc6IvFbi.s 			page 43


 2299 0151 433A5C55 		.ascii	"C:\\Users\\D\341niel\\Dropbox\\Solar Racing\\Szoftv"
 2299      73657273 
 2299      5C44E16E 
 2299      69656C5C 
 2299      44726F70 
 2300 017c 65725C4D 		.ascii	"er\\Modulux\\Modulux_v0\\modulux\\firmware\000"
 2300      6F64756C 
 2300      75785C4D 
 2300      6F64756C 
 2300      75785F76 
 2301              	.LASF2:
 2302 01a3 756E7369 		.ascii	"unsigned char\000"
 2302      676E6564 
 2302      20636861 
 2302      7200
 2303              	.LASF27:
 2304 01b1 41504232 		.ascii	"APB2ENR\000"
 2304      454E5200 
 2305              	.LASF1:
 2306 01b9 7369676E 		.ascii	"signed char\000"
 2306      65642063 
 2306      68617200 
 2307              	.LASF11:
 2308 01c5 6C6F6E67 		.ascii	"long long unsigned int\000"
 2308      206C6F6E 
 2308      6720756E 
 2308      7369676E 
 2308      65642069 
 2309              	.LASF8:
 2310 01dc 75696E74 		.ascii	"uint32_t\000"
 2310      33325F74 
 2310      00
 2311              	.LASF52:
 2312 01e5 6F747970 		.ascii	"otyper\000"
 2312      657200
 2313              	.LASF16:
 2314 01ec 41484232 		.ascii	"AHB2RSTR\000"
 2314      52535452 
 2314      00
 2315              	.LASF5:
 2316 01f5 75696E74 		.ascii	"uint16_t\000"
 2316      31365F74 
 2316      00
 2317              	.LASF9:
 2318 01fe 6C6F6E67 		.ascii	"long unsigned int\000"
 2318      20756E73 
 2318      69676E65 
 2318      6420696E 
 2318      7400
 2319              	.LASF49:
 2320 0210 41465248 		.ascii	"AFRH\000"
 2320      00
 2321              	.LASF13:
 2322 0215 504C4C43 		.ascii	"PLLCFGR\000"
 2322      46475200 
 2323              	.LASF48:
 2324 021d 4146524C 		.ascii	"AFRL\000"
ARM GAS  C:\Users\DNIEL~1\AppData\Local\Temp\cc6IvFbi.s 			page 44


 2324      00
 2325              	.LASF4:
 2326 0222 73686F72 		.ascii	"short unsigned int\000"
 2326      7420756E 
 2326      7369676E 
 2326      65642069 
 2326      6E7400
 2327              	.LASF33:
 2328 0235 41504231 		.ascii	"APB1LPENR\000"
 2328      4C50454E 
 2328      5200
 2329              	.LASF12:
 2330 023f 63686172 		.ascii	"char\000"
 2330      00
 2331              	.LASF6:
 2332 0244 696E7433 		.ascii	"int32_t\000"
 2332      325F7400 
 2333              	.LASF67:
 2334 024c 50414C43 		.ascii	"PALConfig\000"
 2334      6F6E6669 
 2334      6700
 2335              	.LASF77:
 2336 0256 6D6F6465 		.ascii	"mode\000"
 2336      00
 2337              	.LASF30:
 2338 025b 41484232 		.ascii	"AHB2LPENR\000"
 2338      4C50454E 
 2338      5200
 2339              	.LASF75:
 2340 0265 706F7274 		.ascii	"port\000"
 2340      00
 2341              	.LASF62:
 2342 026a 50454461 		.ascii	"PEData\000"
 2342      746100
 2343              	.LASF18:
 2344 0271 52455345 		.ascii	"RESERVED0\000"
 2344      52564544 
 2344      3000
 2345              	.LASF21:
 2346 027b 52455345 		.ascii	"RESERVED1\000"
 2346      52564544 
 2346      3100
 2347              	.LASF25:
 2348 0285 52455345 		.ascii	"RESERVED2\000"
 2348      52564544 
 2348      3200
 2349              	.LASF28:
 2350 028f 52455345 		.ascii	"RESERVED3\000"
 2350      52564544 
 2350      3300
 2351              	.LASF32:
 2352 0299 52455345 		.ascii	"RESERVED4\000"
 2352      52564544 
 2352      3400
 2353              	.LASF35:
 2354 02a3 52455345 		.ascii	"RESERVED5\000"
 2354      52564544 
ARM GAS  C:\Users\DNIEL~1\AppData\Local\Temp\cc6IvFbi.s 			page 45


 2354      3500
 2355              	.LASF37:
 2356 02ad 52455345 		.ascii	"RESERVED6\000"
 2356      52564544 
 2356      3600
 2357              	.LASF65:
 2358 02b7 50484461 		.ascii	"PHData\000"
 2358      746100
 2359              	.LASF81:
 2360 02be 474E5520 		.ascii	"GNU C 4.5.2\000"
 2360      4320342E 
 2360      352E3200 
 2361              	.LASF76:
 2362 02ca 6D61736B 		.ascii	"mask\000"
 2362      00
 2363              	.LASF54:
 2364 02cf 70757064 		.ascii	"pupdr\000"
 2364      7200
 2365              	.LASF56:
 2366 02d5 61667268 		.ascii	"afrh\000"
 2366      00
 2367              	.LASF55:
 2368 02da 6166726C 		.ascii	"afrl\000"
 2368      00
 2369              	.LASF51:
 2370 02df 6D6F6465 		.ascii	"moder\000"
 2370      7200
 2371              	.LASF15:
 2372 02e5 41484231 		.ascii	"AHB1RSTR\000"
 2372      52535452 
 2372      00
 2373              	.LASF50:
 2374 02ee 4750494F 		.ascii	"GPIO_TypeDef\000"
 2374      5F547970 
 2374      65446566 
 2374      00
 2375              	.LASF17:
 2376 02fb 41484233 		.ascii	"AHB3RSTR\000"
 2376      52535452 
 2376      00
 2377              	.LASF78:
 2378 0304 616C7472 		.ascii	"altr\000"
 2378      00
 2379              	.LASF82:
 2380 0309 2E2E2F2E 		.ascii	"../../../ChibiOS/os/hal/platforms/STM32/GPIOv2/pal_"
 2380      2E2F2E2E 
 2380      2F436869 
 2380      62694F53 
 2380      2F6F732F 
 2381 033c 6C6C642E 		.ascii	"lld.c\000"
 2381      6300
 2382              	.LASF80:
 2383 0342 49544D5F 		.ascii	"ITM_RxBuffer\000"
 2383      52784275 
 2383      66666572 
 2383      00
 2384              	.LASF79:
ARM GAS  C:\Users\DNIEL~1\AppData\Local\Temp\cc6IvFbi.s 			page 46


 2385 034f 616C7472 		.ascii	"altrmask\000"
 2385      6D61736B 
 2385      00
 2386              	.LASF0:
 2387 0358 756E7369 		.ascii	"unsigned int\000"
 2387      676E6564 
 2387      20696E74 
 2387      00
 2388              	.LASF14:
 2389 0365 43464752 		.ascii	"CFGR\000"
 2389      00
 2390              	.LASF47:
 2391 036a 4C434B52 		.ascii	"LCKR\000"
 2391      00
 2392              	.LASF34:
 2393 036f 41504232 		.ascii	"APB2LPENR\000"
 2393      4C50454E 
 2393      5200
 2394              	.LASF46:
 2395 0379 42535252 		.ascii	"BSRR\000"
 2395      00
 2396              		.ident	"GCC: (Sourcery G++ Lite 2011.03-42) 4.5.2"
ARM GAS  C:\Users\DNIEL~1\AppData\Local\Temp\cc6IvFbi.s 			page 47


DEFINED SYMBOLS
                            *ABS*:00000000 pal_lld.c
C:\Users\DNIEL~1\AppData\Local\Temp\cc6IvFbi.s:24     .text._pal_lld_init:00000000 $t
C:\Users\DNIEL~1\AppData\Local\Temp\cc6IvFbi.s:30     .text._pal_lld_init:00000000 _pal_lld_init
C:\Users\DNIEL~1\AppData\Local\Temp\cc6IvFbi.s:390    .text._pal_lld_init:000001bc $d
C:\Users\DNIEL~1\AppData\Local\Temp\cc6IvFbi.s:404    .text._pal_lld_setgroupmode:00000000 $t
C:\Users\DNIEL~1\AppData\Local\Temp\cc6IvFbi.s:410    .text._pal_lld_setgroupmode:00000000 _pal_lld_setgroupmode
                     .debug_frame:00000010 $d
C:\Users\DNIEL~1\AppData\Local\Temp\cc6IvFbi.s:403    .text._pal_lld_init:000001e4 $t

NO UNDEFINED SYMBOLS
