ARM GAS  C:\Users\DNIEL~1\AppData\Local\Temp\cc6IvFbi.s 			page 1


   1              		.syntax unified
   2              		.cpu cortex-m3
   3              		.fpu softvfp
   4              		.eabi_attribute 20, 1
   5              		.eabi_attribute 21, 1
   6              		.eabi_attribute 23, 3
   7              		.eabi_attribute 24, 1
   8              		.eabi_attribute 25, 1
   9              		.eabi_attribute 26, 1
  10              		.eabi_attribute 30, 2
  11              		.eabi_attribute 18, 4
  12              		.thumb
  13              		.file	"pal_lld.c"
  20 0000 2B020000 		.text
  20      02006201 
  20      00000201 
  20      FB0E0D00 
  20      01010101 
  21              	.Ltext0:
  22              		.cfi_sections	.debug_frame
  23              		.section	.text._pal_lld_init,"ax",%progbits
  24              		.align	2
  25              		.p2align 4,,15
  26              		.global	_pal_lld_init
  27              		.thumb
  28              		.thumb_func
  29              		.type	_pal_lld_init, %function
  30              	_pal_lld_init:
  31              	.LFB119:
  32              		.file 1 "../../../ChibiOS/os/hal/platforms/STM32/GPIOv2/pal_lld.c"
  33              		.loc 1 104 0
  34              		.cfi_startproc
  35              		@ args = 0, pretend = 0, frame = 0
  36              		@ frame_needed = 0, uses_anonymous_args = 0
  37              		@ link register save eliminated.
  38              	.LVL0:
  39              		.loc 1 115 0
  40 0000 6E4B     		ldr	r3, .L2
  41              		.loc 1 104 0
  42 0002 2DE9F003 		push	{r4, r5, r6, r7, r8, r9}
  43              	.LCFI0:
  44              		.cfi_def_cfa_offset 24
  45              		.loc 1 115 0
  46 0006 1C6B     		ldr	r4, [r3, #48]
  47              		.cfi_offset 9, -4
  48              		.cfi_offset 8, -8
  49              		.cfi_offset 7, -12
  50              		.cfi_offset 6, -16
  51              		.cfi_offset 5, -20
  52              		.cfi_offset 4, -24
  53              	.LBB20:
ARM GAS  C:\Users\DNIEL~1\AppData\Local\Temp\cc6IvFbi.s 			page 2


  54              	.LBB25:
  55              		.loc 1 79 0
  56 0008 DFF8D081 		ldr	r8, .L2+32
  57              	.LBE25:
  58              	.LBE20:
  59              		.loc 1 115 0
  60 000c 6FEA542C 		mvn	ip, r4, lsr #9
  61 0010 6FEA4C21 		mvn	r1, ip, lsl #9
  62 0014 1963     		str	r1, [r3, #48]
  63              		.loc 1 116 0
  64 0016 1A6D     		ldr	r2, [r3, #80]
  65              	.LBB30:
  66              	.LBB31:
  67              		.loc 1 79 0
  68 0018 DFF8C4C1 		ldr	ip, .L2+36
  69              	.LBE31:
  70              	.LBE30:
  71              		.loc 1 116 0
  72 001c 6FEA5229 		mvn	r9, r2, lsr #9
  73 0020 6FEA4927 		mvn	r7, r9, lsl #9
  74 0024 1F65     		str	r7, [r3, #80]
  75              	.LVL1:
  76              	.LBB33:
  77              	.LBB24:
  78              		.loc 1 79 0
  79 0026 4668     		ldr	r6, [r0, #4]
  80              	.LBE24:
  81              	.LBE33:
  82              	.LBB34:
  83              	.LBB35:
  84 0028 654F     		ldr	r7, .L2+4
  85              	.LBE35:
  86              	.LBE34:
  87              	.LBB37:
  88              	.LBB26:
  89 002a C8F80460 		str	r6, [r8, #4]
  90              		.loc 1 80 0
  91 002e 8568     		ldr	r5, [r0, #8]
  92              	.LBE26:
  93              	.LBE37:
  94              	.LBB38:
  95              	.LBB39:
  96              		.loc 1 79 0
  97 0030 644E     		ldr	r6, .L2+8
  98              	.LBE39:
  99              	.LBE38:
 100              	.LBB41:
 101              	.LBB23:
 102              		.loc 1 80 0
 103 0032 C8F80850 		str	r5, [r8, #8]
 104              		.loc 1 81 0
 105 0036 C468     		ldr	r4, [r0, #12]
 106              	.LBE23:
 107              	.LBE41:
 108              	.LBB42:
 109              	.LBB43:
 110              		.loc 1 79 0
ARM GAS  C:\Users\DNIEL~1\AppData\Local\Temp\cc6IvFbi.s 			page 3


 111 0038 634D     		ldr	r5, .L2+12
 112              	.LBE43:
 113              	.LBE42:
 114              	.LBB45:
 115              	.LBB27:
 116              		.loc 1 81 0
 117 003a C8F80C40 		str	r4, [r8, #12]
 118              		.loc 1 82 0
 119 003e 0169     		ldr	r1, [r0, #16]
 120              	.LBE27:
 121              	.LBE45:
 122              	.LBB46:
 123              	.LBB47:
 124              		.loc 1 79 0
 125 0040 624C     		ldr	r4, .L2+16
 126              	.LBE47:
 127              	.LBE46:
 128              	.LBB49:
 129              	.LBB22:
 130              		.loc 1 82 0
 131 0042 C8F81410 		str	r1, [r8, #20]
 132              		.loc 1 83 0
 133 0046 4269     		ldr	r2, [r0, #20]
 134              	.LBE22:
 135              	.LBE49:
 136              	.LBB50:
 137              	.LBB51:
 138              		.loc 1 79 0
 139 0048 6149     		ldr	r1, .L2+20
 140              	.LBE51:
 141              	.LBE50:
 142              	.LBB53:
 143              	.LBB28:
 144              		.loc 1 83 0
 145 004a C8F82020 		str	r2, [r8, #32]
 146              		.loc 1 84 0
 147 004e 8369     		ldr	r3, [r0, #24]
 148              	.LBE28:
 149              	.LBE53:
 150              	.LBB54:
 151              	.LBB55:
 152              		.loc 1 79 0
 153 0050 604A     		ldr	r2, .L2+24
 154              	.LBE55:
 155              	.LBE54:
 156              	.LBB57:
 157              	.LBB21:
 158              		.loc 1 84 0
 159 0052 C8F82430 		str	r3, [r8, #36]
 160              		.loc 1 85 0
 161 0056 D0F80090 		ldr	r9, [r0, #0]
 162              	.LBE21:
 163              	.LBE57:
 164              	.LBB58:
 165              	.LBB59:
 166              		.loc 1 79 0
 167 005a 5F4B     		ldr	r3, .L2+28
ARM GAS  C:\Users\DNIEL~1\AppData\Local\Temp\cc6IvFbi.s 			page 4


 168              	.LBE59:
 169              	.LBE58:
 170              	.LBB61:
 171              	.LBB29:
 172              		.loc 1 85 0
 173 005c C8F80090 		str	r9, [r8, #0]
 174              	.LVL2:
 175              	.LBE29:
 176              	.LBE61:
 177              	.LBB62:
 178              	.LBB32:
 179              		.loc 1 79 0
 180 0060 D0F82080 		ldr	r8, [r0, #32]
 181 0064 CCF80480 		str	r8, [ip, #4]
 182              		.loc 1 80 0
 183 0068 D0F82480 		ldr	r8, [r0, #36]
 184 006c CCF80880 		str	r8, [ip, #8]
 185              		.loc 1 81 0
 186 0070 D0F82880 		ldr	r8, [r0, #40]
 187 0074 CCF80C80 		str	r8, [ip, #12]
 188              		.loc 1 82 0
 189 0078 D0F82C80 		ldr	r8, [r0, #44]
 190 007c CCF81480 		str	r8, [ip, #20]
 191              		.loc 1 83 0
 192 0080 D0F83080 		ldr	r8, [r0, #48]
 193 0084 CCF82080 		str	r8, [ip, #32]
 194              		.loc 1 84 0
 195 0088 D0F83480 		ldr	r8, [r0, #52]
 196 008c CCF82480 		str	r8, [ip, #36]
 197              		.loc 1 85 0
 198 0090 D0F81C80 		ldr	r8, [r0, #28]
 199 0094 CCF80080 		str	r8, [ip, #0]
 200              	.LVL3:
 201              	.LBE32:
 202              	.LBE62:
 203              	.LBB63:
 204              	.LBB36:
 205              		.loc 1 79 0
 206 0098 D0F83CC0 		ldr	ip, [r0, #60]
 207 009c C7F804C0 		str	ip, [r7, #4]
 208              		.loc 1 80 0
 209 00a0 D0F840C0 		ldr	ip, [r0, #64]
 210 00a4 C7F808C0 		str	ip, [r7, #8]
 211              		.loc 1 81 0
 212 00a8 D0F844C0 		ldr	ip, [r0, #68]
 213 00ac C7F80CC0 		str	ip, [r7, #12]
 214              		.loc 1 82 0
 215 00b0 D0F848C0 		ldr	ip, [r0, #72]
 216 00b4 C7F814C0 		str	ip, [r7, #20]
 217              		.loc 1 83 0
 218 00b8 D0F84CC0 		ldr	ip, [r0, #76]
 219 00bc C7F820C0 		str	ip, [r7, #32]
 220              		.loc 1 84 0
 221 00c0 D0F850C0 		ldr	ip, [r0, #80]
 222 00c4 C7F824C0 		str	ip, [r7, #36]
 223              		.loc 1 85 0
 224 00c8 D0F838C0 		ldr	ip, [r0, #56]
ARM GAS  C:\Users\DNIEL~1\AppData\Local\Temp\cc6IvFbi.s 			page 5


 225 00cc C7F800C0 		str	ip, [r7, #0]
 226              	.LVL4:
 227              	.LBE36:
 228              	.LBE63:
 229              	.LBB64:
 230              	.LBB40:
 231              		.loc 1 79 0
 232 00d0 876D     		ldr	r7, [r0, #88]
 233 00d2 7760     		str	r7, [r6, #4]
 234              		.loc 1 80 0
 235 00d4 C76D     		ldr	r7, [r0, #92]
 236 00d6 B760     		str	r7, [r6, #8]
 237              		.loc 1 81 0
 238 00d8 076E     		ldr	r7, [r0, #96]
 239 00da F760     		str	r7, [r6, #12]
 240              		.loc 1 82 0
 241 00dc 476E     		ldr	r7, [r0, #100]
 242 00de 7761     		str	r7, [r6, #20]
 243              		.loc 1 83 0
 244 00e0 876E     		ldr	r7, [r0, #104]
 245 00e2 3762     		str	r7, [r6, #32]
 246              		.loc 1 84 0
 247 00e4 C76E     		ldr	r7, [r0, #108]
 248 00e6 7762     		str	r7, [r6, #36]
 249              		.loc 1 85 0
 250 00e8 476D     		ldr	r7, [r0, #84]
 251 00ea 3760     		str	r7, [r6, #0]
 252              	.LVL5:
 253              	.LBE40:
 254              	.LBE64:
 255              	.LBB65:
 256              	.LBB44:
 257              		.loc 1 79 0
 258 00ec 466F     		ldr	r6, [r0, #116]
 259 00ee 6E60     		str	r6, [r5, #4]
 260              		.loc 1 80 0
 261 00f0 866F     		ldr	r6, [r0, #120]
 262 00f2 AE60     		str	r6, [r5, #8]
 263              		.loc 1 81 0
 264 00f4 C66F     		ldr	r6, [r0, #124]
 265 00f6 EE60     		str	r6, [r5, #12]
 266              		.loc 1 82 0
 267 00f8 D0F88060 		ldr	r6, [r0, #128]
 268 00fc 6E61     		str	r6, [r5, #20]
 269              		.loc 1 83 0
 270 00fe D0F88460 		ldr	r6, [r0, #132]
 271 0102 2E62     		str	r6, [r5, #32]
 272              		.loc 1 84 0
 273 0104 D0F88860 		ldr	r6, [r0, #136]
 274 0108 6E62     		str	r6, [r5, #36]
 275              		.loc 1 85 0
 276 010a 066F     		ldr	r6, [r0, #112]
 277 010c 2E60     		str	r6, [r5, #0]
 278              	.LVL6:
 279              	.LBE44:
 280              	.LBE65:
 281              	.LBB66:
ARM GAS  C:\Users\DNIEL~1\AppData\Local\Temp\cc6IvFbi.s 			page 6


 282              	.LBB48:
 283              		.loc 1 79 0
 284 010e D0F89050 		ldr	r5, [r0, #144]
 285 0112 6560     		str	r5, [r4, #4]
 286              		.loc 1 80 0
 287 0114 D0F89450 		ldr	r5, [r0, #148]
 288 0118 A560     		str	r5, [r4, #8]
 289              		.loc 1 81 0
 290 011a D0F89850 		ldr	r5, [r0, #152]
 291 011e E560     		str	r5, [r4, #12]
 292              		.loc 1 82 0
 293 0120 D0F89C50 		ldr	r5, [r0, #156]
 294 0124 6561     		str	r5, [r4, #20]
 295              		.loc 1 83 0
 296 0126 D0F8A050 		ldr	r5, [r0, #160]
 297 012a 2562     		str	r5, [r4, #32]
 298              		.loc 1 84 0
 299 012c D0F8A450 		ldr	r5, [r0, #164]
 300 0130 6562     		str	r5, [r4, #36]
 301              		.loc 1 85 0
 302 0132 D0F88C50 		ldr	r5, [r0, #140]
 303 0136 2560     		str	r5, [r4, #0]
 304              	.LVL7:
 305              	.LBE48:
 306              	.LBE66:
 307              	.LBB67:
 308              	.LBB52:
 309              		.loc 1 79 0
 310 0138 D0F8AC40 		ldr	r4, [r0, #172]
 311 013c 4C60     		str	r4, [r1, #4]
 312              		.loc 1 80 0
 313 013e D0F8B040 		ldr	r4, [r0, #176]
 314 0142 8C60     		str	r4, [r1, #8]
 315              		.loc 1 81 0
 316 0144 D0F8B440 		ldr	r4, [r0, #180]
 317 0148 CC60     		str	r4, [r1, #12]
 318              		.loc 1 82 0
 319 014a D0F8B840 		ldr	r4, [r0, #184]
 320 014e 4C61     		str	r4, [r1, #20]
 321              		.loc 1 83 0
 322 0150 D0F8BC40 		ldr	r4, [r0, #188]
 323 0154 0C62     		str	r4, [r1, #32]
 324              		.loc 1 84 0
 325 0156 D0F8C040 		ldr	r4, [r0, #192]
 326 015a 4C62     		str	r4, [r1, #36]
 327              		.loc 1 85 0
 328 015c D0F8A840 		ldr	r4, [r0, #168]
 329 0160 0C60     		str	r4, [r1, #0]
 330              	.LVL8:
 331              	.LBE52:
 332              	.LBE67:
 333              	.LBB68:
 334              	.LBB56:
 335              		.loc 1 79 0
 336 0162 D0F8C810 		ldr	r1, [r0, #200]
 337 0166 5160     		str	r1, [r2, #4]
 338              		.loc 1 80 0
ARM GAS  C:\Users\DNIEL~1\AppData\Local\Temp\cc6IvFbi.s 			page 7


 339 0168 D0F8CC10 		ldr	r1, [r0, #204]
 340 016c 9160     		str	r1, [r2, #8]
 341              		.loc 1 81 0
 342 016e D0F8D010 		ldr	r1, [r0, #208]
 343 0172 D160     		str	r1, [r2, #12]
 344              		.loc 1 82 0
 345 0174 D0F8D410 		ldr	r1, [r0, #212]
 346 0178 5161     		str	r1, [r2, #20]
 347              		.loc 1 83 0
 348 017a D0F8D810 		ldr	r1, [r0, #216]
 349 017e 1162     		str	r1, [r2, #32]
 350              		.loc 1 84 0
 351 0180 D0F8DC10 		ldr	r1, [r0, #220]
 352 0184 5162     		str	r1, [r2, #36]
 353              		.loc 1 85 0
 354 0186 D0F8C410 		ldr	r1, [r0, #196]
 355 018a 1160     		str	r1, [r2, #0]
 356              	.LVL9:
 357              	.LBE56:
 358              	.LBE68:
 359              	.LBB69:
 360              	.LBB60:
 361              		.loc 1 79 0
 362 018c D0F8E420 		ldr	r2, [r0, #228]
 363 0190 5A60     		str	r2, [r3, #4]
 364              		.loc 1 80 0
 365 0192 D0F8E810 		ldr	r1, [r0, #232]
 366 0196 9960     		str	r1, [r3, #8]
 367              		.loc 1 81 0
 368 0198 D0F8EC20 		ldr	r2, [r0, #236]
 369 019c DA60     		str	r2, [r3, #12]
 370              		.loc 1 82 0
 371 019e D0F8F010 		ldr	r1, [r0, #240]
 372 01a2 5961     		str	r1, [r3, #20]
 373              		.loc 1 83 0
 374 01a4 D0F8F420 		ldr	r2, [r0, #244]
 375 01a8 1A62     		str	r2, [r3, #32]
 376              		.loc 1 84 0
 377 01aa D0F8F810 		ldr	r1, [r0, #248]
 378 01ae 5962     		str	r1, [r3, #36]
 379              		.loc 1 85 0
 380 01b0 D0F8E020 		ldr	r2, [r0, #224]
 381 01b4 1A60     		str	r2, [r3, #0]
 382              	.LBE60:
 383              	.LBE69:
 384              		.loc 1 141 0
 385 01b6 BDE8F003 		pop	{r4, r5, r6, r7, r8, r9}
 386 01ba 7047     		bx	lr
 387              	.L3:
 388              		.align	2
 389              	.L2:
 390 01bc 00380240 		.word	1073887232
 391 01c0 00080240 		.word	1073874944
 392 01c4 000C0240 		.word	1073875968
 393 01c8 00100240 		.word	1073876992
 394 01cc 00140240 		.word	1073878016
 395 01d0 00180240 		.word	1073879040
ARM GAS  C:\Users\DNIEL~1\AppData\Local\Temp\cc6IvFbi.s 			page 8


 396 01d4 001C0240 		.word	1073880064
 397 01d8 00200240 		.word	1073881088
 398 01dc 00000240 		.word	1073872896
 399 01e0 00040240 		.word	1073873920
 400              		.cfi_endproc
 401              	.LFE119:
 402              		.size	_pal_lld_init, .-_pal_lld_init
 403 01e4 AFF30080 		.section	.text._pal_lld_setgroupmode,"ax",%progbits
 403      AFF30080 
 403      AFF30080 
 404              		.align	2
 405              		.p2align 4,,15
 406              		.global	_pal_lld_setgroupmode
 407              		.thumb
 408              		.thumb_func
 409              		.type	_pal_lld_setgroupmode, %function
 410              	_pal_lld_setgroupmode:
 411              	.LFB120:
 412              		.loc 1 159 0
 413              		.cfi_startproc
 414              		@ args = 0, pretend = 0, frame = 0
 415              		@ frame_needed = 0, uses_anonymous_args = 0
 416              		@ link register save eliminated.
 417              	.LVL10:
 418 0000 2DE9F00F 		push	{r4, r5, r6, r7, r8, r9, sl, fp}
 419              	.LCFI1:
 420              		.cfi_def_cfa_offset 32
 421              		.loc 1 166 0
 422 0004 0023     		movs	r3, #0
 423              		.loc 1 161 0
 424 0006 02F00307 		and	r7, r2, #3
 425              		.cfi_offset 11, -4
 426              		.cfi_offset 10, -8
 427              		.cfi_offset 9, -12
 428              		.cfi_offset 8, -16
 429              		.cfi_offset 7, -20
 430              		.cfi_offset 6, -24
 431              		.cfi_offset 5, -28
 432              		.cfi_offset 4, -32
 433              	.LVL11:
 434              		.loc 1 162 0
 435 000a C2F38006 		ubfx	r6, r2, #2, #1
 436              	.LVL12:
 437              		.loc 1 163 0
 438 000e C2F3C105 		ubfx	r5, r2, #3, #2
 439              	.LVL13:
 440              		.loc 1 164 0
 441 0012 C2F34114 		ubfx	r4, r2, #5, #2
 442              	.LVL14:
 443              		.loc 1 165 0
 444 0016 C2F3C31A 		ubfx	sl, r2, #7, #4
 445              	.LVL15:
 446              	.LBB70:
 447              		.loc 1 172 0
 448 001a 4FF00F09 		mov	r9, #15
 449              		.loc 1 177 0
 450 001e 4FF0010B 		mov	fp, #1
ARM GAS  C:\Users\DNIEL~1\AppData\Local\Temp\cc6IvFbi.s 			page 9


 451 0022 34E0     		b	.L9
 452              	.LVL16:
 453              	.L11:
 454              		.loc 1 174 0
 455 0024 D0F82080 		ldr	r8, [r0, #32]
 456 0028 28EA0C08 		bic	r8, r8, ip
 457 002c 48EA0202 		orr	r2, r8, r2
 458              	.LVL17:
 459 0030 0262     		str	r2, [r0, #32]
 460              	.LVL18:
 461              	.L7:
 462              		.loc 1 177 0
 463 0032 0BFA03F8 		lsl	r8, fp, r3
 464              		.loc 1 179 0
 465 0036 4FF0030C 		mov	ip, #3
 466              		.loc 1 157 0
 467 003a 5A00     		lsls	r2, r3, #1
 468              		.loc 1 179 0
 469 003c 0CFA02F2 		lsl	r2, ip, r2
 470              		.loc 1 178 0
 471 0040 D0F804C0 		ldr	ip, [r0, #4]
 472              		.loc 1 180 0
 473 0044 D243     		mvns	r2, r2
 474              		.loc 1 178 0
 475 0046 2CEA080C 		bic	ip, ip, r8
 476 004a 4CEA060C 		orr	ip, ip, r6
 477 004e C0F804C0 		str	ip, [r0, #4]
 478              	.LVL19:
 479              		.loc 1 180 0
 480 0052 D0F808C0 		ldr	ip, [r0, #8]
 481 0056 02EA0C0C 		and	ip, r2, ip
 482 005a 4CEA050C 		orr	ip, ip, r5
 483 005e C0F808C0 		str	ip, [r0, #8]
 484              		.loc 1 181 0
 485 0062 D0F80CC0 		ldr	ip, [r0, #12]
 486 0066 02EA0C0C 		and	ip, r2, ip
 487 006a 4CEA040C 		orr	ip, ip, r4
 488 006e C0F80CC0 		str	ip, [r0, #12]
 489              		.loc 1 182 0
 490 0072 D0F800C0 		ldr	ip, [r0, #0]
 491 0076 02EA0C0C 		and	ip, r2, ip
 492 007a 4CEA0702 		orr	r2, ip, r7
 493 007e 0260     		str	r2, [r0, #0]
 494              	.LVL20:
 495              	.L5:
 496              	.LBE70:
 497              		.loc 1 185 0
 498 0080 4908     		lsrs	r1, r1, #1
 499              	.LVL21:
 500 0082 19D0     		beq	.L4
 501              		.loc 1 187 0
 502 0084 7600     		lsls	r6, r6, #1
 503              	.LVL22:
 504              		.loc 1 188 0
 505 0086 AD00     		lsls	r5, r5, #2
 506              	.LVL23:
 507              		.loc 1 189 0
ARM GAS  C:\Users\DNIEL~1\AppData\Local\Temp\cc6IvFbi.s 			page 10


 508 0088 A400     		lsls	r4, r4, #2
 509              	.LVL24:
 510              		.loc 1 190 0
 511 008a BF00     		lsls	r7, r7, #2
 512              	.LVL25:
 513              		.loc 1 191 0
 514 008c 0133     		adds	r3, r3, #1
 515              	.LVL26:
 516              	.L9:
 517              	.LBB71:
 518              		.loc 1 171 0
 519 008e 03F0070C 		and	ip, r3, #7
 520              	.LBE71:
 521              		.loc 1 168 0
 522 0092 11F0010F 		tst	r1, #1
 523              	.LBB72:
 524              		.loc 1 171 0
 525 0096 4FEA8C0C 		lsl	ip, ip, #2
 526              	.LBE72:
 527              		.loc 1 168 0
 528 009a F1D0     		beq	.L5
 529              	.LBB73:
 530              		.loc 1 173 0
 531 009c 072B     		cmp	r3, #7
 532              		.loc 1 171 0
 533 009e 0AFA0CF2 		lsl	r2, sl, ip
 534              	.LVL27:
 535              		.loc 1 172 0
 536 00a2 09FA0CFC 		lsl	ip, r9, ip
 537              	.LVL28:
 538              		.loc 1 173 0
 539 00a6 BDD9     		bls	.L11
 540              		.loc 1 176 0
 541 00a8 D0F82480 		ldr	r8, [r0, #36]
 542 00ac 28EA0C0C 		bic	ip, r8, ip
 543              	.LVL29:
 544 00b0 4CEA0202 		orr	r2, ip, r2
 545              	.LVL30:
 546 00b4 4262     		str	r2, [r0, #36]
 547 00b6 BCE7     		b	.L7
 548              	.L4:
 549              	.LBE73:
 550              		.loc 1 193 0
 551 00b8 BDE8F00F 		pop	{r4, r5, r6, r7, r8, r9, sl, fp}
 552 00bc 7047     		bx	lr
 553              		.cfi_endproc
 554              	.LFE120:
 555              		.size	_pal_lld_setgroupmode, .-_pal_lld_setgroupmode
 556 00be 00BF     		.text
 557              	.Letext0: