ARM GAS  C:\Users\DNIEL~1\AppData\Local\Temp\ccK3AMrq.s 			page 1


   1              		.syntax unified
   2              		.cpu cortex-m4
   3              		.fpu softvfp
   4              		.eabi_attribute 20, 1
   5              		.eabi_attribute 21, 1
   6              		.eabi_attribute 23, 3
   7              		.eabi_attribute 24, 1
   8              		.eabi_attribute 25, 1
   9              		.eabi_attribute 26, 1
  10              		.eabi_attribute 30, 2
  11              		.eabi_attribute 34, 1
  12              		.eabi_attribute 18, 4
  13              		.thumb
  14              		.file	"pwm_lld.c"
  15              		.text
  16              	.Ltext0:
  17              		.cfi_sections	.debug_frame
  18              		.section	.text.VectorA4,"ax",%progbits
  19              		.align	2
  20              		.p2align 4,,15
  21              		.global	VectorA4
  22              		.thumb
  23              		.thumb_func
  24              		.type	VectorA4, %function
  25              	VectorA4:
  26              	.LFB118:
  27              		.file 1 "../../../Chibios/os/hal/platforms/STM32/TIMv1/pwm_lld.c"
  28              		.loc 1 147 0
  29              		.cfi_startproc
  30              		@ args = 0, pretend = 0, frame = 0
  31              		@ frame_needed = 0, uses_anonymous_args = 0
  32              		.loc 1 152 0
  33 0000 40F20000 		movw	r0, #:lower16:.LANCHOR0
  34 0004 C0F20000 		movt	r0, #:upper16:.LANCHOR0
  35              		.loc 1 147 0
  36 0008 08B5     		push	{r3, lr}
  37              	.LCFI0:
  38              		.cfi_def_cfa_offset 8
  39              		.cfi_offset 3, -8
  40              		.cfi_offset 14, -4
  41              		.loc 1 151 0
  42 000a 0023     		movs	r3, #0
  43              		.loc 1 152 0
  44 000c 4268     		ldr	r2, [r0, #4]
  45              		.loc 1 151 0
  46 000e C4F20103 		movt	r3, 16385
  47 0012 6FF00101 		mvn	r1, #1
  48 0016 1961     		str	r1, [r3, #16]
  49              		.loc 1 152 0
  50 0018 9368     		ldr	r3, [r2, #8]
  51 001a 9847     		blx	r3
  52              	.LVL0:
  53              		.loc 1 155 0
  54 001c BDE80840 		pop	{r3, lr}
  55              		.loc 1 154 0
  56 0020 FFF7FEBF 		b	_port_irq_epilogue
  57              	.LVL1:
ARM GAS  C:\Users\DNIEL~1\AppData\Local\Temp\ccK3AMrq.s 			page 2


  58              		.cfi_endproc
  59              	.LFE118:
  60              		.size	VectorA4, .-VectorA4
  61 0024 AFF30080 		.section	.text.VectorAC,"ax",%progbits
  61      AFF30080 
  61      AFF30080 
  62              		.align	2
  63              		.p2align 4,,15
  64              		.global	VectorAC
  65              		.thumb
  66              		.thumb_func
  67              		.type	VectorAC, %function
  68              	VectorAC:
  69              	.LFB119:
  70              		.loc 1 168 0
  71              		.cfi_startproc
  72              		@ args = 0, pretend = 0, frame = 0
  73              		@ frame_needed = 0, uses_anonymous_args = 0
  74              		.loc 1 173 0
  75 0000 0023     		movs	r3, #0
  76 0002 C4F20103 		movt	r3, 16385
  77              		.loc 1 168 0
  78 0006 10B5     		push	{r4, lr}
  79              	.LCFI1:
  80              		.cfi_def_cfa_offset 8
  81              		.cfi_offset 4, -8
  82              		.cfi_offset 14, -4
  83              		.loc 1 173 0
  84 0008 1A69     		ldr	r2, [r3, #16]
  85 000a DC68     		ldr	r4, [r3, #12]
  86 000c 1440     		ands	r4, r4, r2
  87 000e A4B2     		uxth	r4, r4
  88              	.LVL2:
  89              		.loc 1 174 0
  90 0010 E1B2     		uxtb	r1, r4
  91              		.loc 1 175 0
  92 0012 04F00200 		and	r0, r4, #2
  93              		.loc 1 174 0
  94 0016 C943     		mvns	r1, r1
  95              		.loc 1 175 0
  96 0018 82B2     		uxth	r2, r0
  97              		.loc 1 174 0
  98 001a 1961     		str	r1, [r3, #16]
  99              		.loc 1 175 0
 100 001c 002A     		cmp	r2, #0
 101 001e 1DD1     		bne	.L20
 102              	.L3:
 103              		.loc 1 177 0
 104 0020 04F00400 		and	r0, r4, #4
 105 0024 82B2     		uxth	r2, r0
 106 0026 A2B9     		cbnz	r2, .L21
 107              	.L4:
 108              		.loc 1 179 0
 109 0028 04F00800 		and	r0, r4, #8
 110 002c 82B2     		uxth	r2, r0
 111 002e 5AB9     		cbnz	r2, .L22
 112              	.L5:
ARM GAS  C:\Users\DNIEL~1\AppData\Local\Temp\ccK3AMrq.s 			page 3


 113              		.loc 1 181 0
 114 0030 04F01004 		and	r4, r4, #16
 115              	.LVL3:
 116 0034 A4B2     		uxth	r4, r4
 117 0036 1CB1     		cbz	r4, .L6
 118              		.loc 1 182 0
 119 0038 0B48     		ldr	r0, .L23
 120 003a 4268     		ldr	r2, [r0, #4]
 121 003c 936A     		ldr	r3, [r2, #40]
 122 003e 9847     		blx	r3
 123              	.LVL4:
 124              	.L6:
 125              		.loc 1 185 0
 126 0040 BDE81040 		pop	{r4, lr}
 127              		.loc 1 184 0
 128 0044 FFF7FEBF 		b	_port_irq_epilogue
 129              	.LVL5:
 130              	.L22:
 131              		.loc 1 180 0
 132 0048 0748     		ldr	r0, .L23
 133 004a 4368     		ldr	r3, [r0, #4]
 134 004c 196A     		ldr	r1, [r3, #32]
 135 004e 8847     		blx	r1
 136              	.LVL6:
 137 0050 EEE7     		b	.L5
 138              	.L21:
 139              		.loc 1 178 0
 140 0052 0548     		ldr	r0, .L23
 141 0054 4368     		ldr	r3, [r0, #4]
 142 0056 9969     		ldr	r1, [r3, #24]
 143 0058 8847     		blx	r1
 144              	.LVL7:
 145 005a E5E7     		b	.L4
 146              	.L20:
 147              		.loc 1 176 0
 148 005c 0248     		ldr	r0, .L23
 149 005e 4368     		ldr	r3, [r0, #4]
 150 0060 1969     		ldr	r1, [r3, #16]
 151 0062 8847     		blx	r1
 152              	.LVL8:
 153 0064 DCE7     		b	.L3
 154              	.L24:
 155 0066 00BF     		.align	2
 156              	.L23:
 157 0068 00000000 		.word	.LANCHOR0
 158              		.cfi_endproc
 159              	.LFE119:
 160              		.size	VectorAC, .-VectorAC
 161 006c AFF30080 		.section	.text.pwm_lld_init,"ax",%progbits
 162              		.align	2
 163              		.p2align 4,,15
 164              		.global	pwm_lld_init
 165              		.thumb
 166              		.thumb_func
 167              		.type	pwm_lld_init, %function
 168              	pwm_lld_init:
 169              	.LFB120:
ARM GAS  C:\Users\DNIEL~1\AppData\Local\Temp\ccK3AMrq.s 			page 4


 170              		.loc 1 345 0
 171              		.cfi_startproc
 172              		@ args = 0, pretend = 0, frame = 0
 173              		@ frame_needed = 0, uses_anonymous_args = 0
 174 0000 10B5     		push	{r4, lr}
 175              	.LCFI2:
 176              		.cfi_def_cfa_offset 8
 177              		.cfi_offset 4, -8
 178              		.cfi_offset 14, -4
 179              		.loc 1 349 0
 180 0002 40F20004 		movw	r4, #:lower16:.LANCHOR0
 181 0006 C0F20004 		movt	r4, #:upper16:.LANCHOR0
 182 000a 2046     		mov	r0, r4
 183 000c FFF7FEFF 		bl	pwmObjectInit
 184              	.LVL9:
 185              		.loc 1 350 0
 186 0010 0023     		movs	r3, #0
 187 0012 C4F20103 		movt	r3, 16385
 188 0016 2361     		str	r3, [r4, #16]
 189 0018 10BD     		pop	{r4, pc}
 190              		.cfi_endproc
 191              	.LFE120:
 192              		.size	pwm_lld_init, .-pwm_lld_init
 193 001a 00BFAFF3 		.section	.text.pwm_lld_start,"ax",%progbits
 193      0080
 194              		.align	2
 195              		.p2align 4,,15
 196              		.global	pwm_lld_start
 197              		.thumb
 198              		.thumb_func
 199              		.type	pwm_lld_start, %function
 200              	pwm_lld_start:
 201              	.LFB121:
 202              		.loc 1 399 0
 203              		.cfi_startproc
 204              		@ args = 0, pretend = 0, frame = 0
 205              		@ frame_needed = 0, uses_anonymous_args = 0
 206              	.LVL10:
 207              		.loc 1 403 0
 208 0000 0378     		ldrb	r3, [r0, #0]	@ zero_extendqisi2
 209 0002 012B     		cmp	r3, #1
 210              		.loc 1 399 0
 211 0004 70B5     		push	{r4, r5, r6, lr}
 212              	.LCFI3:
 213              		.cfi_def_cfa_offset 16
 214              		.cfi_offset 4, -16
 215              		.cfi_offset 5, -12
 216              		.cfi_offset 6, -8
 217              		.cfi_offset 14, -4
 218              		.loc 1 399 0
 219 0006 0446     		mov	r4, r0
 220              		.loc 1 403 0
 221 0008 64D0     		beq	.L53
 222              		.loc 1 491 0
 223 000a 0369     		ldr	r3, [r0, #16]
 224 000c 0022     		movs	r2, #0
 225 000e 1A60     		str	r2, [r3, #0]
ARM GAS  C:\Users\DNIEL~1\AppData\Local\Temp\ccK3AMrq.s 			page 5


 226              		.loc 1 492 0
 227 0010 5A63     		str	r2, [r3, #52]
 228              		.loc 1 493 0
 229 0012 9A63     		str	r2, [r3, #56]
 230              		.loc 1 494 0
 231 0014 DA63     		str	r2, [r3, #60]
 232              		.loc 1 495 0
 233 0016 1A64     		str	r2, [r3, #64]
 234              		.loc 1 496 0
 235 0018 5A62     		str	r2, [r3, #36]
 236              	.LVL11:
 237              	.L29:
 238              		.loc 1 500 0
 239 001a 6268     		ldr	r2, [r4, #4]
 240              	.LVL12:
 241 001c E668     		ldr	r6, [r4, #12]
 242 001e 1568     		ldr	r5, [r2, #0]
 243              		.loc 1 505 0
 244 0020 2489     		ldrh	r4, [r4, #8]
 245              	.LVL13:
 246              		.loc 1 510 0
 247 0022 D168     		ldr	r1, [r2, #12]
 248              		.loc 1 506 0
 249 0024 D06A     		ldr	r0, [r2, #44]
 250              		.loc 1 500 0
 251 0026 B6FBF5F5 		udiv	r5, r6, r5
 252 002a 013D     		subs	r5, r5, #1
 253              	.LVL14:
 254              		.loc 1 505 0
 255 002c 013C     		subs	r4, r4, #1
 256              		.loc 1 510 0
 257 002e 01F00F01 		and	r1, r1, #15
 258              		.loc 1 504 0
 259 0032 ADB2     		uxth	r5, r5
 260              	.LVL15:
 261              		.loc 1 505 0
 262 0034 A4B2     		uxth	r4, r4
 263              		.loc 1 510 0
 264 0036 0129     		cmp	r1, #1
 265              		.loc 1 504 0
 266 0038 9D62     		str	r5, [r3, #40]
 267              		.loc 1 505 0
 268 003a DC62     		str	r4, [r3, #44]
 269              		.loc 1 506 0
 270 003c 5860     		str	r0, [r3, #4]
 271              	.LVL16:
 272              		.loc 1 510 0
 273 003e 03D0     		beq	.L30
 274              		.loc 1 509 0
 275 0040 0229     		cmp	r1, #2
 276 0042 0CBF     		ite	eq
 277 0044 0321     		moveq	r1, #3
 278 0046 0021     		movne	r1, #0
 279              	.L30:
 280              	.LVL17:
 281              		.loc 1 518 0
 282 0048 5069     		ldr	r0, [r2, #20]
ARM GAS  C:\Users\DNIEL~1\AppData\Local\Temp\ccK3AMrq.s 			page 6


 283 004a 00F00F04 		and	r4, r0, #15
 284 004e 012C     		cmp	r4, #1
 285 0050 25D0     		beq	.L34
 286 0052 022C     		cmp	r4, #2
 287 0054 21D0     		beq	.L54
 288              		.loc 1 526 0
 289 0056 D069     		ldr	r0, [r2, #28]
 290 0058 00F00F04 		and	r4, r0, #15
 291 005c 012C     		cmp	r4, #1
 292 005e 25D0     		beq	.L37
 293              	.L57:
 294 0060 022C     		cmp	r4, #2
 295 0062 32D0     		beq	.L55
 296              		.loc 1 534 0
 297 0064 506A     		ldr	r0, [r2, #36]
 298 0066 00F00F04 		and	r4, r0, #15
 299 006a 012C     		cmp	r4, #1
 300 006c 25D0     		beq	.L40
 301              	.L58:
 302 006e 022C     		cmp	r4, #2
 303 0070 26D0     		beq	.L56
 304              	.L39:
 305              		.loc 1 583 0
 306 0072 146B     		ldr	r4, [r2, #48]
 307              		.loc 1 582 0
 308 0074 9068     		ldr	r0, [r2, #8]
 309              		.loc 1 579 0
 310 0076 1962     		str	r1, [r3, #32]
 311              		.loc 1 583 0
 312 0078 24F0FF02 		bic	r2, r4, #255
 313              	.LVL18:
 314              		.loc 1 582 0
 315 007c 0028     		cmp	r0, #0
 316 007e 18BF     		it	ne
 317 0080 42F00102 		orrne	r2, r2, #1
 318              		.loc 1 580 0
 319 0084 0121     		movs	r1, #1
 320              	.LVL19:
 321              		.loc 1 581 0
 322 0086 0020     		movs	r0, #0
 323              		.loc 1 580 0
 324 0088 5961     		str	r1, [r3, #20]
 325              		.loc 1 581 0
 326 008a 1861     		str	r0, [r3, #16]
 327              		.loc 1 592 0
 328 008c 8521     		movs	r1, #133
 329              		.loc 1 582 0
 330 008e DA60     		str	r2, [r3, #12]
 331              		.loc 1 588 0
 332 0090 4FF40042 		mov	r2, #32768
 333 0094 5A64     		str	r2, [r3, #68]
 334              		.loc 1 592 0
 335 0096 1960     		str	r1, [r3, #0]
 336 0098 70BD     		pop	{r4, r5, r6, pc}
 337              	.LVL20:
 338              	.L54:
 339              		.loc 1 520 0
ARM GAS  C:\Users\DNIEL~1\AppData\Local\Temp\ccK3AMrq.s 			page 7


 340 009a 41F02001 		orr	r1, r1, #32
 341              	.LVL21:
 342              	.L34:
 343              		.loc 1 526 0
 344 009e D069     		ldr	r0, [r2, #28]
 345 00a0 00F00F04 		and	r4, r0, #15
 346 00a4 012C     		cmp	r4, #1
 347              		.loc 1 522 0
 348 00a6 41F01001 		orr	r1, r1, #16
 349              	.LVL22:
 350              		.loc 1 526 0
 351 00aa D9D1     		bne	.L57
 352              	.L37:
 353              		.loc 1 530 0
 354 00ac 41F48071 		orr	r1, r1, #256
 355              	.LVL23:
 356              	.L59:
 357              		.loc 1 534 0
 358 00b0 506A     		ldr	r0, [r2, #36]
 359 00b2 00F00F04 		and	r4, r0, #15
 360 00b6 012C     		cmp	r4, #1
 361 00b8 D9D1     		bne	.L58
 362              	.L40:
 363              		.loc 1 538 0
 364 00ba 41F48051 		orr	r1, r1, #4096
 365              	.LVL24:
 366 00be D8E7     		b	.L39
 367              	.L56:
 368              		.loc 1 536 0
 369 00c0 41F40051 		orr	r1, r1, #8192
 370              	.LVL25:
 371              		.loc 1 538 0
 372 00c4 41F48051 		orr	r1, r1, #4096
 373              	.LVL26:
 374 00c8 D3E7     		b	.L39
 375              	.L55:
 376              		.loc 1 528 0
 377 00ca 41F40071 		orr	r1, r1, #512
 378              	.LVL27:
 379              		.loc 1 530 0
 380 00ce 41F48071 		orr	r1, r1, #256
 381              	.LVL28:
 382 00d2 EDE7     		b	.L59
 383              	.LVL29:
 384              	.L53:
 385              		.loc 1 406 0
 386 00d4 1248     		ldr	r0, .L61
 387              	.LVL30:
 388 00d6 8442     		cmp	r4, r0
 389 00d8 05D0     		beq	.L60
 390              	.L28:
 391              		.loc 1 484 0
 392 00da 2369     		ldr	r3, [r4, #16]
 393 00dc 46F66805 		movw	r5, #26728
 394 00e0 9D61     		str	r5, [r3, #24]
 395              		.loc 1 486 0
 396 00e2 DD61     		str	r5, [r3, #28]
ARM GAS  C:\Users\DNIEL~1\AppData\Local\Temp\ccK3AMrq.s 			page 8


 397 00e4 99E7     		b	.L29
 398              	.L60:
 399              		.loc 1 407 0
 400 00e6 4FF46055 		mov	r5, #14336
 401 00ea C4F20205 		movt	r5, 16386
 402              		.loc 1 409 0
 403 00ee 1920     		movs	r0, #25
 404              		.loc 1 407 0
 405 00f0 696C     		ldr	r1, [r5, #68]
 406 00f2 41F00106 		orr	r6, r1, #1
 407 00f6 6E64     		str	r6, [r5, #68]
 408              		.loc 1 408 0
 409 00f8 6B6A     		ldr	r3, [r5, #36]
 410 00fa 0026     		movs	r6, #0
 411 00fc 43F00102 		orr	r2, r3, #1
 412 0100 6A62     		str	r2, [r5, #36]
 413              		.loc 1 409 0
 414 0102 7021     		movs	r1, #112
 415              		.loc 1 408 0
 416 0104 6E62     		str	r6, [r5, #36]
 417              		.loc 1 409 0
 418 0106 FFF7FEFF 		bl	nvicEnableVector
 419              	.LVL31:
 420              		.loc 1 411 0
 421 010a 1B20     		movs	r0, #27
 422 010c 7021     		movs	r1, #112
 423 010e FFF7FEFF 		bl	nvicEnableVector
 424              	.LVL32:
 425              		.loc 1 416 0
 426 0112 4FF4F440 		mov	r0, #31232
 427 0116 C0F60320 		movt	r0, 2563
 428 011a E060     		str	r0, [r4, #12]
 429 011c DDE7     		b	.L28
 430              	.L62:
 431 011e 00BF     		.align	2
 432              	.L61:
 433 0120 00000000 		.word	.LANCHOR0
 434              		.cfi_endproc
 435              	.LFE121:
 436              		.size	pwm_lld_start, .-pwm_lld_start
 437 0124 AFF30080 		.section	.text.pwm_lld_stop,"ax",%progbits
 437      AFF30080 
 437      AFF30080 
 438              		.align	2
 439              		.p2align 4,,15
 440              		.global	pwm_lld_stop
 441              		.thumb
 442              		.thumb_func
 443              		.type	pwm_lld_stop, %function
 444              	pwm_lld_stop:
 445              	.LFB122:
 446              		.loc 1 603 0
 447              		.cfi_startproc
 448              		@ args = 0, pretend = 0, frame = 0
 449              		@ frame_needed = 0, uses_anonymous_args = 0
 450              	.LVL33:
 451 0000 08B5     		push	{r3, lr}
ARM GAS  C:\Users\DNIEL~1\AppData\Local\Temp\ccK3AMrq.s 			page 9


 452              	.LCFI4:
 453              		.cfi_def_cfa_offset 8
 454              		.cfi_offset 3, -8
 455              		.cfi_offset 14, -4
 456              		.loc 1 606 0
 457 0002 0378     		ldrb	r3, [r0, #0]	@ zero_extendqisi2
 458 0004 022B     		cmp	r3, #2
 459 0006 00D0     		beq	.L67
 460              	.LVL34:
 461              	.L63:
 462 0008 08BD     		pop	{r3, pc}
 463              	.LVL35:
 464              	.L67:
 465              		.loc 1 615 0
 466 000a 0C4B     		ldr	r3, .L68
 467              		.loc 1 607 0
 468 000c 0169     		ldr	r1, [r0, #16]
 469 000e 0022     		movs	r2, #0
 470              		.loc 1 615 0
 471 0010 9842     		cmp	r0, r3
 472              		.loc 1 607 0
 473 0012 0A60     		str	r2, [r1, #0]
 474              		.loc 1 608 0
 475 0014 CA60     		str	r2, [r1, #12]
 476              		.loc 1 609 0
 477 0016 0A61     		str	r2, [r1, #16]
 478              		.loc 1 611 0
 479 0018 4A64     		str	r2, [r1, #68]
 480              		.loc 1 615 0
 481 001a F5D1     		bne	.L63
 482              		.loc 1 616 0
 483 001c 1920     		movs	r0, #25
 484              	.LVL36:
 485 001e FFF7FEFF 		bl	nvicDisableVector
 486              	.LVL37:
 487              		.loc 1 617 0
 488 0022 1B20     		movs	r0, #27
 489 0024 FFF7FEFF 		bl	nvicDisableVector
 490              	.LVL38:
 491              		.loc 1 618 0
 492 0028 4FF46050 		mov	r0, #14336
 493 002c C4F20200 		movt	r0, 16386
 494 0030 416C     		ldr	r1, [r0, #68]
 495 0032 21F00102 		bic	r2, r1, #1
 496 0036 4264     		str	r2, [r0, #68]
 497 0038 E6E7     		b	.L63
 498              	.L69:
 499 003a 00BF     		.align	2
 500              	.L68:
 501 003c 00000000 		.word	.LANCHOR0
 502              		.cfi_endproc
 503              	.LFE122:
 504              		.size	pwm_lld_stop, .-pwm_lld_stop
 505              		.section	.text.pwm_lld_enable_channel,"ax",%progbits
 506              		.align	2
 507              		.p2align 4,,15
 508              		.global	pwm_lld_enable_channel
ARM GAS  C:\Users\DNIEL~1\AppData\Local\Temp\ccK3AMrq.s 			page 10


 509              		.thumb
 510              		.thumb_func
 511              		.type	pwm_lld_enable_channel, %function
 512              	pwm_lld_enable_channel:
 513              	.LFB123:
 514              		.loc 1 675 0
 515              		.cfi_startproc
 516              		@ args = 0, pretend = 0, frame = 0
 517              		@ frame_needed = 0, uses_anonymous_args = 0
 518              		@ link register save eliminated.
 519              	.LVL39:
 520 0000 10B4     		push	{r4}
 521              	.LCFI5:
 522              		.cfi_def_cfa_offset 4
 523              		.cfi_offset 4, -4
 524              		.loc 1 680 0
 525 0002 4468     		ldr	r4, [r0, #4]
 526              		.loc 1 677 0
 527 0004 0369     		ldr	r3, [r0, #16]
 528              		.loc 1 680 0
 529 0006 04EBC100 		add	r0, r4, r1, lsl #3
 530              	.LVL40:
 531              		.loc 1 677 0
 532 000a 01F10C04 		add	r4, r1, #12
 533 000e 03EB8404 		add	r4, r3, r4, lsl #2
 534              		.loc 1 680 0
 535 0012 0069     		ldr	r0, [r0, #16]
 536              		.loc 1 677 0
 537 0014 6260     		str	r2, [r4, #4]
 538              		.loc 1 680 0
 539 0016 48B1     		cbz	r0, .L70
 540              	.LBB2:
 541              		.loc 1 684 0
 542 0018 0220     		movs	r0, #2
 543              		.loc 1 681 0
 544 001a DA68     		ldr	r2, [r3, #12]
 545              	.LVL41:
 546              		.loc 1 684 0
 547 001c 00FA01F1 		lsl	r1, r0, r1
 548              	.LVL42:
 549 0020 1142     		tst	r1, r2
 550 0022 03D1     		bne	.L70
 551              		.loc 1 685 0
 552 0024 0A43     		orrs	r2, r2, r1
 553              	.LVL43:
 554              		.loc 1 686 0
 555 0026 C843     		mvns	r0, r1
 556              		.loc 1 685 0
 557 0028 DA60     		str	r2, [r3, #12]
 558              		.loc 1 686 0
 559 002a 1861     		str	r0, [r3, #16]
 560              	.L70:
 561              	.LBE2:
 562              		.loc 1 689 0
 563 002c 10BC     		pop	{r4}
 564 002e 7047     		bx	lr
 565              		.cfi_endproc
ARM GAS  C:\Users\DNIEL~1\AppData\Local\Temp\ccK3AMrq.s 			page 11


 566              	.LFE123:
 567              		.size	pwm_lld_enable_channel, .-pwm_lld_enable_channel
 568              		.section	.text.pwm_lld_disable_channel,"ax",%progbits
 569              		.align	2
 570              		.p2align 4,,15
 571              		.global	pwm_lld_disable_channel
 572              		.thumb
 573              		.thumb_func
 574              		.type	pwm_lld_disable_channel, %function
 575              	pwm_lld_disable_channel:
 576              	.LFB124:
 577              		.loc 1 703 0
 578              		.cfi_startproc
 579              		@ args = 0, pretend = 0, frame = 0
 580              		@ frame_needed = 0, uses_anonymous_args = 0
 581              		@ link register save eliminated.
 582              	.LVL44:
 583              		.loc 1 705 0
 584 0000 0369     		ldr	r3, [r0, #16]
 585 0002 01F10C02 		add	r2, r1, #12
 586 0006 03EB8202 		add	r2, r3, r2, lsl #2
 587 000a 0020     		movs	r0, #0
 588              	.LVL45:
 589 000c 5060     		str	r0, [r2, #4]
 590              		.loc 1 706 0
 591 000e DA68     		ldr	r2, [r3, #12]
 592 0010 0220     		movs	r0, #2
 593 0012 00FA01F1 		lsl	r1, r0, r1
 594              	.LVL46:
 595 0016 22EA0102 		bic	r2, r2, r1
 596 001a DA60     		str	r2, [r3, #12]
 597 001c 7047     		bx	lr
 598              		.cfi_endproc
 599              	.LFE124:
 600              		.size	pwm_lld_disable_channel, .-pwm_lld_disable_channel
 601              		.global	PWMD1
 602 001e 00BF     		.section	.bss.PWMD1,"aw",%nobits
 603              		.align	2
 604              		.set	.LANCHOR0,. + 0
 605              		.type	PWMD1, %object
 606              		.size	PWMD1, 20
 607              	PWMD1:
 608 0000 00000000 		.space	20
 608      00000000 
 608      00000000 
 608      00000000 
 608      00000000 
 609              		.text
 610              	.Letext0:
 611              		.file 2 "c:\\chibistudio\\tools\\gnu tools arm embedded\\4.7 2014q2\\bin\\../lib/gcc/arm-none-eabi
 612              		.file 3 "../../../Chibios/os/hal/platforms/STM32F4xx/stm32f4xx.h"
 613              		.file 4 "../../../Chibios/os/hal/include/pwm.h"
 614              		.file 5 "../../../Chibios/os/hal/platforms/STM32/TIMv1/pwm_lld.h"
 615              		.file 6 "../../../Chibios/os/hal/platforms/STM32/TIMv1/stm32_tim.h"
 616              		.file 7 "../../../Chibios/os/ports/common/ARMCMx/CMSIS/include/core_cm4.h"
 617              		.file 8 "../../../Chibios/os/ports/common/ARMCMx/nvic.h"
 618              		.file 9 "../../../Chibios/os/ports/GCC/ARMCMx/chcore_v7m.h"
ARM GAS  C:\Users\DNIEL~1\AppData\Local\Temp\ccK3AMrq.s 			page 12


 619              		.section	.debug_info,"",%progbits
 620              	.Ldebug_info0:
 621 0000 6C080000 		.4byte	0x86c
 622 0004 0200     		.2byte	0x2
 623 0006 00000000 		.4byte	.Ldebug_abbrev0
 624 000a 04       		.byte	0x4
 625 000b 01       		.uleb128 0x1
 626 000c 4B020000 		.4byte	.LASF92
 627 0010 01       		.byte	0x1
 628 0011 A1020000 		.4byte	.LASF93
 629 0015 A1000000 		.4byte	.LASF94
 630 0019 00000000 		.4byte	.Ldebug_ranges0+0
 631 001d 00000000 		.4byte	0
 632 0021 00000000 		.4byte	0
 633 0025 00000000 		.4byte	.Ldebug_line0
 634 0029 02       		.uleb128 0x2
 635 002a 04       		.byte	0x4
 636 002b 07       		.byte	0x7
 637 002c 27020000 		.4byte	.LASF0
 638 0030 03       		.uleb128 0x3
 639 0031 04       		.byte	0x4
 640 0032 05       		.byte	0x5
 641 0033 696E7400 		.ascii	"int\000"
 642 0037 02       		.uleb128 0x2
 643 0038 01       		.byte	0x1
 644 0039 06       		.byte	0x6
 645 003a 04020000 		.4byte	.LASF1
 646 003e 04       		.uleb128 0x4
 647 003f DC000000 		.4byte	.LASF4
 648 0043 02       		.byte	0x2
 649 0044 2A       		.byte	0x2a
 650 0045 49000000 		.4byte	0x49
 651 0049 02       		.uleb128 0x2
 652 004a 01       		.byte	0x1
 653 004b 08       		.byte	0x8
 654 004c C6010000 		.4byte	.LASF2
 655 0050 02       		.uleb128 0x2
 656 0051 02       		.byte	0x2
 657 0052 05       		.byte	0x5
 658 0053 3E000000 		.4byte	.LASF3
 659 0057 04       		.uleb128 0x4
 660 0058 3D020000 		.4byte	.LASF5
 661 005c 02       		.byte	0x2
 662 005d 36       		.byte	0x36
 663 005e 62000000 		.4byte	0x62
 664 0062 02       		.uleb128 0x2
 665 0063 02       		.byte	0x2
 666 0064 07       		.byte	0x7
 667 0065 D9020000 		.4byte	.LASF6
 668 0069 04       		.uleb128 0x4
 669 006a 27030000 		.4byte	.LASF7
 670 006e 02       		.byte	0x2
 671 006f 4F       		.byte	0x4f
 672 0070 74000000 		.4byte	0x74
 673 0074 02       		.uleb128 0x2
 674 0075 04       		.byte	0x4
 675 0076 05       		.byte	0x5
ARM GAS  C:\Users\DNIEL~1\AppData\Local\Temp\ccK3AMrq.s 			page 13


 676 0077 33010000 		.4byte	.LASF8
 677 007b 04       		.uleb128 0x4
 678 007c F5000000 		.4byte	.LASF9
 679 0080 02       		.byte	0x2
 680 0081 50       		.byte	0x50
 681 0082 86000000 		.4byte	0x86
 682 0086 02       		.uleb128 0x2
 683 0087 04       		.byte	0x4
 684 0088 07       		.byte	0x7
 685 0089 58010000 		.4byte	.LASF10
 686 008d 02       		.uleb128 0x2
 687 008e 08       		.byte	0x8
 688 008f 05       		.byte	0x5
 689 0090 25010000 		.4byte	.LASF11
 690 0094 02       		.uleb128 0x2
 691 0095 08       		.byte	0x8
 692 0096 07       		.byte	0x7
 693 0097 10020000 		.4byte	.LASF12
 694 009b 02       		.uleb128 0x2
 695 009c 01       		.byte	0x1
 696 009d 02       		.byte	0x2
 697 009e 2F030000 		.4byte	.LASF13
 698 00a2 05       		.uleb128 0x5
 699 00a3 7B000000 		.4byte	0x7b
 700 00a7 02       		.uleb128 0x2
 701 00a8 04       		.byte	0x4
 702 00a9 07       		.byte	0x7
 703 00aa 51000000 		.4byte	.LASF14
 704 00ae 02       		.uleb128 0x2
 705 00af 01       		.byte	0x1
 706 00b0 08       		.byte	0x8
 707 00b1 03030000 		.4byte	.LASF15
 708 00b5 06       		.uleb128 0x6
 709 00b6 7B000000 		.4byte	0x7b
 710 00ba C5000000 		.4byte	0xc5
 711 00be 07       		.uleb128 0x7
 712 00bf A7000000 		.4byte	0xa7
 713 00c3 01       		.byte	0x1
 714 00c4 00       		.byte	0
 715 00c5 06       		.uleb128 0x6
 716 00c6 7B000000 		.4byte	0x7b
 717 00ca D5000000 		.4byte	0xd5
 718 00ce 07       		.uleb128 0x7
 719 00cf A7000000 		.4byte	0xa7
 720 00d3 03       		.byte	0x3
 721 00d4 00       		.byte	0
 722 00d5 05       		.uleb128 0x5
 723 00d6 69000000 		.4byte	0x69
 724 00da 08       		.uleb128 0x8
 725 00db 90       		.byte	0x90
 726 00dc 03       		.byte	0x3
 727 00dd 5804     		.2byte	0x458
 728 00df C7020000 		.4byte	0x2c7
 729 00e3 09       		.uleb128 0x9
 730 00e4 435200   		.ascii	"CR\000"
 731 00e7 03       		.byte	0x3
 732 00e8 5A04     		.2byte	0x45a
ARM GAS  C:\Users\DNIEL~1\AppData\Local\Temp\ccK3AMrq.s 			page 14


 733 00ea A2000000 		.4byte	0xa2
 734 00ee 02       		.byte	0x2
 735 00ef 23       		.byte	0x23
 736 00f0 00       		.uleb128 0
 737 00f1 0A       		.uleb128 0xa
 738 00f2 99020000 		.4byte	.LASF16
 739 00f6 03       		.byte	0x3
 740 00f7 5B04     		.2byte	0x45b
 741 00f9 A2000000 		.4byte	0xa2
 742 00fd 02       		.byte	0x2
 743 00fe 23       		.byte	0x23
 744 00ff 04       		.uleb128 0x4
 745 0100 0A       		.uleb128 0xa
 746 0101 9C000000 		.4byte	.LASF17
 747 0105 03       		.byte	0x3
 748 0106 5C04     		.2byte	0x45c
 749 0108 A2000000 		.4byte	0xa2
 750 010c 02       		.byte	0x2
 751 010d 23       		.byte	0x23
 752 010e 08       		.uleb128 0x8
 753 010f 09       		.uleb128 0x9
 754 0110 43495200 		.ascii	"CIR\000"
 755 0114 03       		.byte	0x3
 756 0115 5D04     		.2byte	0x45d
 757 0117 A2000000 		.4byte	0xa2
 758 011b 02       		.byte	0x2
 759 011c 23       		.byte	0x23
 760 011d 0C       		.uleb128 0xc
 761 011e 0A       		.uleb128 0xa
 762 011f EC000000 		.4byte	.LASF18
 763 0123 03       		.byte	0x3
 764 0124 5E04     		.2byte	0x45e
 765 0126 A2000000 		.4byte	0xa2
 766 012a 02       		.byte	0x2
 767 012b 23       		.byte	0x23
 768 012c 10       		.uleb128 0x10
 769 012d 0A       		.uleb128 0xa
 770 012e 34020000 		.4byte	.LASF19
 771 0132 03       		.byte	0x3
 772 0133 5F04     		.2byte	0x45f
 773 0135 A2000000 		.4byte	0xa2
 774 0139 02       		.byte	0x2
 775 013a 23       		.byte	0x23
 776 013b 14       		.uleb128 0x14
 777 013c 0A       		.uleb128 0xa
 778 013d F5030000 		.4byte	.LASF20
 779 0141 03       		.byte	0x3
 780 0142 6004     		.2byte	0x460
 781 0144 A2000000 		.4byte	0xa2
 782 0148 02       		.byte	0x2
 783 0149 23       		.byte	0x23
 784 014a 18       		.uleb128 0x18
 785 014b 0A       		.uleb128 0xa
 786 014c 47030000 		.4byte	.LASF21
 787 0150 03       		.byte	0x3
 788 0151 6104     		.2byte	0x461
 789 0153 7B000000 		.4byte	0x7b
ARM GAS  C:\Users\DNIEL~1\AppData\Local\Temp\ccK3AMrq.s 			page 15


 790 0157 02       		.byte	0x2
 791 0158 23       		.byte	0x23
 792 0159 1C       		.uleb128 0x1c
 793 015a 0A       		.uleb128 0xa
 794 015b 1C000000 		.4byte	.LASF22
 795 015f 03       		.byte	0x3
 796 0160 6204     		.2byte	0x462
 797 0162 A2000000 		.4byte	0xa2
 798 0166 02       		.byte	0x2
 799 0167 23       		.byte	0x23
 800 0168 20       		.uleb128 0x20
 801 0169 0A       		.uleb128 0xa
 802 016a 71010000 		.4byte	.LASF23
 803 016e 03       		.byte	0x3
 804 016f 6304     		.2byte	0x463
 805 0171 A2000000 		.4byte	0xa2
 806 0175 02       		.byte	0x2
 807 0176 23       		.byte	0x23
 808 0177 24       		.uleb128 0x24
 809 0178 0A       		.uleb128 0xa
 810 0179 51030000 		.4byte	.LASF24
 811 017d 03       		.byte	0x3
 812 017e 6404     		.2byte	0x464
 813 0180 B5000000 		.4byte	0xb5
 814 0184 02       		.byte	0x2
 815 0185 23       		.byte	0x23
 816 0186 28       		.uleb128 0x28
 817 0187 0A       		.uleb128 0xa
 818 0188 93030000 		.4byte	.LASF25
 819 018c 03       		.byte	0x3
 820 018d 6504     		.2byte	0x465
 821 018f A2000000 		.4byte	0xa2
 822 0193 02       		.byte	0x2
 823 0194 23       		.byte	0x23
 824 0195 30       		.uleb128 0x30
 825 0196 0A       		.uleb128 0xa
 826 0197 25000000 		.4byte	.LASF26
 827 019b 03       		.byte	0x3
 828 019c 6604     		.2byte	0x466
 829 019e A2000000 		.4byte	0xa2
 830 01a2 02       		.byte	0x2
 831 01a3 23       		.byte	0x23
 832 01a4 34       		.uleb128 0x34
 833 01a5 0A       		.uleb128 0xa
 834 01a6 11010000 		.4byte	.LASF27
 835 01aa 03       		.byte	0x3
 836 01ab 6704     		.2byte	0x467
 837 01ad A2000000 		.4byte	0xa2
 838 01b1 02       		.byte	0x2
 839 01b2 23       		.byte	0x23
 840 01b3 38       		.uleb128 0x38
 841 01b4 0A       		.uleb128 0xa
 842 01b5 5B030000 		.4byte	.LASF28
 843 01b9 03       		.byte	0x3
 844 01ba 6804     		.2byte	0x468
 845 01bc 7B000000 		.4byte	0x7b
 846 01c0 02       		.byte	0x2
ARM GAS  C:\Users\DNIEL~1\AppData\Local\Temp\ccK3AMrq.s 			page 16


 847 01c1 23       		.byte	0x23
 848 01c2 3C       		.uleb128 0x3c
 849 01c3 0A       		.uleb128 0xa
 850 01c4 E4000000 		.4byte	.LASF29
 851 01c8 03       		.byte	0x3
 852 01c9 6904     		.2byte	0x469
 853 01cb A2000000 		.4byte	0xa2
 854 01cf 02       		.byte	0x2
 855 01d0 23       		.byte	0x23
 856 01d1 40       		.uleb128 0x40
 857 01d2 0A       		.uleb128 0xa
 858 01d3 EB010000 		.4byte	.LASF30
 859 01d7 03       		.byte	0x3
 860 01d8 6A04     		.2byte	0x46a
 861 01da A2000000 		.4byte	0xa2
 862 01de 02       		.byte	0x2
 863 01df 23       		.byte	0x23
 864 01e0 44       		.uleb128 0x44
 865 01e1 0A       		.uleb128 0xa
 866 01e2 65030000 		.4byte	.LASF31
 867 01e6 03       		.byte	0x3
 868 01e7 6B04     		.2byte	0x46b
 869 01e9 B5000000 		.4byte	0xb5
 870 01ed 02       		.byte	0x2
 871 01ee 23       		.byte	0x23
 872 01ef 48       		.uleb128 0x48
 873 01f0 0A       		.uleb128 0xa
 874 01f1 00000000 		.4byte	.LASF32
 875 01f5 03       		.byte	0x3
 876 01f6 6C04     		.2byte	0x46c
 877 01f8 A2000000 		.4byte	0xa2
 878 01fc 02       		.byte	0x2
 879 01fd 23       		.byte	0x23
 880 01fe 50       		.uleb128 0x50
 881 01ff 0A       		.uleb128 0xa
 882 0200 3D030000 		.4byte	.LASF33
 883 0204 03       		.byte	0x3
 884 0205 6D04     		.2byte	0x46d
 885 0207 A2000000 		.4byte	0xa2
 886 020b 02       		.byte	0x2
 887 020c 23       		.byte	0x23
 888 020d 54       		.uleb128 0x54
 889 020e 0A       		.uleb128 0xa
 890 020f 8B000000 		.4byte	.LASF34
 891 0213 03       		.byte	0x3
 892 0214 6E04     		.2byte	0x46e
 893 0216 A2000000 		.4byte	0xa2
 894 021a 02       		.byte	0x2
 895 021b 23       		.byte	0x23
 896 021c 58       		.uleb128 0x58
 897 021d 0A       		.uleb128 0xa
 898 021e 6F030000 		.4byte	.LASF35
 899 0222 03       		.byte	0x3
 900 0223 6F04     		.2byte	0x46f
 901 0225 7B000000 		.4byte	0x7b
 902 0229 02       		.byte	0x2
 903 022a 23       		.byte	0x23
ARM GAS  C:\Users\DNIEL~1\AppData\Local\Temp\ccK3AMrq.s 			page 17


 904 022b 5C       		.uleb128 0x5c
 905 022c 0A       		.uleb128 0xa
 906 022d EC020000 		.4byte	.LASF36
 907 0231 03       		.byte	0x3
 908 0232 7004     		.2byte	0x470
 909 0234 A2000000 		.4byte	0xa2
 910 0238 02       		.byte	0x2
 911 0239 23       		.byte	0x23
 912 023a 60       		.uleb128 0x60
 913 023b 0A       		.uleb128 0xa
 914 023c 39040000 		.4byte	.LASF37
 915 0240 03       		.byte	0x3
 916 0241 7104     		.2byte	0x471
 917 0243 A2000000 		.4byte	0xa2
 918 0247 02       		.byte	0x2
 919 0248 23       		.byte	0x23
 920 0249 64       		.uleb128 0x64
 921 024a 0A       		.uleb128 0xa
 922 024b 79030000 		.4byte	.LASF38
 923 024f 03       		.byte	0x3
 924 0250 7204     		.2byte	0x472
 925 0252 B5000000 		.4byte	0xb5
 926 0256 02       		.byte	0x2
 927 0257 23       		.byte	0x23
 928 0258 68       		.uleb128 0x68
 929 0259 0A       		.uleb128 0xa
 930 025a 5A000000 		.4byte	.LASF39
 931 025e 03       		.byte	0x3
 932 025f 7304     		.2byte	0x473
 933 0261 A2000000 		.4byte	0xa2
 934 0265 02       		.byte	0x2
 935 0266 23       		.byte	0x23
 936 0267 70       		.uleb128 0x70
 937 0268 09       		.uleb128 0x9
 938 0269 43535200 		.ascii	"CSR\000"
 939 026d 03       		.byte	0x3
 940 026e 7404     		.2byte	0x474
 941 0270 A2000000 		.4byte	0xa2
 942 0274 02       		.byte	0x2
 943 0275 23       		.byte	0x23
 944 0276 74       		.uleb128 0x74
 945 0277 0A       		.uleb128 0xa
 946 0278 83030000 		.4byte	.LASF40
 947 027c 03       		.byte	0x3
 948 027d 7504     		.2byte	0x475
 949 027f B5000000 		.4byte	0xb5
 950 0283 02       		.byte	0x2
 951 0284 23       		.byte	0x23
 952 0285 78       		.uleb128 0x78
 953 0286 0A       		.uleb128 0xa
 954 0287 85000000 		.4byte	.LASF41
 955 028b 03       		.byte	0x3
 956 028c 7604     		.2byte	0x476
 957 028e A2000000 		.4byte	0xa2
 958 0292 03       		.byte	0x3
 959 0293 23       		.byte	0x23
 960 0294 8001     		.uleb128 0x80
ARM GAS  C:\Users\DNIEL~1\AppData\Local\Temp\ccK3AMrq.s 			page 18


 961 0296 0A       		.uleb128 0xa
 962 0297 5F000000 		.4byte	.LASF42
 963 029b 03       		.byte	0x3
 964 029c 7704     		.2byte	0x477
 965 029e A2000000 		.4byte	0xa2
 966 02a2 03       		.byte	0x3
 967 02a3 23       		.byte	0x23
 968 02a4 8401     		.uleb128 0x84
 969 02a6 0A       		.uleb128 0xa
 970 02a7 15040000 		.4byte	.LASF43
 971 02ab 03       		.byte	0x3
 972 02ac 7804     		.2byte	0x478
 973 02ae A2000000 		.4byte	0xa2
 974 02b2 03       		.byte	0x3
 975 02b3 23       		.byte	0x23
 976 02b4 8801     		.uleb128 0x88
 977 02b6 0A       		.uleb128 0xa
 978 02b7 03010000 		.4byte	.LASF44
 979 02bb 03       		.byte	0x3
 980 02bc 7904     		.2byte	0x479
 981 02be A2000000 		.4byte	0xa2
 982 02c2 03       		.byte	0x3
 983 02c3 23       		.byte	0x23
 984 02c4 8C01     		.uleb128 0x8c
 985 02c6 00       		.byte	0
 986 02c7 0B       		.uleb128 0xb
 987 02c8 19010000 		.4byte	.LASF45
 988 02cc 03       		.byte	0x3
 989 02cd 7B04     		.2byte	0x47b
 990 02cf DA000000 		.4byte	0xda
 991 02d3 0C       		.uleb128 0xc
 992 02d4 01       		.byte	0x1
 993 02d5 04       		.byte	0x4
 994 02d6 55       		.byte	0x55
 995 02d7 EE020000 		.4byte	0x2ee
 996 02db 0D       		.uleb128 0xd
 997 02dc BB010000 		.4byte	.LASF46
 998 02e0 00       		.sleb128 0
 999 02e1 0D       		.uleb128 0xd
 1000 02e2 C6030000 		.4byte	.LASF47
 1001 02e6 01       		.sleb128 1
 1002 02e7 0D       		.uleb128 0xd
 1003 02e8 BC030000 		.4byte	.LASF48
 1004 02ec 02       		.sleb128 2
 1005 02ed 00       		.byte	0
 1006 02ee 04       		.uleb128 0x4
 1007 02ef 20040000 		.4byte	.LASF49
 1008 02f3 04       		.byte	0x4
 1009 02f4 59       		.byte	0x59
 1010 02f5 D3020000 		.4byte	0x2d3
 1011 02f9 04       		.uleb128 0x4
 1012 02fa 1D030000 		.4byte	.LASF50
 1013 02fe 04       		.byte	0x4
 1014 02ff 5E       		.byte	0x5e
 1015 0300 04030000 		.4byte	0x304
 1016 0304 0E       		.uleb128 0xe
 1017 0305 1D030000 		.4byte	.LASF50
ARM GAS  C:\Users\DNIEL~1\AppData\Local\Temp\ccK3AMrq.s 			page 19


 1018 0309 14       		.byte	0x14
 1019 030a 05       		.byte	0x5
 1020 030b 6F01     		.2byte	0x16f
 1021 030d 5D030000 		.4byte	0x35d
 1022 0311 0A       		.uleb128 0xa
 1023 0312 32000000 		.4byte	.LASF51
 1024 0316 05       		.byte	0x5
 1025 0317 7301     		.2byte	0x173
 1026 0319 EE020000 		.4byte	0x2ee
 1027 031d 02       		.byte	0x2
 1028 031e 23       		.byte	0x23
 1029 031f 00       		.uleb128 0
 1030 0320 0A       		.uleb128 0xa
 1031 0321 95000000 		.4byte	.LASF52
 1032 0325 05       		.byte	0x5
 1033 0326 7701     		.2byte	0x177
 1034 0328 AC050000 		.4byte	0x5ac
 1035 032c 02       		.byte	0x2
 1036 032d 23       		.byte	0x23
 1037 032e 04       		.uleb128 0x4
 1038 032f 0A       		.uleb128 0xa
 1039 0330 6A010000 		.4byte	.LASF53
 1040 0334 05       		.byte	0x5
 1041 0335 7B01     		.2byte	0x17b
 1042 0337 EC040000 		.4byte	0x4ec
 1043 033b 02       		.byte	0x2
 1044 033c 23       		.byte	0x23
 1045 033d 08       		.uleb128 0x8
 1046 033e 0A       		.uleb128 0xa
 1047 033f 8D030000 		.4byte	.LASF54
 1048 0343 05       		.byte	0x5
 1049 0344 8301     		.2byte	0x183
 1050 0346 7B000000 		.4byte	0x7b
 1051 034a 02       		.byte	0x2
 1052 034b 23       		.byte	0x23
 1053 034c 0C       		.uleb128 0xc
 1054 034d 09       		.uleb128 0x9
 1055 034e 74696D00 		.ascii	"tim\000"
 1056 0352 05       		.byte	0x5
 1057 0353 8701     		.2byte	0x187
 1058 0355 B7050000 		.4byte	0x5b7
 1059 0359 02       		.byte	0x2
 1060 035a 23       		.byte	0x23
 1061 035b 10       		.uleb128 0x10
 1062 035c 00       		.byte	0
 1063 035d 04       		.uleb128 0x4
 1064 035e 2B040000 		.4byte	.LASF55
 1065 0362 04       		.byte	0x4
 1066 0363 65       		.byte	0x65
 1067 0364 68030000 		.4byte	0x368
 1068 0368 0F       		.uleb128 0xf
 1069 0369 04       		.byte	0x4
 1070 036a 6E030000 		.4byte	0x36e
 1071 036e 10       		.uleb128 0x10
 1072 036f 01       		.byte	0x1
 1073 0370 7A030000 		.4byte	0x37a
 1074 0374 11       		.uleb128 0x11
ARM GAS  C:\Users\DNIEL~1\AppData\Local\Temp\ccK3AMrq.s 			page 20


 1075 0375 7A030000 		.4byte	0x37a
 1076 0379 00       		.byte	0
 1077 037a 0F       		.uleb128 0xf
 1078 037b 04       		.byte	0x4
 1079 037c F9020000 		.4byte	0x2f9
 1080 0380 08       		.uleb128 0x8
 1081 0381 60       		.byte	0x60
 1082 0382 06       		.byte	0x6
 1083 0383 9E01     		.2byte	0x19e
 1084 0385 C3040000 		.4byte	0x4c3
 1085 0389 09       		.uleb128 0x9
 1086 038a 43523100 		.ascii	"CR1\000"
 1087 038e 06       		.byte	0x6
 1088 038f 9F01     		.2byte	0x19f
 1089 0391 A2000000 		.4byte	0xa2
 1090 0395 02       		.byte	0x2
 1091 0396 23       		.byte	0x23
 1092 0397 00       		.uleb128 0
 1093 0398 09       		.uleb128 0x9
 1094 0399 43523200 		.ascii	"CR2\000"
 1095 039d 06       		.byte	0x6
 1096 039e A001     		.2byte	0x1a0
 1097 03a0 A2000000 		.4byte	0xa2
 1098 03a4 02       		.byte	0x2
 1099 03a5 23       		.byte	0x23
 1100 03a6 04       		.uleb128 0x4
 1101 03a7 0A       		.uleb128 0xa
 1102 03a8 B6010000 		.4byte	.LASF56
 1103 03ac 06       		.byte	0x6
 1104 03ad A101     		.2byte	0x1a1
 1105 03af A2000000 		.4byte	0xa2
 1106 03b3 02       		.byte	0x2
 1107 03b4 23       		.byte	0x23
 1108 03b5 08       		.uleb128 0x8
 1109 03b6 0A       		.uleb128 0xa
 1110 03b7 94020000 		.4byte	.LASF57
 1111 03bb 06       		.byte	0x6
 1112 03bc A201     		.2byte	0x1a2
 1113 03be A2000000 		.4byte	0xa2
 1114 03c2 02       		.byte	0x2
 1115 03c3 23       		.byte	0x23
 1116 03c4 0C       		.uleb128 0xc
 1117 03c5 09       		.uleb128 0x9
 1118 03c6 535200   		.ascii	"SR\000"
 1119 03c9 06       		.byte	0x6
 1120 03ca A301     		.2byte	0x1a3
 1121 03cc A2000000 		.4byte	0xa2
 1122 03d0 02       		.byte	0x2
 1123 03d1 23       		.byte	0x23
 1124 03d2 10       		.uleb128 0x10
 1125 03d3 09       		.uleb128 0x9
 1126 03d4 45475200 		.ascii	"EGR\000"
 1127 03d8 06       		.byte	0x6
 1128 03d9 A401     		.2byte	0x1a4
 1129 03db A2000000 		.4byte	0xa2
 1130 03df 02       		.byte	0x2
 1131 03e0 23       		.byte	0x23
ARM GAS  C:\Users\DNIEL~1\AppData\Local\Temp\ccK3AMrq.s 			page 21


 1132 03e1 14       		.uleb128 0x14
 1133 03e2 0A       		.uleb128 0xa
 1134 03e3 8D010000 		.4byte	.LASF58
 1135 03e7 06       		.byte	0x6
 1136 03e8 A501     		.2byte	0x1a5
 1137 03ea A2000000 		.4byte	0xa2
 1138 03ee 02       		.byte	0x2
 1139 03ef 23       		.byte	0x23
 1140 03f0 18       		.uleb128 0x18
 1141 03f1 0A       		.uleb128 0xa
 1142 03f2 38000000 		.4byte	.LASF59
 1143 03f6 06       		.byte	0x6
 1144 03f7 A601     		.2byte	0x1a6
 1145 03f9 A2000000 		.4byte	0xa2
 1146 03fd 02       		.byte	0x2
 1147 03fe 23       		.byte	0x23
 1148 03ff 1C       		.uleb128 0x1c
 1149 0400 0A       		.uleb128 0xa
 1150 0401 0A000000 		.4byte	.LASF60
 1151 0405 06       		.byte	0x6
 1152 0406 A701     		.2byte	0x1a7
 1153 0408 A2000000 		.4byte	0xa2
 1154 040c 02       		.byte	0x2
 1155 040d 23       		.byte	0x23
 1156 040e 20       		.uleb128 0x20
 1157 040f 09       		.uleb128 0x9
 1158 0410 434E5400 		.ascii	"CNT\000"
 1159 0414 06       		.byte	0x6
 1160 0415 A801     		.2byte	0x1a8
 1161 0417 A2000000 		.4byte	0xa2
 1162 041b 02       		.byte	0x2
 1163 041c 23       		.byte	0x23
 1164 041d 24       		.uleb128 0x24
 1165 041e 09       		.uleb128 0x9
 1166 041f 50534300 		.ascii	"PSC\000"
 1167 0423 06       		.byte	0x6
 1168 0424 A901     		.2byte	0x1a9
 1169 0426 A2000000 		.4byte	0xa2
 1170 042a 02       		.byte	0x2
 1171 042b 23       		.byte	0x23
 1172 042c 28       		.uleb128 0x28
 1173 042d 09       		.uleb128 0x9
 1174 042e 41525200 		.ascii	"ARR\000"
 1175 0432 06       		.byte	0x6
 1176 0433 AA01     		.2byte	0x1aa
 1177 0435 A2000000 		.4byte	0xa2
 1178 0439 02       		.byte	0x2
 1179 043a 23       		.byte	0x23
 1180 043b 2C       		.uleb128 0x2c
 1181 043c 09       		.uleb128 0x9
 1182 043d 52435200 		.ascii	"RCR\000"
 1183 0441 06       		.byte	0x6
 1184 0442 AB01     		.2byte	0x1ab
 1185 0444 A2000000 		.4byte	0xa2
 1186 0448 02       		.byte	0x2
 1187 0449 23       		.byte	0x23
 1188 044a 30       		.uleb128 0x30
ARM GAS  C:\Users\DNIEL~1\AppData\Local\Temp\ccK3AMrq.s 			page 22


 1189 044b 09       		.uleb128 0x9
 1190 044c 43435200 		.ascii	"CCR\000"
 1191 0450 06       		.byte	0x6
 1192 0451 AC01     		.2byte	0x1ac
 1193 0453 C3040000 		.4byte	0x4c3
 1194 0457 02       		.byte	0x2
 1195 0458 23       		.byte	0x23
 1196 0459 34       		.uleb128 0x34
 1197 045a 0A       		.uleb128 0xa
 1198 045b 46020000 		.4byte	.LASF61
 1199 045f 06       		.byte	0x6
 1200 0460 AD01     		.2byte	0x1ad
 1201 0462 A2000000 		.4byte	0xa2
 1202 0466 02       		.byte	0x2
 1203 0467 23       		.byte	0x23
 1204 0468 44       		.uleb128 0x44
 1205 0469 09       		.uleb128 0x9
 1206 046a 44435200 		.ascii	"DCR\000"
 1207 046e 06       		.byte	0x6
 1208 046f AE01     		.2byte	0x1ae
 1209 0471 A2000000 		.4byte	0xa2
 1210 0475 02       		.byte	0x2
 1211 0476 23       		.byte	0x23
 1212 0477 48       		.uleb128 0x48
 1213 0478 0A       		.uleb128 0xa
 1214 0479 2D000000 		.4byte	.LASF62
 1215 047d 06       		.byte	0x6
 1216 047e AF01     		.2byte	0x1af
 1217 0480 A2000000 		.4byte	0xa2
 1218 0484 02       		.byte	0x2
 1219 0485 23       		.byte	0x23
 1220 0486 4C       		.uleb128 0x4c
 1221 0487 09       		.uleb128 0x9
 1222 0488 4F5200   		.ascii	"OR\000"
 1223 048b 06       		.byte	0x6
 1224 048c B001     		.2byte	0x1b0
 1225 048e A2000000 		.4byte	0xa2
 1226 0492 02       		.byte	0x2
 1227 0493 23       		.byte	0x23
 1228 0494 50       		.uleb128 0x50
 1229 0495 0A       		.uleb128 0xa
 1230 0496 AB010000 		.4byte	.LASF63
 1231 049a 06       		.byte	0x6
 1232 049b B101     		.2byte	0x1b1
 1233 049d A2000000 		.4byte	0xa2
 1234 04a1 02       		.byte	0x2
 1235 04a2 23       		.byte	0x23
 1236 04a3 54       		.uleb128 0x54
 1237 04a4 0A       		.uleb128 0xa
 1238 04a5 4E010000 		.4byte	.LASF64
 1239 04a9 06       		.byte	0x6
 1240 04aa B201     		.2byte	0x1b2
 1241 04ac A2000000 		.4byte	0xa2
 1242 04b0 02       		.byte	0x2
 1243 04b1 23       		.byte	0x23
 1244 04b2 58       		.uleb128 0x58
 1245 04b3 0A       		.uleb128 0xa
ARM GAS  C:\Users\DNIEL~1\AppData\Local\Temp\ccK3AMrq.s 			page 23


 1246 04b4 53010000 		.4byte	.LASF65
 1247 04b8 06       		.byte	0x6
 1248 04b9 B301     		.2byte	0x1b3
 1249 04bb A2000000 		.4byte	0xa2
 1250 04bf 02       		.byte	0x2
 1251 04c0 23       		.byte	0x23
 1252 04c1 5C       		.uleb128 0x5c
 1253 04c2 00       		.byte	0
 1254 04c3 05       		.uleb128 0x5
 1255 04c4 C5000000 		.4byte	0xc5
 1256 04c8 0B       		.uleb128 0xb
 1257 04c9 08030000 		.4byte	.LASF66
 1258 04cd 06       		.byte	0x6
 1259 04ce B401     		.2byte	0x1b4
 1260 04d0 80030000 		.4byte	0x380
 1261 04d4 0B       		.uleb128 0xb
 1262 04d5 FE030000 		.4byte	.LASF67
 1263 04d9 05       		.byte	0x5
 1264 04da 2001     		.2byte	0x120
 1265 04dc 7B000000 		.4byte	0x7b
 1266 04e0 0B       		.uleb128 0xb
 1267 04e1 6A000000 		.4byte	.LASF68
 1268 04e5 05       		.byte	0x5
 1269 04e6 2501     		.2byte	0x125
 1270 04e8 3E000000 		.4byte	0x3e
 1271 04ec 0B       		.uleb128 0xb
 1272 04ed 48000000 		.4byte	.LASF69
 1273 04f1 05       		.byte	0x5
 1274 04f2 2A01     		.2byte	0x12a
 1275 04f4 57000000 		.4byte	0x57
 1276 04f8 08       		.uleb128 0x8
 1277 04f9 08       		.byte	0x8
 1278 04fa 05       		.byte	0x5
 1279 04fb 2F01     		.2byte	0x12f
 1280 04fd 20050000 		.4byte	0x520
 1281 0501 0A       		.uleb128 0xa
 1282 0502 80000000 		.4byte	.LASF70
 1283 0506 05       		.byte	0x5
 1284 0507 3301     		.2byte	0x133
 1285 0509 D4040000 		.4byte	0x4d4
 1286 050d 02       		.byte	0x2
 1287 050e 23       		.byte	0x23
 1288 050f 00       		.uleb128 0
 1289 0510 0A       		.uleb128 0xa
 1290 0511 43040000 		.4byte	.LASF71
 1291 0515 05       		.byte	0x5
 1292 0516 3901     		.2byte	0x139
 1293 0518 5D030000 		.4byte	0x35d
 1294 051c 02       		.byte	0x2
 1295 051d 23       		.byte	0x23
 1296 051e 04       		.uleb128 0x4
 1297 051f 00       		.byte	0
 1298 0520 0B       		.uleb128 0xb
 1299 0521 E4030000 		.4byte	.LASF72
 1300 0525 05       		.byte	0x5
 1301 0526 3B01     		.2byte	0x13b
 1302 0528 F8040000 		.4byte	0x4f8
ARM GAS  C:\Users\DNIEL~1\AppData\Local\Temp\ccK3AMrq.s 			page 24


 1303 052c 08       		.uleb128 0x8
 1304 052d 34       		.byte	0x34
 1305 052e 05       		.byte	0x5
 1306 052f 4001     		.2byte	0x140
 1307 0531 90050000 		.4byte	0x590
 1308 0535 0A       		.uleb128 0xa
 1309 0536 D4030000 		.4byte	.LASF73
 1310 053a 05       		.byte	0x5
 1311 053b 4601     		.2byte	0x146
 1312 053d 7B000000 		.4byte	0x7b
 1313 0541 02       		.byte	0x2
 1314 0542 23       		.byte	0x23
 1315 0543 00       		.uleb128 0
 1316 0544 0A       		.uleb128 0xa
 1317 0545 6A010000 		.4byte	.LASF53
 1318 0549 05       		.byte	0x5
 1319 054a 4C01     		.2byte	0x14c
 1320 054c EC040000 		.4byte	0x4ec
 1321 0550 02       		.byte	0x2
 1322 0551 23       		.byte	0x23
 1323 0552 04       		.uleb128 0x4
 1324 0553 0A       		.uleb128 0xa
 1325 0554 43040000 		.4byte	.LASF71
 1326 0558 05       		.byte	0x5
 1327 0559 5201     		.2byte	0x152
 1328 055b 5D030000 		.4byte	0x35d
 1329 055f 02       		.byte	0x2
 1330 0560 23       		.byte	0x23
 1331 0561 08       		.uleb128 0x8
 1332 0562 0A       		.uleb128 0xa
 1333 0563 B3030000 		.4byte	.LASF74
 1334 0567 05       		.byte	0x5
 1335 0568 5601     		.2byte	0x156
 1336 056a 90050000 		.4byte	0x590
 1337 056e 02       		.byte	0x2
 1338 056f 23       		.byte	0x23
 1339 0570 0C       		.uleb128 0xc
 1340 0571 09       		.uleb128 0x9
 1341 0572 63723200 		.ascii	"cr2\000"
 1342 0576 05       		.byte	0x5
 1343 0577 5C01     		.2byte	0x15c
 1344 0579 7B000000 		.4byte	0x7b
 1345 057d 02       		.byte	0x2
 1346 057e 23       		.byte	0x23
 1347 057f 2C       		.uleb128 0x2c
 1348 0580 0A       		.uleb128 0xa
 1349 0581 CF030000 		.4byte	.LASF75
 1350 0585 05       		.byte	0x5
 1351 0586 6901     		.2byte	0x169
 1352 0588 7B000000 		.4byte	0x7b
 1353 058c 02       		.byte	0x2
 1354 058d 23       		.byte	0x23
 1355 058e 30       		.uleb128 0x30
 1356 058f 00       		.byte	0
 1357 0590 06       		.uleb128 0x6
 1358 0591 20050000 		.4byte	0x520
 1359 0595 A0050000 		.4byte	0x5a0
ARM GAS  C:\Users\DNIEL~1\AppData\Local\Temp\ccK3AMrq.s 			page 25


 1360 0599 07       		.uleb128 0x7
 1361 059a A7000000 		.4byte	0xa7
 1362 059e 03       		.byte	0x3
 1363 059f 00       		.byte	0
 1364 05a0 0B       		.uleb128 0xb
 1365 05a1 A1010000 		.4byte	.LASF76
 1366 05a5 05       		.byte	0x5
 1367 05a6 6A01     		.2byte	0x16a
 1368 05a8 2C050000 		.4byte	0x52c
 1369 05ac 0F       		.uleb128 0xf
 1370 05ad 04       		.byte	0x4
 1371 05ae B2050000 		.4byte	0x5b2
 1372 05b2 12       		.uleb128 0x12
 1373 05b3 A0050000 		.4byte	0x5a0
 1374 05b7 0F       		.uleb128 0xf
 1375 05b8 04       		.byte	0x4
 1376 05b9 C8040000 		.4byte	0x4c8
 1377 05bd 13       		.uleb128 0x13
 1378 05be 01       		.byte	0x1
 1379 05bf 77000000 		.4byte	.LASF77
 1380 05c3 01       		.byte	0x1
 1381 05c4 93       		.byte	0x93
 1382 05c5 01       		.byte	0x1
 1383 05c6 00000000 		.4byte	.LFB118
 1384 05ca 24000000 		.4byte	.LFE118
 1385 05ce 00000000 		.4byte	.LLST0
 1386 05d2 01       		.byte	0x1
 1387 05d3 F5050000 		.4byte	0x5f5
 1388 05d7 14       		.uleb128 0x14
 1389 05d8 1C000000 		.4byte	.LVL0
 1390 05dc EA050000 		.4byte	0x5ea
 1391 05e0 15       		.uleb128 0x15
 1392 05e1 01       		.byte	0x1
 1393 05e2 50       		.byte	0x50
 1394 05e3 05       		.byte	0x5
 1395 05e4 03       		.byte	0x3
 1396 05e5 00000000 		.4byte	.LANCHOR0
 1397 05e9 00       		.byte	0
 1398 05ea 16       		.uleb128 0x16
 1399 05eb 24000000 		.4byte	.LVL1
 1400 05ef 01       		.byte	0x1
 1401 05f0 25080000 		.4byte	0x825
 1402 05f4 00       		.byte	0
 1403 05f5 13       		.uleb128 0x13
 1404 05f6 01       		.byte	0x1
 1405 05f7 14030000 		.4byte	.LASF78
 1406 05fb 01       		.byte	0x1
 1407 05fc A8       		.byte	0xa8
 1408 05fd 01       		.byte	0x1
 1409 05fe 00000000 		.4byte	.LFB119
 1410 0602 6C000000 		.4byte	.LFE119
 1411 0606 20000000 		.4byte	.LLST1
 1412 060a 01       		.byte	0x1
 1413 060b 70060000 		.4byte	0x670
 1414 060f 17       		.uleb128 0x17
 1415 0610 737200   		.ascii	"sr\000"
 1416 0613 01       		.byte	0x1
ARM GAS  C:\Users\DNIEL~1\AppData\Local\Temp\ccK3AMrq.s 			page 26


 1417 0614 A9       		.byte	0xa9
 1418 0615 57000000 		.4byte	0x57
 1419 0619 40000000 		.4byte	.LLST2
 1420 061d 14       		.uleb128 0x14
 1421 061e 40000000 		.4byte	.LVL4
 1422 0622 30060000 		.4byte	0x630
 1423 0626 15       		.uleb128 0x15
 1424 0627 01       		.byte	0x1
 1425 0628 50       		.byte	0x50
 1426 0629 05       		.byte	0x5
 1427 062a 03       		.byte	0x3
 1428 062b 00000000 		.4byte	.LANCHOR0
 1429 062f 00       		.byte	0
 1430 0630 16       		.uleb128 0x16
 1431 0631 48000000 		.4byte	.LVL5
 1432 0635 01       		.byte	0x1
 1433 0636 25080000 		.4byte	0x825
 1434 063a 14       		.uleb128 0x14
 1435 063b 50000000 		.4byte	.LVL6
 1436 063f 4D060000 		.4byte	0x64d
 1437 0643 15       		.uleb128 0x15
 1438 0644 01       		.byte	0x1
 1439 0645 50       		.byte	0x50
 1440 0646 05       		.byte	0x5
 1441 0647 03       		.byte	0x3
 1442 0648 00000000 		.4byte	.LANCHOR0
 1443 064c 00       		.byte	0
 1444 064d 14       		.uleb128 0x14
 1445 064e 5A000000 		.4byte	.LVL7
 1446 0652 60060000 		.4byte	0x660
 1447 0656 15       		.uleb128 0x15
 1448 0657 01       		.byte	0x1
 1449 0658 50       		.byte	0x50
 1450 0659 05       		.byte	0x5
 1451 065a 03       		.byte	0x3
 1452 065b 00000000 		.4byte	.LANCHOR0
 1453 065f 00       		.byte	0
 1454 0660 18       		.uleb128 0x18
 1455 0661 64000000 		.4byte	.LVL8
 1456 0665 15       		.uleb128 0x15
 1457 0666 01       		.byte	0x1
 1458 0667 50       		.byte	0x50
 1459 0668 05       		.byte	0x5
 1460 0669 03       		.byte	0x3
 1461 066a 00000000 		.4byte	.LANCHOR0
 1462 066e 00       		.byte	0
 1463 066f 00       		.byte	0
 1464 0670 19       		.uleb128 0x19
 1465 0671 01       		.byte	0x1
 1466 0672 F6020000 		.4byte	.LASF79
 1467 0676 01       		.byte	0x1
 1468 0677 5901     		.2byte	0x159
 1469 0679 01       		.byte	0x1
 1470 067a 00000000 		.4byte	.LFB120
 1471 067e 1A000000 		.4byte	.LFE120
 1472 0682 68000000 		.4byte	.LLST3
 1473 0686 01       		.byte	0x1
ARM GAS  C:\Users\DNIEL~1\AppData\Local\Temp\ccK3AMrq.s 			page 27


 1474 0687 9C060000 		.4byte	0x69c
 1475 068b 1A       		.uleb128 0x1a
 1476 068c 10000000 		.4byte	.LVL9
 1477 0690 30080000 		.4byte	0x830
 1478 0694 15       		.uleb128 0x15
 1479 0695 01       		.byte	0x1
 1480 0696 50       		.byte	0x50
 1481 0697 02       		.byte	0x2
 1482 0698 74       		.byte	0x74
 1483 0699 00       		.sleb128 0
 1484 069a 00       		.byte	0
 1485 069b 00       		.byte	0
 1486 069c 19       		.uleb128 0x19
 1487 069d 01       		.byte	0x1
 1488 069e 93010000 		.4byte	.LASF80
 1489 06a2 01       		.byte	0x1
 1490 06a3 8F01     		.2byte	0x18f
 1491 06a5 01       		.byte	0x1
 1492 06a6 00000000 		.4byte	.LFB121
 1493 06aa 24010000 		.4byte	.LFE121
 1494 06ae 88000000 		.4byte	.LLST4
 1495 06b2 01       		.byte	0x1
 1496 06b3 16070000 		.4byte	0x716
 1497 06b7 1B       		.uleb128 0x1b
 1498 06b8 B1010000 		.4byte	.LASF83
 1499 06bc 01       		.byte	0x1
 1500 06bd 8F01     		.2byte	0x18f
 1501 06bf 7A030000 		.4byte	0x37a
 1502 06c3 A8000000 		.4byte	.LLST5
 1503 06c7 1C       		.uleb128 0x1c
 1504 06c8 70736300 		.ascii	"psc\000"
 1505 06cc 01       		.byte	0x1
 1506 06cd 9001     		.2byte	0x190
 1507 06cf 7B000000 		.4byte	0x7b
 1508 06d3 EA000000 		.4byte	.LLST6
 1509 06d7 1D       		.uleb128 0x1d
 1510 06d8 FE000000 		.4byte	.LASF81
 1511 06dc 01       		.byte	0x1
 1512 06dd 9101     		.2byte	0x191
 1513 06df 7B000000 		.4byte	0x7b
 1514 06e3 7F010000 		.4byte	.LLST7
 1515 06e7 1E       		.uleb128 0x1e
 1516 06e8 0A010000 		.4byte	.LVL31
 1517 06ec 44080000 		.4byte	0x844
 1518 06f0 00070000 		.4byte	0x700
 1519 06f4 15       		.uleb128 0x15
 1520 06f5 01       		.byte	0x1
 1521 06f6 51       		.byte	0x51
 1522 06f7 02       		.byte	0x2
 1523 06f8 08       		.byte	0x8
 1524 06f9 70       		.byte	0x70
 1525 06fa 15       		.uleb128 0x15
 1526 06fb 01       		.byte	0x1
 1527 06fc 50       		.byte	0x50
 1528 06fd 01       		.byte	0x1
 1529 06fe 49       		.byte	0x49
 1530 06ff 00       		.byte	0
ARM GAS  C:\Users\DNIEL~1\AppData\Local\Temp\ccK3AMrq.s 			page 28


 1531 0700 1A       		.uleb128 0x1a
 1532 0701 12010000 		.4byte	.LVL32
 1533 0705 44080000 		.4byte	0x844
 1534 0709 15       		.uleb128 0x15
 1535 070a 01       		.byte	0x1
 1536 070b 51       		.byte	0x51
 1537 070c 02       		.byte	0x2
 1538 070d 08       		.byte	0x8
 1539 070e 70       		.byte	0x70
 1540 070f 15       		.uleb128 0x15
 1541 0710 01       		.byte	0x1
 1542 0711 50       		.byte	0x50
 1543 0712 01       		.byte	0x1
 1544 0713 4B       		.byte	0x4b
 1545 0714 00       		.byte	0
 1546 0715 00       		.byte	0
 1547 0716 19       		.uleb128 0x19
 1548 0717 01       		.byte	0x1
 1549 0718 0F000000 		.4byte	.LASF82
 1550 071c 01       		.byte	0x1
 1551 071d 5B02     		.2byte	0x25b
 1552 071f 01       		.byte	0x1
 1553 0720 00000000 		.4byte	.LFB122
 1554 0724 40000000 		.4byte	.LFE122
 1555 0728 B5010000 		.4byte	.LLST8
 1556 072c 01       		.byte	0x1
 1557 072d 64070000 		.4byte	0x764
 1558 0731 1B       		.uleb128 0x1b
 1559 0732 B1010000 		.4byte	.LASF83
 1560 0736 01       		.byte	0x1
 1561 0737 5B02     		.2byte	0x25b
 1562 0739 7A030000 		.4byte	0x37a
 1563 073d D5010000 		.4byte	.LLST9
 1564 0741 1E       		.uleb128 0x1e
 1565 0742 22000000 		.4byte	.LVL37
 1566 0746 5E080000 		.4byte	0x85e
 1567 074a 54070000 		.4byte	0x754
 1568 074e 15       		.uleb128 0x15
 1569 074f 01       		.byte	0x1
 1570 0750 50       		.byte	0x50
 1571 0751 01       		.byte	0x1
 1572 0752 49       		.byte	0x49
 1573 0753 00       		.byte	0
 1574 0754 1A       		.uleb128 0x1a
 1575 0755 28000000 		.4byte	.LVL38
 1576 0759 5E080000 		.4byte	0x85e
 1577 075d 15       		.uleb128 0x15
 1578 075e 01       		.byte	0x1
 1579 075f 50       		.byte	0x50
 1580 0760 01       		.byte	0x1
 1581 0761 4B       		.byte	0x4b
 1582 0762 00       		.byte	0
 1583 0763 00       		.byte	0
 1584 0764 19       		.uleb128 0x19
 1585 0765 01       		.byte	0x1
 1586 0766 D4010000 		.4byte	.LASF84
 1587 076a 01       		.byte	0x1
ARM GAS  C:\Users\DNIEL~1\AppData\Local\Temp\ccK3AMrq.s 			page 29


 1588 076b A102     		.2byte	0x2a1
 1589 076d 01       		.byte	0x1
 1590 076e 00000000 		.4byte	.LFB123
 1591 0772 30000000 		.4byte	.LFE123
 1592 0776 0F020000 		.4byte	.LLST10
 1593 077a 01       		.byte	0x1
 1594 077b CA070000 		.4byte	0x7ca
 1595 077f 1B       		.uleb128 0x1b
 1596 0780 B1010000 		.4byte	.LASF83
 1597 0784 01       		.byte	0x1
 1598 0785 A102     		.2byte	0x2a1
 1599 0787 7A030000 		.4byte	0x37a
 1600 078b 2F020000 		.4byte	.LLST11
 1601 078f 1B       		.uleb128 0x1b
 1602 0790 35030000 		.4byte	.LASF85
 1603 0794 01       		.byte	0x1
 1604 0795 A202     		.2byte	0x2a2
 1605 0797 E0040000 		.4byte	0x4e0
 1606 079b 50020000 		.4byte	.LLST12
 1607 079f 1B       		.uleb128 0x1b
 1608 07a0 0B010000 		.4byte	.LASF86
 1609 07a4 01       		.byte	0x1
 1610 07a5 A302     		.2byte	0x2a3
 1611 07a7 EC040000 		.4byte	0x4ec
 1612 07ab 71020000 		.4byte	.LLST13
 1613 07af 1F       		.uleb128 0x1f
 1614 07b0 18000000 		.4byte	.LBB2
 1615 07b4 2C000000 		.4byte	.LBE2
 1616 07b8 1D       		.uleb128 0x1d
 1617 07b9 CF030000 		.4byte	.LASF75
 1618 07bd 01       		.byte	0x1
 1619 07be A902     		.2byte	0x2a9
 1620 07c0 7B000000 		.4byte	0x7b
 1621 07c4 92020000 		.4byte	.LLST14
 1622 07c8 00       		.byte	0
 1623 07c9 00       		.byte	0
 1624 07ca 20       		.uleb128 0x20
 1625 07cb 01       		.byte	0x1
 1626 07cc 9B030000 		.4byte	.LASF87
 1627 07d0 01       		.byte	0x1
 1628 07d1 BF02     		.2byte	0x2bf
 1629 07d3 01       		.byte	0x1
 1630 07d4 00000000 		.4byte	.LFB124
 1631 07d8 1E000000 		.4byte	.LFE124
 1632 07dc 02       		.byte	0x2
 1633 07dd 7D       		.byte	0x7d
 1634 07de 00       		.sleb128 0
 1635 07df 01       		.byte	0x1
 1636 07e0 05080000 		.4byte	0x805
 1637 07e4 1B       		.uleb128 0x1b
 1638 07e5 B1010000 		.4byte	.LASF83
 1639 07e9 01       		.byte	0x1
 1640 07ea BF02     		.2byte	0x2bf
 1641 07ec 7A030000 		.4byte	0x37a
 1642 07f0 A5020000 		.4byte	.LLST15
 1643 07f4 1B       		.uleb128 0x1b
 1644 07f5 35030000 		.4byte	.LASF85
ARM GAS  C:\Users\DNIEL~1\AppData\Local\Temp\ccK3AMrq.s 			page 30


 1645 07f9 01       		.byte	0x1
 1646 07fa BF02     		.2byte	0x2bf
 1647 07fc E0040000 		.4byte	0x4e0
 1648 0800 C6020000 		.4byte	.LLST16
 1649 0804 00       		.byte	0
 1650 0805 21       		.uleb128 0x21
 1651 0806 08040000 		.4byte	.LASF88
 1652 080a 07       		.byte	0x7
 1653 080b 9806     		.2byte	0x698
 1654 080d D5000000 		.4byte	0xd5
 1655 0811 01       		.byte	0x1
 1656 0812 01       		.byte	0x1
 1657 0813 22       		.uleb128 0x22
 1658 0814 DE030000 		.4byte	.LASF89
 1659 0818 01       		.byte	0x1
 1660 0819 2B       		.byte	0x2b
 1661 081a F9020000 		.4byte	0x2f9
 1662 081e 01       		.byte	0x1
 1663 081f 05       		.byte	0x5
 1664 0820 03       		.byte	0x3
 1665 0821 00000000 		.4byte	PWMD1
 1666 0825 23       		.uleb128 0x23
 1667 0826 01       		.byte	0x1
 1668 0827 7A010000 		.4byte	.LASF95
 1669 082b 09       		.byte	0x9
 1670 082c 0302     		.2byte	0x203
 1671 082e 01       		.byte	0x1
 1672 082f 01       		.byte	0x1
 1673 0830 24       		.uleb128 0x24
 1674 0831 01       		.byte	0x1
 1675 0832 CE000000 		.4byte	.LASF90
 1676 0836 04       		.byte	0x4
 1677 0837 F3       		.byte	0xf3
 1678 0838 01       		.byte	0x1
 1679 0839 01       		.byte	0x1
 1680 083a 44080000 		.4byte	0x844
 1681 083e 11       		.uleb128 0x11
 1682 083f 7A030000 		.4byte	0x37a
 1683 0843 00       		.byte	0
 1684 0844 25       		.uleb128 0x25
 1685 0845 01       		.byte	0x1
 1686 0846 F3010000 		.4byte	.LASF91
 1687 084a 08       		.byte	0x8
 1688 084b 2301     		.2byte	0x123
 1689 084d 01       		.byte	0x1
 1690 084e 01       		.byte	0x1
 1691 084f 5E080000 		.4byte	0x85e
 1692 0853 11       		.uleb128 0x11
 1693 0854 7B000000 		.4byte	0x7b
 1694 0858 11       		.uleb128 0x11
 1695 0859 7B000000 		.4byte	0x7b
 1696 085d 00       		.byte	0
 1697 085e 26       		.uleb128 0x26
 1698 085f 01       		.byte	0x1
 1699 0860 3C010000 		.4byte	.LASF96
 1700 0864 08       		.byte	0x8
 1701 0865 2401     		.2byte	0x124
ARM GAS  C:\Users\DNIEL~1\AppData\Local\Temp\ccK3AMrq.s 			page 31


 1702 0867 01       		.byte	0x1
 1703 0868 01       		.byte	0x1
 1704 0869 11       		.uleb128 0x11
 1705 086a 7B000000 		.4byte	0x7b
 1706 086e 00       		.byte	0
 1707 086f 00       		.byte	0
 1708              		.section	.debug_abbrev,"",%progbits
 1709              	.Ldebug_abbrev0:
 1710 0000 01       		.uleb128 0x1
 1711 0001 11       		.uleb128 0x11
 1712 0002 01       		.byte	0x1
 1713 0003 25       		.uleb128 0x25
 1714 0004 0E       		.uleb128 0xe
 1715 0005 13       		.uleb128 0x13
 1716 0006 0B       		.uleb128 0xb
 1717 0007 03       		.uleb128 0x3
 1718 0008 0E       		.uleb128 0xe
 1719 0009 1B       		.uleb128 0x1b
 1720 000a 0E       		.uleb128 0xe
 1721 000b 55       		.uleb128 0x55
 1722 000c 06       		.uleb128 0x6
 1723 000d 11       		.uleb128 0x11
 1724 000e 01       		.uleb128 0x1
 1725 000f 52       		.uleb128 0x52
 1726 0010 01       		.uleb128 0x1
 1727 0011 10       		.uleb128 0x10
 1728 0012 06       		.uleb128 0x6
 1729 0013 00       		.byte	0
 1730 0014 00       		.byte	0
 1731 0015 02       		.uleb128 0x2
 1732 0016 24       		.uleb128 0x24
 1733 0017 00       		.byte	0
 1734 0018 0B       		.uleb128 0xb
 1735 0019 0B       		.uleb128 0xb
 1736 001a 3E       		.uleb128 0x3e
 1737 001b 0B       		.uleb128 0xb
 1738 001c 03       		.uleb128 0x3
 1739 001d 0E       		.uleb128 0xe
 1740 001e 00       		.byte	0
 1741 001f 00       		.byte	0
 1742 0020 03       		.uleb128 0x3
 1743 0021 24       		.uleb128 0x24
 1744 0022 00       		.byte	0
 1745 0023 0B       		.uleb128 0xb
 1746 0024 0B       		.uleb128 0xb
 1747 0025 3E       		.uleb128 0x3e
 1748 0026 0B       		.uleb128 0xb
 1749 0027 03       		.uleb128 0x3
 1750 0028 08       		.uleb128 0x8
 1751 0029 00       		.byte	0
 1752 002a 00       		.byte	0
 1753 002b 04       		.uleb128 0x4
 1754 002c 16       		.uleb128 0x16
 1755 002d 00       		.byte	0
 1756 002e 03       		.uleb128 0x3
 1757 002f 0E       		.uleb128 0xe
 1758 0030 3A       		.uleb128 0x3a
ARM GAS  C:\Users\DNIEL~1\AppData\Local\Temp\ccK3AMrq.s 			page 32


 1759 0031 0B       		.uleb128 0xb
 1760 0032 3B       		.uleb128 0x3b
 1761 0033 0B       		.uleb128 0xb
 1762 0034 49       		.uleb128 0x49
 1763 0035 13       		.uleb128 0x13
 1764 0036 00       		.byte	0
 1765 0037 00       		.byte	0
 1766 0038 05       		.uleb128 0x5
 1767 0039 35       		.uleb128 0x35
 1768 003a 00       		.byte	0
 1769 003b 49       		.uleb128 0x49
 1770 003c 13       		.uleb128 0x13
 1771 003d 00       		.byte	0
 1772 003e 00       		.byte	0
 1773 003f 06       		.uleb128 0x6
 1774 0040 01       		.uleb128 0x1
 1775 0041 01       		.byte	0x1
 1776 0042 49       		.uleb128 0x49
 1777 0043 13       		.uleb128 0x13
 1778 0044 01       		.uleb128 0x1
 1779 0045 13       		.uleb128 0x13
 1780 0046 00       		.byte	0
 1781 0047 00       		.byte	0
 1782 0048 07       		.uleb128 0x7
 1783 0049 21       		.uleb128 0x21
 1784 004a 00       		.byte	0
 1785 004b 49       		.uleb128 0x49
 1786 004c 13       		.uleb128 0x13
 1787 004d 2F       		.uleb128 0x2f
 1788 004e 0B       		.uleb128 0xb
 1789 004f 00       		.byte	0
 1790 0050 00       		.byte	0
 1791 0051 08       		.uleb128 0x8
 1792 0052 13       		.uleb128 0x13
 1793 0053 01       		.byte	0x1
 1794 0054 0B       		.uleb128 0xb
 1795 0055 0B       		.uleb128 0xb
 1796 0056 3A       		.uleb128 0x3a
 1797 0057 0B       		.uleb128 0xb
 1798 0058 3B       		.uleb128 0x3b
 1799 0059 05       		.uleb128 0x5
 1800 005a 01       		.uleb128 0x1
 1801 005b 13       		.uleb128 0x13
 1802 005c 00       		.byte	0
 1803 005d 00       		.byte	0
 1804 005e 09       		.uleb128 0x9
 1805 005f 0D       		.uleb128 0xd
 1806 0060 00       		.byte	0
 1807 0061 03       		.uleb128 0x3
 1808 0062 08       		.uleb128 0x8
 1809 0063 3A       		.uleb128 0x3a
 1810 0064 0B       		.uleb128 0xb
 1811 0065 3B       		.uleb128 0x3b
 1812 0066 05       		.uleb128 0x5
 1813 0067 49       		.uleb128 0x49
 1814 0068 13       		.uleb128 0x13
 1815 0069 38       		.uleb128 0x38
ARM GAS  C:\Users\DNIEL~1\AppData\Local\Temp\ccK3AMrq.s 			page 33


 1816 006a 0A       		.uleb128 0xa
 1817 006b 00       		.byte	0
 1818 006c 00       		.byte	0
 1819 006d 0A       		.uleb128 0xa
 1820 006e 0D       		.uleb128 0xd
 1821 006f 00       		.byte	0
 1822 0070 03       		.uleb128 0x3
 1823 0071 0E       		.uleb128 0xe
 1824 0072 3A       		.uleb128 0x3a
 1825 0073 0B       		.uleb128 0xb
 1826 0074 3B       		.uleb128 0x3b
 1827 0075 05       		.uleb128 0x5
 1828 0076 49       		.uleb128 0x49
 1829 0077 13       		.uleb128 0x13
 1830 0078 38       		.uleb128 0x38
 1831 0079 0A       		.uleb128 0xa
 1832 007a 00       		.byte	0
 1833 007b 00       		.byte	0
 1834 007c 0B       		.uleb128 0xb
 1835 007d 16       		.uleb128 0x16
 1836 007e 00       		.byte	0
 1837 007f 03       		.uleb128 0x3
 1838 0080 0E       		.uleb128 0xe
 1839 0081 3A       		.uleb128 0x3a
 1840 0082 0B       		.uleb128 0xb
 1841 0083 3B       		.uleb128 0x3b
 1842 0084 05       		.uleb128 0x5
 1843 0085 49       		.uleb128 0x49
 1844 0086 13       		.uleb128 0x13
 1845 0087 00       		.byte	0
 1846 0088 00       		.byte	0
 1847 0089 0C       		.uleb128 0xc
 1848 008a 04       		.uleb128 0x4
 1849 008b 01       		.byte	0x1
 1850 008c 0B       		.uleb128 0xb
 1851 008d 0B       		.uleb128 0xb
 1852 008e 3A       		.uleb128 0x3a
 1853 008f 0B       		.uleb128 0xb
 1854 0090 3B       		.uleb128 0x3b
 1855 0091 0B       		.uleb128 0xb
 1856 0092 01       		.uleb128 0x1
 1857 0093 13       		.uleb128 0x13
 1858 0094 00       		.byte	0
 1859 0095 00       		.byte	0
 1860 0096 0D       		.uleb128 0xd
 1861 0097 28       		.uleb128 0x28
 1862 0098 00       		.byte	0
 1863 0099 03       		.uleb128 0x3
 1864 009a 0E       		.uleb128 0xe
 1865 009b 1C       		.uleb128 0x1c
 1866 009c 0D       		.uleb128 0xd
 1867 009d 00       		.byte	0
 1868 009e 00       		.byte	0
 1869 009f 0E       		.uleb128 0xe
 1870 00a0 13       		.uleb128 0x13
 1871 00a1 01       		.byte	0x1
 1872 00a2 03       		.uleb128 0x3
ARM GAS  C:\Users\DNIEL~1\AppData\Local\Temp\ccK3AMrq.s 			page 34


 1873 00a3 0E       		.uleb128 0xe
 1874 00a4 0B       		.uleb128 0xb
 1875 00a5 0B       		.uleb128 0xb
 1876 00a6 3A       		.uleb128 0x3a
 1877 00a7 0B       		.uleb128 0xb
 1878 00a8 3B       		.uleb128 0x3b
 1879 00a9 05       		.uleb128 0x5
 1880 00aa 01       		.uleb128 0x1
 1881 00ab 13       		.uleb128 0x13
 1882 00ac 00       		.byte	0
 1883 00ad 00       		.byte	0
 1884 00ae 0F       		.uleb128 0xf
 1885 00af 0F       		.uleb128 0xf
 1886 00b0 00       		.byte	0
 1887 00b1 0B       		.uleb128 0xb
 1888 00b2 0B       		.uleb128 0xb
 1889 00b3 49       		.uleb128 0x49
 1890 00b4 13       		.uleb128 0x13
 1891 00b5 00       		.byte	0
 1892 00b6 00       		.byte	0
 1893 00b7 10       		.uleb128 0x10
 1894 00b8 15       		.uleb128 0x15
 1895 00b9 01       		.byte	0x1
 1896 00ba 27       		.uleb128 0x27
 1897 00bb 0C       		.uleb128 0xc
 1898 00bc 01       		.uleb128 0x1
 1899 00bd 13       		.uleb128 0x13
 1900 00be 00       		.byte	0
 1901 00bf 00       		.byte	0
 1902 00c0 11       		.uleb128 0x11
 1903 00c1 05       		.uleb128 0x5
 1904 00c2 00       		.byte	0
 1905 00c3 49       		.uleb128 0x49
 1906 00c4 13       		.uleb128 0x13
 1907 00c5 00       		.byte	0
 1908 00c6 00       		.byte	0
 1909 00c7 12       		.uleb128 0x12
 1910 00c8 26       		.uleb128 0x26
 1911 00c9 00       		.byte	0
 1912 00ca 49       		.uleb128 0x49
 1913 00cb 13       		.uleb128 0x13
 1914 00cc 00       		.byte	0
 1915 00cd 00       		.byte	0
 1916 00ce 13       		.uleb128 0x13
 1917 00cf 2E       		.uleb128 0x2e
 1918 00d0 01       		.byte	0x1
 1919 00d1 3F       		.uleb128 0x3f
 1920 00d2 0C       		.uleb128 0xc
 1921 00d3 03       		.uleb128 0x3
 1922 00d4 0E       		.uleb128 0xe
 1923 00d5 3A       		.uleb128 0x3a
 1924 00d6 0B       		.uleb128 0xb
 1925 00d7 3B       		.uleb128 0x3b
 1926 00d8 0B       		.uleb128 0xb
 1927 00d9 27       		.uleb128 0x27
 1928 00da 0C       		.uleb128 0xc
 1929 00db 11       		.uleb128 0x11
ARM GAS  C:\Users\DNIEL~1\AppData\Local\Temp\ccK3AMrq.s 			page 35


 1930 00dc 01       		.uleb128 0x1
 1931 00dd 12       		.uleb128 0x12
 1932 00de 01       		.uleb128 0x1
 1933 00df 40       		.uleb128 0x40
 1934 00e0 06       		.uleb128 0x6
 1935 00e1 9742     		.uleb128 0x2117
 1936 00e3 0C       		.uleb128 0xc
 1937 00e4 01       		.uleb128 0x1
 1938 00e5 13       		.uleb128 0x13
 1939 00e6 00       		.byte	0
 1940 00e7 00       		.byte	0
 1941 00e8 14       		.uleb128 0x14
 1942 00e9 898201   		.uleb128 0x4109
 1943 00ec 01       		.byte	0x1
 1944 00ed 11       		.uleb128 0x11
 1945 00ee 01       		.uleb128 0x1
 1946 00ef 01       		.uleb128 0x1
 1947 00f0 13       		.uleb128 0x13
 1948 00f1 00       		.byte	0
 1949 00f2 00       		.byte	0
 1950 00f3 15       		.uleb128 0x15
 1951 00f4 8A8201   		.uleb128 0x410a
 1952 00f7 00       		.byte	0
 1953 00f8 02       		.uleb128 0x2
 1954 00f9 0A       		.uleb128 0xa
 1955 00fa 9142     		.uleb128 0x2111
 1956 00fc 0A       		.uleb128 0xa
 1957 00fd 00       		.byte	0
 1958 00fe 00       		.byte	0
 1959 00ff 16       		.uleb128 0x16
 1960 0100 898201   		.uleb128 0x4109
 1961 0103 00       		.byte	0
 1962 0104 11       		.uleb128 0x11
 1963 0105 01       		.uleb128 0x1
 1964 0106 9542     		.uleb128 0x2115
 1965 0108 0C       		.uleb128 0xc
 1966 0109 31       		.uleb128 0x31
 1967 010a 13       		.uleb128 0x13
 1968 010b 00       		.byte	0
 1969 010c 00       		.byte	0
 1970 010d 17       		.uleb128 0x17
 1971 010e 34       		.uleb128 0x34
 1972 010f 00       		.byte	0
 1973 0110 03       		.uleb128 0x3
 1974 0111 08       		.uleb128 0x8
 1975 0112 3A       		.uleb128 0x3a
 1976 0113 0B       		.uleb128 0xb
 1977 0114 3B       		.uleb128 0x3b
 1978 0115 0B       		.uleb128 0xb
 1979 0116 49       		.uleb128 0x49
 1980 0117 13       		.uleb128 0x13
 1981 0118 02       		.uleb128 0x2
 1982 0119 06       		.uleb128 0x6
 1983 011a 00       		.byte	0
 1984 011b 00       		.byte	0
 1985 011c 18       		.uleb128 0x18
 1986 011d 898201   		.uleb128 0x4109
ARM GAS  C:\Users\DNIEL~1\AppData\Local\Temp\ccK3AMrq.s 			page 36


 1987 0120 01       		.byte	0x1
 1988 0121 11       		.uleb128 0x11
 1989 0122 01       		.uleb128 0x1
 1990 0123 00       		.byte	0
 1991 0124 00       		.byte	0
 1992 0125 19       		.uleb128 0x19
 1993 0126 2E       		.uleb128 0x2e
 1994 0127 01       		.byte	0x1
 1995 0128 3F       		.uleb128 0x3f
 1996 0129 0C       		.uleb128 0xc
 1997 012a 03       		.uleb128 0x3
 1998 012b 0E       		.uleb128 0xe
 1999 012c 3A       		.uleb128 0x3a
 2000 012d 0B       		.uleb128 0xb
 2001 012e 3B       		.uleb128 0x3b
 2002 012f 05       		.uleb128 0x5
 2003 0130 27       		.uleb128 0x27
 2004 0131 0C       		.uleb128 0xc
 2005 0132 11       		.uleb128 0x11
 2006 0133 01       		.uleb128 0x1
 2007 0134 12       		.uleb128 0x12
 2008 0135 01       		.uleb128 0x1
 2009 0136 40       		.uleb128 0x40
 2010 0137 06       		.uleb128 0x6
 2011 0138 9742     		.uleb128 0x2117
 2012 013a 0C       		.uleb128 0xc
 2013 013b 01       		.uleb128 0x1
 2014 013c 13       		.uleb128 0x13
 2015 013d 00       		.byte	0
 2016 013e 00       		.byte	0
 2017 013f 1A       		.uleb128 0x1a
 2018 0140 898201   		.uleb128 0x4109
 2019 0143 01       		.byte	0x1
 2020 0144 11       		.uleb128 0x11
 2021 0145 01       		.uleb128 0x1
 2022 0146 31       		.uleb128 0x31
 2023 0147 13       		.uleb128 0x13
 2024 0148 00       		.byte	0
 2025 0149 00       		.byte	0
 2026 014a 1B       		.uleb128 0x1b
 2027 014b 05       		.uleb128 0x5
 2028 014c 00       		.byte	0
 2029 014d 03       		.uleb128 0x3
 2030 014e 0E       		.uleb128 0xe
 2031 014f 3A       		.uleb128 0x3a
 2032 0150 0B       		.uleb128 0xb
 2033 0151 3B       		.uleb128 0x3b
 2034 0152 05       		.uleb128 0x5
 2035 0153 49       		.uleb128 0x49
 2036 0154 13       		.uleb128 0x13
 2037 0155 02       		.uleb128 0x2
 2038 0156 06       		.uleb128 0x6
 2039 0157 00       		.byte	0
 2040 0158 00       		.byte	0
 2041 0159 1C       		.uleb128 0x1c
 2042 015a 34       		.uleb128 0x34
 2043 015b 00       		.byte	0
ARM GAS  C:\Users\DNIEL~1\AppData\Local\Temp\ccK3AMrq.s 			page 37


 2044 015c 03       		.uleb128 0x3
 2045 015d 08       		.uleb128 0x8
 2046 015e 3A       		.uleb128 0x3a
 2047 015f 0B       		.uleb128 0xb
 2048 0160 3B       		.uleb128 0x3b
 2049 0161 05       		.uleb128 0x5
 2050 0162 49       		.uleb128 0x49
 2051 0163 13       		.uleb128 0x13
 2052 0164 02       		.uleb128 0x2
 2053 0165 06       		.uleb128 0x6
 2054 0166 00       		.byte	0
 2055 0167 00       		.byte	0
 2056 0168 1D       		.uleb128 0x1d
 2057 0169 34       		.uleb128 0x34
 2058 016a 00       		.byte	0
 2059 016b 03       		.uleb128 0x3
 2060 016c 0E       		.uleb128 0xe
 2061 016d 3A       		.uleb128 0x3a
 2062 016e 0B       		.uleb128 0xb
 2063 016f 3B       		.uleb128 0x3b
 2064 0170 05       		.uleb128 0x5
 2065 0171 49       		.uleb128 0x49
 2066 0172 13       		.uleb128 0x13
 2067 0173 02       		.uleb128 0x2
 2068 0174 06       		.uleb128 0x6
 2069 0175 00       		.byte	0
 2070 0176 00       		.byte	0
 2071 0177 1E       		.uleb128 0x1e
 2072 0178 898201   		.uleb128 0x4109
 2073 017b 01       		.byte	0x1
 2074 017c 11       		.uleb128 0x11
 2075 017d 01       		.uleb128 0x1
 2076 017e 31       		.uleb128 0x31
 2077 017f 13       		.uleb128 0x13
 2078 0180 01       		.uleb128 0x1
 2079 0181 13       		.uleb128 0x13
 2080 0182 00       		.byte	0
 2081 0183 00       		.byte	0
 2082 0184 1F       		.uleb128 0x1f
 2083 0185 0B       		.uleb128 0xb
 2084 0186 01       		.byte	0x1
 2085 0187 11       		.uleb128 0x11
 2086 0188 01       		.uleb128 0x1
 2087 0189 12       		.uleb128 0x12
 2088 018a 01       		.uleb128 0x1
 2089 018b 00       		.byte	0
 2090 018c 00       		.byte	0
 2091 018d 20       		.uleb128 0x20
 2092 018e 2E       		.uleb128 0x2e
 2093 018f 01       		.byte	0x1
 2094 0190 3F       		.uleb128 0x3f
 2095 0191 0C       		.uleb128 0xc
 2096 0192 03       		.uleb128 0x3
 2097 0193 0E       		.uleb128 0xe
 2098 0194 3A       		.uleb128 0x3a
 2099 0195 0B       		.uleb128 0xb
 2100 0196 3B       		.uleb128 0x3b
ARM GAS  C:\Users\DNIEL~1\AppData\Local\Temp\ccK3AMrq.s 			page 38


 2101 0197 05       		.uleb128 0x5
 2102 0198 27       		.uleb128 0x27
 2103 0199 0C       		.uleb128 0xc
 2104 019a 11       		.uleb128 0x11
 2105 019b 01       		.uleb128 0x1
 2106 019c 12       		.uleb128 0x12
 2107 019d 01       		.uleb128 0x1
 2108 019e 40       		.uleb128 0x40
 2109 019f 0A       		.uleb128 0xa
 2110 01a0 9742     		.uleb128 0x2117
 2111 01a2 0C       		.uleb128 0xc
 2112 01a3 01       		.uleb128 0x1
 2113 01a4 13       		.uleb128 0x13
 2114 01a5 00       		.byte	0
 2115 01a6 00       		.byte	0
 2116 01a7 21       		.uleb128 0x21
 2117 01a8 34       		.uleb128 0x34
 2118 01a9 00       		.byte	0
 2119 01aa 03       		.uleb128 0x3
 2120 01ab 0E       		.uleb128 0xe
 2121 01ac 3A       		.uleb128 0x3a
 2122 01ad 0B       		.uleb128 0xb
 2123 01ae 3B       		.uleb128 0x3b
 2124 01af 05       		.uleb128 0x5
 2125 01b0 49       		.uleb128 0x49
 2126 01b1 13       		.uleb128 0x13
 2127 01b2 3F       		.uleb128 0x3f
 2128 01b3 0C       		.uleb128 0xc
 2129 01b4 3C       		.uleb128 0x3c
 2130 01b5 0C       		.uleb128 0xc
 2131 01b6 00       		.byte	0
 2132 01b7 00       		.byte	0
 2133 01b8 22       		.uleb128 0x22
 2134 01b9 34       		.uleb128 0x34
 2135 01ba 00       		.byte	0
 2136 01bb 03       		.uleb128 0x3
 2137 01bc 0E       		.uleb128 0xe
 2138 01bd 3A       		.uleb128 0x3a
 2139 01be 0B       		.uleb128 0xb
 2140 01bf 3B       		.uleb128 0x3b
 2141 01c0 0B       		.uleb128 0xb
 2142 01c1 49       		.uleb128 0x49
 2143 01c2 13       		.uleb128 0x13
 2144 01c3 3F       		.uleb128 0x3f
 2145 01c4 0C       		.uleb128 0xc
 2146 01c5 02       		.uleb128 0x2
 2147 01c6 0A       		.uleb128 0xa
 2148 01c7 00       		.byte	0
 2149 01c8 00       		.byte	0
 2150 01c9 23       		.uleb128 0x23
 2151 01ca 2E       		.uleb128 0x2e
 2152 01cb 00       		.byte	0
 2153 01cc 3F       		.uleb128 0x3f
 2154 01cd 0C       		.uleb128 0xc
 2155 01ce 03       		.uleb128 0x3
 2156 01cf 0E       		.uleb128 0xe
 2157 01d0 3A       		.uleb128 0x3a
ARM GAS  C:\Users\DNIEL~1\AppData\Local\Temp\ccK3AMrq.s 			page 39


 2158 01d1 0B       		.uleb128 0xb
 2159 01d2 3B       		.uleb128 0x3b
 2160 01d3 05       		.uleb128 0x5
 2161 01d4 27       		.uleb128 0x27
 2162 01d5 0C       		.uleb128 0xc
 2163 01d6 3C       		.uleb128 0x3c
 2164 01d7 0C       		.uleb128 0xc
 2165 01d8 00       		.byte	0
 2166 01d9 00       		.byte	0
 2167 01da 24       		.uleb128 0x24
 2168 01db 2E       		.uleb128 0x2e
 2169 01dc 01       		.byte	0x1
 2170 01dd 3F       		.uleb128 0x3f
 2171 01de 0C       		.uleb128 0xc
 2172 01df 03       		.uleb128 0x3
 2173 01e0 0E       		.uleb128 0xe
 2174 01e1 3A       		.uleb128 0x3a
 2175 01e2 0B       		.uleb128 0xb
 2176 01e3 3B       		.uleb128 0x3b
 2177 01e4 0B       		.uleb128 0xb
 2178 01e5 27       		.uleb128 0x27
 2179 01e6 0C       		.uleb128 0xc
 2180 01e7 3C       		.uleb128 0x3c
 2181 01e8 0C       		.uleb128 0xc
 2182 01e9 01       		.uleb128 0x1
 2183 01ea 13       		.uleb128 0x13
 2184 01eb 00       		.byte	0
 2185 01ec 00       		.byte	0
 2186 01ed 25       		.uleb128 0x25
 2187 01ee 2E       		.uleb128 0x2e
 2188 01ef 01       		.byte	0x1
 2189 01f0 3F       		.uleb128 0x3f
 2190 01f1 0C       		.uleb128 0xc
 2191 01f2 03       		.uleb128 0x3
 2192 01f3 0E       		.uleb128 0xe
 2193 01f4 3A       		.uleb128 0x3a
 2194 01f5 0B       		.uleb128 0xb
 2195 01f6 3B       		.uleb128 0x3b
 2196 01f7 05       		.uleb128 0x5
 2197 01f8 27       		.uleb128 0x27
 2198 01f9 0C       		.uleb128 0xc
 2199 01fa 3C       		.uleb128 0x3c
 2200 01fb 0C       		.uleb128 0xc
 2201 01fc 01       		.uleb128 0x1
 2202 01fd 13       		.uleb128 0x13
 2203 01fe 00       		.byte	0
 2204 01ff 00       		.byte	0
 2205 0200 26       		.uleb128 0x26
 2206 0201 2E       		.uleb128 0x2e
 2207 0202 01       		.byte	0x1
 2208 0203 3F       		.uleb128 0x3f
 2209 0204 0C       		.uleb128 0xc
 2210 0205 03       		.uleb128 0x3
 2211 0206 0E       		.uleb128 0xe
 2212 0207 3A       		.uleb128 0x3a
 2213 0208 0B       		.uleb128 0xb
 2214 0209 3B       		.uleb128 0x3b
ARM GAS  C:\Users\DNIEL~1\AppData\Local\Temp\ccK3AMrq.s 			page 40


 2215 020a 05       		.uleb128 0x5
 2216 020b 27       		.uleb128 0x27
 2217 020c 0C       		.uleb128 0xc
 2218 020d 3C       		.uleb128 0x3c
 2219 020e 0C       		.uleb128 0xc
 2220 020f 00       		.byte	0
 2221 0210 00       		.byte	0
 2222 0211 00       		.byte	0
 2223              		.section	.debug_loc,"",%progbits
 2224              	.Ldebug_loc0:
 2225              	.LLST0:
 2226 0000 00000000 		.4byte	.LFB118
 2227 0004 0A000000 		.4byte	.LCFI0
 2228 0008 0200     		.2byte	0x2
 2229 000a 7D       		.byte	0x7d
 2230 000b 00       		.sleb128 0
 2231 000c 0A000000 		.4byte	.LCFI0
 2232 0010 24000000 		.4byte	.LFE118
 2233 0014 0200     		.2byte	0x2
 2234 0016 7D       		.byte	0x7d
 2235 0017 08       		.sleb128 8
 2236 0018 00000000 		.4byte	0
 2237 001c 00000000 		.4byte	0
 2238              	.LLST1:
 2239 0020 00000000 		.4byte	.LFB119
 2240 0024 08000000 		.4byte	.LCFI1
 2241 0028 0200     		.2byte	0x2
 2242 002a 7D       		.byte	0x7d
 2243 002b 00       		.sleb128 0
 2244 002c 08000000 		.4byte	.LCFI1
 2245 0030 6C000000 		.4byte	.LFE119
 2246 0034 0200     		.2byte	0x2
 2247 0036 7D       		.byte	0x7d
 2248 0037 08       		.sleb128 8
 2249 0038 00000000 		.4byte	0
 2250 003c 00000000 		.4byte	0
 2251              	.LLST2:
 2252 0040 10000000 		.4byte	.LVL2
 2253 0044 34000000 		.4byte	.LVL3
 2254 0048 0600     		.2byte	0x6
 2255 004a 74       		.byte	0x74
 2256 004b 00       		.sleb128 0
 2257 004c 08       		.byte	0x8
 2258 004d FF       		.byte	0xff
 2259 004e 1A       		.byte	0x1a
 2260 004f 9F       		.byte	0x9f
 2261 0050 48000000 		.4byte	.LVL5
 2262 0054 6C000000 		.4byte	.LFE119
 2263 0058 0600     		.2byte	0x6
 2264 005a 74       		.byte	0x74
 2265 005b 00       		.sleb128 0
 2266 005c 08       		.byte	0x8
 2267 005d FF       		.byte	0xff
 2268 005e 1A       		.byte	0x1a
 2269 005f 9F       		.byte	0x9f
 2270 0060 00000000 		.4byte	0
 2271 0064 00000000 		.4byte	0
ARM GAS  C:\Users\DNIEL~1\AppData\Local\Temp\ccK3AMrq.s 			page 41


 2272              	.LLST3:
 2273 0068 00000000 		.4byte	.LFB120
 2274 006c 02000000 		.4byte	.LCFI2
 2275 0070 0200     		.2byte	0x2
 2276 0072 7D       		.byte	0x7d
 2277 0073 00       		.sleb128 0
 2278 0074 02000000 		.4byte	.LCFI2
 2279 0078 1A000000 		.4byte	.LFE120
 2280 007c 0200     		.2byte	0x2
 2281 007e 7D       		.byte	0x7d
 2282 007f 08       		.sleb128 8
 2283 0080 00000000 		.4byte	0
 2284 0084 00000000 		.4byte	0
 2285              	.LLST4:
 2286 0088 00000000 		.4byte	.LFB121
 2287 008c 06000000 		.4byte	.LCFI3
 2288 0090 0200     		.2byte	0x2
 2289 0092 7D       		.byte	0x7d
 2290 0093 00       		.sleb128 0
 2291 0094 06000000 		.4byte	.LCFI3
 2292 0098 24010000 		.4byte	.LFE121
 2293 009c 0200     		.2byte	0x2
 2294 009e 7D       		.byte	0x7d
 2295 009f 10       		.sleb128 16
 2296 00a0 00000000 		.4byte	0
 2297 00a4 00000000 		.4byte	0
 2298              	.LLST5:
 2299 00a8 00000000 		.4byte	.LVL10
 2300 00ac 1A000000 		.4byte	.LVL11
 2301 00b0 0100     		.2byte	0x1
 2302 00b2 50       		.byte	0x50
 2303 00b3 1A000000 		.4byte	.LVL11
 2304 00b7 22000000 		.4byte	.LVL13
 2305 00bb 0100     		.2byte	0x1
 2306 00bd 54       		.byte	0x54
 2307 00be 22000000 		.4byte	.LVL13
 2308 00c2 D4000000 		.4byte	.LVL29
 2309 00c6 0400     		.2byte	0x4
 2310 00c8 F3       		.byte	0xf3
 2311 00c9 01       		.uleb128 0x1
 2312 00ca 50       		.byte	0x50
 2313 00cb 9F       		.byte	0x9f
 2314 00cc D4000000 		.4byte	.LVL29
 2315 00d0 D6000000 		.4byte	.LVL30
 2316 00d4 0100     		.2byte	0x1
 2317 00d6 50       		.byte	0x50
 2318 00d7 D6000000 		.4byte	.LVL30
 2319 00db 24010000 		.4byte	.LFE121
 2320 00df 0100     		.2byte	0x1
 2321 00e1 54       		.byte	0x54
 2322 00e2 00000000 		.4byte	0
 2323 00e6 00000000 		.4byte	0
 2324              	.LLST6:
 2325 00ea 1C000000 		.4byte	.LVL12
 2326 00ee 22000000 		.4byte	.LVL13
 2327 00f2 1000     		.2byte	0x10
 2328 00f4 74       		.byte	0x74
ARM GAS  C:\Users\DNIEL~1\AppData\Local\Temp\ccK3AMrq.s 			page 42


 2329 00f5 0C       		.sleb128 12
 2330 00f6 06       		.byte	0x6
 2331 00f7 F7       		.byte	0xf7
 2332 00f8 29       		.uleb128 0x29
 2333 00f9 72       		.byte	0x72
 2334 00fa 00       		.sleb128 0
 2335 00fb 06       		.byte	0x6
 2336 00fc F7       		.byte	0xf7
 2337 00fd 29       		.uleb128 0x29
 2338 00fe 1B       		.byte	0x1b
 2339 00ff F7       		.byte	0xf7
 2340 0100 00       		.uleb128 0
 2341 0101 31       		.byte	0x31
 2342 0102 1C       		.byte	0x1c
 2343 0103 9F       		.byte	0x9f
 2344 0104 22000000 		.4byte	.LVL13
 2345 0108 2C000000 		.4byte	.LVL14
 2346 010c 0F00     		.2byte	0xf
 2347 010e 76       		.byte	0x76
 2348 010f 00       		.sleb128 0
 2349 0110 F7       		.byte	0xf7
 2350 0111 29       		.uleb128 0x29
 2351 0112 72       		.byte	0x72
 2352 0113 00       		.sleb128 0
 2353 0114 06       		.byte	0x6
 2354 0115 F7       		.byte	0xf7
 2355 0116 29       		.uleb128 0x29
 2356 0117 1B       		.byte	0x1b
 2357 0118 F7       		.byte	0xf7
 2358 0119 00       		.uleb128 0
 2359 011a 31       		.byte	0x31
 2360 011b 1C       		.byte	0x1c
 2361 011c 9F       		.byte	0x9f
 2362 011d 2C000000 		.4byte	.LVL14
 2363 0121 34000000 		.4byte	.LVL15
 2364 0125 0100     		.2byte	0x1
 2365 0127 55       		.byte	0x55
 2366 0128 34000000 		.4byte	.LVL15
 2367 012c 7C000000 		.4byte	.LVL18
 2368 0130 0F00     		.2byte	0xf
 2369 0132 76       		.byte	0x76
 2370 0133 00       		.sleb128 0
 2371 0134 F7       		.byte	0xf7
 2372 0135 29       		.uleb128 0x29
 2373 0136 72       		.byte	0x72
 2374 0137 00       		.sleb128 0
 2375 0138 06       		.byte	0x6
 2376 0139 F7       		.byte	0xf7
 2377 013a 29       		.uleb128 0x29
 2378 013b 1B       		.byte	0x1b
 2379 013c F7       		.byte	0xf7
 2380 013d 00       		.uleb128 0
 2381 013e 31       		.byte	0x31
 2382 013f 1C       		.byte	0x1c
 2383 0140 9F       		.byte	0x9f
 2384 0141 7C000000 		.4byte	.LVL18
 2385 0145 9A000000 		.4byte	.LVL20
ARM GAS  C:\Users\DNIEL~1\AppData\Local\Temp\ccK3AMrq.s 			page 43


 2386 0149 1300     		.2byte	0x13
 2387 014b 76       		.byte	0x76
 2388 014c 00       		.sleb128 0
 2389 014d F7       		.byte	0xf7
 2390 014e 29       		.uleb128 0x29
 2391 014f F3       		.byte	0xf3
 2392 0150 01       		.uleb128 0x1
 2393 0151 50       		.byte	0x50
 2394 0152 23       		.byte	0x23
 2395 0153 04       		.uleb128 0x4
 2396 0154 06       		.byte	0x6
 2397 0155 06       		.byte	0x6
 2398 0156 F7       		.byte	0xf7
 2399 0157 29       		.uleb128 0x29
 2400 0158 1B       		.byte	0x1b
 2401 0159 F7       		.byte	0xf7
 2402 015a 00       		.uleb128 0
 2403 015b 31       		.byte	0x31
 2404 015c 1C       		.byte	0x1c
 2405 015d 9F       		.byte	0x9f
 2406 015e 9A000000 		.4byte	.LVL20
 2407 0162 D4000000 		.4byte	.LVL29
 2408 0166 0F00     		.2byte	0xf
 2409 0168 76       		.byte	0x76
 2410 0169 00       		.sleb128 0
 2411 016a F7       		.byte	0xf7
 2412 016b 29       		.uleb128 0x29
 2413 016c 72       		.byte	0x72
 2414 016d 00       		.sleb128 0
 2415 016e 06       		.byte	0x6
 2416 016f F7       		.byte	0xf7
 2417 0170 29       		.uleb128 0x29
 2418 0171 1B       		.byte	0x1b
 2419 0172 F7       		.byte	0xf7
 2420 0173 00       		.uleb128 0
 2421 0174 31       		.byte	0x31
 2422 0175 1C       		.byte	0x1c
 2423 0176 9F       		.byte	0x9f
 2424 0177 00000000 		.4byte	0
 2425 017b 00000000 		.4byte	0
 2426              	.LLST7:
 2427 017f 3E000000 		.4byte	.LVL16
 2428 0183 48000000 		.4byte	.LVL17
 2429 0187 0200     		.2byte	0x2
 2430 0189 30       		.byte	0x30
 2431 018a 9F       		.byte	0x9f
 2432 018b 48000000 		.4byte	.LVL17
 2433 018f 86000000 		.4byte	.LVL19
 2434 0193 0100     		.2byte	0x1
 2435 0195 51       		.byte	0x51
 2436 0196 86000000 		.4byte	.LVL19
 2437 019a 9A000000 		.4byte	.LVL20
 2438 019e 0200     		.2byte	0x2
 2439 01a0 73       		.byte	0x73
 2440 01a1 20       		.sleb128 32
 2441 01a2 9A000000 		.4byte	.LVL20
 2442 01a6 D4000000 		.4byte	.LVL29
ARM GAS  C:\Users\DNIEL~1\AppData\Local\Temp\ccK3AMrq.s 			page 44


 2443 01aa 0100     		.2byte	0x1
 2444 01ac 51       		.byte	0x51
 2445 01ad 00000000 		.4byte	0
 2446 01b1 00000000 		.4byte	0
 2447              	.LLST8:
 2448 01b5 00000000 		.4byte	.LFB122
 2449 01b9 02000000 		.4byte	.LCFI4
 2450 01bd 0200     		.2byte	0x2
 2451 01bf 7D       		.byte	0x7d
 2452 01c0 00       		.sleb128 0
 2453 01c1 02000000 		.4byte	.LCFI4
 2454 01c5 40000000 		.4byte	.LFE122
 2455 01c9 0200     		.2byte	0x2
 2456 01cb 7D       		.byte	0x7d
 2457 01cc 08       		.sleb128 8
 2458 01cd 00000000 		.4byte	0
 2459 01d1 00000000 		.4byte	0
 2460              	.LLST9:
 2461 01d5 00000000 		.4byte	.LVL33
 2462 01d9 08000000 		.4byte	.LVL34
 2463 01dd 0100     		.2byte	0x1
 2464 01df 50       		.byte	0x50
 2465 01e0 08000000 		.4byte	.LVL34
 2466 01e4 0A000000 		.4byte	.LVL35
 2467 01e8 0400     		.2byte	0x4
 2468 01ea F3       		.byte	0xf3
 2469 01eb 01       		.uleb128 0x1
 2470 01ec 50       		.byte	0x50
 2471 01ed 9F       		.byte	0x9f
 2472 01ee 0A000000 		.4byte	.LVL35
 2473 01f2 1E000000 		.4byte	.LVL36
 2474 01f6 0100     		.2byte	0x1
 2475 01f8 50       		.byte	0x50
 2476 01f9 1E000000 		.4byte	.LVL36
 2477 01fd 40000000 		.4byte	.LFE122
 2478 0201 0400     		.2byte	0x4
 2479 0203 F3       		.byte	0xf3
 2480 0204 01       		.uleb128 0x1
 2481 0205 50       		.byte	0x50
 2482 0206 9F       		.byte	0x9f
 2483 0207 00000000 		.4byte	0
 2484 020b 00000000 		.4byte	0
 2485              	.LLST10:
 2486 020f 00000000 		.4byte	.LFB123
 2487 0213 02000000 		.4byte	.LCFI5
 2488 0217 0200     		.2byte	0x2
 2489 0219 7D       		.byte	0x7d
 2490 021a 00       		.sleb128 0
 2491 021b 02000000 		.4byte	.LCFI5
 2492 021f 30000000 		.4byte	.LFE123
 2493 0223 0200     		.2byte	0x2
 2494 0225 7D       		.byte	0x7d
 2495 0226 04       		.sleb128 4
 2496 0227 00000000 		.4byte	0
 2497 022b 00000000 		.4byte	0
 2498              	.LLST11:
 2499 022f 00000000 		.4byte	.LVL39
ARM GAS  C:\Users\DNIEL~1\AppData\Local\Temp\ccK3AMrq.s 			page 45


 2500 0233 0A000000 		.4byte	.LVL40
 2501 0237 0100     		.2byte	0x1
 2502 0239 50       		.byte	0x50
 2503 023a 0A000000 		.4byte	.LVL40
 2504 023e 30000000 		.4byte	.LFE123
 2505 0242 0400     		.2byte	0x4
 2506 0244 F3       		.byte	0xf3
 2507 0245 01       		.uleb128 0x1
 2508 0246 50       		.byte	0x50
 2509 0247 9F       		.byte	0x9f
 2510 0248 00000000 		.4byte	0
 2511 024c 00000000 		.4byte	0
 2512              	.LLST12:
 2513 0250 00000000 		.4byte	.LVL39
 2514 0254 20000000 		.4byte	.LVL42
 2515 0258 0100     		.2byte	0x1
 2516 025a 51       		.byte	0x51
 2517 025b 20000000 		.4byte	.LVL42
 2518 025f 30000000 		.4byte	.LFE123
 2519 0263 0400     		.2byte	0x4
 2520 0265 F3       		.byte	0xf3
 2521 0266 01       		.uleb128 0x1
 2522 0267 51       		.byte	0x51
 2523 0268 9F       		.byte	0x9f
 2524 0269 00000000 		.4byte	0
 2525 026d 00000000 		.4byte	0
 2526              	.LLST13:
 2527 0271 00000000 		.4byte	.LVL39
 2528 0275 1C000000 		.4byte	.LVL41
 2529 0279 0100     		.2byte	0x1
 2530 027b 52       		.byte	0x52
 2531 027c 1C000000 		.4byte	.LVL41
 2532 0280 30000000 		.4byte	.LFE123
 2533 0284 0400     		.2byte	0x4
 2534 0286 F3       		.byte	0xf3
 2535 0287 01       		.uleb128 0x1
 2536 0288 52       		.byte	0x52
 2537 0289 9F       		.byte	0x9f
 2538 028a 00000000 		.4byte	0
 2539 028e 00000000 		.4byte	0
 2540              	.LLST14:
 2541 0292 1C000000 		.4byte	.LVL41
 2542 0296 26000000 		.4byte	.LVL43
 2543 029a 0100     		.2byte	0x1
 2544 029c 52       		.byte	0x52
 2545 029d 00000000 		.4byte	0
 2546 02a1 00000000 		.4byte	0
 2547              	.LLST15:
 2548 02a5 00000000 		.4byte	.LVL44
 2549 02a9 0C000000 		.4byte	.LVL45
 2550 02ad 0100     		.2byte	0x1
 2551 02af 50       		.byte	0x50
 2552 02b0 0C000000 		.4byte	.LVL45
 2553 02b4 1E000000 		.4byte	.LFE124
 2554 02b8 0400     		.2byte	0x4
 2555 02ba F3       		.byte	0xf3
 2556 02bb 01       		.uleb128 0x1
ARM GAS  C:\Users\DNIEL~1\AppData\Local\Temp\ccK3AMrq.s 			page 46


 2557 02bc 50       		.byte	0x50
 2558 02bd 9F       		.byte	0x9f
 2559 02be 00000000 		.4byte	0
 2560 02c2 00000000 		.4byte	0
 2561              	.LLST16:
 2562 02c6 00000000 		.4byte	.LVL44
 2563 02ca 16000000 		.4byte	.LVL46
 2564 02ce 0100     		.2byte	0x1
 2565 02d0 51       		.byte	0x51
 2566 02d1 16000000 		.4byte	.LVL46
 2567 02d5 1E000000 		.4byte	.LFE124
 2568 02d9 0400     		.2byte	0x4
 2569 02db F3       		.byte	0xf3
 2570 02dc 01       		.uleb128 0x1
 2571 02dd 51       		.byte	0x51
 2572 02de 9F       		.byte	0x9f
 2573 02df 00000000 		.4byte	0
 2574 02e3 00000000 		.4byte	0
 2575              		.section	.debug_aranges,"",%progbits
 2576 0000 4C000000 		.4byte	0x4c
 2577 0004 0200     		.2byte	0x2
 2578 0006 00000000 		.4byte	.Ldebug_info0
 2579 000a 04       		.byte	0x4
 2580 000b 00       		.byte	0
 2581 000c 0000     		.2byte	0
 2582 000e 0000     		.2byte	0
 2583 0010 00000000 		.4byte	.LFB118
 2584 0014 24000000 		.4byte	.LFE118-.LFB118
 2585 0018 00000000 		.4byte	.LFB119
 2586 001c 6C000000 		.4byte	.LFE119-.LFB119
 2587 0020 00000000 		.4byte	.LFB120
 2588 0024 1A000000 		.4byte	.LFE120-.LFB120
 2589 0028 00000000 		.4byte	.LFB121
 2590 002c 24010000 		.4byte	.LFE121-.LFB121
 2591 0030 00000000 		.4byte	.LFB122
 2592 0034 40000000 		.4byte	.LFE122-.LFB122
 2593 0038 00000000 		.4byte	.LFB123
 2594 003c 30000000 		.4byte	.LFE123-.LFB123
 2595 0040 00000000 		.4byte	.LFB124
 2596 0044 1E000000 		.4byte	.LFE124-.LFB124
 2597 0048 00000000 		.4byte	0
 2598 004c 00000000 		.4byte	0
 2599              		.section	.debug_ranges,"",%progbits
 2600              	.Ldebug_ranges0:
 2601 0000 00000000 		.4byte	.LFB118
 2602 0004 24000000 		.4byte	.LFE118
 2603 0008 00000000 		.4byte	.LFB119
 2604 000c 6C000000 		.4byte	.LFE119
 2605 0010 00000000 		.4byte	.LFB120
 2606 0014 1A000000 		.4byte	.LFE120
 2607 0018 00000000 		.4byte	.LFB121
 2608 001c 24010000 		.4byte	.LFE121
 2609 0020 00000000 		.4byte	.LFB122
 2610 0024 40000000 		.4byte	.LFE122
 2611 0028 00000000 		.4byte	.LFB123
 2612 002c 30000000 		.4byte	.LFE123
 2613 0030 00000000 		.4byte	.LFB124
ARM GAS  C:\Users\DNIEL~1\AppData\Local\Temp\ccK3AMrq.s 			page 47


 2614 0034 1E000000 		.4byte	.LFE124
 2615 0038 00000000 		.4byte	0
 2616 003c 00000000 		.4byte	0
 2617              		.section	.debug_line,"",%progbits
 2618              	.Ldebug_line0:
 2619 0000 15030000 		.section	.debug_str,"MS",%progbits,1
 2619      02000102 
 2619      00000201 
 2619      FB0E0D00 
 2619      01010101 
 2620              	.LASF32:
 2621 0000 41484231 		.ascii	"AHB1LPENR\000"
 2621      4C50454E 
 2621      5200
 2622              	.LASF60:
 2623 000a 43434552 		.ascii	"CCER\000"
 2623      00
 2624              	.LASF82:
 2625 000f 70776D5F 		.ascii	"pwm_lld_stop\000"
 2625      6C6C645F 
 2625      73746F70 
 2625      00
 2626              	.LASF22:
 2627 001c 41504231 		.ascii	"APB1RSTR\000"
 2627      52535452 
 2627      00
 2628              	.LASF26:
 2629 0025 41484232 		.ascii	"AHB2ENR\000"
 2629      454E5200 
 2630              	.LASF62:
 2631 002d 444D4152 		.ascii	"DMAR\000"
 2631      00
 2632              	.LASF51:
 2633 0032 73746174 		.ascii	"state\000"
 2633      6500
 2634              	.LASF59:
 2635 0038 43434D52 		.ascii	"CCMR2\000"
 2635      3200
 2636              	.LASF3:
 2637 003e 73686F72 		.ascii	"short int\000"
 2637      7420696E 
 2637      7400
 2638              	.LASF69:
 2639 0048 70776D63 		.ascii	"pwmcnt_t\000"
 2639      6E745F74 
 2639      00
 2640              	.LASF14:
 2641 0051 73697A65 		.ascii	"sizetype\000"
 2641      74797065 
 2641      00
 2642              	.LASF39:
 2643 005a 42444352 		.ascii	"BDCR\000"
 2643      00
 2644              	.LASF42:
 2645 005f 504C4C49 		.ascii	"PLLI2SCFGR\000"
 2645      32534346 
 2645      475200
ARM GAS  C:\Users\DNIEL~1\AppData\Local\Temp\ccK3AMrq.s 			page 48


 2646              	.LASF68:
 2647 006a 70776D63 		.ascii	"pwmchannel_t\000"
 2647      68616E6E 
 2647      656C5F74 
 2647      00
 2648              	.LASF77:
 2649 0077 56656374 		.ascii	"VectorA4\000"
 2649      6F724134 
 2649      00
 2650              	.LASF70:
 2651 0080 6D6F6465 		.ascii	"mode\000"
 2651      00
 2652              	.LASF41:
 2653 0085 53534347 		.ascii	"SSCGR\000"
 2653      5200
 2654              	.LASF34:
 2655 008b 41484233 		.ascii	"AHB3LPENR\000"
 2655      4C50454E 
 2655      5200
 2656              	.LASF52:
 2657 0095 636F6E66 		.ascii	"config\000"
 2657      696700
 2658              	.LASF17:
 2659 009c 43464752 		.ascii	"CFGR\000"
 2659      00
 2660              	.LASF94:
 2661 00a1 433A5C55 		.ascii	"C:\\Users\\D\341niel\\git\\Modulux\\modulux\\firmwa"
 2661      73657273 
 2661      5C44E16E 
 2661      69656C5C 
 2661      6769745C 
 2662 00cb 726500   		.ascii	"re\000"
 2663              	.LASF90:
 2664 00ce 70776D4F 		.ascii	"pwmObjectInit\000"
 2664      626A6563 
 2664      74496E69 
 2664      7400
 2665              	.LASF4:
 2666 00dc 75696E74 		.ascii	"uint8_t\000"
 2666      385F7400 
 2667              	.LASF29:
 2668 00e4 41504231 		.ascii	"APB1ENR\000"
 2668      454E5200 
 2669              	.LASF18:
 2670 00ec 41484231 		.ascii	"AHB1RSTR\000"
 2670      52535452 
 2670      00
 2671              	.LASF9:
 2672 00f5 75696E74 		.ascii	"uint32_t\000"
 2672      33325F74 
 2672      00
 2673              	.LASF81:
 2674 00fe 63636572 		.ascii	"ccer\000"
 2674      00
 2675              	.LASF44:
 2676 0103 44434B43 		.ascii	"DCKCFGR\000"
 2676      46475200 
ARM GAS  C:\Users\DNIEL~1\AppData\Local\Temp\ccK3AMrq.s 			page 49


 2677              	.LASF86:
 2678 010b 77696474 		.ascii	"width\000"
 2678      6800
 2679              	.LASF27:
 2680 0111 41484233 		.ascii	"AHB3ENR\000"
 2680      454E5200 
 2681              	.LASF45:
 2682 0119 5243435F 		.ascii	"RCC_TypeDef\000"
 2682      54797065 
 2682      44656600 
 2683              	.LASF11:
 2684 0125 6C6F6E67 		.ascii	"long long int\000"
 2684      206C6F6E 
 2684      6720696E 
 2684      7400
 2685              	.LASF8:
 2686 0133 6C6F6E67 		.ascii	"long int\000"
 2686      20696E74 
 2686      00
 2687              	.LASF96:
 2688 013c 6E766963 		.ascii	"nvicDisableVector\000"
 2688      44697361 
 2688      626C6556 
 2688      6563746F 
 2688      7200
 2689              	.LASF64:
 2690 014e 43435235 		.ascii	"CCR5\000"
 2690      00
 2691              	.LASF65:
 2692 0153 43435236 		.ascii	"CCR6\000"
 2692      00
 2693              	.LASF10:
 2694 0158 6C6F6E67 		.ascii	"long unsigned int\000"
 2694      20756E73 
 2694      69676E65 
 2694      6420696E 
 2694      7400
 2695              	.LASF53:
 2696 016a 70657269 		.ascii	"period\000"
 2696      6F6400
 2697              	.LASF23:
 2698 0171 41504232 		.ascii	"APB2RSTR\000"
 2698      52535452 
 2698      00
 2699              	.LASF95:
 2700 017a 5F706F72 		.ascii	"_port_irq_epilogue\000"
 2700      745F6972 
 2700      715F6570 
 2700      696C6F67 
 2700      756500
 2701              	.LASF58:
 2702 018d 43434D52 		.ascii	"CCMR1\000"
 2702      3100
 2703              	.LASF80:
 2704 0193 70776D5F 		.ascii	"pwm_lld_start\000"
 2704      6C6C645F 
 2704      73746172 
ARM GAS  C:\Users\DNIEL~1\AppData\Local\Temp\ccK3AMrq.s 			page 50


 2704      7400
 2705              	.LASF76:
 2706 01a1 50574D43 		.ascii	"PWMConfig\000"
 2706      6F6E6669 
 2706      6700
 2707              	.LASF63:
 2708 01ab 43434D52 		.ascii	"CCMR3\000"
 2708      3300
 2709              	.LASF83:
 2710 01b1 70776D70 		.ascii	"pwmp\000"
 2710      00
 2711              	.LASF56:
 2712 01b6 534D4352 		.ascii	"SMCR\000"
 2712      00
 2713              	.LASF46:
 2714 01bb 50574D5F 		.ascii	"PWM_UNINIT\000"
 2714      554E494E 
 2714      495400
 2715              	.LASF2:
 2716 01c6 756E7369 		.ascii	"unsigned char\000"
 2716      676E6564 
 2716      20636861 
 2716      7200
 2717              	.LASF84:
 2718 01d4 70776D5F 		.ascii	"pwm_lld_enable_channel\000"
 2718      6C6C645F 
 2718      656E6162 
 2718      6C655F63 
 2718      68616E6E 
 2719              	.LASF30:
 2720 01eb 41504232 		.ascii	"APB2ENR\000"
 2720      454E5200 
 2721              	.LASF91:
 2722 01f3 6E766963 		.ascii	"nvicEnableVector\000"
 2722      456E6162 
 2722      6C655665 
 2722      63746F72 
 2722      00
 2723              	.LASF1:
 2724 0204 7369676E 		.ascii	"signed char\000"
 2724      65642063 
 2724      68617200 
 2725              	.LASF12:
 2726 0210 6C6F6E67 		.ascii	"long long unsigned int\000"
 2726      206C6F6E 
 2726      6720756E 
 2726      7369676E 
 2726      65642069 
 2727              	.LASF0:
 2728 0227 756E7369 		.ascii	"unsigned int\000"
 2728      676E6564 
 2728      20696E74 
 2728      00
 2729              	.LASF19:
 2730 0234 41484232 		.ascii	"AHB2RSTR\000"
 2730      52535452 
 2730      00
ARM GAS  C:\Users\DNIEL~1\AppData\Local\Temp\ccK3AMrq.s 			page 51


 2731              	.LASF5:
 2732 023d 75696E74 		.ascii	"uint16_t\000"
 2732      31365F74 
 2732      00
 2733              	.LASF61:
 2734 0246 42445452 		.ascii	"BDTR\000"
 2734      00
 2735              	.LASF92:
 2736 024b 474E5520 		.ascii	"GNU C 4.7.4 20140401 (release) [ARM/embedded-4_7-br"
 2736      4320342E 
 2736      372E3420 
 2736      32303134 
 2736      30343031 
 2737 027e 616E6368 		.ascii	"anch revision 209195]\000"
 2737      20726576 
 2737      6973696F 
 2737      6E203230 
 2737      39313935 
 2738              	.LASF57:
 2739 0294 44494552 		.ascii	"DIER\000"
 2739      00
 2740              	.LASF16:
 2741 0299 504C4C43 		.ascii	"PLLCFGR\000"
 2741      46475200 
 2742              	.LASF93:
 2743 02a1 2E2E2F2E 		.ascii	"../../../Chibios/os/hal/platforms/STM32/TIMv1/pwm_l"
 2743      2E2F2E2E 
 2743      2F436869 
 2743      62696F73 
 2743      2F6F732F 
 2744 02d4 6C642E63 		.ascii	"ld.c\000"
 2744      00
 2745              	.LASF6:
 2746 02d9 73686F72 		.ascii	"short unsigned int\000"
 2746      7420756E 
 2746      7369676E 
 2746      65642069 
 2746      6E7400
 2747              	.LASF36:
 2748 02ec 41504231 		.ascii	"APB1LPENR\000"
 2748      4C50454E 
 2748      5200
 2749              	.LASF79:
 2750 02f6 70776D5F 		.ascii	"pwm_lld_init\000"
 2750      6C6C645F 
 2750      696E6974 
 2750      00
 2751              	.LASF15:
 2752 0303 63686172 		.ascii	"char\000"
 2752      00
 2753              	.LASF66:
 2754 0308 73746D33 		.ascii	"stm32_tim_t\000"
 2754      325F7469 
 2754      6D5F7400 
 2755              	.LASF78:
 2756 0314 56656374 		.ascii	"VectorAC\000"
 2756      6F724143 
ARM GAS  C:\Users\DNIEL~1\AppData\Local\Temp\ccK3AMrq.s 			page 52


 2756      00
 2757              	.LASF50:
 2758 031d 50574D44 		.ascii	"PWMDriver\000"
 2758      72697665 
 2758      7200
 2759              	.LASF7:
 2760 0327 696E7433 		.ascii	"int32_t\000"
 2760      325F7400 
 2761              	.LASF13:
 2762 032f 5F426F6F 		.ascii	"_Bool\000"
 2762      6C00
 2763              	.LASF85:
 2764 0335 6368616E 		.ascii	"channel\000"
 2764      6E656C00 
 2765              	.LASF33:
 2766 033d 41484232 		.ascii	"AHB2LPENR\000"
 2766      4C50454E 
 2766      5200
 2767              	.LASF21:
 2768 0347 52455345 		.ascii	"RESERVED0\000"
 2768      52564544 
 2768      3000
 2769              	.LASF24:
 2770 0351 52455345 		.ascii	"RESERVED1\000"
 2770      52564544 
 2770      3100
 2771              	.LASF28:
 2772 035b 52455345 		.ascii	"RESERVED2\000"
 2772      52564544 
 2772      3200
 2773              	.LASF31:
 2774 0365 52455345 		.ascii	"RESERVED3\000"
 2774      52564544 
 2774      3300
 2775              	.LASF35:
 2776 036f 52455345 		.ascii	"RESERVED4\000"
 2776      52564544 
 2776      3400
 2777              	.LASF38:
 2778 0379 52455345 		.ascii	"RESERVED5\000"
 2778      52564544 
 2778      3500
 2779              	.LASF40:
 2780 0383 52455345 		.ascii	"RESERVED6\000"
 2780      52564544 
 2780      3600
 2781              	.LASF54:
 2782 038d 636C6F63 		.ascii	"clock\000"
 2782      6B00
 2783              	.LASF25:
 2784 0393 41484231 		.ascii	"AHB1ENR\000"
 2784      454E5200 
 2785              	.LASF87:
 2786 039b 70776D5F 		.ascii	"pwm_lld_disable_channel\000"
 2786      6C6C645F 
 2786      64697361 
 2786      626C655F 
ARM GAS  C:\Users\DNIEL~1\AppData\Local\Temp\ccK3AMrq.s 			page 53


 2786      6368616E 
 2787              	.LASF74:
 2788 03b3 6368616E 		.ascii	"channels\000"
 2788      6E656C73 
 2788      00
 2789              	.LASF48:
 2790 03bc 50574D5F 		.ascii	"PWM_READY\000"
 2790      52454144 
 2790      5900
 2791              	.LASF47:
 2792 03c6 50574D5F 		.ascii	"PWM_STOP\000"
 2792      53544F50 
 2792      00
 2793              	.LASF75:
 2794 03cf 64696572 		.ascii	"dier\000"
 2794      00
 2795              	.LASF73:
 2796 03d4 66726571 		.ascii	"frequency\000"
 2796      75656E63 
 2796      7900
 2797              	.LASF89:
 2798 03de 50574D44 		.ascii	"PWMD1\000"
 2798      3100
 2799              	.LASF72:
 2800 03e4 50574D43 		.ascii	"PWMChannelConfig\000"
 2800      68616E6E 
 2800      656C436F 
 2800      6E666967 
 2800      00
 2801              	.LASF20:
 2802 03f5 41484233 		.ascii	"AHB3RSTR\000"
 2802      52535452 
 2802      00
 2803              	.LASF67:
 2804 03fe 70776D6D 		.ascii	"pwmmode_t\000"
 2804      6F64655F 
 2804      7400
 2805              	.LASF88:
 2806 0408 49544D5F 		.ascii	"ITM_RxBuffer\000"
 2806      52784275 
 2806      66666572 
 2806      00
 2807              	.LASF43:
 2808 0415 504C4C53 		.ascii	"PLLSAICFGR\000"
 2808      41494346 
 2808      475200
 2809              	.LASF49:
 2810 0420 70776D73 		.ascii	"pwmstate_t\000"
 2810      74617465 
 2810      5F7400
 2811              	.LASF55:
 2812 042b 70776D63 		.ascii	"pwmcallback_t\000"
 2812      616C6C62 
 2812      61636B5F 
 2812      7400
 2813              	.LASF37:
 2814 0439 41504232 		.ascii	"APB2LPENR\000"
ARM GAS  C:\Users\DNIEL~1\AppData\Local\Temp\ccK3AMrq.s 			page 54


 2814      4C50454E 
 2814      5200
 2815              	.LASF71:
 2816 0443 63616C6C 		.ascii	"callback\000"
 2816      6261636B 
 2816      00
 2817              		.ident	"GCC: (GNU Tools for ARM Embedded Processors) 4.7.4 20140401 (release) [ARM/embedded-4_7-br
ARM GAS  C:\Users\DNIEL~1\AppData\Local\Temp\ccK3AMrq.s 			page 55


DEFINED SYMBOLS
                            *ABS*:00000000 pwm_lld.c
C:\Users\DNIEL~1\AppData\Local\Temp\ccK3AMrq.s:19     .text.VectorA4:00000000 $t
C:\Users\DNIEL~1\AppData\Local\Temp\ccK3AMrq.s:25     .text.VectorA4:00000000 VectorA4
C:\Users\DNIEL~1\AppData\Local\Temp\ccK3AMrq.s:604    .bss.PWMD1:00000000 .LANCHOR0
C:\Users\DNIEL~1\AppData\Local\Temp\ccK3AMrq.s:62     .text.VectorAC:00000000 $t
C:\Users\DNIEL~1\AppData\Local\Temp\ccK3AMrq.s:68     .text.VectorAC:00000000 VectorAC
C:\Users\DNIEL~1\AppData\Local\Temp\ccK3AMrq.s:157    .text.VectorAC:00000068 $d
C:\Users\DNIEL~1\AppData\Local\Temp\ccK3AMrq.s:162    .text.pwm_lld_init:00000000 $t
C:\Users\DNIEL~1\AppData\Local\Temp\ccK3AMrq.s:168    .text.pwm_lld_init:00000000 pwm_lld_init
C:\Users\DNIEL~1\AppData\Local\Temp\ccK3AMrq.s:194    .text.pwm_lld_start:00000000 $t
C:\Users\DNIEL~1\AppData\Local\Temp\ccK3AMrq.s:200    .text.pwm_lld_start:00000000 pwm_lld_start
C:\Users\DNIEL~1\AppData\Local\Temp\ccK3AMrq.s:433    .text.pwm_lld_start:00000120 $d
C:\Users\DNIEL~1\AppData\Local\Temp\ccK3AMrq.s:438    .text.pwm_lld_stop:00000000 $t
C:\Users\DNIEL~1\AppData\Local\Temp\ccK3AMrq.s:444    .text.pwm_lld_stop:00000000 pwm_lld_stop
C:\Users\DNIEL~1\AppData\Local\Temp\ccK3AMrq.s:501    .text.pwm_lld_stop:0000003c $d
C:\Users\DNIEL~1\AppData\Local\Temp\ccK3AMrq.s:506    .text.pwm_lld_enable_channel:00000000 $t
C:\Users\DNIEL~1\AppData\Local\Temp\ccK3AMrq.s:512    .text.pwm_lld_enable_channel:00000000 pwm_lld_enable_channel
C:\Users\DNIEL~1\AppData\Local\Temp\ccK3AMrq.s:569    .text.pwm_lld_disable_channel:00000000 $t
C:\Users\DNIEL~1\AppData\Local\Temp\ccK3AMrq.s:575    .text.pwm_lld_disable_channel:00000000 pwm_lld_disable_channel
C:\Users\DNIEL~1\AppData\Local\Temp\ccK3AMrq.s:607    .bss.PWMD1:00000000 PWMD1
C:\Users\DNIEL~1\AppData\Local\Temp\ccK3AMrq.s:603    .bss.PWMD1:00000000 $d
                     .debug_frame:00000010 $d
C:\Users\DNIEL~1\AppData\Local\Temp\ccK3AMrq.s:161    .text.VectorAC:0000006c $t
C:\Users\DNIEL~1\AppData\Local\Temp\ccK3AMrq.s:437    .text.pwm_lld_start:00000124 $t

UNDEFINED SYMBOLS
_port_irq_epilogue
pwmObjectInit
nvicEnableVector
nvicDisableVector
