ARM GAS  C:\Users\DNIEL~1\AppData\Local\Temp\ccNxMDLU.s 			page 1


   1              		.syntax unified
   2              		.cpu cortex-m4
   3              		.fpu softvfp
   4              		.eabi_attribute 20, 1
   5              		.eabi_attribute 21, 1
   6              		.eabi_attribute 23, 3
   7              		.eabi_attribute 24, 1
   8              		.eabi_attribute 25, 1
   9              		.eabi_attribute 26, 1
  10              		.eabi_attribute 30, 2
  11              		.eabi_attribute 18, 4
  12              		.thumb
  13              		.file	"pwm_lld.c"
  14              		.section	.debug_abbrev,"",%progbits
  15              	.Ldebug_abbrev0:
  16              		.section	.debug_info,"",%progbits
  17              	.Ldebug_info0:
  18              		.section	.debug_line,"",%progbits
  19              	.Ldebug_line0:
  20 0000 AF020000 		.text
  20      02009901 
  20      00000201 
  20      FB0E0D00 
  20      01010101 
  21              	.Ltext0:
  22              		.cfi_sections	.debug_frame
  23              		.section	.text.VectorA4,"ax",%progbits
  24              		.align	2
  25              		.p2align 4,,15
  26              		.global	VectorA4
  27              		.thumb
  28              		.thumb_func
  29              		.type	VectorA4, %function
  30              	VectorA4:
  31              	.LFB118:
  32              		.file 1 "../../../Chibios/os/hal/platforms/STM32/TIMv1/pwm_lld.c"
  33              		.loc 1 147 0
  34              		.cfi_startproc
  35              		@ args = 0, pretend = 0, frame = 0
  36              		@ frame_needed = 0, uses_anonymous_args = 0
  37              		.loc 1 152 0
  38 0000 0648     		ldr	r0, .L2
  39              		.loc 1 151 0
  40 0002 074A     		ldr	r2, .L2+4
  41              		.loc 1 152 0
  42 0004 4368     		ldr	r3, [r0, #4]
  43              		.loc 1 147 0
  44 0006 10B5     		push	{r4, lr}
  45              	.LCFI0:
  46              		.cfi_def_cfa_offset 8
  47              		.loc 1 151 0
  48 0008 6FF00101 		mvn	r1, #1
  49 000c 1161     		str	r1, [r2, #16]
  50              		.loc 1 152 0
  51 000e 9B68     		ldr	r3, [r3, #8]
  52              		.cfi_offset 14, -4
  53              		.cfi_offset 4, -8
ARM GAS  C:\Users\DNIEL~1\AppData\Local\Temp\ccNxMDLU.s 			page 2


  54 0010 9847     		blx	r3
  55              		.loc 1 155 0
  56 0012 BDE81040 		pop	{r4, lr}
  57              		.loc 1 154 0
  58 0016 FFF7FEBF 		b	_port_irq_epilogue
  59              	.L3:
  60 001a 00BF     		.align	2
  61              	.L2:
  62 001c 00000000 		.word	.LANCHOR0
  63 0020 00000140 		.word	1073807360
  64              		.cfi_endproc
  65              	.LFE118:
  66              		.size	VectorA4, .-VectorA4
  67 0024 AFF30080 		.section	.text.VectorAC,"ax",%progbits
  67      AFF30080 
  67      AFF30080 
  68              		.align	2
  69              		.p2align 4,,15
  70              		.global	VectorAC
  71              		.thumb
  72              		.thumb_func
  73              		.type	VectorAC, %function
  74              	VectorAC:
  75              	.LFB119:
  76              		.loc 1 168 0
  77              		.cfi_startproc
  78              		@ args = 0, pretend = 0, frame = 0
  79              		@ frame_needed = 0, uses_anonymous_args = 0
  80              		.loc 1 173 0
  81 0000 154B     		ldr	r3, .L13
  82 0002 1869     		ldr	r0, [r3, #16]
  83 0004 D968     		ldr	r1, [r3, #12]
  84              		.loc 1 168 0
  85 0006 10B5     		push	{r4, lr}
  86              	.LCFI1:
  87              		.cfi_def_cfa_offset 8
  88              		.loc 1 173 0
  89 0008 00EA0104 		and	r4, r0, r1
  90              		.cfi_offset 14, -4
  91              		.cfi_offset 4, -8
  92 000c E4B2     		uxtb	r4, r4
  93              	.LVL0:
  94              		.loc 1 174 0
  95 000e E243     		mvns	r2, r4
  96              		.loc 1 175 0
  97 0010 14F0020F 		tst	r4, #2
  98              		.loc 1 174 0
  99 0014 1A61     		str	r2, [r3, #16]
 100              		.loc 1 175 0
 101 0016 1AD1     		bne	.L10
 102              	.L5:
 103              		.loc 1 177 0
 104 0018 14F0040F 		tst	r4, #4
 105 001c 12D1     		bne	.L11
 106              	.L6:
 107              		.loc 1 179 0
 108 001e 14F0080F 		tst	r4, #8
ARM GAS  C:\Users\DNIEL~1\AppData\Local\Temp\ccNxMDLU.s 			page 3


 109 0022 0AD1     		bne	.L12
 110              	.L7:
 111              		.loc 1 181 0
 112 0024 14F0100F 		tst	r4, #16
 113 0028 03D0     		beq	.L8
 114              		.loc 1 182 0
 115 002a 0C48     		ldr	r0, .L13+4
 116 002c 4368     		ldr	r3, [r0, #4]
 117 002e 9A6A     		ldr	r2, [r3, #40]
 118 0030 9047     		blx	r2
 119              	.L8:
 120              		.loc 1 185 0
 121 0032 BDE81040 		pop	{r4, lr}
 122              		.loc 1 184 0
 123 0036 FFF7FEBF 		b	_port_irq_epilogue
 124              	.L12:
 125              		.loc 1 180 0
 126 003a 0848     		ldr	r0, .L13+4
 127 003c 4168     		ldr	r1, [r0, #4]
 128 003e 0B6A     		ldr	r3, [r1, #32]
 129 0040 9847     		blx	r3
 130 0042 EFE7     		b	.L7
 131              	.L11:
 132              		.loc 1 178 0
 133 0044 0548     		ldr	r0, .L13+4
 134 0046 4268     		ldr	r2, [r0, #4]
 135 0048 9169     		ldr	r1, [r2, #24]
 136 004a 8847     		blx	r1
 137 004c E7E7     		b	.L6
 138              	.L10:
 139              		.loc 1 176 0
 140 004e 0348     		ldr	r0, .L13+4
 141 0050 4368     		ldr	r3, [r0, #4]
 142 0052 1A69     		ldr	r2, [r3, #16]
 143 0054 9047     		blx	r2
 144 0056 DFE7     		b	.L5
 145              	.L14:
 146              		.align	2
 147              	.L13:
 148 0058 00000140 		.word	1073807360
 149 005c 00000000 		.word	.LANCHOR0
 150              		.cfi_endproc
 151              	.LFE119:
 152              		.size	VectorAC, .-VectorAC
 153              		.section	.text.pwm_lld_init,"ax",%progbits
 154              		.align	2
 155              		.p2align 4,,15
 156              		.global	pwm_lld_init
 157              		.thumb
 158              		.thumb_func
 159              		.type	pwm_lld_init, %function
 160              	pwm_lld_init:
 161              	.LFB120:
 162              		.loc 1 345 0
 163              		.cfi_startproc
 164              		@ args = 0, pretend = 0, frame = 0
 165              		@ frame_needed = 0, uses_anonymous_args = 0
ARM GAS  C:\Users\DNIEL~1\AppData\Local\Temp\ccNxMDLU.s 			page 4


 166 0000 10B5     		push	{r4, lr}
 167              	.LCFI2:
 168              		.cfi_def_cfa_offset 8
 169              		.loc 1 349 0
 170 0002 034C     		ldr	r4, .L16
 171              		.cfi_offset 14, -4
 172              		.cfi_offset 4, -8
 173 0004 2046     		mov	r0, r4
 174 0006 FFF7FEFF 		bl	pwmObjectInit
 175              		.loc 1 350 0
 176 000a 024B     		ldr	r3, .L16+4
 177 000c 2361     		str	r3, [r4, #16]
 178              		.loc 1 388 0
 179 000e 10BD     		pop	{r4, pc}
 180              	.L17:
 181              		.align	2
 182              	.L16:
 183 0010 00000000 		.word	.LANCHOR0
 184 0014 00000140 		.word	1073807360
 185              		.cfi_endproc
 186              	.LFE120:
 187              		.size	pwm_lld_init, .-pwm_lld_init
 188 0018 AFF30080 		.section	.text.pwm_lld_start,"ax",%progbits
 188      AFF30080 
 189              		.align	2
 190              		.p2align 4,,15
 191              		.global	pwm_lld_start
 192              		.thumb
 193              		.thumb_func
 194              		.type	pwm_lld_start, %function
 195              	pwm_lld_start:
 196              	.LFB121:
 197              		.loc 1 399 0
 198              		.cfi_startproc
 199              		@ args = 0, pretend = 0, frame = 0
 200              		@ frame_needed = 0, uses_anonymous_args = 0
 201              	.LVL1:
 202              		.loc 1 403 0
 203 0000 0378     		ldrb	r3, [r0, #0]	@ zero_extendqisi2
 204 0002 012B     		cmp	r3, #1
 205              		.loc 1 399 0
 206 0004 70B5     		push	{r4, r5, r6, lr}
 207              	.LCFI3:
 208              		.cfi_def_cfa_offset 16
 209              		.loc 1 399 0
 210 0006 0446     		mov	r4, r0
 211              		.cfi_offset 14, -4
 212              		.cfi_offset 6, -8
 213              		.cfi_offset 5, -12
 214              		.cfi_offset 4, -16
 215              		.loc 1 403 0
 216 0008 64D0     		beq	.L36
 217              		.loc 1 491 0
 218 000a 0369     		ldr	r3, [r0, #16]
 219 000c 0025     		movs	r5, #0
 220 000e 1D60     		str	r5, [r3, #0]
 221              		.loc 1 492 0
ARM GAS  C:\Users\DNIEL~1\AppData\Local\Temp\ccNxMDLU.s 			page 5


 222 0010 5D63     		str	r5, [r3, #52]
 223              		.loc 1 493 0
 224 0012 9D63     		str	r5, [r3, #56]
 225              		.loc 1 494 0
 226 0014 DD63     		str	r5, [r3, #60]
 227              		.loc 1 495 0
 228 0016 1D64     		str	r5, [r3, #64]
 229              		.loc 1 496 0
 230 0018 5D62     		str	r5, [r3, #36]
 231              	.LVL2:
 232              	.L21:
 233              		.loc 1 500 0
 234 001a 6268     		ldr	r2, [r4, #4]
 235 001c E668     		ldr	r6, [r4, #12]
 236 001e 1568     		ldr	r5, [r2, #0]
 237              		.loc 1 505 0
 238 0020 2489     		ldrh	r4, [r4, #8]
 239              	.LVL3:
 240              		.loc 1 510 0
 241 0022 D168     		ldr	r1, [r2, #12]
 242              		.loc 1 506 0
 243 0024 D06A     		ldr	r0, [r2, #44]
 244              		.loc 1 500 0
 245 0026 B6FBF5F5 		udiv	r5, r6, r5
 246 002a 013D     		subs	r5, r5, #1
 247              		.loc 1 505 0
 248 002c 013C     		subs	r4, r4, #1
 249              		.loc 1 510 0
 250 002e 01F00F01 		and	r1, r1, #15
 251              		.loc 1 504 0
 252 0032 ADB2     		uxth	r5, r5
 253              		.loc 1 505 0
 254 0034 A4B2     		uxth	r4, r4
 255              		.loc 1 510 0
 256 0036 0129     		cmp	r1, #1
 257              		.loc 1 504 0
 258 0038 9D62     		str	r5, [r3, #40]
 259              		.loc 1 505 0
 260 003a DC62     		str	r4, [r3, #44]
 261              		.loc 1 506 0
 262 003c 5860     		str	r0, [r3, #4]
 263              	.LVL4:
 264              		.loc 1 510 0
 265 003e 03D0     		beq	.L22
 266              		.loc 1 509 0
 267 0040 0229     		cmp	r1, #2
 268 0042 0CBF     		ite	eq
 269 0044 0321     		moveq	r1, #3
 270 0046 0021     		movne	r1, #0
 271              	.L22:
 272              	.LVL5:
 273              		.loc 1 518 0
 274 0048 5069     		ldr	r0, [r2, #20]
 275 004a 00F00F00 		and	r0, r0, #15
 276 004e 0128     		cmp	r0, #1
 277 0050 25D0     		beq	.L26
 278 0052 0228     		cmp	r0, #2
ARM GAS  C:\Users\DNIEL~1\AppData\Local\Temp\ccNxMDLU.s 			page 6


 279 0054 21D0     		beq	.L37
 280              		.loc 1 526 0
 281 0056 D469     		ldr	r4, [r2, #28]
 282 0058 04F00F00 		and	r0, r4, #15
 283 005c 0128     		cmp	r0, #1
 284 005e 25D0     		beq	.L29
 285              	.L40:
 286 0060 0228     		cmp	r0, #2
 287 0062 32D0     		beq	.L38
 288              		.loc 1 534 0
 289 0064 506A     		ldr	r0, [r2, #36]
 290 0066 00F00F00 		and	r0, r0, #15
 291 006a 0128     		cmp	r0, #1
 292 006c 25D0     		beq	.L32
 293              	.L41:
 294 006e 0228     		cmp	r0, #2
 295 0070 26D0     		beq	.L39
 296              	.L31:
 297              		.loc 1 583 0
 298 0072 146B     		ldr	r4, [r2, #48]
 299              		.loc 1 582 0
 300 0074 9068     		ldr	r0, [r2, #8]
 301              		.loc 1 579 0
 302 0076 1962     		str	r1, [r3, #32]
 303              		.loc 1 583 0
 304 0078 24F0FF02 		bic	r2, r4, #255
 305              	.LVL6:
 306              		.loc 1 582 0
 307 007c 0028     		cmp	r0, #0
 308 007e 18BF     		it	ne
 309 0080 42F00102 		orrne	r2, r2, #1
 310              		.loc 1 580 0
 311 0084 0121     		movs	r1, #1
 312              	.LVL7:
 313              		.loc 1 581 0
 314 0086 0020     		movs	r0, #0
 315              		.loc 1 580 0
 316 0088 5961     		str	r1, [r3, #20]
 317              		.loc 1 581 0
 318 008a 1861     		str	r0, [r3, #16]
 319              		.loc 1 588 0
 320 008c 4FF40041 		mov	r1, #32768
 321              		.loc 1 582 0
 322 0090 DA60     		str	r2, [r3, #12]
 323              		.loc 1 592 0
 324 0092 8522     		movs	r2, #133
 325              		.loc 1 588 0
 326 0094 5964     		str	r1, [r3, #68]
 327              		.loc 1 592 0
 328 0096 1A60     		str	r2, [r3, #0]
 329              		.loc 1 594 0
 330 0098 70BD     		pop	{r4, r5, r6, pc}
 331              	.LVL8:
 332              	.L37:
 333              		.loc 1 520 0
 334 009a 41F02001 		orr	r1, r1, #32
 335              	.LVL9:
ARM GAS  C:\Users\DNIEL~1\AppData\Local\Temp\ccNxMDLU.s 			page 7


 336              	.L26:
 337              		.loc 1 526 0
 338 009e D469     		ldr	r4, [r2, #28]
 339 00a0 04F00F00 		and	r0, r4, #15
 340 00a4 0128     		cmp	r0, #1
 341              		.loc 1 522 0
 342 00a6 41F01001 		orr	r1, r1, #16
 343              	.LVL10:
 344              		.loc 1 526 0
 345 00aa D9D1     		bne	.L40
 346              	.L29:
 347              		.loc 1 530 0
 348 00ac 41F48071 		orr	r1, r1, #256
 349              	.LVL11:
 350              	.L42:
 351              		.loc 1 534 0
 352 00b0 506A     		ldr	r0, [r2, #36]
 353 00b2 00F00F00 		and	r0, r0, #15
 354 00b6 0128     		cmp	r0, #1
 355 00b8 D9D1     		bne	.L41
 356              	.L32:
 357              		.loc 1 538 0
 358 00ba 41F48051 		orr	r1, r1, #4096
 359              	.LVL12:
 360 00be D8E7     		b	.L31
 361              	.L39:
 362              		.loc 1 536 0
 363 00c0 41F40051 		orr	r1, r1, #8192
 364              	.LVL13:
 365              		.loc 1 538 0
 366 00c4 41F48051 		orr	r1, r1, #4096
 367              	.LVL14:
 368 00c8 D3E7     		b	.L31
 369              	.L38:
 370              		.loc 1 528 0
 371 00ca 41F40071 		orr	r1, r1, #512
 372              	.LVL15:
 373              		.loc 1 530 0
 374 00ce 41F48071 		orr	r1, r1, #256
 375              	.LVL16:
 376 00d2 EDE7     		b	.L42
 377              	.LVL17:
 378              	.L36:
 379              		.loc 1 406 0
 380 00d4 0F49     		ldr	r1, .L44
 381 00d6 8842     		cmp	r0, r1
 382 00d8 05D0     		beq	.L43
 383              	.LVL18:
 384              	.L20:
 385              		.loc 1 484 0
 386 00da 2369     		ldr	r3, [r4, #16]
 387 00dc 46F66802 		movw	r2, #26728
 388 00e0 9A61     		str	r2, [r3, #24]
 389              		.loc 1 486 0
 390 00e2 DA61     		str	r2, [r3, #28]
 391 00e4 99E7     		b	.L21
 392              	.L43:
ARM GAS  C:\Users\DNIEL~1\AppData\Local\Temp\ccNxMDLU.s 			page 8


 393              		.loc 1 407 0
 394 00e6 0C4D     		ldr	r5, .L44+4
 395 00e8 686C     		ldr	r0, [r5, #68]
 396 00ea 40F00101 		orr	r1, r0, #1
 397 00ee 6964     		str	r1, [r5, #68]
 398              		.loc 1 408 0
 399 00f0 6B6A     		ldr	r3, [r5, #36]
 400 00f2 0022     		movs	r2, #0
 401 00f4 43F00106 		orr	r6, r3, #1
 402              		.loc 1 409 0
 403 00f8 1920     		movs	r0, #25
 404 00fa 7021     		movs	r1, #112
 405              		.loc 1 408 0
 406 00fc 6E62     		str	r6, [r5, #36]
 407 00fe 6A62     		str	r2, [r5, #36]
 408              		.loc 1 409 0
 409 0100 FFF7FEFF 		bl	nvicEnableVector
 410              		.loc 1 411 0
 411 0104 1B20     		movs	r0, #27
 412 0106 7021     		movs	r1, #112
 413 0108 FFF7FEFF 		bl	nvicEnableVector
 414              		.loc 1 416 0
 415 010c 0348     		ldr	r0, .L44+8
 416 010e E060     		str	r0, [r4, #12]
 417 0110 E3E7     		b	.L20
 418              	.L45:
 419 0112 00BF     		.align	2
 420              	.L44:
 421 0114 00000000 		.word	.LANCHOR0
 422 0118 00380240 		.word	1073887232
 423 011c 007A030A 		.word	168000000
 424              		.cfi_endproc
 425              	.LFE121:
 426              		.size	pwm_lld_start, .-pwm_lld_start
 427              		.section	.text.pwm_lld_stop,"ax",%progbits
 428              		.align	2
 429              		.p2align 4,,15
 430              		.global	pwm_lld_stop
 431              		.thumb
 432              		.thumb_func
 433              		.type	pwm_lld_stop, %function
 434              	pwm_lld_stop:
 435              	.LFB122:
 436              		.loc 1 603 0
 437              		.cfi_startproc
 438              		@ args = 0, pretend = 0, frame = 0
 439              		@ frame_needed = 0, uses_anonymous_args = 0
 440              	.LVL19:
 441 0000 08B5     		push	{r3, lr}
 442              	.LCFI4:
 443              		.cfi_def_cfa_offset 8
 444              		.loc 1 606 0
 445 0002 0378     		ldrb	r3, [r0, #0]	@ zero_extendqisi2
 446              		.cfi_offset 14, -4
 447              		.cfi_offset 3, -8
 448 0004 022B     		cmp	r3, #2
 449 0006 00D0     		beq	.L48
ARM GAS  C:\Users\DNIEL~1\AppData\Local\Temp\ccNxMDLU.s 			page 9


 450              	.LVL20:
 451              	.L46:
 452 0008 08BD     		pop	{r3, pc}
 453              	.LVL21:
 454              	.L48:
 455              		.loc 1 615 0
 456 000a 0A49     		ldr	r1, .L49
 457              		.loc 1 607 0
 458 000c 0369     		ldr	r3, [r0, #16]
 459 000e 0022     		movs	r2, #0
 460              		.loc 1 615 0
 461 0010 8842     		cmp	r0, r1
 462              		.loc 1 607 0
 463 0012 1A60     		str	r2, [r3, #0]
 464              		.loc 1 608 0
 465 0014 DA60     		str	r2, [r3, #12]
 466              		.loc 1 609 0
 467 0016 1A61     		str	r2, [r3, #16]
 468              		.loc 1 611 0
 469 0018 5A64     		str	r2, [r3, #68]
 470              		.loc 1 615 0
 471 001a F5D1     		bne	.L46
 472              		.loc 1 616 0
 473 001c 1920     		movs	r0, #25
 474              	.LVL22:
 475 001e FFF7FEFF 		bl	nvicDisableVector
 476              		.loc 1 617 0
 477 0022 1B20     		movs	r0, #27
 478 0024 FFF7FEFF 		bl	nvicDisableVector
 479              		.loc 1 618 0
 480 0028 0349     		ldr	r1, .L49+4
 481 002a 4A6C     		ldr	r2, [r1, #68]
 482 002c 22F00100 		bic	r0, r2, #1
 483 0030 4864     		str	r0, [r1, #68]
 484 0032 E9E7     		b	.L46
 485              	.L50:
 486              		.align	2
 487              	.L49:
 488 0034 00000000 		.word	.LANCHOR0
 489 0038 00380240 		.word	1073887232
 490              		.cfi_endproc
 491              	.LFE122:
 492              		.size	pwm_lld_stop, .-pwm_lld_stop
 493 003c AFF30080 		.section	.text.pwm_lld_enable_channel,"ax",%progbits
 494              		.align	2
 495              		.p2align 4,,15
 496              		.global	pwm_lld_enable_channel
 497              		.thumb
 498              		.thumb_func
 499              		.type	pwm_lld_enable_channel, %function
 500              	pwm_lld_enable_channel:
 501              	.LFB123:
 502              		.loc 1 675 0
 503              		.cfi_startproc
 504              		@ args = 0, pretend = 0, frame = 0
 505              		@ frame_needed = 0, uses_anonymous_args = 0
 506              		@ link register save eliminated.
ARM GAS  C:\Users\DNIEL~1\AppData\Local\Temp\ccNxMDLU.s 			page 10


 507              	.LVL23:
 508 0000 10B4     		push	{r4}
 509              	.LCFI5:
 510              		.cfi_def_cfa_offset 4
 511              		.loc 1 680 0
 512 0002 4468     		ldr	r4, [r0, #4]
 513              		.cfi_offset 4, -4
 514              		.loc 1 677 0
 515 0004 0369     		ldr	r3, [r0, #16]
 516              		.loc 1 680 0
 517 0006 04EBC10C 		add	ip, r4, r1, lsl #3
 518              		.loc 1 677 0
 519 000a 01F10C04 		add	r4, r1, #12
 520 000e 03EB8404 		add	r4, r3, r4, lsl #2
 521              		.loc 1 680 0
 522 0012 DCF81000 		ldr	r0, [ip, #16]
 523              	.LVL24:
 524              		.loc 1 677 0
 525 0016 6260     		str	r2, [r4, #4]
 526              		.loc 1 680 0
 527 0018 50B1     		cbz	r0, .L51
 528              	.LBB2:
 529              		.loc 1 684 0
 530 001a 0220     		movs	r0, #2
 531              		.loc 1 681 0
 532 001c DA68     		ldr	r2, [r3, #12]
 533              	.LVL25:
 534              		.loc 1 684 0
 535 001e 10FA01F1 		lsls	r1, r0, r1
 536              	.LVL26:
 537 0022 1142     		tst	r1, r2
 538 0024 04D1     		bne	.L51
 539              		.loc 1 685 0
 540 0026 41EA0202 		orr	r2, r1, r2
 541              	.LVL27:
 542              		.loc 1 686 0
 543 002a C943     		mvns	r1, r1
 544              		.loc 1 685 0
 545 002c DA60     		str	r2, [r3, #12]
 546              		.loc 1 686 0
 547 002e 1961     		str	r1, [r3, #16]
 548              	.L51:
 549              	.LBE2:
 550              		.loc 1 689 0
 551 0030 10BC     		pop	{r4}
 552 0032 7047     		bx	lr
 553              		.cfi_endproc
 554              	.LFE123:
 555              		.size	pwm_lld_enable_channel, .-pwm_lld_enable_channel
 556 0034 AFF30080 		.section	.text.pwm_lld_disable_channel,"ax",%progbits
 556      AFF30080 
 556      AFF30080 
 557              		.align	2
 558              		.p2align 4,,15
 559              		.global	pwm_lld_disable_channel
 560              		.thumb
 561              		.thumb_func
ARM GAS  C:\Users\DNIEL~1\AppData\Local\Temp\ccNxMDLU.s 			page 11


 562              		.type	pwm_lld_disable_channel, %function
 563              	pwm_lld_disable_channel:
 564              	.LFB124:
 565              		.loc 1 703 0
 566              		.cfi_startproc
 567              		@ args = 0, pretend = 0, frame = 0
 568              		@ frame_needed = 0, uses_anonymous_args = 0
 569              		@ link register save eliminated.
 570              	.LVL28:
 571              		.loc 1 705 0
 572 0000 0369     		ldr	r3, [r0, #16]
 573 0002 01F10C02 		add	r2, r1, #12
 574 0006 03EB820C 		add	ip, r3, r2, lsl #2
 575 000a 0020     		movs	r0, #0
 576              	.LVL29:
 577 000c CCF80400 		str	r0, [ip, #4]
 578              		.loc 1 706 0
 579 0010 DA68     		ldr	r2, [r3, #12]
 580 0012 0220     		movs	r0, #2
 581 0014 8840     		lsls	r0, r0, r1
 582 0016 22EA0001 		bic	r1, r2, r0
 583              	.LVL30:
 584 001a D960     		str	r1, [r3, #12]
 585              		.loc 1 707 0
 586 001c 7047     		bx	lr
 587              		.cfi_endproc
 588              	.LFE124:
 589              		.size	pwm_lld_disable_channel, .-pwm_lld_disable_channel
 590              		.global	PWMD1
 591 001e 00BF     		.section	.bss.PWMD1,"aw",%nobits
 592              		.align	2
 593              		.set	.LANCHOR0,. + 0
 594              		.type	PWMD1, %object
 595              		.size	PWMD1, 20
 596              	PWMD1:
 597 0000 00000000 		.space	20
 597      00000000 
 597      00000000 
 597      00000000 
 597      00000000 
 598              		.text
 599              	.Letext0:
 600              		.section	.debug_loc,"",%progbits
 601              	.Ldebug_loc0:
 602              	.LLST0:
 603 0000 00000000 		.4byte	.LFB118
 604 0004 08000000 		.4byte	.LCFI0
 605 0008 0200     		.2byte	0x2
 606 000a 7D       		.byte	0x7d
 607 000b 00       		.sleb128 0
 608 000c 08000000 		.4byte	.LCFI0
 609 0010 24000000 		.4byte	.LFE118
 610 0014 0200     		.2byte	0x2
 611 0016 7D       		.byte	0x7d
 612 0017 08       		.sleb128 8
 613 0018 00000000 		.4byte	0x0
 614 001c 00000000 		.4byte	0x0
ARM GAS  C:\Users\DNIEL~1\AppData\Local\Temp\ccNxMDLU.s 			page 12


 615              	.LLST1:
 616 0020 00000000 		.4byte	.LFB119
 617 0024 08000000 		.4byte	.LCFI1
 618 0028 0200     		.2byte	0x2
 619 002a 7D       		.byte	0x7d
 620 002b 00       		.sleb128 0
 621 002c 08000000 		.4byte	.LCFI1
 622 0030 60000000 		.4byte	.LFE119
 623 0034 0200     		.2byte	0x2
 624 0036 7D       		.byte	0x7d
 625 0037 08       		.sleb128 8
 626 0038 00000000 		.4byte	0x0
 627 003c 00000000 		.4byte	0x0
 628              	.LLST2:
 629 0040 00000000 		.4byte	.LFB120
 630 0044 02000000 		.4byte	.LCFI2
 631 0048 0200     		.2byte	0x2
 632 004a 7D       		.byte	0x7d
 633 004b 00       		.sleb128 0
 634 004c 02000000 		.4byte	.LCFI2
 635 0050 18000000 		.4byte	.LFE120
 636 0054 0200     		.2byte	0x2
 637 0056 7D       		.byte	0x7d
 638 0057 08       		.sleb128 8
 639 0058 00000000 		.4byte	0x0
 640 005c 00000000 		.4byte	0x0
 641              	.LLST3:
 642 0060 00000000 		.4byte	.LFB121
 643 0064 06000000 		.4byte	.LCFI3
 644 0068 0200     		.2byte	0x2
 645 006a 7D       		.byte	0x7d
 646 006b 00       		.sleb128 0
 647 006c 06000000 		.4byte	.LCFI3
 648 0070 20010000 		.4byte	.LFE121
 649 0074 0200     		.2byte	0x2
 650 0076 7D       		.byte	0x7d
 651 0077 10       		.sleb128 16
 652 0078 00000000 		.4byte	0x0
 653 007c 00000000 		.4byte	0x0
 654              	.LLST4:
 655 0080 00000000 		.4byte	.LVL1
 656 0084 1A000000 		.4byte	.LVL2
 657 0088 0100     		.2byte	0x1
 658 008a 50       		.byte	0x50
 659 008b 1A000000 		.4byte	.LVL2
 660 008f 22000000 		.4byte	.LVL3
 661 0093 0100     		.2byte	0x1
 662 0095 54       		.byte	0x54
 663 0096 D4000000 		.4byte	.LVL17
 664 009a DA000000 		.4byte	.LVL18
 665 009e 0100     		.2byte	0x1
 666 00a0 50       		.byte	0x50
 667 00a1 DA000000 		.4byte	.LVL18
 668 00a5 20010000 		.4byte	.LFE121
 669 00a9 0100     		.2byte	0x1
 670 00ab 54       		.byte	0x54
 671 00ac 00000000 		.4byte	0x0
ARM GAS  C:\Users\DNIEL~1\AppData\Local\Temp\ccNxMDLU.s 			page 13


 672 00b0 00000000 		.4byte	0x0
 673              	.LLST5:
 674 00b4 3E000000 		.4byte	.LVL4
 675 00b8 48000000 		.4byte	.LVL5
 676 00bc 0200     		.2byte	0x2
 677 00be 30       		.byte	0x30
 678 00bf 9F       		.byte	0x9f
 679 00c0 48000000 		.4byte	.LVL5
 680 00c4 86000000 		.4byte	.LVL7
 681 00c8 0100     		.2byte	0x1
 682 00ca 51       		.byte	0x51
 683 00cb 86000000 		.4byte	.LVL7
 684 00cf 9A000000 		.4byte	.LVL8
 685 00d3 0200     		.2byte	0x2
 686 00d5 73       		.byte	0x73
 687 00d6 20       		.sleb128 32
 688 00d7 9A000000 		.4byte	.LVL8
 689 00db 9E000000 		.4byte	.LVL9
 690 00df 0100     		.2byte	0x1
 691 00e1 51       		.byte	0x51
 692 00e2 9E000000 		.4byte	.LVL9
 693 00e6 AA000000 		.4byte	.LVL10
 694 00ea 0100     		.2byte	0x1
 695 00ec 51       		.byte	0x51
 696 00ed AA000000 		.4byte	.LVL10
 697 00f1 B0000000 		.4byte	.LVL11
 698 00f5 0100     		.2byte	0x1
 699 00f7 51       		.byte	0x51
 700 00f8 B0000000 		.4byte	.LVL11
 701 00fc BE000000 		.4byte	.LVL12
 702 0100 0100     		.2byte	0x1
 703 0102 51       		.byte	0x51
 704 0103 BE000000 		.4byte	.LVL12
 705 0107 C4000000 		.4byte	.LVL13
 706 010b 0100     		.2byte	0x1
 707 010d 51       		.byte	0x51
 708 010e C4000000 		.4byte	.LVL13
 709 0112 C8000000 		.4byte	.LVL14
 710 0116 0100     		.2byte	0x1
 711 0118 51       		.byte	0x51
 712 0119 C8000000 		.4byte	.LVL14
 713 011d CE000000 		.4byte	.LVL15
 714 0121 0100     		.2byte	0x1
 715 0123 51       		.byte	0x51
 716 0124 CE000000 		.4byte	.LVL15
 717 0128 D2000000 		.4byte	.LVL16
 718 012c 0100     		.2byte	0x1
 719 012e 51       		.byte	0x51
 720 012f D2000000 		.4byte	.LVL16
 721 0133 D4000000 		.4byte	.LVL17
 722 0137 0100     		.2byte	0x1
 723 0139 51       		.byte	0x51
 724 013a 00000000 		.4byte	0x0
 725 013e 00000000 		.4byte	0x0
 726              	.LLST6:
 727 0142 00000000 		.4byte	.LFB122
 728 0146 02000000 		.4byte	.LCFI4
ARM GAS  C:\Users\DNIEL~1\AppData\Local\Temp\ccNxMDLU.s 			page 14


 729 014a 0200     		.2byte	0x2
 730 014c 7D       		.byte	0x7d
 731 014d 00       		.sleb128 0
 732 014e 02000000 		.4byte	.LCFI4
 733 0152 3C000000 		.4byte	.LFE122
 734 0156 0200     		.2byte	0x2
 735 0158 7D       		.byte	0x7d
 736 0159 08       		.sleb128 8
 737 015a 00000000 		.4byte	0x0
 738 015e 00000000 		.4byte	0x0
 739              	.LLST7:
 740 0162 00000000 		.4byte	.LVL19
 741 0166 08000000 		.4byte	.LVL20
 742 016a 0100     		.2byte	0x1
 743 016c 50       		.byte	0x50
 744 016d 0A000000 		.4byte	.LVL21
 745 0171 1E000000 		.4byte	.LVL22
 746 0175 0100     		.2byte	0x1
 747 0177 50       		.byte	0x50
 748 0178 00000000 		.4byte	0x0
 749 017c 00000000 		.4byte	0x0
 750              	.LLST8:
 751 0180 00000000 		.4byte	.LFB123
 752 0184 02000000 		.4byte	.LCFI5
 753 0188 0200     		.2byte	0x2
 754 018a 7D       		.byte	0x7d
 755 018b 00       		.sleb128 0
 756 018c 02000000 		.4byte	.LCFI5
 757 0190 34000000 		.4byte	.LFE123
 758 0194 0200     		.2byte	0x2
 759 0196 7D       		.byte	0x7d
 760 0197 04       		.sleb128 4
 761 0198 00000000 		.4byte	0x0
 762 019c 00000000 		.4byte	0x0
 763              	.LLST9:
 764 01a0 00000000 		.4byte	.LVL23
 765 01a4 16000000 		.4byte	.LVL24
 766 01a8 0100     		.2byte	0x1
 767 01aa 50       		.byte	0x50
 768 01ab 00000000 		.4byte	0x0
 769 01af 00000000 		.4byte	0x0
 770              	.LLST10:
 771 01b3 00000000 		.4byte	.LVL23
 772 01b7 22000000 		.4byte	.LVL26
 773 01bb 0100     		.2byte	0x1
 774 01bd 51       		.byte	0x51
 775 01be 00000000 		.4byte	0x0
 776 01c2 00000000 		.4byte	0x0
 777              	.LLST11:
 778 01c6 00000000 		.4byte	.LVL23
 779 01ca 1E000000 		.4byte	.LVL25
 780 01ce 0100     		.2byte	0x1
 781 01d0 52       		.byte	0x52
 782 01d1 00000000 		.4byte	0x0
 783 01d5 00000000 		.4byte	0x0
 784              	.LLST12:
 785 01d9 1E000000 		.4byte	.LVL25
ARM GAS  C:\Users\DNIEL~1\AppData\Local\Temp\ccNxMDLU.s 			page 15


 786 01dd 2A000000 		.4byte	.LVL27
 787 01e1 0100     		.2byte	0x1
 788 01e3 52       		.byte	0x52
 789 01e4 00000000 		.4byte	0x0
 790 01e8 00000000 		.4byte	0x0
 791              	.LLST13:
 792 01ec 00000000 		.4byte	.LVL28
 793 01f0 0C000000 		.4byte	.LVL29
 794 01f4 0100     		.2byte	0x1
 795 01f6 50       		.byte	0x50
 796 01f7 00000000 		.4byte	0x0
 797 01fb 00000000 		.4byte	0x0
 798              	.LLST14:
 799 01ff 00000000 		.4byte	.LVL28
 800 0203 1A000000 		.4byte	.LVL30
 801 0207 0100     		.2byte	0x1
 802 0209 51       		.byte	0x51
 803 020a 00000000 		.4byte	0x0
 804 020e 00000000 		.4byte	0x0
 805              		.file 2 "c:\\program files (x86)\\codesourcery\\sourcery g++ lite\\bin\\../lib/gcc/arm-none-eabi/4
 806              		.file 3 "../../../Chibios/os/hal/platforms/STM32F4xx/stm32f4xx.h"
 807              		.file 4 "../../../Chibios/os/hal/include/pwm.h"
 808              		.file 5 "../../../Chibios/os/hal/platforms/STM32/TIMv1/pwm_lld.h"
 809              		.file 6 "../../../Chibios/os/hal/platforms/STM32/TIMv1/stm32_tim.h"
 810              		.file 7 "../../../Chibios/os/ports/common/ARMCMx/CMSIS/include/core_cm4.h"
 811              		.section	.debug_info
 812 0000 51070000 		.4byte	0x751
 813 0004 0200     		.2byte	0x2
 814 0006 00000000 		.4byte	.Ldebug_abbrev0
 815 000a 04       		.byte	0x4
 816 000b 01       		.uleb128 0x1
 817 000c D8020000 		.4byte	.LASF89
 818 0010 01       		.byte	0x1
 819 0011 EF010000 		.4byte	.LASF90
 820 0015 5E030000 		.4byte	.LASF91
 821 0019 00000000 		.4byte	0x0
 822 001d 00000000 		.4byte	0x0
 823 0021 00000000 		.4byte	.Ldebug_ranges0+0x0
 824 0025 00000000 		.4byte	.Ldebug_line0
 825 0029 02       		.uleb128 0x2
 826 002a 04       		.byte	0x4
 827 002b 05       		.byte	0x5
 828 002c 696E7400 		.ascii	"int\000"
 829 0030 03       		.uleb128 0x3
 830 0031 04       		.byte	0x4
 831 0032 07       		.byte	0x7
 832 0033 B1010000 		.4byte	.LASF0
 833 0037 03       		.uleb128 0x3
 834 0038 01       		.byte	0x1
 835 0039 06       		.byte	0x6
 836 003a 8E010000 		.4byte	.LASF1
 837 003e 04       		.uleb128 0x4
 838 003f A8000000 		.4byte	.LASF4
 839 0043 02       		.byte	0x2
 840 0044 2A       		.byte	0x2a
 841 0045 49000000 		.4byte	0x49
 842 0049 03       		.uleb128 0x3
ARM GAS  C:\Users\DNIEL~1\AppData\Local\Temp\ccNxMDLU.s 			page 16


 843 004a 01       		.byte	0x1
 844 004b 08       		.byte	0x8
 845 004c 61010000 		.4byte	.LASF2
 846 0050 03       		.uleb128 0x3
 847 0051 02       		.byte	0x2
 848 0052 05       		.byte	0x5
 849 0053 3D000000 		.4byte	.LASF3
 850 0057 04       		.uleb128 0x4
 851 0058 C7010000 		.4byte	.LASF5
 852 005c 02       		.byte	0x2
 853 005d 36       		.byte	0x36
 854 005e 62000000 		.4byte	0x62
 855 0062 03       		.uleb128 0x3
 856 0063 02       		.byte	0x2
 857 0064 07       		.byte	0x7
 858 0065 27020000 		.4byte	.LASF6
 859 0069 04       		.uleb128 0x4
 860 006a 6C020000 		.4byte	.LASF7
 861 006e 02       		.byte	0x2
 862 006f 4F       		.byte	0x4f
 863 0070 74000000 		.4byte	0x74
 864 0074 03       		.uleb128 0x3
 865 0075 04       		.byte	0x4
 866 0076 05       		.byte	0x5
 867 0077 F3000000 		.4byte	.LASF8
 868 007b 04       		.uleb128 0x4
 869 007c C1000000 		.4byte	.LASF9
 870 0080 02       		.byte	0x2
 871 0081 50       		.byte	0x50
 872 0082 86000000 		.4byte	0x86
 873 0086 03       		.uleb128 0x3
 874 0087 04       		.byte	0x4
 875 0088 07       		.byte	0x7
 876 0089 06010000 		.4byte	.LASF10
 877 008d 03       		.uleb128 0x3
 878 008e 08       		.byte	0x8
 879 008f 05       		.byte	0x5
 880 0090 E5000000 		.4byte	.LASF11
 881 0094 03       		.uleb128 0x3
 882 0095 08       		.byte	0x8
 883 0096 07       		.byte	0x7
 884 0097 9A010000 		.4byte	.LASF12
 885 009b 03       		.uleb128 0x3
 886 009c 01       		.byte	0x1
 887 009d 02       		.byte	0x2
 888 009e 74020000 		.4byte	.LASF13
 889 00a2 05       		.uleb128 0x5
 890 00a3 7B000000 		.4byte	0x7b
 891 00a7 03       		.uleb128 0x3
 892 00a8 01       		.byte	0x1
 893 00a9 08       		.byte	0x8
 894 00aa 51020000 		.4byte	.LASF14
 895 00ae 06       		.uleb128 0x6
 896 00af 7B000000 		.4byte	0x7b
 897 00b3 BE000000 		.4byte	0xbe
 898 00b7 07       		.uleb128 0x7
 899 00b8 30000000 		.4byte	0x30
ARM GAS  C:\Users\DNIEL~1\AppData\Local\Temp\ccNxMDLU.s 			page 17


 900 00bc 01       		.byte	0x1
 901 00bd 00       		.byte	0x0
 902 00be 06       		.uleb128 0x6
 903 00bf 7B000000 		.4byte	0x7b
 904 00c3 CE000000 		.4byte	0xce
 905 00c7 07       		.uleb128 0x7
 906 00c8 30000000 		.4byte	0x30
 907 00cc 03       		.byte	0x3
 908 00cd 00       		.byte	0x0
 909 00ce 05       		.uleb128 0x5
 910 00cf 69000000 		.4byte	0x69
 911 00d3 08       		.uleb128 0x8
 912 00d4 90       		.byte	0x90
 913 00d5 03       		.byte	0x3
 914 00d6 5804     		.2byte	0x458
 915 00d8 C0020000 		.4byte	0x2c0
 916 00dc 09       		.uleb128 0x9
 917 00dd 435200   		.ascii	"CR\000"
 918 00e0 03       		.byte	0x3
 919 00e1 5A04     		.2byte	0x45a
 920 00e3 A2000000 		.4byte	0xa2
 921 00e7 02       		.byte	0x2
 922 00e8 23       		.byte	0x23
 923 00e9 00       		.uleb128 0x0
 924 00ea 0A       		.uleb128 0xa
 925 00eb E7010000 		.4byte	.LASF15
 926 00ef 03       		.byte	0x3
 927 00f0 5B04     		.2byte	0x45b
 928 00f2 A2000000 		.4byte	0xa2
 929 00f6 02       		.byte	0x2
 930 00f7 23       		.byte	0x23
 931 00f8 04       		.uleb128 0x4
 932 00f9 0A       		.uleb128 0xa
 933 00fa 9A000000 		.4byte	.LASF16
 934 00fe 03       		.byte	0x3
 935 00ff 5C04     		.2byte	0x45c
 936 0101 A2000000 		.4byte	0xa2
 937 0105 02       		.byte	0x2
 938 0106 23       		.byte	0x23
 939 0107 08       		.uleb128 0x8
 940 0108 09       		.uleb128 0x9
 941 0109 43495200 		.ascii	"CIR\000"
 942 010d 03       		.byte	0x3
 943 010e 5D04     		.2byte	0x45d
 944 0110 A2000000 		.4byte	0xa2
 945 0114 02       		.byte	0x2
 946 0115 23       		.byte	0x23
 947 0116 0C       		.uleb128 0xc
 948 0117 0A       		.uleb128 0xa
 949 0118 B8000000 		.4byte	.LASF17
 950 011c 03       		.byte	0x3
 951 011d 5E04     		.2byte	0x45e
 952 011f A2000000 		.4byte	0xa2
 953 0123 02       		.byte	0x2
 954 0124 23       		.byte	0x23
 955 0125 10       		.uleb128 0x10
 956 0126 0A       		.uleb128 0xa
ARM GAS  C:\Users\DNIEL~1\AppData\Local\Temp\ccNxMDLU.s 			page 18


 957 0127 BE010000 		.4byte	.LASF18
 958 012b 03       		.byte	0x3
 959 012c 5F04     		.2byte	0x45f
 960 012e A2000000 		.4byte	0xa2
 961 0132 02       		.byte	0x2
 962 0133 23       		.byte	0x23
 963 0134 14       		.uleb128 0x14
 964 0135 0A       		.uleb128 0xa
 965 0136 3E030000 		.4byte	.LASF19
 966 013a 03       		.byte	0x3
 967 013b 6004     		.2byte	0x460
 968 013d A2000000 		.4byte	0xa2
 969 0141 02       		.byte	0x2
 970 0142 23       		.byte	0x23
 971 0143 18       		.uleb128 0x18
 972 0144 0A       		.uleb128 0xa
 973 0145 8C020000 		.4byte	.LASF20
 974 0149 03       		.byte	0x3
 975 014a 6104     		.2byte	0x461
 976 014c 7B000000 		.4byte	0x7b
 977 0150 02       		.byte	0x2
 978 0151 23       		.byte	0x23
 979 0152 1C       		.uleb128 0x1c
 980 0153 0A       		.uleb128 0xa
 981 0154 1B000000 		.4byte	.LASF21
 982 0158 03       		.byte	0x3
 983 0159 6204     		.2byte	0x462
 984 015b A2000000 		.4byte	0xa2
 985 015f 02       		.byte	0x2
 986 0160 23       		.byte	0x23
 987 0161 20       		.uleb128 0x20
 988 0162 0A       		.uleb128 0xa
 989 0163 1F010000 		.4byte	.LASF22
 990 0167 03       		.byte	0x3
 991 0168 6304     		.2byte	0x463
 992 016a A2000000 		.4byte	0xa2
 993 016e 02       		.byte	0x2
 994 016f 23       		.byte	0x23
 995 0170 24       		.uleb128 0x24
 996 0171 0A       		.uleb128 0xa
 997 0172 96020000 		.4byte	.LASF23
 998 0176 03       		.byte	0x3
 999 0177 6404     		.2byte	0x464
 1000 0179 AE000000 		.4byte	0xae
 1001 017d 02       		.byte	0x2
 1002 017e 23       		.byte	0x23
 1003 017f 28       		.uleb128 0x28
 1004 0180 0A       		.uleb128 0xa
 1005 0181 76000000 		.4byte	.LASF24
 1006 0185 03       		.byte	0x3
 1007 0186 6504     		.2byte	0x465
 1008 0188 A2000000 		.4byte	0xa2
 1009 018c 02       		.byte	0x2
 1010 018d 23       		.byte	0x23
 1011 018e 30       		.uleb128 0x30
 1012 018f 0A       		.uleb128 0xa
 1013 0190 24000000 		.4byte	.LASF25
ARM GAS  C:\Users\DNIEL~1\AppData\Local\Temp\ccNxMDLU.s 			page 19


 1014 0194 03       		.byte	0x3
 1015 0195 6604     		.2byte	0x466
 1016 0197 A2000000 		.4byte	0xa2
 1017 019b 02       		.byte	0x2
 1018 019c 23       		.byte	0x23
 1019 019d 34       		.uleb128 0x34
 1020 019e 0A       		.uleb128 0xa
 1021 019f DD000000 		.4byte	.LASF26
 1022 01a3 03       		.byte	0x3
 1023 01a4 6704     		.2byte	0x467
 1024 01a6 A2000000 		.4byte	0xa2
 1025 01aa 02       		.byte	0x2
 1026 01ab 23       		.byte	0x23
 1027 01ac 38       		.uleb128 0x38
 1028 01ad 0A       		.uleb128 0xa
 1029 01ae A0020000 		.4byte	.LASF27
 1030 01b2 03       		.byte	0x3
 1031 01b3 6804     		.2byte	0x468
 1032 01b5 7B000000 		.4byte	0x7b
 1033 01b9 02       		.byte	0x2
 1034 01ba 23       		.byte	0x23
 1035 01bb 3C       		.uleb128 0x3c
 1036 01bc 0A       		.uleb128 0xa
 1037 01bd B0000000 		.4byte	.LASF28
 1038 01c1 03       		.byte	0x3
 1039 01c2 6904     		.2byte	0x469
 1040 01c4 A2000000 		.4byte	0xa2
 1041 01c8 02       		.byte	0x2
 1042 01c9 23       		.byte	0x23
 1043 01ca 40       		.uleb128 0x40
 1044 01cb 0A       		.uleb128 0xa
 1045 01cc 86010000 		.4byte	.LASF29
 1046 01d0 03       		.byte	0x3
 1047 01d1 6A04     		.2byte	0x46a
 1048 01d3 A2000000 		.4byte	0xa2
 1049 01d7 02       		.byte	0x2
 1050 01d8 23       		.byte	0x23
 1051 01d9 44       		.uleb128 0x44
 1052 01da 0A       		.uleb128 0xa
 1053 01db AA020000 		.4byte	.LASF30
 1054 01df 03       		.byte	0x3
 1055 01e0 6B04     		.2byte	0x46b
 1056 01e2 AE000000 		.4byte	0xae
 1057 01e6 02       		.byte	0x2
 1058 01e7 23       		.byte	0x23
 1059 01e8 48       		.uleb128 0x48
 1060 01e9 0A       		.uleb128 0xa
 1061 01ea 00000000 		.4byte	.LASF31
 1062 01ee 03       		.byte	0x3
 1063 01ef 6C04     		.2byte	0x46c
 1064 01f1 A2000000 		.4byte	0xa2
 1065 01f5 02       		.byte	0x2
 1066 01f6 23       		.byte	0x23
 1067 01f7 50       		.uleb128 0x50
 1068 01f8 0A       		.uleb128 0xa
 1069 01f9 82020000 		.4byte	.LASF32
 1070 01fd 03       		.byte	0x3
ARM GAS  C:\Users\DNIEL~1\AppData\Local\Temp\ccNxMDLU.s 			page 20


 1071 01fe 6D04     		.2byte	0x46d
 1072 0200 A2000000 		.4byte	0xa2
 1073 0204 02       		.byte	0x2
 1074 0205 23       		.byte	0x23
 1075 0206 54       		.uleb128 0x54
 1076 0207 0A       		.uleb128 0xa
 1077 0208 89000000 		.4byte	.LASF33
 1078 020c 03       		.byte	0x3
 1079 020d 6E04     		.2byte	0x46e
 1080 020f A2000000 		.4byte	0xa2
 1081 0213 02       		.byte	0x2
 1082 0214 23       		.byte	0x23
 1083 0215 58       		.uleb128 0x58
 1084 0216 0A       		.uleb128 0xa
 1085 0217 B4020000 		.4byte	.LASF34
 1086 021b 03       		.byte	0x3
 1087 021c 6F04     		.2byte	0x46f
 1088 021e 7B000000 		.4byte	0x7b
 1089 0222 02       		.byte	0x2
 1090 0223 23       		.byte	0x23
 1091 0224 5C       		.uleb128 0x5c
 1092 0225 0A       		.uleb128 0xa
 1093 0226 3A020000 		.4byte	.LASF35
 1094 022a 03       		.byte	0x3
 1095 022b 7004     		.2byte	0x470
 1096 022d A2000000 		.4byte	0xa2
 1097 0231 02       		.byte	0x2
 1098 0232 23       		.byte	0x23
 1099 0233 60       		.uleb128 0x60
 1100 0234 0A       		.uleb128 0xa
 1101 0235 B8030000 		.4byte	.LASF36
 1102 0239 03       		.byte	0x3
 1103 023a 7104     		.2byte	0x471
 1104 023c A2000000 		.4byte	0xa2
 1105 0240 02       		.byte	0x2
 1106 0241 23       		.byte	0x23
 1107 0242 64       		.uleb128 0x64
 1108 0243 0A       		.uleb128 0xa
 1109 0244 BE020000 		.4byte	.LASF37
 1110 0248 03       		.byte	0x3
 1111 0249 7204     		.2byte	0x472
 1112 024b AE000000 		.4byte	0xae
 1113 024f 02       		.byte	0x2
 1114 0250 23       		.byte	0x23
 1115 0251 68       		.uleb128 0x68
 1116 0252 0A       		.uleb128 0xa
 1117 0253 50000000 		.4byte	.LASF38
 1118 0257 03       		.byte	0x3
 1119 0258 7304     		.2byte	0x473
 1120 025a A2000000 		.4byte	0xa2
 1121 025e 02       		.byte	0x2
 1122 025f 23       		.byte	0x23
 1123 0260 70       		.uleb128 0x70
 1124 0261 09       		.uleb128 0x9
 1125 0262 43535200 		.ascii	"CSR\000"
 1126 0266 03       		.byte	0x3
 1127 0267 7404     		.2byte	0x474
ARM GAS  C:\Users\DNIEL~1\AppData\Local\Temp\ccNxMDLU.s 			page 21


 1128 0269 A2000000 		.4byte	0xa2
 1129 026d 02       		.byte	0x2
 1130 026e 23       		.byte	0x23
 1131 026f 74       		.uleb128 0x74
 1132 0270 0A       		.uleb128 0xa
 1133 0271 C8020000 		.4byte	.LASF39
 1134 0275 03       		.byte	0x3
 1135 0276 7504     		.2byte	0x475
 1136 0278 AE000000 		.4byte	0xae
 1137 027c 02       		.byte	0x2
 1138 027d 23       		.byte	0x23
 1139 027e 78       		.uleb128 0x78
 1140 027f 0A       		.uleb128 0xa
 1141 0280 83000000 		.4byte	.LASF40
 1142 0284 03       		.byte	0x3
 1143 0285 7604     		.2byte	0x476
 1144 0287 A2000000 		.4byte	0xa2
 1145 028b 03       		.byte	0x3
 1146 028c 23       		.byte	0x23
 1147 028d 8001     		.uleb128 0x80
 1148 028f 0A       		.uleb128 0xa
 1149 0290 55000000 		.4byte	.LASF41
 1150 0294 03       		.byte	0x3
 1151 0295 7704     		.2byte	0x477
 1152 0297 A2000000 		.4byte	0xa2
 1153 029b 03       		.byte	0x3
 1154 029c 23       		.byte	0x23
 1155 029d 8401     		.uleb128 0x84
 1156 029f 0A       		.uleb128 0xa
 1157 02a0 94030000 		.4byte	.LASF42
 1158 02a4 03       		.byte	0x3
 1159 02a5 7804     		.2byte	0x478
 1160 02a7 A2000000 		.4byte	0xa2
 1161 02ab 03       		.byte	0x3
 1162 02ac 23       		.byte	0x23
 1163 02ad 8801     		.uleb128 0x88
 1164 02af 0A       		.uleb128 0xa
 1165 02b0 CF000000 		.4byte	.LASF43
 1166 02b4 03       		.byte	0x3
 1167 02b5 7904     		.2byte	0x479
 1168 02b7 A2000000 		.4byte	0xa2
 1169 02bb 03       		.byte	0x3
 1170 02bc 23       		.byte	0x23
 1171 02bd 8C01     		.uleb128 0x8c
 1172 02bf 00       		.byte	0x0
 1173 02c0 0B       		.uleb128 0xb
 1174 02c1 0F000000 		.4byte	.LASF44
 1175 02c5 03       		.byte	0x3
 1176 02c6 7B04     		.2byte	0x47b
 1177 02c8 D3000000 		.4byte	0xd3
 1178 02cc 0C       		.uleb128 0xc
 1179 02cd 01       		.byte	0x1
 1180 02ce 04       		.byte	0x4
 1181 02cf 55       		.byte	0x55
 1182 02d0 E7020000 		.4byte	0x2e7
 1183 02d4 0D       		.uleb128 0xd
 1184 02d5 56010000 		.4byte	.LASF45
ARM GAS  C:\Users\DNIEL~1\AppData\Local\Temp\ccNxMDLU.s 			page 22


 1185 02d9 00       		.sleb128 0
 1186 02da 0D       		.uleb128 0xd
 1187 02db 0F030000 		.4byte	.LASF46
 1188 02df 01       		.sleb128 1
 1189 02e0 0D       		.uleb128 0xd
 1190 02e1 05030000 		.4byte	.LASF47
 1191 02e5 02       		.sleb128 2
 1192 02e6 00       		.byte	0x0
 1193 02e7 04       		.uleb128 0x4
 1194 02e8 9F030000 		.4byte	.LASF48
 1195 02ec 04       		.byte	0x4
 1196 02ed 59       		.byte	0x59
 1197 02ee CC020000 		.4byte	0x2cc
 1198 02f2 04       		.uleb128 0x4
 1199 02f3 62020000 		.4byte	.LASF49
 1200 02f7 04       		.byte	0x4
 1201 02f8 5E       		.byte	0x5e
 1202 02f9 FD020000 		.4byte	0x2fd
 1203 02fd 0E       		.uleb128 0xe
 1204 02fe 62020000 		.4byte	.LASF49
 1205 0302 14       		.byte	0x14
 1206 0303 05       		.byte	0x5
 1207 0304 6F01     		.2byte	0x16f
 1208 0306 56030000 		.4byte	0x356
 1209 030a 0A       		.uleb128 0xa
 1210 030b 31000000 		.4byte	.LASF50
 1211 030f 05       		.byte	0x5
 1212 0310 7301     		.2byte	0x173
 1213 0312 E7020000 		.4byte	0x2e7
 1214 0316 02       		.byte	0x2
 1215 0317 23       		.byte	0x23
 1216 0318 00       		.uleb128 0x0
 1217 0319 0A       		.uleb128 0xa
 1218 031a 93000000 		.4byte	.LASF51
 1219 031e 05       		.byte	0x5
 1220 031f 7701     		.2byte	0x177
 1221 0321 A5050000 		.4byte	0x5a5
 1222 0325 02       		.byte	0x2
 1223 0326 23       		.byte	0x23
 1224 0327 04       		.uleb128 0x4
 1225 0328 0A       		.uleb128 0xa
 1226 0329 18010000 		.4byte	.LASF52
 1227 032d 05       		.byte	0x5
 1228 032e 7B01     		.2byte	0x17b
 1229 0330 E5040000 		.4byte	0x4e5
 1230 0334 02       		.byte	0x2
 1231 0335 23       		.byte	0x23
 1232 0336 08       		.uleb128 0x8
 1233 0337 0A       		.uleb128 0xa
 1234 0338 D2020000 		.4byte	.LASF53
 1235 033c 05       		.byte	0x5
 1236 033d 8301     		.2byte	0x183
 1237 033f 7B000000 		.4byte	0x7b
 1238 0343 02       		.byte	0x2
 1239 0344 23       		.byte	0x23
 1240 0345 0C       		.uleb128 0xc
 1241 0346 09       		.uleb128 0x9
ARM GAS  C:\Users\DNIEL~1\AppData\Local\Temp\ccNxMDLU.s 			page 23


 1242 0347 74696D00 		.ascii	"tim\000"
 1243 034b 05       		.byte	0x5
 1244 034c 8701     		.2byte	0x187
 1245 034e B0050000 		.4byte	0x5b0
 1246 0352 02       		.byte	0x2
 1247 0353 23       		.byte	0x23
 1248 0354 10       		.uleb128 0x10
 1249 0355 00       		.byte	0x0
 1250 0356 04       		.uleb128 0x4
 1251 0357 AA030000 		.4byte	.LASF54
 1252 035b 04       		.byte	0x4
 1253 035c 65       		.byte	0x65
 1254 035d 61030000 		.4byte	0x361
 1255 0361 0F       		.uleb128 0xf
 1256 0362 04       		.byte	0x4
 1257 0363 67030000 		.4byte	0x367
 1258 0367 10       		.uleb128 0x10
 1259 0368 01       		.byte	0x1
 1260 0369 73030000 		.4byte	0x373
 1261 036d 11       		.uleb128 0x11
 1262 036e 73030000 		.4byte	0x373
 1263 0372 00       		.byte	0x0
 1264 0373 0F       		.uleb128 0xf
 1265 0374 04       		.byte	0x4
 1266 0375 F2020000 		.4byte	0x2f2
 1267 0379 08       		.uleb128 0x8
 1268 037a 60       		.byte	0x60
 1269 037b 06       		.byte	0x6
 1270 037c 9E01     		.2byte	0x19e
 1271 037e BC040000 		.4byte	0x4bc
 1272 0382 09       		.uleb128 0x9
 1273 0383 43523100 		.ascii	"CR1\000"
 1274 0387 06       		.byte	0x6
 1275 0388 9F01     		.2byte	0x19f
 1276 038a A2000000 		.4byte	0xa2
 1277 038e 02       		.byte	0x2
 1278 038f 23       		.byte	0x23
 1279 0390 00       		.uleb128 0x0
 1280 0391 09       		.uleb128 0x9
 1281 0392 43523200 		.ascii	"CR2\000"
 1282 0396 06       		.byte	0x6
 1283 0397 A001     		.2byte	0x1a0
 1284 0399 A2000000 		.4byte	0xa2
 1285 039d 02       		.byte	0x2
 1286 039e 23       		.byte	0x23
 1287 039f 04       		.uleb128 0x4
 1288 03a0 0A       		.uleb128 0xa
 1289 03a1 51010000 		.4byte	.LASF55
 1290 03a5 06       		.byte	0x6
 1291 03a6 A101     		.2byte	0x1a1
 1292 03a8 A2000000 		.4byte	0xa2
 1293 03ac 02       		.byte	0x2
 1294 03ad 23       		.byte	0x23
 1295 03ae 08       		.uleb128 0x8
 1296 03af 0A       		.uleb128 0xa
 1297 03b0 E2010000 		.4byte	.LASF56
 1298 03b4 06       		.byte	0x6
ARM GAS  C:\Users\DNIEL~1\AppData\Local\Temp\ccNxMDLU.s 			page 24


 1299 03b5 A201     		.2byte	0x1a2
 1300 03b7 A2000000 		.4byte	0xa2
 1301 03bb 02       		.byte	0x2
 1302 03bc 23       		.byte	0x23
 1303 03bd 0C       		.uleb128 0xc
 1304 03be 09       		.uleb128 0x9
 1305 03bf 535200   		.ascii	"SR\000"
 1306 03c2 06       		.byte	0x6
 1307 03c3 A301     		.2byte	0x1a3
 1308 03c5 A2000000 		.4byte	0xa2
 1309 03c9 02       		.byte	0x2
 1310 03ca 23       		.byte	0x23
 1311 03cb 10       		.uleb128 0x10
 1312 03cc 09       		.uleb128 0x9
 1313 03cd 45475200 		.ascii	"EGR\000"
 1314 03d1 06       		.byte	0x6
 1315 03d2 A401     		.2byte	0x1a4
 1316 03d4 A2000000 		.4byte	0xa2
 1317 03d8 02       		.byte	0x2
 1318 03d9 23       		.byte	0x23
 1319 03da 14       		.uleb128 0x14
 1320 03db 0A       		.uleb128 0xa
 1321 03dc 28010000 		.4byte	.LASF57
 1322 03e0 06       		.byte	0x6
 1323 03e1 A501     		.2byte	0x1a5
 1324 03e3 A2000000 		.4byte	0xa2
 1325 03e7 02       		.byte	0x2
 1326 03e8 23       		.byte	0x23
 1327 03e9 18       		.uleb128 0x18
 1328 03ea 0A       		.uleb128 0xa
 1329 03eb 37000000 		.4byte	.LASF58
 1330 03ef 06       		.byte	0x6
 1331 03f0 A601     		.2byte	0x1a6
 1332 03f2 A2000000 		.4byte	0xa2
 1333 03f6 02       		.byte	0x2
 1334 03f7 23       		.byte	0x23
 1335 03f8 1C       		.uleb128 0x1c
 1336 03f9 0A       		.uleb128 0xa
 1337 03fa 0A000000 		.4byte	.LASF59
 1338 03fe 06       		.byte	0x6
 1339 03ff A701     		.2byte	0x1a7
 1340 0401 A2000000 		.4byte	0xa2
 1341 0405 02       		.byte	0x2
 1342 0406 23       		.byte	0x23
 1343 0407 20       		.uleb128 0x20
 1344 0408 09       		.uleb128 0x9
 1345 0409 434E5400 		.ascii	"CNT\000"
 1346 040d 06       		.byte	0x6
 1347 040e A801     		.2byte	0x1a8
 1348 0410 A2000000 		.4byte	0xa2
 1349 0414 02       		.byte	0x2
 1350 0415 23       		.byte	0x23
 1351 0416 24       		.uleb128 0x24
 1352 0417 09       		.uleb128 0x9
 1353 0418 50534300 		.ascii	"PSC\000"
 1354 041c 06       		.byte	0x6
 1355 041d A901     		.2byte	0x1a9
ARM GAS  C:\Users\DNIEL~1\AppData\Local\Temp\ccNxMDLU.s 			page 25


 1356 041f A2000000 		.4byte	0xa2
 1357 0423 02       		.byte	0x2
 1358 0424 23       		.byte	0x23
 1359 0425 28       		.uleb128 0x28
 1360 0426 09       		.uleb128 0x9
 1361 0427 41525200 		.ascii	"ARR\000"
 1362 042b 06       		.byte	0x6
 1363 042c AA01     		.2byte	0x1aa
 1364 042e A2000000 		.4byte	0xa2
 1365 0432 02       		.byte	0x2
 1366 0433 23       		.byte	0x23
 1367 0434 2C       		.uleb128 0x2c
 1368 0435 09       		.uleb128 0x9
 1369 0436 52435200 		.ascii	"RCR\000"
 1370 043a 06       		.byte	0x6
 1371 043b AB01     		.2byte	0x1ab
 1372 043d A2000000 		.4byte	0xa2
 1373 0441 02       		.byte	0x2
 1374 0442 23       		.byte	0x23
 1375 0443 30       		.uleb128 0x30
 1376 0444 09       		.uleb128 0x9
 1377 0445 43435200 		.ascii	"CCR\000"
 1378 0449 06       		.byte	0x6
 1379 044a AC01     		.2byte	0x1ac
 1380 044c BC040000 		.4byte	0x4bc
 1381 0450 02       		.byte	0x2
 1382 0451 23       		.byte	0x23
 1383 0452 34       		.uleb128 0x34
 1384 0453 0A       		.uleb128 0xa
 1385 0454 DD010000 		.4byte	.LASF60
 1386 0458 06       		.byte	0x6
 1387 0459 AD01     		.2byte	0x1ad
 1388 045b A2000000 		.4byte	0xa2
 1389 045f 02       		.byte	0x2
 1390 0460 23       		.byte	0x23
 1391 0461 44       		.uleb128 0x44
 1392 0462 09       		.uleb128 0x9
 1393 0463 44435200 		.ascii	"DCR\000"
 1394 0467 06       		.byte	0x6
 1395 0468 AE01     		.2byte	0x1ae
 1396 046a A2000000 		.4byte	0xa2
 1397 046e 02       		.byte	0x2
 1398 046f 23       		.byte	0x23
 1399 0470 48       		.uleb128 0x48
 1400 0471 0A       		.uleb128 0xa
 1401 0472 2C000000 		.4byte	.LASF61
 1402 0476 06       		.byte	0x6
 1403 0477 AF01     		.2byte	0x1af
 1404 0479 A2000000 		.4byte	0xa2
 1405 047d 02       		.byte	0x2
 1406 047e 23       		.byte	0x23
 1407 047f 4C       		.uleb128 0x4c
 1408 0480 09       		.uleb128 0x9
 1409 0481 4F5200   		.ascii	"OR\000"
 1410 0484 06       		.byte	0x6
 1411 0485 B001     		.2byte	0x1b0
 1412 0487 A2000000 		.4byte	0xa2
ARM GAS  C:\Users\DNIEL~1\AppData\Local\Temp\ccNxMDLU.s 			page 26


 1413 048b 02       		.byte	0x2
 1414 048c 23       		.byte	0x23
 1415 048d 50       		.uleb128 0x50
 1416 048e 0A       		.uleb128 0xa
 1417 048f 46010000 		.4byte	.LASF62
 1418 0493 06       		.byte	0x6
 1419 0494 B101     		.2byte	0x1b1
 1420 0496 A2000000 		.4byte	0xa2
 1421 049a 02       		.byte	0x2
 1422 049b 23       		.byte	0x23
 1423 049c 54       		.uleb128 0x54
 1424 049d 0A       		.uleb128 0xa
 1425 049e FC000000 		.4byte	.LASF63
 1426 04a2 06       		.byte	0x6
 1427 04a3 B201     		.2byte	0x1b2
 1428 04a5 A2000000 		.4byte	0xa2
 1429 04a9 02       		.byte	0x2
 1430 04aa 23       		.byte	0x23
 1431 04ab 58       		.uleb128 0x58
 1432 04ac 0A       		.uleb128 0xa
 1433 04ad 01010000 		.4byte	.LASF64
 1434 04b1 06       		.byte	0x6
 1435 04b2 B301     		.2byte	0x1b3
 1436 04b4 A2000000 		.4byte	0xa2
 1437 04b8 02       		.byte	0x2
 1438 04b9 23       		.byte	0x23
 1439 04ba 5C       		.uleb128 0x5c
 1440 04bb 00       		.byte	0x0
 1441 04bc 05       		.uleb128 0x5
 1442 04bd BE000000 		.4byte	0xbe
 1443 04c1 0B       		.uleb128 0xb
 1444 04c2 56020000 		.4byte	.LASF65
 1445 04c6 06       		.byte	0x6
 1446 04c7 B401     		.2byte	0x1b4
 1447 04c9 79030000 		.4byte	0x379
 1448 04cd 0B       		.uleb128 0xb
 1449 04ce 47030000 		.4byte	.LASF66
 1450 04d2 05       		.byte	0x5
 1451 04d3 2001     		.2byte	0x120
 1452 04d5 7B000000 		.4byte	0x7b
 1453 04d9 0B       		.uleb128 0xb
 1454 04da 60000000 		.4byte	.LASF67
 1455 04de 05       		.byte	0x5
 1456 04df 2501     		.2byte	0x125
 1457 04e1 3E000000 		.4byte	0x3e
 1458 04e5 0B       		.uleb128 0xb
 1459 04e6 47000000 		.4byte	.LASF68
 1460 04ea 05       		.byte	0x5
 1461 04eb 2A01     		.2byte	0x12a
 1462 04ed 57000000 		.4byte	0x57
 1463 04f1 08       		.uleb128 0x8
 1464 04f2 08       		.byte	0x8
 1465 04f3 05       		.byte	0x5
 1466 04f4 2F01     		.2byte	0x12f
 1467 04f6 19050000 		.4byte	0x519
 1468 04fa 0A       		.uleb128 0xa
 1469 04fb 7E000000 		.4byte	.LASF69
ARM GAS  C:\Users\DNIEL~1\AppData\Local\Temp\ccNxMDLU.s 			page 27


 1470 04ff 05       		.byte	0x5
 1471 0500 3301     		.2byte	0x133
 1472 0502 CD040000 		.4byte	0x4cd
 1473 0506 02       		.byte	0x2
 1474 0507 23       		.byte	0x23
 1475 0508 00       		.uleb128 0x0
 1476 0509 0A       		.uleb128 0xa
 1477 050a C2030000 		.4byte	.LASF70
 1478 050e 05       		.byte	0x5
 1479 050f 3901     		.2byte	0x139
 1480 0511 56030000 		.4byte	0x356
 1481 0515 02       		.byte	0x2
 1482 0516 23       		.byte	0x23
 1483 0517 04       		.uleb128 0x4
 1484 0518 00       		.byte	0x0
 1485 0519 0B       		.uleb128 0xb
 1486 051a 2D030000 		.4byte	.LASF71
 1487 051e 05       		.byte	0x5
 1488 051f 3B01     		.2byte	0x13b
 1489 0521 F1040000 		.4byte	0x4f1
 1490 0525 08       		.uleb128 0x8
 1491 0526 34       		.byte	0x34
 1492 0527 05       		.byte	0x5
 1493 0528 4001     		.2byte	0x140
 1494 052a 89050000 		.4byte	0x589
 1495 052e 0A       		.uleb128 0xa
 1496 052f 1D030000 		.4byte	.LASF72
 1497 0533 05       		.byte	0x5
 1498 0534 4601     		.2byte	0x146
 1499 0536 7B000000 		.4byte	0x7b
 1500 053a 02       		.byte	0x2
 1501 053b 23       		.byte	0x23
 1502 053c 00       		.uleb128 0x0
 1503 053d 0A       		.uleb128 0xa
 1504 053e 18010000 		.4byte	.LASF52
 1505 0542 05       		.byte	0x5
 1506 0543 4C01     		.2byte	0x14c
 1507 0545 E5040000 		.4byte	0x4e5
 1508 0549 02       		.byte	0x2
 1509 054a 23       		.byte	0x23
 1510 054b 04       		.uleb128 0x4
 1511 054c 0A       		.uleb128 0xa
 1512 054d C2030000 		.4byte	.LASF70
 1513 0551 05       		.byte	0x5
 1514 0552 5201     		.2byte	0x152
 1515 0554 56030000 		.4byte	0x356
 1516 0558 02       		.byte	0x2
 1517 0559 23       		.byte	0x23
 1518 055a 08       		.uleb128 0x8
 1519 055b 0A       		.uleb128 0xa
 1520 055c FC020000 		.4byte	.LASF73
 1521 0560 05       		.byte	0x5
 1522 0561 5601     		.2byte	0x156
 1523 0563 89050000 		.4byte	0x589
 1524 0567 02       		.byte	0x2
 1525 0568 23       		.byte	0x23
 1526 0569 0C       		.uleb128 0xc
ARM GAS  C:\Users\DNIEL~1\AppData\Local\Temp\ccNxMDLU.s 			page 28


 1527 056a 09       		.uleb128 0x9
 1528 056b 63723200 		.ascii	"cr2\000"
 1529 056f 05       		.byte	0x5
 1530 0570 5C01     		.2byte	0x15c
 1531 0572 7B000000 		.4byte	0x7b
 1532 0576 02       		.byte	0x2
 1533 0577 23       		.byte	0x23
 1534 0578 2C       		.uleb128 0x2c
 1535 0579 0A       		.uleb128 0xa
 1536 057a 18030000 		.4byte	.LASF74
 1537 057e 05       		.byte	0x5
 1538 057f 6901     		.2byte	0x169
 1539 0581 7B000000 		.4byte	0x7b
 1540 0585 02       		.byte	0x2
 1541 0586 23       		.byte	0x23
 1542 0587 30       		.uleb128 0x30
 1543 0588 00       		.byte	0x0
 1544 0589 06       		.uleb128 0x6
 1545 058a 19050000 		.4byte	0x519
 1546 058e 99050000 		.4byte	0x599
 1547 0592 07       		.uleb128 0x7
 1548 0593 30000000 		.4byte	0x30
 1549 0597 03       		.byte	0x3
 1550 0598 00       		.byte	0x0
 1551 0599 0B       		.uleb128 0xb
 1552 059a 3C010000 		.4byte	.LASF75
 1553 059e 05       		.byte	0x5
 1554 059f 6A01     		.2byte	0x16a
 1555 05a1 25050000 		.4byte	0x525
 1556 05a5 0F       		.uleb128 0xf
 1557 05a6 04       		.byte	0x4
 1558 05a7 AB050000 		.4byte	0x5ab
 1559 05ab 12       		.uleb128 0x12
 1560 05ac 99050000 		.4byte	0x599
 1561 05b0 0F       		.uleb128 0xf
 1562 05b1 04       		.byte	0x4
 1563 05b2 C1040000 		.4byte	0x4c1
 1564 05b6 13       		.uleb128 0x13
 1565 05b7 01       		.byte	0x1
 1566 05b8 6D000000 		.4byte	.LASF76
 1567 05bc 01       		.byte	0x1
 1568 05bd 93       		.byte	0x93
 1569 05be 01       		.byte	0x1
 1570 05bf 00000000 		.4byte	.LFB118
 1571 05c3 24000000 		.4byte	.LFE118
 1572 05c7 00000000 		.4byte	.LLST0
 1573 05cb 14       		.uleb128 0x14
 1574 05cc 01       		.byte	0x1
 1575 05cd 9F000000 		.4byte	.LASF78
 1576 05d1 01       		.byte	0x1
 1577 05d2 A8       		.byte	0xa8
 1578 05d3 01       		.byte	0x1
 1579 05d4 00000000 		.4byte	.LFB119
 1580 05d8 60000000 		.4byte	.LFE119
 1581 05dc 20000000 		.4byte	.LLST1
 1582 05e0 F1050000 		.4byte	0x5f1
 1583 05e4 15       		.uleb128 0x15
ARM GAS  C:\Users\DNIEL~1\AppData\Local\Temp\ccNxMDLU.s 			page 29


 1584 05e5 737200   		.ascii	"sr\000"
 1585 05e8 01       		.byte	0x1
 1586 05e9 A9       		.byte	0xa9
 1587 05ea 57000000 		.4byte	0x57
 1588 05ee 01       		.byte	0x1
 1589 05ef 54       		.byte	0x54
 1590 05f0 00       		.byte	0x0
 1591 05f1 16       		.uleb128 0x16
 1592 05f2 01       		.byte	0x1
 1593 05f3 44020000 		.4byte	.LASF77
 1594 05f7 01       		.byte	0x1
 1595 05f8 5901     		.2byte	0x159
 1596 05fa 01       		.byte	0x1
 1597 05fb 00000000 		.4byte	.LFB120
 1598 05ff 18000000 		.4byte	.LFE120
 1599 0603 40000000 		.4byte	.LLST2
 1600 0607 17       		.uleb128 0x17
 1601 0608 01       		.byte	0x1
 1602 0609 2E010000 		.4byte	.LASF79
 1603 060d 01       		.byte	0x1
 1604 060e 8F01     		.2byte	0x18f
 1605 0610 01       		.byte	0x1
 1606 0611 00000000 		.4byte	.LFB121
 1607 0615 20010000 		.4byte	.LFE121
 1608 0619 60000000 		.4byte	.LLST3
 1609 061d 4E060000 		.4byte	0x64e
 1610 0621 18       		.uleb128 0x18
 1611 0622 4C010000 		.4byte	.LASF82
 1612 0626 01       		.byte	0x1
 1613 0627 8F01     		.2byte	0x18f
 1614 0629 73030000 		.4byte	0x373
 1615 062d 80000000 		.4byte	.LLST4
 1616 0631 19       		.uleb128 0x19
 1617 0632 70736300 		.ascii	"psc\000"
 1618 0636 01       		.byte	0x1
 1619 0637 9001     		.2byte	0x190
 1620 0639 7B000000 		.4byte	0x7b
 1621 063d 1A       		.uleb128 0x1a
 1622 063e CA000000 		.4byte	.LASF80
 1623 0642 01       		.byte	0x1
 1624 0643 9101     		.2byte	0x191
 1625 0645 7B000000 		.4byte	0x7b
 1626 0649 B4000000 		.4byte	.LLST5
 1627 064d 00       		.byte	0x0
 1628 064e 17       		.uleb128 0x17
 1629 064f 01       		.byte	0x1
 1630 0650 D0010000 		.4byte	.LASF81
 1631 0654 01       		.byte	0x1
 1632 0655 5B02     		.2byte	0x25b
 1633 0657 01       		.byte	0x1
 1634 0658 00000000 		.4byte	.LFB122
 1635 065c 3C000000 		.4byte	.LFE122
 1636 0660 42010000 		.4byte	.LLST6
 1637 0664 79060000 		.4byte	0x679
 1638 0668 18       		.uleb128 0x18
 1639 0669 4C010000 		.4byte	.LASF82
 1640 066d 01       		.byte	0x1
ARM GAS  C:\Users\DNIEL~1\AppData\Local\Temp\ccNxMDLU.s 			page 30


 1641 066e 5B02     		.2byte	0x25b
 1642 0670 73030000 		.4byte	0x373
 1643 0674 62010000 		.4byte	.LLST7
 1644 0678 00       		.byte	0x0
 1645 0679 17       		.uleb128 0x17
 1646 067a 01       		.byte	0x1
 1647 067b 6F010000 		.4byte	.LASF83
 1648 067f 01       		.byte	0x1
 1649 0680 A102     		.2byte	0x2a1
 1650 0682 01       		.byte	0x1
 1651 0683 00000000 		.4byte	.LFB123
 1652 0687 34000000 		.4byte	.LFE123
 1653 068b 80010000 		.4byte	.LLST8
 1654 068f DE060000 		.4byte	0x6de
 1655 0693 18       		.uleb128 0x18
 1656 0694 4C010000 		.4byte	.LASF82
 1657 0698 01       		.byte	0x1
 1658 0699 A102     		.2byte	0x2a1
 1659 069b 73030000 		.4byte	0x373
 1660 069f A0010000 		.4byte	.LLST9
 1661 06a3 18       		.uleb128 0x18
 1662 06a4 7A020000 		.4byte	.LASF84
 1663 06a8 01       		.byte	0x1
 1664 06a9 A202     		.2byte	0x2a2
 1665 06ab D9040000 		.4byte	0x4d9
 1666 06af B3010000 		.4byte	.LLST10
 1667 06b3 18       		.uleb128 0x18
 1668 06b4 D7000000 		.4byte	.LASF85
 1669 06b8 01       		.byte	0x1
 1670 06b9 A302     		.2byte	0x2a3
 1671 06bb E5040000 		.4byte	0x4e5
 1672 06bf C6010000 		.4byte	.LLST11
 1673 06c3 1B       		.uleb128 0x1b
 1674 06c4 1A000000 		.4byte	.LBB2
 1675 06c8 30000000 		.4byte	.LBE2
 1676 06cc 1A       		.uleb128 0x1a
 1677 06cd 18030000 		.4byte	.LASF74
 1678 06d1 01       		.byte	0x1
 1679 06d2 A902     		.2byte	0x2a9
 1680 06d4 7B000000 		.4byte	0x7b
 1681 06d8 D9010000 		.4byte	.LLST12
 1682 06dc 00       		.byte	0x0
 1683 06dd 00       		.byte	0x0
 1684 06de 1C       		.uleb128 0x1c
 1685 06df 01       		.byte	0x1
 1686 06e0 E4020000 		.4byte	.LASF86
 1687 06e4 01       		.byte	0x1
 1688 06e5 BF02     		.2byte	0x2bf
 1689 06e7 01       		.byte	0x1
 1690 06e8 00000000 		.4byte	.LFB124
 1691 06ec 1E000000 		.4byte	.LFE124
 1692 06f0 02       		.byte	0x2
 1693 06f1 7D       		.byte	0x7d
 1694 06f2 00       		.sleb128 0
 1695 06f3 18070000 		.4byte	0x718
 1696 06f7 18       		.uleb128 0x18
 1697 06f8 4C010000 		.4byte	.LASF82
ARM GAS  C:\Users\DNIEL~1\AppData\Local\Temp\ccNxMDLU.s 			page 31


 1698 06fc 01       		.byte	0x1
 1699 06fd BF02     		.2byte	0x2bf
 1700 06ff 73030000 		.4byte	0x373
 1701 0703 EC010000 		.4byte	.LLST13
 1702 0707 18       		.uleb128 0x18
 1703 0708 7A020000 		.4byte	.LASF84
 1704 070c 01       		.byte	0x1
 1705 070d BF02     		.2byte	0x2bf
 1706 070f D9040000 		.4byte	0x4d9
 1707 0713 FF010000 		.4byte	.LLST14
 1708 0717 00       		.byte	0x0
 1709 0718 1D       		.uleb128 0x1d
 1710 0719 51030000 		.4byte	.LASF87
 1711 071d 07       		.byte	0x7
 1712 071e 9806     		.2byte	0x698
 1713 0720 CE000000 		.4byte	0xce
 1714 0724 01       		.byte	0x1
 1715 0725 01       		.byte	0x1
 1716 0726 1D       		.uleb128 0x1d
 1717 0727 27030000 		.4byte	.LASF88
 1718 072b 05       		.byte	0x5
 1719 072c B301     		.2byte	0x1b3
 1720 072e F2020000 		.4byte	0x2f2
 1721 0732 01       		.byte	0x1
 1722 0733 01       		.byte	0x1
 1723 0734 1D       		.uleb128 0x1d
 1724 0735 51030000 		.4byte	.LASF87
 1725 0739 07       		.byte	0x7
 1726 073a 9806     		.2byte	0x698
 1727 073c CE000000 		.4byte	0xce
 1728 0740 01       		.byte	0x1
 1729 0741 01       		.byte	0x1
 1730 0742 1E       		.uleb128 0x1e
 1731 0743 27030000 		.4byte	.LASF88
 1732 0747 01       		.byte	0x1
 1733 0748 2B       		.byte	0x2b
 1734 0749 F2020000 		.4byte	0x2f2
 1735 074d 01       		.byte	0x1
 1736 074e 05       		.byte	0x5
 1737 074f 03       		.byte	0x3
 1738 0750 00000000 		.4byte	PWMD1
 1739 0754 00       		.byte	0x0
 1740              		.section	.debug_abbrev
 1741 0000 01       		.uleb128 0x1
 1742 0001 11       		.uleb128 0x11
 1743 0002 01       		.byte	0x1
 1744 0003 25       		.uleb128 0x25
 1745 0004 0E       		.uleb128 0xe
 1746 0005 13       		.uleb128 0x13
 1747 0006 0B       		.uleb128 0xb
 1748 0007 03       		.uleb128 0x3
 1749 0008 0E       		.uleb128 0xe
 1750 0009 1B       		.uleb128 0x1b
 1751 000a 0E       		.uleb128 0xe
 1752 000b 11       		.uleb128 0x11
 1753 000c 01       		.uleb128 0x1
 1754 000d 52       		.uleb128 0x52
ARM GAS  C:\Users\DNIEL~1\AppData\Local\Temp\ccNxMDLU.s 			page 32


 1755 000e 01       		.uleb128 0x1
 1756 000f 55       		.uleb128 0x55
 1757 0010 06       		.uleb128 0x6
 1758 0011 10       		.uleb128 0x10
 1759 0012 06       		.uleb128 0x6
 1760 0013 00       		.byte	0x0
 1761 0014 00       		.byte	0x0
 1762 0015 02       		.uleb128 0x2
 1763 0016 24       		.uleb128 0x24
 1764 0017 00       		.byte	0x0
 1765 0018 0B       		.uleb128 0xb
 1766 0019 0B       		.uleb128 0xb
 1767 001a 3E       		.uleb128 0x3e
 1768 001b 0B       		.uleb128 0xb
 1769 001c 03       		.uleb128 0x3
 1770 001d 08       		.uleb128 0x8
 1771 001e 00       		.byte	0x0
 1772 001f 00       		.byte	0x0
 1773 0020 03       		.uleb128 0x3
 1774 0021 24       		.uleb128 0x24
 1775 0022 00       		.byte	0x0
 1776 0023 0B       		.uleb128 0xb
 1777 0024 0B       		.uleb128 0xb
 1778 0025 3E       		.uleb128 0x3e
 1779 0026 0B       		.uleb128 0xb
 1780 0027 03       		.uleb128 0x3
 1781 0028 0E       		.uleb128 0xe
 1782 0029 00       		.byte	0x0
 1783 002a 00       		.byte	0x0
 1784 002b 04       		.uleb128 0x4
 1785 002c 16       		.uleb128 0x16
 1786 002d 00       		.byte	0x0
 1787 002e 03       		.uleb128 0x3
 1788 002f 0E       		.uleb128 0xe
 1789 0030 3A       		.uleb128 0x3a
 1790 0031 0B       		.uleb128 0xb
 1791 0032 3B       		.uleb128 0x3b
 1792 0033 0B       		.uleb128 0xb
 1793 0034 49       		.uleb128 0x49
 1794 0035 13       		.uleb128 0x13
 1795 0036 00       		.byte	0x0
 1796 0037 00       		.byte	0x0
 1797 0038 05       		.uleb128 0x5
 1798 0039 35       		.uleb128 0x35
 1799 003a 00       		.byte	0x0
 1800 003b 49       		.uleb128 0x49
 1801 003c 13       		.uleb128 0x13
 1802 003d 00       		.byte	0x0
 1803 003e 00       		.byte	0x0
 1804 003f 06       		.uleb128 0x6
 1805 0040 01       		.uleb128 0x1
 1806 0041 01       		.byte	0x1
 1807 0042 49       		.uleb128 0x49
 1808 0043 13       		.uleb128 0x13
 1809 0044 01       		.uleb128 0x1
 1810 0045 13       		.uleb128 0x13
 1811 0046 00       		.byte	0x0
ARM GAS  C:\Users\DNIEL~1\AppData\Local\Temp\ccNxMDLU.s 			page 33


 1812 0047 00       		.byte	0x0
 1813 0048 07       		.uleb128 0x7
 1814 0049 21       		.uleb128 0x21
 1815 004a 00       		.byte	0x0
 1816 004b 49       		.uleb128 0x49
 1817 004c 13       		.uleb128 0x13
 1818 004d 2F       		.uleb128 0x2f
 1819 004e 0B       		.uleb128 0xb
 1820 004f 00       		.byte	0x0
 1821 0050 00       		.byte	0x0
 1822 0051 08       		.uleb128 0x8
 1823 0052 13       		.uleb128 0x13
 1824 0053 01       		.byte	0x1
 1825 0054 0B       		.uleb128 0xb
 1826 0055 0B       		.uleb128 0xb
 1827 0056 3A       		.uleb128 0x3a
 1828 0057 0B       		.uleb128 0xb
 1829 0058 3B       		.uleb128 0x3b
 1830 0059 05       		.uleb128 0x5
 1831 005a 01       		.uleb128 0x1
 1832 005b 13       		.uleb128 0x13
 1833 005c 00       		.byte	0x0
 1834 005d 00       		.byte	0x0
 1835 005e 09       		.uleb128 0x9
 1836 005f 0D       		.uleb128 0xd
 1837 0060 00       		.byte	0x0
 1838 0061 03       		.uleb128 0x3
 1839 0062 08       		.uleb128 0x8
 1840 0063 3A       		.uleb128 0x3a
 1841 0064 0B       		.uleb128 0xb
 1842 0065 3B       		.uleb128 0x3b
 1843 0066 05       		.uleb128 0x5
 1844 0067 49       		.uleb128 0x49
 1845 0068 13       		.uleb128 0x13
 1846 0069 38       		.uleb128 0x38
 1847 006a 0A       		.uleb128 0xa
 1848 006b 00       		.byte	0x0
 1849 006c 00       		.byte	0x0
 1850 006d 0A       		.uleb128 0xa
 1851 006e 0D       		.uleb128 0xd
 1852 006f 00       		.byte	0x0
 1853 0070 03       		.uleb128 0x3
 1854 0071 0E       		.uleb128 0xe
 1855 0072 3A       		.uleb128 0x3a
 1856 0073 0B       		.uleb128 0xb
 1857 0074 3B       		.uleb128 0x3b
 1858 0075 05       		.uleb128 0x5
 1859 0076 49       		.uleb128 0x49
 1860 0077 13       		.uleb128 0x13
 1861 0078 38       		.uleb128 0x38
 1862 0079 0A       		.uleb128 0xa
 1863 007a 00       		.byte	0x0
 1864 007b 00       		.byte	0x0
 1865 007c 0B       		.uleb128 0xb
 1866 007d 16       		.uleb128 0x16
 1867 007e 00       		.byte	0x0
 1868 007f 03       		.uleb128 0x3
ARM GAS  C:\Users\DNIEL~1\AppData\Local\Temp\ccNxMDLU.s 			page 34


 1869 0080 0E       		.uleb128 0xe
 1870 0081 3A       		.uleb128 0x3a
 1871 0082 0B       		.uleb128 0xb
 1872 0083 3B       		.uleb128 0x3b
 1873 0084 05       		.uleb128 0x5
 1874 0085 49       		.uleb128 0x49
 1875 0086 13       		.uleb128 0x13
 1876 0087 00       		.byte	0x0
 1877 0088 00       		.byte	0x0
 1878 0089 0C       		.uleb128 0xc
 1879 008a 04       		.uleb128 0x4
 1880 008b 01       		.byte	0x1
 1881 008c 0B       		.uleb128 0xb
 1882 008d 0B       		.uleb128 0xb
 1883 008e 3A       		.uleb128 0x3a
 1884 008f 0B       		.uleb128 0xb
 1885 0090 3B       		.uleb128 0x3b
 1886 0091 0B       		.uleb128 0xb
 1887 0092 01       		.uleb128 0x1
 1888 0093 13       		.uleb128 0x13
 1889 0094 00       		.byte	0x0
 1890 0095 00       		.byte	0x0
 1891 0096 0D       		.uleb128 0xd
 1892 0097 28       		.uleb128 0x28
 1893 0098 00       		.byte	0x0
 1894 0099 03       		.uleb128 0x3
 1895 009a 0E       		.uleb128 0xe
 1896 009b 1C       		.uleb128 0x1c
 1897 009c 0D       		.uleb128 0xd
 1898 009d 00       		.byte	0x0
 1899 009e 00       		.byte	0x0
 1900 009f 0E       		.uleb128 0xe
 1901 00a0 13       		.uleb128 0x13
 1902 00a1 01       		.byte	0x1
 1903 00a2 03       		.uleb128 0x3
 1904 00a3 0E       		.uleb128 0xe
 1905 00a4 0B       		.uleb128 0xb
 1906 00a5 0B       		.uleb128 0xb
 1907 00a6 3A       		.uleb128 0x3a
 1908 00a7 0B       		.uleb128 0xb
 1909 00a8 3B       		.uleb128 0x3b
 1910 00a9 05       		.uleb128 0x5
 1911 00aa 01       		.uleb128 0x1
 1912 00ab 13       		.uleb128 0x13
 1913 00ac 00       		.byte	0x0
 1914 00ad 00       		.byte	0x0
 1915 00ae 0F       		.uleb128 0xf
 1916 00af 0F       		.uleb128 0xf
 1917 00b0 00       		.byte	0x0
 1918 00b1 0B       		.uleb128 0xb
 1919 00b2 0B       		.uleb128 0xb
 1920 00b3 49       		.uleb128 0x49
 1921 00b4 13       		.uleb128 0x13
 1922 00b5 00       		.byte	0x0
 1923 00b6 00       		.byte	0x0
 1924 00b7 10       		.uleb128 0x10
 1925 00b8 15       		.uleb128 0x15
ARM GAS  C:\Users\DNIEL~1\AppData\Local\Temp\ccNxMDLU.s 			page 35


 1926 00b9 01       		.byte	0x1
 1927 00ba 27       		.uleb128 0x27
 1928 00bb 0C       		.uleb128 0xc
 1929 00bc 01       		.uleb128 0x1
 1930 00bd 13       		.uleb128 0x13
 1931 00be 00       		.byte	0x0
 1932 00bf 00       		.byte	0x0
 1933 00c0 11       		.uleb128 0x11
 1934 00c1 05       		.uleb128 0x5
 1935 00c2 00       		.byte	0x0
 1936 00c3 49       		.uleb128 0x49
 1937 00c4 13       		.uleb128 0x13
 1938 00c5 00       		.byte	0x0
 1939 00c6 00       		.byte	0x0
 1940 00c7 12       		.uleb128 0x12
 1941 00c8 26       		.uleb128 0x26
 1942 00c9 00       		.byte	0x0
 1943 00ca 49       		.uleb128 0x49
 1944 00cb 13       		.uleb128 0x13
 1945 00cc 00       		.byte	0x0
 1946 00cd 00       		.byte	0x0
 1947 00ce 13       		.uleb128 0x13
 1948 00cf 2E       		.uleb128 0x2e
 1949 00d0 00       		.byte	0x0
 1950 00d1 3F       		.uleb128 0x3f
 1951 00d2 0C       		.uleb128 0xc
 1952 00d3 03       		.uleb128 0x3
 1953 00d4 0E       		.uleb128 0xe
 1954 00d5 3A       		.uleb128 0x3a
 1955 00d6 0B       		.uleb128 0xb
 1956 00d7 3B       		.uleb128 0x3b
 1957 00d8 0B       		.uleb128 0xb
 1958 00d9 27       		.uleb128 0x27
 1959 00da 0C       		.uleb128 0xc
 1960 00db 11       		.uleb128 0x11
 1961 00dc 01       		.uleb128 0x1
 1962 00dd 12       		.uleb128 0x12
 1963 00de 01       		.uleb128 0x1
 1964 00df 40       		.uleb128 0x40
 1965 00e0 06       		.uleb128 0x6
 1966 00e1 00       		.byte	0x0
 1967 00e2 00       		.byte	0x0
 1968 00e3 14       		.uleb128 0x14
 1969 00e4 2E       		.uleb128 0x2e
 1970 00e5 01       		.byte	0x1
 1971 00e6 3F       		.uleb128 0x3f
 1972 00e7 0C       		.uleb128 0xc
 1973 00e8 03       		.uleb128 0x3
 1974 00e9 0E       		.uleb128 0xe
 1975 00ea 3A       		.uleb128 0x3a
 1976 00eb 0B       		.uleb128 0xb
 1977 00ec 3B       		.uleb128 0x3b
 1978 00ed 0B       		.uleb128 0xb
 1979 00ee 27       		.uleb128 0x27
 1980 00ef 0C       		.uleb128 0xc
 1981 00f0 11       		.uleb128 0x11
 1982 00f1 01       		.uleb128 0x1
ARM GAS  C:\Users\DNIEL~1\AppData\Local\Temp\ccNxMDLU.s 			page 36


 1983 00f2 12       		.uleb128 0x12
 1984 00f3 01       		.uleb128 0x1
 1985 00f4 40       		.uleb128 0x40
 1986 00f5 06       		.uleb128 0x6
 1987 00f6 01       		.uleb128 0x1
 1988 00f7 13       		.uleb128 0x13
 1989 00f8 00       		.byte	0x0
 1990 00f9 00       		.byte	0x0
 1991 00fa 15       		.uleb128 0x15
 1992 00fb 34       		.uleb128 0x34
 1993 00fc 00       		.byte	0x0
 1994 00fd 03       		.uleb128 0x3
 1995 00fe 08       		.uleb128 0x8
 1996 00ff 3A       		.uleb128 0x3a
 1997 0100 0B       		.uleb128 0xb
 1998 0101 3B       		.uleb128 0x3b
 1999 0102 0B       		.uleb128 0xb
 2000 0103 49       		.uleb128 0x49
 2001 0104 13       		.uleb128 0x13
 2002 0105 02       		.uleb128 0x2
 2003 0106 0A       		.uleb128 0xa
 2004 0107 00       		.byte	0x0
 2005 0108 00       		.byte	0x0
 2006 0109 16       		.uleb128 0x16
 2007 010a 2E       		.uleb128 0x2e
 2008 010b 00       		.byte	0x0
 2009 010c 3F       		.uleb128 0x3f
 2010 010d 0C       		.uleb128 0xc
 2011 010e 03       		.uleb128 0x3
 2012 010f 0E       		.uleb128 0xe
 2013 0110 3A       		.uleb128 0x3a
 2014 0111 0B       		.uleb128 0xb
 2015 0112 3B       		.uleb128 0x3b
 2016 0113 05       		.uleb128 0x5
 2017 0114 27       		.uleb128 0x27
 2018 0115 0C       		.uleb128 0xc
 2019 0116 11       		.uleb128 0x11
 2020 0117 01       		.uleb128 0x1
 2021 0118 12       		.uleb128 0x12
 2022 0119 01       		.uleb128 0x1
 2023 011a 40       		.uleb128 0x40
 2024 011b 06       		.uleb128 0x6
 2025 011c 00       		.byte	0x0
 2026 011d 00       		.byte	0x0
 2027 011e 17       		.uleb128 0x17
 2028 011f 2E       		.uleb128 0x2e
 2029 0120 01       		.byte	0x1
 2030 0121 3F       		.uleb128 0x3f
 2031 0122 0C       		.uleb128 0xc
 2032 0123 03       		.uleb128 0x3
 2033 0124 0E       		.uleb128 0xe
 2034 0125 3A       		.uleb128 0x3a
 2035 0126 0B       		.uleb128 0xb
 2036 0127 3B       		.uleb128 0x3b
 2037 0128 05       		.uleb128 0x5
 2038 0129 27       		.uleb128 0x27
 2039 012a 0C       		.uleb128 0xc
ARM GAS  C:\Users\DNIEL~1\AppData\Local\Temp\ccNxMDLU.s 			page 37


 2040 012b 11       		.uleb128 0x11
 2041 012c 01       		.uleb128 0x1
 2042 012d 12       		.uleb128 0x12
 2043 012e 01       		.uleb128 0x1
 2044 012f 40       		.uleb128 0x40
 2045 0130 06       		.uleb128 0x6
 2046 0131 01       		.uleb128 0x1
 2047 0132 13       		.uleb128 0x13
 2048 0133 00       		.byte	0x0
 2049 0134 00       		.byte	0x0
 2050 0135 18       		.uleb128 0x18
 2051 0136 05       		.uleb128 0x5
 2052 0137 00       		.byte	0x0
 2053 0138 03       		.uleb128 0x3
 2054 0139 0E       		.uleb128 0xe
 2055 013a 3A       		.uleb128 0x3a
 2056 013b 0B       		.uleb128 0xb
 2057 013c 3B       		.uleb128 0x3b
 2058 013d 05       		.uleb128 0x5
 2059 013e 49       		.uleb128 0x49
 2060 013f 13       		.uleb128 0x13
 2061 0140 02       		.uleb128 0x2
 2062 0141 06       		.uleb128 0x6
 2063 0142 00       		.byte	0x0
 2064 0143 00       		.byte	0x0
 2065 0144 19       		.uleb128 0x19
 2066 0145 34       		.uleb128 0x34
 2067 0146 00       		.byte	0x0
 2068 0147 03       		.uleb128 0x3
 2069 0148 08       		.uleb128 0x8
 2070 0149 3A       		.uleb128 0x3a
 2071 014a 0B       		.uleb128 0xb
 2072 014b 3B       		.uleb128 0x3b
 2073 014c 05       		.uleb128 0x5
 2074 014d 49       		.uleb128 0x49
 2075 014e 13       		.uleb128 0x13
 2076 014f 00       		.byte	0x0
 2077 0150 00       		.byte	0x0
 2078 0151 1A       		.uleb128 0x1a
 2079 0152 34       		.uleb128 0x34
 2080 0153 00       		.byte	0x0
 2081 0154 03       		.uleb128 0x3
 2082 0155 0E       		.uleb128 0xe
 2083 0156 3A       		.uleb128 0x3a
 2084 0157 0B       		.uleb128 0xb
 2085 0158 3B       		.uleb128 0x3b
 2086 0159 05       		.uleb128 0x5
 2087 015a 49       		.uleb128 0x49
 2088 015b 13       		.uleb128 0x13
 2089 015c 02       		.uleb128 0x2
 2090 015d 06       		.uleb128 0x6
 2091 015e 00       		.byte	0x0
 2092 015f 00       		.byte	0x0
 2093 0160 1B       		.uleb128 0x1b
 2094 0161 0B       		.uleb128 0xb
 2095 0162 01       		.byte	0x1
 2096 0163 11       		.uleb128 0x11
ARM GAS  C:\Users\DNIEL~1\AppData\Local\Temp\ccNxMDLU.s 			page 38


 2097 0164 01       		.uleb128 0x1
 2098 0165 12       		.uleb128 0x12
 2099 0166 01       		.uleb128 0x1
 2100 0167 00       		.byte	0x0
 2101 0168 00       		.byte	0x0
 2102 0169 1C       		.uleb128 0x1c
 2103 016a 2E       		.uleb128 0x2e
 2104 016b 01       		.byte	0x1
 2105 016c 3F       		.uleb128 0x3f
 2106 016d 0C       		.uleb128 0xc
 2107 016e 03       		.uleb128 0x3
 2108 016f 0E       		.uleb128 0xe
 2109 0170 3A       		.uleb128 0x3a
 2110 0171 0B       		.uleb128 0xb
 2111 0172 3B       		.uleb128 0x3b
 2112 0173 05       		.uleb128 0x5
 2113 0174 27       		.uleb128 0x27
 2114 0175 0C       		.uleb128 0xc
 2115 0176 11       		.uleb128 0x11
 2116 0177 01       		.uleb128 0x1
 2117 0178 12       		.uleb128 0x12
 2118 0179 01       		.uleb128 0x1
 2119 017a 40       		.uleb128 0x40
 2120 017b 0A       		.uleb128 0xa
 2121 017c 01       		.uleb128 0x1
 2122 017d 13       		.uleb128 0x13
 2123 017e 00       		.byte	0x0
 2124 017f 00       		.byte	0x0
 2125 0180 1D       		.uleb128 0x1d
 2126 0181 34       		.uleb128 0x34
 2127 0182 00       		.byte	0x0
 2128 0183 03       		.uleb128 0x3
 2129 0184 0E       		.uleb128 0xe
 2130 0185 3A       		.uleb128 0x3a
 2131 0186 0B       		.uleb128 0xb
 2132 0187 3B       		.uleb128 0x3b
 2133 0188 05       		.uleb128 0x5
 2134 0189 49       		.uleb128 0x49
 2135 018a 13       		.uleb128 0x13
 2136 018b 3F       		.uleb128 0x3f
 2137 018c 0C       		.uleb128 0xc
 2138 018d 3C       		.uleb128 0x3c
 2139 018e 0C       		.uleb128 0xc
 2140 018f 00       		.byte	0x0
 2141 0190 00       		.byte	0x0
 2142 0191 1E       		.uleb128 0x1e
 2143 0192 34       		.uleb128 0x34
 2144 0193 00       		.byte	0x0
 2145 0194 03       		.uleb128 0x3
 2146 0195 0E       		.uleb128 0xe
 2147 0196 3A       		.uleb128 0x3a
 2148 0197 0B       		.uleb128 0xb
 2149 0198 3B       		.uleb128 0x3b
 2150 0199 0B       		.uleb128 0xb
 2151 019a 49       		.uleb128 0x49
 2152 019b 13       		.uleb128 0x13
 2153 019c 3F       		.uleb128 0x3f
ARM GAS  C:\Users\DNIEL~1\AppData\Local\Temp\ccNxMDLU.s 			page 39


 2154 019d 0C       		.uleb128 0xc
 2155 019e 02       		.uleb128 0x2
 2156 019f 0A       		.uleb128 0xa
 2157 01a0 00       		.byte	0x0
 2158 01a1 00       		.byte	0x0
 2159 01a2 00       		.byte	0x0
 2160              		.section	.debug_pubnames,"",%progbits
 2161 0000 9D000000 		.4byte	0x9d
 2162 0004 0200     		.2byte	0x2
 2163 0006 00000000 		.4byte	.Ldebug_info0
 2164 000a 55070000 		.4byte	0x755
 2165 000e B6050000 		.4byte	0x5b6
 2166 0012 56656374 		.ascii	"VectorA4\000"
 2166      6F724134 
 2166      00
 2167 001b CB050000 		.4byte	0x5cb
 2168 001f 56656374 		.ascii	"VectorAC\000"
 2168      6F724143 
 2168      00
 2169 0028 F1050000 		.4byte	0x5f1
 2170 002c 70776D5F 		.ascii	"pwm_lld_init\000"
 2170      6C6C645F 
 2170      696E6974 
 2170      00
 2171 0039 07060000 		.4byte	0x607
 2172 003d 70776D5F 		.ascii	"pwm_lld_start\000"
 2172      6C6C645F 
 2172      73746172 
 2172      7400
 2173 004b 4E060000 		.4byte	0x64e
 2174 004f 70776D5F 		.ascii	"pwm_lld_stop\000"
 2174      6C6C645F 
 2174      73746F70 
 2174      00
 2175 005c 79060000 		.4byte	0x679
 2176 0060 70776D5F 		.ascii	"pwm_lld_enable_channel\000"
 2176      6C6C645F 
 2176      656E6162 
 2176      6C655F63 
 2176      68616E6E 
 2177 0077 DE060000 		.4byte	0x6de
 2178 007b 70776D5F 		.ascii	"pwm_lld_disable_channel\000"
 2178      6C6C645F 
 2178      64697361 
 2178      626C655F 
 2178      6368616E 
 2179 0093 42070000 		.4byte	0x742
 2180 0097 50574D44 		.ascii	"PWMD1\000"
 2180      3100
 2181 009d 00000000 		.4byte	0x0
 2182              		.section	.debug_pubtypes,"",%progbits
 2183 0000 EC000000 		.4byte	0xec
 2184 0004 0200     		.2byte	0x2
 2185 0006 00000000 		.4byte	.Ldebug_info0
 2186 000a 55070000 		.4byte	0x755
 2187 000e 3E000000 		.4byte	0x3e
 2188 0012 75696E74 		.ascii	"uint8_t\000"
ARM GAS  C:\Users\DNIEL~1\AppData\Local\Temp\ccNxMDLU.s 			page 40


 2188      385F7400 
 2189 001a 57000000 		.4byte	0x57
 2190 001e 75696E74 		.ascii	"uint16_t\000"
 2190      31365F74 
 2190      00
 2191 0027 69000000 		.4byte	0x69
 2192 002b 696E7433 		.ascii	"int32_t\000"
 2192      325F7400 
 2193 0033 7B000000 		.4byte	0x7b
 2194 0037 75696E74 		.ascii	"uint32_t\000"
 2194      33325F74 
 2194      00
 2195 0040 C0020000 		.4byte	0x2c0
 2196 0044 5243435F 		.ascii	"RCC_TypeDef\000"
 2196      54797065 
 2196      44656600 
 2197 0050 E7020000 		.4byte	0x2e7
 2198 0054 70776D73 		.ascii	"pwmstate_t\000"
 2198      74617465 
 2198      5F7400
 2199 005f F2020000 		.4byte	0x2f2
 2200 0063 50574D44 		.ascii	"PWMDriver\000"
 2200      72697665 
 2200      7200
 2201 006d 56030000 		.4byte	0x356
 2202 0071 70776D63 		.ascii	"pwmcallback_t\000"
 2202      616C6C62 
 2202      61636B5F 
 2202      7400
 2203 007f C1040000 		.4byte	0x4c1
 2204 0083 73746D33 		.ascii	"stm32_tim_t\000"
 2204      325F7469 
 2204      6D5F7400 
 2205 008f CD040000 		.4byte	0x4cd
 2206 0093 70776D6D 		.ascii	"pwmmode_t\000"
 2206      6F64655F 
 2206      7400
 2207 009d D9040000 		.4byte	0x4d9
 2208 00a1 70776D63 		.ascii	"pwmchannel_t\000"
 2208      68616E6E 
 2208      656C5F74 
 2208      00
 2209 00ae E5040000 		.4byte	0x4e5
 2210 00b2 70776D63 		.ascii	"pwmcnt_t\000"
 2210      6E745F74 
 2210      00
 2211 00bb 19050000 		.4byte	0x519
 2212 00bf 50574D43 		.ascii	"PWMChannelConfig\000"
 2212      68616E6E 
 2212      656C436F 
 2212      6E666967 
 2212      00
 2213 00d0 99050000 		.4byte	0x599
 2214 00d4 50574D43 		.ascii	"PWMConfig\000"
 2214      6F6E6669 
 2214      6700
 2215 00de FD020000 		.4byte	0x2fd
ARM GAS  C:\Users\DNIEL~1\AppData\Local\Temp\ccNxMDLU.s 			page 41


 2216 00e2 50574D44 		.ascii	"PWMDriver\000"
 2216      72697665 
 2216      7200
 2217 00ec 00000000 		.4byte	0x0
 2218              		.section	.debug_aranges,"",%progbits
 2219 0000 4C000000 		.4byte	0x4c
 2220 0004 0200     		.2byte	0x2
 2221 0006 00000000 		.4byte	.Ldebug_info0
 2222 000a 04       		.byte	0x4
 2223 000b 00       		.byte	0x0
 2224 000c 0000     		.2byte	0x0
 2225 000e 0000     		.2byte	0x0
 2226 0010 00000000 		.4byte	.LFB118
 2227 0014 24000000 		.4byte	.LFE118-.LFB118
 2228 0018 00000000 		.4byte	.LFB119
 2229 001c 60000000 		.4byte	.LFE119-.LFB119
 2230 0020 00000000 		.4byte	.LFB120
 2231 0024 18000000 		.4byte	.LFE120-.LFB120
 2232 0028 00000000 		.4byte	.LFB121
 2233 002c 20010000 		.4byte	.LFE121-.LFB121
 2234 0030 00000000 		.4byte	.LFB122
 2235 0034 3C000000 		.4byte	.LFE122-.LFB122
 2236 0038 00000000 		.4byte	.LFB123
 2237 003c 34000000 		.4byte	.LFE123-.LFB123
 2238 0040 00000000 		.4byte	.LFB124
 2239 0044 1E000000 		.4byte	.LFE124-.LFB124
 2240 0048 00000000 		.4byte	0x0
 2241 004c 00000000 		.4byte	0x0
 2242              		.section	.debug_ranges,"",%progbits
 2243              	.Ldebug_ranges0:
 2244 0000 00000000 		.4byte	.LFB118
 2245 0004 24000000 		.4byte	.LFE118
 2246 0008 00000000 		.4byte	.LFB119
 2247 000c 60000000 		.4byte	.LFE119
 2248 0010 00000000 		.4byte	.LFB120
 2249 0014 18000000 		.4byte	.LFE120
 2250 0018 00000000 		.4byte	.LFB121
 2251 001c 20010000 		.4byte	.LFE121
 2252 0020 00000000 		.4byte	.LFB122
 2253 0024 3C000000 		.4byte	.LFE122
 2254 0028 00000000 		.4byte	.LFB123
 2255 002c 34000000 		.4byte	.LFE123
 2256 0030 00000000 		.4byte	.LFB124
 2257 0034 1E000000 		.4byte	.LFE124
 2258 0038 00000000 		.4byte	0x0
 2259 003c 00000000 		.4byte	0x0
 2260              		.section	.debug_str,"MS",%progbits,1
 2261              	.LASF31:
 2262 0000 41484231 		.ascii	"AHB1LPENR\000"
 2262      4C50454E 
 2262      5200
 2263              	.LASF59:
 2264 000a 43434552 		.ascii	"CCER\000"
 2264      00
 2265              	.LASF44:
 2266 000f 5243435F 		.ascii	"RCC_TypeDef\000"
 2266      54797065 
ARM GAS  C:\Users\DNIEL~1\AppData\Local\Temp\ccNxMDLU.s 			page 42


 2266      44656600 
 2267              	.LASF21:
 2268 001b 41504231 		.ascii	"APB1RSTR\000"
 2268      52535452 
 2268      00
 2269              	.LASF25:
 2270 0024 41484232 		.ascii	"AHB2ENR\000"
 2270      454E5200 
 2271              	.LASF61:
 2272 002c 444D4152 		.ascii	"DMAR\000"
 2272      00
 2273              	.LASF50:
 2274 0031 73746174 		.ascii	"state\000"
 2274      6500
 2275              	.LASF58:
 2276 0037 43434D52 		.ascii	"CCMR2\000"
 2276      3200
 2277              	.LASF3:
 2278 003d 73686F72 		.ascii	"short int\000"
 2278      7420696E 
 2278      7400
 2279              	.LASF68:
 2280 0047 70776D63 		.ascii	"pwmcnt_t\000"
 2280      6E745F74 
 2280      00
 2281              	.LASF38:
 2282 0050 42444352 		.ascii	"BDCR\000"
 2282      00
 2283              	.LASF41:
 2284 0055 504C4C49 		.ascii	"PLLI2SCFGR\000"
 2284      32534346 
 2284      475200
 2285              	.LASF67:
 2286 0060 70776D63 		.ascii	"pwmchannel_t\000"
 2286      68616E6E 
 2286      656C5F74 
 2286      00
 2287              	.LASF76:
 2288 006d 56656374 		.ascii	"VectorA4\000"
 2288      6F724134 
 2288      00
 2289              	.LASF24:
 2290 0076 41484231 		.ascii	"AHB1ENR\000"
 2290      454E5200 
 2291              	.LASF69:
 2292 007e 6D6F6465 		.ascii	"mode\000"
 2292      00
 2293              	.LASF40:
 2294 0083 53534347 		.ascii	"SSCGR\000"
 2294      5200
 2295              	.LASF33:
 2296 0089 41484233 		.ascii	"AHB3LPENR\000"
 2296      4C50454E 
 2296      5200
 2297              	.LASF51:
 2298 0093 636F6E66 		.ascii	"config\000"
 2298      696700
ARM GAS  C:\Users\DNIEL~1\AppData\Local\Temp\ccNxMDLU.s 			page 43


 2299              	.LASF16:
 2300 009a 43464752 		.ascii	"CFGR\000"
 2300      00
 2301              	.LASF78:
 2302 009f 56656374 		.ascii	"VectorAC\000"
 2302      6F724143 
 2302      00
 2303              	.LASF4:
 2304 00a8 75696E74 		.ascii	"uint8_t\000"
 2304      385F7400 
 2305              	.LASF28:
 2306 00b0 41504231 		.ascii	"APB1ENR\000"
 2306      454E5200 
 2307              	.LASF17:
 2308 00b8 41484231 		.ascii	"AHB1RSTR\000"
 2308      52535452 
 2308      00
 2309              	.LASF9:
 2310 00c1 75696E74 		.ascii	"uint32_t\000"
 2310      33325F74 
 2310      00
 2311              	.LASF80:
 2312 00ca 63636572 		.ascii	"ccer\000"
 2312      00
 2313              	.LASF43:
 2314 00cf 44434B43 		.ascii	"DCKCFGR\000"
 2314      46475200 
 2315              	.LASF85:
 2316 00d7 77696474 		.ascii	"width\000"
 2316      6800
 2317              	.LASF26:
 2318 00dd 41484233 		.ascii	"AHB3ENR\000"
 2318      454E5200 
 2319              	.LASF11:
 2320 00e5 6C6F6E67 		.ascii	"long long int\000"
 2320      206C6F6E 
 2320      6720696E 
 2320      7400
 2321              	.LASF8:
 2322 00f3 6C6F6E67 		.ascii	"long int\000"
 2322      20696E74 
 2322      00
 2323              	.LASF63:
 2324 00fc 43435235 		.ascii	"CCR5\000"
 2324      00
 2325              	.LASF64:
 2326 0101 43435236 		.ascii	"CCR6\000"
 2326      00
 2327              	.LASF10:
 2328 0106 6C6F6E67 		.ascii	"long unsigned int\000"
 2328      20756E73 
 2328      69676E65 
 2328      6420696E 
 2328      7400
 2329              	.LASF52:
 2330 0118 70657269 		.ascii	"period\000"
 2330      6F6400
ARM GAS  C:\Users\DNIEL~1\AppData\Local\Temp\ccNxMDLU.s 			page 44


 2331              	.LASF22:
 2332 011f 41504232 		.ascii	"APB2RSTR\000"
 2332      52535452 
 2332      00
 2333              	.LASF57:
 2334 0128 43434D52 		.ascii	"CCMR1\000"
 2334      3100
 2335              	.LASF79:
 2336 012e 70776D5F 		.ascii	"pwm_lld_start\000"
 2336      6C6C645F 
 2336      73746172 
 2336      7400
 2337              	.LASF75:
 2338 013c 50574D43 		.ascii	"PWMConfig\000"
 2338      6F6E6669 
 2338      6700
 2339              	.LASF62:
 2340 0146 43434D52 		.ascii	"CCMR3\000"
 2340      3300
 2341              	.LASF82:
 2342 014c 70776D70 		.ascii	"pwmp\000"
 2342      00
 2343              	.LASF55:
 2344 0151 534D4352 		.ascii	"SMCR\000"
 2344      00
 2345              	.LASF45:
 2346 0156 50574D5F 		.ascii	"PWM_UNINIT\000"
 2346      554E494E 
 2346      495400
 2347              	.LASF2:
 2348 0161 756E7369 		.ascii	"unsigned char\000"
 2348      676E6564 
 2348      20636861 
 2348      7200
 2349              	.LASF83:
 2350 016f 70776D5F 		.ascii	"pwm_lld_enable_channel\000"
 2350      6C6C645F 
 2350      656E6162 
 2350      6C655F63 
 2350      68616E6E 
 2351              	.LASF29:
 2352 0186 41504232 		.ascii	"APB2ENR\000"
 2352      454E5200 
 2353              	.LASF1:
 2354 018e 7369676E 		.ascii	"signed char\000"
 2354      65642063 
 2354      68617200 
 2355              	.LASF12:
 2356 019a 6C6F6E67 		.ascii	"long long unsigned int\000"
 2356      206C6F6E 
 2356      6720756E 
 2356      7369676E 
 2356      65642069 
 2357              	.LASF0:
 2358 01b1 756E7369 		.ascii	"unsigned int\000"
 2358      676E6564 
 2358      20696E74 
ARM GAS  C:\Users\DNIEL~1\AppData\Local\Temp\ccNxMDLU.s 			page 45


 2358      00
 2359              	.LASF18:
 2360 01be 41484232 		.ascii	"AHB2RSTR\000"
 2360      52535452 
 2360      00
 2361              	.LASF5:
 2362 01c7 75696E74 		.ascii	"uint16_t\000"
 2362      31365F74 
 2362      00
 2363              	.LASF81:
 2364 01d0 70776D5F 		.ascii	"pwm_lld_stop\000"
 2364      6C6C645F 
 2364      73746F70 
 2364      00
 2365              	.LASF60:
 2366 01dd 42445452 		.ascii	"BDTR\000"
 2366      00
 2367              	.LASF56:
 2368 01e2 44494552 		.ascii	"DIER\000"
 2368      00
 2369              	.LASF15:
 2370 01e7 504C4C43 		.ascii	"PLLCFGR\000"
 2370      46475200 
 2371              	.LASF90:
 2372 01ef 2E2E2F2E 		.ascii	"../../../Chibios/os/hal/platforms/STM32/TIMv1/pwm_l"
 2372      2E2F2E2E 
 2372      2F436869 
 2372      62696F73 
 2372      2F6F732F 
 2373 0222 6C642E63 		.ascii	"ld.c\000"
 2373      00
 2374              	.LASF6:
 2375 0227 73686F72 		.ascii	"short unsigned int\000"
 2375      7420756E 
 2375      7369676E 
 2375      65642069 
 2375      6E7400
 2376              	.LASF35:
 2377 023a 41504231 		.ascii	"APB1LPENR\000"
 2377      4C50454E 
 2377      5200
 2378              	.LASF77:
 2379 0244 70776D5F 		.ascii	"pwm_lld_init\000"
 2379      6C6C645F 
 2379      696E6974 
 2379      00
 2380              	.LASF14:
 2381 0251 63686172 		.ascii	"char\000"
 2381      00
 2382              	.LASF65:
 2383 0256 73746D33 		.ascii	"stm32_tim_t\000"
 2383      325F7469 
 2383      6D5F7400 
 2384              	.LASF49:
 2385 0262 50574D44 		.ascii	"PWMDriver\000"
 2385      72697665 
 2385      7200
ARM GAS  C:\Users\DNIEL~1\AppData\Local\Temp\ccNxMDLU.s 			page 46


 2386              	.LASF7:
 2387 026c 696E7433 		.ascii	"int32_t\000"
 2387      325F7400 
 2388              	.LASF13:
 2389 0274 5F426F6F 		.ascii	"_Bool\000"
 2389      6C00
 2390              	.LASF84:
 2391 027a 6368616E 		.ascii	"channel\000"
 2391      6E656C00 
 2392              	.LASF32:
 2393 0282 41484232 		.ascii	"AHB2LPENR\000"
 2393      4C50454E 
 2393      5200
 2394              	.LASF20:
 2395 028c 52455345 		.ascii	"RESERVED0\000"
 2395      52564544 
 2395      3000
 2396              	.LASF23:
 2397 0296 52455345 		.ascii	"RESERVED1\000"
 2397      52564544 
 2397      3100
 2398              	.LASF27:
 2399 02a0 52455345 		.ascii	"RESERVED2\000"
 2399      52564544 
 2399      3200
 2400              	.LASF30:
 2401 02aa 52455345 		.ascii	"RESERVED3\000"
 2401      52564544 
 2401      3300
 2402              	.LASF34:
 2403 02b4 52455345 		.ascii	"RESERVED4\000"
 2403      52564544 
 2403      3400
 2404              	.LASF37:
 2405 02be 52455345 		.ascii	"RESERVED5\000"
 2405      52564544 
 2405      3500
 2406              	.LASF39:
 2407 02c8 52455345 		.ascii	"RESERVED6\000"
 2407      52564544 
 2407      3600
 2408              	.LASF53:
 2409 02d2 636C6F63 		.ascii	"clock\000"
 2409      6B00
 2410              	.LASF89:
 2411 02d8 474E5520 		.ascii	"GNU C 4.5.2\000"
 2411      4320342E 
 2411      352E3200 
 2412              	.LASF86:
 2413 02e4 70776D5F 		.ascii	"pwm_lld_disable_channel\000"
 2413      6C6C645F 
 2413      64697361 
 2413      626C655F 
 2413      6368616E 
 2414              	.LASF73:
 2415 02fc 6368616E 		.ascii	"channels\000"
 2415      6E656C73 
ARM GAS  C:\Users\DNIEL~1\AppData\Local\Temp\ccNxMDLU.s 			page 47


 2415      00
 2416              	.LASF47:
 2417 0305 50574D5F 		.ascii	"PWM_READY\000"
 2417      52454144 
 2417      5900
 2418              	.LASF46:
 2419 030f 50574D5F 		.ascii	"PWM_STOP\000"
 2419      53544F50 
 2419      00
 2420              	.LASF74:
 2421 0318 64696572 		.ascii	"dier\000"
 2421      00
 2422              	.LASF72:
 2423 031d 66726571 		.ascii	"frequency\000"
 2423      75656E63 
 2423      7900
 2424              	.LASF88:
 2425 0327 50574D44 		.ascii	"PWMD1\000"
 2425      3100
 2426              	.LASF71:
 2427 032d 50574D43 		.ascii	"PWMChannelConfig\000"
 2427      68616E6E 
 2427      656C436F 
 2427      6E666967 
 2427      00
 2428              	.LASF19:
 2429 033e 41484233 		.ascii	"AHB3RSTR\000"
 2429      52535452 
 2429      00
 2430              	.LASF66:
 2431 0347 70776D6D 		.ascii	"pwmmode_t\000"
 2431      6F64655F 
 2431      7400
 2432              	.LASF87:
 2433 0351 49544D5F 		.ascii	"ITM_RxBuffer\000"
 2433      52784275 
 2433      66666572 
 2433      00
 2434              	.LASF91:
 2435 035e 433A5C44 		.ascii	"C:\\Dani\\MegaLux\\Repo\\Modulux\\Modulux\\modulux\\"
 2435      616E695C 
 2435      4D656761 
 2435      4C75785C 
 2435      5265706F 
 2436 038b 6669726D 		.ascii	"firmware\000"
 2436      77617265 
 2436      00
 2437              	.LASF42:
 2438 0394 504C4C53 		.ascii	"PLLSAICFGR\000"
 2438      41494346 
 2438      475200
 2439              	.LASF48:
 2440 039f 70776D73 		.ascii	"pwmstate_t\000"
 2440      74617465 
 2440      5F7400
 2441              	.LASF54:
 2442 03aa 70776D63 		.ascii	"pwmcallback_t\000"
ARM GAS  C:\Users\DNIEL~1\AppData\Local\Temp\ccNxMDLU.s 			page 48


 2442      616C6C62 
 2442      61636B5F 
 2442      7400
 2443              	.LASF36:
 2444 03b8 41504232 		.ascii	"APB2LPENR\000"
 2444      4C50454E 
 2444      5200
 2445              	.LASF70:
 2446 03c2 63616C6C 		.ascii	"callback\000"
 2446      6261636B 
 2446      00
 2447              		.ident	"GCC: (Sourcery G++ Lite 2011.03-42) 4.5.2"
ARM GAS  C:\Users\DNIEL~1\AppData\Local\Temp\ccNxMDLU.s 			page 49


DEFINED SYMBOLS
                            *ABS*:00000000 pwm_lld.c
C:\Users\DNIEL~1\AppData\Local\Temp\ccNxMDLU.s:24     .text.VectorA4:00000000 $t
C:\Users\DNIEL~1\AppData\Local\Temp\ccNxMDLU.s:30     .text.VectorA4:00000000 VectorA4
C:\Users\DNIEL~1\AppData\Local\Temp\ccNxMDLU.s:62     .text.VectorA4:0000001c $d
C:\Users\DNIEL~1\AppData\Local\Temp\ccNxMDLU.s:68     .text.VectorAC:00000000 $t
C:\Users\DNIEL~1\AppData\Local\Temp\ccNxMDLU.s:74     .text.VectorAC:00000000 VectorAC
C:\Users\DNIEL~1\AppData\Local\Temp\ccNxMDLU.s:148    .text.VectorAC:00000058 $d
C:\Users\DNIEL~1\AppData\Local\Temp\ccNxMDLU.s:154    .text.pwm_lld_init:00000000 $t
C:\Users\DNIEL~1\AppData\Local\Temp\ccNxMDLU.s:160    .text.pwm_lld_init:00000000 pwm_lld_init
C:\Users\DNIEL~1\AppData\Local\Temp\ccNxMDLU.s:183    .text.pwm_lld_init:00000010 $d
C:\Users\DNIEL~1\AppData\Local\Temp\ccNxMDLU.s:189    .text.pwm_lld_start:00000000 $t
C:\Users\DNIEL~1\AppData\Local\Temp\ccNxMDLU.s:195    .text.pwm_lld_start:00000000 pwm_lld_start
C:\Users\DNIEL~1\AppData\Local\Temp\ccNxMDLU.s:421    .text.pwm_lld_start:00000114 $d
C:\Users\DNIEL~1\AppData\Local\Temp\ccNxMDLU.s:428    .text.pwm_lld_stop:00000000 $t
C:\Users\DNIEL~1\AppData\Local\Temp\ccNxMDLU.s:434    .text.pwm_lld_stop:00000000 pwm_lld_stop
C:\Users\DNIEL~1\AppData\Local\Temp\ccNxMDLU.s:488    .text.pwm_lld_stop:00000034 $d
C:\Users\DNIEL~1\AppData\Local\Temp\ccNxMDLU.s:494    .text.pwm_lld_enable_channel:00000000 $t
C:\Users\DNIEL~1\AppData\Local\Temp\ccNxMDLU.s:500    .text.pwm_lld_enable_channel:00000000 pwm_lld_enable_channel
C:\Users\DNIEL~1\AppData\Local\Temp\ccNxMDLU.s:557    .text.pwm_lld_disable_channel:00000000 $t
C:\Users\DNIEL~1\AppData\Local\Temp\ccNxMDLU.s:563    .text.pwm_lld_disable_channel:00000000 pwm_lld_disable_channel
C:\Users\DNIEL~1\AppData\Local\Temp\ccNxMDLU.s:596    .bss.PWMD1:00000000 PWMD1
C:\Users\DNIEL~1\AppData\Local\Temp\ccNxMDLU.s:592    .bss.PWMD1:00000000 $d
                     .debug_frame:00000010 $d
C:\Users\DNIEL~1\AppData\Local\Temp\ccNxMDLU.s:67     .text.VectorA4:00000024 $t
C:\Users\DNIEL~1\AppData\Local\Temp\ccNxMDLU.s:188    .text.pwm_lld_init:00000018 $t
C:\Users\DNIEL~1\AppData\Local\Temp\ccNxMDLU.s:493    .text.pwm_lld_stop:0000003c $t

UNDEFINED SYMBOLS
_port_irq_epilogue
pwmObjectInit
nvicEnableVector
nvicDisableVector
