ARM GAS  C:\Users\DNIEL~1\AppData\Local\Temp\ccK3AMrq.s 			page 1


   1              		.syntax unified
   2              		.cpu cortex-m4
   3              		.fpu softvfp
   4              		.eabi_attribute 20, 1
   5              		.eabi_attribute 21, 1
   6              		.eabi_attribute 23, 3
   7              		.eabi_attribute 24, 1
   8              		.eabi_attribute 25, 1
   9              		.eabi_attribute 26, 1
  10              		.eabi_attribute 30, 2
  11              		.eabi_attribute 34, 1
  12              		.eabi_attribute 18, 4
  13              		.thumb
  14              		.file	"pwm_lld.c"
  15              		.text
  16              	.Ltext0:
  17              		.cfi_sections	.debug_frame
  18              		.section	.text.VectorA4,"ax",%progbits
  19              		.align	2
  20              		.p2align 4,,15
  21              		.global	VectorA4
  22              		.thumb
  23              		.thumb_func
  24              		.type	VectorA4, %function
  25              	VectorA4:
  26              	.LFB118:
  27              		.file 1 "../../../Chibios/os/hal/platforms/STM32/TIMv1/pwm_lld.c"
  28              		.loc 1 147 0
  29              		.cfi_startproc
  30              		@ args = 0, pretend = 0, frame = 0
  31              		@ frame_needed = 0, uses_anonymous_args = 0
  32              		.loc 1 152 0
  33 0000 40F20000 		movw	r0, #:lower16:.LANCHOR0
  34 0004 C0F20000 		movt	r0, #:upper16:.LANCHOR0
  35              		.loc 1 147 0
  36 0008 08B5     		push	{r3, lr}
  37              	.LCFI0:
  38              		.cfi_def_cfa_offset 8
  39              		.cfi_offset 3, -8
  40              		.cfi_offset 14, -4
  41              		.loc 1 151 0
  42 000a 0023     		movs	r3, #0
  43              		.loc 1 152 0
  44 000c 4268     		ldr	r2, [r0, #4]
  45              		.loc 1 151 0
  46 000e C4F20103 		movt	r3, 16385
  47 0012 6FF00101 		mvn	r1, #1
  48 0016 1961     		str	r1, [r3, #16]
  49              		.loc 1 152 0
  50 0018 9368     		ldr	r3, [r2, #8]
  51 001a 9847     		blx	r3
  52              	.LVL0:
  53              		.loc 1 155 0
  54 001c BDE80840 		pop	{r3, lr}
  55              		.loc 1 154 0
  56 0020 FFF7FEBF 		b	_port_irq_epilogue
  57              	.LVL1:
ARM GAS  C:\Users\DNIEL~1\AppData\Local\Temp\ccK3AMrq.s 			page 2


  58              		.cfi_endproc
  59              	.LFE118:
  60              		.size	VectorA4, .-VectorA4
  61 0024 AFF30080 		.section	.text.VectorAC,"ax",%progbits
  61      AFF30080 
  61      AFF30080 
  62              		.align	2
  63              		.p2align 4,,15
  64              		.global	VectorAC
  65              		.thumb
  66              		.thumb_func
  67              		.type	VectorAC, %function
  68              	VectorAC:
  69              	.LFB119:
  70              		.loc 1 168 0
  71              		.cfi_startproc
  72              		@ args = 0, pretend = 0, frame = 0
  73              		@ frame_needed = 0, uses_anonymous_args = 0
  74              		.loc 1 173 0
  75 0000 0023     		movs	r3, #0
  76 0002 C4F20103 		movt	r3, 16385
  77              		.loc 1 168 0
  78 0006 10B5     		push	{r4, lr}
  79              	.LCFI1:
  80              		.cfi_def_cfa_offset 8
  81              		.cfi_offset 4, -8
  82              		.cfi_offset 14, -4
  83              		.loc 1 173 0
  84 0008 1A69     		ldr	r2, [r3, #16]
  85 000a DC68     		ldr	r4, [r3, #12]
  86 000c 1440     		ands	r4, r4, r2
  87 000e A4B2     		uxth	r4, r4
  88              	.LVL2:
  89              		.loc 1 174 0
  90 0010 E1B2     		uxtb	r1, r4
  91              		.loc 1 175 0
  92 0012 04F00200 		and	r0, r4, #2
  93              		.loc 1 174 0
  94 0016 C943     		mvns	r1, r1
  95              		.loc 1 175 0
  96 0018 82B2     		uxth	r2, r0
  97              		.loc 1 174 0
  98 001a 1961     		str	r1, [r3, #16]
  99              		.loc 1 175 0
 100 001c 002A     		cmp	r2, #0
 101 001e 1DD1     		bne	.L20
 102              	.L3:
 103              		.loc 1 177 0
 104 0020 04F00400 		and	r0, r4, #4
 105 0024 82B2     		uxth	r2, r0
 106 0026 A2B9     		cbnz	r2, .L21
 107              	.L4:
 108              		.loc 1 179 0
 109 0028 04F00800 		and	r0, r4, #8
 110 002c 82B2     		uxth	r2, r0
 111 002e 5AB9     		cbnz	r2, .L22
 112              	.L5:
ARM GAS  C:\Users\DNIEL~1\AppData\Local\Temp\ccK3AMrq.s 			page 3


 113              		.loc 1 181 0
 114 0030 04F01004 		and	r4, r4, #16
 115              	.LVL3:
 116 0034 A4B2     		uxth	r4, r4
 117 0036 1CB1     		cbz	r4, .L6
 118              		.loc 1 182 0
 119 0038 0B48     		ldr	r0, .L23
 120 003a 4268     		ldr	r2, [r0, #4]
 121 003c 936A     		ldr	r3, [r2, #40]
 122 003e 9847     		blx	r3
 123              	.LVL4:
 124              	.L6:
 125              		.loc 1 185 0
 126 0040 BDE81040 		pop	{r4, lr}
 127              		.loc 1 184 0
 128 0044 FFF7FEBF 		b	_port_irq_epilogue
 129              	.LVL5:
 130              	.L22:
 131              		.loc 1 180 0
 132 0048 0748     		ldr	r0, .L23
 133 004a 4368     		ldr	r3, [r0, #4]
 134 004c 196A     		ldr	r1, [r3, #32]
 135 004e 8847     		blx	r1
 136              	.LVL6:
 137 0050 EEE7     		b	.L5
 138              	.L21:
 139              		.loc 1 178 0
 140 0052 0548     		ldr	r0, .L23
 141 0054 4368     		ldr	r3, [r0, #4]
 142 0056 9969     		ldr	r1, [r3, #24]
 143 0058 8847     		blx	r1
 144              	.LVL7:
 145 005a E5E7     		b	.L4
 146              	.L20:
 147              		.loc 1 176 0
 148 005c 0248     		ldr	r0, .L23
 149 005e 4368     		ldr	r3, [r0, #4]
 150 0060 1969     		ldr	r1, [r3, #16]
 151 0062 8847     		blx	r1
 152              	.LVL8:
 153 0064 DCE7     		b	.L3
 154              	.L24:
 155 0066 00BF     		.align	2
 156              	.L23:
 157 0068 00000000 		.word	.LANCHOR0
 158              		.cfi_endproc
 159              	.LFE119:
 160              		.size	VectorAC, .-VectorAC
 161 006c AFF30080 		.section	.text.pwm_lld_init,"ax",%progbits
 162              		.align	2
 163              		.p2align 4,,15
 164              		.global	pwm_lld_init
 165              		.thumb
 166              		.thumb_func
 167              		.type	pwm_lld_init, %function
 168              	pwm_lld_init:
 169              	.LFB120:
ARM GAS  C:\Users\DNIEL~1\AppData\Local\Temp\ccK3AMrq.s 			page 4


 170              		.loc 1 345 0
 171              		.cfi_startproc
 172              		@ args = 0, pretend = 0, frame = 0
 173              		@ frame_needed = 0, uses_anonymous_args = 0
 174 0000 10B5     		push	{r4, lr}
 175              	.LCFI2:
 176              		.cfi_def_cfa_offset 8
 177              		.cfi_offset 4, -8
 178              		.cfi_offset 14, -4
 179              		.loc 1 349 0
 180 0002 40F20004 		movw	r4, #:lower16:.LANCHOR0
 181 0006 C0F20004 		movt	r4, #:upper16:.LANCHOR0
 182 000a 2046     		mov	r0, r4
 183 000c FFF7FEFF 		bl	pwmObjectInit
 184              	.LVL9:
 185              		.loc 1 350 0
 186 0010 0023     		movs	r3, #0
 187 0012 C4F20103 		movt	r3, 16385
 188 0016 2361     		str	r3, [r4, #16]
 189 0018 10BD     		pop	{r4, pc}
 190              		.cfi_endproc
 191              	.LFE120:
 192              		.size	pwm_lld_init, .-pwm_lld_init
 193 001a 00BFAFF3 		.section	.text.pwm_lld_start,"ax",%progbits
 193      0080
 194              		.align	2
 195              		.p2align 4,,15
 196              		.global	pwm_lld_start
 197              		.thumb
 198              		.thumb_func
 199              		.type	pwm_lld_start, %function
 200              	pwm_lld_start:
 201              	.LFB121:
 202              		.loc 1 399 0
 203              		.cfi_startproc
 204              		@ args = 0, pretend = 0, frame = 0
 205              		@ frame_needed = 0, uses_anonymous_args = 0
 206              	.LVL10:
 207              		.loc 1 403 0
 208 0000 0378     		ldrb	r3, [r0, #0]	@ zero_extendqisi2
 209 0002 012B     		cmp	r3, #1
 210              		.loc 1 399 0
 211 0004 70B5     		push	{r4, r5, r6, lr}
 212              	.LCFI3:
 213              		.cfi_def_cfa_offset 16
 214              		.cfi_offset 4, -16
 215              		.cfi_offset 5, -12
 216              		.cfi_offset 6, -8
 217              		.cfi_offset 14, -4
 218              		.loc 1 399 0
 219 0006 0446     		mov	r4, r0
 220              		.loc 1 403 0
 221 0008 64D0     		beq	.L53
 222              		.loc 1 491 0
 223 000a 0369     		ldr	r3, [r0, #16]
 224 000c 0022     		movs	r2, #0
 225 000e 1A60     		str	r2, [r3, #0]
ARM GAS  C:\Users\DNIEL~1\AppData\Local\Temp\ccK3AMrq.s 			page 5


 226              		.loc 1 492 0
 227 0010 5A63     		str	r2, [r3, #52]
 228              		.loc 1 493 0
 229 0012 9A63     		str	r2, [r3, #56]
 230              		.loc 1 494 0
 231 0014 DA63     		str	r2, [r3, #60]
 232              		.loc 1 495 0
 233 0016 1A64     		str	r2, [r3, #64]
 234              		.loc 1 496 0
 235 0018 5A62     		str	r2, [r3, #36]
 236              	.LVL11:
 237              	.L29:
 238              		.loc 1 500 0
 239 001a 6268     		ldr	r2, [r4, #4]
 240              	.LVL12:
 241 001c E668     		ldr	r6, [r4, #12]
 242 001e 1568     		ldr	r5, [r2, #0]
 243              		.loc 1 505 0
 244 0020 2489     		ldrh	r4, [r4, #8]
 245              	.LVL13:
 246              		.loc 1 510 0
 247 0022 D168     		ldr	r1, [r2, #12]
 248              		.loc 1 506 0
 249 0024 D06A     		ldr	r0, [r2, #44]
 250              		.loc 1 500 0
 251 0026 B6FBF5F5 		udiv	r5, r6, r5
 252 002a 013D     		subs	r5, r5, #1
 253              	.LVL14:
 254              		.loc 1 505 0
 255 002c 013C     		subs	r4, r4, #1
 256              		.loc 1 510 0
 257 002e 01F00F01 		and	r1, r1, #15
 258              		.loc 1 504 0
 259 0032 ADB2     		uxth	r5, r5
 260              	.LVL15:
 261              		.loc 1 505 0
 262 0034 A4B2     		uxth	r4, r4
 263              		.loc 1 510 0
 264 0036 0129     		cmp	r1, #1
 265              		.loc 1 504 0
 266 0038 9D62     		str	r5, [r3, #40]
 267              		.loc 1 505 0
 268 003a DC62     		str	r4, [r3, #44]
 269              		.loc 1 506 0
 270 003c 5860     		str	r0, [r3, #4]
 271              	.LVL16:
 272              		.loc 1 510 0
 273 003e 03D0     		beq	.L30
 274              		.loc 1 509 0
 275 0040 0229     		cmp	r1, #2
 276 0042 0CBF     		ite	eq
 277 0044 0321     		moveq	r1, #3
 278 0046 0021     		movne	r1, #0
 279              	.L30:
 280              	.LVL17:
 281              		.loc 1 518 0
 282 0048 5069     		ldr	r0, [r2, #20]
ARM GAS  C:\Users\DNIEL~1\AppData\Local\Temp\ccK3AMrq.s 			page 6


 283 004a 00F00F04 		and	r4, r0, #15
 284 004e 012C     		cmp	r4, #1
 285 0050 25D0     		beq	.L34
 286 0052 022C     		cmp	r4, #2
 287 0054 21D0     		beq	.L54
 288              		.loc 1 526 0
 289 0056 D069     		ldr	r0, [r2, #28]
 290 0058 00F00F04 		and	r4, r0, #15
 291 005c 012C     		cmp	r4, #1
 292 005e 25D0     		beq	.L37
 293              	.L57:
 294 0060 022C     		cmp	r4, #2
 295 0062 32D0     		beq	.L55
 296              		.loc 1 534 0
 297 0064 506A     		ldr	r0, [r2, #36]
 298 0066 00F00F04 		and	r4, r0, #15
 299 006a 012C     		cmp	r4, #1
 300 006c 25D0     		beq	.L40
 301              	.L58:
 302 006e 022C     		cmp	r4, #2
 303 0070 26D0     		beq	.L56
 304              	.L39:
 305              		.loc 1 583 0
 306 0072 146B     		ldr	r4, [r2, #48]
 307              		.loc 1 582 0
 308 0074 9068     		ldr	r0, [r2, #8]
 309              		.loc 1 579 0
 310 0076 1962     		str	r1, [r3, #32]
 311              		.loc 1 583 0
 312 0078 24F0FF02 		bic	r2, r4, #255
 313              	.LVL18:
 314              		.loc 1 582 0
 315 007c 0028     		cmp	r0, #0
 316 007e 18BF     		it	ne
 317 0080 42F00102 		orrne	r2, r2, #1
 318              		.loc 1 580 0
 319 0084 0121     		movs	r1, #1
 320              	.LVL19:
 321              		.loc 1 581 0
 322 0086 0020     		movs	r0, #0
 323              		.loc 1 580 0
 324 0088 5961     		str	r1, [r3, #20]
 325              		.loc 1 581 0
 326 008a 1861     		str	r0, [r3, #16]
 327              		.loc 1 592 0
 328 008c 8521     		movs	r1, #133
 329              		.loc 1 582 0
 330 008e DA60     		str	r2, [r3, #12]
 331              		.loc 1 588 0
 332 0090 4FF40042 		mov	r2, #32768
 333 0094 5A64     		str	r2, [r3, #68]
 334              		.loc 1 592 0
 335 0096 1960     		str	r1, [r3, #0]
 336 0098 70BD     		pop	{r4, r5, r6, pc}
 337              	.LVL20:
 338              	.L54:
 339              		.loc 1 520 0
ARM GAS  C:\Users\DNIEL~1\AppData\Local\Temp\ccK3AMrq.s 			page 7


 340 009a 41F02001 		orr	r1, r1, #32
 341              	.LVL21:
 342              	.L34:
 343              		.loc 1 526 0
 344 009e D069     		ldr	r0, [r2, #28]
 345 00a0 00F00F04 		and	r4, r0, #15
 346 00a4 012C     		cmp	r4, #1
 347              		.loc 1 522 0
 348 00a6 41F01001 		orr	r1, r1, #16
 349              	.LVL22:
 350              		.loc 1 526 0
 351 00aa D9D1     		bne	.L57
 352              	.L37:
 353              		.loc 1 530 0
 354 00ac 41F48071 		orr	r1, r1, #256
 355              	.LVL23:
 356              	.L59:
 357              		.loc 1 534 0
 358 00b0 506A     		ldr	r0, [r2, #36]
 359 00b2 00F00F04 		and	r4, r0, #15
 360 00b6 012C     		cmp	r4, #1
 361 00b8 D9D1     		bne	.L58
 362              	.L40:
 363              		.loc 1 538 0
 364 00ba 41F48051 		orr	r1, r1, #4096
 365              	.LVL24:
 366 00be D8E7     		b	.L39
 367              	.L56:
 368              		.loc 1 536 0
 369 00c0 41F40051 		orr	r1, r1, #8192
 370              	.LVL25:
 371              		.loc 1 538 0
 372 00c4 41F48051 		orr	r1, r1, #4096
 373              	.LVL26:
 374 00c8 D3E7     		b	.L39
 375              	.L55:
 376              		.loc 1 528 0
 377 00ca 41F40071 		orr	r1, r1, #512
 378              	.LVL27:
 379              		.loc 1 530 0
 380 00ce 41F48071 		orr	r1, r1, #256
 381              	.LVL28:
 382 00d2 EDE7     		b	.L59
 383              	.LVL29:
 384              	.L53:
 385              		.loc 1 406 0
 386 00d4 1248     		ldr	r0, .L61
 387              	.LVL30:
 388 00d6 8442     		cmp	r4, r0
 389 00d8 05D0     		beq	.L60
 390              	.L28:
 391              		.loc 1 484 0
 392 00da 2369     		ldr	r3, [r4, #16]
 393 00dc 46F66805 		movw	r5, #26728
 394 00e0 9D61     		str	r5, [r3, #24]
 395              		.loc 1 486 0
 396 00e2 DD61     		str	r5, [r3, #28]
ARM GAS  C:\Users\DNIEL~1\AppData\Local\Temp\ccK3AMrq.s 			page 8


 397 00e4 99E7     		b	.L29
 398              	.L60:
 399              		.loc 1 407 0
 400 00e6 4FF46055 		mov	r5, #14336
 401 00ea C4F20205 		movt	r5, 16386
 402              		.loc 1 409 0
 403 00ee 1920     		movs	r0, #25
 404              		.loc 1 407 0
 405 00f0 696C     		ldr	r1, [r5, #68]
 406 00f2 41F00106 		orr	r6, r1, #1
 407 00f6 6E64     		str	r6, [r5, #68]
 408              		.loc 1 408 0
 409 00f8 6B6A     		ldr	r3, [r5, #36]
 410 00fa 0026     		movs	r6, #0
 411 00fc 43F00102 		orr	r2, r3, #1
 412 0100 6A62     		str	r2, [r5, #36]
 413              		.loc 1 409 0
 414 0102 7021     		movs	r1, #112
 415              		.loc 1 408 0
 416 0104 6E62     		str	r6, [r5, #36]
 417              		.loc 1 409 0
 418 0106 FFF7FEFF 		bl	nvicEnableVector
 419              	.LVL31:
 420              		.loc 1 411 0
 421 010a 1B20     		movs	r0, #27
 422 010c 7021     		movs	r1, #112
 423 010e FFF7FEFF 		bl	nvicEnableVector
 424              	.LVL32:
 425              		.loc 1 416 0
 426 0112 4FF4F440 		mov	r0, #31232
 427 0116 C0F60320 		movt	r0, 2563
 428 011a E060     		str	r0, [r4, #12]
 429 011c DDE7     		b	.L28
 430              	.L62:
 431 011e 00BF     		.align	2
 432              	.L61:
 433 0120 00000000 		.word	.LANCHOR0
 434              		.cfi_endproc
 435              	.LFE121:
 436              		.size	pwm_lld_start, .-pwm_lld_start
 437 0124 AFF30080 		.section	.text.pwm_lld_stop,"ax",%progbits
 437      AFF30080 
 437      AFF30080 
 438              		.align	2
 439              		.p2align 4,,15
 440              		.global	pwm_lld_stop
 441              		.thumb
 442              		.thumb_func
 443              		.type	pwm_lld_stop, %function
 444              	pwm_lld_stop:
 445              	.LFB122:
 446              		.loc 1 603 0
 447              		.cfi_startproc
 448              		@ args = 0, pretend = 0, frame = 0
 449              		@ frame_needed = 0, uses_anonymous_args = 0
 450              	.LVL33:
 451 0000 08B5     		push	{r3, lr}
ARM GAS  C:\Users\DNIEL~1\AppData\Local\Temp\ccK3AMrq.s 			page 9


 452              	.LCFI4:
 453              		.cfi_def_cfa_offset 8
 454              		.cfi_offset 3, -8
 455              		.cfi_offset 14, -4
 456              		.loc 1 606 0
 457 0002 0378     		ldrb	r3, [r0, #0]	@ zero_extendqisi2
 458 0004 022B     		cmp	r3, #2
 459 0006 00D0     		beq	.L67
 460              	.LVL34:
 461              	.L63:
 462 0008 08BD     		pop	{r3, pc}
 463              	.LVL35:
 464              	.L67:
 465              		.loc 1 615 0
 466 000a 0C4B     		ldr	r3, .L68
 467              		.loc 1 607 0
 468 000c 0169     		ldr	r1, [r0, #16]
 469 000e 0022     		movs	r2, #0
 470              		.loc 1 615 0
 471 0010 9842     		cmp	r0, r3
 472              		.loc 1 607 0
 473 0012 0A60     		str	r2, [r1, #0]
 474              		.loc 1 608 0
 475 0014 CA60     		str	r2, [r1, #12]
 476              		.loc 1 609 0
 477 0016 0A61     		str	r2, [r1, #16]
 478              		.loc 1 611 0
 479 0018 4A64     		str	r2, [r1, #68]
 480              		.loc 1 615 0
 481 001a F5D1     		bne	.L63
 482              		.loc 1 616 0
 483 001c 1920     		movs	r0, #25
 484              	.LVL36:
 485 001e FFF7FEFF 		bl	nvicDisableVector
 486              	.LVL37:
 487              		.loc 1 617 0
 488 0022 1B20     		movs	r0, #27
 489 0024 FFF7FEFF 		bl	nvicDisableVector
 490              	.LVL38:
 491              		.loc 1 618 0
 492 0028 4FF46050 		mov	r0, #14336
 493 002c C4F20200 		movt	r0, 16386
 494 0030 416C     		ldr	r1, [r0, #68]
 495 0032 21F00102 		bic	r2, r1, #1
 496 0036 4264     		str	r2, [r0, #68]
 497 0038 E6E7     		b	.L63
 498              	.L69:
 499 003a 00BF     		.align	2
 500              	.L68:
 501 003c 00000000 		.word	.LANCHOR0
 502              		.cfi_endproc
 503              	.LFE122:
 504              		.size	pwm_lld_stop, .-pwm_lld_stop
 505              		.section	.text.pwm_lld_enable_channel,"ax",%progbits
 506              		.align	2
 507              		.p2align 4,,15
 508              		.global	pwm_lld_enable_channel
ARM GAS  C:\Users\DNIEL~1\AppData\Local\Temp\ccK3AMrq.s 			page 10


 509              		.thumb
 510              		.thumb_func
 511              		.type	pwm_lld_enable_channel, %function
 512              	pwm_lld_enable_channel:
 513              	.LFB123:
 514              		.loc 1 675 0
 515              		.cfi_startproc
 516              		@ args = 0, pretend = 0, frame = 0
 517              		@ frame_needed = 0, uses_anonymous_args = 0
 518              		@ link register save eliminated.
 519              	.LVL39:
 520 0000 10B4     		push	{r4}
 521              	.LCFI5:
 522              		.cfi_def_cfa_offset 4
 523              		.cfi_offset 4, -4
 524              		.loc 1 680 0
 525 0002 4468     		ldr	r4, [r0, #4]
 526              		.loc 1 677 0
 527 0004 0369     		ldr	r3, [r0, #16]
 528              		.loc 1 680 0
 529 0006 04EBC100 		add	r0, r4, r1, lsl #3
 530              	.LVL40:
 531              		.loc 1 677 0
 532 000a 01F10C04 		add	r4, r1, #12
 533 000e 03EB8404 		add	r4, r3, r4, lsl #2
 534              		.loc 1 680 0
 535 0012 0069     		ldr	r0, [r0, #16]
 536              		.loc 1 677 0
 537 0014 6260     		str	r2, [r4, #4]
 538              		.loc 1 680 0
 539 0016 48B1     		cbz	r0, .L70
 540              	.LBB2:
 541              		.loc 1 684 0
 542 0018 0220     		movs	r0, #2
 543              		.loc 1 681 0
 544 001a DA68     		ldr	r2, [r3, #12]
 545              	.LVL41:
 546              		.loc 1 684 0
 547 001c 00FA01F1 		lsl	r1, r0, r1
 548              	.LVL42:
 549 0020 1142     		tst	r1, r2
 550 0022 03D1     		bne	.L70
 551              		.loc 1 685 0
 552 0024 0A43     		orrs	r2, r2, r1
 553              	.LVL43:
 554              		.loc 1 686 0
 555 0026 C843     		mvns	r0, r1
 556              		.loc 1 685 0
 557 0028 DA60     		str	r2, [r3, #12]
 558              		.loc 1 686 0
 559 002a 1861     		str	r0, [r3, #16]
 560              	.L70:
 561              	.LBE2:
 562              		.loc 1 689 0
 563 002c 10BC     		pop	{r4}
 564 002e 7047     		bx	lr
 565              		.cfi_endproc
ARM GAS  C:\Users\DNIEL~1\AppData\Local\Temp\ccK3AMrq.s 			page 11


 566              	.LFE123:
 567              		.size	pwm_lld_enable_channel, .-pwm_lld_enable_channel
 568              		.section	.text.pwm_lld_disable_channel,"ax",%progbits
 569              		.align	2
 570              		.p2align 4,,15
 571              		.global	pwm_lld_disable_channel
 572              		.thumb
 573              		.thumb_func
 574              		.type	pwm_lld_disable_channel, %function
 575              	pwm_lld_disable_channel:
 576              	.LFB124:
 577              		.loc 1 703 0
 578              		.cfi_startproc
 579              		@ args = 0, pretend = 0, frame = 0
 580              		@ frame_needed = 0, uses_anonymous_args = 0
 581              		@ link register save eliminated.
 582              	.LVL44:
 583              		.loc 1 705 0
 584 0000 0369     		ldr	r3, [r0, #16]
 585 0002 01F10C02 		add	r2, r1, #12
 586 0006 03EB8202 		add	r2, r3, r2, lsl #2
 587 000a 0020     		movs	r0, #0
 588              	.LVL45:
 589 000c 5060     		str	r0, [r2, #4]
 590              		.loc 1 706 0
 591 000e DA68     		ldr	r2, [r3, #12]
 592 0010 0220     		movs	r0, #2
 593 0012 00FA01F1 		lsl	r1, r0, r1
 594              	.LVL46:
 595 0016 22EA0102 		bic	r2, r2, r1
 596 001a DA60     		str	r2, [r3, #12]
 597 001c 7047     		bx	lr
 598              		.cfi_endproc
 599              	.LFE124:
 600              		.size	pwm_lld_disable_channel, .-pwm_lld_disable_channel
 601              		.global	PWMD1
 602 001e 00BF     		.section	.bss.PWMD1,"aw",%nobits
 603              		.align	2
 604              		.set	.LANCHOR0,. + 0
 605              		.type	PWMD1, %object
 606              		.size	PWMD1, 20
 607              	PWMD1:
 608 0000 00000000 		.space	20
 608      00000000 
 608      00000000 
 608      00000000 
 608      00000000 
 609              		.text
 610              	.Letext0:
 611              		.file 2 "c:\\chibistudio\\tools\\gnu tools arm embedded\\4.7 2014q2\\bin\\../lib/gcc/arm-none-eabi
 612              		.file 3 "../../../Chibios/os/hal/platforms/STM32F4xx/stm32f4xx.h"
 613              		.file 4 "../../../Chibios/os/hal/include/pwm.h"
 614              		.file 5 "../../../Chibios/os/hal/platforms/STM32/TIMv1/pwm_lld.h"
 615              		.file 6 "../../../Chibios/os/hal/platforms/STM32/TIMv1/stm32_tim.h"
 616              		.file 7 "../../../Chibios/os/ports/common/ARMCMx/CMSIS/include/core_cm4.h"
 617              		.file 8 "../../../Chibios/os/ports/common/ARMCMx/nvic.h"
 618              		.file 9 "../../../Chibios/os/ports/GCC/ARMCMx/chcore_v7m.h"
ARM GAS  C:\Users\DNIEL~1\AppData\Local\Temp\ccK3AMrq.s 			page 12

