ARM GAS  C:\Users\DNIEL~1\AppData\Local\Temp\cciPJzTl.s 			page 1


   1              		.syntax unified
   2              		.cpu cortex-m3
   3              		.fpu softvfp
   4              		.eabi_attribute 20, 1
   5              		.eabi_attribute 21, 1
   6              		.eabi_attribute 23, 3
   7              		.eabi_attribute 24, 1
   8              		.eabi_attribute 25, 1
   9              		.eabi_attribute 26, 1
  10              		.eabi_attribute 30, 2
  11              		.eabi_attribute 18, 4
  12              		.thumb
  13              		.file	"serial_lld.c"
  20 0000 8A030000 		.text
  20      0200A202 
  20      00000201 
  20      FB0E0D00 
  20      01010101 
  21              	.Ltext0:
  22              		.cfi_sections	.debug_frame
  23              		.section	.text.notify1,"ax",%progbits
  24              		.align	2
  25              		.p2align 4,,15
  26              		.thumb
  27              		.thumb_func
  28              		.type	notify1, %function
  29              	notify1:
  30              	.LFB122:
  31              		.file 1 "../../../ChibiOS/os/hal/platforms/STM32/serial_lld.c"
  32              		.loc 1 323 0
  33              		.cfi_startproc
  34              		@ args = 0, pretend = 0, frame = 0
  35              		@ frame_needed = 0, uses_anonymous_args = 0
  36              		@ link register save eliminated.
  37              	.LVL0:
  38              		.loc 1 326 0
  39 0000 034B     		ldr	r3, .L2
  40 0002 9989     		ldrh	r1, [r3, #12]
  41 0004 88B2     		uxth	r0, r1
  42              	.LVL1:
  43 0006 40F08002 		orr	r2, r0, #128
  44 000a 9A81     		strh	r2, [r3, #12]	@ movhi
  45              		.loc 1 327 0
  46 000c 7047     		bx	lr
  47              	.L3:
  48 000e 00BF     		.align	2
  49              	.L2:
  50 0010 00100140 		.word	1073811456
  51              		.cfi_endproc
  52              	.LFE122:
  53              		.size	notify1, .-notify1
ARM GAS  C:\Users\DNIEL~1\AppData\Local\Temp\cciPJzTl.s 			page 2


  54 0014 AFF30080 		.section	.text.VectorD4,"ax",%progbits
  54      AFF30080 
  54      AFF30080 
  55              		.align	2
  56              		.p2align 4,,15
  57              		.global	VectorD4
  58              		.thumb
  59              		.thumb_func
  60              		.type	VectorD4, %function
  61              	VectorD4:
  62              	.LFB123:
  63              		.loc 1 383 0
  64              		.cfi_startproc
  65              		@ args = 0, pretend = 0, frame = 0
  66              		@ frame_needed = 0, uses_anonymous_args = 0
  67 0000 2DE9F041 		push	{r4, r5, r6, r7, r8, lr}
  68              	.LCFI0:
  69              		.cfi_def_cfa_offset 24
  70              		.loc 1 385 0
  71              		.cfi_offset 14, -4
  72              		.cfi_offset 8, -8
  73              		.cfi_offset 7, -12
  74              		.cfi_offset 6, -16
  75              		.cfi_offset 5, -20
  76              		.cfi_offset 4, -24
  77 0004 FFF7FEFF 		bl	dbg_check_enter_isr
  78              	.LVL2:
  79              	.LBB60:
  80              	.LBB61:
  81              		.loc 1 276 0
  82 0008 4D4B     		ldr	r3, .L22
  83 000a 5D6F     		ldr	r5, [r3, #116]
  84              	.LVL3:
  85              		.loc 1 277 0
  86 000c AE89     		ldrh	r6, [r5, #12]
  87              		.loc 1 278 0
  88 000e 2C88     		ldrh	r4, [r5, #0]
  89              		.loc 1 277 0
  90 0010 B6B2     		uxth	r6, r6
  91              	.LVL4:
  92              		.loc 1 278 0
  93 0012 A4B2     		uxth	r4, r4
  94              	.LVL5:
  95              		.loc 1 282 0
  96 0014 14F00F0F 		tst	r4, #15
  97              		.loc 1 279 0
  98 0018 AF88     		ldrh	r7, [r5, #4]
  99              	.LVL6:
 100              		.loc 1 282 0
 101 001a 21D0     		beq	.L5
 102              	.LVL7:
 103              	.LBB64:
 104              	.LBB65:
 105              		.loc 1 257 0
 106 001c 14F00808 		ands	r8, r4, #8
 107              		.loc 1 258 0
 108 0020 18BF     		it	ne
ARM GAS  C:\Users\DNIEL~1\AppData\Local\Temp\cciPJzTl.s 			page 3


 109 0022 4FF08008 		movne	r8, #128
 110              	.LVL8:
 111              		.loc 1 259 0
 112 0026 14F0010F 		tst	r4, #1
 113              		.loc 1 260 0
 114 002a 18BF     		it	ne
 115 002c 48F02008 		orrne	r8, r8, #32
 116              	.LVL9:
 117              		.loc 1 261 0
 118 0030 14F0020F 		tst	r4, #2
 119              		.loc 1 262 0
 120 0034 18BF     		it	ne
 121 0036 48F04008 		orrne	r8, r8, #64
 122              	.LVL10:
 123              		.loc 1 263 0
 124 003a 14F0040F 		tst	r4, #4
 125              		.loc 1 264 0
 126 003e 18BF     		it	ne
 127 0040 48F48078 		orrne	r8, r8, #256
 128              	.LVL11:
 129              	.LBB66:
 130              		.loc 1 265 0
 131 0044 2023     		movs	r3, #32
 132              	.LVL12:
 133              	@ 265 "../../../ChibiOS/os/hal/platforms/STM32/serial_lld.c" 1
 134 0046 83F31188 		msr     BASEPRI, r3
 135              	@ 0 "" 2
 136              	.LVL13:
 137              		.thumb
 138              	.LBE66:
 139 004a FFF7FEFF 		bl	dbg_check_lock_from_isr
 140              	.LVL14:
 141              		.loc 1 266 0
 142 004e 3D48     		ldr	r0, .L22+4
 143 0050 4146     		mov	r1, r8
 144 0052 FFF7FEFF 		bl	chEvtBroadcastFlagsI
 145              		.loc 1 267 0
 146 0056 FFF7FEFF 		bl	dbg_check_unlock_from_isr
 147              	.LBB67:
 148 005a 0023     		movs	r3, #0
 149              	.LVL15:
 150              	@ 267 "../../../ChibiOS/os/hal/platforms/STM32/serial_lld.c" 1
 151 005c 83F31188 		msr     BASEPRI, r3
 152              	@ 0 "" 2
 153              	.LVL16:
 154              		.thumb
 155              	.L5:
 156              	.LBE67:
 157              	.LBE65:
 158              	.LBE64:
 159              		.loc 1 285 0
 160 0060 14F4807F 		tst	r4, #256
 161 0064 3AD1     		bne	.L18
 162              	.LVL17:
 163              	.L10:
 164              		.loc 1 292 0
 165 0066 14F0200F 		tst	r4, #32
ARM GAS  C:\Users\DNIEL~1\AppData\Local\Temp\cciPJzTl.s 			page 4


 166 006a 28D1     		bne	.L19
 167              	.LVL18:
 168              	.L11:
 169              		.loc 1 298 0
 170 006c 16F0800F 		tst	r6, #128
 171 0070 02D0     		beq	.L12
 172 0072 14F0800F 		tst	r4, #128
 173 0076 48D1     		bne	.L20
 174              	.LVL19:
 175              	.L12:
 176              		.loc 1 311 0
 177 0078 14F0400F 		tst	r4, #64
 178 007c 19D0     		beq	.L15
 179              	.LBB63:
 180              		.loc 1 312 0
 181 007e 2023     		movs	r3, #32
 182              	.LVL20:
 183              	@ 312 "../../../ChibiOS/os/hal/platforms/STM32/serial_lld.c" 1
 184 0080 83F31188 		msr     BASEPRI, r3
 185              	@ 0 "" 2
 186              	.LVL21:
 187              		.thumb
 188              	.LBE63:
 189 0084 FFF7FEFF 		bl	dbg_check_lock_from_isr
 190              	.LVL22:
 191              		.loc 1 313 0
 192 0088 2E48     		ldr	r0, .L22+4
 193 008a 1021     		movs	r1, #16
 194 008c FFF7FEFF 		bl	chEvtBroadcastFlagsI
 195              		.loc 1 314 0
 196 0090 FFF7FEFF 		bl	dbg_check_unlock_from_isr
 197              	.LBB62:
 198 0094 0023     		movs	r3, #0
 199              	.LVL23:
 200              	@ 314 "../../../ChibiOS/os/hal/platforms/STM32/serial_lld.c" 1
 201 0096 83F31188 		msr     BASEPRI, r3
 202              	@ 0 "" 2
 203              	.LVL24:
 204              		.thumb
 205              	.LBE62:
 206              		.loc 1 315 0
 207 009a 4FF6BF71 		movw	r1, #65471
 208 009e 06EA0100 		and	r0, r6, r1
 209 00a2 A881     		strh	r0, [r5, #12]	@ movhi
 210              		.loc 1 316 0
 211 00a4 B5F800C0 		ldrh	ip, [r5, #0]
 212 00a8 2CF04003 		bic	r3, ip, #64
 213              	.LVL25:
 214 00ac 1A04     		lsls	r2, r3, #16
 215 00ae 110C     		lsrs	r1, r2, #16
 216 00b0 2980     		strh	r1, [r5, #0]	@ movhi
 217              	.LVL26:
 218              	.L15:
 219              	.LBE61:
 220              	.LBE60:
 221              		.loc 1 389 0
 222 00b2 FFF7FEFF 		bl	dbg_check_leave_isr
ARM GAS  C:\Users\DNIEL~1\AppData\Local\Temp\cciPJzTl.s 			page 5


 223              	.LVL27:
 224              		.loc 1 390 0
 225 00b6 BDE8F041 		pop	{r4, r5, r6, r7, r8, lr}
 226              		.loc 1 389 0
 227 00ba FFF7FEBF 		b	_port_irq_epilogue
 228              	.LVL28:
 229              	.L19:
 230              	.LBB76:
 231              	.LBB75:
 232              	.LBB68:
 233              		.loc 1 293 0
 234 00be 2023     		movs	r3, #32
 235              	.LVL29:
 236              	@ 293 "../../../ChibiOS/os/hal/platforms/STM32/serial_lld.c" 1
 237 00c0 83F31188 		msr     BASEPRI, r3
 238              	@ 0 "" 2
 239              	.LVL30:
 240              		.thumb
 241              	.LBE68:
 242 00c4 FFF7FEFF 		bl	dbg_check_lock_from_isr
 243              	.LVL31:
 244              		.loc 1 294 0
 245 00c8 1D48     		ldr	r0, .L22
 246 00ca F9B2     		uxtb	r1, r7
 247 00cc FFF7FEFF 		bl	sdIncomingDataI
 248              		.loc 1 295 0
 249 00d0 FFF7FEFF 		bl	dbg_check_unlock_from_isr
 250              	.LBB69:
 251 00d4 0023     		movs	r3, #0
 252              	@ 295 "../../../ChibiOS/os/hal/platforms/STM32/serial_lld.c" 1
 253 00d6 83F31188 		msr     BASEPRI, r3
 254              	@ 0 "" 2
 255              	.LVL32:
 256              		.thumb
 257 00da C7E7     		b	.L11
 258              	.LVL33:
 259              	.L18:
 260              	.LBE69:
 261              	.LBB70:
 262              		.loc 1 286 0
 263 00dc 2023     		movs	r3, #32
 264              	.LVL34:
 265              	@ 286 "../../../ChibiOS/os/hal/platforms/STM32/serial_lld.c" 1
 266 00de 83F31188 		msr     BASEPRI, r3
 267              	@ 0 "" 2
 268              	.LVL35:
 269              		.thumb
 270              	.LBE70:
 271 00e2 FFF7FEFF 		bl	dbg_check_lock_from_isr
 272              	.LVL36:
 273              		.loc 1 287 0
 274 00e6 1748     		ldr	r0, .L22+4
 275 00e8 4FF40071 		mov	r1, #512
 276 00ec FFF7FEFF 		bl	chEvtBroadcastFlagsI
 277              		.loc 1 288 0
 278 00f0 FFF7FEFF 		bl	dbg_check_unlock_from_isr
 279              	.LBB71:
ARM GAS  C:\Users\DNIEL~1\AppData\Local\Temp\cciPJzTl.s 			page 6


 280 00f4 0023     		movs	r3, #0
 281              	@ 288 "../../../ChibiOS/os/hal/platforms/STM32/serial_lld.c" 1
 282 00f6 83F31188 		msr     BASEPRI, r3
 283              	@ 0 "" 2
 284              	.LVL37:
 285              		.thumb
 286              	.LBE71:
 287              		.loc 1 289 0
 288 00fa B5F800C0 		ldrh	ip, [r5, #0]
 289 00fe 2CF48072 		bic	r2, ip, #256
 290 0102 1104     		lsls	r1, r2, #16
 291 0104 080C     		lsrs	r0, r1, #16
 292 0106 2880     		strh	r0, [r5, #0]	@ movhi
 293 0108 ADE7     		b	.L10
 294              	.LVL38:
 295              	.L20:
 296              	.LBB72:
 297              	.LBB73:
 298              		.loc 1 300 0
 299 010a 2023     		movs	r3, #32
 300              	.LVL39:
 301              	@ 300 "../../../ChibiOS/os/hal/platforms/STM32/serial_lld.c" 1
 302 010c 83F31188 		msr     BASEPRI, r3
 303              	@ 0 "" 2
 304              	.LVL40:
 305              		.thumb
 306              	.LBE73:
 307 0110 FFF7FEFF 		bl	dbg_check_lock_from_isr
 308              	.LVL41:
 309              		.loc 1 301 0
 310 0114 0C48     		ldr	r0, .L22+8
 311 0116 FFF7FEFF 		bl	chOQGetI
 312              	.LVL42:
 313              		.loc 1 302 0
 314 011a 0028     		cmp	r0, #0
 315 011c 06DB     		blt	.L21
 316              		.loc 1 307 0
 317 011e A880     		strh	r0, [r5, #4]	@ movhi
 318              	.LVL43:
 319              	.L14:
 320              		.loc 1 308 0
 321 0120 FFF7FEFF 		bl	dbg_check_unlock_from_isr
 322              	.LBB74:
 323 0124 0023     		movs	r3, #0
 324              	@ 308 "../../../ChibiOS/os/hal/platforms/STM32/serial_lld.c" 1
 325 0126 83F31188 		msr     BASEPRI, r3
 326              	@ 0 "" 2
 327              	.LVL44:
 328              		.thumb
 329 012a A5E7     		b	.L12
 330              	.LVL45:
 331              	.L21:
 332              	.LBE74:
 333              		.loc 1 303 0
 334 012c 0548     		ldr	r0, .L22+4
 335              	.LVL46:
 336 012e 0821     		movs	r1, #8
ARM GAS  C:\Users\DNIEL~1\AppData\Local\Temp\cciPJzTl.s 			page 7


 337 0130 FFF7FEFF 		bl	chEvtBroadcastFlagsI
 338              		.loc 1 304 0
 339 0134 26F0C000 		bic	r0, r6, #192
 340 0138 40F04003 		orr	r3, r0, #64
 341 013c AB81     		strh	r3, [r5, #12]	@ movhi
 342 013e EFE7     		b	.L14
 343              	.L23:
 344              		.align	2
 345              	.L22:
 346 0140 00000000 		.word	.LANCHOR0
 347 0144 04000000 		.word	.LANCHOR0+4
 348 0148 30000000 		.word	.LANCHOR0+48
 349              	.LBE72:
 350              	.LBE75:
 351              	.LBE76:
 352              		.cfi_endproc
 353              	.LFE123:
 354              		.size	VectorD4, .-VectorD4
 355 014c AFF30080 		.section	.text.sd_lld_init,"ax",%progbits
 356              		.align	2
 357              		.p2align 4,,15
 358              		.global	sd_lld_init
 359              		.thumb
 360              		.thumb_func
 361              		.type	sd_lld_init, %function
 362              	sd_lld_init:
 363              	.LFB124:
 364              		.loc 1 497 0
 365              		.cfi_startproc
 366              		@ args = 0, pretend = 0, frame = 0
 367              		@ frame_needed = 0, uses_anonymous_args = 0
 368 0000 10B5     		push	{r4, lr}
 369              	.LCFI1:
 370              		.cfi_def_cfa_offset 8
 371              		.loc 1 500 0
 372 0002 044C     		ldr	r4, .L25
 373              		.cfi_offset 14, -4
 374              		.cfi_offset 4, -8
 375 0004 0021     		movs	r1, #0
 376 0006 2046     		mov	r0, r4
 377 0008 034A     		ldr	r2, .L25+4
 378 000a FFF7FEFF 		bl	sdObjectInit
 379              		.loc 1 501 0
 380 000e 034B     		ldr	r3, .L25+8
 381 0010 6367     		str	r3, [r4, #116]
 382              		.loc 1 528 0
 383 0012 10BD     		pop	{r4, pc}
 384              	.L26:
 385              		.align	2
 386              	.L25:
 387 0014 00000000 		.word	.LANCHOR0
 388 0018 00000000 		.word	notify1
 389 001c 00100140 		.word	1073811456
 390              		.cfi_endproc
 391              	.LFE124:
 392              		.size	sd_lld_init, .-sd_lld_init
 393              		.section	.text.sd_lld_start,"ax",%progbits
ARM GAS  C:\Users\DNIEL~1\AppData\Local\Temp\cciPJzTl.s 			page 8


 394              		.align	2
 395              		.p2align 4,,15
 396              		.global	sd_lld_start
 397              		.thumb
 398              		.thumb_func
 399              		.type	sd_lld_start, %function
 400              	sd_lld_start:
 401              	.LFB125:
 402              		.loc 1 540 0
 403              		.cfi_startproc
 404              		@ args = 0, pretend = 0, frame = 0
 405              		@ frame_needed = 0, uses_anonymous_args = 0
 406              	.LVL47:
 407 0000 38B5     		push	{r3, r4, r5, lr}
 408              	.LCFI2:
 409              		.cfi_def_cfa_offset 16
 410              		.loc 1 545 0
 411 0002 037A     		ldrb	r3, [r0, #8]	@ zero_extendqisi2
 412              		.cfi_offset 14, -4
 413              		.cfi_offset 5, -8
 414              		.cfi_offset 4, -12
 415              		.cfi_offset 3, -16
 416              		.loc 1 543 0
 417 0004 1E4C     		ldr	r4, .L35
 418              		.loc 1 540 0
 419 0006 0546     		mov	r5, r0
 420              		.loc 1 543 0
 421 0008 0029     		cmp	r1, #0
 422 000a 18BF     		it	ne
 423 000c 0C46     		movne	r4, r1
 424              	.LVL48:
 425              		.loc 1 545 0
 426 000e 012B     		cmp	r3, #1
 427 0010 21D0     		beq	.L34
 428              	.LVL49:
 429              	.L29:
 430              		.loc 1 648 0
 431 0012 6B6F     		ldr	r3, [r5, #116]
 432              	.LVL50:
 433              	.LBB77:
 434              	.LBB78:
 435              		.loc 1 216 0
 436 0014 1B4A     		ldr	r2, .L35+4
 437 0016 9342     		cmp	r3, r2
 438 0018 2AD0     		beq	.L30
 439 001a 02F58060 		add	r0, r2, #1024
 440 001e 8342     		cmp	r3, r0
 441 0020 26D0     		beq	.L30
 442              		.loc 1 222 0
 443 0022 2268     		ldr	r2, [r4, #0]
 444 0024 1849     		ldr	r1, .L35+8
 445 0026 B1FBF2F0 		udiv	r0, r1, r2
 446 002a 1881     		strh	r0, [r3, #8]	@ movhi
 447              	.L32:
 448              		.loc 1 225 0
 449 002c A288     		ldrh	r2, [r4, #4]
 450              		.loc 1 228 0
ARM GAS  C:\Users\DNIEL~1\AppData\Local\Temp\cciPJzTl.s 			page 9


 451 002e B4F806C0 		ldrh	ip, [r4, #6]
 452              		.loc 1 229 0
 453 0032 2189     		ldrh	r1, [r4, #8]
 454              		.loc 1 225 0
 455 0034 42F40450 		orr	r0, r2, #8448
 456 0038 40F02C02 		orr	r2, r0, #44
 457              		.loc 1 228 0
 458 003c 4CF04000 		orr	r0, ip, #64
 459              		.loc 1 225 0
 460 0040 9A81     		strh	r2, [r3, #12]	@ movhi
 461              		.loc 1 229 0
 462 0042 41F0010C 		orr	ip, r1, #1
 463              		.loc 1 228 0
 464 0046 1882     		strh	r0, [r3, #16]	@ movhi
 465              		.loc 1 230 0
 466 0048 0020     		movs	r0, #0
 467              		.loc 1 229 0
 468 004a A3F814C0 		strh	ip, [r3, #20]	@ movhi
 469              		.loc 1 230 0
 470 004e 1880     		strh	r0, [r3, #0]	@ movhi
 471              		.loc 1 231 0
 472 0050 1A88     		ldrh	r2, [r3, #0]
 473              		.loc 1 232 0
 474 0052 9B88     		ldrh	r3, [r3, #4]
 475              	.LBE78:
 476              	.LBE77:
 477              		.loc 1 590 0
 478 0054 38BD     		pop	{r3, r4, r5, pc}
 479              	.LVL51:
 480              	.L34:
 481              		.loc 1 547 0
 482 0056 0D49     		ldr	r1, .L35+12
 483 0058 8842     		cmp	r0, r1
 484 005a DAD1     		bne	.L29
 485              		.loc 1 548 0
 486 005c 0C4B     		ldr	r3, .L35+16
 487              		.loc 1 549 0
 488 005e 2520     		movs	r0, #37
 489              		.loc 1 548 0
 490 0060 5A6C     		ldr	r2, [r3, #68]
 491              		.loc 1 549 0
 492 0062 C021     		movs	r1, #192
 493              		.loc 1 548 0
 494 0064 42F01002 		orr	r2, r2, #16
 495 0068 5A64     		str	r2, [r3, #68]
 496              		.loc 1 549 0
 497 006a FFF7FEFF 		bl	nvicEnableVector
 498 006e D0E7     		b	.L29
 499              	.LVL52:
 500              	.L30:
 501              	.LBB80:
 502              	.LBB79:
 503              		.loc 1 220 0
 504 0070 2268     		ldr	r2, [r4, #0]
 505 0072 0849     		ldr	r1, .L35+20
 506 0074 B1FBF2FC 		udiv	ip, r1, r2
 507 0078 A3F808C0 		strh	ip, [r3, #8]	@ movhi
ARM GAS  C:\Users\DNIEL~1\AppData\Local\Temp\cciPJzTl.s 			page 10


 508 007c D6E7     		b	.L32
 509              	.L36:
 510 007e 00BF     		.align	2
 511              	.L35:
 512 0080 00000000 		.word	.LANCHOR1
 513 0084 00100140 		.word	1073811456
 514 0088 80DE8002 		.word	42000000
 515 008c 00000000 		.word	.LANCHOR0
 516 0090 00380240 		.word	1073887232
 517 0094 00BD0105 		.word	84000000
 518              	.LBE79:
 519              	.LBE80:
 520              		.cfi_endproc
 521              	.LFE125:
 522              		.size	sd_lld_start, .-sd_lld_start
 523 0098 AFF30080 		.section	.text.sd_lld_stop,"ax",%progbits
 523      AFF30080 
 524              		.align	2
 525              		.p2align 4,,15
 526              		.global	sd_lld_stop
 527              		.thumb
 528              		.thumb_func
 529              		.type	sd_lld_stop, %function
 530              	sd_lld_stop:
 531              	.LFB126:
 532              		.loc 1 601 0
 533              		.cfi_startproc
 534              		@ args = 0, pretend = 0, frame = 0
 535              		@ frame_needed = 0, uses_anonymous_args = 0
 536              		@ link register save eliminated.
 537              	.LVL53:
 538              		.loc 1 603 0
 539 0000 037A     		ldrb	r3, [r0, #8]	@ zero_extendqisi2
 540 0002 022B     		cmp	r3, #2
 541 0004 00D0     		beq	.L39
 542              	.L37:
 543 0006 7047     		bx	lr
 544              	.LVL54:
 545              	.L39:
 546              		.loc 1 606 0
 547 0008 0749     		ldr	r1, .L40
 548              	.LVL55:
 549              		.loc 1 604 0
 550 000a 436F     		ldr	r3, [r0, #116]
 551              	.LVL56:
 552              	.LBB81:
 553              	.LBB82:
 554              		.loc 1 243 0
 555 000c 0022     		movs	r2, #0
 556              	.LBE82:
 557              	.LBE81:
 558              		.loc 1 606 0
 559 000e 8842     		cmp	r0, r1
 560              	.LBB84:
 561              	.LBB83:
 562              		.loc 1 243 0
 563 0010 9A81     		strh	r2, [r3, #12]	@ movhi
ARM GAS  C:\Users\DNIEL~1\AppData\Local\Temp\cciPJzTl.s 			page 11


 564              		.loc 1 244 0
 565 0012 1A82     		strh	r2, [r3, #16]	@ movhi
 566              		.loc 1 245 0
 567 0014 9A82     		strh	r2, [r3, #20]	@ movhi
 568              	.LBE83:
 569              	.LBE84:
 570              		.loc 1 606 0
 571 0016 F6D1     		bne	.L37
 572              		.loc 1 607 0
 573 0018 044B     		ldr	r3, .L40+4
 574              		.loc 1 608 0
 575 001a 2520     		movs	r0, #37
 576              	.LVL57:
 577              		.loc 1 607 0
 578 001c 5A6C     		ldr	r2, [r3, #68]
 579 001e 22F01001 		bic	r1, r2, #16
 580 0022 5964     		str	r1, [r3, #68]
 581              		.loc 1 648 0
 582              		.loc 1 608 0
 583 0024 FFF7FEBF 		b	nvicDisableVector
 584              	.L41:
 585              		.align	2
 586              	.L40:
 587 0028 00000000 		.word	.LANCHOR0
 588 002c 00380240 		.word	1073887232
 589              		.cfi_endproc
 590              	.LFE126:
 591              		.size	sd_lld_stop, .-sd_lld_stop
 592              		.global	SD1
 593              		.section	.rodata.default_config,"a",%progbits
 594              		.align	2
 595              		.set	.LANCHOR1,. + 0
 596              		.type	default_config, %object
 597              		.size	default_config, 12
 598              	default_config:
 599 0000 00960000 		.word	38400
 600 0004 0000     		.short	0
 601 0006 0040     		.short	16384
 602 0008 0000     		.short	0
 603 000a 0000     		.space	2
 604              		.section	.bss.SD1,"aw",%nobits
 605              		.align	2
 606              		.set	.LANCHOR0,. + 0
 607              		.type	SD1, %object
 608              		.size	SD1, 120
 609              	SD1:
 610 0000 00000000 		.space	120
 610      00000000 
 610      00000000 
 610      00000000 
 610      00000000 
 611              		.text
 612              	.Letext0: