ARM GAS  C:\Users\DNIEL~1\AppData\Local\Temp\ccFXxZfx.s 			page 1


   1              		.syntax unified
   2              		.cpu cortex-m3
   3              		.fpu softvfp
   4              		.eabi_attribute 20, 1
   5              		.eabi_attribute 21, 1
   6              		.eabi_attribute 23, 3
   7              		.eabi_attribute 24, 1
   8              		.eabi_attribute 25, 1
   9              		.eabi_attribute 26, 1
  10              		.eabi_attribute 30, 2
  11              		.eabi_attribute 18, 4
  12              		.thumb
  13              		.file	"shell.c"
  20 0000 CB030000 		.text
  20      02003C02 
  20      00000201 
  20      FB0E0D00 
  20      01010101 
  21              	.Ltext0:
  22              		.cfi_sections	.debug_frame
  23              		.section	.text.cmd_systime,"ax",%progbits
  24              		.align	2
  25              		.p2align 4,,15
  26              		.thumb
  27              		.thumb_func
  28              		.type	cmd_systime, %function
  29              	cmd_systime:
  30              	.LFB122:
  31              		.file 1 "../../../ChibiOS/os/various/shell.c"
  32              		.loc 1 103 0
  33              		.cfi_startproc
  34              		@ args = 0, pretend = 0, frame = 0
  35              		@ frame_needed = 0, uses_anonymous_args = 0
  36              		@ link register save eliminated.
  37              	.LVL0:
  38              		.loc 1 106 0
  39 0000 0029     		cmp	r1, #0
  40 0002 03DD     		ble	.L2
  41              	.LVL1:
  42              	.LBB11:
  43              	.LBB12:
  44              		.loc 1 60 0
  45 0004 0449     		ldr	r1, .L4
  46              	.LVL2:
  47 0006 054A     		ldr	r2, .L4+4
  48              	.LVL3:
  49              	.LBE12:
  50              	.LBE11:
  51              		.loc 1 111 0
  52              	.LBB14:
  53              	.LBB13:
ARM GAS  C:\Users\DNIEL~1\AppData\Local\Temp\ccFXxZfx.s 			page 2


  54              		.loc 1 60 0
  55 0008 FFF7FEBF 		b	chprintf
  56              	.LVL4:
  57              	.L2:
  58              	.LBE13:
  59              	.LBE14:
  60              		.loc 1 110 0
  61 000c 044B     		ldr	r3, .L4+8
  62 000e 0549     		ldr	r1, .L4+12
  63              	.LVL5:
  64 0010 DA68     		ldr	r2, [r3, #12]
  65              	.LVL6:
  66              		.loc 1 111 0
  67              		.loc 1 110 0
  68 0012 FFF7FEBF 		b	chprintf
  69              	.LVL7:
  70              	.L5:
  71 0016 00BF     		.align	2
  72              	.L4:
  73 0018 00000000 		.word	.LC0
  74 001c 0C000000 		.word	.LC1
  75 0020 00000000 		.word	vtlist
  76 0024 14000000 		.word	.LC2
  77              		.cfi_endproc
  78              	.LFE122:
  79              		.size	cmd_systime, .-cmd_systime
  80 0028 AFF30080 		.section	.text.cmd_info,"ax",%progbits
  80      AFF30080 
  81              		.align	2
  82              		.p2align 4,,15
  83              		.thumb
  84              		.thumb_func
  85              		.type	cmd_info, %function
  86              	cmd_info:
  87              	.LFB121:
  88              		.loc 1 71 0
  89              		.cfi_startproc
  90              		@ args = 0, pretend = 0, frame = 0
  91              		@ frame_needed = 0, uses_anonymous_args = 0
  92              	.LVL8:
  93 0000 10B5     		push	{r4, lr}
  94              	.LCFI0:
  95              		.cfi_def_cfa_offset 8
  96              		.loc 1 74 0
  97 0002 0029     		cmp	r1, #0
  98              		.loc 1 71 0
  99 0004 82B0     		sub	sp, sp, #8
 100              	.LCFI1:
 101              		.cfi_def_cfa_offset 16
 102              		.loc 1 71 0
 103 0006 0446     		mov	r4, r0
 104              		.cfi_offset 14, -4
 105              		.cfi_offset 4, -8
 106              		.loc 1 74 0
 107 0008 06DD     		ble	.L7
 108              	.LVL9:
 109              	.LBB15:
ARM GAS  C:\Users\DNIEL~1\AppData\Local\Temp\ccFXxZfx.s 			page 3


 110              	.LBB16:
 111              		.loc 1 60 0
 112 000a 1949     		ldr	r1, .L8
 113              	.LVL10:
 114 000c 194A     		ldr	r2, .L8+4
 115              	.LVL11:
 116              	.LBE16:
 117              	.LBE15:
 118              		.loc 1 101 0
 119 000e 02B0     		add	sp, sp, #8
 120 0010 BDE81040 		pop	{r4, lr}
 121              	.LBB18:
 122              	.LBB17:
 123              		.loc 1 60 0
 124 0014 FFF7FEBF 		b	chprintf
 125              	.LVL12:
 126              	.L7:
 127              	.LBE17:
 128              	.LBE18:
 129              		.loc 1 79 0
 130 0018 1749     		ldr	r1, .L8+8
 131              	.LVL13:
 132 001a 184A     		ldr	r2, .L8+12
 133              	.LVL14:
 134 001c FFF7FEFF 		bl	chprintf
 135              		.loc 1 81 0
 136 0020 2046     		mov	r0, r4
 137 0022 1749     		ldr	r1, .L8+16
 138 0024 174A     		ldr	r2, .L8+20
 139 0026 FFF7FEFF 		bl	chprintf
 140              		.loc 1 83 0
 141 002a 2046     		mov	r0, r4
 142 002c 1649     		ldr	r1, .L8+24
 143 002e 174A     		ldr	r2, .L8+28
 144 0030 FFF7FEFF 		bl	chprintf
 145              		.loc 1 85 0
 146 0034 2046     		mov	r0, r4
 147 0036 1649     		ldr	r1, .L8+32
 148 0038 164A     		ldr	r2, .L8+36
 149 003a FFF7FEFF 		bl	chprintf
 150              		.loc 1 88 0
 151 003e 2046     		mov	r0, r4
 152 0040 1549     		ldr	r1, .L8+40
 153 0042 164A     		ldr	r2, .L8+44
 154 0044 FFF7FEFF 		bl	chprintf
 155              		.loc 1 91 0
 156 0048 2046     		mov	r0, r4
 157 004a 1549     		ldr	r1, .L8+48
 158 004c 154A     		ldr	r2, .L8+52
 159 004e FFF7FEFF 		bl	chprintf
 160              		.loc 1 94 0
 161 0052 2046     		mov	r0, r4
 162 0054 1449     		ldr	r1, .L8+56
 163 0056 154A     		ldr	r2, .L8+60
 164 0058 FFF7FEFF 		bl	chprintf
 165              		.loc 1 98 0
 166 005c 2046     		mov	r0, r4
ARM GAS  C:\Users\DNIEL~1\AppData\Local\Temp\ccFXxZfx.s 			page 4


 167 005e 144C     		ldr	r4, .L8+64
 168              	.LVL15:
 169 0060 1449     		ldr	r1, .L8+68
 170 0062 154A     		ldr	r2, .L8+72
 171 0064 154B     		ldr	r3, .L8+76
 172 0066 0094     		str	r4, [sp, #0]
 173 0068 FFF7FEFF 		bl	chprintf
 174              	.LVL16:
 175              		.loc 1 101 0
 176 006c 02B0     		add	sp, sp, #8
 177 006e 10BD     		pop	{r4, pc}
 178              	.L9:
 179              		.align	2
 180              	.L8:
 181 0070 00000000 		.word	.LC0
 182 0074 1C000000 		.word	.LC3
 183 0078 24000000 		.word	.LC4
 184 007c 38000000 		.word	.LC5
 185 0080 48000000 		.word	.LC6
 186 0084 5C000000 		.word	.LC7
 187 0088 68000000 		.word	.LC8
 188 008c 7C000000 		.word	.LC9
 189 0090 88000000 		.word	.LC10
 190 0094 9C000000 		.word	.LC11
 191 0098 A8000000 		.word	.LC12
 192 009c BC000000 		.word	.LC13
 193 00a0 D4000000 		.word	.LC14
 194 00a4 E8000000 		.word	.LC15
 195 00a8 04010000 		.word	.LC16
 196 00ac 18010000 		.word	.LC17
 197 00b0 48010000 		.word	.LC21
 198 00b4 20010000 		.word	.LC18
 199 00b8 38010000 		.word	.LC19
 200 00bc 44010000 		.word	.LC20
 201              		.cfi_endproc
 202              	.LFE121:
 203              		.size	cmd_info, .-cmd_info
 204              		.section	.text.list_commands,"ax",%progbits
 205              		.align	2
 206              		.p2align 4,,15
 207              		.thumb
 208              		.thumb_func
 209              		.type	list_commands, %function
 210              	list_commands:
 211              	.LFB120:
 212              		.loc 1 63 0
 213              		.cfi_startproc
 214              		@ args = 0, pretend = 0, frame = 0
 215              		@ frame_needed = 0, uses_anonymous_args = 0
 216              	.LVL17:
 217              		.loc 1 65 0
 218 0000 0A68     		ldr	r2, [r1, #0]
 219              		.loc 1 63 0
 220 0002 38B5     		push	{r3, r4, r5, lr}
 221              	.LCFI2:
 222              		.cfi_def_cfa_offset 16
 223              		.loc 1 63 0
ARM GAS  C:\Users\DNIEL~1\AppData\Local\Temp\ccFXxZfx.s 			page 5


 224 0004 0546     		mov	r5, r0
 225              		.cfi_offset 14, -4
 226              		.cfi_offset 5, -8
 227              		.cfi_offset 4, -12
 228              		.cfi_offset 3, -16
 229              		.loc 1 65 0
 230 0006 42B1     		cbz	r2, .L10
 231 0008 0C46     		mov	r4, r1
 232              	.LVL18:
 233              	.L12:
 234              		.loc 1 66 0
 235 000a 2846     		mov	r0, r5
 236 000c 0349     		ldr	r1, .L14
 237 000e FFF7FEFF 		bl	chprintf
 238              		.loc 1 65 0
 239 0012 54F8082F 		ldr	r2, [r4, #8]!
 240 0016 002A     		cmp	r2, #0
 241 0018 F7D1     		bne	.L12
 242              	.L10:
 243 001a 38BD     		pop	{r3, r4, r5, pc}
 244              	.L15:
 245              		.align	2
 246              	.L14:
 247 001c 54010000 		.word	.LC22
 248              		.cfi_endproc
 249              	.LFE120:
 250              		.size	list_commands, .-list_commands
 251              		.section	.text.cmdexec,"ax",%progbits
 252              		.align	2
 253              		.p2align 4,,15
 254              		.thumb
 255              		.thumb_func
 256              		.type	cmdexec, %function
 257              	cmdexec:
 258              	.LFB123:
 259              		.loc 1 123 0
 260              		.cfi_startproc
 261              		@ args = 4, pretend = 0, frame = 0
 262              		@ frame_needed = 0, uses_anonymous_args = 0
 263              	.LVL19:
 264 0000 2DE9F041 		push	{r4, r5, r6, r7, r8, lr}
 265              	.LCFI3:
 266              		.cfi_def_cfa_offset 24
 267              		.loc 1 123 0
 268 0004 0546     		mov	r5, r0
 269              		.cfi_offset 14, -4
 270              		.cfi_offset 8, -8
 271              		.cfi_offset 7, -12
 272              		.cfi_offset 6, -16
 273              		.cfi_offset 5, -20
 274              		.cfi_offset 4, -24
 275              		.loc 1 125 0
 276 0006 0068     		ldr	r0, [r0, #0]
 277              	.LVL20:
 278              		.loc 1 123 0
 279 0008 0C46     		mov	r4, r1
 280 000a 1646     		mov	r6, r2
ARM GAS  C:\Users\DNIEL~1\AppData\Local\Temp\ccFXxZfx.s 			page 6


 281 000c 9846     		mov	r8, r3
 282              		.loc 1 125 0
 283 000e A8B1     		cbz	r0, .L20
 284 0010 2F46     		mov	r7, r5
 285 0012 02E0     		b	.L19
 286              	.LVL21:
 287              	.L18:
 288 0014 57F8080F 		ldr	r0, [r7, #8]!
 289              	.LVL22:
 290 0018 68B1     		cbz	r0, .L22
 291              	.LVL23:
 292              	.L19:
 293              		.loc 1 126 0
 294 001a 3146     		mov	r1, r6
 295 001c FFF7FEFF 		bl	strcasecmp
 296 0020 0546     		mov	r5, r0
 297 0022 0028     		cmp	r0, #0
 298 0024 F6D1     		bne	.L18
 299              		.loc 1 127 0
 300 0026 2046     		mov	r0, r4
 301 0028 7E68     		ldr	r6, [r7, #4]
 302              	.LVL24:
 303 002a 4146     		mov	r1, r8
 304 002c 069A     		ldr	r2, [sp, #24]
 305 002e B047     		blx	r6
 306              		.loc 1 128 0
 307 0030 2846     		mov	r0, r5
 308 0032 BDE8F081 		pop	{r4, r5, r6, r7, r8, pc}
 309              	.LVL25:
 310              	.L22:
 311              		.loc 1 132 0
 312 0036 0120     		movs	r0, #1
 313 0038 BDE8F081 		pop	{r4, r5, r6, r7, r8, pc}
 314              	.LVL26:
 315              	.L20:
 316 003c 0120     		movs	r0, #1
 317              		.loc 1 133 0
 318 003e BDE8F081 		pop	{r4, r5, r6, r7, r8, pc}
 319              		.cfi_endproc
 320              	.LFE123:
 321              		.size	cmdexec, .-cmdexec
 322 0042 00BFAFF3 		.section	.text._strtok.clone.0,"ax",%progbits
 322      0080AFF3 
 322      0080AFF3 
 322      0080
 323              		.align	2
 324              		.p2align 4,,15
 325              		.thumb
 326              		.thumb_func
 327              		.type	_strtok.clone.0, %function
 328              	_strtok.clone.0:
 329              	.LFB129:
 330              		.loc 1 41 0
 331              		.cfi_startproc
 332              		@ args = 0, pretend = 0, frame = 0
 333              		@ frame_needed = 0, uses_anonymous_args = 0
 334              	.LVL27:
ARM GAS  C:\Users\DNIEL~1\AppData\Local\Temp\ccFXxZfx.s 			page 7


 335 0000 38B5     		push	{r3, r4, r5, lr}
 336              	.LCFI4:
 337              		.cfi_def_cfa_offset 16
 338              		.loc 1 43 0
 339 0002 0446     		mov	r4, r0
 340              		.cfi_offset 14, -4
 341              		.cfi_offset 5, -8
 342              		.cfi_offset 4, -12
 343              		.cfi_offset 3, -16
 344              		.loc 1 41 0
 345 0004 0D46     		mov	r5, r1
 346              		.loc 1 43 0
 347 0006 A8B1     		cbz	r0, .L24
 348              		.loc 1 44 0
 349 0008 0860     		str	r0, [r1, #0]
 350              	.LVL28:
 351              	.L25:
 352              		.loc 1 50 0
 353 000a 0D49     		ldr	r1, .L29
 354              	.LVL29:
 355 000c 2046     		mov	r0, r4
 356              	.LVL30:
 357 000e FFF7FEFF 		bl	strspn
 358 0012 2418     		adds	r4, r4, r0
 359              	.LVL31:
 360              		.loc 1 51 0
 361 0014 2046     		mov	r0, r4
 362 0016 2021     		movs	r1, #32
 363 0018 FFF7FEFF 		bl	strchr
 364 001c 2860     		str	r0, [r5, #0]
 365              		.loc 1 52 0
 366 001e 18B1     		cbz	r0, .L27
 367              		.loc 1 53 0
 368 0020 0023     		movs	r3, #0
 369 0022 00F8013B 		strb	r3, [r0], #1
 370 0026 2860     		str	r0, [r5, #0]
 371              	.L27:
 372              		.loc 1 55 0
 373 0028 2078     		ldrb	r0, [r4, #0]	@ zero_extendqisi2
 374 002a 0028     		cmp	r0, #0
 375 002c 14BF     		ite	ne
 376 002e 2046     		movne	r0, r4
 377 0030 0020     		moveq	r0, #0
 378 0032 38BD     		pop	{r3, r4, r5, pc}
 379              	.LVL32:
 380              	.L24:
 381              		.loc 1 45 0
 382 0034 0C68     		ldr	r4, [r1, #0]
 383              	.LVL33:
 384              		.loc 1 47 0
 385 0036 002C     		cmp	r4, #0
 386 0038 E7D1     		bne	.L25
 387              		.loc 1 48 0
 388 003a 2046     		mov	r0, r4
 389              	.LVL34:
 390              		.loc 1 56 0
 391 003c 38BD     		pop	{r3, r4, r5, pc}
ARM GAS  C:\Users\DNIEL~1\AppData\Local\Temp\ccFXxZfx.s 			page 8


 392              	.L30:
 393 003e 00BF     		.align	2
 394              	.L29:
 395 0040 00000000 		.word	.LANCHOR0
 396              		.cfi_endproc
 397              	.LFE129:
 398              		.size	_strtok.clone.0, .-_strtok.clone.0
 399 0044 AFF30080 		.section	.text.shellInit,"ax",%progbits
 399      AFF30080 
 399      AFF30080 
 400              		.align	2
 401              		.p2align 4,,15
 402              		.global	shellInit
 403              		.thumb
 404              		.thumb_func
 405              		.type	shellInit, %function
 406              	shellInit:
 407              	.LFB125:
 408              		.loc 1 208 0
 409              		.cfi_startproc
 410              		@ args = 0, pretend = 0, frame = 0
 411              		@ frame_needed = 0, uses_anonymous_args = 0
 412              		@ link register save eliminated.
 413              		.loc 1 210 0
 414 0000 014B     		ldr	r3, .L32
 415 0002 1B60     		str	r3, [r3, #0]
 416              		.loc 1 211 0
 417 0004 7047     		bx	lr
 418              	.L33:
 419 0006 00BF     		.align	2
 420              	.L32:
 421 0008 00000000 		.word	.LANCHOR1
 422              		.cfi_endproc
 423              	.LFE125:
 424              		.size	shellInit, .-shellInit
 425 000c AFF30080 		.section	.text.shellCreate,"ax",%progbits
 426              		.align	2
 427              		.p2align 4,,15
 428              		.global	shellCreate
 429              		.thumb
 430              		.thumb_func
 431              		.type	shellCreate, %function
 432              	shellCreate:
 433              	.LFB126:
 434              		.loc 1 224 0
 435              		.cfi_startproc
 436              		@ args = 0, pretend = 0, frame = 0
 437              		@ frame_needed = 0, uses_anonymous_args = 0
 438              	.LVL35:
 439 0000 00B5     		push	{lr}
 440              	.LCFI5:
 441              		.cfi_def_cfa_offset 4
 442 0002 83B0     		sub	sp, sp, #12
 443              	.LCFI6:
 444              		.cfi_def_cfa_offset 16
 445              		.loc 1 226 0
 446 0004 0090     		str	r0, [sp, #0]
ARM GAS  C:\Users\DNIEL~1\AppData\Local\Temp\ccFXxZfx.s 			page 9


 447 0006 034B     		ldr	r3, .L35
 448 0008 0020     		movs	r0, #0
 449              	.LVL36:
 450              		.cfi_offset 14, -4
 451 000a FFF7FEFF 		bl	chThdCreateFromHeap
 452              	.LVL37:
 453              		.loc 1 227 0
 454 000e 03B0     		add	sp, sp, #12
 455 0010 00BD     		pop	{pc}
 456              	.L36:
 457 0012 00BF     		.align	2
 458              	.L35:
 459 0014 00000000 		.word	shell_thread
 460              		.cfi_endproc
 461              	.LFE126:
 462              		.size	shellCreate, .-shellCreate
 463 0018 AFF30080 		.section	.text.shellCreateStatic,"ax",%progbits
 463      AFF30080 
 464              		.align	2
 465              		.p2align 4,,15
 466              		.global	shellCreateStatic
 467              		.thumb
 468              		.thumb_func
 469              		.type	shellCreateStatic, %function
 470              	shellCreateStatic:
 471              	.LFB127:
 472              		.loc 1 240 0
 473              		.cfi_startproc
 474              		@ args = 0, pretend = 0, frame = 0
 475              		@ frame_needed = 0, uses_anonymous_args = 0
 476              	.LVL38:
 477 0000 00B5     		push	{lr}
 478              	.LCFI7:
 479              		.cfi_def_cfa_offset 4
 480 0002 83B0     		sub	sp, sp, #12
 481              	.LCFI8:
 482              		.cfi_def_cfa_offset 16
 483              		.loc 1 242 0
 484 0004 0090     		str	r0, [sp, #0]
 485 0006 0846     		mov	r0, r1
 486              	.LVL39:
 487 0008 1146     		mov	r1, r2
 488              	.LVL40:
 489 000a 1A46     		mov	r2, r3
 490              	.LVL41:
 491 000c 024B     		ldr	r3, .L38
 492              	.LVL42:
 493              		.cfi_offset 14, -4
 494 000e FFF7FEFF 		bl	chThdCreateStatic
 495              	.LVL43:
 496              		.loc 1 243 0
 497 0012 03B0     		add	sp, sp, #12
 498 0014 00BD     		pop	{pc}
 499              	.L39:
 500 0016 00BF     		.align	2
 501              	.L38:
 502 0018 00000000 		.word	shell_thread
ARM GAS  C:\Users\DNIEL~1\AppData\Local\Temp\ccFXxZfx.s 			page 10


 503              		.cfi_endproc
 504              	.LFE127:
 505              		.size	shellCreateStatic, .-shellCreateStatic
 506 001c AFF30080 		.section	.text.shellGetLine,"ax",%progbits
 507              		.align	2
 508              		.p2align 4,,15
 509              		.global	shellGetLine
 510              		.thumb
 511              		.thumb_func
 512              		.type	shellGetLine, %function
 513              	shellGetLine:
 514              	.LFB128:
 515              		.loc 1 255 0
 516              		.cfi_startproc
 517              		@ args = 0, pretend = 0, frame = 8
 518              		@ frame_needed = 0, uses_anonymous_args = 0
 519              	.LVL44:
 520 0000 F0B5     		push	{r4, r5, r6, r7, lr}
 521              	.LCFI9:
 522              		.cfi_def_cfa_offset 20
 523              	.LBB19:
 524              		.loc 1 283 0
 525 0002 013A     		subs	r2, r2, #1
 526              	.LVL45:
 527              	.LBE19:
 528              		.loc 1 255 0
 529 0004 83B0     		sub	sp, sp, #12
 530              	.LCFI10:
 531              		.cfi_def_cfa_offset 32
 532              		.loc 1 255 0
 533 0006 0E46     		mov	r6, r1
 534              		.cfi_offset 14, -4
 535              		.cfi_offset 7, -8
 536              		.cfi_offset 6, -12
 537              		.cfi_offset 5, -16
 538              		.cfi_offset 4, -20
 539              	.LVL46:
 540 0008 0446     		mov	r4, r0
 541              		.loc 1 256 0
 542 000a 0D46     		mov	r5, r1
 543              	.LBB20:
 544              		.loc 1 283 0
 545 000c 8F18     		adds	r7, r1, r2
 546              	.LVL47:
 547              	.L50:
 548              		.loc 1 261 0
 549 000e 2068     		ldr	r0, [r4, #0]
 550 0010 0122     		movs	r2, #1
 551 0012 4368     		ldr	r3, [r0, #4]
 552 0014 0DF10701 		add	r1, sp, #7
 553 0018 2046     		mov	r0, r4
 554 001a 9847     		blx	r3
 555 001c E0B1     		cbz	r0, .L47
 556              	.L54:
 557              		.loc 1 263 0
 558 001e 9DF80710 		ldrb	r1, [sp, #7]	@ zero_extendqisi2
 559 0022 0429     		cmp	r1, #4
ARM GAS  C:\Users\DNIEL~1\AppData\Local\Temp\ccFXxZfx.s 			page 11


 560 0024 2ED0     		beq	.L51
 561              		.loc 1 267 0
 562 0026 0829     		cmp	r1, #8
 563 0028 19D0     		beq	.L52
 564              		.loc 1 276 0
 565 002a 0D29     		cmp	r1, #13
 566 002c 30D0     		beq	.L53
 567              		.loc 1 281 0
 568 002e 1F29     		cmp	r1, #31
 569 0030 EDD9     		bls	.L50
 570              		.loc 1 283 0
 571 0032 BD42     		cmp	r5, r7
 572 0034 EBD2     		bcs	.L50
 573              		.loc 1 284 0
 574 0036 2368     		ldr	r3, [r4, #0]
 575 0038 2046     		mov	r0, r4
 576 003a 9A68     		ldr	r2, [r3, #8]
 577 003c 9047     		blx	r2
 578              		.loc 1 285 0
 579 003e 9DF807C0 		ldrb	ip, [sp, #7]	@ zero_extendqisi2
 580              	.LVL48:
 581              		.loc 1 261 0
 582 0042 0122     		movs	r2, #1
 583              	.LVL49:
 584              		.loc 1 285 0
 585 0044 05F801CB 		strb	ip, [r5], #1
 586              	.LVL50:
 587              		.loc 1 261 0
 588 0048 2068     		ldr	r0, [r4, #0]
 589 004a 0DF10701 		add	r1, sp, #7
 590 004e 4368     		ldr	r3, [r0, #4]
 591 0050 2046     		mov	r0, r4
 592 0052 9847     		blx	r3
 593              	.LVL51:
 594 0054 0028     		cmp	r0, #0
 595 0056 E2D1     		bne	.L54
 596              	.LVL52:
 597              	.L47:
 598              		.loc 1 262 0
 599 0058 0120     		movs	r0, #1
 600              	.L42:
 601              	.LBE20:
 602              		.loc 1 288 0
 603 005a 03B0     		add	sp, sp, #12
 604 005c F0BD     		pop	{r4, r5, r6, r7, pc}
 605              	.L52:
 606              	.LBB21:
 607              		.loc 1 268 0
 608 005e B542     		cmp	r5, r6
 609 0060 D5D0     		beq	.L50
 610              		.loc 1 269 0
 611 0062 2368     		ldr	r3, [r4, #0]
 612 0064 2046     		mov	r0, r4
 613 0066 9A68     		ldr	r2, [r3, #8]
 614 0068 9047     		blx	r2
 615              		.loc 1 270 0
 616 006a 2068     		ldr	r0, [r4, #0]
ARM GAS  C:\Users\DNIEL~1\AppData\Local\Temp\ccFXxZfx.s 			page 12


 617 006c 2021     		movs	r1, #32
 618 006e 8368     		ldr	r3, [r0, #8]
 619 0070 2046     		mov	r0, r4
 620 0072 9847     		blx	r3
 621              		.loc 1 271 0
 622 0074 2168     		ldr	r1, [r4, #0]
 623 0076 2046     		mov	r0, r4
 624 0078 8A68     		ldr	r2, [r1, #8]
 625 007a 9DF80710 		ldrb	r1, [sp, #7]	@ zero_extendqisi2
 626 007e 9047     		blx	r2
 627              		.loc 1 272 0
 628 0080 013D     		subs	r5, r5, #1
 629              	.LVL53:
 630 0082 C4E7     		b	.L50
 631              	.L51:
 632              		.loc 1 264 0
 633 0084 2046     		mov	r0, r4
 634 0086 0649     		ldr	r1, .L55
 635 0088 FFF7FEFF 		bl	chprintf
 636              		.loc 1 265 0
 637 008c 0120     		movs	r0, #1
 638 008e E4E7     		b	.L42
 639              	.L53:
 640              		.loc 1 277 0
 641 0090 2046     		mov	r0, r4
 642 0092 0449     		ldr	r1, .L55+4
 643 0094 FFF7FEFF 		bl	chprintf
 644              		.loc 1 278 0
 645 0098 0020     		movs	r0, #0
 646 009a 2870     		strb	r0, [r5, #0]
 647              		.loc 1 279 0
 648 009c DDE7     		b	.L42
 649              	.L56:
 650 009e 00BF     		.align	2
 651              	.L55:
 652 00a0 58010000 		.word	.LC24
 653 00a4 5C010000 		.word	.LC25
 654              	.LBE21:
 655              		.cfi_endproc
 656              	.LFE128:
 657              		.size	shellGetLine, .-shellGetLine
 658              		.section	.text.shell_thread,"ax",%progbits
 659              		.align	2
 660              		.p2align 4,,15
 661              		.thumb
 662              		.thumb_func
 663              		.type	shell_thread, %function
 664              	shell_thread:
 665              	.LFB124:
 666              		.loc 1 143 0
 667              		.cfi_startproc
 668              		@ args = 0, pretend = 0, frame = 88
 669              		@ frame_needed = 0, uses_anonymous_args = 0
 670              	.LVL54:
 671 0000 2DE9F043 		push	{r4, r5, r6, r7, r8, r9, lr}
 672              	.LCFI11:
 673              		.cfi_def_cfa_offset 28
ARM GAS  C:\Users\DNIEL~1\AppData\Local\Temp\ccFXxZfx.s 			page 13


 674              		.loc 1 151 0
 675 0004 6549     		ldr	r1, .L79
 676              		.loc 1 146 0
 677 0006 0468     		ldr	r4, [r0, #0]
 678              		.cfi_offset 14, -4
 679              		.cfi_offset 9, -8
 680              		.cfi_offset 8, -12
 681              		.cfi_offset 7, -16
 682              		.cfi_offset 6, -20
 683              		.cfi_offset 5, -24
 684              		.cfi_offset 4, -28
 685              	.LVL55:
 686              		.loc 1 151 0
 687 0008 8B69     		ldr	r3, [r1, #24]
 688 000a 654A     		ldr	r2, .L79+4
 689              		.loc 1 147 0
 690 000c D0F80480 		ldr	r8, [r0, #4]
 691              	.LVL56:
 692              		.loc 1 143 0
 693 0010 99B0     		sub	sp, sp, #100
 694              	.LCFI12:
 695              		.cfi_def_cfa_offset 128
 696              		.loc 1 152 0
 697 0012 2046     		mov	r0, r4
 698              	.LVL57:
 699              		.loc 1 151 0
 700 0014 9A61     		str	r2, [r3, #24]
 701              		.loc 1 152 0
 702 0016 6349     		ldr	r1, .L79+8
 703 0018 FFF7FEFF 		bl	chprintf
 704              	.LVL58:
 705              		.loc 1 170 0
 706 001c 4FF00009 		mov	r9, #0
 707              	.L77:
 708              		.loc 1 154 0
 709 0020 2046     		mov	r0, r4
 710 0022 6149     		ldr	r1, .L79+12
 711 0024 FFF7FEFF 		bl	chprintf
 712              		.loc 1 155 0
 713 0028 2046     		mov	r0, r4
 714 002a 02A9     		add	r1, sp, #8
 715 002c 4022     		movs	r2, #64
 716 002e FFF7FEFF 		bl	shellGetLine
 717 0032 0646     		mov	r6, r0
 718 0034 0028     		cmp	r0, #0
 719 0036 3BD1     		bne	.L78
 720              	.L60:
 721              		.loc 1 159 0
 722 0038 17A9     		add	r1, sp, #92
 723 003a 02A8     		add	r0, sp, #8
 724 003c FFF7FEFF 		bl	_strtok.clone.0
 725              		.loc 1 162 0
 726 0040 17A9     		add	r1, sp, #92
 727              		.loc 1 159 0
 728 0042 0546     		mov	r5, r0
 729              	.LVL59:
 730              		.loc 1 162 0
ARM GAS  C:\Users\DNIEL~1\AppData\Local\Temp\ccFXxZfx.s 			page 14


 731 0044 3046     		mov	r0, r6
 732              	.LVL60:
 733 0046 FFF7FEFF 		bl	_strtok.clone.0
 734              	.LVL61:
 735 004a 0346     		mov	r3, r0
 736 004c 0028     		cmp	r0, #0
 737 004e 43D0     		beq	.L70
 738 0050 3046     		mov	r0, r6
 739              	.LVL62:
 740 0052 17A9     		add	r1, sp, #92
 741              		.loc 1 168 0
 742 0054 1293     		str	r3, [sp, #72]
 743              	.LVL63:
 744              		.loc 1 162 0
 745 0056 FFF7FEFF 		bl	_strtok.clone.0
 746              	.LVL64:
 747 005a 0346     		mov	r3, r0
 748 005c 0028     		cmp	r0, #0
 749 005e 5ED0     		beq	.L71
 750 0060 3046     		mov	r0, r6
 751              	.LVL65:
 752 0062 17A9     		add	r1, sp, #92
 753              		.loc 1 168 0
 754 0064 1393     		str	r3, [sp, #76]
 755              	.LVL66:
 756              		.loc 1 162 0
 757 0066 FFF7FEFF 		bl	_strtok.clone.0
 758              	.LVL67:
 759 006a 0346     		mov	r3, r0
 760 006c 0028     		cmp	r0, #0
 761 006e 58D0     		beq	.L72
 762 0070 3046     		mov	r0, r6
 763              	.LVL68:
 764 0072 17A9     		add	r1, sp, #92
 765              		.loc 1 168 0
 766 0074 1493     		str	r3, [sp, #80]
 767              	.LVL69:
 768              		.loc 1 162 0
 769 0076 FFF7FEFF 		bl	_strtok.clone.0
 770              	.LVL70:
 771 007a 0346     		mov	r3, r0
 772 007c 0028     		cmp	r0, #0
 773 007e 52D0     		beq	.L73
 774 0080 3046     		mov	r0, r6
 775              	.LVL71:
 776 0082 17A9     		add	r1, sp, #92
 777              		.loc 1 168 0
 778 0084 1593     		str	r3, [sp, #84]
 779              	.LVL72:
 780              		.loc 1 162 0
 781 0086 FFF7FEFF 		bl	_strtok.clone.0
 782              	.LVL73:
 783 008a 0028     		cmp	r0, #0
 784 008c 4DD0     		beq	.L74
 785              		.loc 1 164 0
 786 008e 2046     		mov	r0, r4
 787              	.LVL74:
ARM GAS  C:\Users\DNIEL~1\AppData\Local\Temp\ccFXxZfx.s 			page 15


 788 0090 4649     		ldr	r1, .L79+16
 789 0092 FFF7FEFF 		bl	chprintf
 790              	.LVL75:
 791              		.loc 1 154 0
 792 0096 2046     		mov	r0, r4
 793 0098 4349     		ldr	r1, .L79+12
 794              		.loc 1 170 0
 795 009a 1696     		str	r6, [sp, #88]
 796              		.loc 1 154 0
 797 009c FFF7FEFF 		bl	chprintf
 798              		.loc 1 155 0
 799 00a0 2046     		mov	r0, r4
 800 00a2 02A9     		add	r1, sp, #8
 801 00a4 4022     		movs	r2, #64
 802 00a6 FFF7FEFF 		bl	shellGetLine
 803 00aa 0646     		mov	r6, r0
 804 00ac 0028     		cmp	r0, #0
 805 00ae C3D0     		beq	.L60
 806              	.LVL76:
 807              	.L78:
 808              		.loc 1 156 0
 809 00b0 2046     		mov	r0, r4
 810 00b2 3F49     		ldr	r1, .L79+20
 811 00b4 FFF7FEFF 		bl	chprintf
 812              	.L61:
 813              	.LBB22:
 814              		.loc 1 199 0
 815 00b8 2023     		movs	r3, #32
 816              	.LVL77:
 817              	@ 199 "../../../ChibiOS/os/various/shell.c" 1
 818 00ba 83F31188 		msr     BASEPRI, r3
 819              	@ 0 "" 2
 820              	.LVL78:
 821              		.thumb
 822              	.LBE22:
 823 00be FFF7FEFF 		bl	dbg_check_lock
 824              	.LVL79:
 825              		.loc 1 200 0
 826 00c2 0021     		movs	r1, #0
 827 00c4 3B48     		ldr	r0, .L79+24
 828 00c6 FFF7FEFF 		bl	chEvtBroadcastFlagsI
 829              		.loc 1 201 0
 830 00ca 0020     		movs	r0, #0
 831 00cc FFF7FEFF 		bl	chThdExitS
 832              		.loc 1 203 0
 833 00d0 0020     		movs	r0, #0
 834 00d2 19B0     		add	sp, sp, #100
 835 00d4 BDE8F083 		pop	{r4, r5, r6, r7, r8, r9, pc}
 836              	.LVL80:
 837              	.L70:
 838              		.loc 1 161 0
 839 00d8 0646     		mov	r6, r0
 840              	.LVL81:
 841              	.L62:
 842              		.loc 1 170 0
 843 00da 0DF1600C 		add	ip, sp, #96
 844 00de 0CEB8600 		add	r0, ip, r6, lsl #2
ARM GAS  C:\Users\DNIEL~1\AppData\Local\Temp\ccFXxZfx.s 			page 16


 845              	.LVL82:
 846 00e2 40F8189C 		str	r9, [r0, #-24]
 847              		.loc 1 171 0
 848 00e6 002D     		cmp	r5, #0
 849 00e8 9AD0     		beq	.L77
 850              		.loc 1 172 0
 851 00ea 2846     		mov	r0, r5
 852 00ec 3249     		ldr	r1, .L79+28
 853 00ee FFF7FEFF 		bl	strcasecmp
 854 00f2 38B9     		cbnz	r0, .L64
 855              		.loc 1 173 0
 856 00f4 002E     		cmp	r6, #0
 857 00f6 DFD0     		beq	.L61
 858              	.LVL83:
 859              	.LBB23:
 860              	.LBB24:
 861              		.loc 1 60 0
 862 00f8 2046     		mov	r0, r4
 863 00fa 3049     		ldr	r1, .L79+32
 864 00fc 2E4A     		ldr	r2, .L79+28
 865 00fe FFF7FEFF 		bl	chprintf
 866              	.LBE24:
 867              	.LBE23:
 868              		.loc 1 175 0
 869 0102 8DE7     		b	.L77
 870              	.LVL84:
 871              	.L64:
 872              		.loc 1 179 0
 873 0104 2846     		mov	r0, r5
 874 0106 2E49     		ldr	r1, .L79+36
 875 0108 FFF7FEFF 		bl	strcasecmp
 876 010c 78B9     		cbnz	r0, .L66
 877              		.loc 1 180 0
 878 010e 002E     		cmp	r6, #0
 879 0110 30D0     		beq	.L67
 880              	.LVL85:
 881              	.LBB25:
 882              	.LBB26:
 883              		.loc 1 60 0
 884 0112 2046     		mov	r0, r4
 885 0114 2949     		ldr	r1, .L79+32
 886 0116 2A4A     		ldr	r2, .L79+36
 887 0118 FFF7FEFF 		bl	chprintf
 888              	.LBE26:
 889              	.LBE25:
 890              		.loc 1 182 0
 891 011c 80E7     		b	.L77
 892              	.LVL86:
 893              	.L71:
 894              		.loc 1 168 0
 895 011e 0126     		movs	r6, #1
 896 0120 DBE7     		b	.L62
 897              	.LVL87:
 898              	.L72:
 899 0122 0226     		movs	r6, #2
 900 0124 D9E7     		b	.L62
 901              	.LVL88:
ARM GAS  C:\Users\DNIEL~1\AppData\Local\Temp\ccFXxZfx.s 			page 17


 902              	.L73:
 903 0126 0326     		movs	r6, #3
 904 0128 D7E7     		b	.L62
 905              	.LVL89:
 906              	.L74:
 907              		.loc 1 162 0
 908 012a 0426     		movs	r6, #4
 909 012c D5E7     		b	.L62
 910              	.LVL90:
 911              	.L66:
 912              		.loc 1 190 0
 913 012e 12AF     		add	r7, sp, #72
 914 0130 2448     		ldr	r0, .L79+40
 915 0132 2146     		mov	r1, r4
 916 0134 2A46     		mov	r2, r5
 917 0136 3346     		mov	r3, r6
 918 0138 0097     		str	r7, [sp, #0]
 919 013a FFF7FEFF 		bl	cmdexec
 920 013e 0028     		cmp	r0, #0
 921 0140 3FF46EAF 		beq	.L77
 922              		.loc 1 190 0 is_stmt 0 discriminator 1
 923 0144 B8F1000F 		cmp	r8, #0
 924 0148 0AD0     		beq	.L69
 925              		.loc 1 191 0 is_stmt 1
 926 014a 3346     		mov	r3, r6
 927 014c 4046     		mov	r0, r8
 928 014e 12AE     		add	r6, sp, #72
 929 0150 2146     		mov	r1, r4
 930 0152 2A46     		mov	r2, r5
 931 0154 0096     		str	r6, [sp, #0]
 932 0156 FFF7FEFF 		bl	cmdexec
 933 015a 0028     		cmp	r0, #0
 934 015c 3FF460AF 		beq	.L77
 935              	.L69:
 936              		.loc 1 192 0
 937 0160 2046     		mov	r0, r4
 938 0162 1949     		ldr	r1, .L79+44
 939 0164 2A46     		mov	r2, r5
 940 0166 FFF7FEFF 		bl	chprintf
 941              		.loc 1 193 0
 942 016a 2046     		mov	r0, r4
 943 016c 1749     		ldr	r1, .L79+48
 944 016e FFF7FEFF 		bl	chprintf
 945 0172 55E7     		b	.L77
 946              	.L67:
 947              		.loc 1 184 0
 948 0174 1649     		ldr	r1, .L79+52
 949 0176 2046     		mov	r0, r4
 950 0178 FFF7FEFF 		bl	chprintf
 951              		.loc 1 185 0
 952 017c 2046     		mov	r0, r4
 953 017e 1149     		ldr	r1, .L79+40
 954 0180 FFF7FEFF 		bl	list_commands
 955              		.loc 1 186 0
 956 0184 B8F1000F 		cmp	r8, #0
 957 0188 03D0     		beq	.L68
 958              		.loc 1 187 0
ARM GAS  C:\Users\DNIEL~1\AppData\Local\Temp\ccFXxZfx.s 			page 18


 959 018a 2046     		mov	r0, r4
 960 018c 4146     		mov	r1, r8
 961 018e FFF7FEFF 		bl	list_commands
 962              	.L68:
 963              		.loc 1 188 0
 964 0192 2046     		mov	r0, r4
 965 0194 0F49     		ldr	r1, .L79+56
 966 0196 FFF7FEFF 		bl	chprintf
 967 019a 41E7     		b	.L77
 968              	.L80:
 969              		.align	2
 970              	.L79:
 971 019c 00000000 		.word	rlist
 972 01a0 60010000 		.word	.LC26
 973 01a4 68010000 		.word	.LC27
 974 01a8 80010000 		.word	.LC28
 975 01ac 94010000 		.word	.LC30
 976 01b0 88010000 		.word	.LC29
 977 01b4 00000000 		.word	.LANCHOR1
 978 01b8 AC010000 		.word	.LC31
 979 01bc 00000000 		.word	.LC0
 980 01c0 B4010000 		.word	.LC32
 981 01c4 00000000 		.word	.LANCHOR2
 982 01c8 D4010000 		.word	.LC34
 983 01cc D8010000 		.word	.LC35
 984 01d0 BC010000 		.word	.LC33
 985 01d4 5C010000 		.word	.LC25
 986              		.cfi_endproc
 987              	.LFE124:
 988              		.size	shell_thread, .-shell_thread
 989              		.global	shell_terminated
 990 01d8 AFF30080 		.section	.rodata
 990      AFF30080 
 991              		.align	2
 992              		.set	.LANCHOR0,. + 0
 993              	.LC23:
 994 0000 20003900 		.ascii	" \0009\000"
 995              		.section	.data.local_commands,"aw",%progbits
 996              		.align	2
 997              		.set	.LANCHOR2,. + 0
 998              		.type	local_commands, %object
 999              		.size	local_commands, 24
 1000              	local_commands:
 1001 0000 1C000000 		.word	.LC3
 1002 0004 00000000 		.word	cmd_info
 1003 0008 0C000000 		.word	.LC1
 1004 000c 00000000 		.word	cmd_systime
 1005 0010 00000000 		.word	0
 1006 0014 00000000 		.word	0
 1007              		.section	.rodata.str1.4,"aMS",%progbits,1
 1008              		.align	2
 1009              	.LC0:
 1010 0000 55736167 		.ascii	"Usage: %s\015\012\000"
 1010      653A2025 
 1010      730D0A00 
 1011              	.LC1:
 1012 000c 73797374 		.ascii	"systime\000"
ARM GAS  C:\Users\DNIEL~1\AppData\Local\Temp\ccFXxZfx.s 			page 19


 1012      696D6500 
 1013              	.LC2:
 1014 0014 256C750D 		.ascii	"%lu\015\012\000"
 1014      0A00
 1015 001a 0000     		.space	2
 1016              	.LC3:
 1017 001c 696E666F 		.ascii	"info\000"
 1017      00
 1018 0021 000000   		.space	3
 1019              	.LC4:
 1020 0024 4B65726E 		.ascii	"Kernel:       %s\015\012\000"
 1020      656C3A20 
 1020      20202020 
 1020      20202573 
 1020      0D0A00
 1021 0037 00       		.space	1
 1022              	.LC5:
 1023 0038 322E352E 		.ascii	"2.5.1unstable\000"
 1023      31756E73 
 1023      7461626C 
 1023      6500
 1024 0046 0000     		.space	2
 1025              	.LC6:
 1026 0048 436F6D70 		.ascii	"Compiler:     %s\015\012\000"
 1026      696C6572 
 1026      3A202020 
 1026      20202573 
 1026      0D0A00
 1027 005b 00       		.space	1
 1028              	.LC7:
 1029 005c 47434320 		.ascii	"GCC 4.5.2\000"
 1029      342E352E 
 1029      3200
 1030 0066 0000     		.space	2
 1031              	.LC8:
 1032 0068 41726368 		.ascii	"Architecture: %s\015\012\000"
 1032      69746563 
 1032      74757265 
 1032      3A202573 
 1032      0D0A00
 1033 007b 00       		.space	1
 1034              	.LC9:
 1035 007c 41524D76 		.ascii	"ARMv7-ME\000"
 1035      372D4D45 
 1035      00
 1036 0085 000000   		.space	3
 1037              	.LC10:
 1038 0088 436F7265 		.ascii	"Core Variant: %s\015\012\000"
 1038      20566172 
 1038      69616E74 
 1038      3A202573 
 1038      0D0A00
 1039 009b 00       		.space	1
 1040              	.LC11:
 1041 009c 436F7274 		.ascii	"Cortex-M4\000"
 1041      65782D4D 
 1041      3400
ARM GAS  C:\Users\DNIEL~1\AppData\Local\Temp\ccFXxZfx.s 			page 20


 1042 00a6 0000     		.space	2
 1043              	.LC12:
 1044 00a8 506F7274 		.ascii	"Port Info:    %s\015\012\000"
 1044      20496E66 
 1044      6F3A2020 
 1044      20202573 
 1044      0D0A00
 1045 00bb 00       		.space	1
 1046              	.LC13:
 1047 00bc 41647661 		.ascii	"Advanced kernel mode\000"
 1047      6E636564 
 1047      206B6572 
 1047      6E656C20 
 1047      6D6F6465 
 1048 00d1 000000   		.space	3
 1049              	.LC14:
 1050 00d4 506C6174 		.ascii	"Platform:     %s\015\012\000"
 1050      666F726D 
 1050      3A202020 
 1050      20202573 
 1050      0D0A00
 1051 00e7 00       		.space	1
 1052              	.LC15:
 1053 00e8 53544D33 		.ascii	"STM32F4xx High Performance\000"
 1053      32463478 
 1053      78204869 
 1053      67682050 
 1053      6572666F 
 1054 0103 00       		.space	1
 1055              	.LC16:
 1056 0104 426F6172 		.ascii	"Board:        %s\015\012\000"
 1056      643A2020 
 1056      20202020 
 1056      20202573 
 1056      0D0A00
 1057 0117 00       		.space	1
 1058              	.LC17:
 1059 0118 4D6F6475 		.ascii	"Modulux\000"
 1059      6C757800 
 1060              	.LC18:
 1061 0120 4275696C 		.ascii	"Build time:   %s%s%s\015\012\000"
 1061      64207469 
 1061      6D653A20 
 1061      20202573 
 1061      25732573 
 1062 0137 00       		.space	1
 1063              	.LC19:
 1064 0138 4D617220 		.ascii	"Mar 10 2015\000"
 1064      31302032 
 1064      30313500 
 1065              	.LC20:
 1066 0144 202D2000 		.ascii	" - \000"
 1067              	.LC21:
 1068 0148 31343A32 		.ascii	"14:21:37\000"
 1068      313A3337 
 1068      00
 1069 0151 000000   		.space	3
ARM GAS  C:\Users\DNIEL~1\AppData\Local\Temp\ccFXxZfx.s 			page 21


 1070              	.LC22:
 1071 0154 25732000 		.ascii	"%s \000"
 1072              	.LC24:
 1073 0158 5E4400   		.ascii	"^D\000"
 1074 015b 00       		.space	1
 1075              	.LC25:
 1076 015c 0D0A00   		.ascii	"\015\012\000"
 1077 015f 00       		.space	1
 1078              	.LC26:
 1079 0160 7368656C 		.ascii	"shell\000"
 1079      6C00
 1080 0166 0000     		.space	2
 1081              	.LC27:
 1082 0168 0D0A4368 		.ascii	"\015\012ChibiOS/RT Shell\015\012\000"
 1082      6962694F 
 1082      532F5254 
 1082      20536865 
 1082      6C6C0D0A 
 1083 017d 000000   		.space	3
 1084              	.LC28:
 1085 0180 63683E20 		.ascii	"ch> \000"
 1085      00
 1086 0185 000000   		.space	3
 1087              	.LC29:
 1088 0188 0D0A6C6F 		.ascii	"\015\012logout\000"
 1088      676F7574 
 1088      00
 1089 0191 000000   		.space	3
 1090              	.LC30:
 1091 0194 746F6F20 		.ascii	"too many arguments\015\012\000"
 1091      6D616E79 
 1091      20617267 
 1091      756D656E 
 1091      74730D0A 
 1092 01a9 000000   		.space	3
 1093              	.LC31:
 1094 01ac 65786974 		.ascii	"exit\000"
 1094      00
 1095 01b1 000000   		.space	3
 1096              	.LC32:
 1097 01b4 68656C70 		.ascii	"help\000"
 1097      00
 1098 01b9 000000   		.space	3
 1099              	.LC33:
 1100 01bc 436F6D6D 		.ascii	"Commands: help exit \000"
 1100      616E6473 
 1100      3A206865 
 1100      6C702065 
 1100      78697420 
 1101 01d1 000000   		.space	3
 1102              	.LC34:
 1103 01d4 257300   		.ascii	"%s\000"
 1104 01d7 00       		.space	1
 1105              	.LC35:
 1106 01d8 203F0D0A 		.ascii	" ?\015\012\000"
 1106      00
 1107 01dd 000000   		.section	.bss.shell_terminated,"aw",%nobits
ARM GAS  C:\Users\DNIEL~1\AppData\Local\Temp\ccFXxZfx.s 			page 22


 1108              		.align	2
 1109              		.set	.LANCHOR1,. + 0
 1110              		.type	shell_terminated, %object
 1111              		.size	shell_terminated, 4
 1112              	shell_terminated:
 1113 0000 00000000 		.space	4
 1114              		.text
 1115              	.Letext0: