ARM GAS  C:\Users\srich\AppData\Local\Temp\cc33TBfH.s 			page 1


   1              		.syntax unified
   2              		.cpu cortex-m4
   3              		.fpu softvfp
   4              		.eabi_attribute 20, 1
   5              		.eabi_attribute 21, 1
   6              		.eabi_attribute 23, 3
   7              		.eabi_attribute 24, 1
   8              		.eabi_attribute 25, 1
   9              		.eabi_attribute 26, 1
  10              		.eabi_attribute 30, 2
  11              		.eabi_attribute 34, 1
  12              		.eabi_attribute 18, 4
  13              		.thumb
  14              		.file	"spi_lld.c"
  15              		.text
  16              	.Ltext0:
  17              		.cfi_sections	.debug_frame
  18              		.section	.text.spi_lld_serve_tx_interrupt,"ax",%progbits
  19              		.align	2
  20              		.p2align 4,,15
  21              		.thumb
  22              		.thumb_func
  23              		.type	spi_lld_serve_tx_interrupt, %function
  24              	spi_lld_serve_tx_interrupt:
  25              	.LFB119:
  26              		.file 1 "c:\\ChibiStudio\\chibios/os/hal/platforms/STM32/SPIv1/spi_lld.c"
  27              		.loc 1 159 0
  28              		.cfi_startproc
  29              		@ args = 0, pretend = 0, frame = 0
  30              		@ frame_needed = 0, uses_anonymous_args = 0
  31              		@ link register save eliminated.
  32              	.LVL0:
  33              		.loc 1 164 0
  34 0000 11F00C0F 		tst	r1, #12
  35 0004 00D1     		bne	.L4
  36 0006 7047     		bx	lr
  37              	.L4:
  38              		.loc 1 171 0
  39              		.loc 1 165 0
  40 0008 FFF7FEBF 		b	port_halt
  41              	.LVL1:
  42              		.cfi_endproc
  43              	.LFE119:
  44              		.size	spi_lld_serve_tx_interrupt, .-spi_lld_serve_tx_interrupt
  45 000c AFF30080 		.section	.text.spi_lld_serve_rx_interrupt,"ax",%progbits
  46              		.align	2
  47              		.p2align 4,,15
  48              		.thumb
  49              		.thumb_func
  50              		.type	spi_lld_serve_rx_interrupt, %function
  51              	spi_lld_serve_rx_interrupt:
  52              	.LFB118:
  53              		.loc 1 133 0
  54              		.cfi_startproc
  55              		@ args = 0, pretend = 0, frame = 0
  56              		@ frame_needed = 0, uses_anonymous_args = 0
  57              	.LVL2:
ARM GAS  C:\Users\srich\AppData\Local\Temp\cc33TBfH.s 			page 2


  58              		.loc 1 137 0
  59 0000 11F00C0F 		tst	r1, #12
  60              		.loc 1 133 0
  61 0004 38B5     		push	{r3, r4, r5, lr}
  62              	.LCFI0:
  63              		.cfi_def_cfa_offset 16
  64              		.cfi_offset 3, -16
  65              		.cfi_offset 4, -12
  66              		.cfi_offset 5, -8
  67              		.cfi_offset 14, -4
  68              		.loc 1 133 0
  69 0006 0446     		mov	r4, r0
  70              		.loc 1 137 0
  71 0008 39D1     		bne	.L20
  72              	.LVL3:
  73              	.L6:
  74              		.loc 1 145 0
  75 000a 606A     		ldr	r0, [r4, #36]
  76 000c 0268     		ldr	r2, [r0, #0]
  77 000e 1368     		ldr	r3, [r2, #0]
  78 0010 23F01F01 		bic	r1, r3, #31
  79 0014 1160     		str	r1, [r2, #0]
  80              	.L7:
  81              		.loc 1 145 0 is_stmt 0 discriminator 1
  82 0016 1568     		ldr	r5, [r2, #0]
  83 0018 E907     		lsls	r1, r5, #31
  84 001a FCD4     		bmi	.L7
  85              		.loc 1 145 0 discriminator 2
  86 001c 057A     		ldrb	r5, [r0, #8]	@ zero_extendqisi2
  87              		.loc 1 146 0 is_stmt 1 discriminator 2
  88 001e 216A     		ldr	r1, [r4, #32]
  89              		.loc 1 145 0 discriminator 2
  90 0020 4368     		ldr	r3, [r0, #4]
  91              		.loc 1 146 0 discriminator 2
  92 0022 0A68     		ldr	r2, [r1, #0]
  93              		.loc 1 145 0 discriminator 2
  94 0024 3D20     		movs	r0, #61
  95 0026 00FA05F0 		lsl	r0, r0, r5
  96 002a 1860     		str	r0, [r3, #0]
  97              		.loc 1 146 0 discriminator 2
  98 002c 1368     		ldr	r3, [r2, #0]
  99 002e 23F01F00 		bic	r0, r3, #31
 100 0032 1060     		str	r0, [r2, #0]
 101              	.L8:
 102              		.loc 1 146 0 is_stmt 0 discriminator 1
 103 0034 1368     		ldr	r3, [r2, #0]
 104 0036 DB07     		lsls	r3, r3, #31
 105 0038 FCD4     		bmi	.L8
 106              		.loc 1 150 0 is_stmt 1 discriminator 2
 107 003a 6368     		ldr	r3, [r4, #4]
 108              		.loc 1 146 0 discriminator 2
 109 003c 087A     		ldrb	r0, [r1, #8]	@ zero_extendqisi2
 110 003e 4A68     		ldr	r2, [r1, #4]
 111              		.loc 1 150 0 discriminator 2
 112 0040 1B68     		ldr	r3, [r3, #0]
 113              		.loc 1 146 0 discriminator 2
 114 0042 3D21     		movs	r1, #61
ARM GAS  C:\Users\srich\AppData\Local\Temp\cc33TBfH.s 			page 3


 115 0044 01FA00F1 		lsl	r1, r1, r0
 116 0048 1160     		str	r1, [r2, #0]
 117              		.loc 1 150 0 discriminator 2
 118 004a ABB1     		cbz	r3, .L9
 119              		.loc 1 150 0 is_stmt 0 discriminator 1
 120 004c 0420     		movs	r0, #4
 121 004e 2070     		strb	r0, [r4, #0]
 122 0050 2046     		mov	r0, r4
 123 0052 9847     		blx	r3
 124              	.LVL4:
 125 0054 2278     		ldrb	r2, [r4, #0]	@ zero_extendqisi2
 126 0056 042A     		cmp	r2, #4
 127 0058 0ED0     		beq	.L9
 128              	.L10:
 129              	.LBB2:
 130              		.loc 1 150 0 discriminator 4
 131 005a 2023     		movs	r3, #32
 132              	.LVL5:
 133              	@ 150 "c:\ChibiStudio\chibios/os/hal/platforms/STM32/SPIv1/spi_lld.c" 1
 134 005c 83F31188 		msr     BASEPRI, r3
 135              	@ 0 "" 2
 136              	.LVL6:
 137              		.thumb
 138              	.LBE2:
 139 0060 A168     		ldr	r1, [r4, #8]
 140 0062 29B1     		cbz	r1, .L11
 141              	.LVL7:
 142              	.LBB3:
 143              		.loc 1 150 0 discriminator 5
 144 0064 0022     		movs	r2, #0
 145 0066 A260     		str	r2, [r4, #8]
 146 0068 0846     		mov	r0, r1
 147 006a 4A62     		str	r2, [r1, #36]
 148 006c FFF7FEFF 		bl	chSchReadyI
 149              	.LVL8:
 150              	.L11:
 151              	.LBE3:
 152              	.LBB4:
 153              		.loc 1 150 0 discriminator 6
 154 0070 0023     		movs	r3, #0
 155              	.LVL9:
 156              	@ 150 "c:\ChibiStudio\chibios/os/hal/platforms/STM32/SPIv1/spi_lld.c" 1
 157 0072 83F31188 		msr     BASEPRI, r3
 158              	@ 0 "" 2
 159              	.LVL10:
 160              		.thumb
 161 0076 38BD     		pop	{r3, r4, r5, pc}
 162              	.LVL11:
 163              	.L9:
 164              	.LBE4:
 165              		.loc 1 150 0 discriminator 2
 166 0078 0223     		movs	r3, #2
 167 007a 2370     		strb	r3, [r4, #0]
 168 007c EDE7     		b	.L10
 169              	.LVL12:
 170              	.L20:
 171              		.loc 1 138 0 is_stmt 1
ARM GAS  C:\Users\srich\AppData\Local\Temp\cc33TBfH.s 			page 4


 172 007e FFF7FEFF 		bl	port_halt
 173              	.LVL13:
 174 0082 C2E7     		b	.L6
 175              		.cfi_endproc
 176              	.LFE118:
 177              		.size	spi_lld_serve_rx_interrupt, .-spi_lld_serve_rx_interrupt
 178 0084 AFF30080 		.section	.text.spi_lld_init,"ax",%progbits
 178      AFF30080 
 178      AFF30080 
 179              		.align	2
 180              		.p2align 4,,15
 181              		.global	spi_lld_init
 182              		.thumb
 183              		.thumb_func
 184              		.type	spi_lld_init, %function
 185              	spi_lld_init:
 186              	.LFB120:
 187              		.loc 1 186 0
 188              		.cfi_startproc
 189              		@ args = 0, pretend = 0, frame = 0
 190              		@ frame_needed = 0, uses_anonymous_args = 0
 191 0000 38B5     		push	{r3, r4, r5, lr}
 192              	.LCFI1:
 193              		.cfi_def_cfa_offset 16
 194              		.cfi_offset 3, -16
 195              		.cfi_offset 4, -12
 196              		.cfi_offset 5, -8
 197              		.cfi_offset 14, -4
 198              		.loc 1 188 0
 199 0002 40F20003 		movw	r3, #:lower16:.LANCHOR0
 200              		.loc 1 209 0
 201 0006 40F20004 		movw	r4, #:lower16:.LANCHOR1
 202 000a C0F20004 		movt	r4, #:upper16:.LANCHOR1
 203              		.loc 1 188 0
 204 000e C0F20003 		movt	r3, #:upper16:.LANCHOR0
 205 0012 4FF6FF72 		movw	r2, #65535
 206              		.loc 1 209 0
 207 0016 2046     		mov	r0, r4
 208              		.loc 1 188 0
 209 0018 1A80     		strh	r2, [r3, #0]	@ movhi
 210              		.loc 1 209 0
 211 001a FFF7FEFF 		bl	spiObjectInit
 212              	.LVL14:
 213              		.loc 1 211 0
 214 001e 0949     		ldr	r1, .L22
 215              		.loc 1 210 0
 216 0020 4FF46050 		mov	r0, #14336
 217              		.loc 1 213 0
 218 0024 1622     		movs	r2, #22
 219              		.loc 1 219 0
 220 0026 4623     		movs	r3, #70
 221              		.loc 1 210 0
 222 0028 C4F20000 		movt	r0, 16384
 223              		.loc 1 212 0
 224 002c 01F10C05 		add	r5, r1, #12
 225              		.loc 1 213 0
 226 0030 C0F20102 		movt	r2, 1
ARM GAS  C:\Users\srich\AppData\Local\Temp\cc33TBfH.s 			page 5


 227              		.loc 1 219 0
 228 0034 C0F20103 		movt	r3, 1
 229              		.loc 1 210 0
 230 0038 E061     		str	r0, [r4, #28]
 231              		.loc 1 211 0
 232 003a 2162     		str	r1, [r4, #32]
 233              		.loc 1 212 0
 234 003c 6562     		str	r5, [r4, #36]
 235              		.loc 1 213 0
 236 003e A262     		str	r2, [r4, #40]
 237              		.loc 1 219 0
 238 0040 E362     		str	r3, [r4, #44]
 239 0042 38BD     		pop	{r3, r4, r5, pc}
 240              	.L23:
 241              		.align	2
 242              	.L22:
 243 0044 24000000 		.word	_stm32_dma_streams+36
 244              		.cfi_endproc
 245              	.LFE120:
 246              		.size	spi_lld_init, .-spi_lld_init
 247 0048 AFF30080 		.section	.text.spi_lld_start,"ax",%progbits
 247      AFF30080 
 248              		.align	2
 249              		.p2align 4,,15
 250              		.global	spi_lld_start
 251              		.thumb
 252              		.thumb_func
 253              		.type	spi_lld_start, %function
 254              	spi_lld_start:
 255              	.LFB121:
 256              		.loc 1 306 0
 257              		.cfi_startproc
 258              		@ args = 0, pretend = 0, frame = 0
 259              		@ frame_needed = 0, uses_anonymous_args = 0
 260              	.LVL15:
 261              		.loc 1 309 0
 262 0000 0378     		ldrb	r3, [r0, #0]	@ zero_extendqisi2
 263 0002 012B     		cmp	r3, #1
 264              		.loc 1 306 0
 265 0004 10B5     		push	{r4, lr}
 266              	.LCFI2:
 267              		.cfi_def_cfa_offset 8
 268              		.cfi_offset 4, -8
 269              		.cfi_offset 14, -4
 270              		.loc 1 306 0
 271 0006 0446     		mov	r4, r0
 272              		.loc 1 309 0
 273 0008 27D0     		beq	.L30
 274 000a C369     		ldr	r3, [r0, #28]
 275              	.LVL16:
 276              	.L25:
 277              		.loc 1 413 0
 278 000c 6068     		ldr	r0, [r4, #4]
 279 000e 4289     		ldrh	r2, [r0, #10]
 280              		.loc 1 416 0
 281 0010 A06A     		ldr	r0, [r4, #40]
 282              		.loc 1 413 0
ARM GAS  C:\Users\srich\AppData\Local\Temp\cc33TBfH.s 			page 6


 283 0012 02F40061 		and	r1, r2, #2048
 284 0016 89B2     		uxth	r1, r1
 285 0018 B9B1     		cbz	r1, .L31
 286              		.loc 1 424 0
 287 001a E16A     		ldr	r1, [r4, #44]
 288              		.loc 1 422 0
 289 001c 20F4F040 		bic	r0, r0, #30720
 290              		.loc 1 424 0
 291 0020 21F4F041 		bic	r1, r1, #30720
 292              		.loc 1 423 0
 293 0024 40F42050 		orr	r0, r0, #10240
 294              		.loc 1 425 0
 295 0028 41F42051 		orr	r1, r1, #10240
 296              		.loc 1 422 0
 297 002c A062     		str	r0, [r4, #40]
 298              		.loc 1 424 0
 299 002e E162     		str	r1, [r4, #44]
 300              	.L28:
 301              		.loc 1 429 0
 302 0030 42F44172 		orr	r2, r2, #772
 303              		.loc 1 428 0
 304 0034 0020     		movs	r0, #0
 305              		.loc 1 431 0
 306 0036 0721     		movs	r1, #7
 307              		.loc 1 428 0
 308 0038 1880     		strh	r0, [r3, #0]	@ movhi
 309              		.loc 1 429 0
 310 003a 1A80     		strh	r2, [r3, #0]	@ movhi
 311              		.loc 1 431 0
 312 003c 9980     		strh	r1, [r3, #4]	@ movhi
 313              		.loc 1 432 0
 314 003e 1A88     		ldrh	r2, [r3, #0]
 315 0040 90B2     		uxth	r0, r2
 316 0042 40F04001 		orr	r1, r0, #64
 317 0046 1980     		strh	r1, [r3, #0]	@ movhi
 318 0048 10BD     		pop	{r4, pc}
 319              	.L31:
 320              		.loc 1 418 0
 321 004a E16A     		ldr	r1, [r4, #44]
 322              		.loc 1 416 0
 323 004c 20F4F040 		bic	r0, r0, #30720
 324              		.loc 1 418 0
 325 0050 21F4F041 		bic	r1, r1, #30720
 326              		.loc 1 415 0
 327 0054 A062     		str	r0, [r4, #40]
 328              		.loc 1 417 0
 329 0056 E162     		str	r1, [r4, #44]
 330 0058 EAE7     		b	.L28
 331              	.LVL17:
 332              	.L30:
 333              		.loc 1 327 0
 334 005a 1148     		ldr	r0, .L33
 335              	.LVL18:
 336 005c 8442     		cmp	r4, r0
 337 005e 09D0     		beq	.L32
 338              	.L26:
 339              		.loc 1 408 0
ARM GAS  C:\Users\srich\AppData\Local\Temp\cc33TBfH.s 			page 7


 340 0060 206A     		ldr	r0, [r4, #32]
 341              		.loc 1 409 0
 342 0062 616A     		ldr	r1, [r4, #36]
 343              		.loc 1 408 0
 344 0064 E369     		ldr	r3, [r4, #28]
 345 0066 0068     		ldr	r0, [r0, #0]
 346              		.loc 1 409 0
 347 0068 0968     		ldr	r1, [r1, #0]
 348              		.loc 1 408 0
 349 006a 03F10C02 		add	r2, r3, #12
 350 006e 8260     		str	r2, [r0, #8]
 351              		.loc 1 409 0
 352 0070 8A60     		str	r2, [r1, #8]
 353 0072 CBE7     		b	.L25
 354              	.L32:
 355              	.LBB5:
 356              		.loc 1 329 0
 357 0074 0A21     		movs	r1, #10
 358 0076 0B4A     		ldr	r2, .L33+4
 359 0078 206A     		ldr	r0, [r4, #32]
 360 007a 2346     		mov	r3, r4
 361 007c FFF7FEFF 		bl	dmaStreamAllocate
 362              	.LVL19:
 363              		.loc 1 334 0
 364 0080 094A     		ldr	r2, .L33+8
 365 0082 606A     		ldr	r0, [r4, #36]
 366 0084 0A21     		movs	r1, #10
 367 0086 2346     		mov	r3, r4
 368 0088 FFF7FEFF 		bl	dmaStreamAllocate
 369              	.LVL20:
 370              		.loc 1 339 0
 371 008c 4FF46051 		mov	r1, #14336
 372 0090 C4F20201 		movt	r1, 16386
 373 0094 0A6C     		ldr	r2, [r1, #64]
 374 0096 42F48043 		orr	r3, r2, #16384
 375 009a 0B64     		str	r3, [r1, #64]
 376 009c E0E7     		b	.L26
 377              	.L34:
 378 009e 00BF     		.align	2
 379              	.L33:
 380 00a0 00000000 		.word	.LANCHOR1
 381 00a4 00000000 		.word	spi_lld_serve_rx_interrupt
 382 00a8 00000000 		.word	spi_lld_serve_tx_interrupt
 383              	.LBE5:
 384              		.cfi_endproc
 385              	.LFE121:
 386              		.size	spi_lld_start, .-spi_lld_start
 387 00ac AFF30080 		.section	.text.spi_lld_stop,"ax",%progbits
 388              		.align	2
 389              		.p2align 4,,15
 390              		.global	spi_lld_stop
 391              		.thumb
 392              		.thumb_func
 393              		.type	spi_lld_stop, %function
 394              	spi_lld_stop:
 395              	.LFB122:
 396              		.loc 1 442 0
ARM GAS  C:\Users\srich\AppData\Local\Temp\cc33TBfH.s 			page 8


 397              		.cfi_startproc
 398              		@ args = 0, pretend = 0, frame = 0
 399              		@ frame_needed = 0, uses_anonymous_args = 0
 400              	.LVL21:
 401              		.loc 1 445 0
 402 0000 0378     		ldrb	r3, [r0, #0]	@ zero_extendqisi2
 403 0002 022B     		cmp	r3, #2
 404              		.loc 1 442 0
 405 0004 10B5     		push	{r4, lr}
 406              	.LCFI3:
 407              		.cfi_def_cfa_offset 8
 408              		.cfi_offset 4, -8
 409              		.cfi_offset 14, -4
 410              		.loc 1 442 0
 411 0006 0446     		mov	r4, r0
 412              		.loc 1 445 0
 413 0008 00D0     		beq	.L39
 414              	.LVL22:
 415              	.L35:
 416 000a 10BD     		pop	{r4, pc}
 417              	.LVL23:
 418              	.L39:
 419              		.loc 1 448 0
 420 000c C169     		ldr	r1, [r0, #28]
 421              		.loc 1 450 0
 422 000e 006A     		ldr	r0, [r0, #32]
 423              	.LVL24:
 424              		.loc 1 448 0
 425 0010 0022     		movs	r2, #0
 426 0012 0A80     		strh	r2, [r1, #0]	@ movhi
 427              		.loc 1 449 0
 428 0014 8A80     		strh	r2, [r1, #4]	@ movhi
 429              		.loc 1 450 0
 430 0016 FFF7FEFF 		bl	dmaStreamRelease
 431              	.LVL25:
 432              		.loc 1 451 0
 433 001a 606A     		ldr	r0, [r4, #36]
 434 001c FFF7FEFF 		bl	dmaStreamRelease
 435              	.LVL26:
 436              		.loc 1 458 0
 437 0020 0548     		ldr	r0, .L40
 438 0022 8442     		cmp	r4, r0
 439 0024 F1D1     		bne	.L35
 440              		.loc 1 459 0
 441 0026 4FF46053 		mov	r3, #14336
 442 002a C4F20203 		movt	r3, 16386
 443 002e 196C     		ldr	r1, [r3, #64]
 444 0030 21F48042 		bic	r2, r1, #16384
 445 0034 1A64     		str	r2, [r3, #64]
 446 0036 E8E7     		b	.L35
 447              	.L41:
 448              		.align	2
 449              	.L40:
 450 0038 00000000 		.word	.LANCHOR1
 451              		.cfi_endproc
 452              	.LFE122:
 453              		.size	spi_lld_stop, .-spi_lld_stop
ARM GAS  C:\Users\srich\AppData\Local\Temp\cc33TBfH.s 			page 9


 454 003c AFF30080 		.section	.text.spi_lld_select,"ax",%progbits
 455              		.align	2
 456              		.p2align 4,,15
 457              		.global	spi_lld_select
 458              		.thumb
 459              		.thumb_func
 460              		.type	spi_lld_select, %function
 461              	spi_lld_select:
 462              	.LFB123:
 463              		.loc 1 487 0
 464              		.cfi_startproc
 465              		@ args = 0, pretend = 0, frame = 0
 466              		@ frame_needed = 0, uses_anonymous_args = 0
 467              		@ link register save eliminated.
 468              	.LVL27:
 469              		.loc 1 489 0
 470 0000 4368     		ldr	r3, [r0, #4]
 471 0002 1A89     		ldrh	r2, [r3, #8]
 472 0004 5868     		ldr	r0, [r3, #4]
 473              	.LVL28:
 474 0006 0121     		movs	r1, #1
 475 0008 01FA02F3 		lsl	r3, r1, r2
 476 000c 9AB2     		uxth	r2, r3
 477 000e 4283     		strh	r2, [r0, #26]	@ movhi
 478 0010 7047     		bx	lr
 479              		.cfi_endproc
 480              	.LFE123:
 481              		.size	spi_lld_select, .-spi_lld_select
 482 0012 00BFAFF3 		.section	.text.spi_lld_unselect,"ax",%progbits
 482      0080AFF3 
 482      0080AFF3 
 482      0080
 483              		.align	2
 484              		.p2align 4,,15
 485              		.global	spi_lld_unselect
 486              		.thumb
 487              		.thumb_func
 488              		.type	spi_lld_unselect, %function
 489              	spi_lld_unselect:
 490              	.LFB124:
 491              		.loc 1 500 0
 492              		.cfi_startproc
 493              		@ args = 0, pretend = 0, frame = 0
 494              		@ frame_needed = 0, uses_anonymous_args = 0
 495              		@ link register save eliminated.
 496              	.LVL29:
 497              		.loc 1 502 0
 498 0000 4368     		ldr	r3, [r0, #4]
 499 0002 1A89     		ldrh	r2, [r3, #8]
 500 0004 5868     		ldr	r0, [r3, #4]
 501              	.LVL30:
 502 0006 0121     		movs	r1, #1
 503 0008 01FA02F3 		lsl	r3, r1, r2
 504 000c 9AB2     		uxth	r2, r3
 505 000e 0283     		strh	r2, [r0, #24]	@ movhi
 506 0010 7047     		bx	lr
 507              		.cfi_endproc
ARM GAS  C:\Users\srich\AppData\Local\Temp\cc33TBfH.s 			page 10


 508              	.LFE124:
 509              		.size	spi_lld_unselect, .-spi_lld_unselect
 510 0012 00BFAFF3 		.section	.text.spi_lld_ignore,"ax",%progbits
 510      0080AFF3 
 510      0080AFF3 
 510      0080
 511              		.align	2
 512              		.p2align 4,,15
 513              		.global	spi_lld_ignore
 514              		.thumb
 515              		.thumb_func
 516              		.type	spi_lld_ignore, %function
 517              	spi_lld_ignore:
 518              	.LFB125:
 519              		.loc 1 516 0
 520              		.cfi_startproc
 521              		@ args = 0, pretend = 0, frame = 0
 522              		@ frame_needed = 0, uses_anonymous_args = 0
 523              		@ link register save eliminated.
 524              	.LVL31:
 525              		.loc 1 518 0
 526 0000 026A     		ldr	r2, [r0, #32]
 527              		.loc 1 522 0
 528 0002 436A     		ldr	r3, [r0, #36]
 529              		.loc 1 518 0
 530 0004 1268     		ldr	r2, [r2, #0]
 531              		.loc 1 522 0
 532 0006 1B68     		ldr	r3, [r3, #0]
 533              		.loc 1 516 0
 534 0008 70B4     		push	{r4, r5, r6}
 535              	.LCFI4:
 536              		.cfi_def_cfa_offset 12
 537              		.cfi_offset 4, -12
 538              		.cfi_offset 5, -8
 539              		.cfi_offset 6, -4
 540              		.loc 1 520 0
 541 000a 866A     		ldr	r6, [r0, #40]
 542              		.loc 1 524 0
 543 000c C56A     		ldr	r5, [r0, #44]
 544              		.loc 1 518 0
 545 000e 40F20004 		movw	r4, #:lower16:.LANCHOR2
 546              		.loc 1 522 0
 547 0012 40F20000 		movw	r0, #:lower16:.LANCHOR0
 548              	.LVL32:
 549 0016 C0F20000 		movt	r0, #:upper16:.LANCHOR0
 550              		.loc 1 518 0
 551 001a C0F20004 		movt	r4, #:upper16:.LANCHOR2
 552 001e D460     		str	r4, [r2, #12]
 553              		.loc 1 519 0
 554 0020 5160     		str	r1, [r2, #4]
 555              		.loc 1 520 0
 556 0022 1660     		str	r6, [r2, #0]
 557              		.loc 1 522 0
 558 0024 D860     		str	r0, [r3, #12]
 559              		.loc 1 523 0
 560 0026 5960     		str	r1, [r3, #4]
 561              		.loc 1 524 0
ARM GAS  C:\Users\srich\AppData\Local\Temp\cc33TBfH.s 			page 11


 562 0028 1D60     		str	r5, [r3, #0]
 563              		.loc 1 526 0
 564 002a 1168     		ldr	r1, [r2, #0]
 565              	.LVL33:
 566 002c 41F00100 		orr	r0, r1, #1
 567 0030 1060     		str	r0, [r2, #0]
 568              		.loc 1 527 0
 569 0032 1A68     		ldr	r2, [r3, #0]
 570              	.LVL34:
 571 0034 42F00101 		orr	r1, r2, #1
 572 0038 1960     		str	r1, [r3, #0]
 573              		.loc 1 528 0
 574 003a 70BC     		pop	{r4, r5, r6}
 575 003c 7047     		bx	lr
 576              		.cfi_endproc
 577              	.LFE125:
 578              		.size	spi_lld_ignore, .-spi_lld_ignore
 579 003e 00BF     		.section	.text.spi_lld_exchange,"ax",%progbits
 580              		.align	2
 581              		.p2align 4,,15
 582              		.global	spi_lld_exchange
 583              		.thumb
 584              		.thumb_func
 585              		.type	spi_lld_exchange, %function
 586              	spi_lld_exchange:
 587              	.LFB126:
 588              		.loc 1 546 0
 589              		.cfi_startproc
 590              		@ args = 0, pretend = 0, frame = 0
 591              		@ frame_needed = 0, uses_anonymous_args = 0
 592              		@ link register save eliminated.
 593              	.LVL35:
 594 0000 F0B4     		push	{r4, r5, r6, r7}
 595              	.LCFI5:
 596              		.cfi_def_cfa_offset 16
 597              		.cfi_offset 4, -16
 598              		.cfi_offset 5, -12
 599              		.cfi_offset 6, -8
 600              		.cfi_offset 7, -4
 601              		.loc 1 548 0
 602 0002 046A     		ldr	r4, [r0, #32]
 603              		.loc 1 552 0
 604 0004 476A     		ldr	r7, [r0, #36]
 605              		.loc 1 550 0
 606 0006 866A     		ldr	r6, [r0, #40]
 607              		.loc 1 554 0
 608 0008 C56A     		ldr	r5, [r0, #44]
 609              		.loc 1 548 0
 610 000a 2468     		ldr	r4, [r4, #0]
 611              		.loc 1 552 0
 612 000c 3868     		ldr	r0, [r7, #0]
 613              	.LVL36:
 614              		.loc 1 548 0
 615 000e E360     		str	r3, [r4, #12]
 616              		.loc 1 550 0
 617 0010 46F48066 		orr	r6, r6, #1024
 618              		.loc 1 554 0
ARM GAS  C:\Users\srich\AppData\Local\Temp\cc33TBfH.s 			page 12


 619 0014 45F48065 		orr	r5, r5, #1024
 620              		.loc 1 549 0
 621 0018 6160     		str	r1, [r4, #4]
 622              		.loc 1 550 0
 623 001a 2660     		str	r6, [r4, #0]
 624              		.loc 1 552 0
 625 001c C260     		str	r2, [r0, #12]
 626              		.loc 1 553 0
 627 001e 4160     		str	r1, [r0, #4]
 628              		.loc 1 554 0
 629 0020 0560     		str	r5, [r0, #0]
 630              		.loc 1 556 0
 631 0022 2368     		ldr	r3, [r4, #0]
 632              	.LVL37:
 633 0024 43F00101 		orr	r1, r3, #1
 634              	.LVL38:
 635 0028 2160     		str	r1, [r4, #0]
 636              		.loc 1 557 0
 637 002a 0268     		ldr	r2, [r0, #0]
 638              	.LVL39:
 639 002c 42F00103 		orr	r3, r2, #1
 640 0030 0360     		str	r3, [r0, #0]
 641              		.loc 1 558 0
 642 0032 F0BC     		pop	{r4, r5, r6, r7}
 643 0034 7047     		bx	lr
 644              		.cfi_endproc
 645              	.LFE126:
 646              		.size	spi_lld_exchange, .-spi_lld_exchange
 647 0036 00BFAFF3 		.section	.text.spi_lld_send,"ax",%progbits
 647      0080AFF3 
 647      0080
 648              		.align	2
 649              		.p2align 4,,15
 650              		.global	spi_lld_send
 651              		.thumb
 652              		.thumb_func
 653              		.type	spi_lld_send, %function
 654              	spi_lld_send:
 655              	.LFB127:
 656              		.loc 1 573 0
 657              		.cfi_startproc
 658              		@ args = 0, pretend = 0, frame = 0
 659              		@ frame_needed = 0, uses_anonymous_args = 0
 660              		@ link register save eliminated.
 661              	.LVL40:
 662 0000 F0B4     		push	{r4, r5, r6, r7}
 663              	.LCFI6:
 664              		.cfi_def_cfa_offset 16
 665              		.cfi_offset 4, -16
 666              		.cfi_offset 5, -12
 667              		.cfi_offset 6, -8
 668              		.cfi_offset 7, -4
 669              		.loc 1 575 0
 670 0002 036A     		ldr	r3, [r0, #32]
 671              		.loc 1 579 0
 672 0004 476A     		ldr	r7, [r0, #36]
 673              		.loc 1 581 0
ARM GAS  C:\Users\srich\AppData\Local\Temp\cc33TBfH.s 			page 13


 674 0006 C66A     		ldr	r6, [r0, #44]
 675              		.loc 1 575 0
 676 0008 1C68     		ldr	r4, [r3, #0]
 677              		.loc 1 577 0
 678 000a 806A     		ldr	r0, [r0, #40]
 679              	.LVL41:
 680              		.loc 1 579 0
 681 000c 3B68     		ldr	r3, [r7, #0]
 682              		.loc 1 575 0
 683 000e 40F20005 		movw	r5, #:lower16:.LANCHOR2
 684 0012 C0F20005 		movt	r5, #:upper16:.LANCHOR2
 685              		.loc 1 581 0
 686 0016 46F48066 		orr	r6, r6, #1024
 687              		.loc 1 575 0
 688 001a E560     		str	r5, [r4, #12]
 689              		.loc 1 576 0
 690 001c 6160     		str	r1, [r4, #4]
 691              		.loc 1 577 0
 692 001e 2060     		str	r0, [r4, #0]
 693              		.loc 1 579 0
 694 0020 DA60     		str	r2, [r3, #12]
 695              		.loc 1 580 0
 696 0022 5960     		str	r1, [r3, #4]
 697              		.loc 1 581 0
 698 0024 1E60     		str	r6, [r3, #0]
 699              		.loc 1 583 0
 700 0026 2268     		ldr	r2, [r4, #0]
 701              	.LVL42:
 702 0028 42F00101 		orr	r1, r2, #1
 703              	.LVL43:
 704 002c 2160     		str	r1, [r4, #0]
 705              		.loc 1 584 0
 706 002e 1868     		ldr	r0, [r3, #0]
 707 0030 40F00102 		orr	r2, r0, #1
 708 0034 1A60     		str	r2, [r3, #0]
 709              		.loc 1 585 0
 710 0036 F0BC     		pop	{r4, r5, r6, r7}
 711 0038 7047     		bx	lr
 712              		.cfi_endproc
 713              	.LFE127:
 714              		.size	spi_lld_send, .-spi_lld_send
 715 003a 00BFAFF3 		.section	.text.spi_lld_receive,"ax",%progbits
 715      0080
 716              		.align	2
 717              		.p2align 4,,15
 718              		.global	spi_lld_receive
 719              		.thumb
 720              		.thumb_func
 721              		.type	spi_lld_receive, %function
 722              	spi_lld_receive:
 723              	.LFB128:
 724              		.loc 1 600 0
 725              		.cfi_startproc
 726              		@ args = 0, pretend = 0, frame = 0
 727              		@ frame_needed = 0, uses_anonymous_args = 0
 728              		@ link register save eliminated.
 729              	.LVL44:
ARM GAS  C:\Users\srich\AppData\Local\Temp\cc33TBfH.s 			page 14


 730 0000 70B4     		push	{r4, r5, r6}
 731              	.LCFI7:
 732              		.cfi_def_cfa_offset 12
 733              		.cfi_offset 4, -12
 734              		.cfi_offset 5, -8
 735              		.cfi_offset 6, -4
 736              		.loc 1 606 0
 737 0002 436A     		ldr	r3, [r0, #36]
 738              		.loc 1 602 0
 739 0004 046A     		ldr	r4, [r0, #32]
 740              		.loc 1 604 0
 741 0006 866A     		ldr	r6, [r0, #40]
 742              		.loc 1 602 0
 743 0008 2468     		ldr	r4, [r4, #0]
 744              		.loc 1 606 0
 745 000a 1B68     		ldr	r3, [r3, #0]
 746              		.loc 1 608 0
 747 000c C06A     		ldr	r0, [r0, #44]
 748              	.LVL45:
 749              		.loc 1 602 0
 750 000e E260     		str	r2, [r4, #12]
 751              		.loc 1 606 0
 752 0010 40F20005 		movw	r5, #:lower16:.LANCHOR0
 753              		.loc 1 604 0
 754 0014 46F48066 		orr	r6, r6, #1024
 755              		.loc 1 606 0
 756 0018 C0F20005 		movt	r5, #:upper16:.LANCHOR0
 757              		.loc 1 603 0
 758 001c 6160     		str	r1, [r4, #4]
 759              		.loc 1 604 0
 760 001e 2660     		str	r6, [r4, #0]
 761              		.loc 1 606 0
 762 0020 DD60     		str	r5, [r3, #12]
 763              		.loc 1 607 0
 764 0022 5960     		str	r1, [r3, #4]
 765              		.loc 1 608 0
 766 0024 1860     		str	r0, [r3, #0]
 767              		.loc 1 610 0
 768 0026 2268     		ldr	r2, [r4, #0]
 769              	.LVL46:
 770 0028 42F00101 		orr	r1, r2, #1
 771              	.LVL47:
 772 002c 2160     		str	r1, [r4, #0]
 773              		.loc 1 611 0
 774 002e 1868     		ldr	r0, [r3, #0]
 775 0030 40F00102 		orr	r2, r0, #1
 776 0034 1A60     		str	r2, [r3, #0]
 777              		.loc 1 612 0
 778 0036 70BC     		pop	{r4, r5, r6}
 779 0038 7047     		bx	lr
 780              		.cfi_endproc
 781              	.LFE128:
 782              		.size	spi_lld_receive, .-spi_lld_receive
 783 003a 00BFAFF3 		.section	.text.spi_lld_polled_exchange,"ax",%progbits
 783      0080
 784              		.align	2
 785              		.p2align 4,,15
ARM GAS  C:\Users\srich\AppData\Local\Temp\cc33TBfH.s 			page 15


 786              		.global	spi_lld_polled_exchange
 787              		.thumb
 788              		.thumb_func
 789              		.type	spi_lld_polled_exchange, %function
 790              	spi_lld_polled_exchange:
 791              	.LFB129:
 792              		.loc 1 626 0
 793              		.cfi_startproc
 794              		@ args = 0, pretend = 0, frame = 0
 795              		@ frame_needed = 0, uses_anonymous_args = 0
 796              		@ link register save eliminated.
 797              	.LVL48:
 798              		.loc 1 628 0
 799 0000 C269     		ldr	r2, [r0, #28]
 800 0002 9181     		strh	r1, [r2, #12]	@ movhi
 801              	.L49:
 802              		.loc 1 629 0 discriminator 1
 803 0004 1389     		ldrh	r3, [r2, #8]
 804 0006 DB07     		lsls	r3, r3, #31
 805 0008 FCD5     		bpl	.L49
 806              		.loc 1 631 0
 807 000a 9089     		ldrh	r0, [r2, #12]
 808              	.LVL49:
 809              		.loc 1 632 0
 810 000c 80B2     		uxth	r0, r0
 811 000e 7047     		bx	lr
 812              		.cfi_endproc
 813              	.LFE129:
 814              		.size	spi_lld_polled_exchange, .-spi_lld_polled_exchange
 815              		.global	SPID2
 816              		.section	.bss.dummytx,"aw",%nobits
 817              		.align	1
 818              		.set	.LANCHOR0,. + 0
 819              		.type	dummytx, %object
 820              		.size	dummytx, 2
 821              	dummytx:
 822 0000 0000     		.space	2
 823              		.section	.bss.SPID2,"aw",%nobits
 824              		.align	2
 825              		.set	.LANCHOR1,. + 0
 826              		.type	SPID2, %object
 827              		.size	SPID2, 48
 828              	SPID2:
 829 0000 00000000 		.space	48
 829      00000000 
 829      00000000 
 829      00000000 
 829      00000000 
 830              		.section	.bss.dummyrx,"aw",%nobits
 831              		.align	1
 832              		.set	.LANCHOR2,. + 0
 833              		.type	dummyrx, %object
 834              		.size	dummyrx, 2
 835              	dummyrx:
 836 0000 0000     		.space	2
 837              		.text
 838              	.Letext0:
ARM GAS  C:\Users\srich\AppData\Local\Temp\cc33TBfH.s 			page 16


 839              		.file 2 "c:\\chibistudio\\tools\\gnu tools arm embedded\\4.7 2014q2\\bin\\../lib/gcc/arm-none-eabi
 840              		.file 3 "c:\\chibistudio\\tools\\gnu tools arm embedded\\4.7 2014q2\\bin\\../lib/gcc/arm-none-eabi
 841              		.file 4 "c:\\ChibiStudio\\chibios/os/ports/GCC/ARMCMx/chtypes.h"
 842              		.file 5 "c:\\ChibiStudio\\chibios/os/kernel/include/chlists.h"
 843              		.file 6 "c:\\ChibiStudio\\chibios/os/kernel/include/chthreads.h"
 844              		.file 7 "c:\\ChibiStudio\\chibios/os/ports/GCC/ARMCMx/chcore_v7m.h"
 845              		.file 8 "c:\\ChibiStudio\\chibios/os/kernel/include/chmtx.h"
 846              		.file 9 "c:\\ChibiStudio\\chibios/os/hal/platforms/STM32F4xx/stm32f4xx.h"
 847              		.file 10 "c:\\ChibiStudio\\chibios/os/hal/platforms/STM32F4xx/stm32_dma.h"
 848              		.file 11 "c:\\ChibiStudio\\chibios/os/hal/platforms/STM32/GPIOv2/pal_lld.h"
 849              		.file 12 "c:\\ChibiStudio\\chibios/os/hal/include/spi.h"
 850              		.file 13 "c:\\ChibiStudio\\chibios/os/hal/platforms/STM32/SPIv1/spi_lld.h"
 851              		.file 14 "c:\\ChibiStudio\\chibios/os/ports/common/ARMCMx/CMSIS/include/core_cm4.h"
 852              		.file 15 "c:\\ChibiStudio\\chibios/os/kernel/include/chschd.h"