ARM GAS  C:\Users\DNIEL~1\AppData\Local\Temp\cc49VrPb.s 			page 1


   1              		.syntax unified
   2              		.cpu cortex-m3
   3              		.fpu softvfp
   4              		.eabi_attribute 20, 1
   5              		.eabi_attribute 21, 1
   6              		.eabi_attribute 23, 3
   7              		.eabi_attribute 24, 1
   8              		.eabi_attribute 25, 1
   9              		.eabi_attribute 26, 1
  10              		.eabi_attribute 30, 2
  11              		.eabi_attribute 18, 4
  12              		.thumb
  13              		.file	"stm32_dma.c"
  20 0000 E4030000 		.text
  20      02006901 
  20      00000201 
  20      FB0E0D00 
  20      01010101 
  21              	.Ltext0:
  22              		.cfi_sections	.debug_frame
  23              		.section	.text.Vector6C,"ax",%progbits
  24              		.align	2
  25              		.p2align 4,,15
  26              		.global	Vector6C
  27              		.thumb
  28              		.thumb_func
  29              		.type	Vector6C, %function
  30              	Vector6C:
  31              	.LFB118:
  32              		.file 1 "../../../ChibiOS/os/hal/platforms/STM32F4xx/stm32_dma.c"
  33              		.loc 1 132 0
  34              		.cfi_startproc
  35              		@ args = 0, pretend = 0, frame = 0
  36              		@ frame_needed = 0, uses_anonymous_args = 0
  37 0000 10B5     		push	{r4, lr}
  38              	.LCFI0:
  39              		.cfi_def_cfa_offset 8
  40              		.loc 1 135 0
  41              		.cfi_offset 14, -4
  42              		.cfi_offset 4, -8
  43 0002 FFF7FEFF 		bl	dbg_check_enter_isr
  44              		.loc 1 139 0
  45 0006 0848     		ldr	r0, .L4
  46              		.loc 1 137 0
  47 0008 084A     		ldr	r2, .L4+4
  48              		.loc 1 139 0
  49 000a 0368     		ldr	r3, [r0, #0]
  50              		.loc 1 138 0
  51 000c 3D24     		movs	r4, #61
  52              		.loc 1 137 0
  53 000e 1168     		ldr	r1, [r2, #0]
ARM GAS  C:\Users\DNIEL~1\AppData\Local\Temp\cc49VrPb.s 			page 2


  54              	.LVL0:
  55              		.loc 1 138 0
  56 0010 9460     		str	r4, [r2, #8]
  57              		.loc 1 139 0
  58 0012 13B1     		cbz	r3, .L2
  59              		.loc 1 140 0
  60 0014 4068     		ldr	r0, [r0, #4]
  61 0016 2140     		ands	r1, r1, r4
  62              	.LVL1:
  63 0018 9847     		blx	r3
  64              	.LVL2:
  65              	.L2:
  66              		.loc 1 142 0
  67 001a FFF7FEFF 		bl	dbg_check_leave_isr
  68              		.loc 1 143 0
  69 001e BDE81040 		pop	{r4, lr}
  70              		.loc 1 142 0
  71 0022 FFF7FEBF 		b	_port_irq_epilogue
  72              	.L5:
  73 0026 00BF     		.align	2
  74              	.L4:
  75 0028 00000000 		.word	.LANCHOR0
  76 002c 00600240 		.word	1073897472
  77              		.cfi_endproc
  78              	.LFE118:
  79              		.size	Vector6C, .-Vector6C
  80              		.section	.text.Vector70,"ax",%progbits
  81              		.align	2
  82              		.p2align 4,,15
  83              		.global	Vector70
  84              		.thumb
  85              		.thumb_func
  86              		.type	Vector70, %function
  87              	Vector70:
  88              	.LFB119:
  89              		.loc 1 150 0
  90              		.cfi_startproc
  91              		@ args = 0, pretend = 0, frame = 0
  92              		@ frame_needed = 0, uses_anonymous_args = 0
  93 0000 10B5     		push	{r4, lr}
  94              	.LCFI1:
  95              		.cfi_def_cfa_offset 8
  96              		.loc 1 153 0
  97              		.cfi_offset 14, -4
  98              		.cfi_offset 4, -8
  99 0002 FFF7FEFF 		bl	dbg_check_enter_isr
 100              		.loc 1 157 0
 101 0006 0948     		ldr	r0, .L8
 102              		.loc 1 155 0
 103 0008 094A     		ldr	r2, .L8+4
 104              		.loc 1 157 0
 105 000a 8368     		ldr	r3, [r0, #8]
 106              		.loc 1 156 0
 107 000c 4FF47464 		mov	r4, #3904
 108              		.loc 1 155 0
 109 0010 1168     		ldr	r1, [r2, #0]
 110              	.LVL3:
ARM GAS  C:\Users\DNIEL~1\AppData\Local\Temp\cc49VrPb.s 			page 3


 111              		.loc 1 156 0
 112 0012 9460     		str	r4, [r2, #8]
 113              		.loc 1 157 0
 114 0014 23B1     		cbz	r3, .L7
 115              		.loc 1 155 0
 116 0016 8909     		lsrs	r1, r1, #6
 117              	.LVL4:
 118              		.loc 1 158 0
 119 0018 C068     		ldr	r0, [r0, #12]
 120 001a 01F03D01 		and	r1, r1, #61
 121              	.LVL5:
 122 001e 9847     		blx	r3
 123              	.L7:
 124              		.loc 1 160 0
 125 0020 FFF7FEFF 		bl	dbg_check_leave_isr
 126              		.loc 1 161 0
 127 0024 BDE81040 		pop	{r4, lr}
 128              		.loc 1 160 0
 129 0028 FFF7FEBF 		b	_port_irq_epilogue
 130              	.L9:
 131              		.align	2
 132              	.L8:
 133 002c 00000000 		.word	.LANCHOR0
 134 0030 00600240 		.word	1073897472
 135              		.cfi_endproc
 136              	.LFE119:
 137              		.size	Vector70, .-Vector70
 138 0034 AFF30080 		.section	.text.Vector74,"ax",%progbits
 138      AFF30080 
 138      AFF30080 
 139              		.align	2
 140              		.p2align 4,,15
 141              		.global	Vector74
 142              		.thumb
 143              		.thumb_func
 144              		.type	Vector74, %function
 145              	Vector74:
 146              	.LFB120:
 147              		.loc 1 168 0
 148              		.cfi_startproc
 149              		@ args = 0, pretend = 0, frame = 0
 150              		@ frame_needed = 0, uses_anonymous_args = 0
 151 0000 10B5     		push	{r4, lr}
 152              	.LCFI2:
 153              		.cfi_def_cfa_offset 8
 154              		.loc 1 171 0
 155              		.cfi_offset 14, -4
 156              		.cfi_offset 4, -8
 157 0002 FFF7FEFF 		bl	dbg_check_enter_isr
 158              		.loc 1 175 0
 159 0006 0948     		ldr	r0, .L12
 160              		.loc 1 173 0
 161 0008 094A     		ldr	r2, .L12+4
 162              		.loc 1 175 0
 163 000a 0369     		ldr	r3, [r0, #16]
 164              		.loc 1 174 0
 165 000c 4FF47414 		mov	r4, #3997696
ARM GAS  C:\Users\DNIEL~1\AppData\Local\Temp\cc49VrPb.s 			page 4


 166              		.loc 1 173 0
 167 0010 1168     		ldr	r1, [r2, #0]
 168              	.LVL6:
 169              		.loc 1 174 0
 170 0012 9460     		str	r4, [r2, #8]
 171              		.loc 1 175 0
 172 0014 23B1     		cbz	r3, .L11
 173              		.loc 1 173 0
 174 0016 090C     		lsrs	r1, r1, #16
 175              	.LVL7:
 176              		.loc 1 176 0
 177 0018 4069     		ldr	r0, [r0, #20]
 178 001a 01F03D01 		and	r1, r1, #61
 179              	.LVL8:
 180 001e 9847     		blx	r3
 181              	.L11:
 182              		.loc 1 178 0
 183 0020 FFF7FEFF 		bl	dbg_check_leave_isr
 184              		.loc 1 179 0
 185 0024 BDE81040 		pop	{r4, lr}
 186              		.loc 1 178 0
 187 0028 FFF7FEBF 		b	_port_irq_epilogue
 188              	.L13:
 189              		.align	2
 190              	.L12:
 191 002c 00000000 		.word	.LANCHOR0
 192 0030 00600240 		.word	1073897472
 193              		.cfi_endproc
 194              	.LFE120:
 195              		.size	Vector74, .-Vector74
 196 0034 AFF30080 		.section	.text.Vector78,"ax",%progbits
 196      AFF30080 
 196      AFF30080 
 197              		.align	2
 198              		.p2align 4,,15
 199              		.global	Vector78
 200              		.thumb
 201              		.thumb_func
 202              		.type	Vector78, %function
 203              	Vector78:
 204              	.LFB121:
 205              		.loc 1 186 0
 206              		.cfi_startproc
 207              		@ args = 0, pretend = 0, frame = 0
 208              		@ frame_needed = 0, uses_anonymous_args = 0
 209 0000 10B5     		push	{r4, lr}
 210              	.LCFI3:
 211              		.cfi_def_cfa_offset 8
 212              		.loc 1 189 0
 213              		.cfi_offset 14, -4
 214              		.cfi_offset 4, -8
 215 0002 FFF7FEFF 		bl	dbg_check_enter_isr
 216              		.loc 1 193 0
 217 0006 0948     		ldr	r0, .L16
 218              		.loc 1 191 0
 219 0008 094A     		ldr	r2, .L16+4
 220              		.loc 1 193 0
ARM GAS  C:\Users\DNIEL~1\AppData\Local\Temp\cc49VrPb.s 			page 5


 221 000a 8369     		ldr	r3, [r0, #24]
 222              		.loc 1 192 0
 223 000c 4FF07464 		mov	r4, #255852544
 224              		.loc 1 191 0
 225 0010 1168     		ldr	r1, [r2, #0]
 226              	.LVL9:
 227              		.loc 1 192 0
 228 0012 9460     		str	r4, [r2, #8]
 229              		.loc 1 193 0
 230 0014 23B1     		cbz	r3, .L15
 231              		.loc 1 191 0
 232 0016 890D     		lsrs	r1, r1, #22
 233              	.LVL10:
 234              		.loc 1 194 0
 235 0018 C069     		ldr	r0, [r0, #28]
 236 001a 01F03D01 		and	r1, r1, #61
 237              	.LVL11:
 238 001e 9847     		blx	r3
 239              	.L15:
 240              		.loc 1 196 0
 241 0020 FFF7FEFF 		bl	dbg_check_leave_isr
 242              		.loc 1 197 0
 243 0024 BDE81040 		pop	{r4, lr}
 244              		.loc 1 196 0
 245 0028 FFF7FEBF 		b	_port_irq_epilogue
 246              	.L17:
 247              		.align	2
 248              	.L16:
 249 002c 00000000 		.word	.LANCHOR0
 250 0030 00600240 		.word	1073897472
 251              		.cfi_endproc
 252              	.LFE121:
 253              		.size	Vector78, .-Vector78
 254 0034 AFF30080 		.section	.text.Vector7C,"ax",%progbits
 254      AFF30080 
 254      AFF30080 
 255              		.align	2
 256              		.p2align 4,,15
 257              		.global	Vector7C
 258              		.thumb
 259              		.thumb_func
 260              		.type	Vector7C, %function
 261              	Vector7C:
 262              	.LFB122:
 263              		.loc 1 204 0
 264              		.cfi_startproc
 265              		@ args = 0, pretend = 0, frame = 0
 266              		@ frame_needed = 0, uses_anonymous_args = 0
 267 0000 10B5     		push	{r4, lr}
 268              	.LCFI4:
 269              		.cfi_def_cfa_offset 8
 270              		.loc 1 207 0
 271              		.cfi_offset 14, -4
 272              		.cfi_offset 4, -8
 273 0002 FFF7FEFF 		bl	dbg_check_enter_isr
 274              		.loc 1 211 0
 275 0006 0848     		ldr	r0, .L20
ARM GAS  C:\Users\DNIEL~1\AppData\Local\Temp\cc49VrPb.s 			page 6


 276              		.loc 1 209 0
 277 0008 084A     		ldr	r2, .L20+4
 278              		.loc 1 211 0
 279 000a 036A     		ldr	r3, [r0, #32]
 280              		.loc 1 210 0
 281 000c 3D24     		movs	r4, #61
 282              		.loc 1 209 0
 283 000e 5168     		ldr	r1, [r2, #4]
 284              	.LVL12:
 285              		.loc 1 210 0
 286 0010 D460     		str	r4, [r2, #12]
 287              		.loc 1 211 0
 288 0012 13B1     		cbz	r3, .L19
 289              		.loc 1 212 0
 290 0014 406A     		ldr	r0, [r0, #36]
 291 0016 2140     		ands	r1, r1, r4
 292              	.LVL13:
 293 0018 9847     		blx	r3
 294              	.LVL14:
 295              	.L19:
 296              		.loc 1 214 0
 297 001a FFF7FEFF 		bl	dbg_check_leave_isr
 298              		.loc 1 215 0
 299 001e BDE81040 		pop	{r4, lr}
 300              		.loc 1 214 0
 301 0022 FFF7FEBF 		b	_port_irq_epilogue
 302              	.L21:
 303 0026 00BF     		.align	2
 304              	.L20:
 305 0028 00000000 		.word	.LANCHOR0
 306 002c 00600240 		.word	1073897472
 307              		.cfi_endproc
 308              	.LFE122:
 309              		.size	Vector7C, .-Vector7C
 310              		.section	.text.Vector80,"ax",%progbits
 311              		.align	2
 312              		.p2align 4,,15
 313              		.global	Vector80
 314              		.thumb
 315              		.thumb_func
 316              		.type	Vector80, %function
 317              	Vector80:
 318              	.LFB123:
 319              		.loc 1 222 0
 320              		.cfi_startproc
 321              		@ args = 0, pretend = 0, frame = 0
 322              		@ frame_needed = 0, uses_anonymous_args = 0
 323 0000 10B5     		push	{r4, lr}
 324              	.LCFI5:
 325              		.cfi_def_cfa_offset 8
 326              		.loc 1 225 0
 327              		.cfi_offset 14, -4
 328              		.cfi_offset 4, -8
 329 0002 FFF7FEFF 		bl	dbg_check_enter_isr
 330              		.loc 1 229 0
 331 0006 0948     		ldr	r0, .L24
 332              		.loc 1 227 0
ARM GAS  C:\Users\DNIEL~1\AppData\Local\Temp\cc49VrPb.s 			page 7


 333 0008 094A     		ldr	r2, .L24+4
 334              		.loc 1 229 0
 335 000a 836A     		ldr	r3, [r0, #40]
 336              		.loc 1 228 0
 337 000c 4FF47464 		mov	r4, #3904
 338              		.loc 1 227 0
 339 0010 5168     		ldr	r1, [r2, #4]
 340              	.LVL15:
 341              		.loc 1 228 0
 342 0012 D460     		str	r4, [r2, #12]
 343              		.loc 1 229 0
 344 0014 23B1     		cbz	r3, .L23
 345              		.loc 1 227 0
 346 0016 8909     		lsrs	r1, r1, #6
 347              	.LVL16:
 348              		.loc 1 230 0
 349 0018 C06A     		ldr	r0, [r0, #44]
 350 001a 01F03D01 		and	r1, r1, #61
 351              	.LVL17:
 352 001e 9847     		blx	r3
 353              	.L23:
 354              		.loc 1 232 0
 355 0020 FFF7FEFF 		bl	dbg_check_leave_isr
 356              		.loc 1 233 0
 357 0024 BDE81040 		pop	{r4, lr}
 358              		.loc 1 232 0
 359 0028 FFF7FEBF 		b	_port_irq_epilogue
 360              	.L25:
 361              		.align	2
 362              	.L24:
 363 002c 00000000 		.word	.LANCHOR0
 364 0030 00600240 		.word	1073897472
 365              		.cfi_endproc
 366              	.LFE123:
 367              		.size	Vector80, .-Vector80
 368 0034 AFF30080 		.section	.text.Vector84,"ax",%progbits
 368      AFF30080 
 368      AFF30080 
 369              		.align	2
 370              		.p2align 4,,15
 371              		.global	Vector84
 372              		.thumb
 373              		.thumb_func
 374              		.type	Vector84, %function
 375              	Vector84:
 376              	.LFB124:
 377              		.loc 1 240 0
 378              		.cfi_startproc
 379              		@ args = 0, pretend = 0, frame = 0
 380              		@ frame_needed = 0, uses_anonymous_args = 0
 381 0000 10B5     		push	{r4, lr}
 382              	.LCFI6:
 383              		.cfi_def_cfa_offset 8
 384              		.loc 1 243 0
 385              		.cfi_offset 14, -4
 386              		.cfi_offset 4, -8
 387 0002 FFF7FEFF 		bl	dbg_check_enter_isr
ARM GAS  C:\Users\DNIEL~1\AppData\Local\Temp\cc49VrPb.s 			page 8


 388              		.loc 1 247 0
 389 0006 0948     		ldr	r0, .L28
 390              		.loc 1 245 0
 391 0008 094A     		ldr	r2, .L28+4
 392              		.loc 1 247 0
 393 000a 036B     		ldr	r3, [r0, #48]
 394              		.loc 1 246 0
 395 000c 4FF47414 		mov	r4, #3997696
 396              		.loc 1 245 0
 397 0010 5168     		ldr	r1, [r2, #4]
 398              	.LVL18:
 399              		.loc 1 246 0
 400 0012 D460     		str	r4, [r2, #12]
 401              		.loc 1 247 0
 402 0014 23B1     		cbz	r3, .L27
 403              		.loc 1 245 0
 404 0016 090C     		lsrs	r1, r1, #16
 405              	.LVL19:
 406              		.loc 1 248 0
 407 0018 406B     		ldr	r0, [r0, #52]
 408 001a 01F03D01 		and	r1, r1, #61
 409              	.LVL20:
 410 001e 9847     		blx	r3
 411              	.L27:
 412              		.loc 1 250 0
 413 0020 FFF7FEFF 		bl	dbg_check_leave_isr
 414              		.loc 1 251 0
 415 0024 BDE81040 		pop	{r4, lr}
 416              		.loc 1 250 0
 417 0028 FFF7FEBF 		b	_port_irq_epilogue
 418              	.L29:
 419              		.align	2
 420              	.L28:
 421 002c 00000000 		.word	.LANCHOR0
 422 0030 00600240 		.word	1073897472
 423              		.cfi_endproc
 424              	.LFE124:
 425              		.size	Vector84, .-Vector84
 426 0034 AFF30080 		.section	.text.VectorFC,"ax",%progbits
 426      AFF30080 
 426      AFF30080 
 427              		.align	2
 428              		.p2align 4,,15
 429              		.global	VectorFC
 430              		.thumb
 431              		.thumb_func
 432              		.type	VectorFC, %function
 433              	VectorFC:
 434              	.LFB125:
 435              		.loc 1 258 0
 436              		.cfi_startproc
 437              		@ args = 0, pretend = 0, frame = 0
 438              		@ frame_needed = 0, uses_anonymous_args = 0
 439 0000 10B5     		push	{r4, lr}
 440              	.LCFI7:
 441              		.cfi_def_cfa_offset 8
 442              		.loc 1 261 0
ARM GAS  C:\Users\DNIEL~1\AppData\Local\Temp\cc49VrPb.s 			page 9


 443              		.cfi_offset 14, -4
 444              		.cfi_offset 4, -8
 445 0002 FFF7FEFF 		bl	dbg_check_enter_isr
 446              		.loc 1 265 0
 447 0006 0948     		ldr	r0, .L32
 448              		.loc 1 263 0
 449 0008 094A     		ldr	r2, .L32+4
 450              		.loc 1 265 0
 451 000a 836B     		ldr	r3, [r0, #56]
 452              		.loc 1 264 0
 453 000c 4FF07464 		mov	r4, #255852544
 454              		.loc 1 263 0
 455 0010 5168     		ldr	r1, [r2, #4]
 456              	.LVL21:
 457              		.loc 1 264 0
 458 0012 D460     		str	r4, [r2, #12]
 459              		.loc 1 265 0
 460 0014 23B1     		cbz	r3, .L31
 461              		.loc 1 263 0
 462 0016 890D     		lsrs	r1, r1, #22
 463              	.LVL22:
 464              		.loc 1 266 0
 465 0018 C06B     		ldr	r0, [r0, #60]
 466 001a 01F03D01 		and	r1, r1, #61
 467              	.LVL23:
 468 001e 9847     		blx	r3
 469              	.L31:
 470              		.loc 1 268 0
 471 0020 FFF7FEFF 		bl	dbg_check_leave_isr
 472              		.loc 1 269 0
 473 0024 BDE81040 		pop	{r4, lr}
 474              		.loc 1 268 0
 475 0028 FFF7FEBF 		b	_port_irq_epilogue
 476              	.L33:
 477              		.align	2
 478              	.L32:
 479 002c 00000000 		.word	.LANCHOR0
 480 0030 00600240 		.word	1073897472
 481              		.cfi_endproc
 482              	.LFE125:
 483              		.size	VectorFC, .-VectorFC
 484 0034 AFF30080 		.section	.text.Vector120,"ax",%progbits
 484      AFF30080 
 484      AFF30080 
 485              		.align	2
 486              		.p2align 4,,15
 487              		.global	Vector120
 488              		.thumb
 489              		.thumb_func
 490              		.type	Vector120, %function
 491              	Vector120:
 492              	.LFB126:
 493              		.loc 1 276 0
 494              		.cfi_startproc
 495              		@ args = 0, pretend = 0, frame = 0
 496              		@ frame_needed = 0, uses_anonymous_args = 0
 497 0000 10B5     		push	{r4, lr}
ARM GAS  C:\Users\DNIEL~1\AppData\Local\Temp\cc49VrPb.s 			page 10


 498              	.LCFI8:
 499              		.cfi_def_cfa_offset 8
 500              		.loc 1 279 0
 501              		.cfi_offset 14, -4
 502              		.cfi_offset 4, -8
 503 0002 FFF7FEFF 		bl	dbg_check_enter_isr
 504              		.loc 1 283 0
 505 0006 0848     		ldr	r0, .L36
 506              		.loc 1 281 0
 507 0008 084A     		ldr	r2, .L36+4
 508              		.loc 1 283 0
 509 000a 036C     		ldr	r3, [r0, #64]
 510              		.loc 1 282 0
 511 000c 3D24     		movs	r4, #61
 512              		.loc 1 281 0
 513 000e 1168     		ldr	r1, [r2, #0]
 514              	.LVL24:
 515              		.loc 1 282 0
 516 0010 9460     		str	r4, [r2, #8]
 517              		.loc 1 283 0
 518 0012 13B1     		cbz	r3, .L35
 519              		.loc 1 284 0
 520 0014 406C     		ldr	r0, [r0, #68]
 521 0016 2140     		ands	r1, r1, r4
 522              	.LVL25:
 523 0018 9847     		blx	r3
 524              	.LVL26:
 525              	.L35:
 526              		.loc 1 286 0
 527 001a FFF7FEFF 		bl	dbg_check_leave_isr
 528              		.loc 1 287 0
 529 001e BDE81040 		pop	{r4, lr}
 530              		.loc 1 286 0
 531 0022 FFF7FEBF 		b	_port_irq_epilogue
 532              	.L37:
 533 0026 00BF     		.align	2
 534              	.L36:
 535 0028 00000000 		.word	.LANCHOR0
 536 002c 00640240 		.word	1073898496
 537              		.cfi_endproc
 538              	.LFE126:
 539              		.size	Vector120, .-Vector120
 540              		.section	.text.Vector124,"ax",%progbits
 541              		.align	2
 542              		.p2align 4,,15
 543              		.global	Vector124
 544              		.thumb
 545              		.thumb_func
 546              		.type	Vector124, %function
 547              	Vector124:
 548              	.LFB127:
 549              		.loc 1 294 0
 550              		.cfi_startproc
 551              		@ args = 0, pretend = 0, frame = 0
 552              		@ frame_needed = 0, uses_anonymous_args = 0
 553 0000 10B5     		push	{r4, lr}
 554              	.LCFI9:
ARM GAS  C:\Users\DNIEL~1\AppData\Local\Temp\cc49VrPb.s 			page 11


 555              		.cfi_def_cfa_offset 8
 556              		.loc 1 297 0
 557              		.cfi_offset 14, -4
 558              		.cfi_offset 4, -8
 559 0002 FFF7FEFF 		bl	dbg_check_enter_isr
 560              		.loc 1 301 0
 561 0006 0948     		ldr	r0, .L40
 562              		.loc 1 299 0
 563 0008 094A     		ldr	r2, .L40+4
 564              		.loc 1 301 0
 565 000a 836C     		ldr	r3, [r0, #72]
 566              		.loc 1 300 0
 567 000c 4FF47464 		mov	r4, #3904
 568              		.loc 1 299 0
 569 0010 1168     		ldr	r1, [r2, #0]
 570              	.LVL27:
 571              		.loc 1 300 0
 572 0012 9460     		str	r4, [r2, #8]
 573              		.loc 1 301 0
 574 0014 23B1     		cbz	r3, .L39
 575              		.loc 1 299 0
 576 0016 8909     		lsrs	r1, r1, #6
 577              	.LVL28:
 578              		.loc 1 302 0
 579 0018 C06C     		ldr	r0, [r0, #76]
 580 001a 01F03D01 		and	r1, r1, #61
 581              	.LVL29:
 582 001e 9847     		blx	r3
 583              	.L39:
 584              		.loc 1 304 0
 585 0020 FFF7FEFF 		bl	dbg_check_leave_isr
 586              		.loc 1 305 0
 587 0024 BDE81040 		pop	{r4, lr}
 588              		.loc 1 304 0
 589 0028 FFF7FEBF 		b	_port_irq_epilogue
 590              	.L41:
 591              		.align	2
 592              	.L40:
 593 002c 00000000 		.word	.LANCHOR0
 594 0030 00640240 		.word	1073898496
 595              		.cfi_endproc
 596              	.LFE127:
 597              		.size	Vector124, .-Vector124
 598 0034 AFF30080 		.section	.text.Vector128,"ax",%progbits
 598      AFF30080 
 598      AFF30080 
 599              		.align	2
 600              		.p2align 4,,15
 601              		.global	Vector128
 602              		.thumb
 603              		.thumb_func
 604              		.type	Vector128, %function
 605              	Vector128:
 606              	.LFB128:
 607              		.loc 1 312 0
 608              		.cfi_startproc
 609              		@ args = 0, pretend = 0, frame = 0
ARM GAS  C:\Users\DNIEL~1\AppData\Local\Temp\cc49VrPb.s 			page 12


 610              		@ frame_needed = 0, uses_anonymous_args = 0
 611 0000 10B5     		push	{r4, lr}
 612              	.LCFI10:
 613              		.cfi_def_cfa_offset 8
 614              		.loc 1 315 0
 615              		.cfi_offset 14, -4
 616              		.cfi_offset 4, -8
 617 0002 FFF7FEFF 		bl	dbg_check_enter_isr
 618              		.loc 1 319 0
 619 0006 0948     		ldr	r0, .L44
 620              		.loc 1 317 0
 621 0008 094A     		ldr	r2, .L44+4
 622              		.loc 1 319 0
 623 000a 036D     		ldr	r3, [r0, #80]
 624              		.loc 1 318 0
 625 000c 4FF47414 		mov	r4, #3997696
 626              		.loc 1 317 0
 627 0010 1168     		ldr	r1, [r2, #0]
 628              	.LVL30:
 629              		.loc 1 318 0
 630 0012 9460     		str	r4, [r2, #8]
 631              		.loc 1 319 0
 632 0014 23B1     		cbz	r3, .L43
 633              		.loc 1 317 0
 634 0016 090C     		lsrs	r1, r1, #16
 635              	.LVL31:
 636              		.loc 1 320 0
 637 0018 406D     		ldr	r0, [r0, #84]
 638 001a 01F03D01 		and	r1, r1, #61
 639              	.LVL32:
 640 001e 9847     		blx	r3
 641              	.L43:
 642              		.loc 1 322 0
 643 0020 FFF7FEFF 		bl	dbg_check_leave_isr
 644              		.loc 1 323 0
 645 0024 BDE81040 		pop	{r4, lr}
 646              		.loc 1 322 0
 647 0028 FFF7FEBF 		b	_port_irq_epilogue
 648              	.L45:
 649              		.align	2
 650              	.L44:
 651 002c 00000000 		.word	.LANCHOR0
 652 0030 00640240 		.word	1073898496
 653              		.cfi_endproc
 654              	.LFE128:
 655              		.size	Vector128, .-Vector128
 656 0034 AFF30080 		.section	.text.Vector12C,"ax",%progbits
 656      AFF30080 
 656      AFF30080 
 657              		.align	2
 658              		.p2align 4,,15
 659              		.global	Vector12C
 660              		.thumb
 661              		.thumb_func
 662              		.type	Vector12C, %function
 663              	Vector12C:
 664              	.LFB129:
ARM GAS  C:\Users\DNIEL~1\AppData\Local\Temp\cc49VrPb.s 			page 13


 665              		.loc 1 330 0
 666              		.cfi_startproc
 667              		@ args = 0, pretend = 0, frame = 0
 668              		@ frame_needed = 0, uses_anonymous_args = 0
 669 0000 10B5     		push	{r4, lr}
 670              	.LCFI11:
 671              		.cfi_def_cfa_offset 8
 672              		.loc 1 333 0
 673              		.cfi_offset 14, -4
 674              		.cfi_offset 4, -8
 675 0002 FFF7FEFF 		bl	dbg_check_enter_isr
 676              		.loc 1 337 0
 677 0006 0948     		ldr	r0, .L48
 678              		.loc 1 335 0
 679 0008 094A     		ldr	r2, .L48+4
 680              		.loc 1 337 0
 681 000a 836D     		ldr	r3, [r0, #88]
 682              		.loc 1 336 0
 683 000c 4FF07464 		mov	r4, #255852544
 684              		.loc 1 335 0
 685 0010 1168     		ldr	r1, [r2, #0]
 686              	.LVL33:
 687              		.loc 1 336 0
 688 0012 9460     		str	r4, [r2, #8]
 689              		.loc 1 337 0
 690 0014 23B1     		cbz	r3, .L47
 691              		.loc 1 335 0
 692 0016 890D     		lsrs	r1, r1, #22
 693              	.LVL34:
 694              		.loc 1 338 0
 695 0018 C06D     		ldr	r0, [r0, #92]
 696 001a 01F03D01 		and	r1, r1, #61
 697              	.LVL35:
 698 001e 9847     		blx	r3
 699              	.L47:
 700              		.loc 1 340 0
 701 0020 FFF7FEFF 		bl	dbg_check_leave_isr
 702              		.loc 1 341 0
 703 0024 BDE81040 		pop	{r4, lr}
 704              		.loc 1 340 0
 705 0028 FFF7FEBF 		b	_port_irq_epilogue
 706              	.L49:
 707              		.align	2
 708              	.L48:
 709 002c 00000000 		.word	.LANCHOR0
 710 0030 00640240 		.word	1073898496
 711              		.cfi_endproc
 712              	.LFE129:
 713              		.size	Vector12C, .-Vector12C
 714 0034 AFF30080 		.section	.text.Vector130,"ax",%progbits
 714      AFF30080 
 714      AFF30080 
 715              		.align	2
 716              		.p2align 4,,15
 717              		.global	Vector130
 718              		.thumb
 719              		.thumb_func
ARM GAS  C:\Users\DNIEL~1\AppData\Local\Temp\cc49VrPb.s 			page 14


 720              		.type	Vector130, %function
 721              	Vector130:
 722              	.LFB130:
 723              		.loc 1 348 0
 724              		.cfi_startproc
 725              		@ args = 0, pretend = 0, frame = 0
 726              		@ frame_needed = 0, uses_anonymous_args = 0
 727 0000 10B5     		push	{r4, lr}
 728              	.LCFI12:
 729              		.cfi_def_cfa_offset 8
 730              		.loc 1 351 0
 731              		.cfi_offset 14, -4
 732              		.cfi_offset 4, -8
 733 0002 FFF7FEFF 		bl	dbg_check_enter_isr
 734              		.loc 1 355 0
 735 0006 0848     		ldr	r0, .L52
 736              		.loc 1 353 0
 737 0008 084A     		ldr	r2, .L52+4
 738              		.loc 1 355 0
 739 000a 036E     		ldr	r3, [r0, #96]
 740              		.loc 1 354 0
 741 000c 3D24     		movs	r4, #61
 742              		.loc 1 353 0
 743 000e 5168     		ldr	r1, [r2, #4]
 744              	.LVL36:
 745              		.loc 1 354 0
 746 0010 D460     		str	r4, [r2, #12]
 747              		.loc 1 355 0
 748 0012 13B1     		cbz	r3, .L51
 749              		.loc 1 356 0
 750 0014 406E     		ldr	r0, [r0, #100]
 751 0016 2140     		ands	r1, r1, r4
 752              	.LVL37:
 753 0018 9847     		blx	r3
 754              	.LVL38:
 755              	.L51:
 756              		.loc 1 358 0
 757 001a FFF7FEFF 		bl	dbg_check_leave_isr
 758              		.loc 1 359 0
 759 001e BDE81040 		pop	{r4, lr}
 760              		.loc 1 358 0
 761 0022 FFF7FEBF 		b	_port_irq_epilogue
 762              	.L53:
 763 0026 00BF     		.align	2
 764              	.L52:
 765 0028 00000000 		.word	.LANCHOR0
 766 002c 00640240 		.word	1073898496
 767              		.cfi_endproc
 768              	.LFE130:
 769              		.size	Vector130, .-Vector130
 770              		.section	.text.Vector150,"ax",%progbits
 771              		.align	2
 772              		.p2align 4,,15
 773              		.global	Vector150
 774              		.thumb
 775              		.thumb_func
 776              		.type	Vector150, %function
ARM GAS  C:\Users\DNIEL~1\AppData\Local\Temp\cc49VrPb.s 			page 15


 777              	Vector150:
 778              	.LFB131:
 779              		.loc 1 366 0
 780              		.cfi_startproc
 781              		@ args = 0, pretend = 0, frame = 0
 782              		@ frame_needed = 0, uses_anonymous_args = 0
 783 0000 10B5     		push	{r4, lr}
 784              	.LCFI13:
 785              		.cfi_def_cfa_offset 8
 786              		.loc 1 369 0
 787              		.cfi_offset 14, -4
 788              		.cfi_offset 4, -8
 789 0002 FFF7FEFF 		bl	dbg_check_enter_isr
 790              		.loc 1 373 0
 791 0006 0948     		ldr	r0, .L56
 792              		.loc 1 371 0
 793 0008 094A     		ldr	r2, .L56+4
 794              		.loc 1 373 0
 795 000a 836E     		ldr	r3, [r0, #104]
 796              		.loc 1 372 0
 797 000c 4FF47464 		mov	r4, #3904
 798              		.loc 1 371 0
 799 0010 5168     		ldr	r1, [r2, #4]
 800              	.LVL39:
 801              		.loc 1 372 0
 802 0012 D460     		str	r4, [r2, #12]
 803              		.loc 1 373 0
 804 0014 23B1     		cbz	r3, .L55
 805              		.loc 1 371 0
 806 0016 8909     		lsrs	r1, r1, #6
 807              	.LVL40:
 808              		.loc 1 374 0
 809 0018 C06E     		ldr	r0, [r0, #108]
 810 001a 01F03D01 		and	r1, r1, #61
 811              	.LVL41:
 812 001e 9847     		blx	r3
 813              	.L55:
 814              		.loc 1 376 0
 815 0020 FFF7FEFF 		bl	dbg_check_leave_isr
 816              		.loc 1 377 0
 817 0024 BDE81040 		pop	{r4, lr}
 818              		.loc 1 376 0
 819 0028 FFF7FEBF 		b	_port_irq_epilogue
 820              	.L57:
 821              		.align	2
 822              	.L56:
 823 002c 00000000 		.word	.LANCHOR0
 824 0030 00640240 		.word	1073898496
 825              		.cfi_endproc
 826              	.LFE131:
 827              		.size	Vector150, .-Vector150
 828 0034 AFF30080 		.section	.text.Vector154,"ax",%progbits
 828      AFF30080 
 828      AFF30080 
 829              		.align	2
 830              		.p2align 4,,15
 831              		.global	Vector154
ARM GAS  C:\Users\DNIEL~1\AppData\Local\Temp\cc49VrPb.s 			page 16


 832              		.thumb
 833              		.thumb_func
 834              		.type	Vector154, %function
 835              	Vector154:
 836              	.LFB132:
 837              		.loc 1 384 0
 838              		.cfi_startproc
 839              		@ args = 0, pretend = 0, frame = 0
 840              		@ frame_needed = 0, uses_anonymous_args = 0
 841 0000 10B5     		push	{r4, lr}
 842              	.LCFI14:
 843              		.cfi_def_cfa_offset 8
 844              		.loc 1 387 0
 845              		.cfi_offset 14, -4
 846              		.cfi_offset 4, -8
 847 0002 FFF7FEFF 		bl	dbg_check_enter_isr
 848              		.loc 1 391 0
 849 0006 0948     		ldr	r0, .L60
 850              		.loc 1 389 0
 851 0008 094A     		ldr	r2, .L60+4
 852              		.loc 1 391 0
 853 000a 036F     		ldr	r3, [r0, #112]
 854              		.loc 1 390 0
 855 000c 4FF47414 		mov	r4, #3997696
 856              		.loc 1 389 0
 857 0010 5168     		ldr	r1, [r2, #4]
 858              	.LVL42:
 859              		.loc 1 390 0
 860 0012 D460     		str	r4, [r2, #12]
 861              		.loc 1 391 0
 862 0014 23B1     		cbz	r3, .L59
 863              		.loc 1 389 0
 864 0016 090C     		lsrs	r1, r1, #16
 865              	.LVL43:
 866              		.loc 1 392 0
 867 0018 406F     		ldr	r0, [r0, #116]
 868 001a 01F03D01 		and	r1, r1, #61
 869              	.LVL44:
 870 001e 9847     		blx	r3
 871              	.L59:
 872              		.loc 1 394 0
 873 0020 FFF7FEFF 		bl	dbg_check_leave_isr
 874              		.loc 1 395 0
 875 0024 BDE81040 		pop	{r4, lr}
 876              		.loc 1 394 0
 877 0028 FFF7FEBF 		b	_port_irq_epilogue
 878              	.L61:
 879              		.align	2
 880              	.L60:
 881 002c 00000000 		.word	.LANCHOR0
 882 0030 00640240 		.word	1073898496
 883              		.cfi_endproc
 884              	.LFE132:
 885              		.size	Vector154, .-Vector154
 886 0034 AFF30080 		.section	.text.Vector158,"ax",%progbits
 886      AFF30080 
 886      AFF30080 
ARM GAS  C:\Users\DNIEL~1\AppData\Local\Temp\cc49VrPb.s 			page 17


 887              		.align	2
 888              		.p2align 4,,15
 889              		.global	Vector158
 890              		.thumb
 891              		.thumb_func
 892              		.type	Vector158, %function
 893              	Vector158:
 894              	.LFB133:
 895              		.loc 1 402 0
 896              		.cfi_startproc
 897              		@ args = 0, pretend = 0, frame = 0
 898              		@ frame_needed = 0, uses_anonymous_args = 0
 899 0000 10B5     		push	{r4, lr}
 900              	.LCFI15:
 901              		.cfi_def_cfa_offset 8
 902              		.loc 1 405 0
 903              		.cfi_offset 14, -4
 904              		.cfi_offset 4, -8
 905 0002 FFF7FEFF 		bl	dbg_check_enter_isr
 906              		.loc 1 409 0
 907 0006 0948     		ldr	r0, .L64
 908              		.loc 1 407 0
 909 0008 094A     		ldr	r2, .L64+4
 910              		.loc 1 409 0
 911 000a 836F     		ldr	r3, [r0, #120]
 912              		.loc 1 408 0
 913 000c 4FF07464 		mov	r4, #255852544
 914              		.loc 1 407 0
 915 0010 5168     		ldr	r1, [r2, #4]
 916              	.LVL45:
 917              		.loc 1 408 0
 918 0012 D460     		str	r4, [r2, #12]
 919              		.loc 1 409 0
 920 0014 23B1     		cbz	r3, .L63
 921              		.loc 1 407 0
 922 0016 890D     		lsrs	r1, r1, #22
 923              	.LVL46:
 924              		.loc 1 410 0
 925 0018 C06F     		ldr	r0, [r0, #124]
 926 001a 01F03D01 		and	r1, r1, #61
 927              	.LVL47:
 928 001e 9847     		blx	r3
 929              	.L63:
 930              		.loc 1 412 0
 931 0020 FFF7FEFF 		bl	dbg_check_leave_isr
 932              		.loc 1 413 0
 933 0024 BDE81040 		pop	{r4, lr}
 934              		.loc 1 412 0
 935 0028 FFF7FEBF 		b	_port_irq_epilogue
 936              	.L65:
 937              		.align	2
 938              	.L64:
 939 002c 00000000 		.word	.LANCHOR0
 940 0030 00640240 		.word	1073898496
 941              		.cfi_endproc
 942              	.LFE133:
 943              		.size	Vector158, .-Vector158
ARM GAS  C:\Users\DNIEL~1\AppData\Local\Temp\cc49VrPb.s 			page 18


 944 0034 AFF30080 		.section	.text.dmaInit,"ax",%progbits
 944      AFF30080 
 944      AFF30080 
 945              		.align	2
 946              		.p2align 4,,15
 947              		.global	dmaInit
 948              		.thumb
 949              		.thumb_func
 950              		.type	dmaInit, %function
 951              	dmaInit:
 952              	.LFB134:
 953              		.loc 1 424 0
 954              		.cfi_startproc
 955              		@ args = 0, pretend = 0, frame = 0
 956              		@ frame_needed = 0, uses_anonymous_args = 0
 957              		@ link register save eliminated.
 958              		.loc 1 429 0
 959 0000 2A49     		ldr	r1, .L67
 960              		.loc 1 424 0
 961 0002 2DE9F00F 		push	{r4, r5, r6, r7, r8, r9, sl, fp}
 962              	.LCFI16:
 963              		.cfi_def_cfa_offset 32
 964              		.loc 1 429 0
 965 0006 C868     		ldr	r0, [r1, #12]
 966 0008 0C68     		ldr	r4, [r1, #0]
 967              		.cfi_offset 11, -4
 968              		.cfi_offset 10, -8
 969              		.cfi_offset 9, -12
 970              		.cfi_offset 8, -16
 971              		.cfi_offset 7, -20
 972              		.cfi_offset 6, -24
 973              		.cfi_offset 5, -28
 974              		.cfi_offset 4, -32
 975 000a D1F818A0 		ldr	sl, [r1, #24]
 976 000e D1F83080 		ldr	r8, [r1, #48]
 977 0012 D1F83CC0 		ldr	ip, [r1, #60]
 978 0016 8F6C     		ldr	r7, [r1, #72]
 979 0018 4E6D     		ldr	r6, [r1, #84]
 980 001a 0D6E     		ldr	r5, [r1, #96]
 981 001c D1F82490 		ldr	r9, [r1, #36]
 982              		.loc 1 427 0
 983 0020 0023     		movs	r3, #0
 984              		.loc 1 430 0
 985 0022 234A     		ldr	r2, .L67+4
 986              		.loc 1 429 0
 987 0024 2360     		str	r3, [r4, #0]
 988 0026 D1F86CB0 		ldr	fp, [r1, #108]
 989 002a 0360     		str	r3, [r0, #0]
 990 002c CAF80030 		str	r3, [sl, #0]
 991 0030 C9F80030 		str	r3, [r9, #0]
 992              		.loc 1 427 0
 993 0034 DFF884A0 		ldr	sl, .L67+16
 994              		.loc 1 429 0
 995 0038 C8F80030 		str	r3, [r8, #0]
 996 003c CCF80030 		str	r3, [ip, #0]
 997 0040 3B60     		str	r3, [r7, #0]
 998 0042 3360     		str	r3, [r6, #0]
ARM GAS  C:\Users\DNIEL~1\AppData\Local\Temp\cc49VrPb.s 			page 19


 999 0044 2B60     		str	r3, [r5, #0]
 1000 0046 8D6F     		ldr	r5, [r1, #120]
 1001              		.loc 1 432 0
 1002 0048 1A4C     		ldr	r4, .L67+8
 1003              		.loc 1 434 0
 1004 004a 1B48     		ldr	r0, .L67+12
 1005              		.loc 1 427 0
 1006 004c CAF80030 		str	r3, [sl, #0]
 1007              	.LVL48:
 1008              		.loc 1 430 0
 1009 0050 1360     		str	r3, [r2, #0]
 1010              	.LVL49:
 1011 0052 9360     		str	r3, [r2, #8]
 1012              	.LVL50:
 1013 0054 1361     		str	r3, [r2, #16]
 1014              	.LVL51:
 1015 0056 9361     		str	r3, [r2, #24]
 1016              	.LVL52:
 1017 0058 1362     		str	r3, [r2, #32]
 1018              	.LVL53:
 1019 005a 9362     		str	r3, [r2, #40]
 1020              	.LVL54:
 1021              		.loc 1 429 0
 1022 005c CBF80030 		str	r3, [fp, #0]
 1023              		.loc 1 430 0
 1024 0060 1363     		str	r3, [r2, #48]
 1025              	.LVL55:
 1026 0062 9363     		str	r3, [r2, #56]
 1027              	.LVL56:
 1028 0064 1364     		str	r3, [r2, #64]
 1029              	.LVL57:
 1030 0066 9364     		str	r3, [r2, #72]
 1031              	.LVL58:
 1032              		.loc 1 429 0
 1033 0068 2B60     		str	r3, [r5, #0]
 1034 006a D1F88480 		ldr	r8, [r1, #132]
 1035 006e D1F890C0 		ldr	ip, [r1, #144]
 1036 0072 D1F89C70 		ldr	r7, [r1, #156]
 1037 0076 D1F8A860 		ldr	r6, [r1, #168]
 1038 007a D1F8B450 		ldr	r5, [r1, #180]
 1039              		.loc 1 432 0
 1040 007e 4FF0FF31 		mov	r1, #-1
 1041              		.loc 1 429 0
 1042 0082 C8F80030 		str	r3, [r8, #0]
 1043              		.loc 1 430 0
 1044 0086 1365     		str	r3, [r2, #80]
 1045              	.LVL59:
 1046              		.loc 1 429 0
 1047 0088 CCF80030 		str	r3, [ip, #0]
 1048              		.loc 1 430 0
 1049 008c 9365     		str	r3, [r2, #88]
 1050              	.LVL60:
 1051              		.loc 1 429 0
 1052 008e 3B60     		str	r3, [r7, #0]
 1053              		.loc 1 430 0
 1054 0090 1366     		str	r3, [r2, #96]
 1055              	.LVL61:
ARM GAS  C:\Users\DNIEL~1\AppData\Local\Temp\cc49VrPb.s 			page 20


 1056              		.loc 1 429 0
 1057 0092 3360     		str	r3, [r6, #0]
 1058              		.loc 1 430 0
 1059 0094 9366     		str	r3, [r2, #104]
 1060              	.LVL62:
 1061 0096 1367     		str	r3, [r2, #112]
 1062              	.LVL63:
 1063              		.loc 1 429 0
 1064 0098 2B60     		str	r3, [r5, #0]
 1065              		.loc 1 430 0
 1066 009a 9367     		str	r3, [r2, #120]
 1067              	.LVL64:
 1068              		.loc 1 432 0
 1069 009c A160     		str	r1, [r4, #8]
 1070              		.loc 1 433 0
 1071 009e E160     		str	r1, [r4, #12]
 1072              		.loc 1 434 0
 1073 00a0 8160     		str	r1, [r0, #8]
 1074              		.loc 1 435 0
 1075 00a2 C160     		str	r1, [r0, #12]
 1076              		.loc 1 436 0
 1077 00a4 BDE8F00F 		pop	{r4, r5, r6, r7, r8, r9, sl, fp}
 1078 00a8 7047     		bx	lr
 1079              	.L68:
 1080 00aa 00BF     		.align	2
 1081              	.L67:
 1082 00ac 00000000 		.word	.LANCHOR2
 1083 00b0 00000000 		.word	.LANCHOR0
 1084 00b4 00600240 		.word	1073897472
 1085 00b8 00640240 		.word	1073898496
 1086 00bc 00000000 		.word	.LANCHOR1
 1087              		.cfi_endproc
 1088              	.LFE134:
 1089              		.size	dmaInit, .-dmaInit
 1090              		.section	.text.dmaStreamAllocate,"ax",%progbits
 1091              		.align	2
 1092              		.p2align 4,,15
 1093              		.global	dmaStreamAllocate
 1094              		.thumb
 1095              		.thumb_func
 1096              		.type	dmaStreamAllocate, %function
 1097              	dmaStreamAllocate:
 1098              	.LFB135:
 1099              		.loc 1 465 0
 1100              		.cfi_startproc
 1101              		@ args = 0, pretend = 0, frame = 16
 1102              		@ frame_needed = 0, uses_anonymous_args = 0
 1103              	.LVL65:
 1104 0000 F0B5     		push	{r4, r5, r6, r7, lr}
 1105              	.LCFI17:
 1106              		.cfi_def_cfa_offset 20
 1107              		.loc 1 467 0
 1108 0002 0446     		mov	r4, r0
 1109              		.cfi_offset 14, -4
 1110              		.cfi_offset 7, -8
 1111              		.cfi_offset 6, -12
 1112              		.cfi_offset 5, -16
ARM GAS  C:\Users\DNIEL~1\AppData\Local\Temp\cc49VrPb.s 			page 21


 1113              		.cfi_offset 4, -20
 1114              		.loc 1 465 0
 1115 0004 85B0     		sub	sp, sp, #20
 1116              	.LCFI18:
 1117              		.cfi_def_cfa_offset 40
 1118              		.loc 1 467 0
 1119 0006 0028     		cmp	r0, #0
 1120 0008 40D0     		beq	.L78
 1121              	.LVL66:
 1122              	.L70:
 1123              		.loc 1 470 0
 1124 000a 667A     		ldrb	r6, [r4, #9]	@ zero_extendqisi2
 1125 000c 0125     		movs	r5, #1
 1126 000e 05FA06FC 		lsl	ip, r5, r6
 1127 0012 234F     		ldr	r7, .L80
 1128 0014 3868     		ldr	r0, [r7, #0]
 1129 0016 1CEA000F 		tst	ip, r0
 1130 001a 33D1     		bne	.L75
 1131              		.loc 1 474 0
 1132 001c 214D     		ldr	r5, .L80+4
 1133              		.loc 1 476 0
 1134 001e 4CEA0000 		orr	r0, ip, r0
 1135              		.loc 1 479 0
 1136 0022 10F0FF0F 		tst	r0, #255
 1137              		.loc 1 475 0
 1138 0026 05EBC60C 		add	ip, r5, r6, lsl #3
 1139              		.loc 1 474 0
 1140 002a 45F83620 		str	r2, [r5, r6, lsl #3]
 1141              		.loc 1 475 0
 1142 002e CCF80430 		str	r3, [ip, #4]
 1143              		.loc 1 476 0
 1144 0032 3860     		str	r0, [r7, #0]
 1145              		.loc 1 479 0
 1146 0034 04D0     		beq	.L72
 1147              		.loc 1 480 0
 1148 0036 1C4B     		ldr	r3, .L80+8
 1149 0038 1D6B     		ldr	r5, [r3, #48]
 1150 003a 45F40016 		orr	r6, r5, #2097152
 1151 003e 1E63     		str	r6, [r3, #48]
 1152              	.L72:
 1153              		.loc 1 481 0
 1154 0040 10F47F4F 		tst	r0, #65280
 1155 0044 18D1     		bne	.L79
 1156              	.L73:
 1157              		.loc 1 485 0
 1158 0046 2368     		ldr	r3, [r4, #0]
 1159 0048 1868     		ldr	r0, [r3, #0]
 1160 004a 20F00105 		bic	r5, r0, #1
 1161 004e 1D60     		str	r5, [r3, #0]
 1162              	.L74:
 1163              		.loc 1 485 0 is_stmt 0 discriminator 1
 1164 0050 1E68     		ldr	r6, [r3, #0]
 1165 0052 16F00105 		ands	r5, r6, #1
 1166 0056 FBD1     		bne	.L74
 1167              		.loc 1 485 0 discriminator 2
 1168 0058 207A     		ldrb	r0, [r4, #8]	@ zero_extendqisi2
 1169 005a 3D26     		movs	r6, #61
ARM GAS  C:\Users\DNIEL~1\AppData\Local\Temp\cc49VrPb.s 			page 22


 1170 005c 8640     		lsls	r6, r6, r0
 1171 005e 6068     		ldr	r0, [r4, #4]
 1172 0060 0660     		str	r6, [r0, #0]
 1173              		.loc 1 487 0 is_stmt 1 discriminator 2
 1174 0062 2120     		movs	r0, #33
 1175              		.loc 1 486 0 discriminator 2
 1176 0064 1D60     		str	r5, [r3, #0]
 1177              		.loc 1 487 0 discriminator 2
 1178 0066 5861     		str	r0, [r3, #20]
 1179              		.loc 1 490 0 discriminator 2
 1180 0068 72B1     		cbz	r2, .L76
 1181              		.loc 1 491 0
 1182 006a A07A     		ldrb	r0, [r4, #10]	@ zero_extendqisi2
 1183 006c 0901     		lsls	r1, r1, #4
 1184 006e FFF7FEFF 		bl	nvicEnableVector
 1185              		.loc 1 493 0
 1186 0072 2846     		mov	r0, r5
 1187              	.L71:
 1188              		.loc 1 494 0
 1189 0074 05B0     		add	sp, sp, #20
 1190 0076 F0BD     		pop	{r4, r5, r6, r7, pc}
 1191              	.L79:
 1192              		.loc 1 482 0
 1193 0078 0B4B     		ldr	r3, .L80+8
 1194 007a 1E6B     		ldr	r6, [r3, #48]
 1195 007c 46F48000 		orr	r0, r6, #4194304
 1196 0080 1863     		str	r0, [r3, #48]
 1197 0082 E0E7     		b	.L73
 1198              	.L75:
 1199              		.loc 1 471 0
 1200 0084 2846     		mov	r0, r5
 1201 0086 F5E7     		b	.L71
 1202              	.L76:
 1203              		.loc 1 493 0
 1204 0088 1046     		mov	r0, r2
 1205 008a F3E7     		b	.L71
 1206              	.LVL67:
 1207              	.L78:
 1208              		.loc 1 467 0 discriminator 1
 1209 008c 0748     		ldr	r0, .L80+12
 1210 008e 0391     		str	r1, [sp, #12]
 1211 0090 0292     		str	r2, [sp, #8]
 1212 0092 0193     		str	r3, [sp, #4]
 1213 0094 FFF7FEFF 		bl	chDbgPanic
 1214              	.LVL68:
 1215 0098 019B     		ldr	r3, [sp, #4]
 1216 009a 029A     		ldr	r2, [sp, #8]
 1217 009c 0399     		ldr	r1, [sp, #12]
 1218 009e B4E7     		b	.L70
 1219              	.L81:
 1220              		.align	2
 1221              	.L80:
 1222 00a0 00000000 		.word	.LANCHOR1
 1223 00a4 00000000 		.word	.LANCHOR0
 1224 00a8 00380240 		.word	1073887232
 1225 00ac 00000000 		.word	.LC0
 1226              		.cfi_endproc
ARM GAS  C:\Users\DNIEL~1\AppData\Local\Temp\cc49VrPb.s 			page 23


 1227              	.LFE135:
 1228              		.size	dmaStreamAllocate, .-dmaStreamAllocate
 1229              		.section	.text.dmaStreamRelease,"ax",%progbits
 1230              		.align	2
 1231              		.p2align 4,,15
 1232              		.global	dmaStreamRelease
 1233              		.thumb
 1234              		.thumb_func
 1235              		.type	dmaStreamRelease, %function
 1236              	dmaStreamRelease:
 1237              	.LFB136:
 1238              		.loc 1 509 0
 1239              		.cfi_startproc
 1240              		@ args = 0, pretend = 0, frame = 0
 1241              		@ frame_needed = 0, uses_anonymous_args = 0
 1242              	.LVL69:
 1243 0000 38B5     		push	{r3, r4, r5, lr}
 1244              	.LCFI19:
 1245              		.cfi_def_cfa_offset 16
 1246              		.loc 1 511 0
 1247 0002 0446     		mov	r4, r0
 1248              		.cfi_offset 14, -4
 1249              		.cfi_offset 5, -8
 1250              		.cfi_offset 4, -12
 1251              		.cfi_offset 3, -16
 1252 0004 38B3     		cbz	r0, .L87
 1253              	.LVL70:
 1254              	.L83:
 1255              		.loc 1 514 0
 1256 0006 617A     		ldrb	r1, [r4, #9]	@ zero_extendqisi2
 1257 0008 0120     		movs	r0, #1
 1258 000a 10FA01F2 		lsls	r2, r0, r1
 1259 000e 144D     		ldr	r5, .L89
 1260 0010 2B68     		ldr	r3, [r5, #0]
 1261 0012 1A42     		tst	r2, r3
 1262 0014 1BD0     		beq	.L88
 1263              	.L84:
 1264              		.loc 1 518 0
 1265 0016 A07A     		ldrb	r0, [r4, #10]	@ zero_extendqisi2
 1266 0018 FFF7FEFF 		bl	nvicDisableVector
 1267              		.loc 1 521 0
 1268 001c 607A     		ldrb	r0, [r4, #9]	@ zero_extendqisi2
 1269 001e 0121     		movs	r1, #1
 1270 0020 11FA00F3 		lsls	r3, r1, r0
 1271 0024 2A68     		ldr	r2, [r5, #0]
 1272 0026 22EA0303 		bic	r3, r2, r3
 1273              		.loc 1 524 0
 1274 002a 13F0FF0F 		tst	r3, #255
 1275              		.loc 1 521 0
 1276 002e 2B60     		str	r3, [r5, #0]
 1277              		.loc 1 524 0
 1278 0030 04D1     		bne	.L85
 1279              		.loc 1 525 0
 1280 0032 0C4A     		ldr	r2, .L89+4
 1281 0034 116B     		ldr	r1, [r2, #48]
 1282 0036 21F40010 		bic	r0, r1, #2097152
 1283 003a 1063     		str	r0, [r2, #48]
ARM GAS  C:\Users\DNIEL~1\AppData\Local\Temp\cc49VrPb.s 			page 24


 1284              	.L85:
 1285              		.loc 1 526 0
 1286 003c 13F47F4F 		tst	r3, #65280
 1287 0040 04D1     		bne	.L82
 1288              		.loc 1 527 0
 1289 0042 084B     		ldr	r3, .L89+4
 1290 0044 1A6B     		ldr	r2, [r3, #48]
 1291 0046 22F48000 		bic	r0, r2, #4194304
 1292 004a 1863     		str	r0, [r3, #48]
 1293              	.L82:
 1294 004c 38BD     		pop	{r3, r4, r5, pc}
 1295              	.L88:
 1296              		.loc 1 514 0 discriminator 1
 1297 004e 0648     		ldr	r0, .L89+8
 1298 0050 FFF7FEFF 		bl	chDbgPanic
 1299 0054 DFE7     		b	.L84
 1300              	.L87:
 1301              		.loc 1 511 0 discriminator 1
 1302 0056 0548     		ldr	r0, .L89+12
 1303 0058 FFF7FEFF 		bl	chDbgPanic
 1304 005c D3E7     		b	.L83
 1305              	.L90:
 1306 005e 00BF     		.align	2
 1307              	.L89:
 1308 0060 00000000 		.word	.LANCHOR1
 1309 0064 00380240 		.word	1073887232
 1310 0068 20000000 		.word	.LC2
 1311 006c 10000000 		.word	.LC1
 1312              		.cfi_endproc
 1313              	.LFE136:
 1314              		.size	dmaStreamRelease, .-dmaStreamRelease
 1315              		.global	_stm32_dma_streams
 1316              		.section	.rodata.str1.4,"aMS",%progbits,1
 1317              		.align	2
 1318              	.LC0:
 1319 0000 22646D61 		.ascii	"\"dmaAllocate\"()\000"
 1319      416C6C6F 
 1319      63617465 
 1319      22282900 
 1320              	.LC1:
 1321 0010 22646D61 		.ascii	"\"dmaRelease\"()\000"
 1321      52656C65 
 1321      61736522 
 1321      282900
 1322 001f 00       		.space	1
 1323              	.LC2:
 1324 0020 646D6152 		.ascii	"dmaRelease(), #1\000"
 1324      656C6561 
 1324      73652829 
 1324      2C202331 
 1324      00
 1325 0031 000000   		.section	.bss.dma_isr_redir,"aw",%nobits
 1326              		.align	2
 1327              		.set	.LANCHOR0,. + 0
 1328              		.type	dma_isr_redir, %object
 1329              		.size	dma_isr_redir, 128
 1330              	dma_isr_redir:
ARM GAS  C:\Users\DNIEL~1\AppData\Local\Temp\cc49VrPb.s 			page 25


 1331 0000 00000000 		.space	128
 1331      00000000 
 1331      00000000 
 1331      00000000 
 1331      00000000 
 1332              		.section	.rodata._stm32_dma_streams,"a",%progbits
 1333              		.align	2
 1334              		.set	.LANCHOR2,. + 0
 1335              		.type	_stm32_dma_streams, %object
 1336              		.size	_stm32_dma_streams, 192
 1337              	_stm32_dma_streams:
 1338 0000 10600240 		.word	1073897488
 1339 0004 08600240 		.word	1073897480
 1340 0008 00       		.byte	0
 1341 0009 00       		.byte	0
 1342 000a 0B       		.byte	11
 1343 000b 00       		.space	1
 1344 000c 28600240 		.word	1073897512
 1345 0010 08600240 		.word	1073897480
 1346 0014 06       		.byte	6
 1347 0015 01       		.byte	1
 1348 0016 0C       		.byte	12
 1349 0017 00       		.space	1
 1350 0018 40600240 		.word	1073897536
 1351 001c 08600240 		.word	1073897480
 1352 0020 10       		.byte	16
 1353 0021 02       		.byte	2
 1354 0022 0D       		.byte	13
 1355 0023 00       		.space	1
 1356 0024 58600240 		.word	1073897560
 1357 0028 08600240 		.word	1073897480
 1358 002c 16       		.byte	22
 1359 002d 03       		.byte	3
 1360 002e 0E       		.byte	14
 1361 002f 00       		.space	1
 1362 0030 70600240 		.word	1073897584
 1363 0034 0C600240 		.word	1073897484
 1364 0038 00       		.byte	0
 1365 0039 04       		.byte	4
 1366 003a 0F       		.byte	15
 1367 003b 00       		.space	1
 1368 003c 88600240 		.word	1073897608
 1369 0040 0C600240 		.word	1073897484
 1370 0044 06       		.byte	6
 1371 0045 05       		.byte	5
 1372 0046 10       		.byte	16
 1373 0047 00       		.space	1
 1374 0048 A0600240 		.word	1073897632
 1375 004c 0C600240 		.word	1073897484
 1376 0050 10       		.byte	16
 1377 0051 06       		.byte	6
 1378 0052 11       		.byte	17
 1379 0053 00       		.space	1
 1380 0054 B8600240 		.word	1073897656
 1381 0058 0C600240 		.word	1073897484
 1382 005c 16       		.byte	22
 1383 005d 07       		.byte	7
ARM GAS  C:\Users\DNIEL~1\AppData\Local\Temp\cc49VrPb.s 			page 26


 1384 005e 2F       		.byte	47
 1385 005f 00       		.space	1
 1386 0060 10640240 		.word	1073898512
 1387 0064 08640240 		.word	1073898504
 1388 0068 00       		.byte	0
 1389 0069 08       		.byte	8
 1390 006a 38       		.byte	56
 1391 006b 00       		.space	1
 1392 006c 28640240 		.word	1073898536
 1393 0070 08640240 		.word	1073898504
 1394 0074 06       		.byte	6
 1395 0075 09       		.byte	9
 1396 0076 39       		.byte	57
 1397 0077 00       		.space	1
 1398 0078 40640240 		.word	1073898560
 1399 007c 08640240 		.word	1073898504
 1400 0080 10       		.byte	16
 1401 0081 0A       		.byte	10
 1402 0082 3A       		.byte	58
 1403 0083 00       		.space	1
 1404 0084 58640240 		.word	1073898584
 1405 0088 08640240 		.word	1073898504
 1406 008c 16       		.byte	22
 1407 008d 0B       		.byte	11
 1408 008e 3B       		.byte	59
 1409 008f 00       		.space	1
 1410 0090 70640240 		.word	1073898608
 1411 0094 0C640240 		.word	1073898508
 1412 0098 00       		.byte	0
 1413 0099 0C       		.byte	12
 1414 009a 3C       		.byte	60
 1415 009b 00       		.space	1
 1416 009c 88640240 		.word	1073898632
 1417 00a0 0C640240 		.word	1073898508
 1418 00a4 06       		.byte	6
 1419 00a5 0D       		.byte	13
 1420 00a6 44       		.byte	68
 1421 00a7 00       		.space	1
 1422 00a8 A0640240 		.word	1073898656
 1423 00ac 0C640240 		.word	1073898508
 1424 00b0 10       		.byte	16
 1425 00b1 0E       		.byte	14
 1426 00b2 45       		.byte	69
 1427 00b3 00       		.space	1
 1428 00b4 B8640240 		.word	1073898680
 1429 00b8 0C640240 		.word	1073898508
 1430 00bc 16       		.byte	22
 1431 00bd 0F       		.byte	15
 1432 00be 46       		.byte	70
 1433 00bf 00       		.space	1
 1434              		.section	.bss.dma_streams_mask,"aw",%nobits
 1435              		.align	2
 1436              		.set	.LANCHOR1,. + 0
 1437              		.type	dma_streams_mask, %object
 1438              		.size	dma_streams_mask, 4
 1439              	dma_streams_mask:
 1440 0000 00000000 		.space	4
ARM GAS  C:\Users\DNIEL~1\AppData\Local\Temp\cc49VrPb.s 			page 27


 1441              		.text
 1442              	.Letext0: