ARM GAS  C:\Users\DNIEL~1\AppData\Local\Temp\cc49VrPb.s 			page 1


   1              		.syntax unified
   2              		.cpu cortex-m3
   3              		.fpu softvfp
   4              		.eabi_attribute 20, 1
   5              		.eabi_attribute 21, 1
   6              		.eabi_attribute 23, 3
   7              		.eabi_attribute 24, 1
   8              		.eabi_attribute 25, 1
   9              		.eabi_attribute 26, 1
  10              		.eabi_attribute 30, 2
  11              		.eabi_attribute 18, 4
  12              		.thumb
  13              		.file	"stm32_dma.c"
  14              		.section	.debug_abbrev,"",%progbits
  15              	.Ldebug_abbrev0:
  16              		.section	.debug_info,"",%progbits
  17              	.Ldebug_info0:
  18              		.section	.debug_line,"",%progbits
  19              	.Ldebug_line0:
  20 0000 E4030000 		.text
  20      02006901 
  20      00000201 
  20      FB0E0D00 
  20      01010101 
  21              	.Ltext0:
  22              		.cfi_sections	.debug_frame
  23              		.section	.text.Vector6C,"ax",%progbits
  24              		.align	2
  25              		.p2align 4,,15
  26              		.global	Vector6C
  27              		.thumb
  28              		.thumb_func
  29              		.type	Vector6C, %function
  30              	Vector6C:
  31              	.LFB118:
  32              		.file 1 "../../../ChibiOS/os/hal/platforms/STM32F4xx/stm32_dma.c"
  33              		.loc 1 132 0
  34              		.cfi_startproc
  35              		@ args = 0, pretend = 0, frame = 0
  36              		@ frame_needed = 0, uses_anonymous_args = 0
  37 0000 10B5     		push	{r4, lr}
  38              	.LCFI0:
  39              		.cfi_def_cfa_offset 8
  40              		.loc 1 135 0
  41              		.cfi_offset 14, -4
  42              		.cfi_offset 4, -8
  43 0002 FFF7FEFF 		bl	dbg_check_enter_isr
  44              		.loc 1 139 0
  45 0006 0848     		ldr	r0, .L4
  46              		.loc 1 137 0
  47 0008 084A     		ldr	r2, .L4+4
  48              		.loc 1 139 0
  49 000a 0368     		ldr	r3, [r0, #0]
  50              		.loc 1 138 0
  51 000c 3D24     		movs	r4, #61
  52              		.loc 1 137 0
  53 000e 1168     		ldr	r1, [r2, #0]
ARM GAS  C:\Users\DNIEL~1\AppData\Local\Temp\cc49VrPb.s 			page 2


  54              	.LVL0:
  55              		.loc 1 138 0
  56 0010 9460     		str	r4, [r2, #8]
  57              		.loc 1 139 0
  58 0012 13B1     		cbz	r3, .L2
  59              		.loc 1 140 0
  60 0014 4068     		ldr	r0, [r0, #4]
  61 0016 2140     		ands	r1, r1, r4
  62              	.LVL1:
  63 0018 9847     		blx	r3
  64              	.LVL2:
  65              	.L2:
  66              		.loc 1 142 0
  67 001a FFF7FEFF 		bl	dbg_check_leave_isr
  68              		.loc 1 143 0
  69 001e BDE81040 		pop	{r4, lr}
  70              		.loc 1 142 0
  71 0022 FFF7FEBF 		b	_port_irq_epilogue
  72              	.L5:
  73 0026 00BF     		.align	2
  74              	.L4:
  75 0028 00000000 		.word	.LANCHOR0
  76 002c 00600240 		.word	1073897472
  77              		.cfi_endproc
  78              	.LFE118:
  79              		.size	Vector6C, .-Vector6C
  80              		.section	.text.Vector70,"ax",%progbits
  81              		.align	2
  82              		.p2align 4,,15
  83              		.global	Vector70
  84              		.thumb
  85              		.thumb_func
  86              		.type	Vector70, %function
  87              	Vector70:
  88              	.LFB119:
  89              		.loc 1 150 0
  90              		.cfi_startproc
  91              		@ args = 0, pretend = 0, frame = 0
  92              		@ frame_needed = 0, uses_anonymous_args = 0
  93 0000 10B5     		push	{r4, lr}
  94              	.LCFI1:
  95              		.cfi_def_cfa_offset 8
  96              		.loc 1 153 0
  97              		.cfi_offset 14, -4
  98              		.cfi_offset 4, -8
  99 0002 FFF7FEFF 		bl	dbg_check_enter_isr
 100              		.loc 1 157 0
 101 0006 0948     		ldr	r0, .L8
 102              		.loc 1 155 0
 103 0008 094A     		ldr	r2, .L8+4
 104              		.loc 1 157 0
 105 000a 8368     		ldr	r3, [r0, #8]
 106              		.loc 1 156 0
 107 000c 4FF47464 		mov	r4, #3904
 108              		.loc 1 155 0
 109 0010 1168     		ldr	r1, [r2, #0]
 110              	.LVL3:
ARM GAS  C:\Users\DNIEL~1\AppData\Local\Temp\cc49VrPb.s 			page 3


 111              		.loc 1 156 0
 112 0012 9460     		str	r4, [r2, #8]
 113              		.loc 1 157 0
 114 0014 23B1     		cbz	r3, .L7
 115              		.loc 1 155 0
 116 0016 8909     		lsrs	r1, r1, #6
 117              	.LVL4:
 118              		.loc 1 158 0
 119 0018 C068     		ldr	r0, [r0, #12]
 120 001a 01F03D01 		and	r1, r1, #61
 121              	.LVL5:
 122 001e 9847     		blx	r3
 123              	.L7:
 124              		.loc 1 160 0
 125 0020 FFF7FEFF 		bl	dbg_check_leave_isr
 126              		.loc 1 161 0
 127 0024 BDE81040 		pop	{r4, lr}
 128              		.loc 1 160 0
 129 0028 FFF7FEBF 		b	_port_irq_epilogue
 130              	.L9:
 131              		.align	2
 132              	.L8:
 133 002c 00000000 		.word	.LANCHOR0
 134 0030 00600240 		.word	1073897472
 135              		.cfi_endproc
 136              	.LFE119:
 137              		.size	Vector70, .-Vector70
 138 0034 AFF30080 		.section	.text.Vector74,"ax",%progbits
 138      AFF30080 
 138      AFF30080 
 139              		.align	2
 140              		.p2align 4,,15
 141              		.global	Vector74
 142              		.thumb
 143              		.thumb_func
 144              		.type	Vector74, %function
 145              	Vector74:
 146              	.LFB120:
 147              		.loc 1 168 0
 148              		.cfi_startproc
 149              		@ args = 0, pretend = 0, frame = 0
 150              		@ frame_needed = 0, uses_anonymous_args = 0
 151 0000 10B5     		push	{r4, lr}
 152              	.LCFI2:
 153              		.cfi_def_cfa_offset 8
 154              		.loc 1 171 0
 155              		.cfi_offset 14, -4
 156              		.cfi_offset 4, -8
 157 0002 FFF7FEFF 		bl	dbg_check_enter_isr
 158              		.loc 1 175 0
 159 0006 0948     		ldr	r0, .L12
 160              		.loc 1 173 0
 161 0008 094A     		ldr	r2, .L12+4
 162              		.loc 1 175 0
 163 000a 0369     		ldr	r3, [r0, #16]
 164              		.loc 1 174 0
 165 000c 4FF47414 		mov	r4, #3997696
ARM GAS  C:\Users\DNIEL~1\AppData\Local\Temp\cc49VrPb.s 			page 4


 166              		.loc 1 173 0
 167 0010 1168     		ldr	r1, [r2, #0]
 168              	.LVL6:
 169              		.loc 1 174 0
 170 0012 9460     		str	r4, [r2, #8]
 171              		.loc 1 175 0
 172 0014 23B1     		cbz	r3, .L11
 173              		.loc 1 173 0
 174 0016 090C     		lsrs	r1, r1, #16
 175              	.LVL7:
 176              		.loc 1 176 0
 177 0018 4069     		ldr	r0, [r0, #20]
 178 001a 01F03D01 		and	r1, r1, #61
 179              	.LVL8:
 180 001e 9847     		blx	r3
 181              	.L11:
 182              		.loc 1 178 0
 183 0020 FFF7FEFF 		bl	dbg_check_leave_isr
 184              		.loc 1 179 0
 185 0024 BDE81040 		pop	{r4, lr}
 186              		.loc 1 178 0
 187 0028 FFF7FEBF 		b	_port_irq_epilogue
 188              	.L13:
 189              		.align	2
 190              	.L12:
 191 002c 00000000 		.word	.LANCHOR0
 192 0030 00600240 		.word	1073897472
 193              		.cfi_endproc
 194              	.LFE120:
 195              		.size	Vector74, .-Vector74
 196 0034 AFF30080 		.section	.text.Vector78,"ax",%progbits
 196      AFF30080 
 196      AFF30080 
 197              		.align	2
 198              		.p2align 4,,15
 199              		.global	Vector78
 200              		.thumb
 201              		.thumb_func
 202              		.type	Vector78, %function
 203              	Vector78:
 204              	.LFB121:
 205              		.loc 1 186 0
 206              		.cfi_startproc
 207              		@ args = 0, pretend = 0, frame = 0
 208              		@ frame_needed = 0, uses_anonymous_args = 0
 209 0000 10B5     		push	{r4, lr}
 210              	.LCFI3:
 211              		.cfi_def_cfa_offset 8
 212              		.loc 1 189 0
 213              		.cfi_offset 14, -4
 214              		.cfi_offset 4, -8
 215 0002 FFF7FEFF 		bl	dbg_check_enter_isr
 216              		.loc 1 193 0
 217 0006 0948     		ldr	r0, .L16
 218              		.loc 1 191 0
 219 0008 094A     		ldr	r2, .L16+4
 220              		.loc 1 193 0
ARM GAS  C:\Users\DNIEL~1\AppData\Local\Temp\cc49VrPb.s 			page 5


 221 000a 8369     		ldr	r3, [r0, #24]
 222              		.loc 1 192 0
 223 000c 4FF07464 		mov	r4, #255852544
 224              		.loc 1 191 0
 225 0010 1168     		ldr	r1, [r2, #0]
 226              	.LVL9:
 227              		.loc 1 192 0
 228 0012 9460     		str	r4, [r2, #8]
 229              		.loc 1 193 0
 230 0014 23B1     		cbz	r3, .L15
 231              		.loc 1 191 0
 232 0016 890D     		lsrs	r1, r1, #22
 233              	.LVL10:
 234              		.loc 1 194 0
 235 0018 C069     		ldr	r0, [r0, #28]
 236 001a 01F03D01 		and	r1, r1, #61
 237              	.LVL11:
 238 001e 9847     		blx	r3
 239              	.L15:
 240              		.loc 1 196 0
 241 0020 FFF7FEFF 		bl	dbg_check_leave_isr
 242              		.loc 1 197 0
 243 0024 BDE81040 		pop	{r4, lr}
 244              		.loc 1 196 0
 245 0028 FFF7FEBF 		b	_port_irq_epilogue
 246              	.L17:
 247              		.align	2
 248              	.L16:
 249 002c 00000000 		.word	.LANCHOR0
 250 0030 00600240 		.word	1073897472
 251              		.cfi_endproc
 252              	.LFE121:
 253              		.size	Vector78, .-Vector78
 254 0034 AFF30080 		.section	.text.Vector7C,"ax",%progbits
 254      AFF30080 
 254      AFF30080 
 255              		.align	2
 256              		.p2align 4,,15
 257              		.global	Vector7C
 258              		.thumb
 259              		.thumb_func
 260              		.type	Vector7C, %function
 261              	Vector7C:
 262              	.LFB122:
 263              		.loc 1 204 0
 264              		.cfi_startproc
 265              		@ args = 0, pretend = 0, frame = 0
 266              		@ frame_needed = 0, uses_anonymous_args = 0
 267 0000 10B5     		push	{r4, lr}
 268              	.LCFI4:
 269              		.cfi_def_cfa_offset 8
 270              		.loc 1 207 0
 271              		.cfi_offset 14, -4
 272              		.cfi_offset 4, -8
 273 0002 FFF7FEFF 		bl	dbg_check_enter_isr
 274              		.loc 1 211 0
 275 0006 0848     		ldr	r0, .L20
ARM GAS  C:\Users\DNIEL~1\AppData\Local\Temp\cc49VrPb.s 			page 6


 276              		.loc 1 209 0
 277 0008 084A     		ldr	r2, .L20+4
 278              		.loc 1 211 0
 279 000a 036A     		ldr	r3, [r0, #32]
 280              		.loc 1 210 0
 281 000c 3D24     		movs	r4, #61
 282              		.loc 1 209 0
 283 000e 5168     		ldr	r1, [r2, #4]
 284              	.LVL12:
 285              		.loc 1 210 0
 286 0010 D460     		str	r4, [r2, #12]
 287              		.loc 1 211 0
 288 0012 13B1     		cbz	r3, .L19
 289              		.loc 1 212 0
 290 0014 406A     		ldr	r0, [r0, #36]
 291 0016 2140     		ands	r1, r1, r4
 292              	.LVL13:
 293 0018 9847     		blx	r3
 294              	.LVL14:
 295              	.L19:
 296              		.loc 1 214 0
 297 001a FFF7FEFF 		bl	dbg_check_leave_isr
 298              		.loc 1 215 0
 299 001e BDE81040 		pop	{r4, lr}
 300              		.loc 1 214 0
 301 0022 FFF7FEBF 		b	_port_irq_epilogue
 302              	.L21:
 303 0026 00BF     		.align	2
 304              	.L20:
 305 0028 00000000 		.word	.LANCHOR0
 306 002c 00600240 		.word	1073897472
 307              		.cfi_endproc
 308              	.LFE122:
 309              		.size	Vector7C, .-Vector7C
 310              		.section	.text.Vector80,"ax",%progbits
 311              		.align	2
 312              		.p2align 4,,15
 313              		.global	Vector80
 314              		.thumb
 315              		.thumb_func
 316              		.type	Vector80, %function
 317              	Vector80:
 318              	.LFB123:
 319              		.loc 1 222 0
 320              		.cfi_startproc
 321              		@ args = 0, pretend = 0, frame = 0
 322              		@ frame_needed = 0, uses_anonymous_args = 0
 323 0000 10B5     		push	{r4, lr}
 324              	.LCFI5:
 325              		.cfi_def_cfa_offset 8
 326              		.loc 1 225 0
 327              		.cfi_offset 14, -4
 328              		.cfi_offset 4, -8
 329 0002 FFF7FEFF 		bl	dbg_check_enter_isr
 330              		.loc 1 229 0
 331 0006 0948     		ldr	r0, .L24
 332              		.loc 1 227 0
ARM GAS  C:\Users\DNIEL~1\AppData\Local\Temp\cc49VrPb.s 			page 7


 333 0008 094A     		ldr	r2, .L24+4
 334              		.loc 1 229 0
 335 000a 836A     		ldr	r3, [r0, #40]
 336              		.loc 1 228 0
 337 000c 4FF47464 		mov	r4, #3904
 338              		.loc 1 227 0
 339 0010 5168     		ldr	r1, [r2, #4]
 340              	.LVL15:
 341              		.loc 1 228 0
 342 0012 D460     		str	r4, [r2, #12]
 343              		.loc 1 229 0
 344 0014 23B1     		cbz	r3, .L23
 345              		.loc 1 227 0
 346 0016 8909     		lsrs	r1, r1, #6
 347              	.LVL16:
 348              		.loc 1 230 0
 349 0018 C06A     		ldr	r0, [r0, #44]
 350 001a 01F03D01 		and	r1, r1, #61
 351              	.LVL17:
 352 001e 9847     		blx	r3
 353              	.L23:
 354              		.loc 1 232 0
 355 0020 FFF7FEFF 		bl	dbg_check_leave_isr
 356              		.loc 1 233 0
 357 0024 BDE81040 		pop	{r4, lr}
 358              		.loc 1 232 0
 359 0028 FFF7FEBF 		b	_port_irq_epilogue
 360              	.L25:
 361              		.align	2
 362              	.L24:
 363 002c 00000000 		.word	.LANCHOR0
 364 0030 00600240 		.word	1073897472
 365              		.cfi_endproc
 366              	.LFE123:
 367              		.size	Vector80, .-Vector80
 368 0034 AFF30080 		.section	.text.Vector84,"ax",%progbits
 368      AFF30080 
 368      AFF30080 
 369              		.align	2
 370              		.p2align 4,,15
 371              		.global	Vector84
 372              		.thumb
 373              		.thumb_func
 374              		.type	Vector84, %function
 375              	Vector84:
 376              	.LFB124:
 377              		.loc 1 240 0
 378              		.cfi_startproc
 379              		@ args = 0, pretend = 0, frame = 0
 380              		@ frame_needed = 0, uses_anonymous_args = 0
 381 0000 10B5     		push	{r4, lr}
 382              	.LCFI6:
 383              		.cfi_def_cfa_offset 8
 384              		.loc 1 243 0
 385              		.cfi_offset 14, -4
 386              		.cfi_offset 4, -8
 387 0002 FFF7FEFF 		bl	dbg_check_enter_isr
ARM GAS  C:\Users\DNIEL~1\AppData\Local\Temp\cc49VrPb.s 			page 8


 388              		.loc 1 247 0
 389 0006 0948     		ldr	r0, .L28
 390              		.loc 1 245 0
 391 0008 094A     		ldr	r2, .L28+4
 392              		.loc 1 247 0
 393 000a 036B     		ldr	r3, [r0, #48]
 394              		.loc 1 246 0
 395 000c 4FF47414 		mov	r4, #3997696
 396              		.loc 1 245 0
 397 0010 5168     		ldr	r1, [r2, #4]
 398              	.LVL18:
 399              		.loc 1 246 0
 400 0012 D460     		str	r4, [r2, #12]
 401              		.loc 1 247 0
 402 0014 23B1     		cbz	r3, .L27
 403              		.loc 1 245 0
 404 0016 090C     		lsrs	r1, r1, #16
 405              	.LVL19:
 406              		.loc 1 248 0
 407 0018 406B     		ldr	r0, [r0, #52]
 408 001a 01F03D01 		and	r1, r1, #61
 409              	.LVL20:
 410 001e 9847     		blx	r3
 411              	.L27:
 412              		.loc 1 250 0
 413 0020 FFF7FEFF 		bl	dbg_check_leave_isr
 414              		.loc 1 251 0
 415 0024 BDE81040 		pop	{r4, lr}
 416              		.loc 1 250 0
 417 0028 FFF7FEBF 		b	_port_irq_epilogue
 418              	.L29:
 419              		.align	2
 420              	.L28:
 421 002c 00000000 		.word	.LANCHOR0
 422 0030 00600240 		.word	1073897472
 423              		.cfi_endproc
 424              	.LFE124:
 425              		.size	Vector84, .-Vector84
 426 0034 AFF30080 		.section	.text.VectorFC,"ax",%progbits
 426      AFF30080 
 426      AFF30080 
 427              		.align	2
 428              		.p2align 4,,15
 429              		.global	VectorFC
 430              		.thumb
 431              		.thumb_func
 432              		.type	VectorFC, %function
 433              	VectorFC:
 434              	.LFB125:
 435              		.loc 1 258 0
 436              		.cfi_startproc
 437              		@ args = 0, pretend = 0, frame = 0
 438              		@ frame_needed = 0, uses_anonymous_args = 0
 439 0000 10B5     		push	{r4, lr}
 440              	.LCFI7:
 441              		.cfi_def_cfa_offset 8
 442              		.loc 1 261 0
ARM GAS  C:\Users\DNIEL~1\AppData\Local\Temp\cc49VrPb.s 			page 9


 443              		.cfi_offset 14, -4
 444              		.cfi_offset 4, -8
 445 0002 FFF7FEFF 		bl	dbg_check_enter_isr
 446              		.loc 1 265 0
 447 0006 0948     		ldr	r0, .L32
 448              		.loc 1 263 0
 449 0008 094A     		ldr	r2, .L32+4
 450              		.loc 1 265 0
 451 000a 836B     		ldr	r3, [r0, #56]
 452              		.loc 1 264 0
 453 000c 4FF07464 		mov	r4, #255852544
 454              		.loc 1 263 0
 455 0010 5168     		ldr	r1, [r2, #4]
 456              	.LVL21:
 457              		.loc 1 264 0
 458 0012 D460     		str	r4, [r2, #12]
 459              		.loc 1 265 0
 460 0014 23B1     		cbz	r3, .L31
 461              		.loc 1 263 0
 462 0016 890D     		lsrs	r1, r1, #22
 463              	.LVL22:
 464              		.loc 1 266 0
 465 0018 C06B     		ldr	r0, [r0, #60]
 466 001a 01F03D01 		and	r1, r1, #61
 467              	.LVL23:
 468 001e 9847     		blx	r3
 469              	.L31:
 470              		.loc 1 268 0
 471 0020 FFF7FEFF 		bl	dbg_check_leave_isr
 472              		.loc 1 269 0
 473 0024 BDE81040 		pop	{r4, lr}
 474              		.loc 1 268 0
 475 0028 FFF7FEBF 		b	_port_irq_epilogue
 476              	.L33:
 477              		.align	2
 478              	.L32:
 479 002c 00000000 		.word	.LANCHOR0
 480 0030 00600240 		.word	1073897472
 481              		.cfi_endproc
 482              	.LFE125:
 483              		.size	VectorFC, .-VectorFC
 484 0034 AFF30080 		.section	.text.Vector120,"ax",%progbits
 484      AFF30080 
 484      AFF30080 
 485              		.align	2
 486              		.p2align 4,,15
 487              		.global	Vector120
 488              		.thumb
 489              		.thumb_func
 490              		.type	Vector120, %function
 491              	Vector120:
 492              	.LFB126:
 493              		.loc 1 276 0
 494              		.cfi_startproc
 495              		@ args = 0, pretend = 0, frame = 0
 496              		@ frame_needed = 0, uses_anonymous_args = 0
 497 0000 10B5     		push	{r4, lr}
ARM GAS  C:\Users\DNIEL~1\AppData\Local\Temp\cc49VrPb.s 			page 10


 498              	.LCFI8:
 499              		.cfi_def_cfa_offset 8
 500              		.loc 1 279 0
 501              		.cfi_offset 14, -4
 502              		.cfi_offset 4, -8
 503 0002 FFF7FEFF 		bl	dbg_check_enter_isr
 504              		.loc 1 283 0
 505 0006 0848     		ldr	r0, .L36
 506              		.loc 1 281 0
 507 0008 084A     		ldr	r2, .L36+4
 508              		.loc 1 283 0
 509 000a 036C     		ldr	r3, [r0, #64]
 510              		.loc 1 282 0
 511 000c 3D24     		movs	r4, #61
 512              		.loc 1 281 0
 513 000e 1168     		ldr	r1, [r2, #0]
 514              	.LVL24:
 515              		.loc 1 282 0
 516 0010 9460     		str	r4, [r2, #8]
 517              		.loc 1 283 0
 518 0012 13B1     		cbz	r3, .L35
 519              		.loc 1 284 0
 520 0014 406C     		ldr	r0, [r0, #68]
 521 0016 2140     		ands	r1, r1, r4
 522              	.LVL25:
 523 0018 9847     		blx	r3
 524              	.LVL26:
 525              	.L35:
 526              		.loc 1 286 0
 527 001a FFF7FEFF 		bl	dbg_check_leave_isr
 528              		.loc 1 287 0
 529 001e BDE81040 		pop	{r4, lr}
 530              		.loc 1 286 0
 531 0022 FFF7FEBF 		b	_port_irq_epilogue
 532              	.L37:
 533 0026 00BF     		.align	2
 534              	.L36:
 535 0028 00000000 		.word	.LANCHOR0
 536 002c 00640240 		.word	1073898496
 537              		.cfi_endproc
 538              	.LFE126:
 539              		.size	Vector120, .-Vector120
 540              		.section	.text.Vector124,"ax",%progbits
 541              		.align	2
 542              		.p2align 4,,15
 543              		.global	Vector124
 544              		.thumb
 545              		.thumb_func
 546              		.type	Vector124, %function
 547              	Vector124:
 548              	.LFB127:
 549              		.loc 1 294 0
 550              		.cfi_startproc
 551              		@ args = 0, pretend = 0, frame = 0
 552              		@ frame_needed = 0, uses_anonymous_args = 0
 553 0000 10B5     		push	{r4, lr}
 554              	.LCFI9:
ARM GAS  C:\Users\DNIEL~1\AppData\Local\Temp\cc49VrPb.s 			page 11


 555              		.cfi_def_cfa_offset 8
 556              		.loc 1 297 0
 557              		.cfi_offset 14, -4
 558              		.cfi_offset 4, -8
 559 0002 FFF7FEFF 		bl	dbg_check_enter_isr
 560              		.loc 1 301 0
 561 0006 0948     		ldr	r0, .L40
 562              		.loc 1 299 0
 563 0008 094A     		ldr	r2, .L40+4
 564              		.loc 1 301 0
 565 000a 836C     		ldr	r3, [r0, #72]
 566              		.loc 1 300 0
 567 000c 4FF47464 		mov	r4, #3904
 568              		.loc 1 299 0
 569 0010 1168     		ldr	r1, [r2, #0]
 570              	.LVL27:
 571              		.loc 1 300 0
 572 0012 9460     		str	r4, [r2, #8]
 573              		.loc 1 301 0
 574 0014 23B1     		cbz	r3, .L39
 575              		.loc 1 299 0
 576 0016 8909     		lsrs	r1, r1, #6
 577              	.LVL28:
 578              		.loc 1 302 0
 579 0018 C06C     		ldr	r0, [r0, #76]
 580 001a 01F03D01 		and	r1, r1, #61
 581              	.LVL29:
 582 001e 9847     		blx	r3
 583              	.L39:
 584              		.loc 1 304 0
 585 0020 FFF7FEFF 		bl	dbg_check_leave_isr
 586              		.loc 1 305 0
 587 0024 BDE81040 		pop	{r4, lr}
 588              		.loc 1 304 0
 589 0028 FFF7FEBF 		b	_port_irq_epilogue
 590              	.L41:
 591              		.align	2
 592              	.L40:
 593 002c 00000000 		.word	.LANCHOR0
 594 0030 00640240 		.word	1073898496
 595              		.cfi_endproc
 596              	.LFE127:
 597              		.size	Vector124, .-Vector124
 598 0034 AFF30080 		.section	.text.Vector128,"ax",%progbits
 598      AFF30080 
 598      AFF30080 
 599              		.align	2
 600              		.p2align 4,,15
 601              		.global	Vector128
 602              		.thumb
 603              		.thumb_func
 604              		.type	Vector128, %function
 605              	Vector128:
 606              	.LFB128:
 607              		.loc 1 312 0
 608              		.cfi_startproc
 609              		@ args = 0, pretend = 0, frame = 0
ARM GAS  C:\Users\DNIEL~1\AppData\Local\Temp\cc49VrPb.s 			page 12


 610              		@ frame_needed = 0, uses_anonymous_args = 0
 611 0000 10B5     		push	{r4, lr}
 612              	.LCFI10:
 613              		.cfi_def_cfa_offset 8
 614              		.loc 1 315 0
 615              		.cfi_offset 14, -4
 616              		.cfi_offset 4, -8
 617 0002 FFF7FEFF 		bl	dbg_check_enter_isr
 618              		.loc 1 319 0
 619 0006 0948     		ldr	r0, .L44
 620              		.loc 1 317 0
 621 0008 094A     		ldr	r2, .L44+4
 622              		.loc 1 319 0
 623 000a 036D     		ldr	r3, [r0, #80]
 624              		.loc 1 318 0
 625 000c 4FF47414 		mov	r4, #3997696
 626              		.loc 1 317 0
 627 0010 1168     		ldr	r1, [r2, #0]
 628              	.LVL30:
 629              		.loc 1 318 0
 630 0012 9460     		str	r4, [r2, #8]
 631              		.loc 1 319 0
 632 0014 23B1     		cbz	r3, .L43
 633              		.loc 1 317 0
 634 0016 090C     		lsrs	r1, r1, #16
 635              	.LVL31:
 636              		.loc 1 320 0
 637 0018 406D     		ldr	r0, [r0, #84]
 638 001a 01F03D01 		and	r1, r1, #61
 639              	.LVL32:
 640 001e 9847     		blx	r3
 641              	.L43:
 642              		.loc 1 322 0
 643 0020 FFF7FEFF 		bl	dbg_check_leave_isr
 644              		.loc 1 323 0
 645 0024 BDE81040 		pop	{r4, lr}
 646              		.loc 1 322 0
 647 0028 FFF7FEBF 		b	_port_irq_epilogue
 648              	.L45:
 649              		.align	2
 650              	.L44:
 651 002c 00000000 		.word	.LANCHOR0
 652 0030 00640240 		.word	1073898496
 653              		.cfi_endproc
 654              	.LFE128:
 655              		.size	Vector128, .-Vector128
 656 0034 AFF30080 		.section	.text.Vector12C,"ax",%progbits
 656      AFF30080 
 656      AFF30080 
 657              		.align	2
 658              		.p2align 4,,15
 659              		.global	Vector12C
 660              		.thumb
 661              		.thumb_func
 662              		.type	Vector12C, %function
 663              	Vector12C:
 664              	.LFB129:
ARM GAS  C:\Users\DNIEL~1\AppData\Local\Temp\cc49VrPb.s 			page 13


 665              		.loc 1 330 0
 666              		.cfi_startproc
 667              		@ args = 0, pretend = 0, frame = 0
 668              		@ frame_needed = 0, uses_anonymous_args = 0
 669 0000 10B5     		push	{r4, lr}
 670              	.LCFI11:
 671              		.cfi_def_cfa_offset 8
 672              		.loc 1 333 0
 673              		.cfi_offset 14, -4
 674              		.cfi_offset 4, -8
 675 0002 FFF7FEFF 		bl	dbg_check_enter_isr
 676              		.loc 1 337 0
 677 0006 0948     		ldr	r0, .L48
 678              		.loc 1 335 0
 679 0008 094A     		ldr	r2, .L48+4
 680              		.loc 1 337 0
 681 000a 836D     		ldr	r3, [r0, #88]
 682              		.loc 1 336 0
 683 000c 4FF07464 		mov	r4, #255852544
 684              		.loc 1 335 0
 685 0010 1168     		ldr	r1, [r2, #0]
 686              	.LVL33:
 687              		.loc 1 336 0
 688 0012 9460     		str	r4, [r2, #8]
 689              		.loc 1 337 0
 690 0014 23B1     		cbz	r3, .L47
 691              		.loc 1 335 0
 692 0016 890D     		lsrs	r1, r1, #22
 693              	.LVL34:
 694              		.loc 1 338 0
 695 0018 C06D     		ldr	r0, [r0, #92]
 696 001a 01F03D01 		and	r1, r1, #61
 697              	.LVL35:
 698 001e 9847     		blx	r3
 699              	.L47:
 700              		.loc 1 340 0
 701 0020 FFF7FEFF 		bl	dbg_check_leave_isr
 702              		.loc 1 341 0
 703 0024 BDE81040 		pop	{r4, lr}
 704              		.loc 1 340 0
 705 0028 FFF7FEBF 		b	_port_irq_epilogue
 706              	.L49:
 707              		.align	2
 708              	.L48:
 709 002c 00000000 		.word	.LANCHOR0
 710 0030 00640240 		.word	1073898496
 711              		.cfi_endproc
 712              	.LFE129:
 713              		.size	Vector12C, .-Vector12C
 714 0034 AFF30080 		.section	.text.Vector130,"ax",%progbits
 714      AFF30080 
 714      AFF30080 
 715              		.align	2
 716              		.p2align 4,,15
 717              		.global	Vector130
 718              		.thumb
 719              		.thumb_func
ARM GAS  C:\Users\DNIEL~1\AppData\Local\Temp\cc49VrPb.s 			page 14


 720              		.type	Vector130, %function
 721              	Vector130:
 722              	.LFB130:
 723              		.loc 1 348 0
 724              		.cfi_startproc
 725              		@ args = 0, pretend = 0, frame = 0
 726              		@ frame_needed = 0, uses_anonymous_args = 0
 727 0000 10B5     		push	{r4, lr}
 728              	.LCFI12:
 729              		.cfi_def_cfa_offset 8
 730              		.loc 1 351 0
 731              		.cfi_offset 14, -4
 732              		.cfi_offset 4, -8
 733 0002 FFF7FEFF 		bl	dbg_check_enter_isr
 734              		.loc 1 355 0
 735 0006 0848     		ldr	r0, .L52
 736              		.loc 1 353 0
 737 0008 084A     		ldr	r2, .L52+4
 738              		.loc 1 355 0
 739 000a 036E     		ldr	r3, [r0, #96]
 740              		.loc 1 354 0
 741 000c 3D24     		movs	r4, #61
 742              		.loc 1 353 0
 743 000e 5168     		ldr	r1, [r2, #4]
 744              	.LVL36:
 745              		.loc 1 354 0
 746 0010 D460     		str	r4, [r2, #12]
 747              		.loc 1 355 0
 748 0012 13B1     		cbz	r3, .L51
 749              		.loc 1 356 0
 750 0014 406E     		ldr	r0, [r0, #100]
 751 0016 2140     		ands	r1, r1, r4
 752              	.LVL37:
 753 0018 9847     		blx	r3
 754              	.LVL38:
 755              	.L51:
 756              		.loc 1 358 0
 757 001a FFF7FEFF 		bl	dbg_check_leave_isr
 758              		.loc 1 359 0
 759 001e BDE81040 		pop	{r4, lr}
 760              		.loc 1 358 0
 761 0022 FFF7FEBF 		b	_port_irq_epilogue
 762              	.L53:
 763 0026 00BF     		.align	2
 764              	.L52:
 765 0028 00000000 		.word	.LANCHOR0
 766 002c 00640240 		.word	1073898496
 767              		.cfi_endproc
 768              	.LFE130:
 769              		.size	Vector130, .-Vector130
 770              		.section	.text.Vector150,"ax",%progbits
 771              		.align	2
 772              		.p2align 4,,15
 773              		.global	Vector150
 774              		.thumb
 775              		.thumb_func
 776              		.type	Vector150, %function
ARM GAS  C:\Users\DNIEL~1\AppData\Local\Temp\cc49VrPb.s 			page 15


 777              	Vector150:
 778              	.LFB131:
 779              		.loc 1 366 0
 780              		.cfi_startproc
 781              		@ args = 0, pretend = 0, frame = 0
 782              		@ frame_needed = 0, uses_anonymous_args = 0
 783 0000 10B5     		push	{r4, lr}
 784              	.LCFI13:
 785              		.cfi_def_cfa_offset 8
 786              		.loc 1 369 0
 787              		.cfi_offset 14, -4
 788              		.cfi_offset 4, -8
 789 0002 FFF7FEFF 		bl	dbg_check_enter_isr
 790              		.loc 1 373 0
 791 0006 0948     		ldr	r0, .L56
 792              		.loc 1 371 0
 793 0008 094A     		ldr	r2, .L56+4
 794              		.loc 1 373 0
 795 000a 836E     		ldr	r3, [r0, #104]
 796              		.loc 1 372 0
 797 000c 4FF47464 		mov	r4, #3904
 798              		.loc 1 371 0
 799 0010 5168     		ldr	r1, [r2, #4]
 800              	.LVL39:
 801              		.loc 1 372 0
 802 0012 D460     		str	r4, [r2, #12]
 803              		.loc 1 373 0
 804 0014 23B1     		cbz	r3, .L55
 805              		.loc 1 371 0
 806 0016 8909     		lsrs	r1, r1, #6
 807              	.LVL40:
 808              		.loc 1 374 0
 809 0018 C06E     		ldr	r0, [r0, #108]
 810 001a 01F03D01 		and	r1, r1, #61
 811              	.LVL41:
 812 001e 9847     		blx	r3
 813              	.L55:
 814              		.loc 1 376 0
 815 0020 FFF7FEFF 		bl	dbg_check_leave_isr
 816              		.loc 1 377 0
 817 0024 BDE81040 		pop	{r4, lr}
 818              		.loc 1 376 0
 819 0028 FFF7FEBF 		b	_port_irq_epilogue
 820              	.L57:
 821              		.align	2
 822              	.L56:
 823 002c 00000000 		.word	.LANCHOR0
 824 0030 00640240 		.word	1073898496
 825              		.cfi_endproc
 826              	.LFE131:
 827              		.size	Vector150, .-Vector150
 828 0034 AFF30080 		.section	.text.Vector154,"ax",%progbits
 828      AFF30080 
 828      AFF30080 
 829              		.align	2
 830              		.p2align 4,,15
 831              		.global	Vector154
ARM GAS  C:\Users\DNIEL~1\AppData\Local\Temp\cc49VrPb.s 			page 16


 832              		.thumb
 833              		.thumb_func
 834              		.type	Vector154, %function
 835              	Vector154:
 836              	.LFB132:
 837              		.loc 1 384 0
 838              		.cfi_startproc
 839              		@ args = 0, pretend = 0, frame = 0
 840              		@ frame_needed = 0, uses_anonymous_args = 0
 841 0000 10B5     		push	{r4, lr}
 842              	.LCFI14:
 843              		.cfi_def_cfa_offset 8
 844              		.loc 1 387 0
 845              		.cfi_offset 14, -4
 846              		.cfi_offset 4, -8
 847 0002 FFF7FEFF 		bl	dbg_check_enter_isr
 848              		.loc 1 391 0
 849 0006 0948     		ldr	r0, .L60
 850              		.loc 1 389 0
 851 0008 094A     		ldr	r2, .L60+4
 852              		.loc 1 391 0
 853 000a 036F     		ldr	r3, [r0, #112]
 854              		.loc 1 390 0
 855 000c 4FF47414 		mov	r4, #3997696
 856              		.loc 1 389 0
 857 0010 5168     		ldr	r1, [r2, #4]
 858              	.LVL42:
 859              		.loc 1 390 0
 860 0012 D460     		str	r4, [r2, #12]
 861              		.loc 1 391 0
 862 0014 23B1     		cbz	r3, .L59
 863              		.loc 1 389 0
 864 0016 090C     		lsrs	r1, r1, #16
 865              	.LVL43:
 866              		.loc 1 392 0
 867 0018 406F     		ldr	r0, [r0, #116]
 868 001a 01F03D01 		and	r1, r1, #61
 869              	.LVL44:
 870 001e 9847     		blx	r3
 871              	.L59:
 872              		.loc 1 394 0
 873 0020 FFF7FEFF 		bl	dbg_check_leave_isr
 874              		.loc 1 395 0
 875 0024 BDE81040 		pop	{r4, lr}
 876              		.loc 1 394 0
 877 0028 FFF7FEBF 		b	_port_irq_epilogue
 878              	.L61:
 879              		.align	2
 880              	.L60:
 881 002c 00000000 		.word	.LANCHOR0
 882 0030 00640240 		.word	1073898496
 883              		.cfi_endproc
 884              	.LFE132:
 885              		.size	Vector154, .-Vector154
 886 0034 AFF30080 		.section	.text.Vector158,"ax",%progbits
 886      AFF30080 
 886      AFF30080 
ARM GAS  C:\Users\DNIEL~1\AppData\Local\Temp\cc49VrPb.s 			page 17


 887              		.align	2
 888              		.p2align 4,,15
 889              		.global	Vector158
 890              		.thumb
 891              		.thumb_func
 892              		.type	Vector158, %function
 893              	Vector158:
 894              	.LFB133:
 895              		.loc 1 402 0
 896              		.cfi_startproc
 897              		@ args = 0, pretend = 0, frame = 0
 898              		@ frame_needed = 0, uses_anonymous_args = 0
 899 0000 10B5     		push	{r4, lr}
 900              	.LCFI15:
 901              		.cfi_def_cfa_offset 8
 902              		.loc 1 405 0
 903              		.cfi_offset 14, -4
 904              		.cfi_offset 4, -8
 905 0002 FFF7FEFF 		bl	dbg_check_enter_isr
 906              		.loc 1 409 0
 907 0006 0948     		ldr	r0, .L64
 908              		.loc 1 407 0
 909 0008 094A     		ldr	r2, .L64+4
 910              		.loc 1 409 0
 911 000a 836F     		ldr	r3, [r0, #120]
 912              		.loc 1 408 0
 913 000c 4FF07464 		mov	r4, #255852544
 914              		.loc 1 407 0
 915 0010 5168     		ldr	r1, [r2, #4]
 916              	.LVL45:
 917              		.loc 1 408 0
 918 0012 D460     		str	r4, [r2, #12]
 919              		.loc 1 409 0
 920 0014 23B1     		cbz	r3, .L63
 921              		.loc 1 407 0
 922 0016 890D     		lsrs	r1, r1, #22
 923              	.LVL46:
 924              		.loc 1 410 0
 925 0018 C06F     		ldr	r0, [r0, #124]
 926 001a 01F03D01 		and	r1, r1, #61
 927              	.LVL47:
 928 001e 9847     		blx	r3
 929              	.L63:
 930              		.loc 1 412 0
 931 0020 FFF7FEFF 		bl	dbg_check_leave_isr
 932              		.loc 1 413 0
 933 0024 BDE81040 		pop	{r4, lr}
 934              		.loc 1 412 0
 935 0028 FFF7FEBF 		b	_port_irq_epilogue
 936              	.L65:
 937              		.align	2
 938              	.L64:
 939 002c 00000000 		.word	.LANCHOR0
 940 0030 00640240 		.word	1073898496
 941              		.cfi_endproc
 942              	.LFE133:
 943              		.size	Vector158, .-Vector158
ARM GAS  C:\Users\DNIEL~1\AppData\Local\Temp\cc49VrPb.s 			page 18


 944 0034 AFF30080 		.section	.text.dmaInit,"ax",%progbits
 944      AFF30080 
 944      AFF30080 
 945              		.align	2
 946              		.p2align 4,,15
 947              		.global	dmaInit
 948              		.thumb
 949              		.thumb_func
 950              		.type	dmaInit, %function
 951              	dmaInit:
 952              	.LFB134:
 953              		.loc 1 424 0
 954              		.cfi_startproc
 955              		@ args = 0, pretend = 0, frame = 0
 956              		@ frame_needed = 0, uses_anonymous_args = 0
 957              		@ link register save eliminated.
 958              		.loc 1 429 0
 959 0000 2A49     		ldr	r1, .L67
 960              		.loc 1 424 0
 961 0002 2DE9F00F 		push	{r4, r5, r6, r7, r8, r9, sl, fp}
 962              	.LCFI16:
 963              		.cfi_def_cfa_offset 32
 964              		.loc 1 429 0
 965 0006 C868     		ldr	r0, [r1, #12]
 966 0008 0C68     		ldr	r4, [r1, #0]
 967              		.cfi_offset 11, -4
 968              		.cfi_offset 10, -8
 969              		.cfi_offset 9, -12
 970              		.cfi_offset 8, -16
 971              		.cfi_offset 7, -20
 972              		.cfi_offset 6, -24
 973              		.cfi_offset 5, -28
 974              		.cfi_offset 4, -32
 975 000a D1F818A0 		ldr	sl, [r1, #24]
 976 000e D1F83080 		ldr	r8, [r1, #48]
 977 0012 D1F83CC0 		ldr	ip, [r1, #60]
 978 0016 8F6C     		ldr	r7, [r1, #72]
 979 0018 4E6D     		ldr	r6, [r1, #84]
 980 001a 0D6E     		ldr	r5, [r1, #96]
 981 001c D1F82490 		ldr	r9, [r1, #36]
 982              		.loc 1 427 0
 983 0020 0023     		movs	r3, #0
 984              		.loc 1 430 0
 985 0022 234A     		ldr	r2, .L67+4
 986              		.loc 1 429 0
 987 0024 2360     		str	r3, [r4, #0]
 988 0026 D1F86CB0 		ldr	fp, [r1, #108]
 989 002a 0360     		str	r3, [r0, #0]
 990 002c CAF80030 		str	r3, [sl, #0]
 991 0030 C9F80030 		str	r3, [r9, #0]
 992              		.loc 1 427 0
 993 0034 DFF884A0 		ldr	sl, .L67+16
 994              		.loc 1 429 0
 995 0038 C8F80030 		str	r3, [r8, #0]
 996 003c CCF80030 		str	r3, [ip, #0]
 997 0040 3B60     		str	r3, [r7, #0]
 998 0042 3360     		str	r3, [r6, #0]
ARM GAS  C:\Users\DNIEL~1\AppData\Local\Temp\cc49VrPb.s 			page 19


 999 0044 2B60     		str	r3, [r5, #0]
 1000 0046 8D6F     		ldr	r5, [r1, #120]
 1001              		.loc 1 432 0
 1002 0048 1A4C     		ldr	r4, .L67+8
 1003              		.loc 1 434 0
 1004 004a 1B48     		ldr	r0, .L67+12
 1005              		.loc 1 427 0
 1006 004c CAF80030 		str	r3, [sl, #0]
 1007              	.LVL48:
 1008              		.loc 1 430 0
 1009 0050 1360     		str	r3, [r2, #0]
 1010              	.LVL49:
 1011 0052 9360     		str	r3, [r2, #8]
 1012              	.LVL50:
 1013 0054 1361     		str	r3, [r2, #16]
 1014              	.LVL51:
 1015 0056 9361     		str	r3, [r2, #24]
 1016              	.LVL52:
 1017 0058 1362     		str	r3, [r2, #32]
 1018              	.LVL53:
 1019 005a 9362     		str	r3, [r2, #40]
 1020              	.LVL54:
 1021              		.loc 1 429 0
 1022 005c CBF80030 		str	r3, [fp, #0]
 1023              		.loc 1 430 0
 1024 0060 1363     		str	r3, [r2, #48]
 1025              	.LVL55:
 1026 0062 9363     		str	r3, [r2, #56]
 1027              	.LVL56:
 1028 0064 1364     		str	r3, [r2, #64]
 1029              	.LVL57:
 1030 0066 9364     		str	r3, [r2, #72]
 1031              	.LVL58:
 1032              		.loc 1 429 0
 1033 0068 2B60     		str	r3, [r5, #0]
 1034 006a D1F88480 		ldr	r8, [r1, #132]
 1035 006e D1F890C0 		ldr	ip, [r1, #144]
 1036 0072 D1F89C70 		ldr	r7, [r1, #156]
 1037 0076 D1F8A860 		ldr	r6, [r1, #168]
 1038 007a D1F8B450 		ldr	r5, [r1, #180]
 1039              		.loc 1 432 0
 1040 007e 4FF0FF31 		mov	r1, #-1
 1041              		.loc 1 429 0
 1042 0082 C8F80030 		str	r3, [r8, #0]
 1043              		.loc 1 430 0
 1044 0086 1365     		str	r3, [r2, #80]
 1045              	.LVL59:
 1046              		.loc 1 429 0
 1047 0088 CCF80030 		str	r3, [ip, #0]
 1048              		.loc 1 430 0
 1049 008c 9365     		str	r3, [r2, #88]
 1050              	.LVL60:
 1051              		.loc 1 429 0
 1052 008e 3B60     		str	r3, [r7, #0]
 1053              		.loc 1 430 0
 1054 0090 1366     		str	r3, [r2, #96]
 1055              	.LVL61:
ARM GAS  C:\Users\DNIEL~1\AppData\Local\Temp\cc49VrPb.s 			page 20


 1056              		.loc 1 429 0
 1057 0092 3360     		str	r3, [r6, #0]
 1058              		.loc 1 430 0
 1059 0094 9366     		str	r3, [r2, #104]
 1060              	.LVL62:
 1061 0096 1367     		str	r3, [r2, #112]
 1062              	.LVL63:
 1063              		.loc 1 429 0
 1064 0098 2B60     		str	r3, [r5, #0]
 1065              		.loc 1 430 0
 1066 009a 9367     		str	r3, [r2, #120]
 1067              	.LVL64:
 1068              		.loc 1 432 0
 1069 009c A160     		str	r1, [r4, #8]
 1070              		.loc 1 433 0
 1071 009e E160     		str	r1, [r4, #12]
 1072              		.loc 1 434 0
 1073 00a0 8160     		str	r1, [r0, #8]
 1074              		.loc 1 435 0
 1075 00a2 C160     		str	r1, [r0, #12]
 1076              		.loc 1 436 0
 1077 00a4 BDE8F00F 		pop	{r4, r5, r6, r7, r8, r9, sl, fp}
 1078 00a8 7047     		bx	lr
 1079              	.L68:
 1080 00aa 00BF     		.align	2
 1081              	.L67:
 1082 00ac 00000000 		.word	.LANCHOR2
 1083 00b0 00000000 		.word	.LANCHOR0
 1084 00b4 00600240 		.word	1073897472
 1085 00b8 00640240 		.word	1073898496
 1086 00bc 00000000 		.word	.LANCHOR1
 1087              		.cfi_endproc
 1088              	.LFE134:
 1089              		.size	dmaInit, .-dmaInit
 1090              		.section	.text.dmaStreamAllocate,"ax",%progbits
 1091              		.align	2
 1092              		.p2align 4,,15
 1093              		.global	dmaStreamAllocate
 1094              		.thumb
 1095              		.thumb_func
 1096              		.type	dmaStreamAllocate, %function
 1097              	dmaStreamAllocate:
 1098              	.LFB135:
 1099              		.loc 1 465 0
 1100              		.cfi_startproc
 1101              		@ args = 0, pretend = 0, frame = 16
 1102              		@ frame_needed = 0, uses_anonymous_args = 0
 1103              	.LVL65:
 1104 0000 F0B5     		push	{r4, r5, r6, r7, lr}
 1105              	.LCFI17:
 1106              		.cfi_def_cfa_offset 20
 1107              		.loc 1 467 0
 1108 0002 0446     		mov	r4, r0
 1109              		.cfi_offset 14, -4
 1110              		.cfi_offset 7, -8
 1111              		.cfi_offset 6, -12
 1112              		.cfi_offset 5, -16
ARM GAS  C:\Users\DNIEL~1\AppData\Local\Temp\cc49VrPb.s 			page 21


 1113              		.cfi_offset 4, -20
 1114              		.loc 1 465 0
 1115 0004 85B0     		sub	sp, sp, #20
 1116              	.LCFI18:
 1117              		.cfi_def_cfa_offset 40
 1118              		.loc 1 467 0
 1119 0006 0028     		cmp	r0, #0
 1120 0008 40D0     		beq	.L78
 1121              	.LVL66:
 1122              	.L70:
 1123              		.loc 1 470 0
 1124 000a 667A     		ldrb	r6, [r4, #9]	@ zero_extendqisi2
 1125 000c 0125     		movs	r5, #1
 1126 000e 05FA06FC 		lsl	ip, r5, r6
 1127 0012 234F     		ldr	r7, .L80
 1128 0014 3868     		ldr	r0, [r7, #0]
 1129 0016 1CEA000F 		tst	ip, r0
 1130 001a 33D1     		bne	.L75
 1131              		.loc 1 474 0
 1132 001c 214D     		ldr	r5, .L80+4
 1133              		.loc 1 476 0
 1134 001e 4CEA0000 		orr	r0, ip, r0
 1135              		.loc 1 479 0
 1136 0022 10F0FF0F 		tst	r0, #255
 1137              		.loc 1 475 0
 1138 0026 05EBC60C 		add	ip, r5, r6, lsl #3
 1139              		.loc 1 474 0
 1140 002a 45F83620 		str	r2, [r5, r6, lsl #3]
 1141              		.loc 1 475 0
 1142 002e CCF80430 		str	r3, [ip, #4]
 1143              		.loc 1 476 0
 1144 0032 3860     		str	r0, [r7, #0]
 1145              		.loc 1 479 0
 1146 0034 04D0     		beq	.L72
 1147              		.loc 1 480 0
 1148 0036 1C4B     		ldr	r3, .L80+8
 1149 0038 1D6B     		ldr	r5, [r3, #48]
 1150 003a 45F40016 		orr	r6, r5, #2097152
 1151 003e 1E63     		str	r6, [r3, #48]
 1152              	.L72:
 1153              		.loc 1 481 0
 1154 0040 10F47F4F 		tst	r0, #65280
 1155 0044 18D1     		bne	.L79
 1156              	.L73:
 1157              		.loc 1 485 0
 1158 0046 2368     		ldr	r3, [r4, #0]
 1159 0048 1868     		ldr	r0, [r3, #0]
 1160 004a 20F00105 		bic	r5, r0, #1
 1161 004e 1D60     		str	r5, [r3, #0]
 1162              	.L74:
 1163              		.loc 1 485 0 is_stmt 0 discriminator 1
 1164 0050 1E68     		ldr	r6, [r3, #0]
 1165 0052 16F00105 		ands	r5, r6, #1
 1166 0056 FBD1     		bne	.L74
 1167              		.loc 1 485 0 discriminator 2
 1168 0058 207A     		ldrb	r0, [r4, #8]	@ zero_extendqisi2
 1169 005a 3D26     		movs	r6, #61
ARM GAS  C:\Users\DNIEL~1\AppData\Local\Temp\cc49VrPb.s 			page 22


 1170 005c 8640     		lsls	r6, r6, r0
 1171 005e 6068     		ldr	r0, [r4, #4]
 1172 0060 0660     		str	r6, [r0, #0]
 1173              		.loc 1 487 0 is_stmt 1 discriminator 2
 1174 0062 2120     		movs	r0, #33
 1175              		.loc 1 486 0 discriminator 2
 1176 0064 1D60     		str	r5, [r3, #0]
 1177              		.loc 1 487 0 discriminator 2
 1178 0066 5861     		str	r0, [r3, #20]
 1179              		.loc 1 490 0 discriminator 2
 1180 0068 72B1     		cbz	r2, .L76
 1181              		.loc 1 491 0
 1182 006a A07A     		ldrb	r0, [r4, #10]	@ zero_extendqisi2
 1183 006c 0901     		lsls	r1, r1, #4
 1184 006e FFF7FEFF 		bl	nvicEnableVector
 1185              		.loc 1 493 0
 1186 0072 2846     		mov	r0, r5
 1187              	.L71:
 1188              		.loc 1 494 0
 1189 0074 05B0     		add	sp, sp, #20
 1190 0076 F0BD     		pop	{r4, r5, r6, r7, pc}
 1191              	.L79:
 1192              		.loc 1 482 0
 1193 0078 0B4B     		ldr	r3, .L80+8
 1194 007a 1E6B     		ldr	r6, [r3, #48]
 1195 007c 46F48000 		orr	r0, r6, #4194304
 1196 0080 1863     		str	r0, [r3, #48]
 1197 0082 E0E7     		b	.L73
 1198              	.L75:
 1199              		.loc 1 471 0
 1200 0084 2846     		mov	r0, r5
 1201 0086 F5E7     		b	.L71
 1202              	.L76:
 1203              		.loc 1 493 0
 1204 0088 1046     		mov	r0, r2
 1205 008a F3E7     		b	.L71
 1206              	.LVL67:
 1207              	.L78:
 1208              		.loc 1 467 0 discriminator 1
 1209 008c 0748     		ldr	r0, .L80+12
 1210 008e 0391     		str	r1, [sp, #12]
 1211 0090 0292     		str	r2, [sp, #8]
 1212 0092 0193     		str	r3, [sp, #4]
 1213 0094 FFF7FEFF 		bl	chDbgPanic
 1214              	.LVL68:
 1215 0098 019B     		ldr	r3, [sp, #4]
 1216 009a 029A     		ldr	r2, [sp, #8]
 1217 009c 0399     		ldr	r1, [sp, #12]
 1218 009e B4E7     		b	.L70
 1219              	.L81:
 1220              		.align	2
 1221              	.L80:
 1222 00a0 00000000 		.word	.LANCHOR1
 1223 00a4 00000000 		.word	.LANCHOR0
 1224 00a8 00380240 		.word	1073887232
 1225 00ac 00000000 		.word	.LC0
 1226              		.cfi_endproc
ARM GAS  C:\Users\DNIEL~1\AppData\Local\Temp\cc49VrPb.s 			page 23


 1227              	.LFE135:
 1228              		.size	dmaStreamAllocate, .-dmaStreamAllocate
 1229              		.section	.text.dmaStreamRelease,"ax",%progbits
 1230              		.align	2
 1231              		.p2align 4,,15
 1232              		.global	dmaStreamRelease
 1233              		.thumb
 1234              		.thumb_func
 1235              		.type	dmaStreamRelease, %function
 1236              	dmaStreamRelease:
 1237              	.LFB136:
 1238              		.loc 1 509 0
 1239              		.cfi_startproc
 1240              		@ args = 0, pretend = 0, frame = 0
 1241              		@ frame_needed = 0, uses_anonymous_args = 0
 1242              	.LVL69:
 1243 0000 38B5     		push	{r3, r4, r5, lr}
 1244              	.LCFI19:
 1245              		.cfi_def_cfa_offset 16
 1246              		.loc 1 511 0
 1247 0002 0446     		mov	r4, r0
 1248              		.cfi_offset 14, -4
 1249              		.cfi_offset 5, -8
 1250              		.cfi_offset 4, -12
 1251              		.cfi_offset 3, -16
 1252 0004 38B3     		cbz	r0, .L87
 1253              	.LVL70:
 1254              	.L83:
 1255              		.loc 1 514 0
 1256 0006 617A     		ldrb	r1, [r4, #9]	@ zero_extendqisi2
 1257 0008 0120     		movs	r0, #1
 1258 000a 10FA01F2 		lsls	r2, r0, r1
 1259 000e 144D     		ldr	r5, .L89
 1260 0010 2B68     		ldr	r3, [r5, #0]
 1261 0012 1A42     		tst	r2, r3
 1262 0014 1BD0     		beq	.L88
 1263              	.L84:
 1264              		.loc 1 518 0
 1265 0016 A07A     		ldrb	r0, [r4, #10]	@ zero_extendqisi2
 1266 0018 FFF7FEFF 		bl	nvicDisableVector
 1267              		.loc 1 521 0
 1268 001c 607A     		ldrb	r0, [r4, #9]	@ zero_extendqisi2
 1269 001e 0121     		movs	r1, #1
 1270 0020 11FA00F3 		lsls	r3, r1, r0
 1271 0024 2A68     		ldr	r2, [r5, #0]
 1272 0026 22EA0303 		bic	r3, r2, r3
 1273              		.loc 1 524 0
 1274 002a 13F0FF0F 		tst	r3, #255
 1275              		.loc 1 521 0
 1276 002e 2B60     		str	r3, [r5, #0]
 1277              		.loc 1 524 0
 1278 0030 04D1     		bne	.L85
 1279              		.loc 1 525 0
 1280 0032 0C4A     		ldr	r2, .L89+4
 1281 0034 116B     		ldr	r1, [r2, #48]
 1282 0036 21F40010 		bic	r0, r1, #2097152
 1283 003a 1063     		str	r0, [r2, #48]
ARM GAS  C:\Users\DNIEL~1\AppData\Local\Temp\cc49VrPb.s 			page 24


 1284              	.L85:
 1285              		.loc 1 526 0
 1286 003c 13F47F4F 		tst	r3, #65280
 1287 0040 04D1     		bne	.L82
 1288              		.loc 1 527 0
 1289 0042 084B     		ldr	r3, .L89+4
 1290 0044 1A6B     		ldr	r2, [r3, #48]
 1291 0046 22F48000 		bic	r0, r2, #4194304
 1292 004a 1863     		str	r0, [r3, #48]
 1293              	.L82:
 1294 004c 38BD     		pop	{r3, r4, r5, pc}
 1295              	.L88:
 1296              		.loc 1 514 0 discriminator 1
 1297 004e 0648     		ldr	r0, .L89+8
 1298 0050 FFF7FEFF 		bl	chDbgPanic
 1299 0054 DFE7     		b	.L84
 1300              	.L87:
 1301              		.loc 1 511 0 discriminator 1
 1302 0056 0548     		ldr	r0, .L89+12
 1303 0058 FFF7FEFF 		bl	chDbgPanic
 1304 005c D3E7     		b	.L83
 1305              	.L90:
 1306 005e 00BF     		.align	2
 1307              	.L89:
 1308 0060 00000000 		.word	.LANCHOR1
 1309 0064 00380240 		.word	1073887232
 1310 0068 20000000 		.word	.LC2
 1311 006c 10000000 		.word	.LC1
 1312              		.cfi_endproc
 1313              	.LFE136:
 1314              		.size	dmaStreamRelease, .-dmaStreamRelease
 1315              		.global	_stm32_dma_streams
 1316              		.section	.rodata.str1.4,"aMS",%progbits,1
 1317              		.align	2
 1318              	.LC0:
 1319 0000 22646D61 		.ascii	"\"dmaAllocate\"()\000"
 1319      416C6C6F 
 1319      63617465 
 1319      22282900 
 1320              	.LC1:
 1321 0010 22646D61 		.ascii	"\"dmaRelease\"()\000"
 1321      52656C65 
 1321      61736522 
 1321      282900
 1322 001f 00       		.space	1
 1323              	.LC2:
 1324 0020 646D6152 		.ascii	"dmaRelease(), #1\000"
 1324      656C6561 
 1324      73652829 
 1324      2C202331 
 1324      00
 1325 0031 000000   		.section	.bss.dma_isr_redir,"aw",%nobits
 1326              		.align	2
 1327              		.set	.LANCHOR0,. + 0
 1328              		.type	dma_isr_redir, %object
 1329              		.size	dma_isr_redir, 128
 1330              	dma_isr_redir:
ARM GAS  C:\Users\DNIEL~1\AppData\Local\Temp\cc49VrPb.s 			page 25


 1331 0000 00000000 		.space	128
 1331      00000000 
 1331      00000000 
 1331      00000000 
 1331      00000000 
 1332              		.section	.rodata._stm32_dma_streams,"a",%progbits
 1333              		.align	2
 1334              		.set	.LANCHOR2,. + 0
 1335              		.type	_stm32_dma_streams, %object
 1336              		.size	_stm32_dma_streams, 192
 1337              	_stm32_dma_streams:
 1338 0000 10600240 		.word	1073897488
 1339 0004 08600240 		.word	1073897480
 1340 0008 00       		.byte	0
 1341 0009 00       		.byte	0
 1342 000a 0B       		.byte	11
 1343 000b 00       		.space	1
 1344 000c 28600240 		.word	1073897512
 1345 0010 08600240 		.word	1073897480
 1346 0014 06       		.byte	6
 1347 0015 01       		.byte	1
 1348 0016 0C       		.byte	12
 1349 0017 00       		.space	1
 1350 0018 40600240 		.word	1073897536
 1351 001c 08600240 		.word	1073897480
 1352 0020 10       		.byte	16
 1353 0021 02       		.byte	2
 1354 0022 0D       		.byte	13
 1355 0023 00       		.space	1
 1356 0024 58600240 		.word	1073897560
 1357 0028 08600240 		.word	1073897480
 1358 002c 16       		.byte	22
 1359 002d 03       		.byte	3
 1360 002e 0E       		.byte	14
 1361 002f 00       		.space	1
 1362 0030 70600240 		.word	1073897584
 1363 0034 0C600240 		.word	1073897484
 1364 0038 00       		.byte	0
 1365 0039 04       		.byte	4
 1366 003a 0F       		.byte	15
 1367 003b 00       		.space	1
 1368 003c 88600240 		.word	1073897608
 1369 0040 0C600240 		.word	1073897484
 1370 0044 06       		.byte	6
 1371 0045 05       		.byte	5
 1372 0046 10       		.byte	16
 1373 0047 00       		.space	1
 1374 0048 A0600240 		.word	1073897632
 1375 004c 0C600240 		.word	1073897484
 1376 0050 10       		.byte	16
 1377 0051 06       		.byte	6
 1378 0052 11       		.byte	17
 1379 0053 00       		.space	1
 1380 0054 B8600240 		.word	1073897656
 1381 0058 0C600240 		.word	1073897484
 1382 005c 16       		.byte	22
 1383 005d 07       		.byte	7
ARM GAS  C:\Users\DNIEL~1\AppData\Local\Temp\cc49VrPb.s 			page 26


 1384 005e 2F       		.byte	47
 1385 005f 00       		.space	1
 1386 0060 10640240 		.word	1073898512
 1387 0064 08640240 		.word	1073898504
 1388 0068 00       		.byte	0
 1389 0069 08       		.byte	8
 1390 006a 38       		.byte	56
 1391 006b 00       		.space	1
 1392 006c 28640240 		.word	1073898536
 1393 0070 08640240 		.word	1073898504
 1394 0074 06       		.byte	6
 1395 0075 09       		.byte	9
 1396 0076 39       		.byte	57
 1397 0077 00       		.space	1
 1398 0078 40640240 		.word	1073898560
 1399 007c 08640240 		.word	1073898504
 1400 0080 10       		.byte	16
 1401 0081 0A       		.byte	10
 1402 0082 3A       		.byte	58
 1403 0083 00       		.space	1
 1404 0084 58640240 		.word	1073898584
 1405 0088 08640240 		.word	1073898504
 1406 008c 16       		.byte	22
 1407 008d 0B       		.byte	11
 1408 008e 3B       		.byte	59
 1409 008f 00       		.space	1
 1410 0090 70640240 		.word	1073898608
 1411 0094 0C640240 		.word	1073898508
 1412 0098 00       		.byte	0
 1413 0099 0C       		.byte	12
 1414 009a 3C       		.byte	60
 1415 009b 00       		.space	1
 1416 009c 88640240 		.word	1073898632
 1417 00a0 0C640240 		.word	1073898508
 1418 00a4 06       		.byte	6
 1419 00a5 0D       		.byte	13
 1420 00a6 44       		.byte	68
 1421 00a7 00       		.space	1
 1422 00a8 A0640240 		.word	1073898656
 1423 00ac 0C640240 		.word	1073898508
 1424 00b0 10       		.byte	16
 1425 00b1 0E       		.byte	14
 1426 00b2 45       		.byte	69
 1427 00b3 00       		.space	1
 1428 00b4 B8640240 		.word	1073898680
 1429 00b8 0C640240 		.word	1073898508
 1430 00bc 16       		.byte	22
 1431 00bd 0F       		.byte	15
 1432 00be 46       		.byte	70
 1433 00bf 00       		.space	1
 1434              		.section	.bss.dma_streams_mask,"aw",%nobits
 1435              		.align	2
 1436              		.set	.LANCHOR1,. + 0
 1437              		.type	dma_streams_mask, %object
 1438              		.size	dma_streams_mask, 4
 1439              	dma_streams_mask:
 1440 0000 00000000 		.space	4
ARM GAS  C:\Users\DNIEL~1\AppData\Local\Temp\cc49VrPb.s 			page 27


 1441              		.text
 1442              	.Letext0:
 1443              		.section	.debug_loc,"",%progbits
 1444              	.Ldebug_loc0:
 1445              	.LLST0:
 1446 0000 00000000 		.4byte	.LFB118
 1447 0004 02000000 		.4byte	.LCFI0
 1448 0008 0200     		.2byte	0x2
 1449 000a 7D       		.byte	0x7d
 1450 000b 00       		.sleb128 0
 1451 000c 02000000 		.4byte	.LCFI0
 1452 0010 30000000 		.4byte	.LFE118
 1453 0014 0200     		.2byte	0x2
 1454 0016 7D       		.byte	0x7d
 1455 0017 08       		.sleb128 8
 1456 0018 00000000 		.4byte	0x0
 1457 001c 00000000 		.4byte	0x0
 1458              	.LLST1:
 1459 0020 10000000 		.4byte	.LVL0
 1460 0024 18000000 		.4byte	.LVL1
 1461 0028 0600     		.2byte	0x6
 1462 002a 71       		.byte	0x71
 1463 002b 00       		.sleb128 0
 1464 002c 08       		.byte	0x8
 1465 002d 3D       		.byte	0x3d
 1466 002e 1A       		.byte	0x1a
 1467 002f 9F       		.byte	0x9f
 1468 0030 18000000 		.4byte	.LVL1
 1469 0034 19000000 		.4byte	.LVL2-1
 1470 0038 0100     		.2byte	0x1
 1471 003a 51       		.byte	0x51
 1472 003b 00000000 		.4byte	0x0
 1473 003f 00000000 		.4byte	0x0
 1474              	.LLST2:
 1475 0043 00000000 		.4byte	.LFB119
 1476 0047 02000000 		.4byte	.LCFI1
 1477 004b 0200     		.2byte	0x2
 1478 004d 7D       		.byte	0x7d
 1479 004e 00       		.sleb128 0
 1480 004f 02000000 		.4byte	.LCFI1
 1481 0053 34000000 		.4byte	.LFE119
 1482 0057 0200     		.2byte	0x2
 1483 0059 7D       		.byte	0x7d
 1484 005a 08       		.sleb128 8
 1485 005b 00000000 		.4byte	0x0
 1486 005f 00000000 		.4byte	0x0
 1487              	.LLST3:
 1488 0063 12000000 		.4byte	.LVL3
 1489 0067 18000000 		.4byte	.LVL4
 1490 006b 0800     		.2byte	0x8
 1491 006d 71       		.byte	0x71
 1492 006e 00       		.sleb128 0
 1493 006f 36       		.byte	0x36
 1494 0070 25       		.byte	0x25
 1495 0071 08       		.byte	0x8
 1496 0072 3D       		.byte	0x3d
 1497 0073 1A       		.byte	0x1a
ARM GAS  C:\Users\DNIEL~1\AppData\Local\Temp\cc49VrPb.s 			page 28


 1498 0074 9F       		.byte	0x9f
 1499 0075 18000000 		.4byte	.LVL4
 1500 0079 1E000000 		.4byte	.LVL5
 1501 007d 0600     		.2byte	0x6
 1502 007f 71       		.byte	0x71
 1503 0080 00       		.sleb128 0
 1504 0081 08       		.byte	0x8
 1505 0082 3D       		.byte	0x3d
 1506 0083 1A       		.byte	0x1a
 1507 0084 9F       		.byte	0x9f
 1508 0085 00000000 		.4byte	0x0
 1509 0089 00000000 		.4byte	0x0
 1510              	.LLST4:
 1511 008d 00000000 		.4byte	.LFB120
 1512 0091 02000000 		.4byte	.LCFI2
 1513 0095 0200     		.2byte	0x2
 1514 0097 7D       		.byte	0x7d
 1515 0098 00       		.sleb128 0
 1516 0099 02000000 		.4byte	.LCFI2
 1517 009d 34000000 		.4byte	.LFE120
 1518 00a1 0200     		.2byte	0x2
 1519 00a3 7D       		.byte	0x7d
 1520 00a4 08       		.sleb128 8
 1521 00a5 00000000 		.4byte	0x0
 1522 00a9 00000000 		.4byte	0x0
 1523              	.LLST5:
 1524 00ad 12000000 		.4byte	.LVL6
 1525 00b1 18000000 		.4byte	.LVL7
 1526 00b5 0800     		.2byte	0x8
 1527 00b7 71       		.byte	0x71
 1528 00b8 00       		.sleb128 0
 1529 00b9 40       		.byte	0x40
 1530 00ba 25       		.byte	0x25
 1531 00bb 08       		.byte	0x8
 1532 00bc 3D       		.byte	0x3d
 1533 00bd 1A       		.byte	0x1a
 1534 00be 9F       		.byte	0x9f
 1535 00bf 18000000 		.4byte	.LVL7
 1536 00c3 1E000000 		.4byte	.LVL8
 1537 00c7 0600     		.2byte	0x6
 1538 00c9 71       		.byte	0x71
 1539 00ca 00       		.sleb128 0
 1540 00cb 08       		.byte	0x8
 1541 00cc 3D       		.byte	0x3d
 1542 00cd 1A       		.byte	0x1a
 1543 00ce 9F       		.byte	0x9f
 1544 00cf 00000000 		.4byte	0x0
 1545 00d3 00000000 		.4byte	0x0
 1546              	.LLST6:
 1547 00d7 00000000 		.4byte	.LFB121
 1548 00db 02000000 		.4byte	.LCFI3
 1549 00df 0200     		.2byte	0x2
 1550 00e1 7D       		.byte	0x7d
 1551 00e2 00       		.sleb128 0
 1552 00e3 02000000 		.4byte	.LCFI3
 1553 00e7 34000000 		.4byte	.LFE121
 1554 00eb 0200     		.2byte	0x2
ARM GAS  C:\Users\DNIEL~1\AppData\Local\Temp\cc49VrPb.s 			page 29


 1555 00ed 7D       		.byte	0x7d
 1556 00ee 08       		.sleb128 8
 1557 00ef 00000000 		.4byte	0x0
 1558 00f3 00000000 		.4byte	0x0
 1559              	.LLST7:
 1560 00f7 12000000 		.4byte	.LVL9
 1561 00fb 18000000 		.4byte	.LVL10
 1562 00ff 0800     		.2byte	0x8
 1563 0101 71       		.byte	0x71
 1564 0102 00       		.sleb128 0
 1565 0103 46       		.byte	0x46
 1566 0104 25       		.byte	0x25
 1567 0105 08       		.byte	0x8
 1568 0106 3D       		.byte	0x3d
 1569 0107 1A       		.byte	0x1a
 1570 0108 9F       		.byte	0x9f
 1571 0109 18000000 		.4byte	.LVL10
 1572 010d 1E000000 		.4byte	.LVL11
 1573 0111 0600     		.2byte	0x6
 1574 0113 71       		.byte	0x71
 1575 0114 00       		.sleb128 0
 1576 0115 08       		.byte	0x8
 1577 0116 3D       		.byte	0x3d
 1578 0117 1A       		.byte	0x1a
 1579 0118 9F       		.byte	0x9f
 1580 0119 00000000 		.4byte	0x0
 1581 011d 00000000 		.4byte	0x0
 1582              	.LLST8:
 1583 0121 00000000 		.4byte	.LFB122
 1584 0125 02000000 		.4byte	.LCFI4
 1585 0129 0200     		.2byte	0x2
 1586 012b 7D       		.byte	0x7d
 1587 012c 00       		.sleb128 0
 1588 012d 02000000 		.4byte	.LCFI4
 1589 0131 30000000 		.4byte	.LFE122
 1590 0135 0200     		.2byte	0x2
 1591 0137 7D       		.byte	0x7d
 1592 0138 08       		.sleb128 8
 1593 0139 00000000 		.4byte	0x0
 1594 013d 00000000 		.4byte	0x0
 1595              	.LLST9:
 1596 0141 10000000 		.4byte	.LVL12
 1597 0145 18000000 		.4byte	.LVL13
 1598 0149 0600     		.2byte	0x6
 1599 014b 71       		.byte	0x71
 1600 014c 00       		.sleb128 0
 1601 014d 08       		.byte	0x8
 1602 014e 3D       		.byte	0x3d
 1603 014f 1A       		.byte	0x1a
 1604 0150 9F       		.byte	0x9f
 1605 0151 18000000 		.4byte	.LVL13
 1606 0155 19000000 		.4byte	.LVL14-1
 1607 0159 0100     		.2byte	0x1
 1608 015b 51       		.byte	0x51
 1609 015c 00000000 		.4byte	0x0
 1610 0160 00000000 		.4byte	0x0
 1611              	.LLST10:
ARM GAS  C:\Users\DNIEL~1\AppData\Local\Temp\cc49VrPb.s 			page 30


 1612 0164 00000000 		.4byte	.LFB123
 1613 0168 02000000 		.4byte	.LCFI5
 1614 016c 0200     		.2byte	0x2
 1615 016e 7D       		.byte	0x7d
 1616 016f 00       		.sleb128 0
 1617 0170 02000000 		.4byte	.LCFI5
 1618 0174 34000000 		.4byte	.LFE123
 1619 0178 0200     		.2byte	0x2
 1620 017a 7D       		.byte	0x7d
 1621 017b 08       		.sleb128 8
 1622 017c 00000000 		.4byte	0x0
 1623 0180 00000000 		.4byte	0x0
 1624              	.LLST11:
 1625 0184 12000000 		.4byte	.LVL15
 1626 0188 18000000 		.4byte	.LVL16
 1627 018c 0800     		.2byte	0x8
 1628 018e 71       		.byte	0x71
 1629 018f 00       		.sleb128 0
 1630 0190 36       		.byte	0x36
 1631 0191 25       		.byte	0x25
 1632 0192 08       		.byte	0x8
 1633 0193 3D       		.byte	0x3d
 1634 0194 1A       		.byte	0x1a
 1635 0195 9F       		.byte	0x9f
 1636 0196 18000000 		.4byte	.LVL16
 1637 019a 1E000000 		.4byte	.LVL17
 1638 019e 0600     		.2byte	0x6
 1639 01a0 71       		.byte	0x71
 1640 01a1 00       		.sleb128 0
 1641 01a2 08       		.byte	0x8
 1642 01a3 3D       		.byte	0x3d
 1643 01a4 1A       		.byte	0x1a
 1644 01a5 9F       		.byte	0x9f
 1645 01a6 00000000 		.4byte	0x0
 1646 01aa 00000000 		.4byte	0x0
 1647              	.LLST12:
 1648 01ae 00000000 		.4byte	.LFB124
 1649 01b2 02000000 		.4byte	.LCFI6
 1650 01b6 0200     		.2byte	0x2
 1651 01b8 7D       		.byte	0x7d
 1652 01b9 00       		.sleb128 0
 1653 01ba 02000000 		.4byte	.LCFI6
 1654 01be 34000000 		.4byte	.LFE124
 1655 01c2 0200     		.2byte	0x2
 1656 01c4 7D       		.byte	0x7d
 1657 01c5 08       		.sleb128 8
 1658 01c6 00000000 		.4byte	0x0
 1659 01ca 00000000 		.4byte	0x0
 1660              	.LLST13:
 1661 01ce 12000000 		.4byte	.LVL18
 1662 01d2 18000000 		.4byte	.LVL19
 1663 01d6 0800     		.2byte	0x8
 1664 01d8 71       		.byte	0x71
 1665 01d9 00       		.sleb128 0
 1666 01da 40       		.byte	0x40
 1667 01db 25       		.byte	0x25
 1668 01dc 08       		.byte	0x8
ARM GAS  C:\Users\DNIEL~1\AppData\Local\Temp\cc49VrPb.s 			page 31


 1669 01dd 3D       		.byte	0x3d
 1670 01de 1A       		.byte	0x1a
 1671 01df 9F       		.byte	0x9f
 1672 01e0 18000000 		.4byte	.LVL19
 1673 01e4 1E000000 		.4byte	.LVL20
 1674 01e8 0600     		.2byte	0x6
 1675 01ea 71       		.byte	0x71
 1676 01eb 00       		.sleb128 0
 1677 01ec 08       		.byte	0x8
 1678 01ed 3D       		.byte	0x3d
 1679 01ee 1A       		.byte	0x1a
 1680 01ef 9F       		.byte	0x9f
 1681 01f0 00000000 		.4byte	0x0
 1682 01f4 00000000 		.4byte	0x0
 1683              	.LLST14:
 1684 01f8 00000000 		.4byte	.LFB125
 1685 01fc 02000000 		.4byte	.LCFI7
 1686 0200 0200     		.2byte	0x2
 1687 0202 7D       		.byte	0x7d
 1688 0203 00       		.sleb128 0
 1689 0204 02000000 		.4byte	.LCFI7
 1690 0208 34000000 		.4byte	.LFE125
 1691 020c 0200     		.2byte	0x2
 1692 020e 7D       		.byte	0x7d
 1693 020f 08       		.sleb128 8
 1694 0210 00000000 		.4byte	0x0
 1695 0214 00000000 		.4byte	0x0
 1696              	.LLST15:
 1697 0218 12000000 		.4byte	.LVL21
 1698 021c 18000000 		.4byte	.LVL22
 1699 0220 0800     		.2byte	0x8
 1700 0222 71       		.byte	0x71
 1701 0223 00       		.sleb128 0
 1702 0224 46       		.byte	0x46
 1703 0225 25       		.byte	0x25
 1704 0226 08       		.byte	0x8
 1705 0227 3D       		.byte	0x3d
 1706 0228 1A       		.byte	0x1a
 1707 0229 9F       		.byte	0x9f
 1708 022a 18000000 		.4byte	.LVL22
 1709 022e 1E000000 		.4byte	.LVL23
 1710 0232 0600     		.2byte	0x6
 1711 0234 71       		.byte	0x71
 1712 0235 00       		.sleb128 0
 1713 0236 08       		.byte	0x8
 1714 0237 3D       		.byte	0x3d
 1715 0238 1A       		.byte	0x1a
 1716 0239 9F       		.byte	0x9f
 1717 023a 00000000 		.4byte	0x0
 1718 023e 00000000 		.4byte	0x0
 1719              	.LLST16:
 1720 0242 00000000 		.4byte	.LFB126
 1721 0246 02000000 		.4byte	.LCFI8
 1722 024a 0200     		.2byte	0x2
 1723 024c 7D       		.byte	0x7d
 1724 024d 00       		.sleb128 0
 1725 024e 02000000 		.4byte	.LCFI8
ARM GAS  C:\Users\DNIEL~1\AppData\Local\Temp\cc49VrPb.s 			page 32


 1726 0252 30000000 		.4byte	.LFE126
 1727 0256 0200     		.2byte	0x2
 1728 0258 7D       		.byte	0x7d
 1729 0259 08       		.sleb128 8
 1730 025a 00000000 		.4byte	0x0
 1731 025e 00000000 		.4byte	0x0
 1732              	.LLST17:
 1733 0262 10000000 		.4byte	.LVL24
 1734 0266 18000000 		.4byte	.LVL25
 1735 026a 0600     		.2byte	0x6
 1736 026c 71       		.byte	0x71
 1737 026d 00       		.sleb128 0
 1738 026e 08       		.byte	0x8
 1739 026f 3D       		.byte	0x3d
 1740 0270 1A       		.byte	0x1a
 1741 0271 9F       		.byte	0x9f
 1742 0272 18000000 		.4byte	.LVL25
 1743 0276 19000000 		.4byte	.LVL26-1
 1744 027a 0100     		.2byte	0x1
 1745 027c 51       		.byte	0x51
 1746 027d 00000000 		.4byte	0x0
 1747 0281 00000000 		.4byte	0x0
 1748              	.LLST18:
 1749 0285 00000000 		.4byte	.LFB127
 1750 0289 02000000 		.4byte	.LCFI9
 1751 028d 0200     		.2byte	0x2
 1752 028f 7D       		.byte	0x7d
 1753 0290 00       		.sleb128 0
 1754 0291 02000000 		.4byte	.LCFI9
 1755 0295 34000000 		.4byte	.LFE127
 1756 0299 0200     		.2byte	0x2
 1757 029b 7D       		.byte	0x7d
 1758 029c 08       		.sleb128 8
 1759 029d 00000000 		.4byte	0x0
 1760 02a1 00000000 		.4byte	0x0
 1761              	.LLST19:
 1762 02a5 12000000 		.4byte	.LVL27
 1763 02a9 18000000 		.4byte	.LVL28
 1764 02ad 0800     		.2byte	0x8
 1765 02af 71       		.byte	0x71
 1766 02b0 00       		.sleb128 0
 1767 02b1 36       		.byte	0x36
 1768 02b2 25       		.byte	0x25
 1769 02b3 08       		.byte	0x8
 1770 02b4 3D       		.byte	0x3d
 1771 02b5 1A       		.byte	0x1a
 1772 02b6 9F       		.byte	0x9f
 1773 02b7 18000000 		.4byte	.LVL28
 1774 02bb 1E000000 		.4byte	.LVL29
 1775 02bf 0600     		.2byte	0x6
 1776 02c1 71       		.byte	0x71
 1777 02c2 00       		.sleb128 0
 1778 02c3 08       		.byte	0x8
 1779 02c4 3D       		.byte	0x3d
 1780 02c5 1A       		.byte	0x1a
 1781 02c6 9F       		.byte	0x9f
 1782 02c7 00000000 		.4byte	0x0
ARM GAS  C:\Users\DNIEL~1\AppData\Local\Temp\cc49VrPb.s 			page 33


 1783 02cb 00000000 		.4byte	0x0
 1784              	.LLST20:
 1785 02cf 00000000 		.4byte	.LFB128
 1786 02d3 02000000 		.4byte	.LCFI10
 1787 02d7 0200     		.2byte	0x2
 1788 02d9 7D       		.byte	0x7d
 1789 02da 00       		.sleb128 0
 1790 02db 02000000 		.4byte	.LCFI10
 1791 02df 34000000 		.4byte	.LFE128
 1792 02e3 0200     		.2byte	0x2
 1793 02e5 7D       		.byte	0x7d
 1794 02e6 08       		.sleb128 8
 1795 02e7 00000000 		.4byte	0x0
 1796 02eb 00000000 		.4byte	0x0
 1797              	.LLST21:
 1798 02ef 12000000 		.4byte	.LVL30
 1799 02f3 18000000 		.4byte	.LVL31
 1800 02f7 0800     		.2byte	0x8
 1801 02f9 71       		.byte	0x71
 1802 02fa 00       		.sleb128 0
 1803 02fb 40       		.byte	0x40
 1804 02fc 25       		.byte	0x25
 1805 02fd 08       		.byte	0x8
 1806 02fe 3D       		.byte	0x3d
 1807 02ff 1A       		.byte	0x1a
 1808 0300 9F       		.byte	0x9f
 1809 0301 18000000 		.4byte	.LVL31
 1810 0305 1E000000 		.4byte	.LVL32
 1811 0309 0600     		.2byte	0x6
 1812 030b 71       		.byte	0x71
 1813 030c 00       		.sleb128 0
 1814 030d 08       		.byte	0x8
 1815 030e 3D       		.byte	0x3d
 1816 030f 1A       		.byte	0x1a
 1817 0310 9F       		.byte	0x9f
 1818 0311 00000000 		.4byte	0x0
 1819 0315 00000000 		.4byte	0x0
 1820              	.LLST22:
 1821 0319 00000000 		.4byte	.LFB129
 1822 031d 02000000 		.4byte	.LCFI11
 1823 0321 0200     		.2byte	0x2
 1824 0323 7D       		.byte	0x7d
 1825 0324 00       		.sleb128 0
 1826 0325 02000000 		.4byte	.LCFI11
 1827 0329 34000000 		.4byte	.LFE129
 1828 032d 0200     		.2byte	0x2
 1829 032f 7D       		.byte	0x7d
 1830 0330 08       		.sleb128 8
 1831 0331 00000000 		.4byte	0x0
 1832 0335 00000000 		.4byte	0x0
 1833              	.LLST23:
 1834 0339 12000000 		.4byte	.LVL33
 1835 033d 18000000 		.4byte	.LVL34
 1836 0341 0800     		.2byte	0x8
 1837 0343 71       		.byte	0x71
 1838 0344 00       		.sleb128 0
 1839 0345 46       		.byte	0x46
ARM GAS  C:\Users\DNIEL~1\AppData\Local\Temp\cc49VrPb.s 			page 34


 1840 0346 25       		.byte	0x25
 1841 0347 08       		.byte	0x8
 1842 0348 3D       		.byte	0x3d
 1843 0349 1A       		.byte	0x1a
 1844 034a 9F       		.byte	0x9f
 1845 034b 18000000 		.4byte	.LVL34
 1846 034f 1E000000 		.4byte	.LVL35
 1847 0353 0600     		.2byte	0x6
 1848 0355 71       		.byte	0x71
 1849 0356 00       		.sleb128 0
 1850 0357 08       		.byte	0x8
 1851 0358 3D       		.byte	0x3d
 1852 0359 1A       		.byte	0x1a
 1853 035a 9F       		.byte	0x9f
 1854 035b 00000000 		.4byte	0x0
 1855 035f 00000000 		.4byte	0x0
 1856              	.LLST24:
 1857 0363 00000000 		.4byte	.LFB130
 1858 0367 02000000 		.4byte	.LCFI12
 1859 036b 0200     		.2byte	0x2
 1860 036d 7D       		.byte	0x7d
 1861 036e 00       		.sleb128 0
 1862 036f 02000000 		.4byte	.LCFI12
 1863 0373 30000000 		.4byte	.LFE130
 1864 0377 0200     		.2byte	0x2
 1865 0379 7D       		.byte	0x7d
 1866 037a 08       		.sleb128 8
 1867 037b 00000000 		.4byte	0x0
 1868 037f 00000000 		.4byte	0x0
 1869              	.LLST25:
 1870 0383 10000000 		.4byte	.LVL36
 1871 0387 18000000 		.4byte	.LVL37
 1872 038b 0600     		.2byte	0x6
 1873 038d 71       		.byte	0x71
 1874 038e 00       		.sleb128 0
 1875 038f 08       		.byte	0x8
 1876 0390 3D       		.byte	0x3d
 1877 0391 1A       		.byte	0x1a
 1878 0392 9F       		.byte	0x9f
 1879 0393 18000000 		.4byte	.LVL37
 1880 0397 19000000 		.4byte	.LVL38-1
 1881 039b 0100     		.2byte	0x1
 1882 039d 51       		.byte	0x51
 1883 039e 00000000 		.4byte	0x0
 1884 03a2 00000000 		.4byte	0x0
 1885              	.LLST26:
 1886 03a6 00000000 		.4byte	.LFB131
 1887 03aa 02000000 		.4byte	.LCFI13
 1888 03ae 0200     		.2byte	0x2
 1889 03b0 7D       		.byte	0x7d
 1890 03b1 00       		.sleb128 0
 1891 03b2 02000000 		.4byte	.LCFI13
 1892 03b6 34000000 		.4byte	.LFE131
 1893 03ba 0200     		.2byte	0x2
 1894 03bc 7D       		.byte	0x7d
 1895 03bd 08       		.sleb128 8
 1896 03be 00000000 		.4byte	0x0
ARM GAS  C:\Users\DNIEL~1\AppData\Local\Temp\cc49VrPb.s 			page 35


 1897 03c2 00000000 		.4byte	0x0
 1898              	.LLST27:
 1899 03c6 12000000 		.4byte	.LVL39
 1900 03ca 18000000 		.4byte	.LVL40
 1901 03ce 0800     		.2byte	0x8
 1902 03d0 71       		.byte	0x71
 1903 03d1 00       		.sleb128 0
 1904 03d2 36       		.byte	0x36
 1905 03d3 25       		.byte	0x25
 1906 03d4 08       		.byte	0x8
 1907 03d5 3D       		.byte	0x3d
 1908 03d6 1A       		.byte	0x1a
 1909 03d7 9F       		.byte	0x9f
 1910 03d8 18000000 		.4byte	.LVL40
 1911 03dc 1E000000 		.4byte	.LVL41
 1912 03e0 0600     		.2byte	0x6
 1913 03e2 71       		.byte	0x71
 1914 03e3 00       		.sleb128 0
 1915 03e4 08       		.byte	0x8
 1916 03e5 3D       		.byte	0x3d
 1917 03e6 1A       		.byte	0x1a
 1918 03e7 9F       		.byte	0x9f
 1919 03e8 00000000 		.4byte	0x0
 1920 03ec 00000000 		.4byte	0x0
 1921              	.LLST28:
 1922 03f0 00000000 		.4byte	.LFB132
 1923 03f4 02000000 		.4byte	.LCFI14
 1924 03f8 0200     		.2byte	0x2
 1925 03fa 7D       		.byte	0x7d
 1926 03fb 00       		.sleb128 0
 1927 03fc 02000000 		.4byte	.LCFI14
 1928 0400 34000000 		.4byte	.LFE132
 1929 0404 0200     		.2byte	0x2
 1930 0406 7D       		.byte	0x7d
 1931 0407 08       		.sleb128 8
 1932 0408 00000000 		.4byte	0x0
 1933 040c 00000000 		.4byte	0x0
 1934              	.LLST29:
 1935 0410 12000000 		.4byte	.LVL42
 1936 0414 18000000 		.4byte	.LVL43
 1937 0418 0800     		.2byte	0x8
 1938 041a 71       		.byte	0x71
 1939 041b 00       		.sleb128 0
 1940 041c 40       		.byte	0x40
 1941 041d 25       		.byte	0x25
 1942 041e 08       		.byte	0x8
 1943 041f 3D       		.byte	0x3d
 1944 0420 1A       		.byte	0x1a
 1945 0421 9F       		.byte	0x9f
 1946 0422 18000000 		.4byte	.LVL43
 1947 0426 1E000000 		.4byte	.LVL44
 1948 042a 0600     		.2byte	0x6
 1949 042c 71       		.byte	0x71
 1950 042d 00       		.sleb128 0
 1951 042e 08       		.byte	0x8
 1952 042f 3D       		.byte	0x3d
 1953 0430 1A       		.byte	0x1a
ARM GAS  C:\Users\DNIEL~1\AppData\Local\Temp\cc49VrPb.s 			page 36


 1954 0431 9F       		.byte	0x9f
 1955 0432 00000000 		.4byte	0x0
 1956 0436 00000000 		.4byte	0x0
 1957              	.LLST30:
 1958 043a 00000000 		.4byte	.LFB133
 1959 043e 02000000 		.4byte	.LCFI15
 1960 0442 0200     		.2byte	0x2
 1961 0444 7D       		.byte	0x7d
 1962 0445 00       		.sleb128 0
 1963 0446 02000000 		.4byte	.LCFI15
 1964 044a 34000000 		.4byte	.LFE133
 1965 044e 0200     		.2byte	0x2
 1966 0450 7D       		.byte	0x7d
 1967 0451 08       		.sleb128 8
 1968 0452 00000000 		.4byte	0x0
 1969 0456 00000000 		.4byte	0x0
 1970              	.LLST31:
 1971 045a 12000000 		.4byte	.LVL45
 1972 045e 18000000 		.4byte	.LVL46
 1973 0462 0800     		.2byte	0x8
 1974 0464 71       		.byte	0x71
 1975 0465 00       		.sleb128 0
 1976 0466 46       		.byte	0x46
 1977 0467 25       		.byte	0x25
 1978 0468 08       		.byte	0x8
 1979 0469 3D       		.byte	0x3d
 1980 046a 1A       		.byte	0x1a
 1981 046b 9F       		.byte	0x9f
 1982 046c 18000000 		.4byte	.LVL46
 1983 0470 1E000000 		.4byte	.LVL47
 1984 0474 0600     		.2byte	0x6
 1985 0476 71       		.byte	0x71
 1986 0477 00       		.sleb128 0
 1987 0478 08       		.byte	0x8
 1988 0479 3D       		.byte	0x3d
 1989 047a 1A       		.byte	0x1a
 1990 047b 9F       		.byte	0x9f
 1991 047c 00000000 		.4byte	0x0
 1992 0480 00000000 		.4byte	0x0
 1993              	.LLST32:
 1994 0484 00000000 		.4byte	.LFB134
 1995 0488 06000000 		.4byte	.LCFI16
 1996 048c 0200     		.2byte	0x2
 1997 048e 7D       		.byte	0x7d
 1998 048f 00       		.sleb128 0
 1999 0490 06000000 		.4byte	.LCFI16
 2000 0494 C0000000 		.4byte	.LFE134
 2001 0498 0200     		.2byte	0x2
 2002 049a 7D       		.byte	0x7d
 2003 049b 20       		.sleb128 32
 2004 049c 00000000 		.4byte	0x0
 2005 04a0 00000000 		.4byte	0x0
 2006              	.LLST33:
 2007 04a4 50000000 		.4byte	.LVL48
 2008 04a8 52000000 		.4byte	.LVL49
 2009 04ac 0200     		.2byte	0x2
 2010 04ae 30       		.byte	0x30
ARM GAS  C:\Users\DNIEL~1\AppData\Local\Temp\cc49VrPb.s 			page 37


 2011 04af 9F       		.byte	0x9f
 2012 04b0 52000000 		.4byte	.LVL49
 2013 04b4 54000000 		.4byte	.LVL50
 2014 04b8 0200     		.2byte	0x2
 2015 04ba 31       		.byte	0x31
 2016 04bb 9F       		.byte	0x9f
 2017 04bc 54000000 		.4byte	.LVL50
 2018 04c0 56000000 		.4byte	.LVL51
 2019 04c4 0200     		.2byte	0x2
 2020 04c6 32       		.byte	0x32
 2021 04c7 9F       		.byte	0x9f
 2022 04c8 56000000 		.4byte	.LVL51
 2023 04cc 58000000 		.4byte	.LVL52
 2024 04d0 0200     		.2byte	0x2
 2025 04d2 33       		.byte	0x33
 2026 04d3 9F       		.byte	0x9f
 2027 04d4 58000000 		.4byte	.LVL52
 2028 04d8 5A000000 		.4byte	.LVL53
 2029 04dc 0200     		.2byte	0x2
 2030 04de 34       		.byte	0x34
 2031 04df 9F       		.byte	0x9f
 2032 04e0 5A000000 		.4byte	.LVL53
 2033 04e4 5C000000 		.4byte	.LVL54
 2034 04e8 0200     		.2byte	0x2
 2035 04ea 35       		.byte	0x35
 2036 04eb 9F       		.byte	0x9f
 2037 04ec 5C000000 		.4byte	.LVL54
 2038 04f0 62000000 		.4byte	.LVL55
 2039 04f4 0200     		.2byte	0x2
 2040 04f6 36       		.byte	0x36
 2041 04f7 9F       		.byte	0x9f
 2042 04f8 62000000 		.4byte	.LVL55
 2043 04fc 64000000 		.4byte	.LVL56
 2044 0500 0200     		.2byte	0x2
 2045 0502 37       		.byte	0x37
 2046 0503 9F       		.byte	0x9f
 2047 0504 64000000 		.4byte	.LVL56
 2048 0508 66000000 		.4byte	.LVL57
 2049 050c 0200     		.2byte	0x2
 2050 050e 38       		.byte	0x38
 2051 050f 9F       		.byte	0x9f
 2052 0510 66000000 		.4byte	.LVL57
 2053 0514 68000000 		.4byte	.LVL58
 2054 0518 0200     		.2byte	0x2
 2055 051a 39       		.byte	0x39
 2056 051b 9F       		.byte	0x9f
 2057 051c 68000000 		.4byte	.LVL58
 2058 0520 88000000 		.4byte	.LVL59
 2059 0524 0200     		.2byte	0x2
 2060 0526 3A       		.byte	0x3a
 2061 0527 9F       		.byte	0x9f
 2062 0528 88000000 		.4byte	.LVL59
 2063 052c 8E000000 		.4byte	.LVL60
 2064 0530 0200     		.2byte	0x2
 2065 0532 3B       		.byte	0x3b
 2066 0533 9F       		.byte	0x9f
 2067 0534 8E000000 		.4byte	.LVL60
ARM GAS  C:\Users\DNIEL~1\AppData\Local\Temp\cc49VrPb.s 			page 38


 2068 0538 92000000 		.4byte	.LVL61
 2069 053c 0200     		.2byte	0x2
 2070 053e 3C       		.byte	0x3c
 2071 053f 9F       		.byte	0x9f
 2072 0540 92000000 		.4byte	.LVL61
 2073 0544 96000000 		.4byte	.LVL62
 2074 0548 0200     		.2byte	0x2
 2075 054a 3D       		.byte	0x3d
 2076 054b 9F       		.byte	0x9f
 2077 054c 96000000 		.4byte	.LVL62
 2078 0550 98000000 		.4byte	.LVL63
 2079 0554 0200     		.2byte	0x2
 2080 0556 3E       		.byte	0x3e
 2081 0557 9F       		.byte	0x9f
 2082 0558 98000000 		.4byte	.LVL63
 2083 055c 9C000000 		.4byte	.LVL64
 2084 0560 0200     		.2byte	0x2
 2085 0562 3F       		.byte	0x3f
 2086 0563 9F       		.byte	0x9f
 2087 0564 9C000000 		.4byte	.LVL64
 2088 0568 C0000000 		.4byte	.LFE134
 2089 056c 0200     		.2byte	0x2
 2090 056e 40       		.byte	0x40
 2091 056f 9F       		.byte	0x9f
 2092 0570 00000000 		.4byte	0x0
 2093 0574 00000000 		.4byte	0x0
 2094              	.LLST34:
 2095 0578 00000000 		.4byte	.LFB135
 2096 057c 02000000 		.4byte	.LCFI17
 2097 0580 0200     		.2byte	0x2
 2098 0582 7D       		.byte	0x7d
 2099 0583 00       		.sleb128 0
 2100 0584 02000000 		.4byte	.LCFI17
 2101 0588 06000000 		.4byte	.LCFI18
 2102 058c 0200     		.2byte	0x2
 2103 058e 7D       		.byte	0x7d
 2104 058f 14       		.sleb128 20
 2105 0590 06000000 		.4byte	.LCFI18
 2106 0594 B0000000 		.4byte	.LFE135
 2107 0598 0200     		.2byte	0x2
 2108 059a 7D       		.byte	0x7d
 2109 059b 28       		.sleb128 40
 2110 059c 00000000 		.4byte	0x0
 2111 05a0 00000000 		.4byte	0x0
 2112              	.LLST35:
 2113 05a4 00000000 		.4byte	.LVL65
 2114 05a8 0A000000 		.4byte	.LVL66
 2115 05ac 0100     		.2byte	0x1
 2116 05ae 50       		.byte	0x50
 2117 05af 0A000000 		.4byte	.LVL66
 2118 05b3 B0000000 		.4byte	.LFE135
 2119 05b7 0100     		.2byte	0x1
 2120 05b9 54       		.byte	0x54
 2121 05ba 00000000 		.4byte	0x0
 2122 05be 00000000 		.4byte	0x0
 2123              	.LLST36:
 2124 05c2 00000000 		.4byte	.LVL65
ARM GAS  C:\Users\DNIEL~1\AppData\Local\Temp\cc49VrPb.s 			page 39


 2125 05c6 0A000000 		.4byte	.LVL66
 2126 05ca 0100     		.2byte	0x1
 2127 05cc 51       		.byte	0x51
 2128 05cd 8C000000 		.4byte	.LVL67
 2129 05d1 97000000 		.4byte	.LVL68-1
 2130 05d5 0100     		.2byte	0x1
 2131 05d7 51       		.byte	0x51
 2132 05d8 00000000 		.4byte	0x0
 2133 05dc 00000000 		.4byte	0x0
 2134              	.LLST37:
 2135 05e0 00000000 		.4byte	.LVL65
 2136 05e4 0A000000 		.4byte	.LVL66
 2137 05e8 0100     		.2byte	0x1
 2138 05ea 52       		.byte	0x52
 2139 05eb 8C000000 		.4byte	.LVL67
 2140 05ef 97000000 		.4byte	.LVL68-1
 2141 05f3 0100     		.2byte	0x1
 2142 05f5 52       		.byte	0x52
 2143 05f6 00000000 		.4byte	0x0
 2144 05fa 00000000 		.4byte	0x0
 2145              	.LLST38:
 2146 05fe 00000000 		.4byte	.LVL65
 2147 0602 0A000000 		.4byte	.LVL66
 2148 0606 0100     		.2byte	0x1
 2149 0608 53       		.byte	0x53
 2150 0609 8C000000 		.4byte	.LVL67
 2151 060d 97000000 		.4byte	.LVL68-1
 2152 0611 0100     		.2byte	0x1
 2153 0613 53       		.byte	0x53
 2154 0614 00000000 		.4byte	0x0
 2155 0618 00000000 		.4byte	0x0
 2156              	.LLST39:
 2157 061c 00000000 		.4byte	.LFB136
 2158 0620 02000000 		.4byte	.LCFI19
 2159 0624 0200     		.2byte	0x2
 2160 0626 7D       		.byte	0x7d
 2161 0627 00       		.sleb128 0
 2162 0628 02000000 		.4byte	.LCFI19
 2163 062c 70000000 		.4byte	.LFE136
 2164 0630 0200     		.2byte	0x2
 2165 0632 7D       		.byte	0x7d
 2166 0633 10       		.sleb128 16
 2167 0634 00000000 		.4byte	0x0
 2168 0638 00000000 		.4byte	0x0
 2169              	.LLST40:
 2170 063c 00000000 		.4byte	.LVL69
 2171 0640 06000000 		.4byte	.LVL70
 2172 0644 0100     		.2byte	0x1
 2173 0646 50       		.byte	0x50
 2174 0647 06000000 		.4byte	.LVL70
 2175 064b 70000000 		.4byte	.LFE136
 2176 064f 0100     		.2byte	0x1
 2177 0651 54       		.byte	0x54
 2178 0652 00000000 		.4byte	0x0
 2179 0656 00000000 		.4byte	0x0
 2180              		.file 2 "c:\\program files (x86)\\codesourcery\\sourcery g++ lite\\bin\\../lib/gcc/arm-none-eabi/4
 2181              		.file 3 "../../../ChibiOS/os/ports/GCC/ARMCMx/chtypes.h"
ARM GAS  C:\Users\DNIEL~1\AppData\Local\Temp\cc49VrPb.s 			page 40


 2182              		.file 4 "../../../ChibiOS/os/hal/platforms/STM32F4xx/stm32f4xx.h"
 2183              		.file 5 "../../../ChibiOS/os/hal/platforms/STM32F4xx/stm32_dma.h"
 2184              		.file 6 "../../../ChibiOS/os/ports/common/ARMCMx/CMSIS/include/core_cm4.h"
 2185              		.section	.debug_info
 2186 0000 300A0000 		.4byte	0xa30
 2187 0004 0200     		.2byte	0x2
 2188 0006 00000000 		.4byte	.Ldebug_abbrev0
 2189 000a 04       		.byte	0x4
 2190 000b 01       		.uleb128 0x1
 2191 000c 2E080000 		.4byte	.LASF178
 2192 0010 01       		.byte	0x1
 2193 0011 A4060000 		.4byte	.LASF179
 2194 0015 C4040000 		.4byte	.LASF180
 2195 0019 00000000 		.4byte	0x0
 2196 001d 00000000 		.4byte	0x0
 2197 0021 00000000 		.4byte	.Ldebug_ranges0+0x0
 2198 0025 00000000 		.4byte	.Ldebug_line0
 2199 0029 02       		.uleb128 0x2
 2200 002a 04       		.byte	0x4
 2201 002b 05       		.byte	0x5
 2202 002c 696E7400 		.ascii	"int\000"
 2203 0030 03       		.uleb128 0x3
 2204 0031 04       		.byte	0x4
 2205 0032 07       		.byte	0x7
 2206 0033 60020000 		.4byte	.LASF0
 2207 0037 03       		.uleb128 0x3
 2208 0038 01       		.byte	0x1
 2209 0039 06       		.byte	0x6
 2210 003a 51010000 		.4byte	.LASF1
 2211 003e 04       		.uleb128 0x4
 2212 003f 08080000 		.4byte	.LASF5
 2213 0043 02       		.byte	0x2
 2214 0044 2A       		.byte	0x2a
 2215 0045 49000000 		.4byte	0x49
 2216 0049 03       		.uleb128 0x3
 2217 004a 01       		.byte	0x1
 2218 004b 08       		.byte	0x8
 2219 004c A6050000 		.4byte	.LASF2
 2220 0050 03       		.uleb128 0x3
 2221 0051 02       		.byte	0x2
 2222 0052 05       		.byte	0x5
 2223 0053 ED050000 		.4byte	.LASF3
 2224 0057 03       		.uleb128 0x3
 2225 0058 02       		.byte	0x2
 2226 0059 07       		.byte	0x7
 2227 005a 25030000 		.4byte	.LASF4
 2228 005e 04       		.uleb128 0x4
 2229 005f 9E050000 		.4byte	.LASF6
 2230 0063 02       		.byte	0x2
 2231 0064 4F       		.byte	0x4f
 2232 0065 69000000 		.4byte	0x69
 2233 0069 03       		.uleb128 0x3
 2234 006a 04       		.byte	0x4
 2235 006b 05       		.byte	0x5
 2236 006c 96010000 		.4byte	.LASF7
 2237 0070 04       		.uleb128 0x4
 2238 0071 CD010000 		.4byte	.LASF8
ARM GAS  C:\Users\DNIEL~1\AppData\Local\Temp\cc49VrPb.s 			page 41


 2239 0075 02       		.byte	0x2
 2240 0076 50       		.byte	0x50
 2241 0077 7B000000 		.4byte	0x7b
 2242 007b 03       		.uleb128 0x3
 2243 007c 04       		.byte	0x4
 2244 007d 07       		.byte	0x7
 2245 007e D7020000 		.4byte	.LASF9
 2246 0082 03       		.uleb128 0x3
 2247 0083 08       		.byte	0x8
 2248 0084 05       		.byte	0x5
 2249 0085 43010000 		.4byte	.LASF10
 2250 0089 03       		.uleb128 0x3
 2251 008a 08       		.byte	0x8
 2252 008b 07       		.byte	0x7
 2253 008c B3000000 		.4byte	.LASF11
 2254 0090 04       		.uleb128 0x4
 2255 0091 88010000 		.4byte	.LASF12
 2256 0095 03       		.byte	0x3
 2257 0096 27       		.byte	0x27
 2258 0097 5E000000 		.4byte	0x5e
 2259 009b 05       		.uleb128 0x5
 2260 009c 04       		.byte	0x4
 2261 009d 06       		.uleb128 0x6
 2262 009e 70000000 		.4byte	0x70
 2263 00a2 03       		.uleb128 0x3
 2264 00a3 01       		.byte	0x1
 2265 00a4 08       		.byte	0x8
 2266 00a5 F6060000 		.4byte	.LASF13
 2267 00a9 07       		.uleb128 0x7
 2268 00aa F4030000 		.4byte	.LASF181
 2269 00ae 01       		.byte	0x1
 2270 00af 04       		.byte	0x4
 2271 00b0 8C       		.byte	0x8c
 2272 00b1 E4020000 		.4byte	0x2e4
 2273 00b5 08       		.uleb128 0x8
 2274 00b6 40070000 		.4byte	.LASF14
 2275 00ba 72       		.sleb128 -14
 2276 00bb 08       		.uleb128 0x8
 2277 00bc A5020000 		.4byte	.LASF15
 2278 00c0 74       		.sleb128 -12
 2279 00c1 08       		.uleb128 0x8
 2280 00c2 15070000 		.4byte	.LASF16
 2281 00c6 75       		.sleb128 -11
 2282 00c7 08       		.uleb128 0x8
 2283 00c8 83060000 		.4byte	.LASF17
 2284 00cc 76       		.sleb128 -10
 2285 00cd 08       		.uleb128 0x8
 2286 00ce 19030000 		.4byte	.LASF18
 2287 00d2 7B       		.sleb128 -5
 2288 00d3 08       		.uleb128 0x8
 2289 00d4 95070000 		.4byte	.LASF19
 2290 00d8 7C       		.sleb128 -4
 2291 00d9 08       		.uleb128 0x8
 2292 00da 08020000 		.4byte	.LASF20
 2293 00de 7E       		.sleb128 -2
 2294 00df 08       		.uleb128 0x8
 2295 00e0 C2030000 		.4byte	.LASF21
ARM GAS  C:\Users\DNIEL~1\AppData\Local\Temp\cc49VrPb.s 			page 42


 2296 00e4 7F       		.sleb128 -1
 2297 00e5 08       		.uleb128 0x8
 2298 00e6 18010000 		.4byte	.LASF22
 2299 00ea 00       		.sleb128 0
 2300 00eb 08       		.uleb128 0x8
 2301 00ec 28000000 		.4byte	.LASF23
 2302 00f0 01       		.sleb128 1
 2303 00f1 08       		.uleb128 0x8
 2304 00f2 74070000 		.4byte	.LASF24
 2305 00f6 02       		.sleb128 2
 2306 00f7 08       		.uleb128 0x8
 2307 00f8 0A010000 		.4byte	.LASF25
 2308 00fc 03       		.sleb128 3
 2309 00fd 08       		.uleb128 0x8
 2310 00fe 49060000 		.4byte	.LASF26
 2311 0102 04       		.sleb128 4
 2312 0103 08       		.uleb128 0x8
 2313 0104 CC080000 		.4byte	.LASF27
 2314 0108 05       		.sleb128 5
 2315 0109 08       		.uleb128 0x8
 2316 010a EC070000 		.4byte	.LASF28
 2317 010e 06       		.sleb128 6
 2318 010f 08       		.uleb128 0x8
 2319 0110 F0080000 		.4byte	.LASF29
 2320 0114 07       		.sleb128 7
 2321 0115 08       		.uleb128 0x8
 2322 0116 2E060000 		.4byte	.LASF30
 2323 011a 08       		.sleb128 8
 2324 011b 08       		.uleb128 0x8
 2325 011c 68040000 		.4byte	.LASF31
 2326 0120 09       		.sleb128 9
 2327 0121 08       		.uleb128 0x8
 2328 0122 D4050000 		.4byte	.LASF32
 2329 0126 0A       		.sleb128 10
 2330 0127 08       		.uleb128 0x8
 2331 0128 FB080000 		.4byte	.LASF33
 2332 012c 0B       		.sleb128 11
 2333 012d 08       		.uleb128 0x8
 2334 012e 84030000 		.4byte	.LASF34
 2335 0132 0C       		.sleb128 12
 2336 0133 08       		.uleb128 0x8
 2337 0134 7D040000 		.4byte	.LASF35
 2338 0138 0D       		.sleb128 13
 2339 0139 08       		.uleb128 0x8
 2340 013a 77020000 		.4byte	.LASF36
 2341 013e 0E       		.sleb128 14
 2342 013f 08       		.uleb128 0x8
 2343 0140 3A040000 		.4byte	.LASF37
 2344 0144 0F       		.sleb128 15
 2345 0145 08       		.uleb128 0x8
 2346 0146 A8010000 		.4byte	.LASF38
 2347 014a 10       		.sleb128 16
 2348 014b 08       		.uleb128 0x8
 2349 014c 89020000 		.4byte	.LASF39
 2350 0150 11       		.sleb128 17
 2351 0151 08       		.uleb128 0x8
 2352 0152 73080000 		.4byte	.LASF40
ARM GAS  C:\Users\DNIEL~1\AppData\Local\Temp\cc49VrPb.s 			page 43


 2353 0156 12       		.sleb128 18
 2354 0157 08       		.uleb128 0x8
 2355 0158 55030000 		.4byte	.LASF41
 2356 015c 13       		.sleb128 19
 2357 015d 08       		.uleb128 0x8
 2358 015e 1A000000 		.4byte	.LASF42
 2359 0162 14       		.sleb128 20
 2360 0163 08       		.uleb128 0x8
 2361 0164 A5000000 		.4byte	.LASF43
 2362 0168 15       		.sleb128 21
 2363 0169 08       		.uleb128 0x8
 2364 016a 9E080000 		.4byte	.LASF44
 2365 016e 16       		.sleb128 22
 2366 016f 08       		.uleb128 0x8
 2367 0170 56000000 		.4byte	.LASF45
 2368 0174 17       		.sleb128 23
 2369 0175 08       		.uleb128 0x8
 2370 0176 B4050000 		.4byte	.LASF46
 2371 017a 18       		.sleb128 24
 2372 017b 08       		.uleb128 0x8
 2373 017c 08040000 		.4byte	.LASF47
 2374 0180 19       		.sleb128 25
 2375 0181 08       		.uleb128 0x8
 2376 0182 0C060000 		.4byte	.LASF48
 2377 0186 1A       		.sleb128 26
 2378 0187 08       		.uleb128 0x8
 2379 0188 CF030000 		.4byte	.LASF49
 2380 018c 1B       		.sleb128 27
 2381 018d 08       		.uleb128 0x8
 2382 018e E2070000 		.4byte	.LASF50
 2383 0192 1C       		.sleb128 28
 2384 0193 08       		.uleb128 0x8
 2385 0194 E6080000 		.4byte	.LASF51
 2386 0198 1D       		.sleb128 29
 2387 0199 08       		.uleb128 0x8
 2388 019a 00010000 		.4byte	.LASF52
 2389 019e 1E       		.sleb128 30
 2390 019f 08       		.uleb128 0x8
 2391 01a0 75000000 		.4byte	.LASF53
 2392 01a4 1F       		.sleb128 31
 2393 01a5 08       		.uleb128 0x8
 2394 01a6 66080000 		.4byte	.LASF54
 2395 01aa 20       		.sleb128 32
 2396 01ab 08       		.uleb128 0x8
 2397 01ac 2D040000 		.4byte	.LASF55
 2398 01b0 21       		.sleb128 33
 2399 01b1 08       		.uleb128 0x8
 2400 01b2 F3000000 		.4byte	.LASF56
 2401 01b6 22       		.sleb128 34
 2402 01b7 08       		.uleb128 0x8
 2403 01b8 7A030000 		.4byte	.LASF57
 2404 01bc 23       		.sleb128 35
 2405 01bd 08       		.uleb128 0x8
 2406 01be 73040000 		.4byte	.LASF58
 2407 01c2 24       		.sleb128 36
 2408 01c3 08       		.uleb128 0x8
 2409 01c4 F7070000 		.4byte	.LASF59
ARM GAS  C:\Users\DNIEL~1\AppData\Local\Temp\cc49VrPb.s 			page 44


 2410 01c8 25       		.sleb128 37
 2411 01c9 08       		.uleb128 0x8
 2412 01ca 77060000 		.4byte	.LASF60
 2413 01ce 26       		.sleb128 38
 2414 01cf 08       		.uleb128 0x8
 2415 01d0 C7070000 		.4byte	.LASF61
 2416 01d4 27       		.sleb128 39
 2417 01d5 08       		.uleb128 0x8
 2418 01d6 6B030000 		.4byte	.LASF62
 2419 01da 28       		.sleb128 40
 2420 01db 08       		.uleb128 0x8
 2421 01dc CA000000 		.4byte	.LASF63
 2422 01e0 29       		.sleb128 41
 2423 01e1 08       		.uleb128 0x8
 2424 01e2 F7010000 		.4byte	.LASF64
 2425 01e6 2A       		.sleb128 42
 2426 01e7 08       		.uleb128 0x8
 2427 01e8 AE030000 		.4byte	.LASF65
 2428 01ec 2B       		.sleb128 43
 2429 01ed 08       		.uleb128 0x8
 2430 01ee 14020000 		.4byte	.LASF66
 2431 01f2 2C       		.sleb128 44
 2432 01f3 08       		.uleb128 0x8
 2433 01f4 DC030000 		.4byte	.LASF67
 2434 01f8 2D       		.sleb128 45
 2435 01f9 08       		.uleb128 0x8
 2436 01fa 36010000 		.4byte	.LASF68
 2437 01fe 2E       		.sleb128 46
 2438 01ff 08       		.uleb128 0x8
 2439 0200 E4060000 		.4byte	.LASF69
 2440 0204 2F       		.sleb128 47
 2441 0205 08       		.uleb128 0x8
 2442 0206 94050000 		.4byte	.LASF70
 2443 020a 30       		.sleb128 48
 2444 020b 08       		.uleb128 0x8
 2445 020c 22010000 		.4byte	.LASF71
 2446 0210 31       		.sleb128 49
 2447 0211 08       		.uleb128 0x8
 2448 0212 5E040000 		.4byte	.LASF72
 2449 0216 32       		.sleb128 50
 2450 0217 08       		.uleb128 0x8
 2451 0218 6F050000 		.4byte	.LASF73
 2452 021c 33       		.sleb128 51
 2453 021d 08       		.uleb128 0x8
 2454 021e EC010000 		.4byte	.LASF74
 2455 0222 34       		.sleb128 52
 2456 0223 08       		.uleb128 0x8
 2457 0224 01060000 		.4byte	.LASF75
 2458 0228 35       		.sleb128 53
 2459 0229 08       		.uleb128 0x8
 2460 022a D6010000 		.4byte	.LASF76
 2461 022e 36       		.sleb128 54
 2462 022f 08       		.uleb128 0x8
 2463 0230 23070000 		.4byte	.LASF77
 2464 0234 37       		.sleb128 55
 2465 0235 08       		.uleb128 0x8
 2466 0236 A7070000 		.4byte	.LASF78
ARM GAS  C:\Users\DNIEL~1\AppData\Local\Temp\cc49VrPb.s 			page 45


 2467 023a 38       		.sleb128 56
 2468 023b 08       		.uleb128 0x8
 2469 023c 7C080000 		.4byte	.LASF79
 2470 0240 39       		.sleb128 57
 2471 0241 08       		.uleb128 0x8
 2472 0242 38030000 		.4byte	.LASF80
 2473 0246 3A       		.sleb128 58
 2474 0247 08       		.uleb128 0x8
 2475 0248 1B040000 		.4byte	.LASF81
 2476 024c 3B       		.sleb128 59
 2477 024d 08       		.uleb128 0x8
 2478 024e 82050000 		.4byte	.LASF82
 2479 0252 3C       		.sleb128 60
 2480 0253 08       		.uleb128 0x8
 2481 0254 FF030000 		.4byte	.LASF83
 2482 0258 3D       		.sleb128 61
 2483 0259 08       		.uleb128 0x8
 2484 025a BF010000 		.4byte	.LASF84
 2485 025e 3E       		.sleb128 62
 2486 025f 08       		.uleb128 0x8
 2487 0260 8F040000 		.4byte	.LASF85
 2488 0264 3F       		.sleb128 63
 2489 0265 08       		.uleb128 0x8
 2490 0266 31000000 		.4byte	.LASF86
 2491 026a C000     		.sleb128 64
 2492 026c 08       		.uleb128 0x8
 2493 026d 5D010000 		.4byte	.LASF87
 2494 0271 C100     		.sleb128 65
 2495 0273 08       		.uleb128 0x8
 2496 0274 BE080000 		.4byte	.LASF88
 2497 0278 C200     		.sleb128 66
 2498 027a 08       		.uleb128 0x8
 2499 027b 62060000 		.4byte	.LASF89
 2500 027f C300     		.sleb128 67
 2501 0281 08       		.uleb128 0x8
 2502 0282 82000000 		.4byte	.LASF90
 2503 0286 C400     		.sleb128 68
 2504 0288 08       		.uleb128 0x8
 2505 0289 44000000 		.4byte	.LASF91
 2506 028d C500     		.sleb128 69
 2507 028f 08       		.uleb128 0x8
 2508 0290 3A020000 		.4byte	.LASF92
 2509 0294 C600     		.sleb128 70
 2510 0296 08       		.uleb128 0x8
 2511 0297 4C040000 		.4byte	.LASF93
 2512 029b C700     		.sleb128 71
 2513 029d 08       		.uleb128 0x8
 2514 029e CA020000 		.4byte	.LASF94
 2515 02a2 C800     		.sleb128 72
 2516 02a4 08       		.uleb128 0x8
 2517 02a5 63000000 		.4byte	.LASF95
 2518 02a9 C900     		.sleb128 73
 2519 02ab 08       		.uleb128 0x8
 2520 02ac 05030000 		.4byte	.LASF96
 2521 02b0 CA00     		.sleb128 74
 2522 02b2 08       		.uleb128 0x8
 2523 02b3 2D070000 		.4byte	.LASF97
ARM GAS  C:\Users\DNIEL~1\AppData\Local\Temp\cc49VrPb.s 			page 46


 2524 02b7 CB00     		.sleb128 75
 2525 02b9 08       		.uleb128 0x8
 2526 02ba D5080000 		.4byte	.LASF98
 2527 02be CC00     		.sleb128 76
 2528 02c0 08       		.uleb128 0x8
 2529 02c1 B8040000 		.4byte	.LASF99
 2530 02c5 CD00     		.sleb128 77
 2531 02c7 08       		.uleb128 0x8
 2532 02c8 16080000 		.4byte	.LASF100
 2533 02cc CE00     		.sleb128 78
 2534 02ce 08       		.uleb128 0x8
 2535 02cf 6B010000 		.4byte	.LASF101
 2536 02d3 CF00     		.sleb128 79
 2537 02d5 08       		.uleb128 0x8
 2538 02d6 DF050000 		.4byte	.LASF102
 2539 02da D000     		.sleb128 80
 2540 02dc 08       		.uleb128 0x8
 2541 02dd 44080000 		.4byte	.LASF103
 2542 02e1 D100     		.sleb128 81
 2543 02e3 00       		.byte	0x0
 2544 02e4 09       		.uleb128 0x9
 2545 02e5 70000000 		.4byte	0x70
 2546 02e9 F4020000 		.4byte	0x2f4
 2547 02ed 0A       		.uleb128 0xa
 2548 02ee 30000000 		.4byte	0x30
 2549 02f2 01       		.byte	0x1
 2550 02f3 00       		.byte	0x0
 2551 02f4 06       		.uleb128 0x6
 2552 02f5 5E000000 		.4byte	0x5e
 2553 02f9 0B       		.uleb128 0xb
 2554 02fa 18       		.byte	0x18
 2555 02fb 04       		.byte	0x4
 2556 02fc D301     		.2byte	0x1d3
 2557 02fe 5C030000 		.4byte	0x35c
 2558 0302 0C       		.uleb128 0xc
 2559 0303 435200   		.ascii	"CR\000"
 2560 0306 04       		.byte	0x4
 2561 0307 D501     		.2byte	0x1d5
 2562 0309 9D000000 		.4byte	0x9d
 2563 030d 02       		.byte	0x2
 2564 030e 23       		.byte	0x23
 2565 030f 00       		.uleb128 0x0
 2566 0310 0D       		.uleb128 0xd
 2567 0311 54070000 		.4byte	.LASF104
 2568 0315 04       		.byte	0x4
 2569 0316 D601     		.2byte	0x1d6
 2570 0318 9D000000 		.4byte	0x9d
 2571 031c 02       		.byte	0x2
 2572 031d 23       		.byte	0x23
 2573 031e 04       		.uleb128 0x4
 2574 031f 0C       		.uleb128 0xc
 2575 0320 50415200 		.ascii	"PAR\000"
 2576 0324 04       		.byte	0x4
 2577 0325 D701     		.2byte	0x1d7
 2578 0327 9D000000 		.4byte	0x9d
 2579 032b 02       		.byte	0x2
 2580 032c 23       		.byte	0x23
ARM GAS  C:\Users\DNIEL~1\AppData\Local\Temp\cc49VrPb.s 			page 47


 2581 032d 08       		.uleb128 0x8
 2582 032e 0D       		.uleb128 0xd
 2583 032f 3F000000 		.4byte	.LASF105
 2584 0333 04       		.byte	0x4
 2585 0334 D801     		.2byte	0x1d8
 2586 0336 9D000000 		.4byte	0x9d
 2587 033a 02       		.byte	0x2
 2588 033b 23       		.byte	0x23
 2589 033c 0C       		.uleb128 0xc
 2590 033d 0D       		.uleb128 0xd
 2591 033e B9070000 		.4byte	.LASF106
 2592 0342 04       		.byte	0x4
 2593 0343 D901     		.2byte	0x1d9
 2594 0345 9D000000 		.4byte	0x9d
 2595 0349 02       		.byte	0x2
 2596 034a 23       		.byte	0x23
 2597 034b 10       		.uleb128 0x10
 2598 034c 0C       		.uleb128 0xc
 2599 034d 46435200 		.ascii	"FCR\000"
 2600 0351 04       		.byte	0x4
 2601 0352 DA01     		.2byte	0x1da
 2602 0354 9D000000 		.4byte	0x9d
 2603 0358 02       		.byte	0x2
 2604 0359 23       		.byte	0x23
 2605 035a 14       		.uleb128 0x14
 2606 035b 00       		.byte	0x0
 2607 035c 0E       		.uleb128 0xe
 2608 035d 59070000 		.4byte	.LASF107
 2609 0361 04       		.byte	0x4
 2610 0362 DB01     		.2byte	0x1db
 2611 0364 F9020000 		.4byte	0x2f9
 2612 0368 0B       		.uleb128 0xb
 2613 0369 10       		.byte	0x10
 2614 036a 04       		.byte	0x4
 2615 036b DD01     		.2byte	0x1dd
 2616 036d AE030000 		.4byte	0x3ae
 2617 0371 0D       		.uleb128 0xd
 2618 0372 70000000 		.4byte	.LASF108
 2619 0376 04       		.byte	0x4
 2620 0377 DF01     		.2byte	0x1df
 2621 0379 9D000000 		.4byte	0x9d
 2622 037d 02       		.byte	0x2
 2623 037e 23       		.byte	0x23
 2624 037f 00       		.uleb128 0x0
 2625 0380 0D       		.uleb128 0xd
 2626 0381 9F030000 		.4byte	.LASF109
 2627 0385 04       		.byte	0x4
 2628 0386 E001     		.2byte	0x1e0
 2629 0388 9D000000 		.4byte	0x9d
 2630 038c 02       		.byte	0x2
 2631 038d 23       		.byte	0x23
 2632 038e 04       		.uleb128 0x4
 2633 038f 0D       		.uleb128 0xd
 2634 0390 F9030000 		.4byte	.LASF110
 2635 0394 04       		.byte	0x4
 2636 0395 E101     		.2byte	0x1e1
 2637 0397 9D000000 		.4byte	0x9d
ARM GAS  C:\Users\DNIEL~1\AppData\Local\Temp\cc49VrPb.s 			page 48


 2638 039b 02       		.byte	0x2
 2639 039c 23       		.byte	0x23
 2640 039d 08       		.uleb128 0x8
 2641 039e 0D       		.uleb128 0xd
 2642 039f 98080000 		.4byte	.LASF111
 2643 03a3 04       		.byte	0x4
 2644 03a4 E201     		.2byte	0x1e2
 2645 03a6 9D000000 		.4byte	0x9d
 2646 03aa 02       		.byte	0x2
 2647 03ab 23       		.byte	0x23
 2648 03ac 0C       		.uleb128 0xc
 2649 03ad 00       		.byte	0x0
 2650 03ae 0E       		.uleb128 0xe
 2651 03af 54020000 		.4byte	.LASF112
 2652 03b3 04       		.byte	0x4
 2653 03b4 E301     		.2byte	0x1e3
 2654 03b6 68030000 		.4byte	0x368
 2655 03ba 0B       		.uleb128 0xb
 2656 03bb 88       		.byte	0x88
 2657 03bc 04       		.byte	0x4
 2658 03bd DB02     		.2byte	0x2db
 2659 03bf 87050000 		.4byte	0x587
 2660 03c3 0C       		.uleb128 0xc
 2661 03c4 435200   		.ascii	"CR\000"
 2662 03c7 04       		.byte	0x4
 2663 03c8 DD02     		.2byte	0x2dd
 2664 03ca 9D000000 		.4byte	0x9d
 2665 03ce 02       		.byte	0x2
 2666 03cf 23       		.byte	0x23
 2667 03d0 00       		.uleb128 0x0
 2668 03d1 0D       		.uleb128 0xd
 2669 03d2 E4010000 		.4byte	.LASF113
 2670 03d6 04       		.byte	0x4
 2671 03d7 DE02     		.2byte	0x2de
 2672 03d9 9D000000 		.4byte	0x9d
 2673 03dd 02       		.byte	0x2
 2674 03de 23       		.byte	0x23
 2675 03df 04       		.uleb128 0x4
 2676 03e0 0D       		.uleb128 0xd
 2677 03e1 4D080000 		.4byte	.LASF114
 2678 03e5 04       		.byte	0x4
 2679 03e6 DF02     		.2byte	0x2df
 2680 03e8 9D000000 		.4byte	0x9d
 2681 03ec 02       		.byte	0x2
 2682 03ed 23       		.byte	0x23
 2683 03ee 08       		.uleb128 0x8
 2684 03ef 0C       		.uleb128 0xc
 2685 03f0 43495200 		.ascii	"CIR\000"
 2686 03f4 04       		.byte	0x4
 2687 03f5 E002     		.2byte	0x2e0
 2688 03f7 9D000000 		.4byte	0x9d
 2689 03fb 02       		.byte	0x2
 2690 03fc 23       		.byte	0x23
 2691 03fd 0C       		.uleb128 0xc
 2692 03fe 0D       		.uleb128 0xd
 2693 03ff 75010000 		.4byte	.LASF115
 2694 0403 04       		.byte	0x4
ARM GAS  C:\Users\DNIEL~1\AppData\Local\Temp\cc49VrPb.s 			page 49


 2695 0404 E102     		.2byte	0x2e1
 2696 0406 9D000000 		.4byte	0x9d
 2697 040a 02       		.byte	0x2
 2698 040b 23       		.byte	0x23
 2699 040c 10       		.uleb128 0x10
 2700 040d 0D       		.uleb128 0xd
 2701 040e 27020000 		.4byte	.LASF116
 2702 0412 04       		.byte	0x4
 2703 0413 E202     		.2byte	0x2e2
 2704 0415 9D000000 		.4byte	0x9d
 2705 0419 02       		.byte	0x2
 2706 041a 23       		.byte	0x23
 2707 041b 14       		.uleb128 0x14
 2708 041c 0D       		.uleb128 0xd
 2709 041d 62030000 		.4byte	.LASF117
 2710 0421 04       		.byte	0x4
 2711 0422 E302     		.2byte	0x2e3
 2712 0424 9D000000 		.4byte	0x9d
 2713 0428 02       		.byte	0x2
 2714 0429 23       		.byte	0x23
 2715 042a 18       		.uleb128 0x18
 2716 042b 0D       		.uleb128 0xd
 2717 042c 16050000 		.4byte	.LASF118
 2718 0430 04       		.byte	0x4
 2719 0431 E402     		.2byte	0x2e4
 2720 0433 70000000 		.4byte	0x70
 2721 0437 02       		.byte	0x2
 2722 0438 23       		.byte	0x23
 2723 0439 1C       		.uleb128 0x1c
 2724 043a 0D       		.uleb128 0xd
 2725 043b AF040000 		.4byte	.LASF119
 2726 043f 04       		.byte	0x4
 2727 0440 E502     		.2byte	0x2e5
 2728 0442 9D000000 		.4byte	0x9d
 2729 0446 02       		.byte	0x2
 2730 0447 23       		.byte	0x23
 2731 0448 20       		.uleb128 0x20
 2732 0449 0D       		.uleb128 0xd
 2733 044a 9F010000 		.4byte	.LASF120
 2734 044e 04       		.byte	0x4
 2735 044f E602     		.2byte	0x2e6
 2736 0451 9D000000 		.4byte	0x9d
 2737 0455 02       		.byte	0x2
 2738 0456 23       		.byte	0x23
 2739 0457 24       		.uleb128 0x24
 2740 0458 0D       		.uleb128 0xd
 2741 0459 20050000 		.4byte	.LASF121
 2742 045d 04       		.byte	0x4
 2743 045e E702     		.2byte	0x2e7
 2744 0460 E4020000 		.4byte	0x2e4
 2745 0464 02       		.byte	0x2
 2746 0465 23       		.byte	0x23
 2747 0466 28       		.uleb128 0x28
 2748 0467 0D       		.uleb128 0xd
 2749 0468 4C020000 		.4byte	.LASF122
 2750 046c 04       		.byte	0x4
 2751 046d E802     		.2byte	0x2e8
ARM GAS  C:\Users\DNIEL~1\AppData\Local\Temp\cc49VrPb.s 			page 50


 2752 046f 9D000000 		.4byte	0x9d
 2753 0473 02       		.byte	0x2
 2754 0474 23       		.byte	0x23
 2755 0475 30       		.uleb128 0x30
 2756 0476 0D       		.uleb128 0xd
 2757 0477 6C070000 		.4byte	.LASF123
 2758 047b 04       		.byte	0x4
 2759 047c E902     		.2byte	0x2e9
 2760 047e 9D000000 		.4byte	0x9d
 2761 0482 02       		.byte	0x2
 2762 0483 23       		.byte	0x23
 2763 0484 34       		.uleb128 0x34
 2764 0485 0D       		.uleb128 0xd
 2765 0486 41060000 		.4byte	.LASF124
 2766 048a 04       		.byte	0x4
 2767 048b EA02     		.2byte	0x2ea
 2768 048d 9D000000 		.4byte	0x9d
 2769 0491 02       		.byte	0x2
 2770 0492 23       		.byte	0x23
 2771 0493 38       		.uleb128 0x38
 2772 0494 0D       		.uleb128 0xd
 2773 0495 2A050000 		.4byte	.LASF125
 2774 0499 04       		.byte	0x4
 2775 049a EB02     		.2byte	0x2eb
 2776 049c 70000000 		.4byte	0x70
 2777 04a0 02       		.byte	0x2
 2778 04a1 23       		.byte	0x23
 2779 04a2 3C       		.uleb128 0x3c
 2780 04a3 0D       		.uleb128 0xd
 2781 04a4 9C060000 		.4byte	.LASF126
 2782 04a8 04       		.byte	0x4
 2783 04a9 EC02     		.2byte	0x2ec
 2784 04ab 9D000000 		.4byte	0x9d
 2785 04af 02       		.byte	0x2
 2786 04b0 23       		.byte	0x23
 2787 04b1 40       		.uleb128 0x40
 2788 04b2 0D       		.uleb128 0xd
 2789 04b3 39060000 		.4byte	.LASF127
 2790 04b7 04       		.byte	0x4
 2791 04b8 ED02     		.2byte	0x2ed
 2792 04ba 9D000000 		.4byte	0x9d
 2793 04be 02       		.byte	0x2
 2794 04bf 23       		.byte	0x23
 2795 04c0 44       		.uleb128 0x44
 2796 04c1 0D       		.uleb128 0xd
 2797 04c2 34050000 		.4byte	.LASF128
 2798 04c6 04       		.byte	0x4
 2799 04c7 EE02     		.2byte	0x2ee
 2800 04c9 E4020000 		.4byte	0x2e4
 2801 04cd 02       		.byte	0x2
 2802 04ce 23       		.byte	0x23
 2803 04cf 48       		.uleb128 0x48
 2804 04d0 0D       		.uleb128 0xd
 2805 04d1 2C010000 		.4byte	.LASF129
 2806 04d5 04       		.byte	0x4
 2807 04d6 EF02     		.2byte	0x2ef
 2808 04d8 9D000000 		.4byte	0x9d
ARM GAS  C:\Users\DNIEL~1\AppData\Local\Temp\cc49VrPb.s 			page 51


 2809 04dc 02       		.byte	0x2
 2810 04dd 23       		.byte	0x23
 2811 04de 50       		.uleb128 0x50
 2812 04df 0D       		.uleb128 0xd
 2813 04e0 9C040000 		.4byte	.LASF130
 2814 04e4 04       		.byte	0x4
 2815 04e5 F002     		.2byte	0x2f0
 2816 04e7 9D000000 		.4byte	0x9d
 2817 04eb 02       		.byte	0x2
 2818 04ec 23       		.byte	0x23
 2819 04ed 54       		.uleb128 0x54
 2820 04ee 0D       		.uleb128 0xd
 2821 04ef F7050000 		.4byte	.LASF131
 2822 04f3 04       		.byte	0x4
 2823 04f4 F102     		.2byte	0x2f1
 2824 04f6 9D000000 		.4byte	0x9d
 2825 04fa 02       		.byte	0x2
 2826 04fb 23       		.byte	0x23
 2827 04fc 58       		.uleb128 0x58
 2828 04fd 0D       		.uleb128 0xd
 2829 04fe 3E050000 		.4byte	.LASF132
 2830 0502 04       		.byte	0x4
 2831 0503 F202     		.2byte	0x2f2
 2832 0505 70000000 		.4byte	0x70
 2833 0509 02       		.byte	0x2
 2834 050a 23       		.byte	0x23
 2835 050b 5C       		.uleb128 0x5c
 2836 050c 0D       		.uleb128 0xd
 2837 050d 10000000 		.4byte	.LASF133
 2838 0511 04       		.byte	0x4
 2839 0512 F302     		.2byte	0x2f3
 2840 0514 9D000000 		.4byte	0x9d
 2841 0518 02       		.byte	0x2
 2842 0519 23       		.byte	0x23
 2843 051a 60       		.uleb128 0x60
 2844 051b 0D       		.uleb128 0xd
 2845 051c A4030000 		.4byte	.LASF134
 2846 0520 04       		.byte	0x4
 2847 0521 F402     		.2byte	0x2f4
 2848 0523 9D000000 		.4byte	0x9d
 2849 0527 02       		.byte	0x2
 2850 0528 23       		.byte	0x23
 2851 0529 64       		.uleb128 0x64
 2852 052a 0D       		.uleb128 0xd
 2853 052b 48050000 		.4byte	.LASF135
 2854 052f 04       		.byte	0x4
 2855 0530 F502     		.2byte	0x2f5
 2856 0532 E4020000 		.4byte	0x2e4
 2857 0536 02       		.byte	0x2
 2858 0537 23       		.byte	0x23
 2859 0538 68       		.uleb128 0x68
 2860 0539 0D       		.uleb128 0xd
 2861 053a 03080000 		.4byte	.LASF136
 2862 053e 04       		.byte	0x4
 2863 053f F602     		.2byte	0x2f6
 2864 0541 9D000000 		.4byte	0x9d
 2865 0545 02       		.byte	0x2
ARM GAS  C:\Users\DNIEL~1\AppData\Local\Temp\cc49VrPb.s 			page 52


 2866 0546 23       		.byte	0x23
 2867 0547 70       		.uleb128 0x70
 2868 0548 0C       		.uleb128 0xc
 2869 0549 43535200 		.ascii	"CSR\000"
 2870 054d 04       		.byte	0x4
 2871 054e F702     		.2byte	0x2f7
 2872 0550 9D000000 		.4byte	0x9d
 2873 0554 02       		.byte	0x2
 2874 0555 23       		.byte	0x23
 2875 0556 74       		.uleb128 0x74
 2876 0557 0D       		.uleb128 0xd
 2877 0558 52050000 		.4byte	.LASF137
 2878 055c 04       		.byte	0x4
 2879 055d F802     		.2byte	0x2f8
 2880 055f E4020000 		.4byte	0x2e4
 2881 0563 02       		.byte	0x2
 2882 0564 23       		.byte	0x23
 2883 0565 78       		.uleb128 0x78
 2884 0566 0D       		.uleb128 0xd
 2885 0567 D3070000 		.4byte	.LASF138
 2886 056b 04       		.byte	0x4
 2887 056c F902     		.2byte	0x2f9
 2888 056e 9D000000 		.4byte	0x9d
 2889 0572 03       		.byte	0x3
 2890 0573 23       		.byte	0x23
 2891 0574 8001     		.uleb128 0x80
 2892 0576 0D       		.uleb128 0xd
 2893 0577 4A030000 		.4byte	.LASF139
 2894 057b 04       		.byte	0x4
 2895 057c FA02     		.2byte	0x2fa
 2896 057e 9D000000 		.4byte	0x9d
 2897 0582 03       		.byte	0x3
 2898 0583 23       		.byte	0x23
 2899 0584 8401     		.uleb128 0x84
 2900 0586 00       		.byte	0x0
 2901 0587 0E       		.uleb128 0xe
 2902 0588 E9020000 		.4byte	.LASF140
 2903 058c 04       		.byte	0x4
 2904 058d FB02     		.2byte	0x2fb
 2905 058f BA030000 		.4byte	0x3ba
 2906 0593 0F       		.uleb128 0xf
 2907 0594 0C       		.byte	0xc
 2908 0595 05       		.byte	0x5
 2909 0596 DE       		.byte	0xde
 2910 0597 E2050000 		.4byte	0x5e2
 2911 059b 10       		.uleb128 0x10
 2912 059c 9E000000 		.4byte	.LASF141
 2913 05a0 05       		.byte	0x5
 2914 05a1 DF       		.byte	0xdf
 2915 05a2 E2050000 		.4byte	0x5e2
 2916 05a6 02       		.byte	0x2
 2917 05a7 23       		.byte	0x23
 2918 05a8 00       		.uleb128 0x0
 2919 05a9 10       		.uleb128 0x10
 2920 05aa 54060000 		.4byte	.LASF142
 2921 05ae 05       		.byte	0x5
 2922 05af E0       		.byte	0xe0
ARM GAS  C:\Users\DNIEL~1\AppData\Local\Temp\cc49VrPb.s 			page 53


 2923 05b0 E8050000 		.4byte	0x5e8
 2924 05b4 02       		.byte	0x2
 2925 05b5 23       		.byte	0x23
 2926 05b6 04       		.uleb128 0x4
 2927 05b7 10       		.uleb128 0x10
 2928 05b8 F5020000 		.4byte	.LASF143
 2929 05bc 05       		.byte	0x5
 2930 05bd E1       		.byte	0xe1
 2931 05be 3E000000 		.4byte	0x3e
 2932 05c2 02       		.byte	0x2
 2933 05c3 23       		.byte	0x23
 2934 05c4 08       		.uleb128 0x8
 2935 05c5 10       		.uleb128 0x10
 2936 05c6 30020000 		.4byte	.LASF144
 2937 05ca 05       		.byte	0x5
 2938 05cb E3       		.byte	0xe3
 2939 05cc 3E000000 		.4byte	0x3e
 2940 05d0 02       		.byte	0x2
 2941 05d1 23       		.byte	0x23
 2942 05d2 09       		.uleb128 0x9
 2943 05d3 10       		.uleb128 0x10
 2944 05d4 D9000000 		.4byte	.LASF145
 2945 05d8 05       		.byte	0x5
 2946 05d9 E4       		.byte	0xe4
 2947 05da 3E000000 		.4byte	0x3e
 2948 05de 02       		.byte	0x2
 2949 05df 23       		.byte	0x23
 2950 05e0 0A       		.uleb128 0xa
 2951 05e1 00       		.byte	0x0
 2952 05e2 11       		.uleb128 0x11
 2953 05e3 04       		.byte	0x4
 2954 05e4 5C030000 		.4byte	0x35c
 2955 05e8 11       		.uleb128 0x11
 2956 05e9 04       		.byte	0x4
 2957 05ea 9D000000 		.4byte	0x9d
 2958 05ee 04       		.uleb128 0x4
 2959 05ef 5C050000 		.4byte	.LASF146
 2960 05f3 05       		.byte	0x5
 2961 05f4 E5       		.byte	0xe5
 2962 05f5 93050000 		.4byte	0x593
 2963 05f9 04       		.uleb128 0x4
 2964 05fa BB020000 		.4byte	.LASF147
 2965 05fe 05       		.byte	0x5
 2966 05ff EE       		.byte	0xee
 2967 0600 04060000 		.4byte	0x604
 2968 0604 11       		.uleb128 0x11
 2969 0605 04       		.byte	0x4
 2970 0606 0A060000 		.4byte	0x60a
 2971 060a 12       		.uleb128 0x12
 2972 060b 01       		.byte	0x1
 2973 060c 1B060000 		.4byte	0x61b
 2974 0610 13       		.uleb128 0x13
 2975 0611 9B000000 		.4byte	0x9b
 2976 0615 13       		.uleb128 0x13
 2977 0616 70000000 		.4byte	0x70
 2978 061a 00       		.byte	0x0
 2979 061b 11       		.uleb128 0x11
ARM GAS  C:\Users\DNIEL~1\AppData\Local\Temp\cc49VrPb.s 			page 54


 2980 061c 04       		.byte	0x4
 2981 061d 21060000 		.4byte	0x621
 2982 0621 14       		.uleb128 0x14
 2983 0622 EE050000 		.4byte	0x5ee
 2984 0626 0F       		.uleb128 0xf
 2985 0627 08       		.byte	0x8
 2986 0628 01       		.byte	0x1
 2987 0629 68       		.byte	0x68
 2988 062a 4B060000 		.4byte	0x64b
 2989 062e 10       		.uleb128 0x10
 2990 062f A6040000 		.4byte	.LASF148
 2991 0633 01       		.byte	0x1
 2992 0634 69       		.byte	0x69
 2993 0635 F9050000 		.4byte	0x5f9
 2994 0639 02       		.byte	0x2
 2995 063a 23       		.byte	0x23
 2996 063b 00       		.uleb128 0x0
 2997 063c 10       		.uleb128 0x10
 2998 063d 24060000 		.4byte	.LASF149
 2999 0641 01       		.byte	0x1
 3000 0642 6A       		.byte	0x6a
 3001 0643 9B000000 		.4byte	0x9b
 3002 0647 02       		.byte	0x2
 3003 0648 23       		.byte	0x23
 3004 0649 04       		.uleb128 0x4
 3005 064a 00       		.byte	0x0
 3006 064b 04       		.uleb128 0x4
 3007 064c 00000000 		.4byte	.LASF150
 3008 0650 01       		.byte	0x1
 3009 0651 6B       		.byte	0x6b
 3010 0652 26060000 		.4byte	0x626
 3011 0656 15       		.uleb128 0x15
 3012 0657 01       		.byte	0x1
 3013 0658 79050000 		.4byte	.LASF151
 3014 065c 01       		.byte	0x1
 3015 065d 84       		.byte	0x84
 3016 065e 01       		.byte	0x1
 3017 065f 00000000 		.4byte	.LFB118
 3018 0663 30000000 		.4byte	.LFE118
 3019 0667 00000000 		.4byte	.LLST0
 3020 066b 7F060000 		.4byte	0x67f
 3021 066f 16       		.uleb128 0x16
 3022 0670 10080000 		.4byte	.LASF153
 3023 0674 01       		.byte	0x1
 3024 0675 85       		.byte	0x85
 3025 0676 70000000 		.4byte	0x70
 3026 067a 20000000 		.4byte	.LLST1
 3027 067e 00       		.byte	0x0
 3028 067f 15       		.uleb128 0x15
 3029 0680 01       		.byte	0x1
 3030 0681 59060000 		.4byte	.LASF152
 3031 0685 01       		.byte	0x1
 3032 0686 96       		.byte	0x96
 3033 0687 01       		.byte	0x1
 3034 0688 00000000 		.4byte	.LFB119
 3035 068c 34000000 		.4byte	.LFE119
 3036 0690 43000000 		.4byte	.LLST2
ARM GAS  C:\Users\DNIEL~1\AppData\Local\Temp\cc49VrPb.s 			page 55


 3037 0694 A8060000 		.4byte	0x6a8
 3038 0698 16       		.uleb128 0x16
 3039 0699 10080000 		.4byte	.LASF153
 3040 069d 01       		.byte	0x1
 3041 069e 97       		.byte	0x97
 3042 069f 70000000 		.4byte	0x70
 3043 06a3 63000000 		.4byte	.LLST3
 3044 06a7 00       		.byte	0x0
 3045 06a8 15       		.uleb128 0x15
 3046 06a9 01       		.byte	0x1
 3047 06aa 6E060000 		.4byte	.LASF154
 3048 06ae 01       		.byte	0x1
 3049 06af A8       		.byte	0xa8
 3050 06b0 01       		.byte	0x1
 3051 06b1 00000000 		.4byte	.LFB120
 3052 06b5 34000000 		.4byte	.LFE120
 3053 06b9 8D000000 		.4byte	.LLST4
 3054 06bd D1060000 		.4byte	0x6d1
 3055 06c1 16       		.uleb128 0x16
 3056 06c2 10080000 		.4byte	.LASF153
 3057 06c6 01       		.byte	0x1
 3058 06c7 A9       		.byte	0xa9
 3059 06c8 70000000 		.4byte	0x70
 3060 06cc AD000000 		.4byte	.LLST5
 3061 06d0 00       		.byte	0x0
 3062 06d1 15       		.uleb128 0x15
 3063 06d2 01       		.byte	0x1
 3064 06d3 93060000 		.4byte	.LASF155
 3065 06d7 01       		.byte	0x1
 3066 06d8 BA       		.byte	0xba
 3067 06d9 01       		.byte	0x1
 3068 06da 00000000 		.4byte	.LFB121
 3069 06de 34000000 		.4byte	.LFE121
 3070 06e2 D7000000 		.4byte	.LLST6
 3071 06e6 FA060000 		.4byte	0x6fa
 3072 06ea 16       		.uleb128 0x16
 3073 06eb 10080000 		.4byte	.LASF153
 3074 06ef 01       		.byte	0x1
 3075 06f0 BB       		.byte	0xbb
 3076 06f1 70000000 		.4byte	0x70
 3077 06f5 F7000000 		.4byte	.LLST7
 3078 06f9 00       		.byte	0x0
 3079 06fa 15       		.uleb128 0x15
 3080 06fb 01       		.byte	0x1
 3081 06fc 0C070000 		.4byte	.LASF156
 3082 0700 01       		.byte	0x1
 3083 0701 CC       		.byte	0xcc
 3084 0702 01       		.byte	0x1
 3085 0703 00000000 		.4byte	.LFB122
 3086 0707 30000000 		.4byte	.LFE122
 3087 070b 21010000 		.4byte	.LLST8
 3088 070f 23070000 		.4byte	0x723
 3089 0713 16       		.uleb128 0x16
 3090 0714 10080000 		.4byte	.LASF153
 3091 0718 01       		.byte	0x1
 3092 0719 CD       		.byte	0xcd
 3093 071a 70000000 		.4byte	0x70
ARM GAS  C:\Users\DNIEL~1\AppData\Local\Temp\cc49VrPb.s 			page 56


 3094 071e 41010000 		.4byte	.LLST9
 3095 0722 00       		.byte	0x0
 3096 0723 15       		.uleb128 0x15
 3097 0724 01       		.byte	0x1
 3098 0725 BE070000 		.4byte	.LASF157
 3099 0729 01       		.byte	0x1
 3100 072a DE       		.byte	0xde
 3101 072b 01       		.byte	0x1
 3102 072c 00000000 		.4byte	.LFB123
 3103 0730 34000000 		.4byte	.LFE123
 3104 0734 64010000 		.4byte	.LLST10
 3105 0738 4C070000 		.4byte	0x74c
 3106 073c 16       		.uleb128 0x16
 3107 073d 10080000 		.4byte	.LASF153
 3108 0741 01       		.byte	0x1
 3109 0742 DF       		.byte	0xdf
 3110 0743 70000000 		.4byte	0x70
 3111 0747 84010000 		.4byte	.LLST11
 3112 074b 00       		.byte	0x0
 3113 074c 15       		.uleb128 0x15
 3114 074d 01       		.byte	0x1
 3115 074e D9070000 		.4byte	.LASF158
 3116 0752 01       		.byte	0x1
 3117 0753 F0       		.byte	0xf0
 3118 0754 01       		.byte	0x1
 3119 0755 00000000 		.4byte	.LFB124
 3120 0759 34000000 		.4byte	.LFE124
 3121 075d AE010000 		.4byte	.LLST12
 3122 0761 75070000 		.4byte	0x775
 3123 0765 16       		.uleb128 0x16
 3124 0766 10080000 		.4byte	.LASF153
 3125 076a 01       		.byte	0x1
 3126 076b F1       		.byte	0xf1
 3127 076c 70000000 		.4byte	0x70
 3128 0770 CE010000 		.4byte	.LLST13
 3129 0774 00       		.byte	0x0
 3130 0775 17       		.uleb128 0x17
 3131 0776 01       		.byte	0x1
 3132 0777 FC020000 		.4byte	.LASF159
 3133 077b 01       		.byte	0x1
 3134 077c 0201     		.2byte	0x102
 3135 077e 01       		.byte	0x1
 3136 077f 00000000 		.4byte	.LFB125
 3137 0783 34000000 		.4byte	.LFE125
 3138 0787 F8010000 		.4byte	.LLST14
 3139 078b A0070000 		.4byte	0x7a0
 3140 078f 18       		.uleb128 0x18
 3141 0790 10080000 		.4byte	.LASF153
 3142 0794 01       		.byte	0x1
 3143 0795 0301     		.2byte	0x103
 3144 0797 70000000 		.4byte	0x70
 3145 079b 18020000 		.4byte	.LLST15
 3146 079f 00       		.byte	0x0
 3147 07a0 17       		.uleb128 0x17
 3148 07a1 01       		.byte	0x1
 3149 07a2 3A080000 		.4byte	.LASF160
 3150 07a6 01       		.byte	0x1
ARM GAS  C:\Users\DNIEL~1\AppData\Local\Temp\cc49VrPb.s 			page 57


 3151 07a7 1401     		.2byte	0x114
 3152 07a9 01       		.byte	0x1
 3153 07aa 00000000 		.4byte	.LFB126
 3154 07ae 30000000 		.4byte	.LFE126
 3155 07b2 42020000 		.4byte	.LLST16
 3156 07b6 CB070000 		.4byte	0x7cb
 3157 07ba 18       		.uleb128 0x18
 3158 07bb 10080000 		.4byte	.LASF153
 3159 07bf 01       		.byte	0x1
 3160 07c0 1501     		.2byte	0x115
 3161 07c2 70000000 		.4byte	0x70
 3162 07c6 62020000 		.4byte	.LLST17
 3163 07ca 00       		.byte	0x0
 3164 07cb 17       		.uleb128 0x17
 3165 07cc 01       		.byte	0x1
 3166 07cd 52080000 		.4byte	.LASF161
 3167 07d1 01       		.byte	0x1
 3168 07d2 2601     		.2byte	0x126
 3169 07d4 01       		.byte	0x1
 3170 07d5 00000000 		.4byte	.LFB127
 3171 07d9 34000000 		.4byte	.LFE127
 3172 07dd 85020000 		.4byte	.LLST18
 3173 07e1 F6070000 		.4byte	0x7f6
 3174 07e5 18       		.uleb128 0x18
 3175 07e6 10080000 		.4byte	.LASF153
 3176 07ea 01       		.byte	0x1
 3177 07eb 2701     		.2byte	0x127
 3178 07ed 70000000 		.4byte	0x70
 3179 07f1 A5020000 		.4byte	.LLST19
 3180 07f5 00       		.byte	0x0
 3181 07f6 17       		.uleb128 0x17
 3182 07f7 01       		.byte	0x1
 3183 07f8 5C080000 		.4byte	.LASF162
 3184 07fc 01       		.byte	0x1
 3185 07fd 3801     		.2byte	0x138
 3186 07ff 01       		.byte	0x1
 3187 0800 00000000 		.4byte	.LFB128
 3188 0804 34000000 		.4byte	.LFE128
 3189 0808 CF020000 		.4byte	.LLST20
 3190 080c 21080000 		.4byte	0x821
 3191 0810 18       		.uleb128 0x18
 3192 0811 10080000 		.4byte	.LASF153
 3193 0815 01       		.byte	0x1
 3194 0816 3901     		.2byte	0x139
 3195 0818 70000000 		.4byte	0x70
 3196 081c EF020000 		.4byte	.LLST21
 3197 0820 00       		.byte	0x0
 3198 0821 17       		.uleb128 0x17
 3199 0822 01       		.byte	0x1
 3200 0823 8E080000 		.4byte	.LASF163
 3201 0827 01       		.byte	0x1
 3202 0828 4A01     		.2byte	0x14a
 3203 082a 01       		.byte	0x1
 3204 082b 00000000 		.4byte	.LFB129
 3205 082f 34000000 		.4byte	.LFE129
 3206 0833 19030000 		.4byte	.LLST22
 3207 0837 4C080000 		.4byte	0x84c
ARM GAS  C:\Users\DNIEL~1\AppData\Local\Temp\cc49VrPb.s 			page 58


 3208 083b 18       		.uleb128 0x18
 3209 083c 10080000 		.4byte	.LASF153
 3210 0840 01       		.byte	0x1
 3211 0841 4B01     		.2byte	0x14b
 3212 0843 70000000 		.4byte	0x70
 3213 0847 39030000 		.4byte	.LLST23
 3214 084b 00       		.byte	0x0
 3215 084c 17       		.uleb128 0x17
 3216 084d 01       		.byte	0x1
 3217 084e 94000000 		.4byte	.LASF164
 3218 0852 01       		.byte	0x1
 3219 0853 5C01     		.2byte	0x15c
 3220 0855 01       		.byte	0x1
 3221 0856 00000000 		.4byte	.LFB130
 3222 085a 30000000 		.4byte	.LFE130
 3223 085e 63030000 		.4byte	.LLST24
 3224 0862 77080000 		.4byte	0x877
 3225 0866 18       		.uleb128 0x18
 3226 0867 10080000 		.4byte	.LASF153
 3227 086b 01       		.byte	0x1
 3228 086c 5D01     		.2byte	0x15d
 3229 086e 70000000 		.4byte	0x70
 3230 0872 83030000 		.4byte	.LLST25
 3231 0876 00       		.byte	0x0
 3232 0877 17       		.uleb128 0x17
 3233 0878 01       		.byte	0x1
 3234 0879 6D020000 		.4byte	.LASF165
 3235 087d 01       		.byte	0x1
 3236 087e 6E01     		.2byte	0x16e
 3237 0880 01       		.byte	0x1
 3238 0881 00000000 		.4byte	.LFB131
 3239 0885 34000000 		.4byte	.LFE131
 3240 0889 A6030000 		.4byte	.LLST26
 3241 088d A2080000 		.4byte	0x8a2
 3242 0891 18       		.uleb128 0x18
 3243 0892 10080000 		.4byte	.LASF153
 3244 0896 01       		.byte	0x1
 3245 0897 6F01     		.2byte	0x16f
 3246 0899 70000000 		.4byte	0x70
 3247 089d C6030000 		.4byte	.LLST27
 3248 08a1 00       		.byte	0x0
 3249 08a2 17       		.uleb128 0x17
 3250 08a3 01       		.byte	0x1
 3251 08a4 9B020000 		.4byte	.LASF166
 3252 08a8 01       		.byte	0x1
 3253 08a9 8001     		.2byte	0x180
 3254 08ab 01       		.byte	0x1
 3255 08ac 00000000 		.4byte	.LFB132
 3256 08b0 34000000 		.4byte	.LFE132
 3257 08b4 F0030000 		.4byte	.LLST28
 3258 08b8 CD080000 		.4byte	0x8cd
 3259 08bc 18       		.uleb128 0x18
 3260 08bd 10080000 		.4byte	.LASF153
 3261 08c1 01       		.byte	0x1
 3262 08c2 8101     		.2byte	0x181
 3263 08c4 70000000 		.4byte	0x70
 3264 08c8 10040000 		.4byte	.LLST29
ARM GAS  C:\Users\DNIEL~1\AppData\Local\Temp\cc49VrPb.s 			page 59


 3265 08cc 00       		.byte	0x0
 3266 08cd 17       		.uleb128 0x17
 3267 08ce 01       		.byte	0x1
 3268 08cf 7E010000 		.4byte	.LASF167
 3269 08d3 01       		.byte	0x1
 3270 08d4 9201     		.2byte	0x192
 3271 08d6 01       		.byte	0x1
 3272 08d7 00000000 		.4byte	.LFB133
 3273 08db 34000000 		.4byte	.LFE133
 3274 08df 3A040000 		.4byte	.LLST30
 3275 08e3 F8080000 		.4byte	0x8f8
 3276 08e7 18       		.uleb128 0x18
 3277 08e8 10080000 		.4byte	.LASF153
 3278 08ec 01       		.byte	0x1
 3279 08ed 9301     		.2byte	0x193
 3280 08ef 70000000 		.4byte	0x70
 3281 08f3 5A040000 		.4byte	.LLST31
 3282 08f7 00       		.byte	0x0
 3283 08f8 17       		.uleb128 0x17
 3284 08f9 01       		.byte	0x1
 3285 08fa DC060000 		.4byte	.LASF168
 3286 08fe 01       		.byte	0x1
 3287 08ff A801     		.2byte	0x1a8
 3288 0901 01       		.byte	0x1
 3289 0902 00000000 		.4byte	.LFB134
 3290 0906 C0000000 		.4byte	.LFE134
 3291 090a 84040000 		.4byte	.LLST32
 3292 090e 21090000 		.4byte	0x921
 3293 0912 19       		.uleb128 0x19
 3294 0913 6900     		.ascii	"i\000"
 3295 0915 01       		.byte	0x1
 3296 0916 A901     		.2byte	0x1a9
 3297 0918 29000000 		.4byte	0x29
 3298 091c A4040000 		.4byte	.LLST33
 3299 0920 00       		.byte	0x0
 3300 0921 1A       		.uleb128 0x1a
 3301 0922 01       		.byte	0x1
 3302 0923 AC080000 		.4byte	.LASF182
 3303 0927 01       		.byte	0x1
 3304 0928 CE01     		.2byte	0x1ce
 3305 092a 01       		.byte	0x1
 3306 092b 90000000 		.4byte	0x90
 3307 092f 00000000 		.4byte	.LFB135
 3308 0933 B0000000 		.4byte	.LFE135
 3309 0937 78050000 		.4byte	.LLST34
 3310 093b 80090000 		.4byte	0x980
 3311 093f 1B       		.uleb128 0x1b
 3312 0940 8F010000 		.4byte	.LASF169
 3313 0944 01       		.byte	0x1
 3314 0945 CE01     		.2byte	0x1ce
 3315 0947 1B060000 		.4byte	0x61b
 3316 094b A4050000 		.4byte	.LLST35
 3317 094f 1B       		.uleb128 0x1b
 3318 0950 96030000 		.4byte	.LASF170
 3319 0954 01       		.byte	0x1
 3320 0955 CF01     		.2byte	0x1cf
 3321 0957 70000000 		.4byte	0x70
ARM GAS  C:\Users\DNIEL~1\AppData\Local\Temp\cc49VrPb.s 			page 60


 3322 095b C2050000 		.4byte	.LLST36
 3323 095f 1B       		.uleb128 0x1b
 3324 0960 BA010000 		.4byte	.LASF171
 3325 0964 01       		.byte	0x1
 3326 0965 D001     		.2byte	0x1d0
 3327 0967 F9050000 		.4byte	0x5f9
 3328 096b E0050000 		.4byte	.LLST37
 3329 096f 1B       		.uleb128 0x1b
 3330 0970 58040000 		.4byte	.LASF172
 3331 0974 01       		.byte	0x1
 3332 0975 D101     		.2byte	0x1d1
 3333 0977 9B000000 		.4byte	0x9b
 3334 097b FE050000 		.4byte	.LLST38
 3335 097f 00       		.byte	0x0
 3336 0980 17       		.uleb128 0x17
 3337 0981 01       		.byte	0x1
 3338 0982 FB060000 		.4byte	.LASF173
 3339 0986 01       		.byte	0x1
 3340 0987 FD01     		.2byte	0x1fd
 3341 0989 01       		.byte	0x1
 3342 098a 00000000 		.4byte	.LFB136
 3343 098e 70000000 		.4byte	.LFE136
 3344 0992 1C060000 		.4byte	.LLST39
 3345 0996 AB090000 		.4byte	0x9ab
 3346 099a 1B       		.uleb128 0x1b
 3347 099b 8F010000 		.4byte	.LASF169
 3348 099f 01       		.byte	0x1
 3349 09a0 FD01     		.2byte	0x1fd
 3350 09a2 1B060000 		.4byte	0x61b
 3351 09a6 3C060000 		.4byte	.LLST40
 3352 09aa 00       		.byte	0x0
 3353 09ab 1C       		.uleb128 0x1c
 3354 09ac C7050000 		.4byte	.LASF174
 3355 09b0 06       		.byte	0x6
 3356 09b1 9806     		.2byte	0x698
 3357 09b3 F4020000 		.4byte	0x2f4
 3358 09b7 01       		.byte	0x1
 3359 09b8 01       		.byte	0x1
 3360 09b9 09       		.uleb128 0x9
 3361 09ba EE050000 		.4byte	0x5ee
 3362 09be C9090000 		.4byte	0x9c9
 3363 09c2 0A       		.uleb128 0xa
 3364 09c3 30000000 		.4byte	0x30
 3365 09c7 0F       		.byte	0xf
 3366 09c8 00       		.byte	0x0
 3367 09c9 1C       		.uleb128 0x1c
 3368 09ca E0000000 		.4byte	.LASF175
 3369 09ce 05       		.byte	0x5
 3370 09cf BB01     		.2byte	0x1bb
 3371 09d1 D7090000 		.4byte	0x9d7
 3372 09d5 01       		.byte	0x1
 3373 09d6 01       		.byte	0x1
 3374 09d7 14       		.uleb128 0x14
 3375 09d8 B9090000 		.4byte	0x9b9
 3376 09dc 1D       		.uleb128 0x1d
 3377 09dd 84070000 		.4byte	.LASF176
 3378 09e1 01       		.byte	0x1
ARM GAS  C:\Users\DNIEL~1\AppData\Local\Temp\cc49VrPb.s 			page 61


 3379 09e2 70       		.byte	0x70
 3380 09e3 70000000 		.4byte	0x70
 3381 09e7 05       		.byte	0x5
 3382 09e8 03       		.byte	0x3
 3383 09e9 00000000 		.4byte	dma_streams_mask
 3384 09ed 09       		.uleb128 0x9
 3385 09ee 4B060000 		.4byte	0x64b
 3386 09f2 FD090000 		.4byte	0x9fd
 3387 09f6 0A       		.uleb128 0xa
 3388 09f7 30000000 		.4byte	0x30
 3389 09fb 0F       		.byte	0xf
 3390 09fc 00       		.byte	0x0
 3391 09fd 1D       		.uleb128 0x1d
 3392 09fe 20080000 		.4byte	.LASF177
 3393 0a02 01       		.byte	0x1
 3394 0a03 75       		.byte	0x75
 3395 0a04 ED090000 		.4byte	0x9ed
 3396 0a08 05       		.byte	0x5
 3397 0a09 03       		.byte	0x3
 3398 0a0a 00000000 		.4byte	dma_isr_redir
 3399 0a0e 1C       		.uleb128 0x1c
 3400 0a0f C7050000 		.4byte	.LASF174
 3401 0a13 06       		.byte	0x6
 3402 0a14 9806     		.2byte	0x698
 3403 0a16 F4020000 		.4byte	0x2f4
 3404 0a1a 01       		.byte	0x1
 3405 0a1b 01       		.byte	0x1
 3406 0a1c 1E       		.uleb128 0x1e
 3407 0a1d E0000000 		.4byte	.LASF175
 3408 0a21 01       		.byte	0x1
 3409 0a22 4E       		.byte	0x4e
 3410 0a23 2E0A0000 		.4byte	0xa2e
 3411 0a27 01       		.byte	0x1
 3412 0a28 05       		.byte	0x5
 3413 0a29 03       		.byte	0x3
 3414 0a2a 00000000 		.4byte	_stm32_dma_streams
 3415 0a2e 14       		.uleb128 0x14
 3416 0a2f B9090000 		.4byte	0x9b9
 3417 0a33 00       		.byte	0x0
 3418              		.section	.debug_abbrev
 3419 0000 01       		.uleb128 0x1
 3420 0001 11       		.uleb128 0x11
 3421 0002 01       		.byte	0x1
 3422 0003 25       		.uleb128 0x25
 3423 0004 0E       		.uleb128 0xe
 3424 0005 13       		.uleb128 0x13
 3425 0006 0B       		.uleb128 0xb
 3426 0007 03       		.uleb128 0x3
 3427 0008 0E       		.uleb128 0xe
 3428 0009 1B       		.uleb128 0x1b
 3429 000a 0E       		.uleb128 0xe
 3430 000b 11       		.uleb128 0x11
 3431 000c 01       		.uleb128 0x1
 3432 000d 52       		.uleb128 0x52
 3433 000e 01       		.uleb128 0x1
 3434 000f 55       		.uleb128 0x55
 3435 0010 06       		.uleb128 0x6
ARM GAS  C:\Users\DNIEL~1\AppData\Local\Temp\cc49VrPb.s 			page 62


 3436 0011 10       		.uleb128 0x10
 3437 0012 06       		.uleb128 0x6
 3438 0013 00       		.byte	0x0
 3439 0014 00       		.byte	0x0
 3440 0015 02       		.uleb128 0x2
 3441 0016 24       		.uleb128 0x24
 3442 0017 00       		.byte	0x0
 3443 0018 0B       		.uleb128 0xb
 3444 0019 0B       		.uleb128 0xb
 3445 001a 3E       		.uleb128 0x3e
 3446 001b 0B       		.uleb128 0xb
 3447 001c 03       		.uleb128 0x3
 3448 001d 08       		.uleb128 0x8
 3449 001e 00       		.byte	0x0
 3450 001f 00       		.byte	0x0
 3451 0020 03       		.uleb128 0x3
 3452 0021 24       		.uleb128 0x24
 3453 0022 00       		.byte	0x0
 3454 0023 0B       		.uleb128 0xb
 3455 0024 0B       		.uleb128 0xb
 3456 0025 3E       		.uleb128 0x3e
 3457 0026 0B       		.uleb128 0xb
 3458 0027 03       		.uleb128 0x3
 3459 0028 0E       		.uleb128 0xe
 3460 0029 00       		.byte	0x0
 3461 002a 00       		.byte	0x0
 3462 002b 04       		.uleb128 0x4
 3463 002c 16       		.uleb128 0x16
 3464 002d 00       		.byte	0x0
 3465 002e 03       		.uleb128 0x3
 3466 002f 0E       		.uleb128 0xe
 3467 0030 3A       		.uleb128 0x3a
 3468 0031 0B       		.uleb128 0xb
 3469 0032 3B       		.uleb128 0x3b
 3470 0033 0B       		.uleb128 0xb
 3471 0034 49       		.uleb128 0x49
 3472 0035 13       		.uleb128 0x13
 3473 0036 00       		.byte	0x0
 3474 0037 00       		.byte	0x0
 3475 0038 05       		.uleb128 0x5
 3476 0039 0F       		.uleb128 0xf
 3477 003a 00       		.byte	0x0
 3478 003b 0B       		.uleb128 0xb
 3479 003c 0B       		.uleb128 0xb
 3480 003d 00       		.byte	0x0
 3481 003e 00       		.byte	0x0
 3482 003f 06       		.uleb128 0x6
 3483 0040 35       		.uleb128 0x35
 3484 0041 00       		.byte	0x0
 3485 0042 49       		.uleb128 0x49
 3486 0043 13       		.uleb128 0x13
 3487 0044 00       		.byte	0x0
 3488 0045 00       		.byte	0x0
 3489 0046 07       		.uleb128 0x7
 3490 0047 04       		.uleb128 0x4
 3491 0048 01       		.byte	0x1
 3492 0049 03       		.uleb128 0x3
ARM GAS  C:\Users\DNIEL~1\AppData\Local\Temp\cc49VrPb.s 			page 63


 3493 004a 0E       		.uleb128 0xe
 3494 004b 0B       		.uleb128 0xb
 3495 004c 0B       		.uleb128 0xb
 3496 004d 3A       		.uleb128 0x3a
 3497 004e 0B       		.uleb128 0xb
 3498 004f 3B       		.uleb128 0x3b
 3499 0050 0B       		.uleb128 0xb
 3500 0051 01       		.uleb128 0x1
 3501 0052 13       		.uleb128 0x13
 3502 0053 00       		.byte	0x0
 3503 0054 00       		.byte	0x0
 3504 0055 08       		.uleb128 0x8
 3505 0056 28       		.uleb128 0x28
 3506 0057 00       		.byte	0x0
 3507 0058 03       		.uleb128 0x3
 3508 0059 0E       		.uleb128 0xe
 3509 005a 1C       		.uleb128 0x1c
 3510 005b 0D       		.uleb128 0xd
 3511 005c 00       		.byte	0x0
 3512 005d 00       		.byte	0x0
 3513 005e 09       		.uleb128 0x9
 3514 005f 01       		.uleb128 0x1
 3515 0060 01       		.byte	0x1
 3516 0061 49       		.uleb128 0x49
 3517 0062 13       		.uleb128 0x13
 3518 0063 01       		.uleb128 0x1
 3519 0064 13       		.uleb128 0x13
 3520 0065 00       		.byte	0x0
 3521 0066 00       		.byte	0x0
 3522 0067 0A       		.uleb128 0xa
 3523 0068 21       		.uleb128 0x21
 3524 0069 00       		.byte	0x0
 3525 006a 49       		.uleb128 0x49
 3526 006b 13       		.uleb128 0x13
 3527 006c 2F       		.uleb128 0x2f
 3528 006d 0B       		.uleb128 0xb
 3529 006e 00       		.byte	0x0
 3530 006f 00       		.byte	0x0
 3531 0070 0B       		.uleb128 0xb
 3532 0071 13       		.uleb128 0x13
 3533 0072 01       		.byte	0x1
 3534 0073 0B       		.uleb128 0xb
 3535 0074 0B       		.uleb128 0xb
 3536 0075 3A       		.uleb128 0x3a
 3537 0076 0B       		.uleb128 0xb
 3538 0077 3B       		.uleb128 0x3b
 3539 0078 05       		.uleb128 0x5
 3540 0079 01       		.uleb128 0x1
 3541 007a 13       		.uleb128 0x13
 3542 007b 00       		.byte	0x0
 3543 007c 00       		.byte	0x0
 3544 007d 0C       		.uleb128 0xc
 3545 007e 0D       		.uleb128 0xd
 3546 007f 00       		.byte	0x0
 3547 0080 03       		.uleb128 0x3
 3548 0081 08       		.uleb128 0x8
 3549 0082 3A       		.uleb128 0x3a
ARM GAS  C:\Users\DNIEL~1\AppData\Local\Temp\cc49VrPb.s 			page 64


 3550 0083 0B       		.uleb128 0xb
 3551 0084 3B       		.uleb128 0x3b
 3552 0085 05       		.uleb128 0x5
 3553 0086 49       		.uleb128 0x49
 3554 0087 13       		.uleb128 0x13
 3555 0088 38       		.uleb128 0x38
 3556 0089 0A       		.uleb128 0xa
 3557 008a 00       		.byte	0x0
 3558 008b 00       		.byte	0x0
 3559 008c 0D       		.uleb128 0xd
 3560 008d 0D       		.uleb128 0xd
 3561 008e 00       		.byte	0x0
 3562 008f 03       		.uleb128 0x3
 3563 0090 0E       		.uleb128 0xe
 3564 0091 3A       		.uleb128 0x3a
 3565 0092 0B       		.uleb128 0xb
 3566 0093 3B       		.uleb128 0x3b
 3567 0094 05       		.uleb128 0x5
 3568 0095 49       		.uleb128 0x49
 3569 0096 13       		.uleb128 0x13
 3570 0097 38       		.uleb128 0x38
 3571 0098 0A       		.uleb128 0xa
 3572 0099 00       		.byte	0x0
 3573 009a 00       		.byte	0x0
 3574 009b 0E       		.uleb128 0xe
 3575 009c 16       		.uleb128 0x16
 3576 009d 00       		.byte	0x0
 3577 009e 03       		.uleb128 0x3
 3578 009f 0E       		.uleb128 0xe
 3579 00a0 3A       		.uleb128 0x3a
 3580 00a1 0B       		.uleb128 0xb
 3581 00a2 3B       		.uleb128 0x3b
 3582 00a3 05       		.uleb128 0x5
 3583 00a4 49       		.uleb128 0x49
 3584 00a5 13       		.uleb128 0x13
 3585 00a6 00       		.byte	0x0
 3586 00a7 00       		.byte	0x0
 3587 00a8 0F       		.uleb128 0xf
 3588 00a9 13       		.uleb128 0x13
 3589 00aa 01       		.byte	0x1
 3590 00ab 0B       		.uleb128 0xb
 3591 00ac 0B       		.uleb128 0xb
 3592 00ad 3A       		.uleb128 0x3a
 3593 00ae 0B       		.uleb128 0xb
 3594 00af 3B       		.uleb128 0x3b
 3595 00b0 0B       		.uleb128 0xb
 3596 00b1 01       		.uleb128 0x1
 3597 00b2 13       		.uleb128 0x13
 3598 00b3 00       		.byte	0x0
 3599 00b4 00       		.byte	0x0
 3600 00b5 10       		.uleb128 0x10
 3601 00b6 0D       		.uleb128 0xd
 3602 00b7 00       		.byte	0x0
 3603 00b8 03       		.uleb128 0x3
 3604 00b9 0E       		.uleb128 0xe
 3605 00ba 3A       		.uleb128 0x3a
 3606 00bb 0B       		.uleb128 0xb
ARM GAS  C:\Users\DNIEL~1\AppData\Local\Temp\cc49VrPb.s 			page 65


 3607 00bc 3B       		.uleb128 0x3b
 3608 00bd 0B       		.uleb128 0xb
 3609 00be 49       		.uleb128 0x49
 3610 00bf 13       		.uleb128 0x13
 3611 00c0 38       		.uleb128 0x38
 3612 00c1 0A       		.uleb128 0xa
 3613 00c2 00       		.byte	0x0
 3614 00c3 00       		.byte	0x0
 3615 00c4 11       		.uleb128 0x11
 3616 00c5 0F       		.uleb128 0xf
 3617 00c6 00       		.byte	0x0
 3618 00c7 0B       		.uleb128 0xb
 3619 00c8 0B       		.uleb128 0xb
 3620 00c9 49       		.uleb128 0x49
 3621 00ca 13       		.uleb128 0x13
 3622 00cb 00       		.byte	0x0
 3623 00cc 00       		.byte	0x0
 3624 00cd 12       		.uleb128 0x12
 3625 00ce 15       		.uleb128 0x15
 3626 00cf 01       		.byte	0x1
 3627 00d0 27       		.uleb128 0x27
 3628 00d1 0C       		.uleb128 0xc
 3629 00d2 01       		.uleb128 0x1
 3630 00d3 13       		.uleb128 0x13
 3631 00d4 00       		.byte	0x0
 3632 00d5 00       		.byte	0x0
 3633 00d6 13       		.uleb128 0x13
 3634 00d7 05       		.uleb128 0x5
 3635 00d8 00       		.byte	0x0
 3636 00d9 49       		.uleb128 0x49
 3637 00da 13       		.uleb128 0x13
 3638 00db 00       		.byte	0x0
 3639 00dc 00       		.byte	0x0
 3640 00dd 14       		.uleb128 0x14
 3641 00de 26       		.uleb128 0x26
 3642 00df 00       		.byte	0x0
 3643 00e0 49       		.uleb128 0x49
 3644 00e1 13       		.uleb128 0x13
 3645 00e2 00       		.byte	0x0
 3646 00e3 00       		.byte	0x0
 3647 00e4 15       		.uleb128 0x15
 3648 00e5 2E       		.uleb128 0x2e
 3649 00e6 01       		.byte	0x1
 3650 00e7 3F       		.uleb128 0x3f
 3651 00e8 0C       		.uleb128 0xc
 3652 00e9 03       		.uleb128 0x3
 3653 00ea 0E       		.uleb128 0xe
 3654 00eb 3A       		.uleb128 0x3a
 3655 00ec 0B       		.uleb128 0xb
 3656 00ed 3B       		.uleb128 0x3b
 3657 00ee 0B       		.uleb128 0xb
 3658 00ef 27       		.uleb128 0x27
 3659 00f0 0C       		.uleb128 0xc
 3660 00f1 11       		.uleb128 0x11
 3661 00f2 01       		.uleb128 0x1
 3662 00f3 12       		.uleb128 0x12
 3663 00f4 01       		.uleb128 0x1
ARM GAS  C:\Users\DNIEL~1\AppData\Local\Temp\cc49VrPb.s 			page 66


 3664 00f5 40       		.uleb128 0x40
 3665 00f6 06       		.uleb128 0x6
 3666 00f7 01       		.uleb128 0x1
 3667 00f8 13       		.uleb128 0x13
 3668 00f9 00       		.byte	0x0
 3669 00fa 00       		.byte	0x0
 3670 00fb 16       		.uleb128 0x16
 3671 00fc 34       		.uleb128 0x34
 3672 00fd 00       		.byte	0x0
 3673 00fe 03       		.uleb128 0x3
 3674 00ff 0E       		.uleb128 0xe
 3675 0100 3A       		.uleb128 0x3a
 3676 0101 0B       		.uleb128 0xb
 3677 0102 3B       		.uleb128 0x3b
 3678 0103 0B       		.uleb128 0xb
 3679 0104 49       		.uleb128 0x49
 3680 0105 13       		.uleb128 0x13
 3681 0106 02       		.uleb128 0x2
 3682 0107 06       		.uleb128 0x6
 3683 0108 00       		.byte	0x0
 3684 0109 00       		.byte	0x0
 3685 010a 17       		.uleb128 0x17
 3686 010b 2E       		.uleb128 0x2e
 3687 010c 01       		.byte	0x1
 3688 010d 3F       		.uleb128 0x3f
 3689 010e 0C       		.uleb128 0xc
 3690 010f 03       		.uleb128 0x3
 3691 0110 0E       		.uleb128 0xe
 3692 0111 3A       		.uleb128 0x3a
 3693 0112 0B       		.uleb128 0xb
 3694 0113 3B       		.uleb128 0x3b
 3695 0114 05       		.uleb128 0x5
 3696 0115 27       		.uleb128 0x27
 3697 0116 0C       		.uleb128 0xc
 3698 0117 11       		.uleb128 0x11
 3699 0118 01       		.uleb128 0x1
 3700 0119 12       		.uleb128 0x12
 3701 011a 01       		.uleb128 0x1
 3702 011b 40       		.uleb128 0x40
 3703 011c 06       		.uleb128 0x6
 3704 011d 01       		.uleb128 0x1
 3705 011e 13       		.uleb128 0x13
 3706 011f 00       		.byte	0x0
 3707 0120 00       		.byte	0x0
 3708 0121 18       		.uleb128 0x18
 3709 0122 34       		.uleb128 0x34
 3710 0123 00       		.byte	0x0
 3711 0124 03       		.uleb128 0x3
 3712 0125 0E       		.uleb128 0xe
 3713 0126 3A       		.uleb128 0x3a
 3714 0127 0B       		.uleb128 0xb
 3715 0128 3B       		.uleb128 0x3b
 3716 0129 05       		.uleb128 0x5
 3717 012a 49       		.uleb128 0x49
 3718 012b 13       		.uleb128 0x13
 3719 012c 02       		.uleb128 0x2
 3720 012d 06       		.uleb128 0x6
ARM GAS  C:\Users\DNIEL~1\AppData\Local\Temp\cc49VrPb.s 			page 67


 3721 012e 00       		.byte	0x0
 3722 012f 00       		.byte	0x0
 3723 0130 19       		.uleb128 0x19
 3724 0131 34       		.uleb128 0x34
 3725 0132 00       		.byte	0x0
 3726 0133 03       		.uleb128 0x3
 3727 0134 08       		.uleb128 0x8
 3728 0135 3A       		.uleb128 0x3a
 3729 0136 0B       		.uleb128 0xb
 3730 0137 3B       		.uleb128 0x3b
 3731 0138 05       		.uleb128 0x5
 3732 0139 49       		.uleb128 0x49
 3733 013a 13       		.uleb128 0x13
 3734 013b 02       		.uleb128 0x2
 3735 013c 06       		.uleb128 0x6
 3736 013d 00       		.byte	0x0
 3737 013e 00       		.byte	0x0
 3738 013f 1A       		.uleb128 0x1a
 3739 0140 2E       		.uleb128 0x2e
 3740 0141 01       		.byte	0x1
 3741 0142 3F       		.uleb128 0x3f
 3742 0143 0C       		.uleb128 0xc
 3743 0144 03       		.uleb128 0x3
 3744 0145 0E       		.uleb128 0xe
 3745 0146 3A       		.uleb128 0x3a
 3746 0147 0B       		.uleb128 0xb
 3747 0148 3B       		.uleb128 0x3b
 3748 0149 05       		.uleb128 0x5
 3749 014a 27       		.uleb128 0x27
 3750 014b 0C       		.uleb128 0xc
 3751 014c 49       		.uleb128 0x49
 3752 014d 13       		.uleb128 0x13
 3753 014e 11       		.uleb128 0x11
 3754 014f 01       		.uleb128 0x1
 3755 0150 12       		.uleb128 0x12
 3756 0151 01       		.uleb128 0x1
 3757 0152 40       		.uleb128 0x40
 3758 0153 06       		.uleb128 0x6
 3759 0154 01       		.uleb128 0x1
 3760 0155 13       		.uleb128 0x13
 3761 0156 00       		.byte	0x0
 3762 0157 00       		.byte	0x0
 3763 0158 1B       		.uleb128 0x1b
 3764 0159 05       		.uleb128 0x5
 3765 015a 00       		.byte	0x0
 3766 015b 03       		.uleb128 0x3
 3767 015c 0E       		.uleb128 0xe
 3768 015d 3A       		.uleb128 0x3a
 3769 015e 0B       		.uleb128 0xb
 3770 015f 3B       		.uleb128 0x3b
 3771 0160 05       		.uleb128 0x5
 3772 0161 49       		.uleb128 0x49
 3773 0162 13       		.uleb128 0x13
 3774 0163 02       		.uleb128 0x2
 3775 0164 06       		.uleb128 0x6
 3776 0165 00       		.byte	0x0
 3777 0166 00       		.byte	0x0
ARM GAS  C:\Users\DNIEL~1\AppData\Local\Temp\cc49VrPb.s 			page 68


 3778 0167 1C       		.uleb128 0x1c
 3779 0168 34       		.uleb128 0x34
 3780 0169 00       		.byte	0x0
 3781 016a 03       		.uleb128 0x3
 3782 016b 0E       		.uleb128 0xe
 3783 016c 3A       		.uleb128 0x3a
 3784 016d 0B       		.uleb128 0xb
 3785 016e 3B       		.uleb128 0x3b
 3786 016f 05       		.uleb128 0x5
 3787 0170 49       		.uleb128 0x49
 3788 0171 13       		.uleb128 0x13
 3789 0172 3F       		.uleb128 0x3f
 3790 0173 0C       		.uleb128 0xc
 3791 0174 3C       		.uleb128 0x3c
 3792 0175 0C       		.uleb128 0xc
 3793 0176 00       		.byte	0x0
 3794 0177 00       		.byte	0x0
 3795 0178 1D       		.uleb128 0x1d
 3796 0179 34       		.uleb128 0x34
 3797 017a 00       		.byte	0x0
 3798 017b 03       		.uleb128 0x3
 3799 017c 0E       		.uleb128 0xe
 3800 017d 3A       		.uleb128 0x3a
 3801 017e 0B       		.uleb128 0xb
 3802 017f 3B       		.uleb128 0x3b
 3803 0180 0B       		.uleb128 0xb
 3804 0181 49       		.uleb128 0x49
 3805 0182 13       		.uleb128 0x13
 3806 0183 02       		.uleb128 0x2
 3807 0184 0A       		.uleb128 0xa
 3808 0185 00       		.byte	0x0
 3809 0186 00       		.byte	0x0
 3810 0187 1E       		.uleb128 0x1e
 3811 0188 34       		.uleb128 0x34
 3812 0189 00       		.byte	0x0
 3813 018a 03       		.uleb128 0x3
 3814 018b 0E       		.uleb128 0xe
 3815 018c 3A       		.uleb128 0x3a
 3816 018d 0B       		.uleb128 0xb
 3817 018e 3B       		.uleb128 0x3b
 3818 018f 0B       		.uleb128 0xb
 3819 0190 49       		.uleb128 0x49
 3820 0191 13       		.uleb128 0x13
 3821 0192 3F       		.uleb128 0x3f
 3822 0193 0C       		.uleb128 0xc
 3823 0194 02       		.uleb128 0x2
 3824 0195 0A       		.uleb128 0xa
 3825 0196 00       		.byte	0x0
 3826 0197 00       		.byte	0x0
 3827 0198 00       		.byte	0x0
 3828              		.section	.debug_pubnames,"",%progbits
 3829 0000 34010000 		.4byte	0x134
 3830 0004 0200     		.2byte	0x2
 3831 0006 00000000 		.4byte	.Ldebug_info0
 3832 000a 340A0000 		.4byte	0xa34
 3833 000e 56060000 		.4byte	0x656
 3834 0012 56656374 		.ascii	"Vector6C\000"
ARM GAS  C:\Users\DNIEL~1\AppData\Local\Temp\cc49VrPb.s 			page 69


 3834      6F723643 
 3834      00
 3835 001b 7F060000 		.4byte	0x67f
 3836 001f 56656374 		.ascii	"Vector70\000"
 3836      6F723730 
 3836      00
 3837 0028 A8060000 		.4byte	0x6a8
 3838 002c 56656374 		.ascii	"Vector74\000"
 3838      6F723734 
 3838      00
 3839 0035 D1060000 		.4byte	0x6d1
 3840 0039 56656374 		.ascii	"Vector78\000"
 3840      6F723738 
 3840      00
 3841 0042 FA060000 		.4byte	0x6fa
 3842 0046 56656374 		.ascii	"Vector7C\000"
 3842      6F723743 
 3842      00
 3843 004f 23070000 		.4byte	0x723
 3844 0053 56656374 		.ascii	"Vector80\000"
 3844      6F723830 
 3844      00
 3845 005c 4C070000 		.4byte	0x74c
 3846 0060 56656374 		.ascii	"Vector84\000"
 3846      6F723834 
 3846      00
 3847 0069 75070000 		.4byte	0x775
 3848 006d 56656374 		.ascii	"VectorFC\000"
 3848      6F724643 
 3848      00
 3849 0076 A0070000 		.4byte	0x7a0
 3850 007a 56656374 		.ascii	"Vector120\000"
 3850      6F723132 
 3850      3000
 3851 0084 CB070000 		.4byte	0x7cb
 3852 0088 56656374 		.ascii	"Vector124\000"
 3852      6F723132 
 3852      3400
 3853 0092 F6070000 		.4byte	0x7f6
 3854 0096 56656374 		.ascii	"Vector128\000"
 3854      6F723132 
 3854      3800
 3855 00a0 21080000 		.4byte	0x821
 3856 00a4 56656374 		.ascii	"Vector12C\000"
 3856      6F723132 
 3856      4300
 3857 00ae 4C080000 		.4byte	0x84c
 3858 00b2 56656374 		.ascii	"Vector130\000"
 3858      6F723133 
 3858      3000
 3859 00bc 77080000 		.4byte	0x877
 3860 00c0 56656374 		.ascii	"Vector150\000"
 3860      6F723135 
 3860      3000
 3861 00ca A2080000 		.4byte	0x8a2
 3862 00ce 56656374 		.ascii	"Vector154\000"
 3862      6F723135 
ARM GAS  C:\Users\DNIEL~1\AppData\Local\Temp\cc49VrPb.s 			page 70


 3862      3400
 3863 00d8 CD080000 		.4byte	0x8cd
 3864 00dc 56656374 		.ascii	"Vector158\000"
 3864      6F723135 
 3864      3800
 3865 00e6 F8080000 		.4byte	0x8f8
 3866 00ea 646D6149 		.ascii	"dmaInit\000"
 3866      6E697400 
 3867 00f2 21090000 		.4byte	0x921
 3868 00f6 646D6153 		.ascii	"dmaStreamAllocate\000"
 3868      74726561 
 3868      6D416C6C 
 3868      6F636174 
 3868      6500
 3869 0108 80090000 		.4byte	0x980
 3870 010c 646D6153 		.ascii	"dmaStreamRelease\000"
 3870      74726561 
 3870      6D52656C 
 3870      65617365 
 3870      00
 3871 011d 1C0A0000 		.4byte	0xa1c
 3872 0121 5F73746D 		.ascii	"_stm32_dma_streams\000"
 3872      33325F64 
 3872      6D615F73 
 3872      74726561 
 3872      6D7300
 3873 0134 00000000 		.4byte	0x0
 3874              		.section	.debug_pubtypes,"",%progbits
 3875 0000 BC000000 		.4byte	0xbc
 3876 0004 0200     		.2byte	0x2
 3877 0006 00000000 		.4byte	.Ldebug_info0
 3878 000a 340A0000 		.4byte	0xa34
 3879 000e 3E000000 		.4byte	0x3e
 3880 0012 75696E74 		.ascii	"uint8_t\000"
 3880      385F7400 
 3881 001a 5E000000 		.4byte	0x5e
 3882 001e 696E7433 		.ascii	"int32_t\000"
 3882      325F7400 
 3883 0026 70000000 		.4byte	0x70
 3884 002a 75696E74 		.ascii	"uint32_t\000"
 3884      33325F74 
 3884      00
 3885 0033 90000000 		.4byte	0x90
 3886 0037 626F6F6C 		.ascii	"bool_t\000"
 3886      5F7400
 3887 003e A9000000 		.4byte	0xa9
 3888 0042 4952516E 		.ascii	"IRQn\000"
 3888      00
 3889 0047 5C030000 		.4byte	0x35c
 3890 004b 444D415F 		.ascii	"DMA_Stream_TypeDef\000"
 3890      53747265 
 3890      616D5F54 
 3890      79706544 
 3890      656600
 3891 005e AE030000 		.4byte	0x3ae
 3892 0062 444D415F 		.ascii	"DMA_TypeDef\000"
 3892      54797065 
ARM GAS  C:\Users\DNIEL~1\AppData\Local\Temp\cc49VrPb.s 			page 71


 3892      44656600 
 3893 006e 87050000 		.4byte	0x587
 3894 0072 5243435F 		.ascii	"RCC_TypeDef\000"
 3894      54797065 
 3894      44656600 
 3895 007e EE050000 		.4byte	0x5ee
 3896 0082 73746D33 		.ascii	"stm32_dma_stream_t\000"
 3896      325F646D 
 3896      615F7374 
 3896      7265616D 
 3896      5F7400
 3897 0095 F9050000 		.4byte	0x5f9
 3898 0099 73746D33 		.ascii	"stm32_dmaisr_t\000"
 3898      325F646D 
 3898      61697372 
 3898      5F7400
 3899 00a8 4B060000 		.4byte	0x64b
 3900 00ac 646D615F 		.ascii	"dma_isr_redir_t\000"
 3900      6973725F 
 3900      72656469 
 3900      725F7400 
 3901 00bc 00000000 		.4byte	0x0
 3902              		.section	.debug_aranges,"",%progbits
 3903 0000 AC000000 		.4byte	0xac
 3904 0004 0200     		.2byte	0x2
 3905 0006 00000000 		.4byte	.Ldebug_info0
 3906 000a 04       		.byte	0x4
 3907 000b 00       		.byte	0x0
 3908 000c 0000     		.2byte	0x0
 3909 000e 0000     		.2byte	0x0
 3910 0010 00000000 		.4byte	.LFB118
 3911 0014 30000000 		.4byte	.LFE118-.LFB118
 3912 0018 00000000 		.4byte	.LFB119
 3913 001c 34000000 		.4byte	.LFE119-.LFB119
 3914 0020 00000000 		.4byte	.LFB120
 3915 0024 34000000 		.4byte	.LFE120-.LFB120
 3916 0028 00000000 		.4byte	.LFB121
 3917 002c 34000000 		.4byte	.LFE121-.LFB121
 3918 0030 00000000 		.4byte	.LFB122
 3919 0034 30000000 		.4byte	.LFE122-.LFB122
 3920 0038 00000000 		.4byte	.LFB123
 3921 003c 34000000 		.4byte	.LFE123-.LFB123
 3922 0040 00000000 		.4byte	.LFB124
 3923 0044 34000000 		.4byte	.LFE124-.LFB124
 3924 0048 00000000 		.4byte	.LFB125
 3925 004c 34000000 		.4byte	.LFE125-.LFB125
 3926 0050 00000000 		.4byte	.LFB126
 3927 0054 30000000 		.4byte	.LFE126-.LFB126
 3928 0058 00000000 		.4byte	.LFB127
 3929 005c 34000000 		.4byte	.LFE127-.LFB127
 3930 0060 00000000 		.4byte	.LFB128
 3931 0064 34000000 		.4byte	.LFE128-.LFB128
 3932 0068 00000000 		.4byte	.LFB129
 3933 006c 34000000 		.4byte	.LFE129-.LFB129
 3934 0070 00000000 		.4byte	.LFB130
 3935 0074 30000000 		.4byte	.LFE130-.LFB130
 3936 0078 00000000 		.4byte	.LFB131
ARM GAS  C:\Users\DNIEL~1\AppData\Local\Temp\cc49VrPb.s 			page 72


 3937 007c 34000000 		.4byte	.LFE131-.LFB131
 3938 0080 00000000 		.4byte	.LFB132
 3939 0084 34000000 		.4byte	.LFE132-.LFB132
 3940 0088 00000000 		.4byte	.LFB133
 3941 008c 34000000 		.4byte	.LFE133-.LFB133
 3942 0090 00000000 		.4byte	.LFB134
 3943 0094 C0000000 		.4byte	.LFE134-.LFB134
 3944 0098 00000000 		.4byte	.LFB135
 3945 009c B0000000 		.4byte	.LFE135-.LFB135
 3946 00a0 00000000 		.4byte	.LFB136
 3947 00a4 70000000 		.4byte	.LFE136-.LFB136
 3948 00a8 00000000 		.4byte	0x0
 3949 00ac 00000000 		.4byte	0x0
 3950              		.section	.debug_ranges,"",%progbits
 3951              	.Ldebug_ranges0:
 3952 0000 00000000 		.4byte	.LFB118
 3953 0004 30000000 		.4byte	.LFE118
 3954 0008 00000000 		.4byte	.LFB119
 3955 000c 34000000 		.4byte	.LFE119
 3956 0010 00000000 		.4byte	.LFB120
 3957 0014 34000000 		.4byte	.LFE120
 3958 0018 00000000 		.4byte	.LFB121
 3959 001c 34000000 		.4byte	.LFE121
 3960 0020 00000000 		.4byte	.LFB122
 3961 0024 30000000 		.4byte	.LFE122
 3962 0028 00000000 		.4byte	.LFB123
 3963 002c 34000000 		.4byte	.LFE123
 3964 0030 00000000 		.4byte	.LFB124
 3965 0034 34000000 		.4byte	.LFE124
 3966 0038 00000000 		.4byte	.LFB125
 3967 003c 34000000 		.4byte	.LFE125
 3968 0040 00000000 		.4byte	.LFB126
 3969 0044 30000000 		.4byte	.LFE126
 3970 0048 00000000 		.4byte	.LFB127
 3971 004c 34000000 		.4byte	.LFE127
 3972 0050 00000000 		.4byte	.LFB128
 3973 0054 34000000 		.4byte	.LFE128
 3974 0058 00000000 		.4byte	.LFB129
 3975 005c 34000000 		.4byte	.LFE129
 3976 0060 00000000 		.4byte	.LFB130
 3977 0064 30000000 		.4byte	.LFE130
 3978 0068 00000000 		.4byte	.LFB131
 3979 006c 34000000 		.4byte	.LFE131
 3980 0070 00000000 		.4byte	.LFB132
 3981 0074 34000000 		.4byte	.LFE132
 3982 0078 00000000 		.4byte	.LFB133
 3983 007c 34000000 		.4byte	.LFE133
 3984 0080 00000000 		.4byte	.LFB134
 3985 0084 C0000000 		.4byte	.LFE134
 3986 0088 00000000 		.4byte	.LFB135
 3987 008c B0000000 		.4byte	.LFE135
 3988 0090 00000000 		.4byte	.LFB136
 3989 0094 70000000 		.4byte	.LFE136
 3990 0098 00000000 		.4byte	0x0
 3991 009c 00000000 		.4byte	0x0
 3992              		.section	.debug_str,"MS",%progbits,1
 3993              	.LASF150:
ARM GAS  C:\Users\DNIEL~1\AppData\Local\Temp\cc49VrPb.s 			page 73


 3994 0000 646D615F 		.ascii	"dma_isr_redir_t\000"
 3994      6973725F 
 3994      72656469 
 3994      725F7400 
 3995              	.LASF133:
 3996 0010 41504231 		.ascii	"APB1LPENR\000"
 3996      4C50454E 
 3996      5200
 3997              	.LASF42:
 3998 001a 43414E31 		.ascii	"CAN1_RX0_IRQn\000"
 3998      5F525830 
 3998      5F495251 
 3998      6E00
 3999              	.LASF23:
 4000 0028 5056445F 		.ascii	"PVD_IRQn\000"
 4000      4952516E 
 4000      00
 4001              	.LASF86:
 4002 0031 43414E32 		.ascii	"CAN2_RX0_IRQn\000"
 4002      5F525830 
 4002      5F495251 
 4002      6E00
 4003              	.LASF105:
 4004 003f 4D304152 		.ascii	"M0AR\000"
 4004      00
 4005              	.LASF91:
 4006 0044 444D4132 		.ascii	"DMA2_Stream6_IRQn\000"
 4006      5F537472 
 4006      65616D36 
 4006      5F495251 
 4006      6E00
 4007              	.LASF45:
 4008 0056 45585449 		.ascii	"EXTI9_5_IRQn\000"
 4008      395F355F 
 4008      4952516E 
 4008      00
 4009              	.LASF95:
 4010 0063 49324333 		.ascii	"I2C3_ER_IRQn\000"
 4010      5F45525F 
 4010      4952516E 
 4010      00
 4011              	.LASF108:
 4012 0070 4C495352 		.ascii	"LISR\000"
 4012      00
 4013              	.LASF53:
 4014 0075 49324331 		.ascii	"I2C1_EV_IRQn\000"
 4014      5F45565F 
 4014      4952516E 
 4014      00
 4015              	.LASF90:
 4016 0082 444D4132 		.ascii	"DMA2_Stream5_IRQn\000"
 4016      5F537472 
 4016      65616D35 
 4016      5F495251 
 4016      6E00
 4017              	.LASF164:
 4018 0094 56656374 		.ascii	"Vector130\000"
ARM GAS  C:\Users\DNIEL~1\AppData\Local\Temp\cc49VrPb.s 			page 74


 4018      6F723133 
 4018      3000
 4019              	.LASF141:
 4020 009e 73747265 		.ascii	"stream\000"
 4020      616D00
 4021              	.LASF43:
 4022 00a5 43414E31 		.ascii	"CAN1_RX1_IRQn\000"
 4022      5F525831 
 4022      5F495251 
 4022      6E00
 4023              	.LASF11:
 4024 00b3 6C6F6E67 		.ascii	"long long unsigned int\000"
 4024      206C6F6E 
 4024      6720756E 
 4024      7369676E 
 4024      65642069 
 4025              	.LASF63:
 4026 00ca 5254435F 		.ascii	"RTC_Alarm_IRQn\000"
 4026      416C6172 
 4026      6D5F4952 
 4026      516E00
 4027              	.LASF145:
 4028 00d9 76656374 		.ascii	"vector\000"
 4028      6F7200
 4029              	.LASF175:
 4030 00e0 5F73746D 		.ascii	"_stm32_dma_streams\000"
 4030      33325F64 
 4030      6D615F73 
 4030      74726561 
 4030      6D7300
 4031              	.LASF56:
 4032 00f3 49324332 		.ascii	"I2C2_ER_IRQn\000"
 4032      5F45525F 
 4032      4952516E 
 4032      00
 4033              	.LASF52:
 4034 0100 54494D34 		.ascii	"TIM4_IRQn\000"
 4034      5F495251 
 4034      6E00
 4035              	.LASF25:
 4036 010a 5254435F 		.ascii	"RTC_WKUP_IRQn\000"
 4036      574B5550 
 4036      5F495251 
 4036      6E00
 4037              	.LASF22:
 4038 0118 57574447 		.ascii	"WWDG_IRQn\000"
 4038      5F495251 
 4038      6E00
 4039              	.LASF71:
 4040 0122 5344494F 		.ascii	"SDIO_IRQn\000"
 4040      5F495251 
 4040      6E00
 4041              	.LASF129:
 4042 012c 41484231 		.ascii	"AHB1LPENR\000"
 4042      4C50454E 
 4042      5200
 4043              	.LASF68:
ARM GAS  C:\Users\DNIEL~1\AppData\Local\Temp\cc49VrPb.s 			page 75


 4044 0136 54494D38 		.ascii	"TIM8_CC_IRQn\000"
 4044      5F43435F 
 4044      4952516E 
 4044      00
 4045              	.LASF10:
 4046 0143 6C6F6E67 		.ascii	"long long int\000"
 4046      206C6F6E 
 4046      6720696E 
 4046      7400
 4047              	.LASF1:
 4048 0151 7369676E 		.ascii	"signed char\000"
 4048      65642063 
 4048      68617200 
 4049              	.LASF87:
 4050 015d 43414E32 		.ascii	"CAN2_RX1_IRQn\000"
 4050      5F525831 
 4050      5F495251 
 4050      6E00
 4051              	.LASF101:
 4052 016b 43525950 		.ascii	"CRYP_IRQn\000"
 4052      5F495251 
 4052      6E00
 4053              	.LASF115:
 4054 0175 41484231 		.ascii	"AHB1RSTR\000"
 4054      52535452 
 4054      00
 4055              	.LASF167:
 4056 017e 56656374 		.ascii	"Vector158\000"
 4056      6F723135 
 4056      3800
 4057              	.LASF12:
 4058 0188 626F6F6C 		.ascii	"bool_t\000"
 4058      5F7400
 4059              	.LASF169:
 4060 018f 646D6173 		.ascii	"dmastp\000"
 4060      747000
 4061              	.LASF7:
 4062 0196 6C6F6E67 		.ascii	"long int\000"
 4062      20696E74 
 4062      00
 4063              	.LASF120:
 4064 019f 41504232 		.ascii	"APB2RSTR\000"
 4064      52535452 
 4064      00
 4065              	.LASF38:
 4066 01a8 444D4131 		.ascii	"DMA1_Stream5_IRQn\000"
 4066      5F537472 
 4066      65616D35 
 4066      5F495251 
 4066      6E00
 4067              	.LASF171:
 4068 01ba 66756E63 		.ascii	"func\000"
 4068      00
 4069              	.LASF84:
 4070 01bf 4554485F 		.ascii	"ETH_WKUP_IRQn\000"
 4070      574B5550 
 4070      5F495251 
ARM GAS  C:\Users\DNIEL~1\AppData\Local\Temp\cc49VrPb.s 			page 76


 4070      6E00
 4071              	.LASF8:
 4072 01cd 75696E74 		.ascii	"uint32_t\000"
 4072      33325F74 
 4072      00
 4073              	.LASF76:
 4074 01d6 54494D36 		.ascii	"TIM6_DAC_IRQn\000"
 4074      5F444143 
 4074      5F495251 
 4074      6E00
 4075              	.LASF113:
 4076 01e4 504C4C43 		.ascii	"PLLCFGR\000"
 4076      46475200 
 4077              	.LASF74:
 4078 01ec 55415254 		.ascii	"UART4_IRQn\000"
 4078      345F4952 
 4078      516E00
 4079              	.LASF64:
 4080 01f7 4F54475F 		.ascii	"OTG_FS_WKUP_IRQn\000"
 4080      46535F57 
 4080      4B55505F 
 4080      4952516E 
 4080      00
 4081              	.LASF20:
 4082 0208 50656E64 		.ascii	"PendSV_IRQn\000"
 4082      53565F49 
 4082      52516E00 
 4083              	.LASF66:
 4084 0214 54494D38 		.ascii	"TIM8_UP_TIM13_IRQn\000"
 4084      5F55505F 
 4084      54494D31 
 4084      335F4952 
 4084      516E00
 4085              	.LASF116:
 4086 0227 41484232 		.ascii	"AHB2RSTR\000"
 4086      52535452 
 4086      00
 4087              	.LASF144:
 4088 0230 73656C66 		.ascii	"selfindex\000"
 4088      696E6465 
 4088      7800
 4089              	.LASF92:
 4090 023a 444D4132 		.ascii	"DMA2_Stream7_IRQn\000"
 4090      5F537472 
 4090      65616D37 
 4090      5F495251 
 4090      6E00
 4091              	.LASF122:
 4092 024c 41484231 		.ascii	"AHB1ENR\000"
 4092      454E5200 
 4093              	.LASF112:
 4094 0254 444D415F 		.ascii	"DMA_TypeDef\000"
 4094      54797065 
 4094      44656600 
 4095              	.LASF0:
 4096 0260 756E7369 		.ascii	"unsigned int\000"
 4096      676E6564 
ARM GAS  C:\Users\DNIEL~1\AppData\Local\Temp\cc49VrPb.s 			page 77


 4096      20696E74 
 4096      00
 4097              	.LASF165:
 4098 026d 56656374 		.ascii	"Vector150\000"
 4098      6F723135 
 4098      3000
 4099              	.LASF36:
 4100 0277 444D4131 		.ascii	"DMA1_Stream3_IRQn\000"
 4100      5F537472 
 4100      65616D33 
 4100      5F495251 
 4100      6E00
 4101              	.LASF39:
 4102 0289 444D4131 		.ascii	"DMA1_Stream6_IRQn\000"
 4102      5F537472 
 4102      65616D36 
 4102      5F495251 
 4102      6E00
 4103              	.LASF166:
 4104 029b 56656374 		.ascii	"Vector154\000"
 4104      6F723135 
 4104      3400
 4105              	.LASF15:
 4106 02a5 4D656D6F 		.ascii	"MemoryManagement_IRQn\000"
 4106      72794D61 
 4106      6E616765 
 4106      6D656E74 
 4106      5F495251 
 4107              	.LASF147:
 4108 02bb 73746D33 		.ascii	"stm32_dmaisr_t\000"
 4108      325F646D 
 4108      61697372 
 4108      5F7400
 4109              	.LASF94:
 4110 02ca 49324333 		.ascii	"I2C3_EV_IRQn\000"
 4110      5F45565F 
 4110      4952516E 
 4110      00
 4111              	.LASF9:
 4112 02d7 6C6F6E67 		.ascii	"long unsigned int\000"
 4112      20756E73 
 4112      69676E65 
 4112      6420696E 
 4112      7400
 4113              	.LASF140:
 4114 02e9 5243435F 		.ascii	"RCC_TypeDef\000"
 4114      54797065 
 4114      44656600 
 4115              	.LASF143:
 4116 02f5 69736869 		.ascii	"ishift\000"
 4116      667400
 4117              	.LASF159:
 4118 02fc 56656374 		.ascii	"VectorFC\000"
 4118      6F724643 
 4118      00
 4119              	.LASF96:
 4120 0305 4F54475F 		.ascii	"OTG_HS_EP1_OUT_IRQn\000"
ARM GAS  C:\Users\DNIEL~1\AppData\Local\Temp\cc49VrPb.s 			page 78


 4120      48535F45 
 4120      50315F4F 
 4120      55545F49 
 4120      52516E00 
 4121              	.LASF18:
 4122 0319 53564361 		.ascii	"SVCall_IRQn\000"
 4122      6C6C5F49 
 4122      52516E00 
 4123              	.LASF4:
 4124 0325 73686F72 		.ascii	"short unsigned int\000"
 4124      7420756E 
 4124      7369676E 
 4124      65642069 
 4124      6E7400
 4125              	.LASF80:
 4126 0338 444D4132 		.ascii	"DMA2_Stream2_IRQn\000"
 4126      5F537472 
 4126      65616D32 
 4126      5F495251 
 4126      6E00
 4127              	.LASF139:
 4128 034a 504C4C49 		.ascii	"PLLI2SCFGR\000"
 4128      32534346 
 4128      475200
 4129              	.LASF41:
 4130 0355 43414E31 		.ascii	"CAN1_TX_IRQn\000"
 4130      5F54585F 
 4130      4952516E 
 4130      00
 4131              	.LASF117:
 4132 0362 41484233 		.ascii	"AHB3RSTR\000"
 4132      52535452 
 4132      00
 4133              	.LASF62:
 4134 036b 45585449 		.ascii	"EXTI15_10_IRQn\000"
 4134      31355F31 
 4134      305F4952 
 4134      516E00
 4135              	.LASF57:
 4136 037a 53504931 		.ascii	"SPI1_IRQn\000"
 4136      5F495251 
 4136      6E00
 4137              	.LASF34:
 4138 0384 444D4131 		.ascii	"DMA1_Stream1_IRQn\000"
 4138      5F537472 
 4138      65616D31 
 4138      5F495251 
 4138      6E00
 4139              	.LASF170:
 4140 0396 7072696F 		.ascii	"priority\000"
 4140      72697479 
 4140      00
 4141              	.LASF109:
 4142 039f 48495352 		.ascii	"HISR\000"
 4142      00
 4143              	.LASF134:
 4144 03a4 41504232 		.ascii	"APB2LPENR\000"
ARM GAS  C:\Users\DNIEL~1\AppData\Local\Temp\cc49VrPb.s 			page 79


 4144      4C50454E 
 4144      5200
 4145              	.LASF65:
 4146 03ae 54494D38 		.ascii	"TIM8_BRK_TIM12_IRQn\000"
 4146      5F42524B 
 4146      5F54494D 
 4146      31325F49 
 4146      52516E00 
 4147              	.LASF21:
 4148 03c2 53797354 		.ascii	"SysTick_IRQn\000"
 4148      69636B5F 
 4148      4952516E 
 4148      00
 4149              	.LASF49:
 4150 03cf 54494D31 		.ascii	"TIM1_CC_IRQn\000"
 4150      5F43435F 
 4150      4952516E 
 4150      00
 4151              	.LASF67:
 4152 03dc 54494D38 		.ascii	"TIM8_TRG_COM_TIM14_IRQn\000"
 4152      5F545247 
 4152      5F434F4D 
 4152      5F54494D 
 4152      31345F49 
 4153              	.LASF181:
 4154 03f4 4952516E 		.ascii	"IRQn\000"
 4154      00
 4155              	.LASF110:
 4156 03f9 4C494643 		.ascii	"LIFCR\000"
 4156      5200
 4157              	.LASF83:
 4158 03ff 4554485F 		.ascii	"ETH_IRQn\000"
 4158      4952516E 
 4158      00
 4159              	.LASF47:
 4160 0408 54494D31 		.ascii	"TIM1_UP_TIM10_IRQn\000"
 4160      5F55505F 
 4160      54494D31 
 4160      305F4952 
 4160      516E00
 4161              	.LASF81:
 4162 041b 444D4132 		.ascii	"DMA2_Stream3_IRQn\000"
 4162      5F537472 
 4162      65616D33 
 4162      5F495251 
 4162      6E00
 4163              	.LASF55:
 4164 042d 49324332 		.ascii	"I2C2_EV_IRQn\000"
 4164      5F45565F 
 4164      4952516E 
 4164      00
 4165              	.LASF37:
 4166 043a 444D4131 		.ascii	"DMA1_Stream4_IRQn\000"
 4166      5F537472 
 4166      65616D34 
 4166      5F495251 
 4166      6E00
ARM GAS  C:\Users\DNIEL~1\AppData\Local\Temp\cc49VrPb.s 			page 80


 4167              	.LASF93:
 4168 044c 55534152 		.ascii	"USART6_IRQn\000"
 4168      54365F49 
 4168      52516E00 
 4169              	.LASF172:
 4170 0458 70617261 		.ascii	"param\000"
 4170      6D00
 4171              	.LASF72:
 4172 045e 54494D35 		.ascii	"TIM5_IRQn\000"
 4172      5F495251 
 4172      6E00
 4173              	.LASF31:
 4174 0468 45585449 		.ascii	"EXTI3_IRQn\000"
 4174      335F4952 
 4174      516E00
 4175              	.LASF58:
 4176 0473 53504932 		.ascii	"SPI2_IRQn\000"
 4176      5F495251 
 4176      6E00
 4177              	.LASF35:
 4178 047d 444D4131 		.ascii	"DMA1_Stream2_IRQn\000"
 4178      5F537472 
 4178      65616D32 
 4178      5F495251 
 4178      6E00
 4179              	.LASF85:
 4180 048f 43414E32 		.ascii	"CAN2_TX_IRQn\000"
 4180      5F54585F 
 4180      4952516E 
 4180      00
 4181              	.LASF130:
 4182 049c 41484232 		.ascii	"AHB2LPENR\000"
 4182      4C50454E 
 4182      5200
 4183              	.LASF148:
 4184 04a6 646D615F 		.ascii	"dma_func\000"
 4184      66756E63 
 4184      00
 4185              	.LASF119:
 4186 04af 41504231 		.ascii	"APB1RSTR\000"
 4186      52535452 
 4186      00
 4187              	.LASF99:
 4188 04b8 4F54475F 		.ascii	"OTG_HS_IRQn\000"
 4188      48535F49 
 4188      52516E00 
 4189              	.LASF180:
 4190 04c4 433A5C55 		.ascii	"C:\\Users\\D\341niel\\Dropbox\\Solar Racing\\Szoftv"
 4190      73657273 
 4190      5C44E16E 
 4190      69656C5C 
 4190      44726F70 
 4191 04ef 65725C4D 		.ascii	"er\\Modulux\\Modulux_v0\\modulux\\firmware\000"
 4191      6F64756C 
 4191      75785C4D 
 4191      6F64756C 
 4191      75785F76 
ARM GAS  C:\Users\DNIEL~1\AppData\Local\Temp\cc49VrPb.s 			page 81


 4192              	.LASF118:
 4193 0516 52455345 		.ascii	"RESERVED0\000"
 4193      52564544 
 4193      3000
 4194              	.LASF121:
 4195 0520 52455345 		.ascii	"RESERVED1\000"
 4195      52564544 
 4195      3100
 4196              	.LASF125:
 4197 052a 52455345 		.ascii	"RESERVED2\000"
 4197      52564544 
 4197      3200
 4198              	.LASF128:
 4199 0534 52455345 		.ascii	"RESERVED3\000"
 4199      52564544 
 4199      3300
 4200              	.LASF132:
 4201 053e 52455345 		.ascii	"RESERVED4\000"
 4201      52564544 
 4201      3400
 4202              	.LASF135:
 4203 0548 52455345 		.ascii	"RESERVED5\000"
 4203      52564544 
 4203      3500
 4204              	.LASF137:
 4205 0552 52455345 		.ascii	"RESERVED6\000"
 4205      52564544 
 4205      3600
 4206              	.LASF146:
 4207 055c 73746D33 		.ascii	"stm32_dma_stream_t\000"
 4207      325F646D 
 4207      615F7374 
 4207      7265616D 
 4207      5F7400
 4208              	.LASF73:
 4209 056f 53504933 		.ascii	"SPI3_IRQn\000"
 4209      5F495251 
 4209      6E00
 4210              	.LASF151:
 4211 0579 56656374 		.ascii	"Vector6C\000"
 4211      6F723643 
 4211      00
 4212              	.LASF82:
 4213 0582 444D4132 		.ascii	"DMA2_Stream4_IRQn\000"
 4213      5F537472 
 4213      65616D34 
 4213      5F495251 
 4213      6E00
 4214              	.LASF70:
 4215 0594 46534D43 		.ascii	"FSMC_IRQn\000"
 4215      5F495251 
 4215      6E00
 4216              	.LASF6:
 4217 059e 696E7433 		.ascii	"int32_t\000"
 4217      325F7400 
 4218              	.LASF2:
 4219 05a6 756E7369 		.ascii	"unsigned char\000"
ARM GAS  C:\Users\DNIEL~1\AppData\Local\Temp\cc49VrPb.s 			page 82


 4219      676E6564 
 4219      20636861 
 4219      7200
 4220              	.LASF46:
 4221 05b4 54494D31 		.ascii	"TIM1_BRK_TIM9_IRQn\000"
 4221      5F42524B 
 4221      5F54494D 
 4221      395F4952 
 4221      516E00
 4222              	.LASF174:
 4223 05c7 49544D5F 		.ascii	"ITM_RxBuffer\000"
 4223      52784275 
 4223      66666572 
 4223      00
 4224              	.LASF32:
 4225 05d4 45585449 		.ascii	"EXTI4_IRQn\000"
 4225      345F4952 
 4225      516E00
 4226              	.LASF102:
 4227 05df 48415348 		.ascii	"HASH_RNG_IRQn\000"
 4227      5F524E47 
 4227      5F495251 
 4227      6E00
 4228              	.LASF3:
 4229 05ed 73686F72 		.ascii	"short int\000"
 4229      7420696E 
 4229      7400
 4230              	.LASF131:
 4231 05f7 41484233 		.ascii	"AHB3LPENR\000"
 4231      4C50454E 
 4231      5200
 4232              	.LASF75:
 4233 0601 55415254 		.ascii	"UART5_IRQn\000"
 4233      355F4952 
 4233      516E00
 4234              	.LASF48:
 4235 060c 54494D31 		.ascii	"TIM1_TRG_COM_TIM11_IRQn\000"
 4235      5F545247 
 4235      5F434F4D 
 4235      5F54494D 
 4235      31315F49 
 4236              	.LASF149:
 4237 0624 646D615F 		.ascii	"dma_param\000"
 4237      70617261 
 4237      6D00
 4238              	.LASF30:
 4239 062e 45585449 		.ascii	"EXTI2_IRQn\000"
 4239      325F4952 
 4239      516E00
 4240              	.LASF127:
 4241 0639 41504232 		.ascii	"APB2ENR\000"
 4241      454E5200 
 4242              	.LASF124:
 4243 0641 41484233 		.ascii	"AHB3ENR\000"
 4243      454E5200 
 4244              	.LASF26:
 4245 0649 464C4153 		.ascii	"FLASH_IRQn\000"
ARM GAS  C:\Users\DNIEL~1\AppData\Local\Temp\cc49VrPb.s 			page 83


 4245      485F4952 
 4245      516E00
 4246              	.LASF142:
 4247 0654 69666372 		.ascii	"ifcr\000"
 4247      00
 4248              	.LASF152:
 4249 0659 56656374 		.ascii	"Vector70\000"
 4249      6F723730 
 4249      00
 4250              	.LASF89:
 4251 0662 4F54475F 		.ascii	"OTG_FS_IRQn\000"
 4251      46535F49 
 4251      52516E00 
 4252              	.LASF154:
 4253 066e 56656374 		.ascii	"Vector74\000"
 4253      6F723734 
 4253      00
 4254              	.LASF60:
 4255 0677 55534152 		.ascii	"USART2_IRQn\000"
 4255      54325F49 
 4255      52516E00 
 4256              	.LASF17:
 4257 0683 55736167 		.ascii	"UsageFault_IRQn\000"
 4257      65466175 
 4257      6C745F49 
 4257      52516E00 
 4258              	.LASF155:
 4259 0693 56656374 		.ascii	"Vector78\000"
 4259      6F723738 
 4259      00
 4260              	.LASF126:
 4261 069c 41504231 		.ascii	"APB1ENR\000"
 4261      454E5200 
 4262              	.LASF179:
 4263 06a4 2E2E2F2E 		.ascii	"../../../ChibiOS/os/hal/platforms/STM32F4xx/stm32_d"
 4263      2E2F2E2E 
 4263      2F436869 
 4263      62694F53 
 4263      2F6F732F 
 4264 06d7 6D612E63 		.ascii	"ma.c\000"
 4264      00
 4265              	.LASF168:
 4266 06dc 646D6149 		.ascii	"dmaInit\000"
 4266      6E697400 
 4267              	.LASF69:
 4268 06e4 444D4131 		.ascii	"DMA1_Stream7_IRQn\000"
 4268      5F537472 
 4268      65616D37 
 4268      5F495251 
 4268      6E00
 4269              	.LASF13:
 4270 06f6 63686172 		.ascii	"char\000"
 4270      00
 4271              	.LASF173:
 4272 06fb 646D6153 		.ascii	"dmaStreamRelease\000"
 4272      74726561 
 4272      6D52656C 
ARM GAS  C:\Users\DNIEL~1\AppData\Local\Temp\cc49VrPb.s 			page 84


 4272      65617365 
 4272      00
 4273              	.LASF156:
 4274 070c 56656374 		.ascii	"Vector7C\000"
 4274      6F723743 
 4274      00
 4275              	.LASF16:
 4276 0715 42757346 		.ascii	"BusFault_IRQn\000"
 4276      61756C74 
 4276      5F495251 
 4276      6E00
 4277              	.LASF77:
 4278 0723 54494D37 		.ascii	"TIM7_IRQn\000"
 4278      5F495251 
 4278      6E00
 4279              	.LASF97:
 4280 072d 4F54475F 		.ascii	"OTG_HS_EP1_IN_IRQn\000"
 4280      48535F45 
 4280      50315F49 
 4280      4E5F4952 
 4280      516E00
 4281              	.LASF14:
 4282 0740 4E6F6E4D 		.ascii	"NonMaskableInt_IRQn\000"
 4282      61736B61 
 4282      626C6549 
 4282      6E745F49 
 4282      52516E00 
 4283              	.LASF104:
 4284 0754 4E445452 		.ascii	"NDTR\000"
 4284      00
 4285              	.LASF107:
 4286 0759 444D415F 		.ascii	"DMA_Stream_TypeDef\000"
 4286      53747265 
 4286      616D5F54 
 4286      79706544 
 4286      656600
 4287              	.LASF123:
 4288 076c 41484232 		.ascii	"AHB2ENR\000"
 4288      454E5200 
 4289              	.LASF24:
 4290 0774 54414D50 		.ascii	"TAMP_STAMP_IRQn\000"
 4290      5F535441 
 4290      4D505F49 
 4290      52516E00 
 4291              	.LASF176:
 4292 0784 646D615F 		.ascii	"dma_streams_mask\000"
 4292      73747265 
 4292      616D735F 
 4292      6D61736B 
 4292      00
 4293              	.LASF19:
 4294 0795 44656275 		.ascii	"DebugMonitor_IRQn\000"
 4294      674D6F6E 
 4294      69746F72 
 4294      5F495251 
 4294      6E00
 4295              	.LASF78:
ARM GAS  C:\Users\DNIEL~1\AppData\Local\Temp\cc49VrPb.s 			page 85


 4296 07a7 444D4132 		.ascii	"DMA2_Stream0_IRQn\000"
 4296      5F537472 
 4296      65616D30 
 4296      5F495251 
 4296      6E00
 4297              	.LASF106:
 4298 07b9 4D314152 		.ascii	"M1AR\000"
 4298      00
 4299              	.LASF157:
 4300 07be 56656374 		.ascii	"Vector80\000"
 4300      6F723830 
 4300      00
 4301              	.LASF61:
 4302 07c7 55534152 		.ascii	"USART3_IRQn\000"
 4302      54335F49 
 4302      52516E00 
 4303              	.LASF138:
 4304 07d3 53534347 		.ascii	"SSCGR\000"
 4304      5200
 4305              	.LASF158:
 4306 07d9 56656374 		.ascii	"Vector84\000"
 4306      6F723834 
 4306      00
 4307              	.LASF50:
 4308 07e2 54494D32 		.ascii	"TIM2_IRQn\000"
 4308      5F495251 
 4308      6E00
 4309              	.LASF28:
 4310 07ec 45585449 		.ascii	"EXTI0_IRQn\000"
 4310      305F4952 
 4310      516E00
 4311              	.LASF59:
 4312 07f7 55534152 		.ascii	"USART1_IRQn\000"
 4312      54315F49 
 4312      52516E00 
 4313              	.LASF136:
 4314 0803 42444352 		.ascii	"BDCR\000"
 4314      00
 4315              	.LASF5:
 4316 0808 75696E74 		.ascii	"uint8_t\000"
 4316      385F7400 
 4317              	.LASF153:
 4318 0810 666C6167 		.ascii	"flags\000"
 4318      7300
 4319              	.LASF100:
 4320 0816 44434D49 		.ascii	"DCMI_IRQn\000"
 4320      5F495251 
 4320      6E00
 4321              	.LASF177:
 4322 0820 646D615F 		.ascii	"dma_isr_redir\000"
 4322      6973725F 
 4322      72656469 
 4322      7200
 4323              	.LASF178:
 4324 082e 474E5520 		.ascii	"GNU C 4.5.2\000"
 4324      4320342E 
 4324      352E3200 
ARM GAS  C:\Users\DNIEL~1\AppData\Local\Temp\cc49VrPb.s 			page 86


 4325              	.LASF160:
 4326 083a 56656374 		.ascii	"Vector120\000"
 4326      6F723132 
 4326      3000
 4327              	.LASF103:
 4328 0844 4650555F 		.ascii	"FPU_IRQn\000"
 4328      4952516E 
 4328      00
 4329              	.LASF114:
 4330 084d 43464752 		.ascii	"CFGR\000"
 4330      00
 4331              	.LASF161:
 4332 0852 56656374 		.ascii	"Vector124\000"
 4332      6F723132 
 4332      3400
 4333              	.LASF162:
 4334 085c 56656374 		.ascii	"Vector128\000"
 4334      6F723132 
 4334      3800
 4335              	.LASF54:
 4336 0866 49324331 		.ascii	"I2C1_ER_IRQn\000"
 4336      5F45525F 
 4336      4952516E 
 4336      00
 4337              	.LASF40:
 4338 0873 4144435F 		.ascii	"ADC_IRQn\000"
 4338      4952516E 
 4338      00
 4339              	.LASF79:
 4340 087c 444D4132 		.ascii	"DMA2_Stream1_IRQn\000"
 4340      5F537472 
 4340      65616D31 
 4340      5F495251 
 4340      6E00
 4341              	.LASF163:
 4342 088e 56656374 		.ascii	"Vector12C\000"
 4342      6F723132 
 4342      4300
 4343              	.LASF111:
 4344 0898 48494643 		.ascii	"HIFCR\000"
 4344      5200
 4345              	.LASF44:
 4346 089e 43414E31 		.ascii	"CAN1_SCE_IRQn\000"
 4346      5F534345 
 4346      5F495251 
 4346      6E00
 4347              	.LASF182:
 4348 08ac 646D6153 		.ascii	"dmaStreamAllocate\000"
 4348      74726561 
 4348      6D416C6C 
 4348      6F636174 
 4348      6500
 4349              	.LASF88:
 4350 08be 43414E32 		.ascii	"CAN2_SCE_IRQn\000"
 4350      5F534345 
 4350      5F495251 
 4350      6E00
ARM GAS  C:\Users\DNIEL~1\AppData\Local\Temp\cc49VrPb.s 			page 87


 4351              	.LASF27:
 4352 08cc 5243435F 		.ascii	"RCC_IRQn\000"
 4352      4952516E 
 4352      00
 4353              	.LASF98:
 4354 08d5 4F54475F 		.ascii	"OTG_HS_WKUP_IRQn\000"
 4354      48535F57 
 4354      4B55505F 
 4354      4952516E 
 4354      00
 4355              	.LASF51:
 4356 08e6 54494D33 		.ascii	"TIM3_IRQn\000"
 4356      5F495251 
 4356      6E00
 4357              	.LASF29:
 4358 08f0 45585449 		.ascii	"EXTI1_IRQn\000"
 4358      315F4952 
 4358      516E00
 4359              	.LASF33:
 4360 08fb 444D4131 		.ascii	"DMA1_Stream0_IRQn\000"
 4360      5F537472 
 4360      65616D30 
 4360      5F495251 
 4360      6E00
 4361              		.ident	"GCC: (Sourcery G++ Lite 2011.03-42) 4.5.2"
ARM GAS  C:\Users\DNIEL~1\AppData\Local\Temp\cc49VrPb.s 			page 88


DEFINED SYMBOLS
                            *ABS*:00000000 stm32_dma.c
C:\Users\DNIEL~1\AppData\Local\Temp\cc49VrPb.s:24     .text.Vector6C:00000000 $t
C:\Users\DNIEL~1\AppData\Local\Temp\cc49VrPb.s:30     .text.Vector6C:00000000 Vector6C
C:\Users\DNIEL~1\AppData\Local\Temp\cc49VrPb.s:75     .text.Vector6C:00000028 $d
C:\Users\DNIEL~1\AppData\Local\Temp\cc49VrPb.s:81     .text.Vector70:00000000 $t
C:\Users\DNIEL~1\AppData\Local\Temp\cc49VrPb.s:87     .text.Vector70:00000000 Vector70
C:\Users\DNIEL~1\AppData\Local\Temp\cc49VrPb.s:133    .text.Vector70:0000002c $d
C:\Users\DNIEL~1\AppData\Local\Temp\cc49VrPb.s:139    .text.Vector74:00000000 $t
C:\Users\DNIEL~1\AppData\Local\Temp\cc49VrPb.s:145    .text.Vector74:00000000 Vector74
C:\Users\DNIEL~1\AppData\Local\Temp\cc49VrPb.s:191    .text.Vector74:0000002c $d
C:\Users\DNIEL~1\AppData\Local\Temp\cc49VrPb.s:197    .text.Vector78:00000000 $t
C:\Users\DNIEL~1\AppData\Local\Temp\cc49VrPb.s:203    .text.Vector78:00000000 Vector78
C:\Users\DNIEL~1\AppData\Local\Temp\cc49VrPb.s:249    .text.Vector78:0000002c $d
C:\Users\DNIEL~1\AppData\Local\Temp\cc49VrPb.s:255    .text.Vector7C:00000000 $t
C:\Users\DNIEL~1\AppData\Local\Temp\cc49VrPb.s:261    .text.Vector7C:00000000 Vector7C
C:\Users\DNIEL~1\AppData\Local\Temp\cc49VrPb.s:305    .text.Vector7C:00000028 $d
C:\Users\DNIEL~1\AppData\Local\Temp\cc49VrPb.s:311    .text.Vector80:00000000 $t
C:\Users\DNIEL~1\AppData\Local\Temp\cc49VrPb.s:317    .text.Vector80:00000000 Vector80
C:\Users\DNIEL~1\AppData\Local\Temp\cc49VrPb.s:363    .text.Vector80:0000002c $d
C:\Users\DNIEL~1\AppData\Local\Temp\cc49VrPb.s:369    .text.Vector84:00000000 $t
C:\Users\DNIEL~1\AppData\Local\Temp\cc49VrPb.s:375    .text.Vector84:00000000 Vector84
C:\Users\DNIEL~1\AppData\Local\Temp\cc49VrPb.s:421    .text.Vector84:0000002c $d
C:\Users\DNIEL~1\AppData\Local\Temp\cc49VrPb.s:427    .text.VectorFC:00000000 $t
C:\Users\DNIEL~1\AppData\Local\Temp\cc49VrPb.s:433    .text.VectorFC:00000000 VectorFC
C:\Users\DNIEL~1\AppData\Local\Temp\cc49VrPb.s:479    .text.VectorFC:0000002c $d
C:\Users\DNIEL~1\AppData\Local\Temp\cc49VrPb.s:485    .text.Vector120:00000000 $t
C:\Users\DNIEL~1\AppData\Local\Temp\cc49VrPb.s:491    .text.Vector120:00000000 Vector120
C:\Users\DNIEL~1\AppData\Local\Temp\cc49VrPb.s:535    .text.Vector120:00000028 $d
C:\Users\DNIEL~1\AppData\Local\Temp\cc49VrPb.s:541    .text.Vector124:00000000 $t
C:\Users\DNIEL~1\AppData\Local\Temp\cc49VrPb.s:547    .text.Vector124:00000000 Vector124
C:\Users\DNIEL~1\AppData\Local\Temp\cc49VrPb.s:593    .text.Vector124:0000002c $d
C:\Users\DNIEL~1\AppData\Local\Temp\cc49VrPb.s:599    .text.Vector128:00000000 $t
C:\Users\DNIEL~1\AppData\Local\Temp\cc49VrPb.s:605    .text.Vector128:00000000 Vector128
C:\Users\DNIEL~1\AppData\Local\Temp\cc49VrPb.s:651    .text.Vector128:0000002c $d
C:\Users\DNIEL~1\AppData\Local\Temp\cc49VrPb.s:657    .text.Vector12C:00000000 $t
C:\Users\DNIEL~1\AppData\Local\Temp\cc49VrPb.s:663    .text.Vector12C:00000000 Vector12C
C:\Users\DNIEL~1\AppData\Local\Temp\cc49VrPb.s:709    .text.Vector12C:0000002c $d
C:\Users\DNIEL~1\AppData\Local\Temp\cc49VrPb.s:715    .text.Vector130:00000000 $t
C:\Users\DNIEL~1\AppData\Local\Temp\cc49VrPb.s:721    .text.Vector130:00000000 Vector130
C:\Users\DNIEL~1\AppData\Local\Temp\cc49VrPb.s:765    .text.Vector130:00000028 $d
C:\Users\DNIEL~1\AppData\Local\Temp\cc49VrPb.s:771    .text.Vector150:00000000 $t
C:\Users\DNIEL~1\AppData\Local\Temp\cc49VrPb.s:777    .text.Vector150:00000000 Vector150
C:\Users\DNIEL~1\AppData\Local\Temp\cc49VrPb.s:823    .text.Vector150:0000002c $d
C:\Users\DNIEL~1\AppData\Local\Temp\cc49VrPb.s:829    .text.Vector154:00000000 $t
C:\Users\DNIEL~1\AppData\Local\Temp\cc49VrPb.s:835    .text.Vector154:00000000 Vector154
C:\Users\DNIEL~1\AppData\Local\Temp\cc49VrPb.s:881    .text.Vector154:0000002c $d
C:\Users\DNIEL~1\AppData\Local\Temp\cc49VrPb.s:887    .text.Vector158:00000000 $t
C:\Users\DNIEL~1\AppData\Local\Temp\cc49VrPb.s:893    .text.Vector158:00000000 Vector158
C:\Users\DNIEL~1\AppData\Local\Temp\cc49VrPb.s:939    .text.Vector158:0000002c $d
C:\Users\DNIEL~1\AppData\Local\Temp\cc49VrPb.s:945    .text.dmaInit:00000000 $t
C:\Users\DNIEL~1\AppData\Local\Temp\cc49VrPb.s:951    .text.dmaInit:00000000 dmaInit
C:\Users\DNIEL~1\AppData\Local\Temp\cc49VrPb.s:1082   .text.dmaInit:000000ac $d
C:\Users\DNIEL~1\AppData\Local\Temp\cc49VrPb.s:1091   .text.dmaStreamAllocate:00000000 $t
C:\Users\DNIEL~1\AppData\Local\Temp\cc49VrPb.s:1097   .text.dmaStreamAllocate:00000000 dmaStreamAllocate
C:\Users\DNIEL~1\AppData\Local\Temp\cc49VrPb.s:1222   .text.dmaStreamAllocate:000000a0 $d
C:\Users\DNIEL~1\AppData\Local\Temp\cc49VrPb.s:1230   .text.dmaStreamRelease:00000000 $t
ARM GAS  C:\Users\DNIEL~1\AppData\Local\Temp\cc49VrPb.s 			page 89


C:\Users\DNIEL~1\AppData\Local\Temp\cc49VrPb.s:1236   .text.dmaStreamRelease:00000000 dmaStreamRelease
C:\Users\DNIEL~1\AppData\Local\Temp\cc49VrPb.s:1308   .text.dmaStreamRelease:00000060 $d
C:\Users\DNIEL~1\AppData\Local\Temp\cc49VrPb.s:1337   .rodata._stm32_dma_streams:00000000 _stm32_dma_streams
C:\Users\DNIEL~1\AppData\Local\Temp\cc49VrPb.s:1317   .rodata.str1.4:00000000 $d
C:\Users\DNIEL~1\AppData\Local\Temp\cc49VrPb.s:1326   .bss.dma_isr_redir:00000000 $d
C:\Users\DNIEL~1\AppData\Local\Temp\cc49VrPb.s:1330   .bss.dma_isr_redir:00000000 dma_isr_redir
C:\Users\DNIEL~1\AppData\Local\Temp\cc49VrPb.s:1333   .rodata._stm32_dma_streams:00000000 $d
C:\Users\DNIEL~1\AppData\Local\Temp\cc49VrPb.s:1435   .bss.dma_streams_mask:00000000 $d
C:\Users\DNIEL~1\AppData\Local\Temp\cc49VrPb.s:1439   .bss.dma_streams_mask:00000000 dma_streams_mask
                     .debug_frame:00000010 $d
C:\Users\DNIEL~1\AppData\Local\Temp\cc49VrPb.s:138    .text.Vector70:00000034 $t
C:\Users\DNIEL~1\AppData\Local\Temp\cc49VrPb.s:196    .text.Vector74:00000034 $t
C:\Users\DNIEL~1\AppData\Local\Temp\cc49VrPb.s:254    .text.Vector78:00000034 $t
C:\Users\DNIEL~1\AppData\Local\Temp\cc49VrPb.s:368    .text.Vector80:00000034 $t
C:\Users\DNIEL~1\AppData\Local\Temp\cc49VrPb.s:426    .text.Vector84:00000034 $t
C:\Users\DNIEL~1\AppData\Local\Temp\cc49VrPb.s:484    .text.VectorFC:00000034 $t
C:\Users\DNIEL~1\AppData\Local\Temp\cc49VrPb.s:598    .text.Vector124:00000034 $t
C:\Users\DNIEL~1\AppData\Local\Temp\cc49VrPb.s:656    .text.Vector128:00000034 $t
C:\Users\DNIEL~1\AppData\Local\Temp\cc49VrPb.s:714    .text.Vector12C:00000034 $t
C:\Users\DNIEL~1\AppData\Local\Temp\cc49VrPb.s:828    .text.Vector150:00000034 $t
C:\Users\DNIEL~1\AppData\Local\Temp\cc49VrPb.s:886    .text.Vector154:00000034 $t
C:\Users\DNIEL~1\AppData\Local\Temp\cc49VrPb.s:944    .text.Vector158:00000034 $t

UNDEFINED SYMBOLS
dbg_check_enter_isr
dbg_check_leave_isr
_port_irq_epilogue
nvicEnableVector
chDbgPanic
nvicDisableVector
