ARM GAS  C:\Users\DNIEL~1\AppData\Local\Temp\ccTDYczq.s 			page 1


   1              		.syntax unified
   2              		.cpu cortex-m3
   3              		.fpu softvfp
   4              		.eabi_attribute 20, 1
   5              		.eabi_attribute 21, 1
   6              		.eabi_attribute 23, 3
   7              		.eabi_attribute 24, 1
   8              		.eabi_attribute 25, 1
   9              		.eabi_attribute 26, 1
  10              		.eabi_attribute 30, 2
  11              		.eabi_attribute 18, 4
  12              		.thumb
  13              		.file	"testqueues.c"
  14              		.section	.debug_abbrev,"",%progbits
  15              	.Ldebug_abbrev0:
  16              		.section	.debug_info,"",%progbits
  17              	.Ldebug_info0:
  18              		.section	.debug_line,"",%progbits
  19              	.Ldebug_line0:
  20 0000 95040000 		.text
  20      0200DD01 
  20      00000201 
  20      FB0E0D00 
  20      01010101 
  21              	.Ltext0:
  22              		.cfi_sections	.debug_frame
  23              		.section	.text.notify,"ax",%progbits
  24              		.align	2
  25              		.p2align 4,,15
  26              		.thumb
  27              		.thumb_func
  28              		.type	notify, %function
  29              	notify:
  30              	.LFB7:
  31              		.file 1 "../../../ChibiOS/test/testqueues.c"
  32              		.loc 1 61 0
  33              		.cfi_startproc
  34              		@ args = 0, pretend = 0, frame = 0
  35              		@ frame_needed = 0, uses_anonymous_args = 0
  36              		@ link register save eliminated.
  37              	.LVL0:
  38              		.loc 1 63 0
  39 0000 7047     		bx	lr
  40              		.cfi_endproc
  41              	.LFE7:
  42              		.size	notify, .-notify
  43 0002 00BFAFF3 		.section	.text.thread2,"ax",%progbits
  43      0080AFF3 
  43      0080AFF3 
  43      0080
  44              		.align	2
  45              		.p2align 4,,15
  46              		.thumb
  47              		.thumb_func
  48              		.type	thread2, %function
  49              	thread2:
  50              	.LFB12:
ARM GAS  C:\Users\DNIEL~1\AppData\Local\Temp\ccTDYczq.s 			page 2


  51              		.loc 1 174 0
  52              		.cfi_startproc
  53              		@ args = 0, pretend = 0, frame = 0
  54              		@ frame_needed = 0, uses_anonymous_args = 0
  55              	.LVL1:
  56 0000 08B5     		push	{r3, lr}
  57              	.LCFI0:
  58              		.cfi_def_cfa_offset 8
  59              		.loc 1 177 0
  60 0002 0021     		movs	r1, #0
  61 0004 C822     		movs	r2, #200
  62 0006 0248     		ldr	r0, .L3
  63              	.LVL2:
  64              		.cfi_offset 14, -4
  65              		.cfi_offset 3, -8
  66 0008 FFF7FEFF 		bl	chOQPutTimeout
  67              		.loc 1 179 0
  68 000c 0020     		movs	r0, #0
  69 000e 08BD     		pop	{r3, pc}
  70              	.L4:
  71              		.align	2
  72              	.L3:
  73 0010 00000000 		.word	.LANCHOR0
  74              		.cfi_endproc
  75              	.LFE12:
  76              		.size	thread2, .-thread2
  77 0014 AFF30080 		.section	.text.queues2_execute,"ax",%progbits
  77      AFF30080 
  77      AFF30080 
  78              		.align	2
  79              		.p2align 4,,15
  80              		.thumb
  81              		.thumb_func
  82              		.type	queues2_execute, %function
  83              	queues2_execute:
  84              	.LFB13:
  85              		.loc 1 181 0
  86              		.cfi_startproc
  87              		@ args = 0, pretend = 0, frame = 0
  88              		@ frame_needed = 0, uses_anonymous_args = 0
  89 0000 2DE9F041 		push	{r4, r5, r6, r7, r8, lr}
  90              	.LCFI1:
  91              		.cfi_def_cfa_offset 24
  92              	.LBB2:
  93              		.loc 1 186 0
  94 0004 2023     		movs	r3, #32
  95              	.LVL3:
  96              	.LBE2:
  97              		.loc 1 181 0
  98 0006 82B0     		sub	sp, sp, #8
  99              	.LCFI2:
 100              		.cfi_def_cfa_offset 32
 101              	.LBB3:
 102              		.loc 1 186 0
 103              	@ 186 "../../../ChibiOS/test/testqueues.c" 1
 104 0008 83F31188 		msr     BASEPRI, r3
 105              	@ 0 "" 2
ARM GAS  C:\Users\DNIEL~1\AppData\Local\Temp\ccTDYczq.s 			page 3


 106              	.LVL4:
 107              		.thumb
 108              	.LBE3:
 109 000c C04D     		ldr	r5, .L30
 110              		.cfi_offset 14, -4
 111              		.cfi_offset 8, -8
 112              		.cfi_offset 7, -12
 113              		.cfi_offset 6, -16
 114              		.cfi_offset 5, -20
 115              		.cfi_offset 4, -24
 116 000e FFF7FEFF 		bl	dbg_check_lock
 117              	.LVL5:
 118 0012 6A69     		ldr	r2, [r5, #20]
 119 0014 AB69     		ldr	r3, [r5, #24]
 120 0016 9A42     		cmp	r2, r3
 121 0018 00F09481 		beq	.L20
 122 001c 0021     		movs	r1, #0
 123              	.L6:
 124              		.loc 1 186 0 is_stmt 0 discriminator 4
 125 001e 0120     		movs	r0, #1
 126 0020 FFF7FEFF 		bl	_test_assert
 127 0024 0646     		mov	r6, r0
 128 0026 0028     		cmp	r0, #0
 129 0028 40F08681 		bne	.L21
 130              		.loc 1 186 0 discriminator 6
 131 002c FFF7FEFF 		bl	dbg_check_unlock
 132              	.LBB4:
 133 0030 3346     		mov	r3, r6
 134              	.LVL6:
 135              	@ 186 "../../../ChibiOS/test/testqueues.c" 1
 136 0032 83F31188 		msr     BASEPRI, r3
 137              	@ 0 "" 2
 138              	.LVL7:
 139              		.thumb
 140              	.LBE4:
 141              		.loc 1 190 0 is_stmt 1 discriminator 6
 142 0036 B64C     		ldr	r4, .L30
 143 0038 4121     		movs	r1, #65
 144 003a 2046     		mov	r0, r4
 145 003c 4FF0FF32 		mov	r2, #-1
 146 0040 FFF7FEFF 		bl	chOQPutTimeout
 147              	.LVL8:
 148 0044 4221     		movs	r1, #66
 149 0046 2046     		mov	r0, r4
 150 0048 4FF0FF32 		mov	r2, #-1
 151 004c FFF7FEFF 		bl	chOQPutTimeout
 152              	.LVL9:
 153 0050 4321     		movs	r1, #67
 154 0052 2046     		mov	r0, r4
 155 0054 4FF0FF32 		mov	r2, #-1
 156 0058 FFF7FEFF 		bl	chOQPutTimeout
 157              	.LVL10:
 158 005c 2046     		mov	r0, r4
 159 005e 4421     		movs	r1, #68
 160 0060 4FF0FF32 		mov	r2, #-1
 161 0064 FFF7FEFF 		bl	chOQPutTimeout
 162              	.LVL11:
ARM GAS  C:\Users\DNIEL~1\AppData\Local\Temp\ccTDYczq.s 			page 4


 163              	.LBB5:
 164              		.loc 1 191 0 discriminator 6
 165 0068 2023     		movs	r3, #32
 166              	.LVL12:
 167              	@ 191 "../../../ChibiOS/test/testqueues.c" 1
 168 006a 83F31188 		msr     BASEPRI, r3
 169              	@ 0 "" 2
 170              	.LVL13:
 171              		.thumb
 172              	.LBE5:
 173 006e FFF7FEFF 		bl	dbg_check_lock
 174              	.LVL14:
 175 0072 AD68     		ldr	r5, [r5, #8]
 176 0074 0220     		movs	r0, #2
 177 0076 D5F10101 		rsbs	r1, r5, #1
 178 007a 38BF     		it	cc
 179 007c 0021     		movcc	r1, #0
 180 007e FFF7FEFF 		bl	_test_assert
 181 0082 0546     		mov	r5, r0
 182 0084 0028     		cmp	r0, #0
 183 0086 40F04F81 		bne	.L22
 184              		.loc 1 191 0 is_stmt 0 discriminator 2
 185 008a FFF7FEFF 		bl	dbg_check_unlock
 186              	.LBB6:
 187 008e 2B46     		mov	r3, r5
 188              	.LVL15:
 189              	@ 191 "../../../ChibiOS/test/testqueues.c" 1
 190 0090 83F31188 		msr     BASEPRI, r3
 191              	@ 0 "" 2
 192              	.LVL16:
 193              		.thumb
 194              	.LBE6:
 195              	.LBB7:
 196              	.LBB8:
 197              		.loc 1 197 0 is_stmt 1 discriminator 2
 198 0094 2023     		movs	r3, #32
 199              	.LVL17:
 200              	@ 197 "../../../ChibiOS/test/testqueues.c" 1
 201 0096 83F31188 		msr     BASEPRI, r3
 202              	@ 0 "" 2
 203              	.LVL18:
 204              		.thumb
 205              	.LBE8:
 206 009a FFF7FEFF 		bl	dbg_check_lock
 207              	.LVL19:
 208              		.loc 1 198 0 discriminator 2
 209 009e 2046     		mov	r0, r4
 210 00a0 FFF7FEFF 		bl	chOQGetI
 211 00a4 0646     		mov	r6, r0
 212              	.LVL20:
 213              		.loc 1 199 0 discriminator 2
 214 00a6 FFF7FEFF 		bl	dbg_check_unlock
 215              	.LVL21:
 216              	.LBB9:
 217 00aa 2B46     		mov	r3, r5
 218              	.LVL22:
 219              	@ 199 "../../../ChibiOS/test/testqueues.c" 1
ARM GAS  C:\Users\DNIEL~1\AppData\Local\Temp\ccTDYczq.s 			page 5


 220 00ac 83F31188 		msr     BASEPRI, r3
 221              	@ 0 "" 2
 222              	.LVL23:
 223              		.thumb
 224              	.LBE9:
 225              		.loc 1 200 0 discriminator 2
 226 00b0 F0B2     		uxtb	r0, r6
 227 00b2 FFF7FEFF 		bl	test_emit_token
 228              	.LVL24:
 229              	.LBB10:
 230              		.loc 1 197 0 discriminator 2
 231 00b6 2023     		movs	r3, #32
 232              	@ 197 "../../../ChibiOS/test/testqueues.c" 1
 233 00b8 83F31188 		msr     BASEPRI, r3
 234              	@ 0 "" 2
 235              	.LVL25:
 236              		.thumb
 237              	.LBE10:
 238 00bc FFF7FEFF 		bl	dbg_check_lock
 239              	.LVL26:
 240              		.loc 1 198 0 discriminator 2
 241 00c0 2046     		mov	r0, r4
 242 00c2 FFF7FEFF 		bl	chOQGetI
 243 00c6 0646     		mov	r6, r0
 244              	.LVL27:
 245              		.loc 1 199 0 discriminator 2
 246 00c8 FFF7FEFF 		bl	dbg_check_unlock
 247              	.LVL28:
 248              	.LBB11:
 249 00cc 2B46     		mov	r3, r5
 250              	@ 199 "../../../ChibiOS/test/testqueues.c" 1
 251 00ce 83F31188 		msr     BASEPRI, r3
 252              	@ 0 "" 2
 253              	.LVL29:
 254              		.thumb
 255              	.LBE11:
 256              		.loc 1 200 0 discriminator 2
 257 00d2 F0B2     		uxtb	r0, r6
 258 00d4 FFF7FEFF 		bl	test_emit_token
 259              	.LVL30:
 260              	.LBB12:
 261              		.loc 1 197 0 discriminator 2
 262 00d8 2023     		movs	r3, #32
 263              	@ 197 "../../../ChibiOS/test/testqueues.c" 1
 264 00da 83F31188 		msr     BASEPRI, r3
 265              	@ 0 "" 2
 266              	.LVL31:
 267              		.thumb
 268              	.LBE12:
 269 00de FFF7FEFF 		bl	dbg_check_lock
 270              	.LVL32:
 271              		.loc 1 198 0 discriminator 2
 272 00e2 2046     		mov	r0, r4
 273 00e4 FFF7FEFF 		bl	chOQGetI
 274 00e8 0646     		mov	r6, r0
 275              	.LVL33:
 276              		.loc 1 199 0 discriminator 2
ARM GAS  C:\Users\DNIEL~1\AppData\Local\Temp\ccTDYczq.s 			page 6


 277 00ea FFF7FEFF 		bl	dbg_check_unlock
 278              	.LVL34:
 279              	.LBB13:
 280 00ee 2B46     		mov	r3, r5
 281              	@ 199 "../../../ChibiOS/test/testqueues.c" 1
 282 00f0 83F31188 		msr     BASEPRI, r3
 283              	@ 0 "" 2
 284              	.LVL35:
 285              		.thumb
 286              	.LBE13:
 287              		.loc 1 200 0 discriminator 2
 288 00f4 F0B2     		uxtb	r0, r6
 289 00f6 FFF7FEFF 		bl	test_emit_token
 290              	.LVL36:
 291              	.LBB14:
 292              		.loc 1 197 0 discriminator 2
 293 00fa 2023     		movs	r3, #32
 294              	@ 197 "../../../ChibiOS/test/testqueues.c" 1
 295 00fc 83F31188 		msr     BASEPRI, r3
 296              	@ 0 "" 2
 297              	.LVL37:
 298              		.thumb
 299              	.LBE14:
 300 0100 FFF7FEFF 		bl	dbg_check_lock
 301              	.LVL38:
 302              		.loc 1 198 0 discriminator 2
 303 0104 2046     		mov	r0, r4
 304 0106 FFF7FEFF 		bl	chOQGetI
 305 010a 0646     		mov	r6, r0
 306              	.LVL39:
 307              		.loc 1 199 0 discriminator 2
 308 010c FFF7FEFF 		bl	dbg_check_unlock
 309              	.LVL40:
 310              	.LBB15:
 311 0110 2B46     		mov	r3, r5
 312              	@ 199 "../../../ChibiOS/test/testqueues.c" 1
 313 0112 83F31188 		msr     BASEPRI, r3
 314              	@ 0 "" 2
 315              	.LVL41:
 316              		.thumb
 317              	.LBE15:
 318              		.loc 1 200 0 discriminator 2
 319 0116 F0B2     		uxtb	r0, r6
 320 0118 FFF7FEFF 		bl	test_emit_token
 321              	.LVL42:
 322              	.LBE7:
 323              	.LBB16:
 324              		.loc 1 202 0 discriminator 2
 325 011c 2023     		movs	r3, #32
 326              	.LVL43:
 327              	@ 202 "../../../ChibiOS/test/testqueues.c" 1
 328 011e 83F31188 		msr     BASEPRI, r3
 329              	@ 0 "" 2
 330              	.LVL44:
 331              		.thumb
 332              	.LBE16:
 333 0122 FFF7FEFF 		bl	dbg_check_lock
ARM GAS  C:\Users\DNIEL~1\AppData\Local\Temp\ccTDYczq.s 			page 7


 334              	.LVL45:
 335 0126 6069     		ldr	r0, [r4, #20]
 336 0128 A269     		ldr	r2, [r4, #24]
 337 012a 9042     		cmp	r0, r2
 338 012c 00F01581 		beq	.L23
 339              		.loc 1 202 0 is_stmt 0
 340 0130 2946     		mov	r1, r5
 341              	.L10:
 342              		.loc 1 202 0 discriminator 4
 343 0132 0320     		movs	r0, #3
 344 0134 FFF7FEFF 		bl	_test_assert
 345 0138 0446     		mov	r4, r0
 346 013a 0028     		cmp	r0, #0
 347 013c 40F00781 		bne	.L24
 348              		.loc 1 202 0 discriminator 6
 349 0140 FFF7FEFF 		bl	dbg_check_unlock
 350              	.LBB17:
 351 0144 2346     		mov	r3, r4
 352              	.LVL46:
 353              	@ 202 "../../../ChibiOS/test/testqueues.c" 1
 354 0146 83F31188 		msr     BASEPRI, r3
 355              	@ 0 "" 2
 356              	.LVL47:
 357              		.thumb
 358              	.LBE17:
 359              		.loc 1 203 0 is_stmt 1 discriminator 6
 360 014a 0420     		movs	r0, #4
 361 014c 7149     		ldr	r1, .L30+4
 362 014e FFF7FEFF 		bl	_test_assert_sequence
 363              	.LVL48:
 364 0152 0546     		mov	r5, r0
 365 0154 0028     		cmp	r0, #0
 366 0156 40F0EC80 		bne	.L5
 367              	.LBB18:
 368              		.loc 1 204 0
 369 015a 2023     		movs	r3, #32
 370              	.LVL49:
 371              	@ 204 "../../../ChibiOS/test/testqueues.c" 1
 372 015c 83F31188 		msr     BASEPRI, r3
 373              	@ 0 "" 2
 374              	.LVL50:
 375              		.thumb
 376              	.LBE18:
 377 0160 6B4C     		ldr	r4, .L30
 378 0162 FFF7FEFF 		bl	dbg_check_lock
 379              	.LVL51:
 380 0166 2046     		mov	r0, r4
 381 0168 FFF7FEFF 		bl	chOQGetI
 382 016c 10F1030F 		cmn	r0, #3
 383 0170 14BF     		ite	ne
 384 0172 0021     		movne	r1, #0
 385 0174 0121     		moveq	r1, #1
 386 0176 0520     		movs	r0, #5
 387 0178 FFF7FEFF 		bl	_test_assert
 388 017c 0646     		mov	r6, r0
 389              	.LVL52:
 390 017e 0028     		cmp	r0, #0
ARM GAS  C:\Users\DNIEL~1\AppData\Local\Temp\ccTDYczq.s 			page 8


 391 0180 40F0F080 		bne	.L25
 392              		.loc 1 204 0 is_stmt 0 discriminator 2
 393 0184 FFF7FEFF 		bl	dbg_check_unlock
 394              	.LBB19:
 395 0188 3346     		mov	r3, r6
 396              	.LVL53:
 397              	@ 204 "../../../ChibiOS/test/testqueues.c" 1
 398 018a 83F31188 		msr     BASEPRI, r3
 399              	@ 0 "" 2
 400              	.LVL54:
 401              		.thumb
 402              	.LBE19:
 403              		.loc 1 207 0 is_stmt 1 discriminator 2
 404 018e 624D     		ldr	r5, .L30+8
 405 0190 0822     		movs	r2, #8
 406 0192 6E68     		ldr	r6, [r5, #4]
 407 0194 2046     		mov	r0, r4
 408 0196 3146     		mov	r1, r6
 409 0198 FFF7FEFF 		bl	chOQWriteTimeout
 410              	.LVL55:
 411              		.loc 1 208 0 discriminator 2
 412 019c A0F1040C 		sub	ip, r0, #4
 413 01a0 DCF10008 		rsbs	r8, ip, #0
 414 01a4 48EB0C01 		adc	r1, r8, ip
 415 01a8 0620     		movs	r0, #6
 416              	.LVL56:
 417 01aa FFF7FEFF 		bl	_test_assert
 418              	.LVL57:
 419 01ae 8046     		mov	r8, r0
 420 01b0 0028     		cmp	r0, #0
 421 01b2 40F0BE80 		bne	.L5
 422              	.LBB20:
 423              		.loc 1 209 0
 424 01b6 2023     		movs	r3, #32
 425              	.LVL58:
 426              	@ 209 "../../../ChibiOS/test/testqueues.c" 1
 427 01b8 83F31188 		msr     BASEPRI, r3
 428              	@ 0 "" 2
 429              	.LVL59:
 430              		.thumb
 431              	.LBE20:
 432 01bc FFF7FEFF 		bl	dbg_check_lock
 433              	.LVL60:
 434 01c0 A768     		ldr	r7, [r4, #8]
 435 01c2 0720     		movs	r0, #7
 436 01c4 D7F10101 		rsbs	r1, r7, #1
 437 01c8 38BF     		it	cc
 438 01ca 0021     		movcc	r1, #0
 439 01cc FFF7FEFF 		bl	_test_assert
 440 01d0 0746     		mov	r7, r0
 441 01d2 0028     		cmp	r0, #0
 442 01d4 40F0CC80 		bne	.L26
 443              		.loc 1 209 0 is_stmt 0 discriminator 2
 444 01d8 FFF7FEFF 		bl	dbg_check_unlock
 445              	.LBB21:
 446 01dc 3B46     		mov	r3, r7
 447              	.LVL61:
ARM GAS  C:\Users\DNIEL~1\AppData\Local\Temp\ccTDYczq.s 			page 9


 448              	@ 209 "../../../ChibiOS/test/testqueues.c" 1
 449 01de 83F31188 		msr     BASEPRI, r3
 450              	@ 0 "" 2
 451              	.LVL62:
 452              		.thumb
 453              	.LBE21:
 454              		.loc 1 210 0 is_stmt 1 discriminator 2
 455 01e2 4E4A     		ldr	r2, .L30+12
 456 01e4 2868     		ldr	r0, [r5, #0]
 457 01e6 9369     		ldr	r3, [r2, #24]
 458              	.LVL63:
 459 01e8 4FF49871 		mov	r1, #304
 460 01ec 9D68     		ldr	r5, [r3, #8]
 461 01ee 4C4B     		ldr	r3, .L30+16
 462 01f0 6A1C     		adds	r2, r5, #1
 463 01f2 0097     		str	r7, [sp, #0]
 464 01f4 FFF7FEFF 		bl	chThdCreateStatic
 465 01f8 4A49     		ldr	r1, .L30+20
 466              	.LBB22:
 467              		.loc 1 211 0 discriminator 2
 468 01fa 2023     		movs	r3, #32
 469              	.LVL64:
 470              	.LBE22:
 471              		.loc 1 210 0 discriminator 2
 472 01fc 0860     		str	r0, [r1, #0]
 473              	.LBB23:
 474              		.loc 1 211 0 discriminator 2
 475              	@ 211 "../../../ChibiOS/test/testqueues.c" 1
 476 01fe 83F31188 		msr     BASEPRI, r3
 477              	@ 0 "" 2
 478              	.LVL65:
 479              		.thumb
 480              	.LBE23:
 481 0202 FFF7FEFF 		bl	dbg_check_lock
 482              	.LVL66:
 483 0206 2369     		ldr	r3, [r4, #16]
 484 0208 E268     		ldr	r2, [r4, #12]
 485 020a A068     		ldr	r0, [r4, #8]
 486 020c 9D1A     		subs	r5, r3, r2
 487 020e 291A     		subs	r1, r5, r0
 488 0210 A1F1040E 		sub	lr, r1, #4
 489 0214 0820     		movs	r0, #8
 490 0216 DEF10003 		rsbs	r3, lr, #0
 491 021a 43EB0E01 		adc	r1, r3, lr
 492 021e FFF7FEFF 		bl	_test_assert
 493 0222 0546     		mov	r5, r0
 494 0224 0028     		cmp	r0, #0
 495 0226 40F0A980 		bne	.L27
 496 022a FFF7FEFF 		bl	dbg_check_unlock
 497              	.LBB24:
 498 022e 2B46     		mov	r3, r5
 499              	.LVL67:
 500              	@ 211 "../../../ChibiOS/test/testqueues.c" 1
 501 0230 83F31188 		msr     BASEPRI, r3
 502              	@ 0 "" 2
 503              	.LVL68:
 504              		.thumb
ARM GAS  C:\Users\DNIEL~1\AppData\Local\Temp\ccTDYczq.s 			page 10


 505              	.LBE24:
 506              		.loc 1 212 0 discriminator 2
 507 0234 FFF7FEFF 		bl	test_wait_threads
 508              	.LVL69:
 509              	.LBB25:
 510              		.loc 1 215 0 discriminator 2
 511 0238 2023     		movs	r3, #32
 512              	.LVL70:
 513              	@ 215 "../../../ChibiOS/test/testqueues.c" 1
 514 023a 83F31188 		msr     BASEPRI, r3
 515              	@ 0 "" 2
 516              	.LVL71:
 517              		.thumb
 518              	.LBE25:
 519 023e FFF7FEFF 		bl	dbg_check_lock
 520              	.LVL72:
 521              		.loc 1 216 0 discriminator 2
 522 0242 2046     		mov	r0, r4
 523 0244 FFF7FEFF 		bl	chOQResetI
 524              		.loc 1 217 0 discriminator 2
 525 0248 FFF7FEFF 		bl	dbg_check_unlock
 526              	.LBB26:
 527 024c 2B46     		mov	r3, r5
 528              	.LVL73:
 529              	@ 217 "../../../ChibiOS/test/testqueues.c" 1
 530 024e 83F31188 		msr     BASEPRI, r3
 531              	@ 0 "" 2
 532              	.LVL74:
 533              		.thumb
 534              	.LBE26:
 535              	.LBB27:
 536              		.loc 1 218 0 discriminator 2
 537 0252 2023     		movs	r3, #32
 538              	.LVL75:
 539              	@ 218 "../../../ChibiOS/test/testqueues.c" 1
 540 0254 83F31188 		msr     BASEPRI, r3
 541              	@ 0 "" 2
 542              	.LVL76:
 543              		.thumb
 544              	.LBE27:
 545 0258 FFF7FEFF 		bl	dbg_check_lock
 546              	.LVL77:
 547 025c 2069     		ldr	r0, [r4, #16]
 548 025e E268     		ldr	r2, [r4, #12]
 549 0260 A368     		ldr	r3, [r4, #8]
 550 0262 811A     		subs	r1, r0, r2
 551 0264 CF1A     		subs	r7, r1, r3
 552 0266 0920     		movs	r0, #9
 553 0268 D7F1000C 		rsbs	ip, r7, #0
 554 026c 4CEB0701 		adc	r1, ip, r7
 555 0270 FFF7FEFF 		bl	_test_assert
 556 0274 0746     		mov	r7, r0
 557 0276 0028     		cmp	r0, #0
 558 0278 40F08680 		bne	.L28
 559 027c FFF7FEFF 		bl	dbg_check_unlock
 560              	.LBB28:
 561 0280 3B46     		mov	r3, r7
ARM GAS  C:\Users\DNIEL~1\AppData\Local\Temp\ccTDYczq.s 			page 11


 562              	.LVL78:
 563              	@ 218 "../../../ChibiOS/test/testqueues.c" 1
 564 0282 83F31188 		msr     BASEPRI, r3
 565              	@ 0 "" 2
 566              	.LVL79:
 567              		.thumb
 568              	.LBE28:
 569              		.loc 1 221 0 discriminator 2
 570 0286 0222     		movs	r2, #2
 571 0288 3146     		mov	r1, r6
 572 028a 2046     		mov	r0, r4
 573 028c FFF7FEFF 		bl	chOQWriteTimeout
 574              	.LVL80:
 575              		.loc 1 222 0 discriminator 2
 576 0290 A0F10201 		sub	r1, r0, #2
 577 0294 D1F1000C 		rsbs	ip, r1, #0
 578 0298 4CEB0101 		adc	r1, ip, r1
 579 029c 0A20     		movs	r0, #10
 580              	.LVL81:
 581 029e FFF7FEFF 		bl	_test_assert
 582 02a2 0346     		mov	r3, r0
 583 02a4 0028     		cmp	r0, #0
 584 02a6 44D1     		bne	.L5
 585              		.loc 1 223 0
 586 02a8 3146     		mov	r1, r6
 587 02aa 0222     		movs	r2, #2
 588 02ac 2046     		mov	r0, r4
 589 02ae FFF7FEFF 		bl	chOQWriteTimeout
 590              	.LVL82:
 591              		.loc 1 224 0
 592 02b2 A0F10200 		sub	r0, r0, #2
 593              	.LVL83:
 594 02b6 4342     		rsbs	r3, r0, #0
 595 02b8 43EB0001 		adc	r1, r3, r0
 596 02bc 0B20     		movs	r0, #11
 597              	.LVL84:
 598 02be FFF7FEFF 		bl	_test_assert
 599 02c2 0028     		cmp	r0, #0
 600 02c4 35D1     		bne	.L5
 601              	.LBB29:
 602              		.loc 1 225 0
 603 02c6 2023     		movs	r3, #32
 604              	.LVL85:
 605              	@ 225 "../../../ChibiOS/test/testqueues.c" 1
 606 02c8 83F31188 		msr     BASEPRI, r3
 607              	@ 0 "" 2
 608              	.LVL86:
 609              		.thumb
 610              	.LBE29:
 611 02cc FFF7FEFF 		bl	dbg_check_lock
 612              	.LVL87:
 613 02d0 A268     		ldr	r2, [r4, #8]
 614 02d2 0C20     		movs	r0, #12
 615 02d4 D2F10101 		rsbs	r1, r2, #1
 616 02d8 38BF     		it	cc
 617 02da 0021     		movcc	r1, #0
 618 02dc FFF7FEFF 		bl	_test_assert
ARM GAS  C:\Users\DNIEL~1\AppData\Local\Temp\ccTDYczq.s 			page 12


 619 02e0 0028     		cmp	r0, #0
 620 02e2 57D1     		bne	.L29
 621              		.loc 1 225 0 is_stmt 0 discriminator 2
 622 02e4 FFF7FEFF 		bl	dbg_check_unlock
 623              	.LBB30:
 624 02e8 0023     		movs	r3, #0
 625              	.LVL88:
 626              	@ 225 "../../../ChibiOS/test/testqueues.c" 1
 627 02ea 83F31188 		msr     BASEPRI, r3
 628              	@ 0 "" 2
 629              	.LVL89:
 630              		.thumb
 631              	.LBE30:
 632              		.loc 1 228 0 is_stmt 1 discriminator 2
 633 02ee 0A22     		movs	r2, #10
 634 02f0 1946     		mov	r1, r3
 635 02f2 0748     		ldr	r0, .L30
 636 02f4 FFF7FEFF 		bl	chOQPutTimeout
 637              	.LVL90:
 638 02f8 A0F1FF31 		sub	r1, r0, #-1
 639 02fc D1F1000C 		rsbs	ip, r1, #0
 640 0300 4CEB0101 		adc	r1, ip, r1
 641 0304 0D20     		movs	r0, #13
 642              		.loc 1 229 0 discriminator 2
 643 0306 02B0     		add	sp, sp, #8
 644 0308 BDE8F041 		pop	{r4, r5, r6, r7, r8, lr}
 645              		.loc 1 228 0 discriminator 2
 646 030c FFF7FEBF 		b	_test_assert
 647              	.L31:
 648              		.align	2
 649              	.L30:
 650 0310 00000000 		.word	.LANCHOR0
 651 0314 00000000 		.word	.LC0
 652 0318 00000000 		.word	wa
 653 031c 00000000 		.word	rlist
 654 0320 00000000 		.word	thread2
 655 0324 00000000 		.word	threads
 656              	.L22:
 657              		.loc 1 191 0 discriminator 1
 658 0328 FFF7FEFF 		bl	dbg_check_unlock
 659              	.LBB31:
 660 032c 3346     		mov	r3, r6
 661              	.LVL91:
 662              	@ 191 "../../../ChibiOS/test/testqueues.c" 1
 663 032e 83F31188 		msr     BASEPRI, r3
 664              	@ 0 "" 2
 665              	.LVL92:
 666              		.thumb
 667              	.L5:
 668              	.LBE31:
 669              		.loc 1 229 0
 670 0332 02B0     		add	sp, sp, #8
 671 0334 BDE8F081 		pop	{r4, r5, r6, r7, r8, pc}
 672              	.LVL93:
 673              	.L21:
 674              		.loc 1 186 0 discriminator 5
 675 0338 FFF7FEFF 		bl	dbg_check_unlock
ARM GAS  C:\Users\DNIEL~1\AppData\Local\Temp\ccTDYczq.s 			page 13


 676              	.LBB32:
 677 033c 0023     		movs	r3, #0
 678              	@ 186 "../../../ChibiOS/test/testqueues.c" 1
 679 033e 83F31188 		msr     BASEPRI, r3
 680              	@ 0 "" 2
 681              	.LVL94:
 682              		.thumb
 683              	.LBE32:
 684 0342 F6E7     		b	.L5
 685              	.LVL95:
 686              	.L20:
 687              		.loc 1 181 0 discriminator 1
 688 0344 A968     		ldr	r1, [r5, #8]
 689 0346 0039     		subs	r1, r1, #0
 690 0348 18BF     		it	ne
 691 034a 0121     		movne	r1, #1
 692 034c 67E6     		b	.L6
 693              	.LVL96:
 694              	.L24:
 695              		.loc 1 202 0 discriminator 5
 696 034e FFF7FEFF 		bl	dbg_check_unlock
 697              	.LBB33:
 698 0352 0023     		movs	r3, #0
 699              	@ 202 "../../../ChibiOS/test/testqueues.c" 1
 700 0354 83F31188 		msr     BASEPRI, r3
 701              	@ 0 "" 2
 702              	.LVL97:
 703              		.thumb
 704              	.LBE33:
 705 0358 EBE7     		b	.L5
 706              	.LVL98:
 707              	.L23:
 708              		.loc 1 181 0 discriminator 1
 709 035a A468     		ldr	r4, [r4, #8]
 710 035c 211E     		subs	r1, r4, #0
 711 035e 18BF     		it	ne
 712 0360 0121     		movne	r1, #1
 713 0362 E6E6     		b	.L10
 714              	.LVL99:
 715              	.L25:
 716              		.loc 1 204 0 discriminator 1
 717 0364 FFF7FEFF 		bl	dbg_check_unlock
 718              	.LBB34:
 719 0368 2B46     		mov	r3, r5
 720              	@ 204 "../../../ChibiOS/test/testqueues.c" 1
 721 036a 83F31188 		msr     BASEPRI, r3
 722              	@ 0 "" 2
 723              	.LVL100:
 724              		.thumb
 725              	.LBE34:
 726 036e E0E7     		b	.L5
 727              	.LVL101:
 728              	.L26:
 729              		.loc 1 209 0 discriminator 1
 730 0370 FFF7FEFF 		bl	dbg_check_unlock
 731              	.LBB35:
 732 0374 4346     		mov	r3, r8
ARM GAS  C:\Users\DNIEL~1\AppData\Local\Temp\ccTDYczq.s 			page 14


 733              	@ 209 "../../../ChibiOS/test/testqueues.c" 1
 734 0376 83F31188 		msr     BASEPRI, r3
 735              	@ 0 "" 2
 736              	.LVL102:
 737              		.thumb
 738              	.LBE35:
 739 037a DAE7     		b	.L5
 740              	.LVL103:
 741              	.L27:
 742              		.loc 1 211 0 discriminator 1
 743 037c FFF7FEFF 		bl	dbg_check_unlock
 744              	.LBB36:
 745 0380 3B46     		mov	r3, r7
 746              	@ 211 "../../../ChibiOS/test/testqueues.c" 1
 747 0382 83F31188 		msr     BASEPRI, r3
 748              	@ 0 "" 2
 749              	.LVL104:
 750              		.thumb
 751              	.LBE36:
 752 0386 D4E7     		b	.L5
 753              	.LVL105:
 754              	.L28:
 755              		.loc 1 218 0 discriminator 1
 756 0388 FFF7FEFF 		bl	dbg_check_unlock
 757              	.LBB37:
 758 038c 2B46     		mov	r3, r5
 759              	@ 218 "../../../ChibiOS/test/testqueues.c" 1
 760 038e 83F31188 		msr     BASEPRI, r3
 761              	@ 0 "" 2
 762              	.LVL106:
 763              		.thumb
 764              	.LBE37:
 765 0392 CEE7     		b	.L5
 766              	.LVL107:
 767              	.L29:
 768              		.loc 1 225 0 discriminator 1
 769 0394 FFF7FEFF 		bl	dbg_check_unlock
 770              	.LBB38:
 771 0398 0023     		movs	r3, #0
 772              	@ 225 "../../../ChibiOS/test/testqueues.c" 1
 773 039a 83F31188 		msr     BASEPRI, r3
 774              	@ 0 "" 2
 775              	.LVL108:
 776              		.thumb
 777 039e C8E7     		b	.L5
 778              	.LBE38:
 779              		.cfi_endproc
 780              	.LFE13:
 781              		.size	queues2_execute, .-queues2_execute
 782              		.section	.text.queues2_setup,"ax",%progbits
 783              		.align	2
 784              		.p2align 4,,15
 785              		.thumb
 786              		.thumb_func
 787              		.type	queues2_setup, %function
 788              	queues2_setup:
 789              	.LFB11:
ARM GAS  C:\Users\DNIEL~1\AppData\Local\Temp\ccTDYczq.s 			page 15


 790              		.loc 1 169 0
 791              		.cfi_startproc
 792              		@ args = 0, pretend = 0, frame = 0
 793              		@ frame_needed = 0, uses_anonymous_args = 0
 794 0000 10B5     		push	{r4, lr}
 795              	.LCFI3:
 796              		.cfi_def_cfa_offset 8
 797              		.loc 1 171 0
 798 0002 064B     		ldr	r3, .L33
 799              		.loc 1 169 0
 800 0004 82B0     		sub	sp, sp, #8
 801              	.LCFI4:
 802              		.cfi_def_cfa_offset 16
 803              		.loc 1 171 0
 804 0006 1968     		ldr	r1, [r3, #0]
 805 0008 0024     		movs	r4, #0
 806              		.cfi_offset 14, -4
 807              		.cfi_offset 4, -8
 808 000a 0548     		ldr	r0, .L33+4
 809 000c 0422     		movs	r2, #4
 810 000e 054B     		ldr	r3, .L33+8
 811 0010 0094     		str	r4, [sp, #0]
 812 0012 FFF7FEFF 		bl	chOQInit
 813              		.loc 1 172 0
 814 0016 02B0     		add	sp, sp, #8
 815 0018 10BD     		pop	{r4, pc}
 816              	.L34:
 817 001a 00BF     		.align	2
 818              	.L33:
 819 001c 00000000 		.word	wa
 820 0020 00000000 		.word	.LANCHOR0
 821 0024 00000000 		.word	notify
 822              		.cfi_endproc
 823              	.LFE11:
 824              		.size	queues2_setup, .-queues2_setup
 825 0028 AFF30080 		.section	.text.thread1,"ax",%progbits
 825      AFF30080 
 826              		.align	2
 827              		.p2align 4,,15
 828              		.thumb
 829              		.thumb_func
 830              		.type	thread1, %function
 831              	thread1:
 832              	.LFB9:
 833              		.loc 1 87 0
 834              		.cfi_startproc
 835              		@ args = 0, pretend = 0, frame = 0
 836              		@ frame_needed = 0, uses_anonymous_args = 0
 837              	.LVL109:
 838 0000 08B5     		push	{r3, lr}
 839              	.LCFI5:
 840              		.cfi_def_cfa_offset 8
 841              		.loc 1 90 0
 842 0002 C821     		movs	r1, #200
 843 0004 0248     		ldr	r0, .L36
 844              	.LVL110:
 845              		.cfi_offset 14, -4
ARM GAS  C:\Users\DNIEL~1\AppData\Local\Temp\ccTDYczq.s 			page 16


 846              		.cfi_offset 3, -8
 847 0006 FFF7FEFF 		bl	chIQGetTimeout
 848              		.loc 1 92 0
 849 000a 0020     		movs	r0, #0
 850 000c 08BD     		pop	{r3, pc}
 851              	.L37:
 852 000e 00BF     		.align	2
 853              	.L36:
 854 0010 00000000 		.word	.LANCHOR1
 855              		.cfi_endproc
 856              	.LFE9:
 857              		.size	thread1, .-thread1
 858 0014 AFF30080 		.section	.text.queues1_execute,"ax",%progbits
 858      AFF30080 
 858      AFF30080 
 859              		.align	2
 860              		.p2align 4,,15
 861              		.thumb
 862              		.thumb_func
 863              		.type	queues1_execute, %function
 864              	queues1_execute:
 865              	.LFB10:
 866              		.loc 1 94 0
 867              		.cfi_startproc
 868              		@ args = 0, pretend = 0, frame = 0
 869              		@ frame_needed = 0, uses_anonymous_args = 0
 870 0000 2DE9F043 		push	{r4, r5, r6, r7, r8, r9, lr}
 871              	.LCFI6:
 872              		.cfi_def_cfa_offset 28
 873              	.LBB39:
 874              		.loc 1 99 0
 875 0004 2023     		movs	r3, #32
 876              	.LVL111:
 877              	.LBE39:
 878              		.loc 1 94 0
 879 0006 83B0     		sub	sp, sp, #12
 880              	.LCFI7:
 881              		.cfi_def_cfa_offset 40
 882              	.LBB40:
 883              		.loc 1 99 0
 884              	@ 99 "../../../ChibiOS/test/testqueues.c" 1
 885 0008 83F31188 		msr     BASEPRI, r3
 886              	@ 0 "" 2
 887              	.LVL112:
 888              		.thumb
 889              	.LBE40:
 890 000c C64C     		ldr	r4, .L59
 891              		.cfi_offset 14, -4
 892              		.cfi_offset 9, -8
 893              		.cfi_offset 8, -12
 894              		.cfi_offset 7, -16
 895              		.cfi_offset 6, -20
 896              		.cfi_offset 5, -24
 897              		.cfi_offset 4, -28
 898 000e FFF7FEFF 		bl	dbg_check_lock
 899              	.LVL113:
 900 0012 A168     		ldr	r1, [r4, #8]
ARM GAS  C:\Users\DNIEL~1\AppData\Local\Temp\ccTDYczq.s 			page 17


 901 0014 0120     		movs	r0, #1
 902 0016 D1F10101 		rsbs	r1, r1, #1
 903 001a 38BF     		it	cc
 904 001c 0021     		movcc	r1, #0
 905 001e FFF7FEFF 		bl	_test_assert
 906 0022 0546     		mov	r5, r0
 907 0024 0028     		cmp	r0, #0
 908 0026 40F09881 		bne	.L50
 909              		.loc 1 99 0 is_stmt 0 discriminator 2
 910 002a FFF7FEFF 		bl	dbg_check_unlock
 911              	.LBB41:
 912 002e 2B46     		mov	r3, r5
 913              	.LVL114:
 914              	@ 99 "../../../ChibiOS/test/testqueues.c" 1
 915 0030 83F31188 		msr     BASEPRI, r3
 916              	@ 0 "" 2
 917              	.LVL115:
 918              		.thumb
 919              	.LBE41:
 920              	.LBB42:
 921              		.loc 1 102 0 is_stmt 1 discriminator 2
 922 0034 2023     		movs	r3, #32
 923              	.LVL116:
 924              	@ 102 "../../../ChibiOS/test/testqueues.c" 1
 925 0036 83F31188 		msr     BASEPRI, r3
 926              	@ 0 "" 2
 927              	.LVL117:
 928              		.thumb
 929              	.LBE42:
 930 003a FFF7FEFF 		bl	dbg_check_lock
 931              	.LVL118:
 932              		.loc 1 104 0 discriminator 2
 933 003e 4121     		movs	r1, #65
 934 0040 2046     		mov	r0, r4
 935 0042 FFF7FEFF 		bl	chIQPutI
 936              	.LVL119:
 937 0046 4221     		movs	r1, #66
 938 0048 2046     		mov	r0, r4
 939 004a FFF7FEFF 		bl	chIQPutI
 940              	.LVL120:
 941 004e 4321     		movs	r1, #67
 942 0050 2046     		mov	r0, r4
 943 0052 FFF7FEFF 		bl	chIQPutI
 944              	.LVL121:
 945 0056 4421     		movs	r1, #68
 946 0058 2046     		mov	r0, r4
 947 005a FFF7FEFF 		bl	chIQPutI
 948              	.LVL122:
 949              		.loc 1 105 0 discriminator 2
 950 005e FFF7FEFF 		bl	dbg_check_unlock
 951              	.LBB43:
 952 0062 2B46     		mov	r3, r5
 953              	.LVL123:
 954              	@ 105 "../../../ChibiOS/test/testqueues.c" 1
 955 0064 83F31188 		msr     BASEPRI, r3
 956              	@ 0 "" 2
 957              	.LVL124:
ARM GAS  C:\Users\DNIEL~1\AppData\Local\Temp\ccTDYczq.s 			page 18


 958              		.thumb
 959              	.LBE43:
 960              	.LBB44:
 961              		.loc 1 106 0 discriminator 2
 962 0068 2023     		movs	r3, #32
 963              	.LVL125:
 964              	@ 106 "../../../ChibiOS/test/testqueues.c" 1
 965 006a 83F31188 		msr     BASEPRI, r3
 966              	@ 0 "" 2
 967              	.LVL126:
 968              		.thumb
 969              	.LBE44:
 970 006e FFF7FEFF 		bl	dbg_check_lock
 971              	.LVL127:
 972 0072 6269     		ldr	r2, [r4, #20]
 973 0074 A369     		ldr	r3, [r4, #24]
 974 0076 9A42     		cmp	r2, r3
 975 0078 00F08181 		beq	.L51
 976              		.loc 1 106 0 is_stmt 0
 977 007c 2946     		mov	r1, r5
 978              	.L41:
 979              		.loc 1 106 0 discriminator 4
 980 007e 0220     		movs	r0, #2
 981 0080 FFF7FEFF 		bl	_test_assert
 982 0084 0646     		mov	r6, r0
 983 0086 0028     		cmp	r0, #0
 984 0088 40F05F81 		bne	.L52
 985              		.loc 1 106 0 discriminator 6
 986 008c FFF7FEFF 		bl	dbg_check_unlock
 987              	.LBB45:
 988 0090 3346     		mov	r3, r6
 989              	.LVL128:
 990              	@ 106 "../../../ChibiOS/test/testqueues.c" 1
 991 0092 83F31188 		msr     BASEPRI, r3
 992              	@ 0 "" 2
 993              	.LVL129:
 994              		.thumb
 995              	.LBE45:
 996              	.LBB46:
 997              		.loc 1 107 0 is_stmt 1 discriminator 6
 998 0096 2023     		movs	r3, #32
 999              	.LVL130:
 1000              	@ 107 "../../../ChibiOS/test/testqueues.c" 1
 1001 0098 83F31188 		msr     BASEPRI, r3
 1002              	@ 0 "" 2
 1003              	.LVL131:
 1004              		.thumb
 1005              	.LBE46:
 1006 009c A24D     		ldr	r5, .L59
 1007 009e FFF7FEFF 		bl	dbg_check_lock
 1008              	.LVL132:
 1009 00a2 3146     		mov	r1, r6
 1010 00a4 2846     		mov	r0, r5
 1011 00a6 FFF7FEFF 		bl	chIQPutI
 1012 00aa 10F1040F 		cmn	r0, #4
 1013 00ae 14BF     		ite	ne
 1014 00b0 0021     		movne	r1, #0
ARM GAS  C:\Users\DNIEL~1\AppData\Local\Temp\ccTDYczq.s 			page 19


 1015 00b2 0121     		moveq	r1, #1
 1016 00b4 0320     		movs	r0, #3
 1017 00b6 FFF7FEFF 		bl	_test_assert
 1018 00ba 0746     		mov	r7, r0
 1019 00bc 0028     		cmp	r0, #0
 1020 00be 40F05881 		bne	.L53
 1021              		.loc 1 107 0 is_stmt 0 discriminator 2
 1022 00c2 FFF7FEFF 		bl	dbg_check_unlock
 1023              	.LBB47:
 1024 00c6 3B46     		mov	r3, r7
 1025              	.LVL133:
 1026              	@ 107 "../../../ChibiOS/test/testqueues.c" 1
 1027 00c8 83F31188 		msr     BASEPRI, r3
 1028              	@ 0 "" 2
 1029              	.LVL134:
 1030              		.thumb
 1031              	.LBE47:
 1032              		.loc 1 111 0 is_stmt 1 discriminator 2
 1033 00cc 4FF0FF31 		mov	r1, #-1
 1034 00d0 2846     		mov	r0, r5
 1035 00d2 FFF7FEFF 		bl	chIQGetTimeout
 1036              	.LVL135:
 1037 00d6 C0B2     		uxtb	r0, r0
 1038 00d8 FFF7FEFF 		bl	test_emit_token
 1039              	.LVL136:
 1040 00dc 4FF0FF31 		mov	r1, #-1
 1041 00e0 2846     		mov	r0, r5
 1042 00e2 FFF7FEFF 		bl	chIQGetTimeout
 1043 00e6 C0B2     		uxtb	r0, r0
 1044 00e8 FFF7FEFF 		bl	test_emit_token
 1045              	.LVL137:
 1046 00ec 4FF0FF31 		mov	r1, #-1
 1047 00f0 2846     		mov	r0, r5
 1048 00f2 FFF7FEFF 		bl	chIQGetTimeout
 1049 00f6 C0B2     		uxtb	r0, r0
 1050 00f8 FFF7FEFF 		bl	test_emit_token
 1051              	.LVL138:
 1052 00fc 4FF0FF31 		mov	r1, #-1
 1053 0100 2846     		mov	r0, r5
 1054 0102 FFF7FEFF 		bl	chIQGetTimeout
 1055 0106 C0B2     		uxtb	r0, r0
 1056 0108 FFF7FEFF 		bl	test_emit_token
 1057              	.LVL139:
 1058              	.LBB48:
 1059              		.loc 1 112 0 discriminator 2
 1060 010c 2023     		movs	r3, #32
 1061              	.LVL140:
 1062              	@ 112 "../../../ChibiOS/test/testqueues.c" 1
 1063 010e 83F31188 		msr     BASEPRI, r3
 1064              	@ 0 "" 2
 1065              	.LVL141:
 1066              		.thumb
 1067              	.LBE48:
 1068 0112 FFF7FEFF 		bl	dbg_check_lock
 1069              	.LVL142:
 1070 0116 AE68     		ldr	r6, [r5, #8]
 1071 0118 0420     		movs	r0, #4
ARM GAS  C:\Users\DNIEL~1\AppData\Local\Temp\ccTDYczq.s 			page 20


 1072 011a D6F10101 		rsbs	r1, r6, #1
 1073 011e 38BF     		it	cc
 1074 0120 0021     		movcc	r1, #0
 1075 0122 FFF7FEFF 		bl	_test_assert
 1076 0126 0646     		mov	r6, r0
 1077 0128 0028     		cmp	r0, #0
 1078 012a 40F01C81 		bne	.L54
 1079 012e FFF7FEFF 		bl	dbg_check_unlock
 1080              	.LBB49:
 1081 0132 3346     		mov	r3, r6
 1082              	.LVL143:
 1083              	@ 112 "../../../ChibiOS/test/testqueues.c" 1
 1084 0134 83F31188 		msr     BASEPRI, r3
 1085              	@ 0 "" 2
 1086              	.LVL144:
 1087              		.thumb
 1088              	.LBE49:
 1089              		.loc 1 113 0 discriminator 2
 1090 0138 0520     		movs	r0, #5
 1091 013a 7C49     		ldr	r1, .L59+4
 1092 013c FFF7FEFF 		bl	_test_assert_sequence
 1093              	.LVL145:
 1094 0140 0646     		mov	r6, r0
 1095 0142 0028     		cmp	r0, #0
 1096 0144 40F00681 		bne	.L38
 1097              	.LBB50:
 1098              		.loc 1 116 0
 1099 0148 2023     		movs	r3, #32
 1100              	.LVL146:
 1101              	@ 116 "../../../ChibiOS/test/testqueues.c" 1
 1102 014a 83F31188 		msr     BASEPRI, r3
 1103              	@ 0 "" 2
 1104              	.LVL147:
 1105              		.thumb
 1106              	.LBE50:
 1107 014e FFF7FEFF 		bl	dbg_check_lock
 1108              	.LVL148:
 1109              		.loc 1 118 0
 1110 0152 4121     		movs	r1, #65
 1111 0154 2846     		mov	r0, r5
 1112 0156 FFF7FEFF 		bl	chIQPutI
 1113              	.LVL149:
 1114 015a 4221     		movs	r1, #66
 1115 015c 2846     		mov	r0, r5
 1116 015e FFF7FEFF 		bl	chIQPutI
 1117              	.LVL150:
 1118 0162 4321     		movs	r1, #67
 1119 0164 2846     		mov	r0, r5
 1120 0166 FFF7FEFF 		bl	chIQPutI
 1121              	.LVL151:
 1122 016a 4421     		movs	r1, #68
 1123 016c 2846     		mov	r0, r5
 1124 016e FFF7FEFF 		bl	chIQPutI
 1125              	.LVL152:
 1126              		.loc 1 119 0
 1127 0172 FFF7FEFF 		bl	dbg_check_unlock
 1128              	.LBB51:
ARM GAS  C:\Users\DNIEL~1\AppData\Local\Temp\ccTDYczq.s 			page 21


 1129 0176 3346     		mov	r3, r6
 1130              	.LVL153:
 1131              	@ 119 "../../../ChibiOS/test/testqueues.c" 1
 1132 0178 83F31188 		msr     BASEPRI, r3
 1133              	@ 0 "" 2
 1134              	.LVL154:
 1135              		.thumb
 1136              	.LBE51:
 1137              		.loc 1 122 0
 1138 017c 6C4F     		ldr	r7, .L59+8
 1139 017e 0822     		movs	r2, #8
 1140 0180 7E68     		ldr	r6, [r7, #4]
 1141 0182 2846     		mov	r0, r5
 1142 0184 3146     		mov	r1, r6
 1143 0186 FFF7FEFF 		bl	chIQReadTimeout
 1144              	.LVL155:
 1145              		.loc 1 123 0
 1146 018a A0F1040C 		sub	ip, r0, #4
 1147 018e DCF10008 		rsbs	r8, ip, #0
 1148 0192 48EB0C01 		adc	r1, r8, ip
 1149 0196 0620     		movs	r0, #6
 1150              	.LVL156:
 1151 0198 FFF7FEFF 		bl	_test_assert
 1152              	.LVL157:
 1153 019c 8046     		mov	r8, r0
 1154 019e 0028     		cmp	r0, #0
 1155 01a0 40F0D880 		bne	.L38
 1156              	.LBB52:
 1157              		.loc 1 124 0
 1158 01a4 2023     		movs	r3, #32
 1159              	.LVL158:
 1160              	@ 124 "../../../ChibiOS/test/testqueues.c" 1
 1161 01a6 83F31188 		msr     BASEPRI, r3
 1162              	@ 0 "" 2
 1163              	.LVL159:
 1164              		.thumb
 1165              	.LBE52:
 1166 01aa FFF7FEFF 		bl	dbg_check_lock
 1167              	.LVL160:
 1168 01ae A968     		ldr	r1, [r5, #8]
 1169 01b0 0720     		movs	r0, #7
 1170 01b2 D1F10101 		rsbs	r1, r1, #1
 1171 01b6 38BF     		it	cc
 1172 01b8 0021     		movcc	r1, #0
 1173 01ba FFF7FEFF 		bl	_test_assert
 1174 01be 8146     		mov	r9, r0
 1175 01c0 0028     		cmp	r0, #0
 1176 01c2 40F0E180 		bne	.L55
 1177              		.loc 1 124 0 is_stmt 0 discriminator 2
 1178 01c6 FFF7FEFF 		bl	dbg_check_unlock
 1179              	.LBB53:
 1180 01ca 4B46     		mov	r3, r9
 1181              	.LVL161:
 1182              	@ 124 "../../../ChibiOS/test/testqueues.c" 1
 1183 01cc 83F31188 		msr     BASEPRI, r3
 1184              	@ 0 "" 2
 1185              	.LVL162:
ARM GAS  C:\Users\DNIEL~1\AppData\Local\Temp\ccTDYczq.s 			page 22


 1186              		.thumb
 1187              	.LBE53:
 1188              	.LBB54:
 1189              		.loc 1 127 0 is_stmt 1 discriminator 2
 1190 01d0 2023     		movs	r3, #32
 1191              	.LVL163:
 1192              	@ 127 "../../../ChibiOS/test/testqueues.c" 1
 1193 01d2 83F31188 		msr     BASEPRI, r3
 1194              	@ 0 "" 2
 1195              	.LVL164:
 1196              		.thumb
 1197              	.LBE54:
 1198 01d6 FFF7FEFF 		bl	dbg_check_lock
 1199              	.LVL165:
 1200              		.loc 1 129 0 discriminator 2
 1201 01da 4121     		movs	r1, #65
 1202 01dc 2846     		mov	r0, r5
 1203 01de FFF7FEFF 		bl	chIQPutI
 1204              	.LVL166:
 1205 01e2 4221     		movs	r1, #66
 1206 01e4 2846     		mov	r0, r5
 1207 01e6 FFF7FEFF 		bl	chIQPutI
 1208              	.LVL167:
 1209 01ea 4321     		movs	r1, #67
 1210 01ec 2846     		mov	r0, r5
 1211 01ee FFF7FEFF 		bl	chIQPutI
 1212              	.LVL168:
 1213 01f2 4421     		movs	r1, #68
 1214 01f4 2846     		mov	r0, r5
 1215 01f6 FFF7FEFF 		bl	chIQPutI
 1216              	.LVL169:
 1217              		.loc 1 130 0 discriminator 2
 1218 01fa FFF7FEFF 		bl	dbg_check_unlock
 1219              	.LBB55:
 1220 01fe 4B46     		mov	r3, r9
 1221              	.LVL170:
 1222              	@ 130 "../../../ChibiOS/test/testqueues.c" 1
 1223 0200 83F31188 		msr     BASEPRI, r3
 1224              	@ 0 "" 2
 1225              	.LVL171:
 1226              		.thumb
 1227              	.LBE55:
 1228              		.loc 1 133 0 discriminator 2
 1229 0204 0222     		movs	r2, #2
 1230 0206 3146     		mov	r1, r6
 1231 0208 2846     		mov	r0, r5
 1232 020a FFF7FEFF 		bl	chIQReadTimeout
 1233              	.LVL172:
 1234              		.loc 1 134 0 discriminator 2
 1235 020e A0F1020E 		sub	lr, r0, #2
 1236 0212 DEF10002 		rsbs	r2, lr, #0
 1237 0216 42EB0E01 		adc	r1, r2, lr
 1238 021a 0820     		movs	r0, #8
 1239              	.LVL173:
 1240 021c FFF7FEFF 		bl	_test_assert
 1241              	.LVL174:
 1242 0220 0028     		cmp	r0, #0
ARM GAS  C:\Users\DNIEL~1\AppData\Local\Temp\ccTDYczq.s 			page 23


 1243 0222 40F09780 		bne	.L38
 1244              		.loc 1 135 0
 1245 0226 0222     		movs	r2, #2
 1246 0228 0346     		mov	r3, r0
 1247 022a 3146     		mov	r1, r6
 1248 022c 2846     		mov	r0, r5
 1249 022e FFF7FEFF 		bl	chIQReadTimeout
 1250              	.LVL175:
 1251              		.loc 1 136 0
 1252 0232 A0F10200 		sub	r0, r0, #2
 1253              	.LVL176:
 1254 0236 4342     		rsbs	r3, r0, #0
 1255 0238 43EB0001 		adc	r1, r3, r0
 1256 023c 0920     		movs	r0, #9
 1257              	.LVL177:
 1258 023e FFF7FEFF 		bl	_test_assert
 1259 0242 8046     		mov	r8, r0
 1260 0244 0028     		cmp	r0, #0
 1261 0246 40F08580 		bne	.L38
 1262              	.LBB56:
 1263              		.loc 1 137 0
 1264 024a 2023     		movs	r3, #32
 1265              	.LVL178:
 1266              	@ 137 "../../../ChibiOS/test/testqueues.c" 1
 1267 024c 83F31188 		msr     BASEPRI, r3
 1268              	@ 0 "" 2
 1269              	.LVL179:
 1270              		.thumb
 1271              	.LBE56:
 1272 0250 FFF7FEFF 		bl	dbg_check_lock
 1273              	.LVL180:
 1274 0254 AE68     		ldr	r6, [r5, #8]
 1275 0256 0A20     		movs	r0, #10
 1276 0258 D6F10101 		rsbs	r1, r6, #1
 1277 025c 38BF     		it	cc
 1278 025e 0021     		movcc	r1, #0
 1279 0260 FFF7FEFF 		bl	_test_assert
 1280 0264 0646     		mov	r6, r0
 1281 0266 0028     		cmp	r0, #0
 1282 0268 40F09A80 		bne	.L56
 1283              		.loc 1 137 0 is_stmt 0 discriminator 2
 1284 026c FFF7FEFF 		bl	dbg_check_unlock
 1285              	.LBB57:
 1286 0270 3346     		mov	r3, r6
 1287              	.LVL181:
 1288              	@ 137 "../../../ChibiOS/test/testqueues.c" 1
 1289 0272 83F31188 		msr     BASEPRI, r3
 1290              	@ 0 "" 2
 1291              	.LVL182:
 1292              		.thumb
 1293              	.LBE57:
 1294              	.LBB58:
 1295              		.loc 1 140 0 is_stmt 1 discriminator 2
 1296 0276 2023     		movs	r3, #32
 1297              	.LVL183:
 1298              	@ 140 "../../../ChibiOS/test/testqueues.c" 1
 1299 0278 83F31188 		msr     BASEPRI, r3
ARM GAS  C:\Users\DNIEL~1\AppData\Local\Temp\ccTDYczq.s 			page 24


 1300              	@ 0 "" 2
 1301              	.LVL184:
 1302              		.thumb
 1303              	.LBE58:
 1304 027c FFF7FEFF 		bl	dbg_check_lock
 1305              	.LVL185:
 1306              		.loc 1 141 0 discriminator 2
 1307 0280 3146     		mov	r1, r6
 1308 0282 2846     		mov	r0, r5
 1309 0284 FFF7FEFF 		bl	chIQPutI
 1310              		.loc 1 142 0 discriminator 2
 1311 0288 2846     		mov	r0, r5
 1312 028a FFF7FEFF 		bl	chIQResetI
 1313              		.loc 1 143 0 discriminator 2
 1314 028e FFF7FEFF 		bl	dbg_check_unlock
 1315              	.LBB59:
 1316 0292 3346     		mov	r3, r6
 1317              	.LVL186:
 1318              	@ 143 "../../../ChibiOS/test/testqueues.c" 1
 1319 0294 83F31188 		msr     BASEPRI, r3
 1320              	@ 0 "" 2
 1321              	.LVL187:
 1322              		.thumb
 1323              	.LBE59:
 1324              	.LBB60:
 1325              		.loc 1 144 0 discriminator 2
 1326 0298 2023     		movs	r3, #32
 1327              	.LVL188:
 1328              	@ 144 "../../../ChibiOS/test/testqueues.c" 1
 1329 029a 83F31188 		msr     BASEPRI, r3
 1330              	@ 0 "" 2
 1331              	.LVL189:
 1332              		.thumb
 1333              	.LBE60:
 1334 029e FFF7FEFF 		bl	dbg_check_lock
 1335              	.LVL190:
 1336 02a2 A968     		ldr	r1, [r5, #8]
 1337 02a4 0B20     		movs	r0, #11
 1338 02a6 D1F10101 		rsbs	r1, r1, #1
 1339 02aa 38BF     		it	cc
 1340 02ac 0021     		movcc	r1, #0
 1341 02ae FFF7FEFF 		bl	_test_assert
 1342 02b2 0028     		cmp	r0, #0
 1343 02b4 6ED1     		bne	.L57
 1344 02b6 FFF7FEFF 		bl	dbg_check_unlock
 1345              	.LBB61:
 1346 02ba 0023     		movs	r3, #0
 1347              	.LVL191:
 1348              	@ 144 "../../../ChibiOS/test/testqueues.c" 1
 1349 02bc 83F31188 		msr     BASEPRI, r3
 1350              	@ 0 "" 2
 1351              	.LVL192:
 1352              		.thumb
 1353              	.LBE61:
 1354              		.loc 1 145 0 discriminator 2
 1355 02c0 1C48     		ldr	r0, .L59+12
 1356 02c2 1D46     		mov	r5, r3
ARM GAS  C:\Users\DNIEL~1\AppData\Local\Temp\ccTDYczq.s 			page 25


 1357 02c4 8269     		ldr	r2, [r0, #24]
 1358 02c6 4FF49871 		mov	r1, #304
 1359 02ca 9368     		ldr	r3, [r2, #8]
 1360              	.LVL193:
 1361 02cc 3868     		ldr	r0, [r7, #0]
 1362 02ce 5A1C     		adds	r2, r3, #1
 1363 02d0 194B     		ldr	r3, .L59+16
 1364 02d2 0095     		str	r5, [sp, #0]
 1365 02d4 FFF7FEFF 		bl	chThdCreateStatic
 1366 02d8 1849     		ldr	r1, .L59+20
 1367              	.LBB62:
 1368              		.loc 1 146 0 discriminator 2
 1369 02da 2023     		movs	r3, #32
 1370              	.LVL194:
 1371              	.LBE62:
 1372              		.loc 1 145 0 discriminator 2
 1373 02dc 0860     		str	r0, [r1, #0]
 1374              	.LBB63:
 1375              		.loc 1 146 0 discriminator 2
 1376              	@ 146 "../../../ChibiOS/test/testqueues.c" 1
 1377 02de 83F31188 		msr     BASEPRI, r3
 1378              	@ 0 "" 2
 1379              	.LVL195:
 1380              		.thumb
 1381              	.LBE63:
 1382 02e2 FFF7FEFF 		bl	dbg_check_lock
 1383              	.LVL196:
 1384 02e6 A268     		ldr	r2, [r4, #8]
 1385 02e8 0C20     		movs	r0, #12
 1386 02ea C5EB020C 		rsb	ip, r5, r2
 1387 02ee DCF10004 		rsbs	r4, ip, #0
 1388 02f2 44EB0C01 		adc	r1, r4, ip
 1389 02f6 FFF7FEFF 		bl	_test_assert
 1390 02fa 0446     		mov	r4, r0
 1391 02fc 0028     		cmp	r0, #0
 1392 02fe 55D1     		bne	.L58
 1393 0300 FFF7FEFF 		bl	dbg_check_unlock
 1394              	.LBB64:
 1395 0304 2346     		mov	r3, r4
 1396              	.LVL197:
 1397              	@ 146 "../../../ChibiOS/test/testqueues.c" 1
 1398 0306 83F31188 		msr     BASEPRI, r3
 1399              	@ 0 "" 2
 1400              	.LVL198:
 1401              		.thumb
 1402              	.LBE64:
 1403              		.loc 1 147 0 discriminator 2
 1404 030a FFF7FEFF 		bl	test_wait_threads
 1405              	.LVL199:
 1406              		.loc 1 150 0 discriminator 2
 1407 030e 0A21     		movs	r1, #10
 1408 0310 0548     		ldr	r0, .L59
 1409 0312 FFF7FEFF 		bl	chIQGetTimeout
 1410 0316 A0F1FF31 		sub	r1, r0, #-1
 1411 031a D1F1000C 		rsbs	ip, r1, #0
 1412 031e 4CEB0101 		adc	r1, ip, r1
 1413 0322 0D20     		movs	r0, #13
ARM GAS  C:\Users\DNIEL~1\AppData\Local\Temp\ccTDYczq.s 			page 26


 1414 0324 0CE0     		b	.L60
 1415              	.L61:
 1416 0326 00BF     		.align	2
 1417              	.L59:
 1418 0328 00000000 		.word	.LANCHOR1
 1419 032c 00000000 		.word	.LC0
 1420 0330 00000000 		.word	wa
 1421 0334 00000000 		.word	rlist
 1422 0338 00000000 		.word	thread1
 1423 033c 00000000 		.word	threads
 1424              	.L60:
 1425              		.loc 1 151 0 discriminator 2
 1426 0340 03B0     		add	sp, sp, #12
 1427 0342 BDE8F043 		pop	{r4, r5, r6, r7, r8, r9, lr}
 1428              		.loc 1 150 0 discriminator 2
 1429 0346 FFF7FEBF 		b	_test_assert
 1430              	.L52:
 1431              		.loc 1 106 0 discriminator 5
 1432 034a FFF7FEFF 		bl	dbg_check_unlock
 1433              	.LBB65:
 1434 034e 0023     		movs	r3, #0
 1435              	.LVL200:
 1436              	@ 106 "../../../ChibiOS/test/testqueues.c" 1
 1437 0350 83F31188 		msr     BASEPRI, r3
 1438              	@ 0 "" 2
 1439              	.LVL201:
 1440              		.thumb
 1441              	.L38:
 1442              	.LBE65:
 1443              		.loc 1 151 0
 1444 0354 03B0     		add	sp, sp, #12
 1445 0356 BDE8F083 		pop	{r4, r5, r6, r7, r8, r9, pc}
 1446              	.LVL202:
 1447              	.L50:
 1448              		.loc 1 99 0 discriminator 1
 1449 035a FFF7FEFF 		bl	dbg_check_unlock
 1450              	.LBB66:
 1451 035e 0023     		movs	r3, #0
 1452              	@ 99 "../../../ChibiOS/test/testqueues.c" 1
 1453 0360 83F31188 		msr     BASEPRI, r3
 1454              	@ 0 "" 2
 1455              	.LVL203:
 1456              		.thumb
 1457              	.LBE66:
 1458 0364 F6E7     		b	.L38
 1459              	.LVL204:
 1460              	.L54:
 1461              		.loc 1 112 0 discriminator 1
 1462 0366 FFF7FEFF 		bl	dbg_check_unlock
 1463              	.LBB67:
 1464 036a 3B46     		mov	r3, r7
 1465              	@ 112 "../../../ChibiOS/test/testqueues.c" 1
 1466 036c 83F31188 		msr     BASEPRI, r3
 1467              	@ 0 "" 2
 1468              	.LVL205:
 1469              		.thumb
 1470              	.LBE67:
ARM GAS  C:\Users\DNIEL~1\AppData\Local\Temp\ccTDYczq.s 			page 27


 1471 0370 F0E7     		b	.L38
 1472              	.LVL206:
 1473              	.L53:
 1474              		.loc 1 107 0 discriminator 1
 1475 0372 FFF7FEFF 		bl	dbg_check_unlock
 1476              	.LBB68:
 1477 0376 3346     		mov	r3, r6
 1478              	@ 107 "../../../ChibiOS/test/testqueues.c" 1
 1479 0378 83F31188 		msr     BASEPRI, r3
 1480              	@ 0 "" 2
 1481              	.LVL207:
 1482              		.thumb
 1483              	.LBE68:
 1484 037c EAE7     		b	.L38
 1485              	.LVL208:
 1486              	.L51:
 1487              		.loc 1 94 0 discriminator 1
 1488 037e A068     		ldr	r0, [r4, #8]
 1489 0380 011E     		subs	r1, r0, #0
 1490 0382 18BF     		it	ne
 1491 0384 0121     		movne	r1, #1
 1492 0386 7AE6     		b	.L41
 1493              	.L55:
 1494              		.loc 1 124 0 discriminator 1
 1495 0388 FFF7FEFF 		bl	dbg_check_unlock
 1496              	.LBB69:
 1497 038c 4346     		mov	r3, r8
 1498              	@ 124 "../../../ChibiOS/test/testqueues.c" 1
 1499 038e 83F31188 		msr     BASEPRI, r3
 1500              	@ 0 "" 2
 1501              	.LVL209:
 1502              		.thumb
 1503              	.LBE69:
 1504 0392 DFE7     		b	.L38
 1505              	.LVL210:
 1506              	.L57:
 1507              		.loc 1 144 0 discriminator 1
 1508 0394 FFF7FEFF 		bl	dbg_check_unlock
 1509              	.LBB70:
 1510 0398 0023     		movs	r3, #0
 1511              	@ 144 "../../../ChibiOS/test/testqueues.c" 1
 1512 039a 83F31188 		msr     BASEPRI, r3
 1513              	@ 0 "" 2
 1514              	.LVL211:
 1515              		.thumb
 1516              	.LBE70:
 1517 039e D9E7     		b	.L38
 1518              	.LVL212:
 1519              	.L56:
 1520              		.loc 1 137 0 discriminator 1
 1521 03a0 FFF7FEFF 		bl	dbg_check_unlock
 1522              	.LBB71:
 1523 03a4 4346     		mov	r3, r8
 1524              	@ 137 "../../../ChibiOS/test/testqueues.c" 1
 1525 03a6 83F31188 		msr     BASEPRI, r3
 1526              	@ 0 "" 2
 1527              	.LVL213:
ARM GAS  C:\Users\DNIEL~1\AppData\Local\Temp\ccTDYczq.s 			page 28


 1528              		.thumb
 1529              	.LBE71:
 1530 03aa D3E7     		b	.L38
 1531              	.LVL214:
 1532              	.L58:
 1533              		.loc 1 146 0 discriminator 1
 1534 03ac FFF7FEFF 		bl	dbg_check_unlock
 1535              	.LBB72:
 1536 03b0 2B46     		mov	r3, r5
 1537              	@ 146 "../../../ChibiOS/test/testqueues.c" 1
 1538 03b2 83F31188 		msr     BASEPRI, r3
 1539              	@ 0 "" 2
 1540              	.LVL215:
 1541              		.thumb
 1542 03b6 CDE7     		b	.L38
 1543              	.LBE72:
 1544              		.cfi_endproc
 1545              	.LFE10:
 1546              		.size	queues1_execute, .-queues1_execute
 1547 03b8 AFF30080 		.section	.text.queues1_setup,"ax",%progbits
 1547      AFF30080 
 1548              		.align	2
 1549              		.p2align 4,,15
 1550              		.thumb
 1551              		.thumb_func
 1552              		.type	queues1_setup, %function
 1553              	queues1_setup:
 1554              	.LFB8:
 1555              		.loc 1 82 0
 1556              		.cfi_startproc
 1557              		@ args = 0, pretend = 0, frame = 0
 1558              		@ frame_needed = 0, uses_anonymous_args = 0
 1559 0000 10B5     		push	{r4, lr}
 1560              	.LCFI8:
 1561              		.cfi_def_cfa_offset 8
 1562              		.loc 1 84 0
 1563 0002 064B     		ldr	r3, .L63
 1564              		.loc 1 82 0
 1565 0004 82B0     		sub	sp, sp, #8
 1566              	.LCFI9:
 1567              		.cfi_def_cfa_offset 16
 1568              		.loc 1 84 0
 1569 0006 1968     		ldr	r1, [r3, #0]
 1570 0008 0024     		movs	r4, #0
 1571              		.cfi_offset 14, -4
 1572              		.cfi_offset 4, -8
 1573 000a 0548     		ldr	r0, .L63+4
 1574 000c 0422     		movs	r2, #4
 1575 000e 054B     		ldr	r3, .L63+8
 1576 0010 0094     		str	r4, [sp, #0]
 1577 0012 FFF7FEFF 		bl	chIQInit
 1578              		.loc 1 85 0
 1579 0016 02B0     		add	sp, sp, #8
 1580 0018 10BD     		pop	{r4, pc}
 1581              	.L64:
 1582 001a 00BF     		.align	2
 1583              	.L63:
ARM GAS  C:\Users\DNIEL~1\AppData\Local\Temp\ccTDYczq.s 			page 29


 1584 001c 00000000 		.word	wa
 1585 0020 00000000 		.word	.LANCHOR1
 1586 0024 00000000 		.word	notify
 1587              		.cfi_endproc
 1588              	.LFE8:
 1589              		.size	queues1_setup, .-queues1_setup
 1590              		.global	testqueues1
 1591              		.global	testqueues2
 1592              		.global	patternqueues
 1593              		.section	.rodata.testqueues1,"a",%progbits
 1594              		.align	2
 1595              		.type	testqueues1, %object
 1596              		.size	testqueues1, 16
 1597              	testqueues1:
 1598 0000 08000000 		.word	.LC1
 1599 0004 00000000 		.word	queues1_setup
 1600 0008 00000000 		.word	0
 1601 000c 00000000 		.word	queues1_execute
 1602              		.section	.rodata.testqueues2,"a",%progbits
 1603              		.align	2
 1604              		.type	testqueues2, %object
 1605              		.size	testqueues2, 16
 1606              	testqueues2:
 1607 0000 20000000 		.word	.LC2
 1608 0004 00000000 		.word	queues2_setup
 1609 0008 00000000 		.word	0
 1610 000c 00000000 		.word	queues2_execute
 1611              		.section	.rodata.str1.4,"aMS",%progbits,1
 1612              		.align	2
 1613              	.LC0:
 1614 0000 41424344 		.ascii	"ABCD\000"
 1614      00
 1615 0005 000000   		.space	3
 1616              	.LC1:
 1617 0008 51756575 		.ascii	"Queues, input queues\000"
 1617      65732C20 
 1617      696E7075 
 1617      74207175 
 1617      65756573 
 1618 001d 000000   		.space	3
 1619              	.LC2:
 1620 0020 51756575 		.ascii	"Queues, output queues\000"
 1620      65732C20 
 1620      6F757470 
 1620      75742071 
 1620      75657565 
 1621 0036 0000     		.section	.rodata.patternqueues,"a",%progbits
 1622              		.align	2
 1623              		.type	patternqueues, %object
 1624              		.size	patternqueues, 12
 1625              	patternqueues:
 1626 0000 00000000 		.word	testqueues1
 1627 0004 00000000 		.word	testqueues2
 1628 0008 00000000 		.word	0
 1629              		.section	.data.oq,"aw",%progbits
 1630              		.align	2
 1631              		.set	.LANCHOR0,. + 0
ARM GAS  C:\Users\DNIEL~1\AppData\Local\Temp\ccTDYczq.s 			page 30


 1632              		.type	oq, %object
 1633              		.size	oq, 36
 1634              	oq:
 1635 0000 00000000 		.word	oq
 1636 0004 00000000 		.word	oq
 1637 0008 04000000 		.word	4
 1638 000c 30010000 		.word	test+304
 1639 0010 34010000 		.word	test+308
 1640 0014 30010000 		.word	test+304
 1641 0018 30010000 		.word	test+304
 1642 001c 00000000 		.word	notify
 1643 0020 00000000 		.word	0
 1644              		.section	.data.iq,"aw",%progbits
 1645              		.align	2
 1646              		.set	.LANCHOR1,. + 0
 1647              		.type	iq, %object
 1648              		.size	iq, 36
 1649              	iq:
 1650 0000 00000000 		.word	iq
 1651 0004 00000000 		.word	iq
 1652 0008 00000000 		.word	0
 1653 000c 00000000 		.word	test
 1654 0010 04000000 		.word	test+4
 1655 0014 00000000 		.word	test
 1656 0018 00000000 		.word	test
 1657 001c 00000000 		.word	notify
 1658 0020 00000000 		.word	0
 1659              		.text
 1660              	.Letext0:
 1661              		.section	.debug_loc,"",%progbits
 1662              	.Ldebug_loc0:
 1663              	.LLST0:
 1664 0000 00000000 		.4byte	.LFB12
 1665 0004 02000000 		.4byte	.LCFI0
 1666 0008 0200     		.2byte	0x2
 1667 000a 7D       		.byte	0x7d
 1668 000b 00       		.sleb128 0
 1669 000c 02000000 		.4byte	.LCFI0
 1670 0010 14000000 		.4byte	.LFE12
 1671 0014 0200     		.2byte	0x2
 1672 0016 7D       		.byte	0x7d
 1673 0017 08       		.sleb128 8
 1674 0018 00000000 		.4byte	0x0
 1675 001c 00000000 		.4byte	0x0
 1676              	.LLST1:
 1677 0020 00000000 		.4byte	.LVL1
 1678 0024 08000000 		.4byte	.LVL2
 1679 0028 0100     		.2byte	0x1
 1680 002a 50       		.byte	0x50
 1681 002b 00000000 		.4byte	0x0
 1682 002f 00000000 		.4byte	0x0
 1683              	.LLST2:
 1684 0033 00000000 		.4byte	.LFB13
 1685 0037 04000000 		.4byte	.LCFI1
 1686 003b 0200     		.2byte	0x2
 1687 003d 7D       		.byte	0x7d
 1688 003e 00       		.sleb128 0
ARM GAS  C:\Users\DNIEL~1\AppData\Local\Temp\ccTDYczq.s 			page 31


 1689 003f 04000000 		.4byte	.LCFI1
 1690 0043 08000000 		.4byte	.LCFI2
 1691 0047 0200     		.2byte	0x2
 1692 0049 7D       		.byte	0x7d
 1693 004a 18       		.sleb128 24
 1694 004b 08000000 		.4byte	.LCFI2
 1695 004f A0030000 		.4byte	.LFE13
 1696 0053 0200     		.2byte	0x2
 1697 0055 7D       		.byte	0x7d
 1698 0056 20       		.sleb128 32
 1699 0057 00000000 		.4byte	0x0
 1700 005b 00000000 		.4byte	0x0
 1701              	.LLST3:
 1702 005f 36000000 		.4byte	.LVL7
 1703 0063 44000000 		.4byte	.LVL8
 1704 0067 0200     		.2byte	0x2
 1705 0069 30       		.byte	0x30
 1706 006a 9F       		.byte	0x9f
 1707 006b 44000000 		.4byte	.LVL8
 1708 006f 50000000 		.4byte	.LVL9
 1709 0073 0200     		.2byte	0x2
 1710 0075 31       		.byte	0x31
 1711 0076 9F       		.byte	0x9f
 1712 0077 50000000 		.4byte	.LVL9
 1713 007b 5C000000 		.4byte	.LVL10
 1714 007f 0200     		.2byte	0x2
 1715 0081 32       		.byte	0x32
 1716 0082 9F       		.byte	0x9f
 1717 0083 5C000000 		.4byte	.LVL10
 1718 0087 68000000 		.4byte	.LVL11
 1719 008b 0200     		.2byte	0x2
 1720 008d 33       		.byte	0x33
 1721 008e 9F       		.byte	0x9f
 1722 008f 68000000 		.4byte	.LVL11
 1723 0093 94000000 		.4byte	.LVL16
 1724 0097 0200     		.2byte	0x2
 1725 0099 34       		.byte	0x34
 1726 009a 9F       		.byte	0x9f
 1727 009b 94000000 		.4byte	.LVL16
 1728 009f B6000000 		.4byte	.LVL24
 1729 00a3 0200     		.2byte	0x2
 1730 00a5 30       		.byte	0x30
 1731 00a6 9F       		.byte	0x9f
 1732 00a7 B6000000 		.4byte	.LVL24
 1733 00ab D8000000 		.4byte	.LVL30
 1734 00af 0200     		.2byte	0x2
 1735 00b1 31       		.byte	0x31
 1736 00b2 9F       		.byte	0x9f
 1737 00b3 D8000000 		.4byte	.LVL30
 1738 00b7 FA000000 		.4byte	.LVL36
 1739 00bb 0200     		.2byte	0x2
 1740 00bd 32       		.byte	0x32
 1741 00be 9F       		.byte	0x9f
 1742 00bf FA000000 		.4byte	.LVL36
 1743 00c3 1C010000 		.4byte	.LVL42
 1744 00c7 0200     		.2byte	0x2
 1745 00c9 33       		.byte	0x33
ARM GAS  C:\Users\DNIEL~1\AppData\Local\Temp\ccTDYczq.s 			page 32


 1746 00ca 9F       		.byte	0x9f
 1747 00cb 1C010000 		.4byte	.LVL42
 1748 00cf 32030000 		.4byte	.LVL92
 1749 00d3 0200     		.2byte	0x2
 1750 00d5 34       		.byte	0x34
 1751 00d6 9F       		.byte	0x9f
 1752 00d7 4E030000 		.4byte	.LVL96
 1753 00db A0030000 		.4byte	.LFE13
 1754 00df 0200     		.2byte	0x2
 1755 00e1 34       		.byte	0x34
 1756 00e2 9F       		.byte	0x9f
 1757 00e3 00000000 		.4byte	0x0
 1758 00e7 00000000 		.4byte	0x0
 1759              	.LLST4:
 1760 00eb 9C010000 		.4byte	.LVL55
 1761 00ef AA010000 		.4byte	.LVL56
 1762 00f3 0100     		.2byte	0x1
 1763 00f5 50       		.byte	0x50
 1764 00f6 AA010000 		.4byte	.LVL56
 1765 00fa AD010000 		.4byte	.LVL57-1
 1766 00fe 0300     		.2byte	0x3
 1767 0100 7C       		.byte	0x7c
 1768 0101 04       		.sleb128 4
 1769 0102 9F       		.byte	0x9f
 1770 0103 90020000 		.4byte	.LVL80
 1771 0107 9E020000 		.4byte	.LVL81
 1772 010b 0100     		.2byte	0x1
 1773 010d 50       		.byte	0x50
 1774 010e B2020000 		.4byte	.LVL82
 1775 0112 B6020000 		.4byte	.LVL83
 1776 0116 0100     		.2byte	0x1
 1777 0118 50       		.byte	0x50
 1778 0119 B6020000 		.4byte	.LVL83
 1779 011d BE020000 		.4byte	.LVL84
 1780 0121 0300     		.2byte	0x3
 1781 0123 70       		.byte	0x70
 1782 0124 02       		.sleb128 2
 1783 0125 9F       		.byte	0x9f
 1784 0126 00000000 		.4byte	0x0
 1785 012a 00000000 		.4byte	0x0
 1786              	.LLST5:
 1787 012e 0C000000 		.4byte	.LVL4
 1788 0132 11000000 		.4byte	.LVL5-1
 1789 0136 0100     		.2byte	0x1
 1790 0138 53       		.byte	0x53
 1791 0139 00000000 		.4byte	0x0
 1792 013d 00000000 		.4byte	0x0
 1793              	.LLST6:
 1794 0141 36000000 		.4byte	.LVL7
 1795 0145 43000000 		.4byte	.LVL8-1
 1796 0149 0100     		.2byte	0x1
 1797 014b 53       		.byte	0x53
 1798 014c 00000000 		.4byte	0x0
 1799 0150 00000000 		.4byte	0x0
 1800              	.LLST7:
 1801 0154 6E000000 		.4byte	.LVL13
 1802 0158 71000000 		.4byte	.LVL14-1
ARM GAS  C:\Users\DNIEL~1\AppData\Local\Temp\ccTDYczq.s 			page 33


 1803 015c 0100     		.2byte	0x1
 1804 015e 53       		.byte	0x53
 1805 015f 00000000 		.4byte	0x0
 1806 0163 00000000 		.4byte	0x0
 1807              	.LLST8:
 1808 0167 94000000 		.4byte	.LVL16
 1809 016b 96000000 		.4byte	.LVL17
 1810 016f 0100     		.2byte	0x1
 1811 0171 53       		.byte	0x53
 1812 0172 00000000 		.4byte	0x0
 1813 0176 00000000 		.4byte	0x0
 1814              	.LLST9:
 1815 017a A6000000 		.4byte	.LVL20
 1816 017e A9000000 		.4byte	.LVL21-1
 1817 0182 0100     		.2byte	0x1
 1818 0184 50       		.byte	0x50
 1819 0185 A9000000 		.4byte	.LVL21-1
 1820 0189 C8000000 		.4byte	.LVL27
 1821 018d 0100     		.2byte	0x1
 1822 018f 56       		.byte	0x56
 1823 0190 C8000000 		.4byte	.LVL27
 1824 0194 CB000000 		.4byte	.LVL28-1
 1825 0198 0100     		.2byte	0x1
 1826 019a 50       		.byte	0x50
 1827 019b CB000000 		.4byte	.LVL28-1
 1828 019f EA000000 		.4byte	.LVL33
 1829 01a3 0100     		.2byte	0x1
 1830 01a5 56       		.byte	0x56
 1831 01a6 EA000000 		.4byte	.LVL33
 1832 01aa ED000000 		.4byte	.LVL34-1
 1833 01ae 0100     		.2byte	0x1
 1834 01b0 50       		.byte	0x50
 1835 01b1 ED000000 		.4byte	.LVL34-1
 1836 01b5 0C010000 		.4byte	.LVL39
 1837 01b9 0100     		.2byte	0x1
 1838 01bb 56       		.byte	0x56
 1839 01bc 0C010000 		.4byte	.LVL39
 1840 01c0 0F010000 		.4byte	.LVL40-1
 1841 01c4 0100     		.2byte	0x1
 1842 01c6 50       		.byte	0x50
 1843 01c7 0F010000 		.4byte	.LVL40-1
 1844 01cb 7E010000 		.4byte	.LVL52
 1845 01cf 0100     		.2byte	0x1
 1846 01d1 56       		.byte	0x56
 1847 01d2 4E030000 		.4byte	.LVL96
 1848 01d6 64030000 		.4byte	.LVL99
 1849 01da 0100     		.2byte	0x1
 1850 01dc 56       		.byte	0x56
 1851 01dd 00000000 		.4byte	0x0
 1852 01e1 00000000 		.4byte	0x0
 1853              	.LLST10:
 1854 01e5 9A000000 		.4byte	.LVL18
 1855 01e9 9D000000 		.4byte	.LVL19-1
 1856 01ed 0100     		.2byte	0x1
 1857 01ef 53       		.byte	0x53
 1858 01f0 BC000000 		.4byte	.LVL25
 1859 01f4 BF000000 		.4byte	.LVL26-1
ARM GAS  C:\Users\DNIEL~1\AppData\Local\Temp\ccTDYczq.s 			page 34


 1860 01f8 0100     		.2byte	0x1
 1861 01fa 53       		.byte	0x53
 1862 01fb DE000000 		.4byte	.LVL31
 1863 01ff E1000000 		.4byte	.LVL32-1
 1864 0203 0100     		.2byte	0x1
 1865 0205 53       		.byte	0x53
 1866 0206 00010000 		.4byte	.LVL37
 1867 020a 03010000 		.4byte	.LVL38-1
 1868 020e 0100     		.2byte	0x1
 1869 0210 53       		.byte	0x53
 1870 0211 00000000 		.4byte	0x0
 1871 0215 00000000 		.4byte	0x0
 1872              	.LLST11:
 1873 0219 B0000000 		.4byte	.LVL23
 1874 021d B5000000 		.4byte	.LVL24-1
 1875 0221 0100     		.2byte	0x1
 1876 0223 53       		.byte	0x53
 1877 0224 D2000000 		.4byte	.LVL29
 1878 0228 D7000000 		.4byte	.LVL30-1
 1879 022c 0100     		.2byte	0x1
 1880 022e 53       		.byte	0x53
 1881 022f F4000000 		.4byte	.LVL35
 1882 0233 F9000000 		.4byte	.LVL36-1
 1883 0237 0100     		.2byte	0x1
 1884 0239 53       		.byte	0x53
 1885 023a 16010000 		.4byte	.LVL41
 1886 023e 1B010000 		.4byte	.LVL42-1
 1887 0242 0100     		.2byte	0x1
 1888 0244 53       		.byte	0x53
 1889 0245 00000000 		.4byte	0x0
 1890 0249 00000000 		.4byte	0x0
 1891              	.LLST12:
 1892 024d 22010000 		.4byte	.LVL44
 1893 0251 25010000 		.4byte	.LVL45-1
 1894 0255 0100     		.2byte	0x1
 1895 0257 53       		.byte	0x53
 1896 0258 00000000 		.4byte	0x0
 1897 025c 00000000 		.4byte	0x0
 1898              	.LLST13:
 1899 0260 4A010000 		.4byte	.LVL47
 1900 0264 51010000 		.4byte	.LVL48-1
 1901 0268 0100     		.2byte	0x1
 1902 026a 53       		.byte	0x53
 1903 026b 00000000 		.4byte	0x0
 1904 026f 00000000 		.4byte	0x0
 1905              	.LLST14:
 1906 0273 60010000 		.4byte	.LVL50
 1907 0277 65010000 		.4byte	.LVL51-1
 1908 027b 0100     		.2byte	0x1
 1909 027d 53       		.byte	0x53
 1910 027e 00000000 		.4byte	0x0
 1911 0282 00000000 		.4byte	0x0
 1912              	.LLST15:
 1913 0286 8E010000 		.4byte	.LVL54
 1914 028a 9B010000 		.4byte	.LVL55-1
 1915 028e 0100     		.2byte	0x1
 1916 0290 53       		.byte	0x53
ARM GAS  C:\Users\DNIEL~1\AppData\Local\Temp\ccTDYczq.s 			page 35


 1917 0291 00000000 		.4byte	0x0
 1918 0295 00000000 		.4byte	0x0
 1919              	.LLST16:
 1920 0299 BC010000 		.4byte	.LVL59
 1921 029d BF010000 		.4byte	.LVL60-1
 1922 02a1 0100     		.2byte	0x1
 1923 02a3 53       		.byte	0x53
 1924 02a4 00000000 		.4byte	0x0
 1925 02a8 00000000 		.4byte	0x0
 1926              	.LLST17:
 1927 02ac E2010000 		.4byte	.LVL62
 1928 02b0 E8010000 		.4byte	.LVL63
 1929 02b4 0100     		.2byte	0x1
 1930 02b6 53       		.byte	0x53
 1931 02b7 00000000 		.4byte	0x0
 1932 02bb 00000000 		.4byte	0x0
 1933              	.LLST18:
 1934 02bf 02020000 		.4byte	.LVL65
 1935 02c3 05020000 		.4byte	.LVL66-1
 1936 02c7 0100     		.2byte	0x1
 1937 02c9 53       		.byte	0x53
 1938 02ca 00000000 		.4byte	0x0
 1939 02ce 00000000 		.4byte	0x0
 1940              	.LLST19:
 1941 02d2 34020000 		.4byte	.LVL68
 1942 02d6 37020000 		.4byte	.LVL69-1
 1943 02da 0100     		.2byte	0x1
 1944 02dc 53       		.byte	0x53
 1945 02dd 00000000 		.4byte	0x0
 1946 02e1 00000000 		.4byte	0x0
 1947              	.LLST20:
 1948 02e5 3E020000 		.4byte	.LVL71
 1949 02e9 41020000 		.4byte	.LVL72-1
 1950 02ed 0100     		.2byte	0x1
 1951 02ef 53       		.byte	0x53
 1952 02f0 00000000 		.4byte	0x0
 1953 02f4 00000000 		.4byte	0x0
 1954              	.LLST21:
 1955 02f8 52020000 		.4byte	.LVL74
 1956 02fc 54020000 		.4byte	.LVL75
 1957 0300 0100     		.2byte	0x1
 1958 0302 53       		.byte	0x53
 1959 0303 00000000 		.4byte	0x0
 1960 0307 00000000 		.4byte	0x0
 1961              	.LLST22:
 1962 030b 58020000 		.4byte	.LVL76
 1963 030f 5B020000 		.4byte	.LVL77-1
 1964 0313 0100     		.2byte	0x1
 1965 0315 53       		.byte	0x53
 1966 0316 00000000 		.4byte	0x0
 1967 031a 00000000 		.4byte	0x0
 1968              	.LLST23:
 1969 031e 86020000 		.4byte	.LVL79
 1970 0322 8F020000 		.4byte	.LVL80-1
 1971 0326 0100     		.2byte	0x1
 1972 0328 53       		.byte	0x53
 1973 0329 00000000 		.4byte	0x0
ARM GAS  C:\Users\DNIEL~1\AppData\Local\Temp\ccTDYczq.s 			page 36


 1974 032d 00000000 		.4byte	0x0
 1975              	.LLST24:
 1976 0331 CC020000 		.4byte	.LVL86
 1977 0335 CF020000 		.4byte	.LVL87-1
 1978 0339 0100     		.2byte	0x1
 1979 033b 53       		.byte	0x53
 1980 033c 00000000 		.4byte	0x0
 1981 0340 00000000 		.4byte	0x0
 1982              	.LLST25:
 1983 0344 EE020000 		.4byte	.LVL89
 1984 0348 F7020000 		.4byte	.LVL90-1
 1985 034c 0100     		.2byte	0x1
 1986 034e 53       		.byte	0x53
 1987 034f 00000000 		.4byte	0x0
 1988 0353 00000000 		.4byte	0x0
 1989              	.LLST26:
 1990 0357 32030000 		.4byte	.LVL92
 1991 035b 38030000 		.4byte	.LVL93
 1992 035f 0100     		.2byte	0x1
 1993 0361 53       		.byte	0x53
 1994 0362 00000000 		.4byte	0x0
 1995 0366 00000000 		.4byte	0x0
 1996              	.LLST27:
 1997 036a 32030000 		.4byte	.LVL92
 1998 036e 38030000 		.4byte	.LVL93
 1999 0372 0100     		.2byte	0x1
 2000 0374 53       		.byte	0x53
 2001 0375 42030000 		.4byte	.LVL94
 2002 0379 44030000 		.4byte	.LVL95
 2003 037d 0100     		.2byte	0x1
 2004 037f 53       		.byte	0x53
 2005 0380 00000000 		.4byte	0x0
 2006 0384 00000000 		.4byte	0x0
 2007              	.LLST28:
 2008 0388 32030000 		.4byte	.LVL92
 2009 038c 38030000 		.4byte	.LVL93
 2010 0390 0100     		.2byte	0x1
 2011 0392 53       		.byte	0x53
 2012 0393 58030000 		.4byte	.LVL97
 2013 0397 5A030000 		.4byte	.LVL98
 2014 039b 0100     		.2byte	0x1
 2015 039d 53       		.byte	0x53
 2016 039e 00000000 		.4byte	0x0
 2017 03a2 00000000 		.4byte	0x0
 2018              	.LLST29:
 2019 03a6 32030000 		.4byte	.LVL92
 2020 03aa 38030000 		.4byte	.LVL93
 2021 03ae 0100     		.2byte	0x1
 2022 03b0 53       		.byte	0x53
 2023 03b1 6E030000 		.4byte	.LVL100
 2024 03b5 70030000 		.4byte	.LVL101
 2025 03b9 0100     		.2byte	0x1
 2026 03bb 53       		.byte	0x53
 2027 03bc 00000000 		.4byte	0x0
 2028 03c0 00000000 		.4byte	0x0
 2029              	.LLST30:
 2030 03c4 32030000 		.4byte	.LVL92
ARM GAS  C:\Users\DNIEL~1\AppData\Local\Temp\ccTDYczq.s 			page 37


 2031 03c8 38030000 		.4byte	.LVL93
 2032 03cc 0100     		.2byte	0x1
 2033 03ce 53       		.byte	0x53
 2034 03cf 7A030000 		.4byte	.LVL102
 2035 03d3 7C030000 		.4byte	.LVL103
 2036 03d7 0100     		.2byte	0x1
 2037 03d9 53       		.byte	0x53
 2038 03da 00000000 		.4byte	0x0
 2039 03de 00000000 		.4byte	0x0
 2040              	.LLST31:
 2041 03e2 32030000 		.4byte	.LVL92
 2042 03e6 38030000 		.4byte	.LVL93
 2043 03ea 0100     		.2byte	0x1
 2044 03ec 53       		.byte	0x53
 2045 03ed 86030000 		.4byte	.LVL104
 2046 03f1 88030000 		.4byte	.LVL105
 2047 03f5 0100     		.2byte	0x1
 2048 03f7 53       		.byte	0x53
 2049 03f8 00000000 		.4byte	0x0
 2050 03fc 00000000 		.4byte	0x0
 2051              	.LLST32:
 2052 0400 32030000 		.4byte	.LVL92
 2053 0404 38030000 		.4byte	.LVL93
 2054 0408 0100     		.2byte	0x1
 2055 040a 53       		.byte	0x53
 2056 040b 92030000 		.4byte	.LVL106
 2057 040f 94030000 		.4byte	.LVL107
 2058 0413 0100     		.2byte	0x1
 2059 0415 53       		.byte	0x53
 2060 0416 00000000 		.4byte	0x0
 2061 041a 00000000 		.4byte	0x0
 2062              	.LLST33:
 2063 041e 32030000 		.4byte	.LVL92
 2064 0422 38030000 		.4byte	.LVL93
 2065 0426 0100     		.2byte	0x1
 2066 0428 53       		.byte	0x53
 2067 0429 9E030000 		.4byte	.LVL108
 2068 042d A0030000 		.4byte	.LFE13
 2069 0431 0100     		.2byte	0x1
 2070 0433 53       		.byte	0x53
 2071 0434 00000000 		.4byte	0x0
 2072 0438 00000000 		.4byte	0x0
 2073              	.LLST34:
 2074 043c 00000000 		.4byte	.LFB11
 2075 0440 02000000 		.4byte	.LCFI3
 2076 0444 0200     		.2byte	0x2
 2077 0446 7D       		.byte	0x7d
 2078 0447 00       		.sleb128 0
 2079 0448 02000000 		.4byte	.LCFI3
 2080 044c 06000000 		.4byte	.LCFI4
 2081 0450 0200     		.2byte	0x2
 2082 0452 7D       		.byte	0x7d
 2083 0453 08       		.sleb128 8
 2084 0454 06000000 		.4byte	.LCFI4
 2085 0458 28000000 		.4byte	.LFE11
 2086 045c 0200     		.2byte	0x2
 2087 045e 7D       		.byte	0x7d
ARM GAS  C:\Users\DNIEL~1\AppData\Local\Temp\ccTDYczq.s 			page 38


 2088 045f 10       		.sleb128 16
 2089 0460 00000000 		.4byte	0x0
 2090 0464 00000000 		.4byte	0x0
 2091              	.LLST35:
 2092 0468 00000000 		.4byte	.LFB9
 2093 046c 02000000 		.4byte	.LCFI5
 2094 0470 0200     		.2byte	0x2
 2095 0472 7D       		.byte	0x7d
 2096 0473 00       		.sleb128 0
 2097 0474 02000000 		.4byte	.LCFI5
 2098 0478 14000000 		.4byte	.LFE9
 2099 047c 0200     		.2byte	0x2
 2100 047e 7D       		.byte	0x7d
 2101 047f 08       		.sleb128 8
 2102 0480 00000000 		.4byte	0x0
 2103 0484 00000000 		.4byte	0x0
 2104              	.LLST36:
 2105 0488 00000000 		.4byte	.LVL109
 2106 048c 06000000 		.4byte	.LVL110
 2107 0490 0100     		.2byte	0x1
 2108 0492 50       		.byte	0x50
 2109 0493 00000000 		.4byte	0x0
 2110 0497 00000000 		.4byte	0x0
 2111              	.LLST37:
 2112 049b 00000000 		.4byte	.LFB10
 2113 049f 04000000 		.4byte	.LCFI6
 2114 04a3 0200     		.2byte	0x2
 2115 04a5 7D       		.byte	0x7d
 2116 04a6 00       		.sleb128 0
 2117 04a7 04000000 		.4byte	.LCFI6
 2118 04ab 08000000 		.4byte	.LCFI7
 2119 04af 0200     		.2byte	0x2
 2120 04b1 7D       		.byte	0x7d
 2121 04b2 1C       		.sleb128 28
 2122 04b3 08000000 		.4byte	.LCFI7
 2123 04b7 B8030000 		.4byte	.LFE10
 2124 04bb 0200     		.2byte	0x2
 2125 04bd 7D       		.byte	0x7d
 2126 04be 28       		.sleb128 40
 2127 04bf 00000000 		.4byte	0x0
 2128 04c3 00000000 		.4byte	0x0
 2129              	.LLST38:
 2130 04c7 3E000000 		.4byte	.LVL118
 2131 04cb 46000000 		.4byte	.LVL119
 2132 04cf 0200     		.2byte	0x2
 2133 04d1 30       		.byte	0x30
 2134 04d2 9F       		.byte	0x9f
 2135 04d3 46000000 		.4byte	.LVL119
 2136 04d7 4E000000 		.4byte	.LVL120
 2137 04db 0200     		.2byte	0x2
 2138 04dd 31       		.byte	0x31
 2139 04de 9F       		.byte	0x9f
 2140 04df 4E000000 		.4byte	.LVL120
 2141 04e3 56000000 		.4byte	.LVL121
 2142 04e7 0200     		.2byte	0x2
 2143 04e9 32       		.byte	0x32
 2144 04ea 9F       		.byte	0x9f
ARM GAS  C:\Users\DNIEL~1\AppData\Local\Temp\ccTDYczq.s 			page 39


 2145 04eb 56000000 		.4byte	.LVL121
 2146 04ef 5E000000 		.4byte	.LVL122
 2147 04f3 0200     		.2byte	0x2
 2148 04f5 33       		.byte	0x33
 2149 04f6 9F       		.byte	0x9f
 2150 04f7 5E000000 		.4byte	.LVL122
 2151 04fb CC000000 		.4byte	.LVL134
 2152 04ff 0200     		.2byte	0x2
 2153 0501 34       		.byte	0x34
 2154 0502 9F       		.byte	0x9f
 2155 0503 CC000000 		.4byte	.LVL134
 2156 0507 DC000000 		.4byte	.LVL136
 2157 050b 0200     		.2byte	0x2
 2158 050d 30       		.byte	0x30
 2159 050e 9F       		.byte	0x9f
 2160 050f DC000000 		.4byte	.LVL136
 2161 0513 EC000000 		.4byte	.LVL137
 2162 0517 0200     		.2byte	0x2
 2163 0519 31       		.byte	0x31
 2164 051a 9F       		.byte	0x9f
 2165 051b EC000000 		.4byte	.LVL137
 2166 051f FC000000 		.4byte	.LVL138
 2167 0523 0200     		.2byte	0x2
 2168 0525 32       		.byte	0x32
 2169 0526 9F       		.byte	0x9f
 2170 0527 FC000000 		.4byte	.LVL138
 2171 052b 0C010000 		.4byte	.LVL139
 2172 052f 0200     		.2byte	0x2
 2173 0531 33       		.byte	0x33
 2174 0532 9F       		.byte	0x9f
 2175 0533 0C010000 		.4byte	.LVL139
 2176 0537 52010000 		.4byte	.LVL148
 2177 053b 0200     		.2byte	0x2
 2178 053d 34       		.byte	0x34
 2179 053e 9F       		.byte	0x9f
 2180 053f 52010000 		.4byte	.LVL148
 2181 0543 5A010000 		.4byte	.LVL149
 2182 0547 0200     		.2byte	0x2
 2183 0549 30       		.byte	0x30
 2184 054a 9F       		.byte	0x9f
 2185 054b 5A010000 		.4byte	.LVL149
 2186 054f 62010000 		.4byte	.LVL150
 2187 0553 0200     		.2byte	0x2
 2188 0555 31       		.byte	0x31
 2189 0556 9F       		.byte	0x9f
 2190 0557 62010000 		.4byte	.LVL150
 2191 055b 6A010000 		.4byte	.LVL151
 2192 055f 0200     		.2byte	0x2
 2193 0561 32       		.byte	0x32
 2194 0562 9F       		.byte	0x9f
 2195 0563 6A010000 		.4byte	.LVL151
 2196 0567 72010000 		.4byte	.LVL152
 2197 056b 0200     		.2byte	0x2
 2198 056d 33       		.byte	0x33
 2199 056e 9F       		.byte	0x9f
 2200 056f 72010000 		.4byte	.LVL152
 2201 0573 DA010000 		.4byte	.LVL165
ARM GAS  C:\Users\DNIEL~1\AppData\Local\Temp\ccTDYczq.s 			page 40


 2202 0577 0200     		.2byte	0x2
 2203 0579 34       		.byte	0x34
 2204 057a 9F       		.byte	0x9f
 2205 057b DA010000 		.4byte	.LVL165
 2206 057f E2010000 		.4byte	.LVL166
 2207 0583 0200     		.2byte	0x2
 2208 0585 30       		.byte	0x30
 2209 0586 9F       		.byte	0x9f
 2210 0587 E2010000 		.4byte	.LVL166
 2211 058b EA010000 		.4byte	.LVL167
 2212 058f 0200     		.2byte	0x2
 2213 0591 31       		.byte	0x31
 2214 0592 9F       		.byte	0x9f
 2215 0593 EA010000 		.4byte	.LVL167
 2216 0597 F2010000 		.4byte	.LVL168
 2217 059b 0200     		.2byte	0x2
 2218 059d 32       		.byte	0x32
 2219 059e 9F       		.byte	0x9f
 2220 059f F2010000 		.4byte	.LVL168
 2221 05a3 FA010000 		.4byte	.LVL169
 2222 05a7 0200     		.2byte	0x2
 2223 05a9 33       		.byte	0x33
 2224 05aa 9F       		.byte	0x9f
 2225 05ab FA010000 		.4byte	.LVL169
 2226 05af 54030000 		.4byte	.LVL201
 2227 05b3 0200     		.2byte	0x2
 2228 05b5 34       		.byte	0x34
 2229 05b6 9F       		.byte	0x9f
 2230 05b7 66030000 		.4byte	.LVL204
 2231 05bb B8030000 		.4byte	.LFE10
 2232 05bf 0200     		.2byte	0x2
 2233 05c1 34       		.byte	0x34
 2234 05c2 9F       		.byte	0x9f
 2235 05c3 00000000 		.4byte	0x0
 2236 05c7 00000000 		.4byte	0x0
 2237              	.LLST39:
 2238 05cb 8A010000 		.4byte	.LVL155
 2239 05cf 98010000 		.4byte	.LVL156
 2240 05d3 0100     		.2byte	0x1
 2241 05d5 50       		.byte	0x50
 2242 05d6 98010000 		.4byte	.LVL156
 2243 05da 9B010000 		.4byte	.LVL157-1
 2244 05de 0300     		.2byte	0x3
 2245 05e0 7C       		.byte	0x7c
 2246 05e1 04       		.sleb128 4
 2247 05e2 9F       		.byte	0x9f
 2248 05e3 0E020000 		.4byte	.LVL172
 2249 05e7 1C020000 		.4byte	.LVL173
 2250 05eb 0100     		.2byte	0x1
 2251 05ed 50       		.byte	0x50
 2252 05ee 1C020000 		.4byte	.LVL173
 2253 05f2 1F020000 		.4byte	.LVL174-1
 2254 05f6 0300     		.2byte	0x3
 2255 05f8 7E       		.byte	0x7e
 2256 05f9 02       		.sleb128 2
 2257 05fa 9F       		.byte	0x9f
 2258 05fb 32020000 		.4byte	.LVL175
ARM GAS  C:\Users\DNIEL~1\AppData\Local\Temp\ccTDYczq.s 			page 41


 2259 05ff 36020000 		.4byte	.LVL176
 2260 0603 0100     		.2byte	0x1
 2261 0605 50       		.byte	0x50
 2262 0606 36020000 		.4byte	.LVL176
 2263 060a 3E020000 		.4byte	.LVL177
 2264 060e 0300     		.2byte	0x3
 2265 0610 70       		.byte	0x70
 2266 0611 02       		.sleb128 2
 2267 0612 9F       		.byte	0x9f
 2268 0613 00000000 		.4byte	0x0
 2269 0617 00000000 		.4byte	0x0
 2270              	.LLST40:
 2271 061b 0C000000 		.4byte	.LVL112
 2272 061f 11000000 		.4byte	.LVL113-1
 2273 0623 0100     		.2byte	0x1
 2274 0625 53       		.byte	0x53
 2275 0626 00000000 		.4byte	0x0
 2276 062a 00000000 		.4byte	0x0
 2277              	.LLST41:
 2278 062e 34000000 		.4byte	.LVL115
 2279 0632 36000000 		.4byte	.LVL116
 2280 0636 0100     		.2byte	0x1
 2281 0638 53       		.byte	0x53
 2282 0639 00000000 		.4byte	0x0
 2283 063d 00000000 		.4byte	0x0
 2284              	.LLST42:
 2285 0641 3A000000 		.4byte	.LVL117
 2286 0645 3D000000 		.4byte	.LVL118-1
 2287 0649 0100     		.2byte	0x1
 2288 064b 53       		.byte	0x53
 2289 064c 00000000 		.4byte	0x0
 2290 0650 00000000 		.4byte	0x0
 2291              	.LLST43:
 2292 0654 68000000 		.4byte	.LVL124
 2293 0658 6A000000 		.4byte	.LVL125
 2294 065c 0100     		.2byte	0x1
 2295 065e 53       		.byte	0x53
 2296 065f 00000000 		.4byte	0x0
 2297 0663 00000000 		.4byte	0x0
 2298              	.LLST44:
 2299 0667 6E000000 		.4byte	.LVL126
 2300 066b 71000000 		.4byte	.LVL127-1
 2301 066f 0100     		.2byte	0x1
 2302 0671 53       		.byte	0x53
 2303 0672 00000000 		.4byte	0x0
 2304 0676 00000000 		.4byte	0x0
 2305              	.LLST45:
 2306 067a 96000000 		.4byte	.LVL129
 2307 067e 98000000 		.4byte	.LVL130
 2308 0682 0100     		.2byte	0x1
 2309 0684 53       		.byte	0x53
 2310 0685 00000000 		.4byte	0x0
 2311 0689 00000000 		.4byte	0x0
 2312              	.LLST46:
 2313 068d 9C000000 		.4byte	.LVL131
 2314 0691 A1000000 		.4byte	.LVL132-1
 2315 0695 0100     		.2byte	0x1
ARM GAS  C:\Users\DNIEL~1\AppData\Local\Temp\ccTDYczq.s 			page 42


 2316 0697 53       		.byte	0x53
 2317 0698 00000000 		.4byte	0x0
 2318 069c 00000000 		.4byte	0x0
 2319              	.LLST47:
 2320 06a0 CC000000 		.4byte	.LVL134
 2321 06a4 D5000000 		.4byte	.LVL135-1
 2322 06a8 0100     		.2byte	0x1
 2323 06aa 53       		.byte	0x53
 2324 06ab 00000000 		.4byte	0x0
 2325 06af 00000000 		.4byte	0x0
 2326              	.LLST48:
 2327 06b3 12010000 		.4byte	.LVL141
 2328 06b7 15010000 		.4byte	.LVL142-1
 2329 06bb 0100     		.2byte	0x1
 2330 06bd 53       		.byte	0x53
 2331 06be 00000000 		.4byte	0x0
 2332 06c2 00000000 		.4byte	0x0
 2333              	.LLST49:
 2334 06c6 38010000 		.4byte	.LVL144
 2335 06ca 3F010000 		.4byte	.LVL145-1
 2336 06ce 0100     		.2byte	0x1
 2337 06d0 53       		.byte	0x53
 2338 06d1 00000000 		.4byte	0x0
 2339 06d5 00000000 		.4byte	0x0
 2340              	.LLST50:
 2341 06d9 4E010000 		.4byte	.LVL147
 2342 06dd 51010000 		.4byte	.LVL148-1
 2343 06e1 0100     		.2byte	0x1
 2344 06e3 53       		.byte	0x53
 2345 06e4 00000000 		.4byte	0x0
 2346 06e8 00000000 		.4byte	0x0
 2347              	.LLST51:
 2348 06ec 7C010000 		.4byte	.LVL154
 2349 06f0 89010000 		.4byte	.LVL155-1
 2350 06f4 0100     		.2byte	0x1
 2351 06f6 53       		.byte	0x53
 2352 06f7 00000000 		.4byte	0x0
 2353 06fb 00000000 		.4byte	0x0
 2354              	.LLST52:
 2355 06ff AA010000 		.4byte	.LVL159
 2356 0703 AD010000 		.4byte	.LVL160-1
 2357 0707 0100     		.2byte	0x1
 2358 0709 53       		.byte	0x53
 2359 070a 00000000 		.4byte	0x0
 2360 070e 00000000 		.4byte	0x0
 2361              	.LLST53:
 2362 0712 D0010000 		.4byte	.LVL162
 2363 0716 D2010000 		.4byte	.LVL163
 2364 071a 0100     		.2byte	0x1
 2365 071c 53       		.byte	0x53
 2366 071d 00000000 		.4byte	0x0
 2367 0721 00000000 		.4byte	0x0
 2368              	.LLST54:
 2369 0725 D6010000 		.4byte	.LVL164
 2370 0729 D9010000 		.4byte	.LVL165-1
 2371 072d 0100     		.2byte	0x1
 2372 072f 53       		.byte	0x53
ARM GAS  C:\Users\DNIEL~1\AppData\Local\Temp\ccTDYczq.s 			page 43


 2373 0730 00000000 		.4byte	0x0
 2374 0734 00000000 		.4byte	0x0
 2375              	.LLST55:
 2376 0738 04020000 		.4byte	.LVL171
 2377 073c 0D020000 		.4byte	.LVL172-1
 2378 0740 0100     		.2byte	0x1
 2379 0742 53       		.byte	0x53
 2380 0743 00000000 		.4byte	0x0
 2381 0747 00000000 		.4byte	0x0
 2382              	.LLST56:
 2383 074b 50020000 		.4byte	.LVL179
 2384 074f 53020000 		.4byte	.LVL180-1
 2385 0753 0100     		.2byte	0x1
 2386 0755 53       		.byte	0x53
 2387 0756 00000000 		.4byte	0x0
 2388 075a 00000000 		.4byte	0x0
 2389              	.LLST57:
 2390 075e 76020000 		.4byte	.LVL182
 2391 0762 78020000 		.4byte	.LVL183
 2392 0766 0100     		.2byte	0x1
 2393 0768 53       		.byte	0x53
 2394 0769 00000000 		.4byte	0x0
 2395 076d 00000000 		.4byte	0x0
 2396              	.LLST58:
 2397 0771 7C020000 		.4byte	.LVL184
 2398 0775 7F020000 		.4byte	.LVL185-1
 2399 0779 0100     		.2byte	0x1
 2400 077b 53       		.byte	0x53
 2401 077c 00000000 		.4byte	0x0
 2402 0780 00000000 		.4byte	0x0
 2403              	.LLST59:
 2404 0784 98020000 		.4byte	.LVL187
 2405 0788 9A020000 		.4byte	.LVL188
 2406 078c 0100     		.2byte	0x1
 2407 078e 53       		.byte	0x53
 2408 078f 00000000 		.4byte	0x0
 2409 0793 00000000 		.4byte	0x0
 2410              	.LLST60:
 2411 0797 9E020000 		.4byte	.LVL189
 2412 079b A1020000 		.4byte	.LVL190-1
 2413 079f 0100     		.2byte	0x1
 2414 07a1 53       		.byte	0x53
 2415 07a2 00000000 		.4byte	0x0
 2416 07a6 00000000 		.4byte	0x0
 2417              	.LLST61:
 2418 07aa C0020000 		.4byte	.LVL192
 2419 07ae CC020000 		.4byte	.LVL193
 2420 07b2 0100     		.2byte	0x1
 2421 07b4 53       		.byte	0x53
 2422 07b5 00000000 		.4byte	0x0
 2423 07b9 00000000 		.4byte	0x0
 2424              	.LLST62:
 2425 07bd E2020000 		.4byte	.LVL195
 2426 07c1 E5020000 		.4byte	.LVL196-1
 2427 07c5 0100     		.2byte	0x1
 2428 07c7 53       		.byte	0x53
 2429 07c8 00000000 		.4byte	0x0
ARM GAS  C:\Users\DNIEL~1\AppData\Local\Temp\ccTDYczq.s 			page 44


 2430 07cc 00000000 		.4byte	0x0
 2431              	.LLST63:
 2432 07d0 0A030000 		.4byte	.LVL198
 2433 07d4 0D030000 		.4byte	.LVL199-1
 2434 07d8 0100     		.2byte	0x1
 2435 07da 53       		.byte	0x53
 2436 07db 00000000 		.4byte	0x0
 2437 07df 00000000 		.4byte	0x0
 2438              	.LLST64:
 2439 07e3 54030000 		.4byte	.LVL201
 2440 07e7 5A030000 		.4byte	.LVL202
 2441 07eb 0100     		.2byte	0x1
 2442 07ed 53       		.byte	0x53
 2443 07ee 00000000 		.4byte	0x0
 2444 07f2 00000000 		.4byte	0x0
 2445              	.LLST65:
 2446 07f6 54030000 		.4byte	.LVL201
 2447 07fa 5A030000 		.4byte	.LVL202
 2448 07fe 0100     		.2byte	0x1
 2449 0800 53       		.byte	0x53
 2450 0801 64030000 		.4byte	.LVL203
 2451 0805 66030000 		.4byte	.LVL204
 2452 0809 0100     		.2byte	0x1
 2453 080b 53       		.byte	0x53
 2454 080c 00000000 		.4byte	0x0
 2455 0810 00000000 		.4byte	0x0
 2456              	.LLST66:
 2457 0814 54030000 		.4byte	.LVL201
 2458 0818 5A030000 		.4byte	.LVL202
 2459 081c 0100     		.2byte	0x1
 2460 081e 53       		.byte	0x53
 2461 081f 70030000 		.4byte	.LVL205
 2462 0823 72030000 		.4byte	.LVL206
 2463 0827 0100     		.2byte	0x1
 2464 0829 53       		.byte	0x53
 2465 082a 00000000 		.4byte	0x0
 2466 082e 00000000 		.4byte	0x0
 2467              	.LLST67:
 2468 0832 54030000 		.4byte	.LVL201
 2469 0836 5A030000 		.4byte	.LVL202
 2470 083a 0100     		.2byte	0x1
 2471 083c 53       		.byte	0x53
 2472 083d 7C030000 		.4byte	.LVL207
 2473 0841 7E030000 		.4byte	.LVL208
 2474 0845 0100     		.2byte	0x1
 2475 0847 53       		.byte	0x53
 2476 0848 00000000 		.4byte	0x0
 2477 084c 00000000 		.4byte	0x0
 2478              	.LLST68:
 2479 0850 54030000 		.4byte	.LVL201
 2480 0854 5A030000 		.4byte	.LVL202
 2481 0858 0100     		.2byte	0x1
 2482 085a 53       		.byte	0x53
 2483 085b 92030000 		.4byte	.LVL209
 2484 085f 94030000 		.4byte	.LVL210
 2485 0863 0100     		.2byte	0x1
 2486 0865 53       		.byte	0x53
ARM GAS  C:\Users\DNIEL~1\AppData\Local\Temp\ccTDYczq.s 			page 45


 2487 0866 00000000 		.4byte	0x0
 2488 086a 00000000 		.4byte	0x0
 2489              	.LLST69:
 2490 086e 54030000 		.4byte	.LVL201
 2491 0872 5A030000 		.4byte	.LVL202
 2492 0876 0100     		.2byte	0x1
 2493 0878 53       		.byte	0x53
 2494 0879 9E030000 		.4byte	.LVL211
 2495 087d A0030000 		.4byte	.LVL212
 2496 0881 0100     		.2byte	0x1
 2497 0883 53       		.byte	0x53
 2498 0884 00000000 		.4byte	0x0
 2499 0888 00000000 		.4byte	0x0
 2500              	.LLST70:
 2501 088c 54030000 		.4byte	.LVL201
 2502 0890 5A030000 		.4byte	.LVL202
 2503 0894 0100     		.2byte	0x1
 2504 0896 53       		.byte	0x53
 2505 0897 AA030000 		.4byte	.LVL213
 2506 089b AC030000 		.4byte	.LVL214
 2507 089f 0100     		.2byte	0x1
 2508 08a1 53       		.byte	0x53
 2509 08a2 00000000 		.4byte	0x0
 2510 08a6 00000000 		.4byte	0x0
 2511              	.LLST71:
 2512 08aa 54030000 		.4byte	.LVL201
 2513 08ae 5A030000 		.4byte	.LVL202
 2514 08b2 0100     		.2byte	0x1
 2515 08b4 53       		.byte	0x53
 2516 08b5 B6030000 		.4byte	.LVL215
 2517 08b9 B8030000 		.4byte	.LFE10
 2518 08bd 0100     		.2byte	0x1
 2519 08bf 53       		.byte	0x53
 2520 08c0 00000000 		.4byte	0x0
 2521 08c4 00000000 		.4byte	0x0
 2522              	.LLST72:
 2523 08c8 00000000 		.4byte	.LFB8
 2524 08cc 02000000 		.4byte	.LCFI8
 2525 08d0 0200     		.2byte	0x2
 2526 08d2 7D       		.byte	0x7d
 2527 08d3 00       		.sleb128 0
 2528 08d4 02000000 		.4byte	.LCFI8
 2529 08d8 06000000 		.4byte	.LCFI9
 2530 08dc 0200     		.2byte	0x2
 2531 08de 7D       		.byte	0x7d
 2532 08df 08       		.sleb128 8
 2533 08e0 06000000 		.4byte	.LCFI9
 2534 08e4 28000000 		.4byte	.LFE8
 2535 08e8 0200     		.2byte	0x2
 2536 08ea 7D       		.byte	0x7d
 2537 08eb 10       		.sleb128 16
 2538 08ec 00000000 		.4byte	0x0
 2539 08f0 00000000 		.4byte	0x0
 2540              		.file 2 "c:\\program files (x86)\\codesourcery\\sourcery g++ lite\\bin\\../lib/gcc/arm-none-eabi/4
 2541              		.file 3 "c:\\program files (x86)\\codesourcery\\sourcery g++ lite\\bin\\../lib/gcc/arm-none-eabi/4
 2542              		.file 4 "../../../ChibiOS/os/ports/GCC/ARMCMx/chtypes.h"
 2543              		.file 5 "../../../ChibiOS/os/kernel/include/chlists.h"
ARM GAS  C:\Users\DNIEL~1\AppData\Local\Temp\ccTDYczq.s 			page 46


 2544              		.file 6 "../../../ChibiOS/os/kernel/include/chthreads.h"
 2545              		.file 7 "../../../ChibiOS/os/ports/GCC/ARMCMx/chcore_v7m.h"
 2546              		.file 8 "../../../ChibiOS/os/kernel/include/chschd.h"
 2547              		.file 9 "../../../ChibiOS/os/kernel/include/chmtx.h"
 2548              		.file 10 "../../../ChibiOS/os/kernel/include/chqueues.h"
 2549              		.file 11 "../../../ChibiOS/test/test.h"
 2550              		.section	.debug_info
 2551 0000 F80E0000 		.4byte	0xef8
 2552 0004 0200     		.2byte	0x2
 2553 0006 00000000 		.4byte	.Ldebug_abbrev0
 2554 000a 04       		.byte	0x4
 2555 000b 01       		.uleb128 0x1
 2556 000c E4030000 		.4byte	.LASF97
 2557 0010 01       		.byte	0x1
 2558 0011 22030000 		.4byte	.LASF98
 2559 0015 2E020000 		.4byte	.LASF99
 2560 0019 00000000 		.4byte	0x0
 2561 001d 00000000 		.4byte	0x0
 2562 0021 B0000000 		.4byte	.Ldebug_ranges0+0xb0
 2563 0025 00000000 		.4byte	.Ldebug_line0
 2564 0029 02       		.uleb128 0x2
 2565 002a 04       		.byte	0x4
 2566 002b 05       		.byte	0x5
 2567 002c 696E7400 		.ascii	"int\000"
 2568 0030 03       		.uleb128 0x3
 2569 0031 06000000 		.4byte	.LASF2
 2570 0035 02       		.byte	0x2
 2571 0036 D3       		.byte	0xd3
 2572 0037 3B000000 		.4byte	0x3b
 2573 003b 04       		.uleb128 0x4
 2574 003c 04       		.byte	0x4
 2575 003d 07       		.byte	0x7
 2576 003e FD000000 		.4byte	.LASF0
 2577 0042 04       		.uleb128 0x4
 2578 0043 01       		.byte	0x1
 2579 0044 06       		.byte	0x6
 2580 0045 89000000 		.4byte	.LASF1
 2581 0049 03       		.uleb128 0x3
 2582 004a D5030000 		.4byte	.LASF3
 2583 004e 03       		.byte	0x3
 2584 004f 2A       		.byte	0x2a
 2585 0050 54000000 		.4byte	0x54
 2586 0054 04       		.uleb128 0x4
 2587 0055 01       		.byte	0x1
 2588 0056 08       		.byte	0x8
 2589 0057 B9020000 		.4byte	.LASF4
 2590 005b 04       		.uleb128 0x4
 2591 005c 02       		.byte	0x2
 2592 005d 05       		.byte	0x5
 2593 005e D1020000 		.4byte	.LASF5
 2594 0062 04       		.uleb128 0x4
 2595 0063 02       		.byte	0x2
 2596 0064 07       		.byte	0x7
 2597 0065 32010000 		.4byte	.LASF6
 2598 0069 03       		.uleb128 0x3
 2599 006a B1020000 		.4byte	.LASF7
 2600 006e 03       		.byte	0x3
ARM GAS  C:\Users\DNIEL~1\AppData\Local\Temp\ccTDYczq.s 			page 47


 2601 006f 4F       		.byte	0x4f
 2602 0070 74000000 		.4byte	0x74
 2603 0074 04       		.uleb128 0x4
 2604 0075 04       		.byte	0x4
 2605 0076 05       		.byte	0x5
 2606 0077 B6000000 		.4byte	.LASF8
 2607 007b 03       		.uleb128 0x3
 2608 007c 50030000 		.4byte	.LASF9
 2609 0080 03       		.byte	0x3
 2610 0081 50       		.byte	0x50
 2611 0082 86000000 		.4byte	0x86
 2612 0086 04       		.uleb128 0x4
 2613 0087 04       		.byte	0x4
 2614 0088 07       		.byte	0x7
 2615 0089 0A010000 		.4byte	.LASF10
 2616 008d 04       		.uleb128 0x4
 2617 008e 08       		.byte	0x8
 2618 008f 05       		.byte	0x5
 2619 0090 7B000000 		.4byte	.LASF11
 2620 0094 03       		.uleb128 0x3
 2621 0095 14000000 		.4byte	.LASF12
 2622 0099 03       		.byte	0x3
 2623 009a 78       		.byte	0x78
 2624 009b 9F000000 		.4byte	0x9f
 2625 009f 04       		.uleb128 0x4
 2626 00a0 08       		.byte	0x8
 2627 00a1 07       		.byte	0x7
 2628 00a2 37000000 		.4byte	.LASF13
 2629 00a6 03       		.uleb128 0x3
 2630 00a7 9D000000 		.4byte	.LASF14
 2631 00ab 04       		.byte	0x4
 2632 00ac 27       		.byte	0x27
 2633 00ad 69000000 		.4byte	0x69
 2634 00b1 03       		.uleb128 0x3
 2635 00b2 67010000 		.4byte	.LASF15
 2636 00b6 04       		.byte	0x4
 2637 00b7 28       		.byte	0x28
 2638 00b8 49000000 		.4byte	0x49
 2639 00bc 03       		.uleb128 0x3
 2640 00bd BF000000 		.4byte	.LASF16
 2641 00c1 04       		.byte	0x4
 2642 00c2 29       		.byte	0x29
 2643 00c3 49000000 		.4byte	0x49
 2644 00c7 03       		.uleb128 0x3
 2645 00c8 80020000 		.4byte	.LASF17
 2646 00cc 04       		.byte	0x4
 2647 00cd 2A       		.byte	0x2a
 2648 00ce 49000000 		.4byte	0x49
 2649 00d2 03       		.uleb128 0x3
 2650 00d3 AC000000 		.4byte	.LASF18
 2651 00d7 04       		.byte	0x4
 2652 00d8 2B       		.byte	0x2b
 2653 00d9 49000000 		.4byte	0x49
 2654 00dd 03       		.uleb128 0x3
 2655 00de A1020000 		.4byte	.LASF19
 2656 00e2 04       		.byte	0x4
 2657 00e3 2C       		.byte	0x2c
ARM GAS  C:\Users\DNIEL~1\AppData\Local\Temp\ccTDYczq.s 			page 48


 2658 00e4 7B000000 		.4byte	0x7b
 2659 00e8 03       		.uleb128 0x3
 2660 00e9 61010000 		.4byte	.LASF20
 2661 00ed 04       		.byte	0x4
 2662 00ee 2D       		.byte	0x2d
 2663 00ef 69000000 		.4byte	0x69
 2664 00f3 03       		.uleb128 0x3
 2665 00f4 7B010000 		.4byte	.LASF21
 2666 00f8 04       		.byte	0x4
 2667 00f9 2F       		.byte	0x2f
 2668 00fa 7B000000 		.4byte	0x7b
 2669 00fe 03       		.uleb128 0x3
 2670 00ff 7A030000 		.4byte	.LASF22
 2671 0103 04       		.byte	0x4
 2672 0104 31       		.byte	0x31
 2673 0105 7B000000 		.4byte	0x7b
 2674 0109 03       		.uleb128 0x3
 2675 010a 12030000 		.4byte	.LASF23
 2676 010e 05       		.byte	0x5
 2677 010f 23       		.byte	0x23
 2678 0110 14010000 		.4byte	0x114
 2679 0114 05       		.uleb128 0x5
 2680 0115 12030000 		.4byte	.LASF23
 2681 0119 4C       		.byte	0x4c
 2682 011a 06       		.byte	0x6
 2683 011b 57       		.byte	0x57
 2684 011c 47020000 		.4byte	0x247
 2685 0120 06       		.uleb128 0x6
 2686 0121 03030000 		.4byte	.LASF24
 2687 0125 06       		.byte	0x6
 2688 0126 58       		.byte	0x58
 2689 0127 6C020000 		.4byte	0x26c
 2690 012b 02       		.byte	0x2
 2691 012c 23       		.byte	0x23
 2692 012d 00       		.uleb128 0x0
 2693 012e 06       		.uleb128 0x6
 2694 012f 92020000 		.4byte	.LASF25
 2695 0133 06       		.byte	0x6
 2696 0134 5A       		.byte	0x5a
 2697 0135 6C020000 		.4byte	0x26c
 2698 0139 02       		.byte	0x2
 2699 013a 23       		.byte	0x23
 2700 013b 04       		.uleb128 0x4
 2701 013c 06       		.uleb128 0x6
 2702 013d 6A000000 		.4byte	.LASF26
 2703 0141 06       		.byte	0x6
 2704 0142 5C       		.byte	0x5c
 2705 0143 DD000000 		.4byte	0xdd
 2706 0147 02       		.byte	0x2
 2707 0148 23       		.byte	0x23
 2708 0149 08       		.uleb128 0x8
 2709 014a 06       		.uleb128 0x6
 2710 014b 06040000 		.4byte	.LASF27
 2711 014f 06       		.byte	0x6
 2712 0150 5D       		.byte	0x5d
 2713 0151 45030000 		.4byte	0x345
 2714 0155 02       		.byte	0x2
ARM GAS  C:\Users\DNIEL~1\AppData\Local\Temp\ccTDYczq.s 			page 49


 2715 0156 23       		.byte	0x23
 2716 0157 0C       		.uleb128 0xc
 2717 0158 06       		.uleb128 0x6
 2718 0159 D9000000 		.4byte	.LASF28
 2719 015d 06       		.byte	0x6
 2720 015e 5F       		.byte	0x5f
 2721 015f 6C020000 		.4byte	0x26c
 2722 0163 02       		.byte	0x2
 2723 0164 23       		.byte	0x23
 2724 0165 10       		.uleb128 0x10
 2725 0166 06       		.uleb128 0x6
 2726 0167 DD010000 		.4byte	.LASF29
 2727 016b 06       		.byte	0x6
 2728 016c 60       		.byte	0x60
 2729 016d 6C020000 		.4byte	0x26c
 2730 0171 02       		.byte	0x2
 2731 0172 23       		.byte	0x23
 2732 0173 14       		.uleb128 0x14
 2733 0174 06       		.uleb128 0x6
 2734 0175 F0030000 		.4byte	.LASF30
 2735 0179 06       		.byte	0x6
 2736 017a 67       		.byte	0x67
 2737 017b 52040000 		.4byte	0x452
 2738 017f 02       		.byte	0x2
 2739 0180 23       		.byte	0x23
 2740 0181 18       		.uleb128 0x18
 2741 0182 06       		.uleb128 0x6
 2742 0183 F2000000 		.4byte	.LASF31
 2743 0187 06       		.byte	0x6
 2744 0188 6D       		.byte	0x6d
 2745 0189 64040000 		.4byte	0x464
 2746 018d 02       		.byte	0x2
 2747 018e 23       		.byte	0x23
 2748 018f 1C       		.uleb128 0x1c
 2749 0190 06       		.uleb128 0x6
 2750 0191 DB020000 		.4byte	.LASF32
 2751 0195 06       		.byte	0x6
 2752 0196 72       		.byte	0x72
 2753 0197 BC000000 		.4byte	0xbc
 2754 019b 02       		.byte	0x2
 2755 019c 23       		.byte	0x23
 2756 019d 20       		.uleb128 0x20
 2757 019e 06       		.uleb128 0x6
 2758 019f 0A030000 		.4byte	.LASF33
 2759 01a3 06       		.byte	0x6
 2760 01a4 76       		.byte	0x76
 2761 01a5 B1000000 		.4byte	0xb1
 2762 01a9 02       		.byte	0x2
 2763 01aa 23       		.byte	0x23
 2764 01ab 21       		.uleb128 0x21
 2765 01ac 06       		.uleb128 0x6
 2766 01ad B5030000 		.4byte	.LASF34
 2767 01b1 06       		.byte	0x6
 2768 01b2 7B       		.byte	0x7b
 2769 01b3 C7000000 		.4byte	0xc7
 2770 01b7 02       		.byte	0x2
 2771 01b8 23       		.byte	0x23
ARM GAS  C:\Users\DNIEL~1\AppData\Local\Temp\ccTDYczq.s 			page 50


 2772 01b9 22       		.uleb128 0x22
 2773 01ba 06       		.uleb128 0x6
 2774 01bb E3020000 		.4byte	.LASF35
 2775 01bf 06       		.byte	0x6
 2776 01c0 81       		.byte	0x81
 2777 01c1 D2000000 		.4byte	0xd2
 2778 01c5 02       		.byte	0x2
 2779 01c6 23       		.byte	0x23
 2780 01c7 23       		.uleb128 0x23
 2781 01c8 06       		.uleb128 0x6
 2782 01c9 96030000 		.4byte	.LASF36
 2783 01cd 06       		.byte	0x6
 2784 01ce 88       		.byte	0x88
 2785 01cf 68030000 		.4byte	0x368
 2786 01d3 02       		.byte	0x2
 2787 01d4 23       		.byte	0x23
 2788 01d5 24       		.uleb128 0x24
 2789 01d6 07       		.uleb128 0x7
 2790 01d7 705F7500 		.ascii	"p_u\000"
 2791 01db 06       		.byte	0x6
 2792 01dc AD       		.byte	0xad
 2793 01dd 1D040000 		.4byte	0x41d
 2794 01e1 02       		.byte	0x2
 2795 01e2 23       		.byte	0x23
 2796 01e3 28       		.uleb128 0x28
 2797 01e4 06       		.uleb128 0x6
 2798 01e5 0C040000 		.4byte	.LASF37
 2799 01e9 06       		.byte	0x6
 2800 01ea B2       		.byte	0xb2
 2801 01eb 94020000 		.4byte	0x294
 2802 01ef 02       		.byte	0x2
 2803 01f0 23       		.byte	0x23
 2804 01f1 2C       		.uleb128 0x2c
 2805 01f2 06       		.uleb128 0x6
 2806 01f3 A4030000 		.4byte	.LASF38
 2807 01f7 06       		.byte	0x6
 2808 01f8 B8       		.byte	0xb8
 2809 01f9 72020000 		.4byte	0x272
 2810 01fd 02       		.byte	0x2
 2811 01fe 23       		.byte	0x23
 2812 01ff 30       		.uleb128 0x30
 2813 0200 06       		.uleb128 0x6
 2814 0201 00000000 		.4byte	.LASF39
 2815 0205 06       		.byte	0x6
 2816 0206 BC       		.byte	0xbc
 2817 0207 E8000000 		.4byte	0xe8
 2818 020b 02       		.byte	0x2
 2819 020c 23       		.byte	0x23
 2820 020d 38       		.uleb128 0x38
 2821 020e 06       		.uleb128 0x6
 2822 020f 45030000 		.4byte	.LASF40
 2823 0213 06       		.byte	0x6
 2824 0214 C2       		.byte	0xc2
 2825 0215 F3000000 		.4byte	0xf3
 2826 0219 02       		.byte	0x2
 2827 021a 23       		.byte	0x23
 2828 021b 3C       		.uleb128 0x3c
ARM GAS  C:\Users\DNIEL~1\AppData\Local\Temp\ccTDYczq.s 			page 51


 2829 021c 06       		.uleb128 0x6
 2830 021d C7020000 		.4byte	.LASF41
 2831 0221 06       		.byte	0x6
 2832 0222 C9       		.byte	0xc9
 2833 0223 6A040000 		.4byte	0x46a
 2834 0227 02       		.byte	0x2
 2835 0228 23       		.byte	0x23
 2836 0229 40       		.uleb128 0x40
 2837 022a 06       		.uleb128 0x6
 2838 022b 84030000 		.4byte	.LASF42
 2839 022f 06       		.byte	0x6
 2840 0230 CD       		.byte	0xcd
 2841 0231 DD000000 		.4byte	0xdd
 2842 0235 02       		.byte	0x2
 2843 0236 23       		.byte	0x23
 2844 0237 44       		.uleb128 0x44
 2845 0238 06       		.uleb128 0x6
 2846 0239 95000000 		.4byte	.LASF43
 2847 023d 06       		.byte	0x6
 2848 023e D3       		.byte	0xd3
 2849 023f AA020000 		.4byte	0x2aa
 2850 0243 02       		.byte	0x2
 2851 0244 23       		.byte	0x23
 2852 0245 48       		.uleb128 0x48
 2853 0246 00       		.byte	0x0
 2854 0247 08       		.uleb128 0x8
 2855 0248 08       		.byte	0x8
 2856 0249 05       		.byte	0x5
 2857 024a 5A       		.byte	0x5a
 2858 024b 6C020000 		.4byte	0x26c
 2859 024f 06       		.uleb128 0x6
 2860 0250 03030000 		.4byte	.LASF24
 2861 0254 05       		.byte	0x5
 2862 0255 5B       		.byte	0x5b
 2863 0256 6C020000 		.4byte	0x26c
 2864 025a 02       		.byte	0x2
 2865 025b 23       		.byte	0x23
 2866 025c 00       		.uleb128 0x0
 2867 025d 06       		.uleb128 0x6
 2868 025e 92020000 		.4byte	.LASF25
 2869 0262 05       		.byte	0x5
 2870 0263 5D       		.byte	0x5d
 2871 0264 6C020000 		.4byte	0x26c
 2872 0268 02       		.byte	0x2
 2873 0269 23       		.byte	0x23
 2874 026a 04       		.uleb128 0x4
 2875 026b 00       		.byte	0x0
 2876 026c 09       		.uleb128 0x9
 2877 026d 04       		.byte	0x4
 2878 026e 09010000 		.4byte	0x109
 2879 0272 03       		.uleb128 0x3
 2880 0273 FB010000 		.4byte	.LASF44
 2881 0277 05       		.byte	0x5
 2882 0278 5F       		.byte	0x5f
 2883 0279 47020000 		.4byte	0x247
 2884 027d 08       		.uleb128 0x8
 2885 027e 04       		.byte	0x4
ARM GAS  C:\Users\DNIEL~1\AppData\Local\Temp\ccTDYczq.s 			page 52


 2886 027f 05       		.byte	0x5
 2887 0280 64       		.byte	0x64
 2888 0281 94020000 		.4byte	0x294
 2889 0285 06       		.uleb128 0x6
 2890 0286 03030000 		.4byte	.LASF24
 2891 028a 05       		.byte	0x5
 2892 028b 66       		.byte	0x66
 2893 028c 6C020000 		.4byte	0x26c
 2894 0290 02       		.byte	0x2
 2895 0291 23       		.byte	0x23
 2896 0292 00       		.uleb128 0x0
 2897 0293 00       		.byte	0x0
 2898 0294 03       		.uleb128 0x3
 2899 0295 6F010000 		.4byte	.LASF45
 2900 0299 05       		.byte	0x5
 2901 029a 69       		.byte	0x69
 2902 029b 7D020000 		.4byte	0x27d
 2903 029f 03       		.uleb128 0x3
 2904 02a0 E9000000 		.4byte	.LASF46
 2905 02a4 07       		.byte	0x7
 2906 02a5 DE       		.byte	0xde
 2907 02a6 AA020000 		.4byte	0x2aa
 2908 02aa 0A       		.uleb128 0xa
 2909 02ab 04       		.byte	0x4
 2910 02ac 03       		.uleb128 0x3
 2911 02ad A5010000 		.4byte	.LASF47
 2912 02b1 07       		.byte	0x7
 2913 02b2 E4       		.byte	0xe4
 2914 02b3 94000000 		.4byte	0x94
 2915 02b7 0B       		.uleb128 0xb
 2916 02b8 9D030000 		.4byte	.LASF48
 2917 02bc 24       		.byte	0x24
 2918 02bd 07       		.byte	0x7
 2919 02be 0501     		.2byte	0x105
 2920 02c0 45030000 		.4byte	0x345
 2921 02c4 0C       		.uleb128 0xc
 2922 02c5 723400   		.ascii	"r4\000"
 2923 02c8 07       		.byte	0x7
 2924 02c9 1801     		.2byte	0x118
 2925 02cb 9F020000 		.4byte	0x29f
 2926 02cf 02       		.byte	0x2
 2927 02d0 23       		.byte	0x23
 2928 02d1 00       		.uleb128 0x0
 2929 02d2 0C       		.uleb128 0xc
 2930 02d3 723500   		.ascii	"r5\000"
 2931 02d6 07       		.byte	0x7
 2932 02d7 1901     		.2byte	0x119
 2933 02d9 9F020000 		.4byte	0x29f
 2934 02dd 02       		.byte	0x2
 2935 02de 23       		.byte	0x23
 2936 02df 04       		.uleb128 0x4
 2937 02e0 0C       		.uleb128 0xc
 2938 02e1 723600   		.ascii	"r6\000"
 2939 02e4 07       		.byte	0x7
 2940 02e5 1A01     		.2byte	0x11a
 2941 02e7 9F020000 		.4byte	0x29f
 2942 02eb 02       		.byte	0x2
ARM GAS  C:\Users\DNIEL~1\AppData\Local\Temp\ccTDYczq.s 			page 53


 2943 02ec 23       		.byte	0x23
 2944 02ed 08       		.uleb128 0x8
 2945 02ee 0C       		.uleb128 0xc
 2946 02ef 723700   		.ascii	"r7\000"
 2947 02f2 07       		.byte	0x7
 2948 02f3 1B01     		.2byte	0x11b
 2949 02f5 9F020000 		.4byte	0x29f
 2950 02f9 02       		.byte	0x2
 2951 02fa 23       		.byte	0x23
 2952 02fb 0C       		.uleb128 0xc
 2953 02fc 0C       		.uleb128 0xc
 2954 02fd 723800   		.ascii	"r8\000"
 2955 0300 07       		.byte	0x7
 2956 0301 1C01     		.2byte	0x11c
 2957 0303 9F020000 		.4byte	0x29f
 2958 0307 02       		.byte	0x2
 2959 0308 23       		.byte	0x23
 2960 0309 10       		.uleb128 0x10
 2961 030a 0C       		.uleb128 0xc
 2962 030b 723900   		.ascii	"r9\000"
 2963 030e 07       		.byte	0x7
 2964 030f 1D01     		.2byte	0x11d
 2965 0311 9F020000 		.4byte	0x29f
 2966 0315 02       		.byte	0x2
 2967 0316 23       		.byte	0x23
 2968 0317 14       		.uleb128 0x14
 2969 0318 0C       		.uleb128 0xc
 2970 0319 72313000 		.ascii	"r10\000"
 2971 031d 07       		.byte	0x7
 2972 031e 1E01     		.2byte	0x11e
 2973 0320 9F020000 		.4byte	0x29f
 2974 0324 02       		.byte	0x2
 2975 0325 23       		.byte	0x23
 2976 0326 18       		.uleb128 0x18
 2977 0327 0C       		.uleb128 0xc
 2978 0328 72313100 		.ascii	"r11\000"
 2979 032c 07       		.byte	0x7
 2980 032d 1F01     		.2byte	0x11f
 2981 032f 9F020000 		.4byte	0x29f
 2982 0333 02       		.byte	0x2
 2983 0334 23       		.byte	0x23
 2984 0335 1C       		.uleb128 0x1c
 2985 0336 0C       		.uleb128 0xc
 2986 0337 6C7200   		.ascii	"lr\000"
 2987 033a 07       		.byte	0x7
 2988 033b 2001     		.2byte	0x120
 2989 033d 9F020000 		.4byte	0x29f
 2990 0341 02       		.byte	0x2
 2991 0342 23       		.byte	0x23
 2992 0343 20       		.uleb128 0x20
 2993 0344 00       		.byte	0x0
 2994 0345 0B       		.uleb128 0xb
 2995 0346 2A010000 		.4byte	.LASF49
 2996 034a 04       		.byte	0x4
 2997 034b 07       		.byte	0x7
 2998 034c 2A01     		.2byte	0x12a
 2999 034e 62030000 		.4byte	0x362
ARM GAS  C:\Users\DNIEL~1\AppData\Local\Temp\ccTDYczq.s 			page 54


 3000 0352 0C       		.uleb128 0xc
 3001 0353 72313300 		.ascii	"r13\000"
 3002 0357 07       		.byte	0x7
 3003 0358 2B01     		.2byte	0x12b
 3004 035a 62030000 		.4byte	0x362
 3005 035e 02       		.byte	0x2
 3006 035f 23       		.byte	0x23
 3007 0360 00       		.uleb128 0x0
 3008 0361 00       		.byte	0x0
 3009 0362 09       		.uleb128 0x9
 3010 0363 04       		.byte	0x4
 3011 0364 B7020000 		.4byte	0x2b7
 3012 0368 0D       		.uleb128 0xd
 3013 0369 FE000000 		.4byte	0xfe
 3014 036d 08       		.uleb128 0x8
 3015 036e 1C       		.byte	0x1c
 3016 036f 08       		.byte	0x8
 3017 0370 57       		.byte	0x57
 3018 0371 CA030000 		.4byte	0x3ca
 3019 0375 06       		.uleb128 0x6
 3020 0376 59030000 		.4byte	.LASF50
 3021 037a 08       		.byte	0x8
 3022 037b 58       		.byte	0x58
 3023 037c 72020000 		.4byte	0x272
 3024 0380 02       		.byte	0x2
 3025 0381 23       		.byte	0x23
 3026 0382 00       		.uleb128 0x0
 3027 0383 06       		.uleb128 0x6
 3028 0384 F5020000 		.4byte	.LASF51
 3029 0388 08       		.byte	0x8
 3030 0389 59       		.byte	0x59
 3031 038a DD000000 		.4byte	0xdd
 3032 038e 02       		.byte	0x2
 3033 038f 23       		.byte	0x23
 3034 0390 08       		.uleb128 0x8
 3035 0391 06       		.uleb128 0x6
 3036 0392 F5010000 		.4byte	.LASF52
 3037 0396 08       		.byte	0x8
 3038 0397 5B       		.byte	0x5b
 3039 0398 45030000 		.4byte	0x345
 3040 039c 02       		.byte	0x2
 3041 039d 23       		.byte	0x23
 3042 039e 0C       		.uleb128 0xc
 3043 039f 06       		.uleb128 0x6
 3044 03a0 E1000000 		.4byte	.LASF53
 3045 03a4 08       		.byte	0x8
 3046 03a5 5E       		.byte	0x5e
 3047 03a6 6C020000 		.4byte	0x26c
 3048 03aa 02       		.byte	0x2
 3049 03ab 23       		.byte	0x23
 3050 03ac 10       		.uleb128 0x10
 3051 03ad 06       		.uleb128 0x6
 3052 03ae 18020000 		.4byte	.LASF54
 3053 03b2 08       		.byte	0x8
 3054 03b3 5F       		.byte	0x5f
 3055 03b4 6C020000 		.4byte	0x26c
 3056 03b8 02       		.byte	0x2
ARM GAS  C:\Users\DNIEL~1\AppData\Local\Temp\ccTDYczq.s 			page 55


 3057 03b9 23       		.byte	0x23
 3058 03ba 14       		.uleb128 0x14
 3059 03bb 06       		.uleb128 0x6
 3060 03bc 0E020000 		.4byte	.LASF55
 3061 03c0 08       		.byte	0x8
 3062 03c1 62       		.byte	0x62
 3063 03c2 6C020000 		.4byte	0x26c
 3064 03c6 02       		.byte	0x2
 3065 03c7 23       		.byte	0x23
 3066 03c8 18       		.uleb128 0x18
 3067 03c9 00       		.byte	0x0
 3068 03ca 03       		.uleb128 0x3
 3069 03cb BC030000 		.4byte	.LASF56
 3070 03cf 08       		.byte	0x8
 3071 03d0 64       		.byte	0x64
 3072 03d1 6D030000 		.4byte	0x36d
 3073 03d5 05       		.uleb128 0x5
 3074 03d6 92010000 		.4byte	.LASF57
 3075 03da 10       		.byte	0x10
 3076 03db 09       		.byte	0x9
 3077 03dc 25       		.byte	0x25
 3078 03dd 0C040000 		.4byte	0x40c
 3079 03e1 06       		.uleb128 0x6
 3080 03e2 A4000000 		.4byte	.LASF58
 3081 03e6 09       		.byte	0x9
 3082 03e7 26       		.byte	0x26
 3083 03e8 72020000 		.4byte	0x272
 3084 03ec 02       		.byte	0x2
 3085 03ed 23       		.byte	0x23
 3086 03ee 00       		.uleb128 0x0
 3087 03ef 06       		.uleb128 0x6
 3088 03f0 FE030000 		.4byte	.LASF59
 3089 03f4 09       		.byte	0x9
 3090 03f5 28       		.byte	0x28
 3091 03f6 6C020000 		.4byte	0x26c
 3092 03fa 02       		.byte	0x2
 3093 03fb 23       		.byte	0x23
 3094 03fc 08       		.uleb128 0x8
 3095 03fd 06       		.uleb128 0x6
 3096 03fe 73030000 		.4byte	.LASF60
 3097 0402 09       		.byte	0x9
 3098 0403 2A       		.byte	0x2a
 3099 0404 0C040000 		.4byte	0x40c
 3100 0408 02       		.byte	0x2
 3101 0409 23       		.byte	0x23
 3102 040a 0C       		.uleb128 0xc
 3103 040b 00       		.byte	0x0
 3104 040c 09       		.uleb128 0x9
 3105 040d 04       		.byte	0x4
 3106 040e D5030000 		.4byte	0x3d5
 3107 0412 03       		.uleb128 0x3
 3108 0413 92010000 		.4byte	.LASF57
 3109 0417 09       		.byte	0x9
 3110 0418 2C       		.byte	0x2c
 3111 0419 D5030000 		.4byte	0x3d5
 3112 041d 0E       		.uleb128 0xe
 3113 041e 04       		.byte	0x4
ARM GAS  C:\Users\DNIEL~1\AppData\Local\Temp\ccTDYczq.s 			page 56


 3114 041f 06       		.byte	0x6
 3115 0420 8F       		.byte	0x8f
 3116 0421 52040000 		.4byte	0x452
 3117 0425 0F       		.uleb128 0xf
 3118 0426 0D000000 		.4byte	.LASF61
 3119 042a 06       		.byte	0x6
 3120 042b 96       		.byte	0x96
 3121 042c E8000000 		.4byte	0xe8
 3122 0430 0F       		.uleb128 0xf
 3123 0431 4E000000 		.4byte	.LASF62
 3124 0435 06       		.byte	0x6
 3125 0436 9D       		.byte	0x9d
 3126 0437 E8000000 		.4byte	0xe8
 3127 043b 0F       		.uleb128 0xf
 3128 043c DD030000 		.4byte	.LASF63
 3129 0440 06       		.byte	0x6
 3130 0441 A4       		.byte	0xa4
 3131 0442 AA020000 		.4byte	0x2aa
 3132 0446 0F       		.uleb128 0xf
 3133 0447 FC020000 		.4byte	.LASF64
 3134 044b 06       		.byte	0x6
 3135 044c AB       		.byte	0xab
 3136 044d F3000000 		.4byte	0xf3
 3137 0451 00       		.byte	0x0
 3138 0452 09       		.uleb128 0x9
 3139 0453 04       		.byte	0x4
 3140 0454 58040000 		.4byte	0x458
 3141 0458 10       		.uleb128 0x10
 3142 0459 5D040000 		.4byte	0x45d
 3143 045d 04       		.uleb128 0x4
 3144 045e 01       		.byte	0x1
 3145 045f 08       		.byte	0x8
 3146 0460 61030000 		.4byte	.LASF65
 3147 0464 09       		.uleb128 0x9
 3148 0465 04       		.byte	0x4
 3149 0466 AC020000 		.4byte	0x2ac
 3150 046a 09       		.uleb128 0x9
 3151 046b 04       		.byte	0x4
 3152 046c 12040000 		.4byte	0x412
 3153 0470 03       		.uleb128 0x3
 3154 0471 98010000 		.4byte	.LASF66
 3155 0475 0A       		.byte	0xa
 3156 0476 30       		.byte	0x30
 3157 0477 7B040000 		.4byte	0x47b
 3158 047b 05       		.uleb128 0x5
 3159 047c 98010000 		.4byte	.LASF66
 3160 0480 24       		.byte	0x24
 3161 0481 0A       		.byte	0xa
 3162 0482 3E       		.byte	0x3e
 3163 0483 F8040000 		.4byte	0x4f8
 3164 0487 06       		.uleb128 0x6
 3165 0488 71000000 		.4byte	.LASF67
 3166 048c 0A       		.byte	0xa
 3167 048d 3F       		.byte	0x3f
 3168 048e 72020000 		.4byte	0x272
 3169 0492 02       		.byte	0x2
 3170 0493 23       		.byte	0x23
ARM GAS  C:\Users\DNIEL~1\AppData\Local\Temp\ccTDYczq.s 			page 57


 3171 0494 00       		.uleb128 0x0
 3172 0495 06       		.uleb128 0x6
 3173 0496 C7010000 		.4byte	.LASF68
 3174 049a 0A       		.byte	0xa
 3175 049b 40       		.byte	0x40
 3176 049c 30000000 		.4byte	0x30
 3177 04a0 02       		.byte	0x2
 3178 04a1 23       		.byte	0x23
 3179 04a2 08       		.uleb128 0x8
 3180 04a3 06       		.uleb128 0x6
 3181 04a4 C8000000 		.4byte	.LASF69
 3182 04a8 0A       		.byte	0xa
 3183 04a9 41       		.byte	0x41
 3184 04aa 1B050000 		.4byte	0x51b
 3185 04ae 02       		.byte	0x2
 3186 04af 23       		.byte	0x23
 3187 04b0 0C       		.uleb128 0xc
 3188 04b1 06       		.uleb128 0x6
 3189 04b2 AF030000 		.4byte	.LASF70
 3190 04b6 0A       		.byte	0xa
 3191 04b7 42       		.byte	0x42
 3192 04b8 1B050000 		.4byte	0x51b
 3193 04bc 02       		.byte	0x2
 3194 04bd 23       		.byte	0x23
 3195 04be 10       		.uleb128 0x10
 3196 04bf 06       		.uleb128 0x6
 3197 04c0 D1000000 		.4byte	.LASF71
 3198 04c4 0A       		.byte	0xa
 3199 04c5 44       		.byte	0x44
 3200 04c6 1B050000 		.4byte	0x51b
 3201 04ca 02       		.byte	0x2
 3202 04cb 23       		.byte	0x23
 3203 04cc 14       		.uleb128 0x14
 3204 04cd 06       		.uleb128 0x6
 3205 04ce A9020000 		.4byte	.LASF72
 3206 04d2 0A       		.byte	0xa
 3207 04d3 45       		.byte	0x45
 3208 04d4 1B050000 		.4byte	0x51b
 3209 04d8 02       		.byte	0x2
 3210 04d9 23       		.byte	0x23
 3211 04da 18       		.uleb128 0x18
 3212 04db 06       		.uleb128 0x6
 3213 04dc C6030000 		.4byte	.LASF73
 3214 04e0 0A       		.byte	0xa
 3215 04e1 46       		.byte	0x46
 3216 04e2 F8040000 		.4byte	0x4f8
 3217 04e6 02       		.byte	0x2
 3218 04e7 23       		.byte	0x23
 3219 04e8 1C       		.uleb128 0x1c
 3220 04e9 06       		.uleb128 0x6
 3221 04ea F7030000 		.4byte	.LASF74
 3222 04ee 0A       		.byte	0xa
 3223 04ef 47       		.byte	0x47
 3224 04f0 AA020000 		.4byte	0x2aa
 3225 04f4 02       		.byte	0x2
 3226 04f5 23       		.byte	0x23
 3227 04f6 20       		.uleb128 0x20
ARM GAS  C:\Users\DNIEL~1\AppData\Local\Temp\ccTDYczq.s 			page 58


 3228 04f7 00       		.byte	0x0
 3229 04f8 03       		.uleb128 0x3
 3230 04f9 88020000 		.4byte	.LASF75
 3231 04fd 0A       		.byte	0xa
 3232 04fe 33       		.byte	0x33
 3233 04ff 03050000 		.4byte	0x503
 3234 0503 09       		.uleb128 0x9
 3235 0504 04       		.byte	0x4
 3236 0505 09050000 		.4byte	0x509
 3237 0509 11       		.uleb128 0x11
 3238 050a 01       		.byte	0x1
 3239 050b 15050000 		.4byte	0x515
 3240 050f 12       		.uleb128 0x12
 3241 0510 15050000 		.4byte	0x515
 3242 0514 00       		.byte	0x0
 3243 0515 09       		.uleb128 0x9
 3244 0516 04       		.byte	0x4
 3245 0517 70040000 		.4byte	0x470
 3246 051b 09       		.uleb128 0x9
 3247 051c 04       		.byte	0x4
 3248 051d 49000000 		.4byte	0x49
 3249 0521 03       		.uleb128 0x3
 3250 0522 87010000 		.4byte	.LASF76
 3251 0526 0A       		.byte	0xa
 3252 0527 7B       		.byte	0x7b
 3253 0528 70040000 		.4byte	0x470
 3254 052c 03       		.uleb128 0x3
 3255 052d 1D000000 		.4byte	.LASF77
 3256 0531 0A       		.byte	0xa
 3257 0532 EE       		.byte	0xee
 3258 0533 70040000 		.4byte	0x470
 3259 0537 05       		.uleb128 0x5
 3260 0538 19030000 		.4byte	.LASF78
 3261 053c 10       		.byte	0x10
 3262 053d 0B       		.byte	0xb
 3263 053e 3F       		.byte	0x3f
 3264 053f 7C050000 		.4byte	0x57c
 3265 0543 06       		.uleb128 0x6
 3266 0544 25010000 		.4byte	.LASF79
 3267 0548 0B       		.byte	0xb
 3268 0549 40       		.byte	0x40
 3269 054a 52040000 		.4byte	0x452
 3270 054e 02       		.byte	0x2
 3271 054f 23       		.byte	0x23
 3272 0550 00       		.uleb128 0x0
 3273 0551 06       		.uleb128 0x6
 3274 0552 08020000 		.4byte	.LASF80
 3275 0556 0B       		.byte	0xb
 3276 0557 41       		.byte	0x41
 3277 0558 7E050000 		.4byte	0x57e
 3278 055c 02       		.byte	0x2
 3279 055d 23       		.byte	0x23
 3280 055e 04       		.uleb128 0x4
 3281 055f 06       		.uleb128 0x6
 3282 0560 1C010000 		.4byte	.LASF81
 3283 0564 0B       		.byte	0xb
 3284 0565 42       		.byte	0x42
ARM GAS  C:\Users\DNIEL~1\AppData\Local\Temp\ccTDYczq.s 			page 59


 3285 0566 7E050000 		.4byte	0x57e
 3286 056a 02       		.byte	0x2
 3287 056b 23       		.byte	0x23
 3288 056c 08       		.uleb128 0x8
 3289 056d 06       		.uleb128 0x6
 3290 056e 99020000 		.4byte	.LASF82
 3291 0572 0B       		.byte	0xb
 3292 0573 43       		.byte	0x43
 3293 0574 7E050000 		.4byte	0x57e
 3294 0578 02       		.byte	0x2
 3295 0579 23       		.byte	0x23
 3296 057a 0C       		.uleb128 0xc
 3297 057b 00       		.byte	0x0
 3298 057c 13       		.uleb128 0x13
 3299 057d 01       		.byte	0x1
 3300 057e 09       		.uleb128 0x9
 3301 057f 04       		.byte	0x4
 3302 0580 7C050000 		.4byte	0x57c
 3303 0584 14       		.uleb128 0x14
 3304 0585 F005     		.2byte	0x5f0
 3305 0587 0B       		.byte	0xb
 3306 0588 48       		.byte	0x48
 3307 0589 D3050000 		.4byte	0x5d3
 3308 058d 07       		.uleb128 0x7
 3309 058e 543000   		.ascii	"T0\000"
 3310 0591 0B       		.byte	0xb
 3311 0592 49       		.byte	0x49
 3312 0593 D3050000 		.4byte	0x5d3
 3313 0597 02       		.byte	0x2
 3314 0598 23       		.byte	0x23
 3315 0599 00       		.uleb128 0x0
 3316 059a 07       		.uleb128 0x7
 3317 059b 543100   		.ascii	"T1\000"
 3318 059e 0B       		.byte	0xb
 3319 059f 4A       		.byte	0x4a
 3320 05a0 D3050000 		.4byte	0x5d3
 3321 05a4 03       		.byte	0x3
 3322 05a5 23       		.byte	0x23
 3323 05a6 B002     		.uleb128 0x130
 3324 05a8 07       		.uleb128 0x7
 3325 05a9 543200   		.ascii	"T2\000"
 3326 05ac 0B       		.byte	0xb
 3327 05ad 4B       		.byte	0x4b
 3328 05ae D3050000 		.4byte	0x5d3
 3329 05b2 03       		.byte	0x3
 3330 05b3 23       		.byte	0x23
 3331 05b4 E004     		.uleb128 0x260
 3332 05b6 07       		.uleb128 0x7
 3333 05b7 543300   		.ascii	"T3\000"
 3334 05ba 0B       		.byte	0xb
 3335 05bb 4C       		.byte	0x4c
 3336 05bc D3050000 		.4byte	0x5d3
 3337 05c0 03       		.byte	0x3
 3338 05c1 23       		.byte	0x23
 3339 05c2 9007     		.uleb128 0x390
 3340 05c4 07       		.uleb128 0x7
 3341 05c5 543400   		.ascii	"T4\000"
ARM GAS  C:\Users\DNIEL~1\AppData\Local\Temp\ccTDYczq.s 			page 60


 3342 05c8 0B       		.byte	0xb
 3343 05c9 4D       		.byte	0x4d
 3344 05ca D3050000 		.4byte	0x5d3
 3345 05ce 03       		.byte	0x3
 3346 05cf 23       		.byte	0x23
 3347 05d0 C009     		.uleb128 0x4c0
 3348 05d2 00       		.byte	0x0
 3349 05d3 15       		.uleb128 0x15
 3350 05d4 AC020000 		.4byte	0x2ac
 3351 05d8 E3050000 		.4byte	0x5e3
 3352 05dc 16       		.uleb128 0x16
 3353 05dd 3B000000 		.4byte	0x3b
 3354 05e1 25       		.byte	0x25
 3355 05e2 00       		.byte	0x0
 3356 05e3 17       		.uleb128 0x17
 3357 05e4 66030000 		.4byte	.LASF100
 3358 05e8 F005     		.2byte	0x5f0
 3359 05ea 0B       		.byte	0xb
 3360 05eb 47       		.byte	0x47
 3361 05ec 06060000 		.4byte	0x606
 3362 05f0 18       		.uleb128 0x18
 3363 05f1 776100   		.ascii	"wa\000"
 3364 05f4 0B       		.byte	0xb
 3365 05f5 4E       		.byte	0x4e
 3366 05f6 84050000 		.4byte	0x584
 3367 05fa 0F       		.uleb128 0xf
 3368 05fb 8F030000 		.4byte	.LASF83
 3369 05ff 0B       		.byte	0xb
 3370 0600 4F       		.byte	0x4f
 3371 0601 06060000 		.4byte	0x606
 3372 0605 00       		.byte	0x0
 3373 0606 15       		.uleb128 0x15
 3374 0607 49000000 		.4byte	0x49
 3375 060b 17060000 		.4byte	0x617
 3376 060f 19       		.uleb128 0x19
 3377 0610 3B000000 		.4byte	0x3b
 3378 0614 EF05     		.2byte	0x5ef
 3379 0616 00       		.byte	0x0
 3380 0617 1A       		.uleb128 0x1a
 3381 0618 B0010000 		.4byte	.LASF84
 3382 061c 01       		.byte	0x1
 3383 061d 3D       		.byte	0x3d
 3384 061e 01       		.byte	0x1
 3385 061f 00000000 		.4byte	.LFB7
 3386 0623 02000000 		.4byte	.LFE7
 3387 0627 02       		.byte	0x2
 3388 0628 7D       		.byte	0x7d
 3389 0629 00       		.sleb128 0
 3390 062a 3B060000 		.4byte	0x63b
 3391 062e 1B       		.uleb128 0x1b
 3392 062f 717000   		.ascii	"qp\000"
 3393 0632 01       		.byte	0x1
 3394 0633 3D       		.byte	0x3d
 3395 0634 15050000 		.4byte	0x515
 3396 0638 01       		.byte	0x1
 3397 0639 50       		.byte	0x50
 3398 063a 00       		.byte	0x0
ARM GAS  C:\Users\DNIEL~1\AppData\Local\Temp\ccTDYczq.s 			page 61


 3399 063b 1C       		.uleb128 0x1c
 3400 063c ED010000 		.4byte	.LASF86
 3401 0640 01       		.byte	0x1
 3402 0641 AE       		.byte	0xae
 3403 0642 01       		.byte	0x1
 3404 0643 E8000000 		.4byte	0xe8
 3405 0647 00000000 		.4byte	.LFB12
 3406 064b 14000000 		.4byte	.LFE12
 3407 064f 00000000 		.4byte	.LLST0
 3408 0653 65060000 		.4byte	0x665
 3409 0657 1D       		.uleb128 0x1d
 3410 0658 7000     		.ascii	"p\000"
 3411 065a 01       		.byte	0x1
 3412 065b AE       		.byte	0xae
 3413 065c AA020000 		.4byte	0x2aa
 3414 0660 20000000 		.4byte	.LLST1
 3415 0664 00       		.byte	0x0
 3416 0665 1E       		.uleb128 0x1e
 3417 0666 B7010000 		.4byte	.LASF85
 3418 066a 01       		.byte	0x1
 3419 066b B5       		.byte	0xb5
 3420 066c 01       		.byte	0x1
 3421 066d 00000000 		.4byte	.LFB13
 3422 0671 A0030000 		.4byte	.LFE13
 3423 0675 33000000 		.4byte	.LLST2
 3424 0679 C7090000 		.4byte	0x9c7
 3425 067d 1F       		.uleb128 0x1f
 3426 067e 6900     		.ascii	"i\000"
 3427 0680 01       		.byte	0x1
 3428 0681 B6       		.byte	0xb6
 3429 0682 3B000000 		.4byte	0x3b
 3430 0686 5F000000 		.4byte	.LLST3
 3431 068a 1F       		.uleb128 0x1f
 3432 068b 6E00     		.ascii	"n\000"
 3433 068d 01       		.byte	0x1
 3434 068e B7       		.byte	0xb7
 3435 068f 30000000 		.4byte	0x30
 3436 0693 EB000000 		.4byte	.LLST4
 3437 0697 20       		.uleb128 0x20
 3438 0698 00000000 		.4byte	.Ldebug_ranges0+0x0
 3439 069c B0060000 		.4byte	0x6b0
 3440 06a0 1F       		.uleb128 0x1f
 3441 06a1 746D7000 		.ascii	"tmp\000"
 3442 06a5 01       		.byte	0x1
 3443 06a6 BA       		.byte	0xba
 3444 06a7 7B000000 		.4byte	0x7b
 3445 06ab 2E010000 		.4byte	.LLST5
 3446 06af 00       		.byte	0x0
 3447 06b0 21       		.uleb128 0x21
 3448 06b1 30000000 		.4byte	.LBB4
 3449 06b5 36000000 		.4byte	.LBE4
 3450 06b9 CD060000 		.4byte	0x6cd
 3451 06bd 1F       		.uleb128 0x1f
 3452 06be 746D7000 		.ascii	"tmp\000"
 3453 06c2 01       		.byte	0x1
 3454 06c3 BA       		.byte	0xba
 3455 06c4 7B000000 		.4byte	0x7b
ARM GAS  C:\Users\DNIEL~1\AppData\Local\Temp\ccTDYczq.s 			page 62


 3456 06c8 41010000 		.4byte	.LLST6
 3457 06cc 00       		.byte	0x0
 3458 06cd 21       		.uleb128 0x21
 3459 06ce 68000000 		.4byte	.LBB5
 3460 06d2 6E000000 		.4byte	.LBE5
 3461 06d6 EA060000 		.4byte	0x6ea
 3462 06da 1F       		.uleb128 0x1f
 3463 06db 746D7000 		.ascii	"tmp\000"
 3464 06df 01       		.byte	0x1
 3465 06e0 BF       		.byte	0xbf
 3466 06e1 7B000000 		.4byte	0x7b
 3467 06e5 54010000 		.4byte	.LLST7
 3468 06e9 00       		.byte	0x0
 3469 06ea 21       		.uleb128 0x21
 3470 06eb 8E000000 		.4byte	.LBB6
 3471 06ef 94000000 		.4byte	.LBE6
 3472 06f3 07070000 		.4byte	0x707
 3473 06f7 1F       		.uleb128 0x1f
 3474 06f8 746D7000 		.ascii	"tmp\000"
 3475 06fc 01       		.byte	0x1
 3476 06fd BF       		.byte	0xbf
 3477 06fe 7B000000 		.4byte	0x7b
 3478 0702 67010000 		.4byte	.LLST8
 3479 0706 00       		.byte	0x0
 3480 0707 21       		.uleb128 0x21
 3481 0708 94000000 		.4byte	.LBB7
 3482 070c 1C010000 		.4byte	.LBE7
 3483 0710 50070000 		.4byte	0x750
 3484 0714 1F       		.uleb128 0x1f
 3485 0715 6300     		.ascii	"c\000"
 3486 0717 01       		.byte	0x1
 3487 0718 C3       		.byte	0xc3
 3488 0719 5D040000 		.4byte	0x45d
 3489 071d 7A010000 		.4byte	.LLST9
 3490 0721 20       		.uleb128 0x20
 3491 0722 18000000 		.4byte	.Ldebug_ranges0+0x18
 3492 0726 3A070000 		.4byte	0x73a
 3493 072a 1F       		.uleb128 0x1f
 3494 072b 746D7000 		.ascii	"tmp\000"
 3495 072f 01       		.byte	0x1
 3496 0730 C5       		.byte	0xc5
 3497 0731 7B000000 		.4byte	0x7b
 3498 0735 E5010000 		.4byte	.LLST10
 3499 0739 00       		.byte	0x0
 3500 073a 22       		.uleb128 0x22
 3501 073b 40000000 		.4byte	.Ldebug_ranges0+0x40
 3502 073f 1F       		.uleb128 0x1f
 3503 0740 746D7000 		.ascii	"tmp\000"
 3504 0744 01       		.byte	0x1
 3505 0745 C7       		.byte	0xc7
 3506 0746 7B000000 		.4byte	0x7b
 3507 074a 19020000 		.4byte	.LLST11
 3508 074e 00       		.byte	0x0
 3509 074f 00       		.byte	0x0
 3510 0750 21       		.uleb128 0x21
 3511 0751 1C010000 		.4byte	.LBB16
 3512 0755 22010000 		.4byte	.LBE16
ARM GAS  C:\Users\DNIEL~1\AppData\Local\Temp\ccTDYczq.s 			page 63


 3513 0759 6D070000 		.4byte	0x76d
 3514 075d 1F       		.uleb128 0x1f
 3515 075e 746D7000 		.ascii	"tmp\000"
 3516 0762 01       		.byte	0x1
 3517 0763 CA       		.byte	0xca
 3518 0764 7B000000 		.4byte	0x7b
 3519 0768 4D020000 		.4byte	.LLST12
 3520 076c 00       		.byte	0x0
 3521 076d 21       		.uleb128 0x21
 3522 076e 44010000 		.4byte	.LBB17
 3523 0772 4A010000 		.4byte	.LBE17
 3524 0776 8A070000 		.4byte	0x78a
 3525 077a 1F       		.uleb128 0x1f
 3526 077b 746D7000 		.ascii	"tmp\000"
 3527 077f 01       		.byte	0x1
 3528 0780 CA       		.byte	0xca
 3529 0781 7B000000 		.4byte	0x7b
 3530 0785 60020000 		.4byte	.LLST13
 3531 0789 00       		.byte	0x0
 3532 078a 21       		.uleb128 0x21
 3533 078b 5A010000 		.4byte	.LBB18
 3534 078f 60010000 		.4byte	.LBE18
 3535 0793 A7070000 		.4byte	0x7a7
 3536 0797 1F       		.uleb128 0x1f
 3537 0798 746D7000 		.ascii	"tmp\000"
 3538 079c 01       		.byte	0x1
 3539 079d CC       		.byte	0xcc
 3540 079e 7B000000 		.4byte	0x7b
 3541 07a2 73020000 		.4byte	.LLST14
 3542 07a6 00       		.byte	0x0
 3543 07a7 21       		.uleb128 0x21
 3544 07a8 88010000 		.4byte	.LBB19
 3545 07ac 8E010000 		.4byte	.LBE19
 3546 07b0 C4070000 		.4byte	0x7c4
 3547 07b4 1F       		.uleb128 0x1f
 3548 07b5 746D7000 		.ascii	"tmp\000"
 3549 07b9 01       		.byte	0x1
 3550 07ba CC       		.byte	0xcc
 3551 07bb 7B000000 		.4byte	0x7b
 3552 07bf 86020000 		.4byte	.LLST15
 3553 07c3 00       		.byte	0x0
 3554 07c4 21       		.uleb128 0x21
 3555 07c5 B6010000 		.4byte	.LBB20
 3556 07c9 BC010000 		.4byte	.LBE20
 3557 07cd E1070000 		.4byte	0x7e1
 3558 07d1 1F       		.uleb128 0x1f
 3559 07d2 746D7000 		.ascii	"tmp\000"
 3560 07d6 01       		.byte	0x1
 3561 07d7 D1       		.byte	0xd1
 3562 07d8 7B000000 		.4byte	0x7b
 3563 07dc 99020000 		.4byte	.LLST16
 3564 07e0 00       		.byte	0x0
 3565 07e1 21       		.uleb128 0x21
 3566 07e2 DC010000 		.4byte	.LBB21
 3567 07e6 E2010000 		.4byte	.LBE21
 3568 07ea FE070000 		.4byte	0x7fe
 3569 07ee 1F       		.uleb128 0x1f
ARM GAS  C:\Users\DNIEL~1\AppData\Local\Temp\ccTDYczq.s 			page 64


 3570 07ef 746D7000 		.ascii	"tmp\000"
 3571 07f3 01       		.byte	0x1
 3572 07f4 D1       		.byte	0xd1
 3573 07f5 7B000000 		.4byte	0x7b
 3574 07f9 AC020000 		.4byte	.LLST17
 3575 07fd 00       		.byte	0x0
 3576 07fe 20       		.uleb128 0x20
 3577 07ff 68000000 		.4byte	.Ldebug_ranges0+0x68
 3578 0803 17080000 		.4byte	0x817
 3579 0807 1F       		.uleb128 0x1f
 3580 0808 746D7000 		.ascii	"tmp\000"
 3581 080c 01       		.byte	0x1
 3582 080d D3       		.byte	0xd3
 3583 080e 7B000000 		.4byte	0x7b
 3584 0812 BF020000 		.4byte	.LLST18
 3585 0816 00       		.byte	0x0
 3586 0817 21       		.uleb128 0x21
 3587 0818 2E020000 		.4byte	.LBB24
 3588 081c 34020000 		.4byte	.LBE24
 3589 0820 34080000 		.4byte	0x834
 3590 0824 1F       		.uleb128 0x1f
 3591 0825 746D7000 		.ascii	"tmp\000"
 3592 0829 01       		.byte	0x1
 3593 082a D3       		.byte	0xd3
 3594 082b 7B000000 		.4byte	0x7b
 3595 082f D2020000 		.4byte	.LLST19
 3596 0833 00       		.byte	0x0
 3597 0834 21       		.uleb128 0x21
 3598 0835 38020000 		.4byte	.LBB25
 3599 0839 3E020000 		.4byte	.LBE25
 3600 083d 51080000 		.4byte	0x851
 3601 0841 1F       		.uleb128 0x1f
 3602 0842 746D7000 		.ascii	"tmp\000"
 3603 0846 01       		.byte	0x1
 3604 0847 D7       		.byte	0xd7
 3605 0848 7B000000 		.4byte	0x7b
 3606 084c E5020000 		.4byte	.LLST20
 3607 0850 00       		.byte	0x0
 3608 0851 21       		.uleb128 0x21
 3609 0852 4C020000 		.4byte	.LBB26
 3610 0856 52020000 		.4byte	.LBE26
 3611 085a 6E080000 		.4byte	0x86e
 3612 085e 1F       		.uleb128 0x1f
 3613 085f 746D7000 		.ascii	"tmp\000"
 3614 0863 01       		.byte	0x1
 3615 0864 D9       		.byte	0xd9
 3616 0865 7B000000 		.4byte	0x7b
 3617 0869 F8020000 		.4byte	.LLST21
 3618 086d 00       		.byte	0x0
 3619 086e 21       		.uleb128 0x21
 3620 086f 52020000 		.4byte	.LBB27
 3621 0873 58020000 		.4byte	.LBE27
 3622 0877 8B080000 		.4byte	0x88b
 3623 087b 1F       		.uleb128 0x1f
 3624 087c 746D7000 		.ascii	"tmp\000"
 3625 0880 01       		.byte	0x1
 3626 0881 DA       		.byte	0xda
ARM GAS  C:\Users\DNIEL~1\AppData\Local\Temp\ccTDYczq.s 			page 65


 3627 0882 7B000000 		.4byte	0x7b
 3628 0886 0B030000 		.4byte	.LLST22
 3629 088a 00       		.byte	0x0
 3630 088b 21       		.uleb128 0x21
 3631 088c 80020000 		.4byte	.LBB28
 3632 0890 86020000 		.4byte	.LBE28
 3633 0894 A8080000 		.4byte	0x8a8
 3634 0898 1F       		.uleb128 0x1f
 3635 0899 746D7000 		.ascii	"tmp\000"
 3636 089d 01       		.byte	0x1
 3637 089e DA       		.byte	0xda
 3638 089f 7B000000 		.4byte	0x7b
 3639 08a3 1E030000 		.4byte	.LLST23
 3640 08a7 00       		.byte	0x0
 3641 08a8 21       		.uleb128 0x21
 3642 08a9 C6020000 		.4byte	.LBB29
 3643 08ad CC020000 		.4byte	.LBE29
 3644 08b1 C5080000 		.4byte	0x8c5
 3645 08b5 1F       		.uleb128 0x1f
 3646 08b6 746D7000 		.ascii	"tmp\000"
 3647 08ba 01       		.byte	0x1
 3648 08bb E1       		.byte	0xe1
 3649 08bc 7B000000 		.4byte	0x7b
 3650 08c0 31030000 		.4byte	.LLST24
 3651 08c4 00       		.byte	0x0
 3652 08c5 21       		.uleb128 0x21
 3653 08c6 E8020000 		.4byte	.LBB30
 3654 08ca EE020000 		.4byte	.LBE30
 3655 08ce E2080000 		.4byte	0x8e2
 3656 08d2 1F       		.uleb128 0x1f
 3657 08d3 746D7000 		.ascii	"tmp\000"
 3658 08d7 01       		.byte	0x1
 3659 08d8 E1       		.byte	0xe1
 3660 08d9 7B000000 		.4byte	0x7b
 3661 08dd 44030000 		.4byte	.LLST25
 3662 08e1 00       		.byte	0x0
 3663 08e2 21       		.uleb128 0x21
 3664 08e3 2C030000 		.4byte	.LBB31
 3665 08e7 32030000 		.4byte	.LBE31
 3666 08eb FF080000 		.4byte	0x8ff
 3667 08ef 1F       		.uleb128 0x1f
 3668 08f0 746D7000 		.ascii	"tmp\000"
 3669 08f4 01       		.byte	0x1
 3670 08f5 BF       		.byte	0xbf
 3671 08f6 7B000000 		.4byte	0x7b
 3672 08fa 57030000 		.4byte	.LLST26
 3673 08fe 00       		.byte	0x0
 3674 08ff 21       		.uleb128 0x21
 3675 0900 3C030000 		.4byte	.LBB32
 3676 0904 42030000 		.4byte	.LBE32
 3677 0908 1C090000 		.4byte	0x91c
 3678 090c 1F       		.uleb128 0x1f
 3679 090d 746D7000 		.ascii	"tmp\000"
 3680 0911 01       		.byte	0x1
 3681 0912 BA       		.byte	0xba
 3682 0913 7B000000 		.4byte	0x7b
 3683 0917 6A030000 		.4byte	.LLST27
ARM GAS  C:\Users\DNIEL~1\AppData\Local\Temp\ccTDYczq.s 			page 66


 3684 091b 00       		.byte	0x0
 3685 091c 21       		.uleb128 0x21
 3686 091d 52030000 		.4byte	.LBB33
 3687 0921 58030000 		.4byte	.LBE33
 3688 0925 39090000 		.4byte	0x939
 3689 0929 1F       		.uleb128 0x1f
 3690 092a 746D7000 		.ascii	"tmp\000"
 3691 092e 01       		.byte	0x1
 3692 092f CA       		.byte	0xca
 3693 0930 7B000000 		.4byte	0x7b
 3694 0934 88030000 		.4byte	.LLST28
 3695 0938 00       		.byte	0x0
 3696 0939 21       		.uleb128 0x21
 3697 093a 68030000 		.4byte	.LBB34
 3698 093e 6E030000 		.4byte	.LBE34
 3699 0942 56090000 		.4byte	0x956
 3700 0946 1F       		.uleb128 0x1f
 3701 0947 746D7000 		.ascii	"tmp\000"
 3702 094b 01       		.byte	0x1
 3703 094c CC       		.byte	0xcc
 3704 094d 7B000000 		.4byte	0x7b
 3705 0951 A6030000 		.4byte	.LLST29
 3706 0955 00       		.byte	0x0
 3707 0956 21       		.uleb128 0x21
 3708 0957 74030000 		.4byte	.LBB35
 3709 095b 7A030000 		.4byte	.LBE35
 3710 095f 73090000 		.4byte	0x973
 3711 0963 1F       		.uleb128 0x1f
 3712 0964 746D7000 		.ascii	"tmp\000"
 3713 0968 01       		.byte	0x1
 3714 0969 D1       		.byte	0xd1
 3715 096a 7B000000 		.4byte	0x7b
 3716 096e C4030000 		.4byte	.LLST30
 3717 0972 00       		.byte	0x0
 3718 0973 21       		.uleb128 0x21
 3719 0974 80030000 		.4byte	.LBB36
 3720 0978 86030000 		.4byte	.LBE36
 3721 097c 90090000 		.4byte	0x990
 3722 0980 1F       		.uleb128 0x1f
 3723 0981 746D7000 		.ascii	"tmp\000"
 3724 0985 01       		.byte	0x1
 3725 0986 D3       		.byte	0xd3
 3726 0987 7B000000 		.4byte	0x7b
 3727 098b E2030000 		.4byte	.LLST31
 3728 098f 00       		.byte	0x0
 3729 0990 21       		.uleb128 0x21
 3730 0991 8C030000 		.4byte	.LBB37
 3731 0995 92030000 		.4byte	.LBE37
 3732 0999 AD090000 		.4byte	0x9ad
 3733 099d 1F       		.uleb128 0x1f
 3734 099e 746D7000 		.ascii	"tmp\000"
 3735 09a2 01       		.byte	0x1
 3736 09a3 DA       		.byte	0xda
 3737 09a4 7B000000 		.4byte	0x7b
 3738 09a8 00040000 		.4byte	.LLST32
 3739 09ac 00       		.byte	0x0
 3740 09ad 23       		.uleb128 0x23
ARM GAS  C:\Users\DNIEL~1\AppData\Local\Temp\ccTDYczq.s 			page 67


 3741 09ae 98030000 		.4byte	.LBB38
 3742 09b2 A0030000 		.4byte	.LBE38
 3743 09b6 1F       		.uleb128 0x1f
 3744 09b7 746D7000 		.ascii	"tmp\000"
 3745 09bb 01       		.byte	0x1
 3746 09bc E1       		.byte	0xe1
 3747 09bd 7B000000 		.4byte	0x7b
 3748 09c1 1E040000 		.4byte	.LLST33
 3749 09c5 00       		.byte	0x0
 3750 09c6 00       		.byte	0x0
 3751 09c7 24       		.uleb128 0x24
 3752 09c8 57000000 		.4byte	.LASF89
 3753 09cc 01       		.byte	0x1
 3754 09cd A9       		.byte	0xa9
 3755 09ce 01       		.byte	0x1
 3756 09cf 00000000 		.4byte	.LFB11
 3757 09d3 28000000 		.4byte	.LFE11
 3758 09d7 3C040000 		.4byte	.LLST34
 3759 09db 1C       		.uleb128 0x1c
 3760 09dc E5010000 		.4byte	.LASF87
 3761 09e0 01       		.byte	0x1
 3762 09e1 57       		.byte	0x57
 3763 09e2 01       		.byte	0x1
 3764 09e3 E8000000 		.4byte	0xe8
 3765 09e7 00000000 		.4byte	.LFB9
 3766 09eb 14000000 		.4byte	.LFE9
 3767 09ef 68040000 		.4byte	.LLST35
 3768 09f3 050A0000 		.4byte	0xa05
 3769 09f7 1D       		.uleb128 0x1d
 3770 09f8 7000     		.ascii	"p\000"
 3771 09fa 01       		.byte	0x1
 3772 09fb 57       		.byte	0x57
 3773 09fc AA020000 		.4byte	0x2aa
 3774 0a00 88040000 		.4byte	.LLST36
 3775 0a04 00       		.byte	0x0
 3776 0a05 1E       		.uleb128 0x1e
 3777 0a06 45010000 		.4byte	.LASF88
 3778 0a0a 01       		.byte	0x1
 3779 0a0b 5E       		.byte	0x5e
 3780 0a0c 01       		.byte	0x1
 3781 0a0d 00000000 		.4byte	.LFB10
 3782 0a11 B8030000 		.4byte	.LFE10
 3783 0a15 9B040000 		.4byte	.LLST37
 3784 0a19 CC0D0000 		.4byte	0xdcc
 3785 0a1d 1F       		.uleb128 0x1f
 3786 0a1e 6900     		.ascii	"i\000"
 3787 0a20 01       		.byte	0x1
 3788 0a21 5F       		.byte	0x5f
 3789 0a22 3B000000 		.4byte	0x3b
 3790 0a26 C7040000 		.4byte	.LLST38
 3791 0a2a 1F       		.uleb128 0x1f
 3792 0a2b 6E00     		.ascii	"n\000"
 3793 0a2d 01       		.byte	0x1
 3794 0a2e 60       		.byte	0x60
 3795 0a2f 30000000 		.4byte	0x30
 3796 0a33 CB050000 		.4byte	.LLST39
 3797 0a37 20       		.uleb128 0x20
ARM GAS  C:\Users\DNIEL~1\AppData\Local\Temp\ccTDYczq.s 			page 68


 3798 0a38 80000000 		.4byte	.Ldebug_ranges0+0x80
 3799 0a3c 500A0000 		.4byte	0xa50
 3800 0a40 1F       		.uleb128 0x1f
 3801 0a41 746D7000 		.ascii	"tmp\000"
 3802 0a45 01       		.byte	0x1
 3803 0a46 63       		.byte	0x63
 3804 0a47 7B000000 		.4byte	0x7b
 3805 0a4b 1B060000 		.4byte	.LLST40
 3806 0a4f 00       		.byte	0x0
 3807 0a50 21       		.uleb128 0x21
 3808 0a51 2E000000 		.4byte	.LBB41
 3809 0a55 34000000 		.4byte	.LBE41
 3810 0a59 6D0A0000 		.4byte	0xa6d
 3811 0a5d 1F       		.uleb128 0x1f
 3812 0a5e 746D7000 		.ascii	"tmp\000"
 3813 0a62 01       		.byte	0x1
 3814 0a63 63       		.byte	0x63
 3815 0a64 7B000000 		.4byte	0x7b
 3816 0a68 2E060000 		.4byte	.LLST41
 3817 0a6c 00       		.byte	0x0
 3818 0a6d 21       		.uleb128 0x21
 3819 0a6e 34000000 		.4byte	.LBB42
 3820 0a72 3A000000 		.4byte	.LBE42
 3821 0a76 8A0A0000 		.4byte	0xa8a
 3822 0a7a 1F       		.uleb128 0x1f
 3823 0a7b 746D7000 		.ascii	"tmp\000"
 3824 0a7f 01       		.byte	0x1
 3825 0a80 66       		.byte	0x66
 3826 0a81 7B000000 		.4byte	0x7b
 3827 0a85 41060000 		.4byte	.LLST42
 3828 0a89 00       		.byte	0x0
 3829 0a8a 21       		.uleb128 0x21
 3830 0a8b 62000000 		.4byte	.LBB43
 3831 0a8f 68000000 		.4byte	.LBE43
 3832 0a93 A70A0000 		.4byte	0xaa7
 3833 0a97 1F       		.uleb128 0x1f
 3834 0a98 746D7000 		.ascii	"tmp\000"
 3835 0a9c 01       		.byte	0x1
 3836 0a9d 69       		.byte	0x69
 3837 0a9e 7B000000 		.4byte	0x7b
 3838 0aa2 54060000 		.4byte	.LLST43
 3839 0aa6 00       		.byte	0x0
 3840 0aa7 21       		.uleb128 0x21
 3841 0aa8 68000000 		.4byte	.LBB44
 3842 0aac 6E000000 		.4byte	.LBE44
 3843 0ab0 C40A0000 		.4byte	0xac4
 3844 0ab4 1F       		.uleb128 0x1f
 3845 0ab5 746D7000 		.ascii	"tmp\000"
 3846 0ab9 01       		.byte	0x1
 3847 0aba 6A       		.byte	0x6a
 3848 0abb 7B000000 		.4byte	0x7b
 3849 0abf 67060000 		.4byte	.LLST44
 3850 0ac3 00       		.byte	0x0
 3851 0ac4 21       		.uleb128 0x21
 3852 0ac5 90000000 		.4byte	.LBB45
 3853 0ac9 96000000 		.4byte	.LBE45
 3854 0acd E10A0000 		.4byte	0xae1
ARM GAS  C:\Users\DNIEL~1\AppData\Local\Temp\ccTDYczq.s 			page 69


 3855 0ad1 1F       		.uleb128 0x1f
 3856 0ad2 746D7000 		.ascii	"tmp\000"
 3857 0ad6 01       		.byte	0x1
 3858 0ad7 6A       		.byte	0x6a
 3859 0ad8 7B000000 		.4byte	0x7b
 3860 0adc 7A060000 		.4byte	.LLST45
 3861 0ae0 00       		.byte	0x0
 3862 0ae1 21       		.uleb128 0x21
 3863 0ae2 96000000 		.4byte	.LBB46
 3864 0ae6 9C000000 		.4byte	.LBE46
 3865 0aea FE0A0000 		.4byte	0xafe
 3866 0aee 1F       		.uleb128 0x1f
 3867 0aef 746D7000 		.ascii	"tmp\000"
 3868 0af3 01       		.byte	0x1
 3869 0af4 6B       		.byte	0x6b
 3870 0af5 7B000000 		.4byte	0x7b
 3871 0af9 8D060000 		.4byte	.LLST46
 3872 0afd 00       		.byte	0x0
 3873 0afe 21       		.uleb128 0x21
 3874 0aff C6000000 		.4byte	.LBB47
 3875 0b03 CC000000 		.4byte	.LBE47
 3876 0b07 1B0B0000 		.4byte	0xb1b
 3877 0b0b 1F       		.uleb128 0x1f
 3878 0b0c 746D7000 		.ascii	"tmp\000"
 3879 0b10 01       		.byte	0x1
 3880 0b11 6B       		.byte	0x6b
 3881 0b12 7B000000 		.4byte	0x7b
 3882 0b16 A0060000 		.4byte	.LLST47
 3883 0b1a 00       		.byte	0x0
 3884 0b1b 21       		.uleb128 0x21
 3885 0b1c 0C010000 		.4byte	.LBB48
 3886 0b20 12010000 		.4byte	.LBE48
 3887 0b24 380B0000 		.4byte	0xb38
 3888 0b28 1F       		.uleb128 0x1f
 3889 0b29 746D7000 		.ascii	"tmp\000"
 3890 0b2d 01       		.byte	0x1
 3891 0b2e 70       		.byte	0x70
 3892 0b2f 7B000000 		.4byte	0x7b
 3893 0b33 B3060000 		.4byte	.LLST48
 3894 0b37 00       		.byte	0x0
 3895 0b38 21       		.uleb128 0x21
 3896 0b39 32010000 		.4byte	.LBB49
 3897 0b3d 38010000 		.4byte	.LBE49
 3898 0b41 550B0000 		.4byte	0xb55
 3899 0b45 1F       		.uleb128 0x1f
 3900 0b46 746D7000 		.ascii	"tmp\000"
 3901 0b4a 01       		.byte	0x1
 3902 0b4b 70       		.byte	0x70
 3903 0b4c 7B000000 		.4byte	0x7b
 3904 0b50 C6060000 		.4byte	.LLST49
 3905 0b54 00       		.byte	0x0
 3906 0b55 21       		.uleb128 0x21
 3907 0b56 48010000 		.4byte	.LBB50
 3908 0b5a 4E010000 		.4byte	.LBE50
 3909 0b5e 720B0000 		.4byte	0xb72
 3910 0b62 1F       		.uleb128 0x1f
 3911 0b63 746D7000 		.ascii	"tmp\000"
ARM GAS  C:\Users\DNIEL~1\AppData\Local\Temp\ccTDYczq.s 			page 70


 3912 0b67 01       		.byte	0x1
 3913 0b68 74       		.byte	0x74
 3914 0b69 7B000000 		.4byte	0x7b
 3915 0b6d D9060000 		.4byte	.LLST50
 3916 0b71 00       		.byte	0x0
 3917 0b72 21       		.uleb128 0x21
 3918 0b73 76010000 		.4byte	.LBB51
 3919 0b77 7C010000 		.4byte	.LBE51
 3920 0b7b 8F0B0000 		.4byte	0xb8f
 3921 0b7f 1F       		.uleb128 0x1f
 3922 0b80 746D7000 		.ascii	"tmp\000"
 3923 0b84 01       		.byte	0x1
 3924 0b85 77       		.byte	0x77
 3925 0b86 7B000000 		.4byte	0x7b
 3926 0b8a EC060000 		.4byte	.LLST51
 3927 0b8e 00       		.byte	0x0
 3928 0b8f 21       		.uleb128 0x21
 3929 0b90 A4010000 		.4byte	.LBB52
 3930 0b94 AA010000 		.4byte	.LBE52
 3931 0b98 AC0B0000 		.4byte	0xbac
 3932 0b9c 1F       		.uleb128 0x1f
 3933 0b9d 746D7000 		.ascii	"tmp\000"
 3934 0ba1 01       		.byte	0x1
 3935 0ba2 7C       		.byte	0x7c
 3936 0ba3 7B000000 		.4byte	0x7b
 3937 0ba7 FF060000 		.4byte	.LLST52
 3938 0bab 00       		.byte	0x0
 3939 0bac 21       		.uleb128 0x21
 3940 0bad CA010000 		.4byte	.LBB53
 3941 0bb1 D0010000 		.4byte	.LBE53
 3942 0bb5 C90B0000 		.4byte	0xbc9
 3943 0bb9 1F       		.uleb128 0x1f
 3944 0bba 746D7000 		.ascii	"tmp\000"
 3945 0bbe 01       		.byte	0x1
 3946 0bbf 7C       		.byte	0x7c
 3947 0bc0 7B000000 		.4byte	0x7b
 3948 0bc4 12070000 		.4byte	.LLST53
 3949 0bc8 00       		.byte	0x0
 3950 0bc9 21       		.uleb128 0x21
 3951 0bca D0010000 		.4byte	.LBB54
 3952 0bce D6010000 		.4byte	.LBE54
 3953 0bd2 E60B0000 		.4byte	0xbe6
 3954 0bd6 1F       		.uleb128 0x1f
 3955 0bd7 746D7000 		.ascii	"tmp\000"
 3956 0bdb 01       		.byte	0x1
 3957 0bdc 7F       		.byte	0x7f
 3958 0bdd 7B000000 		.4byte	0x7b
 3959 0be1 25070000 		.4byte	.LLST54
 3960 0be5 00       		.byte	0x0
 3961 0be6 21       		.uleb128 0x21
 3962 0be7 FE010000 		.4byte	.LBB55
 3963 0beb 04020000 		.4byte	.LBE55
 3964 0bef 030C0000 		.4byte	0xc03
 3965 0bf3 1F       		.uleb128 0x1f
 3966 0bf4 746D7000 		.ascii	"tmp\000"
 3967 0bf8 01       		.byte	0x1
 3968 0bf9 82       		.byte	0x82
ARM GAS  C:\Users\DNIEL~1\AppData\Local\Temp\ccTDYczq.s 			page 71


 3969 0bfa 7B000000 		.4byte	0x7b
 3970 0bfe 38070000 		.4byte	.LLST55
 3971 0c02 00       		.byte	0x0
 3972 0c03 21       		.uleb128 0x21
 3973 0c04 4A020000 		.4byte	.LBB56
 3974 0c08 50020000 		.4byte	.LBE56
 3975 0c0c 200C0000 		.4byte	0xc20
 3976 0c10 1F       		.uleb128 0x1f
 3977 0c11 746D7000 		.ascii	"tmp\000"
 3978 0c15 01       		.byte	0x1
 3979 0c16 89       		.byte	0x89
 3980 0c17 7B000000 		.4byte	0x7b
 3981 0c1b 4B070000 		.4byte	.LLST56
 3982 0c1f 00       		.byte	0x0
 3983 0c20 21       		.uleb128 0x21
 3984 0c21 70020000 		.4byte	.LBB57
 3985 0c25 76020000 		.4byte	.LBE57
 3986 0c29 3D0C0000 		.4byte	0xc3d
 3987 0c2d 1F       		.uleb128 0x1f
 3988 0c2e 746D7000 		.ascii	"tmp\000"
 3989 0c32 01       		.byte	0x1
 3990 0c33 89       		.byte	0x89
 3991 0c34 7B000000 		.4byte	0x7b
 3992 0c38 5E070000 		.4byte	.LLST57
 3993 0c3c 00       		.byte	0x0
 3994 0c3d 21       		.uleb128 0x21
 3995 0c3e 76020000 		.4byte	.LBB58
 3996 0c42 7C020000 		.4byte	.LBE58
 3997 0c46 5A0C0000 		.4byte	0xc5a
 3998 0c4a 1F       		.uleb128 0x1f
 3999 0c4b 746D7000 		.ascii	"tmp\000"
 4000 0c4f 01       		.byte	0x1
 4001 0c50 8C       		.byte	0x8c
 4002 0c51 7B000000 		.4byte	0x7b
 4003 0c55 71070000 		.4byte	.LLST58
 4004 0c59 00       		.byte	0x0
 4005 0c5a 21       		.uleb128 0x21
 4006 0c5b 92020000 		.4byte	.LBB59
 4007 0c5f 98020000 		.4byte	.LBE59
 4008 0c63 770C0000 		.4byte	0xc77
 4009 0c67 1F       		.uleb128 0x1f
 4010 0c68 746D7000 		.ascii	"tmp\000"
 4011 0c6c 01       		.byte	0x1
 4012 0c6d 8F       		.byte	0x8f
 4013 0c6e 7B000000 		.4byte	0x7b
 4014 0c72 84070000 		.4byte	.LLST59
 4015 0c76 00       		.byte	0x0
 4016 0c77 21       		.uleb128 0x21
 4017 0c78 98020000 		.4byte	.LBB60
 4018 0c7c 9E020000 		.4byte	.LBE60
 4019 0c80 940C0000 		.4byte	0xc94
 4020 0c84 1F       		.uleb128 0x1f
 4021 0c85 746D7000 		.ascii	"tmp\000"
 4022 0c89 01       		.byte	0x1
 4023 0c8a 90       		.byte	0x90
 4024 0c8b 7B000000 		.4byte	0x7b
 4025 0c8f 97070000 		.4byte	.LLST60
ARM GAS  C:\Users\DNIEL~1\AppData\Local\Temp\ccTDYczq.s 			page 72


 4026 0c93 00       		.byte	0x0
 4027 0c94 21       		.uleb128 0x21
 4028 0c95 BA020000 		.4byte	.LBB61
 4029 0c99 C0020000 		.4byte	.LBE61
 4030 0c9d B10C0000 		.4byte	0xcb1
 4031 0ca1 1F       		.uleb128 0x1f
 4032 0ca2 746D7000 		.ascii	"tmp\000"
 4033 0ca6 01       		.byte	0x1
 4034 0ca7 90       		.byte	0x90
 4035 0ca8 7B000000 		.4byte	0x7b
 4036 0cac AA070000 		.4byte	.LLST61
 4037 0cb0 00       		.byte	0x0
 4038 0cb1 20       		.uleb128 0x20
 4039 0cb2 98000000 		.4byte	.Ldebug_ranges0+0x98
 4040 0cb6 CA0C0000 		.4byte	0xcca
 4041 0cba 1F       		.uleb128 0x1f
 4042 0cbb 746D7000 		.ascii	"tmp\000"
 4043 0cbf 01       		.byte	0x1
 4044 0cc0 92       		.byte	0x92
 4045 0cc1 7B000000 		.4byte	0x7b
 4046 0cc5 BD070000 		.4byte	.LLST62
 4047 0cc9 00       		.byte	0x0
 4048 0cca 21       		.uleb128 0x21
 4049 0ccb 04030000 		.4byte	.LBB64
 4050 0ccf 0A030000 		.4byte	.LBE64
 4051 0cd3 E70C0000 		.4byte	0xce7
 4052 0cd7 1F       		.uleb128 0x1f
 4053 0cd8 746D7000 		.ascii	"tmp\000"
 4054 0cdc 01       		.byte	0x1
 4055 0cdd 92       		.byte	0x92
 4056 0cde 7B000000 		.4byte	0x7b
 4057 0ce2 D0070000 		.4byte	.LLST63
 4058 0ce6 00       		.byte	0x0
 4059 0ce7 21       		.uleb128 0x21
 4060 0ce8 4E030000 		.4byte	.LBB65
 4061 0cec 54030000 		.4byte	.LBE65
 4062 0cf0 040D0000 		.4byte	0xd04
 4063 0cf4 1F       		.uleb128 0x1f
 4064 0cf5 746D7000 		.ascii	"tmp\000"
 4065 0cf9 01       		.byte	0x1
 4066 0cfa 6A       		.byte	0x6a
 4067 0cfb 7B000000 		.4byte	0x7b
 4068 0cff E3070000 		.4byte	.LLST64
 4069 0d03 00       		.byte	0x0
 4070 0d04 21       		.uleb128 0x21
 4071 0d05 5E030000 		.4byte	.LBB66
 4072 0d09 64030000 		.4byte	.LBE66
 4073 0d0d 210D0000 		.4byte	0xd21
 4074 0d11 1F       		.uleb128 0x1f
 4075 0d12 746D7000 		.ascii	"tmp\000"
 4076 0d16 01       		.byte	0x1
 4077 0d17 63       		.byte	0x63
 4078 0d18 7B000000 		.4byte	0x7b
 4079 0d1c F6070000 		.4byte	.LLST65
 4080 0d20 00       		.byte	0x0
 4081 0d21 21       		.uleb128 0x21
 4082 0d22 6A030000 		.4byte	.LBB67
ARM GAS  C:\Users\DNIEL~1\AppData\Local\Temp\ccTDYczq.s 			page 73


 4083 0d26 70030000 		.4byte	.LBE67
 4084 0d2a 3E0D0000 		.4byte	0xd3e
 4085 0d2e 1F       		.uleb128 0x1f
 4086 0d2f 746D7000 		.ascii	"tmp\000"
 4087 0d33 01       		.byte	0x1
 4088 0d34 70       		.byte	0x70
 4089 0d35 7B000000 		.4byte	0x7b
 4090 0d39 14080000 		.4byte	.LLST66
 4091 0d3d 00       		.byte	0x0
 4092 0d3e 21       		.uleb128 0x21
 4093 0d3f 76030000 		.4byte	.LBB68
 4094 0d43 7C030000 		.4byte	.LBE68
 4095 0d47 5B0D0000 		.4byte	0xd5b
 4096 0d4b 1F       		.uleb128 0x1f
 4097 0d4c 746D7000 		.ascii	"tmp\000"
 4098 0d50 01       		.byte	0x1
 4099 0d51 6B       		.byte	0x6b
 4100 0d52 7B000000 		.4byte	0x7b
 4101 0d56 32080000 		.4byte	.LLST67
 4102 0d5a 00       		.byte	0x0
 4103 0d5b 21       		.uleb128 0x21
 4104 0d5c 8C030000 		.4byte	.LBB69
 4105 0d60 92030000 		.4byte	.LBE69
 4106 0d64 780D0000 		.4byte	0xd78
 4107 0d68 1F       		.uleb128 0x1f
 4108 0d69 746D7000 		.ascii	"tmp\000"
 4109 0d6d 01       		.byte	0x1
 4110 0d6e 7C       		.byte	0x7c
 4111 0d6f 7B000000 		.4byte	0x7b
 4112 0d73 50080000 		.4byte	.LLST68
 4113 0d77 00       		.byte	0x0
 4114 0d78 21       		.uleb128 0x21
 4115 0d79 98030000 		.4byte	.LBB70
 4116 0d7d 9E030000 		.4byte	.LBE70
 4117 0d81 950D0000 		.4byte	0xd95
 4118 0d85 1F       		.uleb128 0x1f
 4119 0d86 746D7000 		.ascii	"tmp\000"
 4120 0d8a 01       		.byte	0x1
 4121 0d8b 90       		.byte	0x90
 4122 0d8c 7B000000 		.4byte	0x7b
 4123 0d90 6E080000 		.4byte	.LLST69
 4124 0d94 00       		.byte	0x0
 4125 0d95 21       		.uleb128 0x21
 4126 0d96 A4030000 		.4byte	.LBB71
 4127 0d9a AA030000 		.4byte	.LBE71
 4128 0d9e B20D0000 		.4byte	0xdb2
 4129 0da2 1F       		.uleb128 0x1f
 4130 0da3 746D7000 		.ascii	"tmp\000"
 4131 0da7 01       		.byte	0x1
 4132 0da8 89       		.byte	0x89
 4133 0da9 7B000000 		.4byte	0x7b
 4134 0dad 8C080000 		.4byte	.LLST70
 4135 0db1 00       		.byte	0x0
 4136 0db2 23       		.uleb128 0x23
 4137 0db3 B0030000 		.4byte	.LBB72
 4138 0db7 B8030000 		.4byte	.LBE72
 4139 0dbb 1F       		.uleb128 0x1f
ARM GAS  C:\Users\DNIEL~1\AppData\Local\Temp\ccTDYczq.s 			page 74


 4140 0dbc 746D7000 		.ascii	"tmp\000"
 4141 0dc0 01       		.byte	0x1
 4142 0dc1 92       		.byte	0x92
 4143 0dc2 7B000000 		.4byte	0x7b
 4144 0dc6 AA080000 		.4byte	.LLST71
 4145 0dca 00       		.byte	0x0
 4146 0dcb 00       		.byte	0x0
 4147 0dcc 24       		.uleb128 0x24
 4148 0dcd 20020000 		.4byte	.LASF90
 4149 0dd1 01       		.byte	0x1
 4150 0dd2 52       		.byte	0x52
 4151 0dd3 01       		.byte	0x1
 4152 0dd4 00000000 		.4byte	.LFB8
 4153 0dd8 28000000 		.4byte	.LFE8
 4154 0ddc C8080000 		.4byte	.LLST72
 4155 0de0 25       		.uleb128 0x25
 4156 0de1 CF030000 		.4byte	.LASF91
 4157 0de5 08       		.byte	0x8
 4158 0de6 68       		.byte	0x68
 4159 0de7 CA030000 		.4byte	0x3ca
 4160 0deb 01       		.byte	0x1
 4161 0dec 01       		.byte	0x1
 4162 0ded 15       		.uleb128 0x15
 4163 0dee 6C020000 		.4byte	0x26c
 4164 0df2 FD0D0000 		.4byte	0xdfd
 4165 0df6 16       		.uleb128 0x16
 4166 0df7 3B000000 		.4byte	0x3b
 4167 0dfb 04       		.byte	0x4
 4168 0dfc 00       		.byte	0x0
 4169 0dfd 25       		.uleb128 0x25
 4170 0dfe ED020000 		.4byte	.LASF92
 4171 0e02 0B       		.byte	0xb
 4172 0e03 A9       		.byte	0xa9
 4173 0e04 ED0D0000 		.4byte	0xded
 4174 0e08 01       		.byte	0x1
 4175 0e09 01       		.byte	0x1
 4176 0e0a 25       		.uleb128 0x25
 4177 0e0b 65000000 		.4byte	.LASF93
 4178 0e0f 0B       		.byte	0xb
 4179 0e10 AA       		.byte	0xaa
 4180 0e11 E3050000 		.4byte	0x5e3
 4181 0e15 01       		.byte	0x1
 4182 0e16 01       		.byte	0x1
 4183 0e17 15       		.uleb128 0x15
 4184 0e18 AA020000 		.4byte	0x2aa
 4185 0e1c 220E0000 		.4byte	0xe22
 4186 0e20 26       		.uleb128 0x26
 4187 0e21 00       		.byte	0x0
 4188 0e22 27       		.uleb128 0x27
 4189 0e23 776100   		.ascii	"wa\000"
 4190 0e26 0B       		.byte	0xb
 4191 0e27 AB       		.byte	0xab
 4192 0e28 2E0E0000 		.4byte	0xe2e
 4193 0e2c 01       		.byte	0x1
 4194 0e2d 01       		.byte	0x1
 4195 0e2e 10       		.uleb128 0x10
 4196 0e2f 170E0000 		.4byte	0xe17
ARM GAS  C:\Users\DNIEL~1\AppData\Local\Temp\ccTDYczq.s 			page 75


 4197 0e33 28       		.uleb128 0x28
 4198 0e34 697100   		.ascii	"iq\000"
 4199 0e37 01       		.byte	0x1
 4200 0e38 46       		.byte	0x46
 4201 0e39 21050000 		.4byte	0x521
 4202 0e3d 05       		.byte	0x5
 4203 0e3e 03       		.byte	0x3
 4204 0e3f 00000000 		.4byte	iq
 4205 0e43 28       		.uleb128 0x28
 4206 0e44 6F7100   		.ascii	"oq\000"
 4207 0e47 01       		.byte	0x1
 4208 0e48 47       		.byte	0x47
 4209 0e49 2C050000 		.4byte	0x52c
 4210 0e4d 05       		.byte	0x5
 4211 0e4e 03       		.byte	0x3
 4212 0e4f 00000000 		.4byte	oq
 4213 0e53 25       		.uleb128 0x25
 4214 0e54 55010000 		.4byte	.LASF94
 4215 0e58 01       		.byte	0x1
 4216 0e59 99       		.byte	0x99
 4217 0e5a 600E0000 		.4byte	0xe60
 4218 0e5e 01       		.byte	0x1
 4219 0e5f 01       		.byte	0x1
 4220 0e60 10       		.uleb128 0x10
 4221 0e61 37050000 		.4byte	0x537
 4222 0e65 25       		.uleb128 0x25
 4223 0e66 D1010000 		.4byte	.LASF95
 4224 0e6a 01       		.byte	0x1
 4225 0e6b E7       		.byte	0xe7
 4226 0e6c 600E0000 		.4byte	0xe60
 4227 0e70 01       		.byte	0x1
 4228 0e71 01       		.byte	0x1
 4229 0e72 25       		.uleb128 0x25
 4230 0e73 CF030000 		.4byte	.LASF91
 4231 0e77 08       		.byte	0x8
 4232 0e78 68       		.byte	0x68
 4233 0e79 CA030000 		.4byte	0x3ca
 4234 0e7d 01       		.byte	0x1
 4235 0e7e 01       		.byte	0x1
 4236 0e7f 25       		.uleb128 0x25
 4237 0e80 ED020000 		.4byte	.LASF92
 4238 0e84 0B       		.byte	0xb
 4239 0e85 A9       		.byte	0xa9
 4240 0e86 ED0D0000 		.4byte	0xded
 4241 0e8a 01       		.byte	0x1
 4242 0e8b 01       		.byte	0x1
 4243 0e8c 25       		.uleb128 0x25
 4244 0e8d 65000000 		.4byte	.LASF93
 4245 0e91 0B       		.byte	0xb
 4246 0e92 AA       		.byte	0xaa
 4247 0e93 E3050000 		.4byte	0x5e3
 4248 0e97 01       		.byte	0x1
 4249 0e98 01       		.byte	0x1
 4250 0e99 27       		.uleb128 0x27
 4251 0e9a 776100   		.ascii	"wa\000"
 4252 0e9d 0B       		.byte	0xb
 4253 0e9e AB       		.byte	0xab
ARM GAS  C:\Users\DNIEL~1\AppData\Local\Temp\ccTDYczq.s 			page 76


 4254 0e9f A50E0000 		.4byte	0xea5
 4255 0ea3 01       		.byte	0x1
 4256 0ea4 01       		.byte	0x1
 4257 0ea5 10       		.uleb128 0x10
 4258 0ea6 170E0000 		.4byte	0xe17
 4259 0eaa 29       		.uleb128 0x29
 4260 0eab 55010000 		.4byte	.LASF94
 4261 0eaf 01       		.byte	0x1
 4262 0eb0 99       		.byte	0x99
 4263 0eb1 600E0000 		.4byte	0xe60
 4264 0eb5 01       		.byte	0x1
 4265 0eb6 05       		.byte	0x5
 4266 0eb7 03       		.byte	0x3
 4267 0eb8 00000000 		.4byte	testqueues1
 4268 0ebc 29       		.uleb128 0x29
 4269 0ebd D1010000 		.4byte	.LASF95
 4270 0ec1 01       		.byte	0x1
 4271 0ec2 E7       		.byte	0xe7
 4272 0ec3 600E0000 		.4byte	0xe60
 4273 0ec7 01       		.byte	0x1
 4274 0ec8 05       		.byte	0x5
 4275 0ec9 03       		.byte	0x3
 4276 0eca 00000000 		.4byte	testqueues2
 4277 0ece 15       		.uleb128 0x15
 4278 0ecf DE0E0000 		.4byte	0xede
 4279 0ed3 DE0E0000 		.4byte	0xede
 4280 0ed7 16       		.uleb128 0x16
 4281 0ed8 3B000000 		.4byte	0x3b
 4282 0edc 02       		.byte	0x2
 4283 0edd 00       		.byte	0x0
 4284 0ede 09       		.uleb128 0x9
 4285 0edf 04       		.byte	0x4
 4286 0ee0 600E0000 		.4byte	0xe60
 4287 0ee4 29       		.uleb128 0x29
 4288 0ee5 29000000 		.4byte	.LASF96
 4289 0ee9 01       		.byte	0x1
 4290 0eea F2       		.byte	0xf2
 4291 0eeb F60E0000 		.4byte	0xef6
 4292 0eef 01       		.byte	0x1
 4293 0ef0 05       		.byte	0x5
 4294 0ef1 03       		.byte	0x3
 4295 0ef2 00000000 		.4byte	patternqueues
 4296 0ef6 10       		.uleb128 0x10
 4297 0ef7 CE0E0000 		.4byte	0xece
 4298 0efb 00       		.byte	0x0
 4299              		.section	.debug_abbrev
 4300 0000 01       		.uleb128 0x1
 4301 0001 11       		.uleb128 0x11
 4302 0002 01       		.byte	0x1
 4303 0003 25       		.uleb128 0x25
 4304 0004 0E       		.uleb128 0xe
 4305 0005 13       		.uleb128 0x13
 4306 0006 0B       		.uleb128 0xb
 4307 0007 03       		.uleb128 0x3
 4308 0008 0E       		.uleb128 0xe
 4309 0009 1B       		.uleb128 0x1b
 4310 000a 0E       		.uleb128 0xe
ARM GAS  C:\Users\DNIEL~1\AppData\Local\Temp\ccTDYczq.s 			page 77


 4311 000b 11       		.uleb128 0x11
 4312 000c 01       		.uleb128 0x1
 4313 000d 52       		.uleb128 0x52
 4314 000e 01       		.uleb128 0x1
 4315 000f 55       		.uleb128 0x55
 4316 0010 06       		.uleb128 0x6
 4317 0011 10       		.uleb128 0x10
 4318 0012 06       		.uleb128 0x6
 4319 0013 00       		.byte	0x0
 4320 0014 00       		.byte	0x0
 4321 0015 02       		.uleb128 0x2
 4322 0016 24       		.uleb128 0x24
 4323 0017 00       		.byte	0x0
 4324 0018 0B       		.uleb128 0xb
 4325 0019 0B       		.uleb128 0xb
 4326 001a 3E       		.uleb128 0x3e
 4327 001b 0B       		.uleb128 0xb
 4328 001c 03       		.uleb128 0x3
 4329 001d 08       		.uleb128 0x8
 4330 001e 00       		.byte	0x0
 4331 001f 00       		.byte	0x0
 4332 0020 03       		.uleb128 0x3
 4333 0021 16       		.uleb128 0x16
 4334 0022 00       		.byte	0x0
 4335 0023 03       		.uleb128 0x3
 4336 0024 0E       		.uleb128 0xe
 4337 0025 3A       		.uleb128 0x3a
 4338 0026 0B       		.uleb128 0xb
 4339 0027 3B       		.uleb128 0x3b
 4340 0028 0B       		.uleb128 0xb
 4341 0029 49       		.uleb128 0x49
 4342 002a 13       		.uleb128 0x13
 4343 002b 00       		.byte	0x0
 4344 002c 00       		.byte	0x0
 4345 002d 04       		.uleb128 0x4
 4346 002e 24       		.uleb128 0x24
 4347 002f 00       		.byte	0x0
 4348 0030 0B       		.uleb128 0xb
 4349 0031 0B       		.uleb128 0xb
 4350 0032 3E       		.uleb128 0x3e
 4351 0033 0B       		.uleb128 0xb
 4352 0034 03       		.uleb128 0x3
 4353 0035 0E       		.uleb128 0xe
 4354 0036 00       		.byte	0x0
 4355 0037 00       		.byte	0x0
 4356 0038 05       		.uleb128 0x5
 4357 0039 13       		.uleb128 0x13
 4358 003a 01       		.byte	0x1
 4359 003b 03       		.uleb128 0x3
 4360 003c 0E       		.uleb128 0xe
 4361 003d 0B       		.uleb128 0xb
 4362 003e 0B       		.uleb128 0xb
 4363 003f 3A       		.uleb128 0x3a
 4364 0040 0B       		.uleb128 0xb
 4365 0041 3B       		.uleb128 0x3b
 4366 0042 0B       		.uleb128 0xb
 4367 0043 01       		.uleb128 0x1
ARM GAS  C:\Users\DNIEL~1\AppData\Local\Temp\ccTDYczq.s 			page 78


 4368 0044 13       		.uleb128 0x13
 4369 0045 00       		.byte	0x0
 4370 0046 00       		.byte	0x0
 4371 0047 06       		.uleb128 0x6
 4372 0048 0D       		.uleb128 0xd
 4373 0049 00       		.byte	0x0
 4374 004a 03       		.uleb128 0x3
 4375 004b 0E       		.uleb128 0xe
 4376 004c 3A       		.uleb128 0x3a
 4377 004d 0B       		.uleb128 0xb
 4378 004e 3B       		.uleb128 0x3b
 4379 004f 0B       		.uleb128 0xb
 4380 0050 49       		.uleb128 0x49
 4381 0051 13       		.uleb128 0x13
 4382 0052 38       		.uleb128 0x38
 4383 0053 0A       		.uleb128 0xa
 4384 0054 00       		.byte	0x0
 4385 0055 00       		.byte	0x0
 4386 0056 07       		.uleb128 0x7
 4387 0057 0D       		.uleb128 0xd
 4388 0058 00       		.byte	0x0
 4389 0059 03       		.uleb128 0x3
 4390 005a 08       		.uleb128 0x8
 4391 005b 3A       		.uleb128 0x3a
 4392 005c 0B       		.uleb128 0xb
 4393 005d 3B       		.uleb128 0x3b
 4394 005e 0B       		.uleb128 0xb
 4395 005f 49       		.uleb128 0x49
 4396 0060 13       		.uleb128 0x13
 4397 0061 38       		.uleb128 0x38
 4398 0062 0A       		.uleb128 0xa
 4399 0063 00       		.byte	0x0
 4400 0064 00       		.byte	0x0
 4401 0065 08       		.uleb128 0x8
 4402 0066 13       		.uleb128 0x13
 4403 0067 01       		.byte	0x1
 4404 0068 0B       		.uleb128 0xb
 4405 0069 0B       		.uleb128 0xb
 4406 006a 3A       		.uleb128 0x3a
 4407 006b 0B       		.uleb128 0xb
 4408 006c 3B       		.uleb128 0x3b
 4409 006d 0B       		.uleb128 0xb
 4410 006e 01       		.uleb128 0x1
 4411 006f 13       		.uleb128 0x13
 4412 0070 00       		.byte	0x0
 4413 0071 00       		.byte	0x0
 4414 0072 09       		.uleb128 0x9
 4415 0073 0F       		.uleb128 0xf
 4416 0074 00       		.byte	0x0
 4417 0075 0B       		.uleb128 0xb
 4418 0076 0B       		.uleb128 0xb
 4419 0077 49       		.uleb128 0x49
 4420 0078 13       		.uleb128 0x13
 4421 0079 00       		.byte	0x0
 4422 007a 00       		.byte	0x0
 4423 007b 0A       		.uleb128 0xa
 4424 007c 0F       		.uleb128 0xf
ARM GAS  C:\Users\DNIEL~1\AppData\Local\Temp\ccTDYczq.s 			page 79


 4425 007d 00       		.byte	0x0
 4426 007e 0B       		.uleb128 0xb
 4427 007f 0B       		.uleb128 0xb
 4428 0080 00       		.byte	0x0
 4429 0081 00       		.byte	0x0
 4430 0082 0B       		.uleb128 0xb
 4431 0083 13       		.uleb128 0x13
 4432 0084 01       		.byte	0x1
 4433 0085 03       		.uleb128 0x3
 4434 0086 0E       		.uleb128 0xe
 4435 0087 0B       		.uleb128 0xb
 4436 0088 0B       		.uleb128 0xb
 4437 0089 3A       		.uleb128 0x3a
 4438 008a 0B       		.uleb128 0xb
 4439 008b 3B       		.uleb128 0x3b
 4440 008c 05       		.uleb128 0x5
 4441 008d 01       		.uleb128 0x1
 4442 008e 13       		.uleb128 0x13
 4443 008f 00       		.byte	0x0
 4444 0090 00       		.byte	0x0
 4445 0091 0C       		.uleb128 0xc
 4446 0092 0D       		.uleb128 0xd
 4447 0093 00       		.byte	0x0
 4448 0094 03       		.uleb128 0x3
 4449 0095 08       		.uleb128 0x8
 4450 0096 3A       		.uleb128 0x3a
 4451 0097 0B       		.uleb128 0xb
 4452 0098 3B       		.uleb128 0x3b
 4453 0099 05       		.uleb128 0x5
 4454 009a 49       		.uleb128 0x49
 4455 009b 13       		.uleb128 0x13
 4456 009c 38       		.uleb128 0x38
 4457 009d 0A       		.uleb128 0xa
 4458 009e 00       		.byte	0x0
 4459 009f 00       		.byte	0x0
 4460 00a0 0D       		.uleb128 0xd
 4461 00a1 35       		.uleb128 0x35
 4462 00a2 00       		.byte	0x0
 4463 00a3 49       		.uleb128 0x49
 4464 00a4 13       		.uleb128 0x13
 4465 00a5 00       		.byte	0x0
 4466 00a6 00       		.byte	0x0
 4467 00a7 0E       		.uleb128 0xe
 4468 00a8 17       		.uleb128 0x17
 4469 00a9 01       		.byte	0x1
 4470 00aa 0B       		.uleb128 0xb
 4471 00ab 0B       		.uleb128 0xb
 4472 00ac 3A       		.uleb128 0x3a
 4473 00ad 0B       		.uleb128 0xb
 4474 00ae 3B       		.uleb128 0x3b
 4475 00af 0B       		.uleb128 0xb
 4476 00b0 01       		.uleb128 0x1
 4477 00b1 13       		.uleb128 0x13
 4478 00b2 00       		.byte	0x0
 4479 00b3 00       		.byte	0x0
 4480 00b4 0F       		.uleb128 0xf
 4481 00b5 0D       		.uleb128 0xd
ARM GAS  C:\Users\DNIEL~1\AppData\Local\Temp\ccTDYczq.s 			page 80


 4482 00b6 00       		.byte	0x0
 4483 00b7 03       		.uleb128 0x3
 4484 00b8 0E       		.uleb128 0xe
 4485 00b9 3A       		.uleb128 0x3a
 4486 00ba 0B       		.uleb128 0xb
 4487 00bb 3B       		.uleb128 0x3b
 4488 00bc 0B       		.uleb128 0xb
 4489 00bd 49       		.uleb128 0x49
 4490 00be 13       		.uleb128 0x13
 4491 00bf 00       		.byte	0x0
 4492 00c0 00       		.byte	0x0
 4493 00c1 10       		.uleb128 0x10
 4494 00c2 26       		.uleb128 0x26
 4495 00c3 00       		.byte	0x0
 4496 00c4 49       		.uleb128 0x49
 4497 00c5 13       		.uleb128 0x13
 4498 00c6 00       		.byte	0x0
 4499 00c7 00       		.byte	0x0
 4500 00c8 11       		.uleb128 0x11
 4501 00c9 15       		.uleb128 0x15
 4502 00ca 01       		.byte	0x1
 4503 00cb 27       		.uleb128 0x27
 4504 00cc 0C       		.uleb128 0xc
 4505 00cd 01       		.uleb128 0x1
 4506 00ce 13       		.uleb128 0x13
 4507 00cf 00       		.byte	0x0
 4508 00d0 00       		.byte	0x0
 4509 00d1 12       		.uleb128 0x12
 4510 00d2 05       		.uleb128 0x5
 4511 00d3 00       		.byte	0x0
 4512 00d4 49       		.uleb128 0x49
 4513 00d5 13       		.uleb128 0x13
 4514 00d6 00       		.byte	0x0
 4515 00d7 00       		.byte	0x0
 4516 00d8 13       		.uleb128 0x13
 4517 00d9 15       		.uleb128 0x15
 4518 00da 00       		.byte	0x0
 4519 00db 27       		.uleb128 0x27
 4520 00dc 0C       		.uleb128 0xc
 4521 00dd 00       		.byte	0x0
 4522 00de 00       		.byte	0x0
 4523 00df 14       		.uleb128 0x14
 4524 00e0 13       		.uleb128 0x13
 4525 00e1 01       		.byte	0x1
 4526 00e2 0B       		.uleb128 0xb
 4527 00e3 05       		.uleb128 0x5
 4528 00e4 3A       		.uleb128 0x3a
 4529 00e5 0B       		.uleb128 0xb
 4530 00e6 3B       		.uleb128 0x3b
 4531 00e7 0B       		.uleb128 0xb
 4532 00e8 01       		.uleb128 0x1
 4533 00e9 13       		.uleb128 0x13
 4534 00ea 00       		.byte	0x0
 4535 00eb 00       		.byte	0x0
 4536 00ec 15       		.uleb128 0x15
 4537 00ed 01       		.uleb128 0x1
 4538 00ee 01       		.byte	0x1
ARM GAS  C:\Users\DNIEL~1\AppData\Local\Temp\ccTDYczq.s 			page 81


 4539 00ef 49       		.uleb128 0x49
 4540 00f0 13       		.uleb128 0x13
 4541 00f1 01       		.uleb128 0x1
 4542 00f2 13       		.uleb128 0x13
 4543 00f3 00       		.byte	0x0
 4544 00f4 00       		.byte	0x0
 4545 00f5 16       		.uleb128 0x16
 4546 00f6 21       		.uleb128 0x21
 4547 00f7 00       		.byte	0x0
 4548 00f8 49       		.uleb128 0x49
 4549 00f9 13       		.uleb128 0x13
 4550 00fa 2F       		.uleb128 0x2f
 4551 00fb 0B       		.uleb128 0xb
 4552 00fc 00       		.byte	0x0
 4553 00fd 00       		.byte	0x0
 4554 00fe 17       		.uleb128 0x17
 4555 00ff 17       		.uleb128 0x17
 4556 0100 01       		.byte	0x1
 4557 0101 03       		.uleb128 0x3
 4558 0102 0E       		.uleb128 0xe
 4559 0103 0B       		.uleb128 0xb
 4560 0104 05       		.uleb128 0x5
 4561 0105 3A       		.uleb128 0x3a
 4562 0106 0B       		.uleb128 0xb
 4563 0107 3B       		.uleb128 0x3b
 4564 0108 0B       		.uleb128 0xb
 4565 0109 01       		.uleb128 0x1
 4566 010a 13       		.uleb128 0x13
 4567 010b 00       		.byte	0x0
 4568 010c 00       		.byte	0x0
 4569 010d 18       		.uleb128 0x18
 4570 010e 0D       		.uleb128 0xd
 4571 010f 00       		.byte	0x0
 4572 0110 03       		.uleb128 0x3
 4573 0111 08       		.uleb128 0x8
 4574 0112 3A       		.uleb128 0x3a
 4575 0113 0B       		.uleb128 0xb
 4576 0114 3B       		.uleb128 0x3b
 4577 0115 0B       		.uleb128 0xb
 4578 0116 49       		.uleb128 0x49
 4579 0117 13       		.uleb128 0x13
 4580 0118 00       		.byte	0x0
 4581 0119 00       		.byte	0x0
 4582 011a 19       		.uleb128 0x19
 4583 011b 21       		.uleb128 0x21
 4584 011c 00       		.byte	0x0
 4585 011d 49       		.uleb128 0x49
 4586 011e 13       		.uleb128 0x13
 4587 011f 2F       		.uleb128 0x2f
 4588 0120 05       		.uleb128 0x5
 4589 0121 00       		.byte	0x0
 4590 0122 00       		.byte	0x0
 4591 0123 1A       		.uleb128 0x1a
 4592 0124 2E       		.uleb128 0x2e
 4593 0125 01       		.byte	0x1
 4594 0126 03       		.uleb128 0x3
 4595 0127 0E       		.uleb128 0xe
ARM GAS  C:\Users\DNIEL~1\AppData\Local\Temp\ccTDYczq.s 			page 82


 4596 0128 3A       		.uleb128 0x3a
 4597 0129 0B       		.uleb128 0xb
 4598 012a 3B       		.uleb128 0x3b
 4599 012b 0B       		.uleb128 0xb
 4600 012c 27       		.uleb128 0x27
 4601 012d 0C       		.uleb128 0xc
 4602 012e 11       		.uleb128 0x11
 4603 012f 01       		.uleb128 0x1
 4604 0130 12       		.uleb128 0x12
 4605 0131 01       		.uleb128 0x1
 4606 0132 40       		.uleb128 0x40
 4607 0133 0A       		.uleb128 0xa
 4608 0134 01       		.uleb128 0x1
 4609 0135 13       		.uleb128 0x13
 4610 0136 00       		.byte	0x0
 4611 0137 00       		.byte	0x0
 4612 0138 1B       		.uleb128 0x1b
 4613 0139 05       		.uleb128 0x5
 4614 013a 00       		.byte	0x0
 4615 013b 03       		.uleb128 0x3
 4616 013c 08       		.uleb128 0x8
 4617 013d 3A       		.uleb128 0x3a
 4618 013e 0B       		.uleb128 0xb
 4619 013f 3B       		.uleb128 0x3b
 4620 0140 0B       		.uleb128 0xb
 4621 0141 49       		.uleb128 0x49
 4622 0142 13       		.uleb128 0x13
 4623 0143 02       		.uleb128 0x2
 4624 0144 0A       		.uleb128 0xa
 4625 0145 00       		.byte	0x0
 4626 0146 00       		.byte	0x0
 4627 0147 1C       		.uleb128 0x1c
 4628 0148 2E       		.uleb128 0x2e
 4629 0149 01       		.byte	0x1
 4630 014a 03       		.uleb128 0x3
 4631 014b 0E       		.uleb128 0xe
 4632 014c 3A       		.uleb128 0x3a
 4633 014d 0B       		.uleb128 0xb
 4634 014e 3B       		.uleb128 0x3b
 4635 014f 0B       		.uleb128 0xb
 4636 0150 27       		.uleb128 0x27
 4637 0151 0C       		.uleb128 0xc
 4638 0152 49       		.uleb128 0x49
 4639 0153 13       		.uleb128 0x13
 4640 0154 11       		.uleb128 0x11
 4641 0155 01       		.uleb128 0x1
 4642 0156 12       		.uleb128 0x12
 4643 0157 01       		.uleb128 0x1
 4644 0158 40       		.uleb128 0x40
 4645 0159 06       		.uleb128 0x6
 4646 015a 01       		.uleb128 0x1
 4647 015b 13       		.uleb128 0x13
 4648 015c 00       		.byte	0x0
 4649 015d 00       		.byte	0x0
 4650 015e 1D       		.uleb128 0x1d
 4651 015f 05       		.uleb128 0x5
 4652 0160 00       		.byte	0x0
ARM GAS  C:\Users\DNIEL~1\AppData\Local\Temp\ccTDYczq.s 			page 83


 4653 0161 03       		.uleb128 0x3
 4654 0162 08       		.uleb128 0x8
 4655 0163 3A       		.uleb128 0x3a
 4656 0164 0B       		.uleb128 0xb
 4657 0165 3B       		.uleb128 0x3b
 4658 0166 0B       		.uleb128 0xb
 4659 0167 49       		.uleb128 0x49
 4660 0168 13       		.uleb128 0x13
 4661 0169 02       		.uleb128 0x2
 4662 016a 06       		.uleb128 0x6
 4663 016b 00       		.byte	0x0
 4664 016c 00       		.byte	0x0
 4665 016d 1E       		.uleb128 0x1e
 4666 016e 2E       		.uleb128 0x2e
 4667 016f 01       		.byte	0x1
 4668 0170 03       		.uleb128 0x3
 4669 0171 0E       		.uleb128 0xe
 4670 0172 3A       		.uleb128 0x3a
 4671 0173 0B       		.uleb128 0xb
 4672 0174 3B       		.uleb128 0x3b
 4673 0175 0B       		.uleb128 0xb
 4674 0176 27       		.uleb128 0x27
 4675 0177 0C       		.uleb128 0xc
 4676 0178 11       		.uleb128 0x11
 4677 0179 01       		.uleb128 0x1
 4678 017a 12       		.uleb128 0x12
 4679 017b 01       		.uleb128 0x1
 4680 017c 40       		.uleb128 0x40
 4681 017d 06       		.uleb128 0x6
 4682 017e 01       		.uleb128 0x1
 4683 017f 13       		.uleb128 0x13
 4684 0180 00       		.byte	0x0
 4685 0181 00       		.byte	0x0
 4686 0182 1F       		.uleb128 0x1f
 4687 0183 34       		.uleb128 0x34
 4688 0184 00       		.byte	0x0
 4689 0185 03       		.uleb128 0x3
 4690 0186 08       		.uleb128 0x8
 4691 0187 3A       		.uleb128 0x3a
 4692 0188 0B       		.uleb128 0xb
 4693 0189 3B       		.uleb128 0x3b
 4694 018a 0B       		.uleb128 0xb
 4695 018b 49       		.uleb128 0x49
 4696 018c 13       		.uleb128 0x13
 4697 018d 02       		.uleb128 0x2
 4698 018e 06       		.uleb128 0x6
 4699 018f 00       		.byte	0x0
 4700 0190 00       		.byte	0x0
 4701 0191 20       		.uleb128 0x20
 4702 0192 0B       		.uleb128 0xb
 4703 0193 01       		.byte	0x1
 4704 0194 55       		.uleb128 0x55
 4705 0195 06       		.uleb128 0x6
 4706 0196 01       		.uleb128 0x1
 4707 0197 13       		.uleb128 0x13
 4708 0198 00       		.byte	0x0
 4709 0199 00       		.byte	0x0
ARM GAS  C:\Users\DNIEL~1\AppData\Local\Temp\ccTDYczq.s 			page 84


 4710 019a 21       		.uleb128 0x21
 4711 019b 0B       		.uleb128 0xb
 4712 019c 01       		.byte	0x1
 4713 019d 11       		.uleb128 0x11
 4714 019e 01       		.uleb128 0x1
 4715 019f 12       		.uleb128 0x12
 4716 01a0 01       		.uleb128 0x1
 4717 01a1 01       		.uleb128 0x1
 4718 01a2 13       		.uleb128 0x13
 4719 01a3 00       		.byte	0x0
 4720 01a4 00       		.byte	0x0
 4721 01a5 22       		.uleb128 0x22
 4722 01a6 0B       		.uleb128 0xb
 4723 01a7 01       		.byte	0x1
 4724 01a8 55       		.uleb128 0x55
 4725 01a9 06       		.uleb128 0x6
 4726 01aa 00       		.byte	0x0
 4727 01ab 00       		.byte	0x0
 4728 01ac 23       		.uleb128 0x23
 4729 01ad 0B       		.uleb128 0xb
 4730 01ae 01       		.byte	0x1
 4731 01af 11       		.uleb128 0x11
 4732 01b0 01       		.uleb128 0x1
 4733 01b1 12       		.uleb128 0x12
 4734 01b2 01       		.uleb128 0x1
 4735 01b3 00       		.byte	0x0
 4736 01b4 00       		.byte	0x0
 4737 01b5 24       		.uleb128 0x24
 4738 01b6 2E       		.uleb128 0x2e
 4739 01b7 00       		.byte	0x0
 4740 01b8 03       		.uleb128 0x3
 4741 01b9 0E       		.uleb128 0xe
 4742 01ba 3A       		.uleb128 0x3a
 4743 01bb 0B       		.uleb128 0xb
 4744 01bc 3B       		.uleb128 0x3b
 4745 01bd 0B       		.uleb128 0xb
 4746 01be 27       		.uleb128 0x27
 4747 01bf 0C       		.uleb128 0xc
 4748 01c0 11       		.uleb128 0x11
 4749 01c1 01       		.uleb128 0x1
 4750 01c2 12       		.uleb128 0x12
 4751 01c3 01       		.uleb128 0x1
 4752 01c4 40       		.uleb128 0x40
 4753 01c5 06       		.uleb128 0x6
 4754 01c6 00       		.byte	0x0
 4755 01c7 00       		.byte	0x0
 4756 01c8 25       		.uleb128 0x25
 4757 01c9 34       		.uleb128 0x34
 4758 01ca 00       		.byte	0x0
 4759 01cb 03       		.uleb128 0x3
 4760 01cc 0E       		.uleb128 0xe
 4761 01cd 3A       		.uleb128 0x3a
 4762 01ce 0B       		.uleb128 0xb
 4763 01cf 3B       		.uleb128 0x3b
 4764 01d0 0B       		.uleb128 0xb
 4765 01d1 49       		.uleb128 0x49
 4766 01d2 13       		.uleb128 0x13
ARM GAS  C:\Users\DNIEL~1\AppData\Local\Temp\ccTDYczq.s 			page 85


 4767 01d3 3F       		.uleb128 0x3f
 4768 01d4 0C       		.uleb128 0xc
 4769 01d5 3C       		.uleb128 0x3c
 4770 01d6 0C       		.uleb128 0xc
 4771 01d7 00       		.byte	0x0
 4772 01d8 00       		.byte	0x0
 4773 01d9 26       		.uleb128 0x26
 4774 01da 21       		.uleb128 0x21
 4775 01db 00       		.byte	0x0
 4776 01dc 00       		.byte	0x0
 4777 01dd 00       		.byte	0x0
 4778 01de 27       		.uleb128 0x27
 4779 01df 34       		.uleb128 0x34
 4780 01e0 00       		.byte	0x0
 4781 01e1 03       		.uleb128 0x3
 4782 01e2 08       		.uleb128 0x8
 4783 01e3 3A       		.uleb128 0x3a
 4784 01e4 0B       		.uleb128 0xb
 4785 01e5 3B       		.uleb128 0x3b
 4786 01e6 0B       		.uleb128 0xb
 4787 01e7 49       		.uleb128 0x49
 4788 01e8 13       		.uleb128 0x13
 4789 01e9 3F       		.uleb128 0x3f
 4790 01ea 0C       		.uleb128 0xc
 4791 01eb 3C       		.uleb128 0x3c
 4792 01ec 0C       		.uleb128 0xc
 4793 01ed 00       		.byte	0x0
 4794 01ee 00       		.byte	0x0
 4795 01ef 28       		.uleb128 0x28
 4796 01f0 34       		.uleb128 0x34
 4797 01f1 00       		.byte	0x0
 4798 01f2 03       		.uleb128 0x3
 4799 01f3 08       		.uleb128 0x8
 4800 01f4 3A       		.uleb128 0x3a
 4801 01f5 0B       		.uleb128 0xb
 4802 01f6 3B       		.uleb128 0x3b
 4803 01f7 0B       		.uleb128 0xb
 4804 01f8 49       		.uleb128 0x49
 4805 01f9 13       		.uleb128 0x13
 4806 01fa 02       		.uleb128 0x2
 4807 01fb 0A       		.uleb128 0xa
 4808 01fc 00       		.byte	0x0
 4809 01fd 00       		.byte	0x0
 4810 01fe 29       		.uleb128 0x29
 4811 01ff 34       		.uleb128 0x34
 4812 0200 00       		.byte	0x0
 4813 0201 03       		.uleb128 0x3
 4814 0202 0E       		.uleb128 0xe
 4815 0203 3A       		.uleb128 0x3a
 4816 0204 0B       		.uleb128 0xb
 4817 0205 3B       		.uleb128 0x3b
 4818 0206 0B       		.uleb128 0xb
 4819 0207 49       		.uleb128 0x49
 4820 0208 13       		.uleb128 0x13
 4821 0209 3F       		.uleb128 0x3f
 4822 020a 0C       		.uleb128 0xc
 4823 020b 02       		.uleb128 0x2
ARM GAS  C:\Users\DNIEL~1\AppData\Local\Temp\ccTDYczq.s 			page 86


 4824 020c 0A       		.uleb128 0xa
 4825 020d 00       		.byte	0x0
 4826 020e 00       		.byte	0x0
 4827 020f 00       		.byte	0x0
 4828              		.section	.debug_pubnames,"",%progbits
 4829 0000 40000000 		.4byte	0x40
 4830 0004 0200     		.2byte	0x2
 4831 0006 00000000 		.4byte	.Ldebug_info0
 4832 000a FC0E0000 		.4byte	0xefc
 4833 000e AA0E0000 		.4byte	0xeaa
 4834 0012 74657374 		.ascii	"testqueues1\000"
 4834      71756575 
 4834      65733100 
 4835 001e BC0E0000 		.4byte	0xebc
 4836 0022 74657374 		.ascii	"testqueues2\000"
 4836      71756575 
 4836      65733200 
 4837 002e E40E0000 		.4byte	0xee4
 4838 0032 70617474 		.ascii	"patternqueues\000"
 4838      65726E71 
 4838      75657565 
 4838      7300
 4839 0040 00000000 		.4byte	0x0
 4840              		.section	.debug_pubtypes,"",%progbits
 4841 0000 B6010000 		.4byte	0x1b6
 4842 0004 0200     		.2byte	0x2
 4843 0006 00000000 		.4byte	.Ldebug_info0
 4844 000a FC0E0000 		.4byte	0xefc
 4845 000e 30000000 		.4byte	0x30
 4846 0012 73697A65 		.ascii	"size_t\000"
 4846      5F7400
 4847 0019 49000000 		.4byte	0x49
 4848 001d 75696E74 		.ascii	"uint8_t\000"
 4848      385F7400 
 4849 0025 69000000 		.4byte	0x69
 4850 0029 696E7433 		.ascii	"int32_t\000"
 4850      325F7400 
 4851 0031 7B000000 		.4byte	0x7b
 4852 0035 75696E74 		.ascii	"uint32_t\000"
 4852      33325F74 
 4852      00
 4853 003e 94000000 		.4byte	0x94
 4854 0042 75696E74 		.ascii	"uint64_t\000"
 4854      36345F74 
 4854      00
 4855 004b A6000000 		.4byte	0xa6
 4856 004f 626F6F6C 		.ascii	"bool_t\000"
 4856      5F7400
 4857 0056 B1000000 		.4byte	0xb1
 4858 005a 746D6F64 		.ascii	"tmode_t\000"
 4858      655F7400 
 4859 0062 BC000000 		.4byte	0xbc
 4860 0066 74737461 		.ascii	"tstate_t\000"
 4860      74655F74 
 4860      00
 4861 006f C7000000 		.4byte	0xc7
 4862 0073 74726566 		.ascii	"trefs_t\000"
ARM GAS  C:\Users\DNIEL~1\AppData\Local\Temp\ccTDYczq.s 			page 87


 4862      735F7400 
 4863 007b D2000000 		.4byte	0xd2
 4864 007f 74736C69 		.ascii	"tslices_t\000"
 4864      6365735F 
 4864      7400
 4865 0089 DD000000 		.4byte	0xdd
 4866 008d 74707269 		.ascii	"tprio_t\000"
 4866      6F5F7400 
 4867 0095 E8000000 		.4byte	0xe8
 4868 0099 6D73675F 		.ascii	"msg_t\000"
 4868      7400
 4869 009f F3000000 		.4byte	0xf3
 4870 00a3 6576656E 		.ascii	"eventmask_t\000"
 4870      746D6173 
 4870      6B5F7400 
 4871 00af FE000000 		.4byte	0xfe
 4872 00b3 73797374 		.ascii	"systime_t\000"
 4872      696D655F 
 4872      7400
 4873 00bd 09010000 		.4byte	0x109
 4874 00c1 54687265 		.ascii	"Thread\000"
 4874      616400
 4875 00c8 72020000 		.4byte	0x272
 4876 00cc 54687265 		.ascii	"ThreadsQueue\000"
 4876      61647351 
 4876      75657565 
 4876      00
 4877 00d9 94020000 		.4byte	0x294
 4878 00dd 54687265 		.ascii	"ThreadsList\000"
 4878      6164734C 
 4878      69737400 
 4879 00e9 9F020000 		.4byte	0x29f
 4880 00ed 72656761 		.ascii	"regarm_t\000"
 4880      726D5F74 
 4880      00
 4881 00f6 AC020000 		.4byte	0x2ac
 4882 00fa 73746B61 		.ascii	"stkalign_t\000"
 4882      6C69676E 
 4882      5F7400
 4883 0105 B7020000 		.4byte	0x2b7
 4884 0109 696E7463 		.ascii	"intctx\000"
 4884      747800
 4885 0110 45030000 		.4byte	0x345
 4886 0114 636F6E74 		.ascii	"context\000"
 4886      65787400 
 4887 011c CA030000 		.4byte	0x3ca
 4888 0120 52656164 		.ascii	"ReadyList\000"
 4888      794C6973 
 4888      7400
 4889 012a D5030000 		.4byte	0x3d5
 4890 012e 4D757465 		.ascii	"Mutex\000"
 4890      7800
 4891 0134 12040000 		.4byte	0x412
 4892 0138 4D757465 		.ascii	"Mutex\000"
 4892      7800
 4893 013e 14010000 		.4byte	0x114
 4894 0142 54687265 		.ascii	"Thread\000"
ARM GAS  C:\Users\DNIEL~1\AppData\Local\Temp\ccTDYczq.s 			page 88


 4894      616400
 4895 0149 70040000 		.4byte	0x470
 4896 014d 47656E65 		.ascii	"GenericQueue\000"
 4896      72696351 
 4896      75657565 
 4896      00
 4897 015a F8040000 		.4byte	0x4f8
 4898 015e 716E6F74 		.ascii	"qnotify_t\000"
 4898      6966795F 
 4898      7400
 4899 0168 7B040000 		.4byte	0x47b
 4900 016c 47656E65 		.ascii	"GenericQueue\000"
 4900      72696351 
 4900      75657565 
 4900      00
 4901 0179 21050000 		.4byte	0x521
 4902 017d 496E7075 		.ascii	"InputQueue\000"
 4902      74517565 
 4902      756500
 4903 0188 2C050000 		.4byte	0x52c
 4904 018c 4F757470 		.ascii	"OutputQueue\000"
 4904      75745175 
 4904      65756500 
 4905 0198 37050000 		.4byte	0x537
 4906 019c 74657374 		.ascii	"testcase\000"
 4906      63617365 
 4906      00
 4907 01a5 E3050000 		.4byte	0x5e3
 4908 01a9 74657374 		.ascii	"test_buffers\000"
 4908      5F627566 
 4908      66657273 
 4908      00
 4909 01b6 00000000 		.4byte	0x0
 4910              		.section	.debug_aranges,"",%progbits
 4911 0000 4C000000 		.4byte	0x4c
 4912 0004 0200     		.2byte	0x2
 4913 0006 00000000 		.4byte	.Ldebug_info0
 4914 000a 04       		.byte	0x4
 4915 000b 00       		.byte	0x0
 4916 000c 0000     		.2byte	0x0
 4917 000e 0000     		.2byte	0x0
 4918 0010 00000000 		.4byte	.LFB7
 4919 0014 02000000 		.4byte	.LFE7-.LFB7
 4920 0018 00000000 		.4byte	.LFB12
 4921 001c 14000000 		.4byte	.LFE12-.LFB12
 4922 0020 00000000 		.4byte	.LFB13
 4923 0024 A0030000 		.4byte	.LFE13-.LFB13
 4924 0028 00000000 		.4byte	.LFB11
 4925 002c 28000000 		.4byte	.LFE11-.LFB11
 4926 0030 00000000 		.4byte	.LFB9
 4927 0034 14000000 		.4byte	.LFE9-.LFB9
 4928 0038 00000000 		.4byte	.LFB10
 4929 003c B8030000 		.4byte	.LFE10-.LFB10
 4930 0040 00000000 		.4byte	.LFB8
 4931 0044 28000000 		.4byte	.LFE8-.LFB8
 4932 0048 00000000 		.4byte	0x0
 4933 004c 00000000 		.4byte	0x0
ARM GAS  C:\Users\DNIEL~1\AppData\Local\Temp\ccTDYczq.s 			page 89


 4934              		.section	.debug_ranges,"",%progbits
 4935              	.Ldebug_ranges0:
 4936 0000 04000000 		.4byte	.LBB2
 4937 0004 06000000 		.4byte	.LBE2
 4938 0008 08000000 		.4byte	.LBB3
 4939 000c 0C000000 		.4byte	.LBE3
 4940 0010 00000000 		.4byte	0x0
 4941 0014 00000000 		.4byte	0x0
 4942 0018 94000000 		.4byte	.LBB8
 4943 001c 9A000000 		.4byte	.LBE8
 4944 0020 FA000000 		.4byte	.LBB14
 4945 0024 00010000 		.4byte	.LBE14
 4946 0028 D8000000 		.4byte	.LBB12
 4947 002c DE000000 		.4byte	.LBE12
 4948 0030 B6000000 		.4byte	.LBB10
 4949 0034 BC000000 		.4byte	.LBE10
 4950 0038 00000000 		.4byte	0x0
 4951 003c 00000000 		.4byte	0x0
 4952 0040 AA000000 		.4byte	.LBB9
 4953 0044 B0000000 		.4byte	.LBE9
 4954 0048 10010000 		.4byte	.LBB15
 4955 004c 16010000 		.4byte	.LBE15
 4956 0050 EE000000 		.4byte	.LBB13
 4957 0054 F4000000 		.4byte	.LBE13
 4958 0058 CC000000 		.4byte	.LBB11
 4959 005c D2000000 		.4byte	.LBE11
 4960 0060 00000000 		.4byte	0x0
 4961 0064 00000000 		.4byte	0x0
 4962 0068 FA010000 		.4byte	.LBB22
 4963 006c FC010000 		.4byte	.LBE22
 4964 0070 FE010000 		.4byte	.LBB23
 4965 0074 02020000 		.4byte	.LBE23
 4966 0078 00000000 		.4byte	0x0
 4967 007c 00000000 		.4byte	0x0
 4968 0080 04000000 		.4byte	.LBB39
 4969 0084 06000000 		.4byte	.LBE39
 4970 0088 08000000 		.4byte	.LBB40
 4971 008c 0C000000 		.4byte	.LBE40
 4972 0090 00000000 		.4byte	0x0
 4973 0094 00000000 		.4byte	0x0
 4974 0098 DA020000 		.4byte	.LBB62
 4975 009c DC020000 		.4byte	.LBE62
 4976 00a0 DE020000 		.4byte	.LBB63
 4977 00a4 E2020000 		.4byte	.LBE63
 4978 00a8 00000000 		.4byte	0x0
 4979 00ac 00000000 		.4byte	0x0
 4980 00b0 00000000 		.4byte	.LFB7
 4981 00b4 02000000 		.4byte	.LFE7
 4982 00b8 00000000 		.4byte	.LFB12
 4983 00bc 14000000 		.4byte	.LFE12
 4984 00c0 00000000 		.4byte	.LFB13
 4985 00c4 A0030000 		.4byte	.LFE13
 4986 00c8 00000000 		.4byte	.LFB11
 4987 00cc 28000000 		.4byte	.LFE11
 4988 00d0 00000000 		.4byte	.LFB9
 4989 00d4 14000000 		.4byte	.LFE9
 4990 00d8 00000000 		.4byte	.LFB10
ARM GAS  C:\Users\DNIEL~1\AppData\Local\Temp\ccTDYczq.s 			page 90


 4991 00dc B8030000 		.4byte	.LFE10
 4992 00e0 00000000 		.4byte	.LFB8
 4993 00e4 28000000 		.4byte	.LFE8
 4994 00e8 00000000 		.4byte	0x0
 4995 00ec 00000000 		.4byte	0x0
 4996              		.section	.debug_str,"MS",%progbits,1
 4997              	.LASF39:
 4998 0000 705F6D73 		.ascii	"p_msg\000"
 4998      6700
 4999              	.LASF2:
 5000 0006 73697A65 		.ascii	"size_t\000"
 5000      5F7400
 5001              	.LASF61:
 5002 000d 7264796D 		.ascii	"rdymsg\000"
 5002      736700
 5003              	.LASF12:
 5004 0014 75696E74 		.ascii	"uint64_t\000"
 5004      36345F74 
 5004      00
 5005              	.LASF77:
 5006 001d 4F757470 		.ascii	"OutputQueue\000"
 5006      75745175 
 5006      65756500 
 5007              	.LASF96:
 5008 0029 70617474 		.ascii	"patternqueues\000"
 5008      65726E71 
 5008      75657565 
 5008      7300
 5009              	.LASF13:
 5010 0037 6C6F6E67 		.ascii	"long long unsigned int\000"
 5010      206C6F6E 
 5010      6720756E 
 5010      7369676E 
 5010      65642069 
 5011              	.LASF62:
 5012 004e 65786974 		.ascii	"exitcode\000"
 5012      636F6465 
 5012      00
 5013              	.LASF89:
 5014 0057 71756575 		.ascii	"queues2_setup\000"
 5014      6573325F 
 5014      73657475 
 5014      7000
 5015              	.LASF93:
 5016 0065 74657374 		.ascii	"test\000"
 5016      00
 5017              	.LASF26:
 5018 006a 705F7072 		.ascii	"p_prio\000"
 5018      696F00
 5019              	.LASF67:
 5020 0071 715F7761 		.ascii	"q_waiting\000"
 5020      6974696E 
 5020      6700
 5021              	.LASF11:
 5022 007b 6C6F6E67 		.ascii	"long long int\000"
 5022      206C6F6E 
 5022      6720696E 
ARM GAS  C:\Users\DNIEL~1\AppData\Local\Temp\ccTDYczq.s 			page 91


 5022      7400
 5023              	.LASF1:
 5024 0089 7369676E 		.ascii	"signed char\000"
 5024      65642063 
 5024      68617200 
 5025              	.LASF43:
 5026 0095 705F6D70 		.ascii	"p_mpool\000"
 5026      6F6F6C00 
 5027              	.LASF14:
 5028 009d 626F6F6C 		.ascii	"bool_t\000"
 5028      5F7400
 5029              	.LASF58:
 5030 00a4 6D5F7175 		.ascii	"m_queue\000"
 5030      65756500 
 5031              	.LASF18:
 5032 00ac 74736C69 		.ascii	"tslices_t\000"
 5032      6365735F 
 5032      7400
 5033              	.LASF8:
 5034 00b6 6C6F6E67 		.ascii	"long int\000"
 5034      20696E74 
 5034      00
 5035              	.LASF16:
 5036 00bf 74737461 		.ascii	"tstate_t\000"
 5036      74655F74 
 5036      00
 5037              	.LASF69:
 5038 00c8 715F6275 		.ascii	"q_buffer\000"
 5038      66666572 
 5038      00
 5039              	.LASF71:
 5040 00d1 715F7772 		.ascii	"q_wrptr\000"
 5040      70747200 
 5041              	.LASF28:
 5042 00d9 705F6E65 		.ascii	"p_newer\000"
 5042      77657200 
 5043              	.LASF53:
 5044 00e1 725F6E65 		.ascii	"r_newer\000"
 5044      77657200 
 5045              	.LASF46:
 5046 00e9 72656761 		.ascii	"regarm_t\000"
 5046      726D5F74 
 5046      00
 5047              	.LASF31:
 5048 00f2 705F7374 		.ascii	"p_stklimit\000"
 5048      6B6C696D 
 5048      697400
 5049              	.LASF0:
 5050 00fd 756E7369 		.ascii	"unsigned int\000"
 5050      676E6564 
 5050      20696E74 
 5050      00
 5051              	.LASF10:
 5052 010a 6C6F6E67 		.ascii	"long unsigned int\000"
 5052      20756E73 
 5052      69676E65 
 5052      6420696E 
ARM GAS  C:\Users\DNIEL~1\AppData\Local\Temp\ccTDYczq.s 			page 92


 5052      7400
 5053              	.LASF81:
 5054 011c 74656172 		.ascii	"teardown\000"
 5054      646F776E 
 5054      00
 5055              	.LASF79:
 5056 0125 6E616D65 		.ascii	"name\000"
 5056      00
 5057              	.LASF49:
 5058 012a 636F6E74 		.ascii	"context\000"
 5058      65787400 
 5059              	.LASF6:
 5060 0132 73686F72 		.ascii	"short unsigned int\000"
 5060      7420756E 
 5060      7369676E 
 5060      65642069 
 5060      6E7400
 5061              	.LASF88:
 5062 0145 71756575 		.ascii	"queues1_execute\000"
 5062      6573315F 
 5062      65786563 
 5062      75746500 
 5063              	.LASF94:
 5064 0155 74657374 		.ascii	"testqueues1\000"
 5064      71756575 
 5064      65733100 
 5065              	.LASF20:
 5066 0161 6D73675F 		.ascii	"msg_t\000"
 5066      7400
 5067              	.LASF15:
 5068 0167 746D6F64 		.ascii	"tmode_t\000"
 5068      655F7400 
 5069              	.LASF45:
 5070 016f 54687265 		.ascii	"ThreadsList\000"
 5070      6164734C 
 5070      69737400 
 5071              	.LASF21:
 5072 017b 6576656E 		.ascii	"eventmask_t\000"
 5072      746D6173 
 5072      6B5F7400 
 5073              	.LASF76:
 5074 0187 496E7075 		.ascii	"InputQueue\000"
 5074      74517565 
 5074      756500
 5075              	.LASF57:
 5076 0192 4D757465 		.ascii	"Mutex\000"
 5076      7800
 5077              	.LASF66:
 5078 0198 47656E65 		.ascii	"GenericQueue\000"
 5078      72696351 
 5078      75657565 
 5078      00
 5079              	.LASF47:
 5080 01a5 73746B61 		.ascii	"stkalign_t\000"
 5080      6C69676E 
 5080      5F7400
 5081              	.LASF84:
ARM GAS  C:\Users\DNIEL~1\AppData\Local\Temp\ccTDYczq.s 			page 93


 5082 01b0 6E6F7469 		.ascii	"notify\000"
 5082      667900
 5083              	.LASF85:
 5084 01b7 71756575 		.ascii	"queues2_execute\000"
 5084      6573325F 
 5084      65786563 
 5084      75746500 
 5085              	.LASF68:
 5086 01c7 715F636F 		.ascii	"q_counter\000"
 5086      756E7465 
 5086      7200
 5087              	.LASF95:
 5088 01d1 74657374 		.ascii	"testqueues2\000"
 5088      71756575 
 5088      65733200 
 5089              	.LASF29:
 5090 01dd 705F6F6C 		.ascii	"p_older\000"
 5090      64657200 
 5091              	.LASF87:
 5092 01e5 74687265 		.ascii	"thread1\000"
 5092      61643100 
 5093              	.LASF86:
 5094 01ed 74687265 		.ascii	"thread2\000"
 5094      61643200 
 5095              	.LASF52:
 5096 01f5 725F6374 		.ascii	"r_ctx\000"
 5096      7800
 5097              	.LASF44:
 5098 01fb 54687265 		.ascii	"ThreadsQueue\000"
 5098      61647351 
 5098      75657565 
 5098      00
 5099              	.LASF80:
 5100 0208 73657475 		.ascii	"setup\000"
 5100      7000
 5101              	.LASF55:
 5102 020e 725F6375 		.ascii	"r_current\000"
 5102      7272656E 
 5102      7400
 5103              	.LASF54:
 5104 0218 725F6F6C 		.ascii	"r_older\000"
 5104      64657200 
 5105              	.LASF90:
 5106 0220 71756575 		.ascii	"queues1_setup\000"
 5106      6573315F 
 5106      73657475 
 5106      7000
 5107              	.LASF99:
 5108 022e 433A5C55 		.ascii	"C:\\Users\\D\341niel\\Dropbox\\Solar Racing\\Szoftv"
 5108      73657273 
 5108      5C44E16E 
 5108      69656C5C 
 5108      44726F70 
 5109 0259 65725C4D 		.ascii	"er\\Modulux\\Modulux_v0\\modulux\\firmware\000"
 5109      6F64756C 
 5109      75785C4D 
 5109      6F64756C 
ARM GAS  C:\Users\DNIEL~1\AppData\Local\Temp\ccTDYczq.s 			page 94


 5109      75785F76 
 5110              	.LASF17:
 5111 0280 74726566 		.ascii	"trefs_t\000"
 5111      735F7400 
 5112              	.LASF75:
 5113 0288 716E6F74 		.ascii	"qnotify_t\000"
 5113      6966795F 
 5113      7400
 5114              	.LASF25:
 5115 0292 705F7072 		.ascii	"p_prev\000"
 5115      657600
 5116              	.LASF82:
 5117 0299 65786563 		.ascii	"execute\000"
 5117      75746500 
 5118              	.LASF19:
 5119 02a1 74707269 		.ascii	"tprio_t\000"
 5119      6F5F7400 
 5120              	.LASF72:
 5121 02a9 715F7264 		.ascii	"q_rdptr\000"
 5121      70747200 
 5122              	.LASF7:
 5123 02b1 696E7433 		.ascii	"int32_t\000"
 5123      325F7400 
 5124              	.LASF4:
 5125 02b9 756E7369 		.ascii	"unsigned char\000"
 5125      676E6564 
 5125      20636861 
 5125      7200
 5126              	.LASF41:
 5127 02c7 705F6D74 		.ascii	"p_mtxlist\000"
 5127      786C6973 
 5127      7400
 5128              	.LASF5:
 5129 02d1 73686F72 		.ascii	"short int\000"
 5129      7420696E 
 5129      7400
 5130              	.LASF32:
 5131 02db 705F7374 		.ascii	"p_state\000"
 5131      61746500 
 5132              	.LASF35:
 5133 02e3 705F7072 		.ascii	"p_preempt\000"
 5133      65656D70 
 5133      7400
 5134              	.LASF92:
 5135 02ed 74687265 		.ascii	"threads\000"
 5135      61647300 
 5136              	.LASF51:
 5137 02f5 725F7072 		.ascii	"r_prio\000"
 5137      696F00
 5138              	.LASF64:
 5139 02fc 65776D61 		.ascii	"ewmask\000"
 5139      736B00
 5140              	.LASF24:
 5141 0303 705F6E65 		.ascii	"p_next\000"
 5141      787400
 5142              	.LASF33:
 5143 030a 705F666C 		.ascii	"p_flags\000"
ARM GAS  C:\Users\DNIEL~1\AppData\Local\Temp\ccTDYczq.s 			page 95


 5143      61677300 
 5144              	.LASF23:
 5145 0312 54687265 		.ascii	"Thread\000"
 5145      616400
 5146              	.LASF78:
 5147 0319 74657374 		.ascii	"testcase\000"
 5147      63617365 
 5147      00
 5148              	.LASF98:
 5149 0322 2E2E2F2E 		.ascii	"../../../ChibiOS/test/testqueues.c\000"
 5149      2E2F2E2E 
 5149      2F436869 
 5149      62694F53 
 5149      2F746573 
 5150              	.LASF40:
 5151 0345 705F6570 		.ascii	"p_epending\000"
 5151      656E6469 
 5151      6E6700
 5152              	.LASF9:
 5153 0350 75696E74 		.ascii	"uint32_t\000"
 5153      33325F74 
 5153      00
 5154              	.LASF50:
 5155 0359 725F7175 		.ascii	"r_queue\000"
 5155      65756500 
 5156              	.LASF65:
 5157 0361 63686172 		.ascii	"char\000"
 5157      00
 5158              	.LASF100:
 5159 0366 74657374 		.ascii	"test_buffers\000"
 5159      5F627566 
 5159      66657273 
 5159      00
 5160              	.LASF60:
 5161 0373 6D5F6E65 		.ascii	"m_next\000"
 5161      787400
 5162              	.LASF22:
 5163 037a 73797374 		.ascii	"systime_t\000"
 5163      696D655F 
 5163      7400
 5164              	.LASF42:
 5165 0384 705F7265 		.ascii	"p_realprio\000"
 5165      616C7072 
 5165      696F00
 5166              	.LASF83:
 5167 038f 62756666 		.ascii	"buffer\000"
 5167      657200
 5168              	.LASF36:
 5169 0396 705F7469 		.ascii	"p_time\000"
 5169      6D6500
 5170              	.LASF48:
 5171 039d 696E7463 		.ascii	"intctx\000"
 5171      747800
 5172              	.LASF38:
 5173 03a4 705F6D73 		.ascii	"p_msgqueue\000"
 5173      67717565 
 5173      756500
ARM GAS  C:\Users\DNIEL~1\AppData\Local\Temp\ccTDYczq.s 			page 96


 5174              	.LASF70:
 5175 03af 715F746F 		.ascii	"q_top\000"
 5175      7000
 5176              	.LASF34:
 5177 03b5 705F7265 		.ascii	"p_refs\000"
 5177      667300
 5178              	.LASF56:
 5179 03bc 52656164 		.ascii	"ReadyList\000"
 5179      794C6973 
 5179      7400
 5180              	.LASF73:
 5181 03c6 715F6E6F 		.ascii	"q_notify\000"
 5181      74696679 
 5181      00
 5182              	.LASF91:
 5183 03cf 726C6973 		.ascii	"rlist\000"
 5183      7400
 5184              	.LASF3:
 5185 03d5 75696E74 		.ascii	"uint8_t\000"
 5185      385F7400 
 5186              	.LASF63:
 5187 03dd 77746F62 		.ascii	"wtobjp\000"
 5187      6A7000
 5188              	.LASF97:
 5189 03e4 474E5520 		.ascii	"GNU C 4.5.2\000"
 5189      4320342E 
 5189      352E3200 
 5190              	.LASF30:
 5191 03f0 705F6E61 		.ascii	"p_name\000"
 5191      6D6500
 5192              	.LASF74:
 5193 03f7 715F6C69 		.ascii	"q_link\000"
 5193      6E6B00
 5194              	.LASF59:
 5195 03fe 6D5F6F77 		.ascii	"m_owner\000"
 5195      6E657200 
 5196              	.LASF27:
 5197 0406 705F6374 		.ascii	"p_ctx\000"
 5197      7800
 5198              	.LASF37:
 5199 040c 705F7761 		.ascii	"p_waiting\000"
 5199      6974696E 
 5199      6700
 5200              		.ident	"GCC: (Sourcery G++ Lite 2011.03-42) 4.5.2"
ARM GAS  C:\Users\DNIEL~1\AppData\Local\Temp\ccTDYczq.s 			page 97


DEFINED SYMBOLS
                            *ABS*:00000000 testqueues.c
C:\Users\DNIEL~1\AppData\Local\Temp\ccTDYczq.s:24     .text.notify:00000000 $t
C:\Users\DNIEL~1\AppData\Local\Temp\ccTDYczq.s:29     .text.notify:00000000 notify
C:\Users\DNIEL~1\AppData\Local\Temp\ccTDYczq.s:44     .text.thread2:00000000 $t
C:\Users\DNIEL~1\AppData\Local\Temp\ccTDYczq.s:49     .text.thread2:00000000 thread2
C:\Users\DNIEL~1\AppData\Local\Temp\ccTDYczq.s:73     .text.thread2:00000010 $d
C:\Users\DNIEL~1\AppData\Local\Temp\ccTDYczq.s:78     .text.queues2_execute:00000000 $t
C:\Users\DNIEL~1\AppData\Local\Temp\ccTDYczq.s:83     .text.queues2_execute:00000000 queues2_execute
C:\Users\DNIEL~1\AppData\Local\Temp\ccTDYczq.s:650    .text.queues2_execute:00000310 $d
C:\Users\DNIEL~1\AppData\Local\Temp\ccTDYczq.s:658    .text.queues2_execute:00000328 $t
C:\Users\DNIEL~1\AppData\Local\Temp\ccTDYczq.s:783    .text.queues2_setup:00000000 $t
C:\Users\DNIEL~1\AppData\Local\Temp\ccTDYczq.s:788    .text.queues2_setup:00000000 queues2_setup
C:\Users\DNIEL~1\AppData\Local\Temp\ccTDYczq.s:819    .text.queues2_setup:0000001c $d
C:\Users\DNIEL~1\AppData\Local\Temp\ccTDYczq.s:826    .text.thread1:00000000 $t
C:\Users\DNIEL~1\AppData\Local\Temp\ccTDYczq.s:831    .text.thread1:00000000 thread1
C:\Users\DNIEL~1\AppData\Local\Temp\ccTDYczq.s:854    .text.thread1:00000010 $d
C:\Users\DNIEL~1\AppData\Local\Temp\ccTDYczq.s:859    .text.queues1_execute:00000000 $t
C:\Users\DNIEL~1\AppData\Local\Temp\ccTDYczq.s:864    .text.queues1_execute:00000000 queues1_execute
C:\Users\DNIEL~1\AppData\Local\Temp\ccTDYczq.s:1418   .text.queues1_execute:00000328 $d
C:\Users\DNIEL~1\AppData\Local\Temp\ccTDYczq.s:1426   .text.queues1_execute:00000340 $t
C:\Users\DNIEL~1\AppData\Local\Temp\ccTDYczq.s:1548   .text.queues1_setup:00000000 $t
C:\Users\DNIEL~1\AppData\Local\Temp\ccTDYczq.s:1553   .text.queues1_setup:00000000 queues1_setup
C:\Users\DNIEL~1\AppData\Local\Temp\ccTDYczq.s:1584   .text.queues1_setup:0000001c $d
C:\Users\DNIEL~1\AppData\Local\Temp\ccTDYczq.s:1597   .rodata.testqueues1:00000000 testqueues1
C:\Users\DNIEL~1\AppData\Local\Temp\ccTDYczq.s:1606   .rodata.testqueues2:00000000 testqueues2
C:\Users\DNIEL~1\AppData\Local\Temp\ccTDYczq.s:1625   .rodata.patternqueues:00000000 patternqueues
C:\Users\DNIEL~1\AppData\Local\Temp\ccTDYczq.s:1594   .rodata.testqueues1:00000000 $d
C:\Users\DNIEL~1\AppData\Local\Temp\ccTDYczq.s:1603   .rodata.testqueues2:00000000 $d
C:\Users\DNIEL~1\AppData\Local\Temp\ccTDYczq.s:1612   .rodata.str1.4:00000000 $d
C:\Users\DNIEL~1\AppData\Local\Temp\ccTDYczq.s:1622   .rodata.patternqueues:00000000 $d
C:\Users\DNIEL~1\AppData\Local\Temp\ccTDYczq.s:1630   .data.oq:00000000 $d
C:\Users\DNIEL~1\AppData\Local\Temp\ccTDYczq.s:1634   .data.oq:00000000 oq
C:\Users\DNIEL~1\AppData\Local\Temp\ccTDYczq.s:1645   .data.iq:00000000 $d
C:\Users\DNIEL~1\AppData\Local\Temp\ccTDYczq.s:1649   .data.iq:00000000 iq
                     .debug_frame:00000010 $d
C:\Users\DNIEL~1\AppData\Local\Temp\ccTDYczq.s:77     .text.thread2:00000014 $t
C:\Users\DNIEL~1\AppData\Local\Temp\ccTDYczq.s:825    .text.queues2_setup:00000028 $t
C:\Users\DNIEL~1\AppData\Local\Temp\ccTDYczq.s:858    .text.thread1:00000014 $t
C:\Users\DNIEL~1\AppData\Local\Temp\ccTDYczq.s:5200   .text.queues1_setup:00000028 $t

UNDEFINED SYMBOLS
chOQPutTimeout
dbg_check_lock
_test_assert
dbg_check_unlock
chOQGetI
test_emit_token
_test_assert_sequence
chOQWriteTimeout
chThdCreateStatic
test_wait_threads
chOQResetI
wa
rlist
threads
chOQInit
ARM GAS  C:\Users\DNIEL~1\AppData\Local\Temp\ccTDYczq.s 			page 98


chIQGetTimeout
chIQPutI
chIQReadTimeout
chIQResetI
chIQInit
test
