ARM GAS  C:\Users\DNIEL~1\AppData\Local\Temp\ccjO8mzD.s 			page 1


   1              		.syntax unified
   2              		.cpu cortex-m3
   3              		.fpu softvfp
   4              		.eabi_attribute 20, 1
   5              		.eabi_attribute 21, 1
   6              		.eabi_attribute 23, 3
   7              		.eabi_attribute 24, 1
   8              		.eabi_attribute 25, 1
   9              		.eabi_attribute 26, 1
  10              		.eabi_attribute 30, 2
  11              		.eabi_attribute 18, 4
  12              		.thumb
  13              		.file	"testmbox.c"
  14              		.section	.debug_abbrev,"",%progbits
  15              	.Ldebug_abbrev0:
  16              		.section	.debug_info,"",%progbits
  17              	.Ldebug_info0:
  18              		.section	.debug_line,"",%progbits
  19              	.Ldebug_line0:
  20 0000 D2020000 		.text
  20      02006D01 
  20      00000201 
  20      FB0E0D00 
  20      01010101 
  21              	.Ltext0:
  22              		.cfi_sections	.debug_frame
  23              		.section	.text.mbox1_execute,"ax",%progbits
  24              		.align	2
  25              		.p2align 4,,15
  26              		.thumb
  27              		.thumb_func
  28              		.type	mbox1_execute, %function
  29              	mbox1_execute:
  30              	.LFB8:
  31              		.file 1 "../../../ChibiOS/test/testmbox.c"
  32              		.loc 1 80 0
  33              		.cfi_startproc
  34              		@ args = 0, pretend = 0, frame = 8
  35              		@ frame_needed = 0, uses_anonymous_args = 0
  36 0000 70B5     		push	{r4, r5, r6, lr}
  37              	.LCFI0:
  38              		.cfi_def_cfa_offset 16
  39              		.loc 1 87 0
  40 0002 2B4C     		ldr	r4, .L36
  41              		.cfi_offset 14, -4
  42              		.cfi_offset 6, -8
  43              		.cfi_offset 5, -12
  44              		.cfi_offset 4, -16
  45 0004 0120     		movs	r0, #1
  46 0006 626A     		ldr	r2, [r4, #36]
  47              		.loc 1 80 0
  48 0008 82B0     		sub	sp, sp, #8
  49              	.LCFI1:
  50              		.cfi_def_cfa_offset 24
  51              		.loc 1 87 0
  52 000a A2F1050E 		sub	lr, r2, #5
  53 000e DEF10001 		rsbs	r1, lr, #0
ARM GAS  C:\Users\DNIEL~1\AppData\Local\Temp\ccjO8mzD.s 			page 2


  54 0012 41EB0E01 		adc	r1, r1, lr
  55 0016 FFF7FEFF 		bl	_test_assert
  56 001a 0028     		cmp	r0, #0
  57 001c 45D1     		bne	.L1
  58              		.loc 1 93 0
  59 001e 4221     		movs	r1, #66
  60 0020 2046     		mov	r0, r4
  61 0022 4FF0FF32 		mov	r2, #-1
  62 0026 FFF7FEFF 		bl	chMBPost
  63              	.LVL0:
  64              		.loc 1 94 0
  65 002a D0F10101 		rsbs	r1, r0, #1
  66 002e 38BF     		it	cc
  67 0030 0021     		movcc	r1, #0
  68 0032 0220     		movs	r0, #2
  69              	.LVL1:
  70 0034 FFF7FEFF 		bl	_test_assert
  71 0038 B8BB     		cbnz	r0, .L1
  72              	.LVL2:
  73              		.loc 1 93 0
  74 003a 4321     		movs	r1, #67
  75 003c 2046     		mov	r0, r4
  76 003e 4FF0FF32 		mov	r2, #-1
  77 0042 FFF7FEFF 		bl	chMBPost
  78              	.LVL3:
  79              		.loc 1 94 0
  80 0046 D0F10101 		rsbs	r1, r0, #1
  81 004a 38BF     		it	cc
  82 004c 0021     		movcc	r1, #0
  83 004e 0220     		movs	r0, #2
  84              	.LVL4:
  85 0050 FFF7FEFF 		bl	_test_assert
  86 0054 48BB     		cbnz	r0, .L1
  87              	.LVL5:
  88              		.loc 1 93 0
  89 0056 4421     		movs	r1, #68
  90 0058 2046     		mov	r0, r4
  91 005a 4FF0FF32 		mov	r2, #-1
  92 005e FFF7FEFF 		bl	chMBPost
  93              	.LVL6:
  94              		.loc 1 94 0
  95 0062 D0F10101 		rsbs	r1, r0, #1
  96 0066 38BF     		it	cc
  97 0068 0021     		movcc	r1, #0
  98 006a 0220     		movs	r0, #2
  99              	.LVL7:
 100 006c FFF7FEFF 		bl	_test_assert
 101 0070 D8B9     		cbnz	r0, .L1
 102              	.LVL8:
 103              		.loc 1 93 0
 104 0072 4521     		movs	r1, #69
 105 0074 2046     		mov	r0, r4
 106 0076 4FF0FF32 		mov	r2, #-1
 107 007a FFF7FEFF 		bl	chMBPost
 108              	.LVL9:
 109              		.loc 1 94 0
 110 007e D0F10101 		rsbs	r1, r0, #1
ARM GAS  C:\Users\DNIEL~1\AppData\Local\Temp\ccjO8mzD.s 			page 3


 111 0082 38BF     		it	cc
 112 0084 0021     		movcc	r1, #0
 113 0086 0220     		movs	r0, #2
 114              	.LVL10:
 115 0088 FFF7FEFF 		bl	_test_assert
 116 008c 68B9     		cbnz	r0, .L1
 117              	.LVL11:
 118              		.loc 1 96 0
 119 008e 4121     		movs	r1, #65
 120 0090 2046     		mov	r0, r4
 121 0092 4FF0FF32 		mov	r2, #-1
 122 0096 FFF7FEFF 		bl	chMBPostAhead
 123              	.LVL12:
 124              		.loc 1 97 0
 125 009a D0F10101 		rsbs	r1, r0, #1
 126 009e 38BF     		it	cc
 127 00a0 0021     		movcc	r1, #0
 128 00a2 0320     		movs	r0, #3
 129              	.LVL13:
 130 00a4 FFF7FEFF 		bl	_test_assert
 131 00a8 20B1     		cbz	r0, .L22
 132              	.LVL14:
 133              	.L1:
 134              		.loc 1 224 0
 135 00aa 02B0     		add	sp, sp, #8
 136 00ac 70BD     		pop	{r4, r5, r6, pc}
 137              	.L37:
 138 00ae 00BF     		.align	2
 139              	.L36:
 140 00b0 00000000 		.word	.LANCHOR0
 141              	.LVL15:
 142              	.L22:
 143              		.loc 1 102 0
 144 00b4 5821     		movs	r1, #88
 145 00b6 0122     		movs	r2, #1
 146 00b8 2046     		mov	r0, r4
 147 00ba FFF7FEFF 		bl	chMBPost
 148              	.LVL16:
 149              		.loc 1 103 0
 150 00be A0F1FF33 		sub	r3, r0, #-1
 151 00c2 5842     		rsbs	r0, r3, #0
 152              	.LVL17:
 153 00c4 40EB0301 		adc	r1, r0, r3
 154 00c8 0420     		movs	r0, #4
 155 00ca FFF7FEFF 		bl	_test_assert
 156              	.LVL18:
 157 00ce 0546     		mov	r5, r0
 158 00d0 0028     		cmp	r0, #0
 159 00d2 EAD1     		bne	.L1
 160              	.LBB2:
 161              		.loc 1 104 0
 162 00d4 2023     		movs	r3, #32
 163              	.LVL19:
 164              	@ 104 "../../../ChibiOS/test/testmbox.c" 1
 165 00d6 83F31188 		msr     BASEPRI, r3
 166              	@ 0 "" 2
 167              	.LVL20:
ARM GAS  C:\Users\DNIEL~1\AppData\Local\Temp\ccjO8mzD.s 			page 4


 168              		.thumb
 169              	.LBE2:
 170 00da FFF7FEFF 		bl	dbg_check_lock
 171              	.LVL21:
 172              		.loc 1 105 0
 173 00de 5821     		movs	r1, #88
 174 00e0 2046     		mov	r0, r4
 175 00e2 FFF7FEFF 		bl	chMBPostI
 176 00e6 0646     		mov	r6, r0
 177              	.LVL22:
 178              		.loc 1 106 0
 179 00e8 FFF7FEFF 		bl	dbg_check_unlock
 180              	.LVL23:
 181              	.LBB3:
 182 00ec 2B46     		mov	r3, r5
 183              	.LVL24:
 184              	@ 106 "../../../ChibiOS/test/testmbox.c" 1
 185 00ee 83F31188 		msr     BASEPRI, r3
 186              	@ 0 "" 2
 187              	.LVL25:
 188              		.thumb
 189              	.LBE3:
 190              		.loc 1 107 0
 191 00f2 A6F1FF31 		sub	r1, r6, #-1
 192 00f6 0520     		movs	r0, #5
 193 00f8 D1F1000C 		rsbs	ip, r1, #0
 194 00fc 4CEB0101 		adc	r1, ip, r1
 195 0100 FFF7FEFF 		bl	_test_assert
 196              	.LVL26:
 197 0104 0028     		cmp	r0, #0
 198 0106 D0D1     		bne	.L1
 199              		.loc 1 108 0
 200 0108 5821     		movs	r1, #88
 201 010a 0122     		movs	r2, #1
 202 010c 2046     		mov	r0, r4
 203 010e FFF7FEFF 		bl	chMBPostAhead
 204              	.LVL27:
 205              		.loc 1 109 0
 206 0112 A0F1FF32 		sub	r2, r0, #-1
 207 0116 5542     		rsbs	r5, r2, #0
 208 0118 45EB0201 		adc	r1, r5, r2
 209 011c 0620     		movs	r0, #6
 210              	.LVL28:
 211 011e FFF7FEFF 		bl	_test_assert
 212              	.LVL29:
 213 0122 0546     		mov	r5, r0
 214 0124 0028     		cmp	r0, #0
 215 0126 C0D1     		bne	.L1
 216              	.LBB4:
 217              		.loc 1 110 0
 218 0128 2023     		movs	r3, #32
 219              	.LVL30:
 220              	@ 110 "../../../ChibiOS/test/testmbox.c" 1
 221 012a 83F31188 		msr     BASEPRI, r3
 222              	@ 0 "" 2
 223              	.LVL31:
 224              		.thumb
ARM GAS  C:\Users\DNIEL~1\AppData\Local\Temp\ccjO8mzD.s 			page 5


 225              	.LBE4:
 226 012e FFF7FEFF 		bl	dbg_check_lock
 227              	.LVL32:
 228              		.loc 1 111 0
 229 0132 5821     		movs	r1, #88
 230 0134 2046     		mov	r0, r4
 231 0136 FFF7FEFF 		bl	chMBPostAheadI
 232 013a 0646     		mov	r6, r0
 233              	.LVL33:
 234              		.loc 1 112 0
 235 013c FFF7FEFF 		bl	dbg_check_unlock
 236              	.LVL34:
 237              	.LBB5:
 238 0140 2B46     		mov	r3, r5
 239              	.LVL35:
 240              	@ 112 "../../../ChibiOS/test/testmbox.c" 1
 241 0142 83F31188 		msr     BASEPRI, r3
 242              	@ 0 "" 2
 243              	.LVL36:
 244              		.thumb
 245              	.LBE5:
 246              		.loc 1 113 0
 247 0146 A6F1FF3E 		sub	lr, r6, #-1
 248 014a 0720     		movs	r0, #7
 249 014c DEF10003 		rsbs	r3, lr, #0
 250              	.LVL37:
 251 0150 43EB0E01 		adc	r1, r3, lr
 252 0154 FFF7FEFF 		bl	_test_assert
 253 0158 0028     		cmp	r0, #0
 254 015a A6D1     		bne	.L1
 255              	.LBB6:
 256              		.loc 1 118 0
 257 015c 2023     		movs	r3, #32
 258              	.LVL38:
 259              	@ 118 "../../../ChibiOS/test/testmbox.c" 1
 260 015e 83F31188 		msr     BASEPRI, r3
 261              	@ 0 "" 2
 262              	.LVL39:
 263              		.thumb
 264              	.LBE6:
 265 0162 FFF7FEFF 		bl	dbg_check_lock
 266              	.LVL40:
 267 0166 666A     		ldr	r6, [r4, #36]
 268              	.LVL41:
 269 0168 0820     		movs	r0, #8
 270 016a D6F10101 		rsbs	r1, r6, #1
 271 016e 38BF     		it	cc
 272 0170 0021     		movcc	r1, #0
 273 0172 FFF7FEFF 		bl	_test_assert
 274 0176 0646     		mov	r6, r0
 275 0178 0028     		cmp	r0, #0
 276 017a 40F03283 		bne	.L23
 277              		.loc 1 118 0 is_stmt 0 discriminator 2
 278 017e FFF7FEFF 		bl	dbg_check_unlock
 279              	.LBB7:
 280 0182 3346     		mov	r3, r6
 281              	.LVL42:
ARM GAS  C:\Users\DNIEL~1\AppData\Local\Temp\ccjO8mzD.s 			page 6


 282              	@ 118 "../../../ChibiOS/test/testmbox.c" 1
 283 0184 83F31188 		msr     BASEPRI, r3
 284              	@ 0 "" 2
 285              	.LVL43:
 286              		.thumb
 287              	.LBE7:
 288              	.LBB8:
 289              		.loc 1 119 0 is_stmt 1 discriminator 2
 290 0188 2023     		movs	r3, #32
 291              	.LVL44:
 292              	@ 119 "../../../ChibiOS/test/testmbox.c" 1
 293 018a 83F31188 		msr     BASEPRI, r3
 294              	@ 0 "" 2
 295              	.LVL45:
 296              		.thumb
 297              	.LBE8:
 298 018e FFF7FEFF 		bl	dbg_check_lock
 299              	.LVL46:
 300 0192 A569     		ldr	r5, [r4, #24]
 301 0194 0920     		movs	r0, #9
 302 0196 A5F10501 		sub	r1, r5, #5
 303 019a D1F1000C 		rsbs	ip, r1, #0
 304 019e 4CEB0101 		adc	r1, ip, r1
 305 01a2 FFF7FEFF 		bl	_test_assert
 306 01a6 0546     		mov	r5, r0
 307 01a8 0028     		cmp	r0, #0
 308 01aa 40F02083 		bne	.L24
 309 01ae FFF7FEFF 		bl	dbg_check_unlock
 310              	.LBB9:
 311 01b2 2B46     		mov	r3, r5
 312              	.LVL47:
 313              	@ 119 "../../../ChibiOS/test/testmbox.c" 1
 314 01b4 83F31188 		msr     BASEPRI, r3
 315              	@ 0 "" 2
 316              	.LVL48:
 317              		.thumb
 318              	.LBE9:
 319              	.LBB10:
 320              		.loc 1 120 0 discriminator 2
 321 01b8 2023     		movs	r3, #32
 322              	.LVL49:
 323              	@ 120 "../../../ChibiOS/test/testmbox.c" 1
 324 01ba 83F31188 		msr     BASEPRI, r3
 325              	@ 0 "" 2
 326              	.LVL50:
 327              		.thumb
 328              	.LBE10:
 329 01be FFF7FEFF 		bl	dbg_check_lock
 330              	.LVL51:
 331 01c2 E668     		ldr	r6, [r4, #12]
 332 01c4 A168     		ldr	r1, [r4, #8]
 333 01c6 0A20     		movs	r0, #10
 334 01c8 721A     		subs	r2, r6, r1
 335 01ca 5342     		rsbs	r3, r2, #0
 336 01cc 43EB0201 		adc	r1, r3, r2
 337 01d0 FFF7FEFF 		bl	_test_assert
 338 01d4 0646     		mov	r6, r0
ARM GAS  C:\Users\DNIEL~1\AppData\Local\Temp\ccjO8mzD.s 			page 7


 339 01d6 0028     		cmp	r0, #0
 340 01d8 40F00F83 		bne	.L25
 341 01dc FFF7FEFF 		bl	dbg_check_unlock
 342              	.LBB11:
 343 01e0 3346     		mov	r3, r6
 344              	.LVL52:
 345              	@ 120 "../../../ChibiOS/test/testmbox.c" 1
 346 01e2 83F31188 		msr     BASEPRI, r3
 347              	@ 0 "" 2
 348              	.LVL53:
 349              		.thumb
 350              	.LBE11:
 351              		.loc 1 126 0 discriminator 2
 352 01e6 4FF0FF32 		mov	r2, #-1
 353 01ea 01A9     		add	r1, sp, #4
 354 01ec 2046     		mov	r0, r4
 355 01ee FFF7FEFF 		bl	chMBFetch
 356              	.LVL54:
 357              		.loc 1 127 0 discriminator 2
 358 01f2 D0F10101 		rsbs	r1, r0, #1
 359 01f6 38BF     		it	cc
 360 01f8 0021     		movcc	r1, #0
 361 01fa 0B20     		movs	r0, #11
 362              	.LVL55:
 363 01fc FFF7FEFF 		bl	_test_assert
 364 0200 0028     		cmp	r0, #0
 365 0202 7FF452AF 		bne	.L1
 366              		.loc 1 128 0
 367 0206 9DF80400 		ldrb	r0, [sp, #4]	@ zero_extendqisi2
 368 020a FFF7FEFF 		bl	test_emit_token
 369              	.LVL56:
 370              		.loc 1 126 0
 371 020e 01A9     		add	r1, sp, #4
 372 0210 2046     		mov	r0, r4
 373 0212 4FF0FF32 		mov	r2, #-1
 374 0216 FFF7FEFF 		bl	chMBFetch
 375              	.LVL57:
 376              		.loc 1 127 0
 377 021a D0F10101 		rsbs	r1, r0, #1
 378 021e 38BF     		it	cc
 379 0220 0021     		movcc	r1, #0
 380 0222 0B20     		movs	r0, #11
 381              	.LVL58:
 382 0224 FFF7FEFF 		bl	_test_assert
 383 0228 0028     		cmp	r0, #0
 384 022a 7FF43EAF 		bne	.L1
 385              		.loc 1 128 0
 386 022e 9DF80400 		ldrb	r0, [sp, #4]	@ zero_extendqisi2
 387 0232 FFF7FEFF 		bl	test_emit_token
 388              	.LVL59:
 389              		.loc 1 126 0
 390 0236 01A9     		add	r1, sp, #4
 391 0238 2046     		mov	r0, r4
 392 023a 4FF0FF32 		mov	r2, #-1
 393 023e FFF7FEFF 		bl	chMBFetch
 394              	.LVL60:
 395              		.loc 1 127 0
ARM GAS  C:\Users\DNIEL~1\AppData\Local\Temp\ccjO8mzD.s 			page 8


 396 0242 D0F10101 		rsbs	r1, r0, #1
 397 0246 38BF     		it	cc
 398 0248 0021     		movcc	r1, #0
 399 024a 0B20     		movs	r0, #11
 400              	.LVL61:
 401 024c FFF7FEFF 		bl	_test_assert
 402 0250 0028     		cmp	r0, #0
 403 0252 7FF42AAF 		bne	.L1
 404              		.loc 1 128 0
 405 0256 9DF80400 		ldrb	r0, [sp, #4]	@ zero_extendqisi2
 406 025a FFF7FEFF 		bl	test_emit_token
 407              	.LVL62:
 408              		.loc 1 126 0
 409 025e 01A9     		add	r1, sp, #4
 410 0260 2046     		mov	r0, r4
 411 0262 4FF0FF32 		mov	r2, #-1
 412 0266 FFF7FEFF 		bl	chMBFetch
 413              	.LVL63:
 414              		.loc 1 127 0
 415 026a D0F10101 		rsbs	r1, r0, #1
 416 026e 38BF     		it	cc
 417 0270 0021     		movcc	r1, #0
 418 0272 0B20     		movs	r0, #11
 419              	.LVL64:
 420 0274 FFF7FEFF 		bl	_test_assert
 421 0278 0028     		cmp	r0, #0
 422 027a 7FF416AF 		bne	.L1
 423              		.loc 1 128 0
 424 027e 9DF80400 		ldrb	r0, [sp, #4]	@ zero_extendqisi2
 425 0282 FFF7FEFF 		bl	test_emit_token
 426              	.LVL65:
 427              		.loc 1 126 0
 428 0286 01A9     		add	r1, sp, #4
 429 0288 2046     		mov	r0, r4
 430 028a 4FF0FF32 		mov	r2, #-1
 431 028e FFF7FEFF 		bl	chMBFetch
 432              	.LVL66:
 433              		.loc 1 127 0
 434 0292 D0F10101 		rsbs	r1, r0, #1
 435 0296 38BF     		it	cc
 436 0298 0021     		movcc	r1, #0
 437 029a 0B20     		movs	r0, #11
 438              	.LVL67:
 439 029c FFF7FEFF 		bl	_test_assert
 440 02a0 0028     		cmp	r0, #0
 441 02a2 7FF402AF 		bne	.L1
 442              		.loc 1 128 0
 443 02a6 9DF80400 		ldrb	r0, [sp, #4]	@ zero_extendqisi2
 444 02aa FFF7FEFF 		bl	test_emit_token
 445              	.LVL68:
 446              		.loc 1 130 0
 447 02ae 0C20     		movs	r0, #12
 448 02b0 CC49     		ldr	r1, .L38
 449 02b2 FFF7FEFF 		bl	_test_assert_sequence
 450 02b6 0028     		cmp	r0, #0
 451 02b8 7FF4F7AE 		bne	.L1
 452              		.loc 1 135 0
ARM GAS  C:\Users\DNIEL~1\AppData\Local\Temp\ccjO8mzD.s 			page 9


 453 02bc 4721     		movs	r1, #71
 454 02be 2046     		mov	r0, r4
 455 02c0 4FF0FF32 		mov	r2, #-1
 456 02c4 FFF7FEFF 		bl	chMBPost
 457              	.LVL69:
 458              		.loc 1 136 0
 459 02c8 D0F10101 		rsbs	r1, r0, #1
 460 02cc 38BF     		it	cc
 461 02ce 0021     		movcc	r1, #0
 462 02d0 0D20     		movs	r0, #13
 463              	.LVL70:
 464 02d2 FFF7FEFF 		bl	_test_assert
 465 02d6 0028     		cmp	r0, #0
 466 02d8 7FF4E7AE 		bne	.L1
 467              		.loc 1 137 0
 468 02dc C24C     		ldr	r4, .L38+4
 469 02de 01A9     		add	r1, sp, #4
 470 02e0 2046     		mov	r0, r4
 471 02e2 4FF0FF32 		mov	r2, #-1
 472 02e6 FFF7FEFF 		bl	chMBFetch
 473              	.LVL71:
 474              		.loc 1 138 0
 475 02ea D0F10101 		rsbs	r1, r0, #1
 476 02ee 38BF     		it	cc
 477 02f0 0021     		movcc	r1, #0
 478 02f2 0E20     		movs	r0, #14
 479              	.LVL72:
 480 02f4 FFF7FEFF 		bl	_test_assert
 481 02f8 0028     		cmp	r0, #0
 482 02fa 7FF4D6AE 		bne	.L1
 483              		.loc 1 139 0
 484 02fe 2268     		ldr	r2, [r4, #0]
 485 0300 A368     		ldr	r3, [r4, #8]
 486 0302 0F30     		adds	r0, r0, #15
 487 0304 C3EB020C 		rsb	ip, r3, r2
 488 0308 DCF1000E 		rsbs	lr, ip, #0
 489 030c 4EEB0C01 		adc	r1, lr, ip
 490 0310 FFF7FEFF 		bl	_test_assert
 491 0314 0028     		cmp	r0, #0
 492 0316 7FF4C8AE 		bne	.L1
 493              		.loc 1 140 0
 494 031a 2268     		ldr	r2, [r4, #0]
 495 031c E368     		ldr	r3, [r4, #12]
 496 031e 1030     		adds	r0, r0, #16
 497 0320 C3EB020E 		rsb	lr, r3, r2
 498 0324 DEF10001 		rsbs	r1, lr, #0
 499 0328 41EB0E01 		adc	r1, r1, lr
 500 032c FFF7FEFF 		bl	_test_assert
 501 0330 0028     		cmp	r0, #0
 502 0332 7FF4BAAE 		bne	.L1
 503              		.loc 1 145 0
 504 0336 0122     		movs	r2, #1
 505 0338 01A9     		add	r1, sp, #4
 506 033a 2046     		mov	r0, r4
 507 033c FFF7FEFF 		bl	chMBFetch
 508              	.LVL73:
 509              		.loc 1 146 0
ARM GAS  C:\Users\DNIEL~1\AppData\Local\Temp\ccjO8mzD.s 			page 10


 510 0340 A0F1FF35 		sub	r5, r0, #-1
 511 0344 6842     		rsbs	r0, r5, #0
 512              	.LVL74:
 513 0346 40EB0501 		adc	r1, r0, r5
 514 034a 1120     		movs	r0, #17
 515 034c FFF7FEFF 		bl	_test_assert
 516 0350 0546     		mov	r5, r0
 517              	.LVL75:
 518 0352 0028     		cmp	r0, #0
 519 0354 7FF4A9AE 		bne	.L1
 520              	.LBB12:
 521              		.loc 1 147 0
 522 0358 2023     		movs	r3, #32
 523              	.LVL76:
 524              	@ 147 "../../../ChibiOS/test/testmbox.c" 1
 525 035a 83F31188 		msr     BASEPRI, r3
 526              	@ 0 "" 2
 527              	.LVL77:
 528              		.thumb
 529              	.LBE12:
 530 035e FFF7FEFF 		bl	dbg_check_lock
 531              	.LVL78:
 532              		.loc 1 148 0
 533 0362 01A9     		add	r1, sp, #4
 534 0364 2046     		mov	r0, r4
 535 0366 FFF7FEFF 		bl	chMBFetchI
 536 036a 0646     		mov	r6, r0
 537              	.LVL79:
 538              		.loc 1 149 0
 539 036c FFF7FEFF 		bl	dbg_check_unlock
 540              	.LVL80:
 541              	.LBB13:
 542 0370 2B46     		mov	r3, r5
 543              	.LVL81:
 544              	@ 149 "../../../ChibiOS/test/testmbox.c" 1
 545 0372 83F31188 		msr     BASEPRI, r3
 546              	@ 0 "" 2
 547              	.LVL82:
 548              		.thumb
 549              	.LBE13:
 550              		.loc 1 150 0
 551 0376 A6F1FF31 		sub	r1, r6, #-1
 552 037a 1220     		movs	r0, #18
 553 037c D1F1000C 		rsbs	ip, r1, #0
 554 0380 4CEB0101 		adc	r1, ip, r1
 555 0384 FFF7FEFF 		bl	_test_assert
 556              	.LVL83:
 557 0388 0546     		mov	r5, r0
 558 038a 0028     		cmp	r0, #0
 559 038c 7FF48DAE 		bne	.L1
 560              	.LBB14:
 561              		.loc 1 155 0
 562 0390 2023     		movs	r3, #32
 563              	.LVL84:
 564              	@ 155 "../../../ChibiOS/test/testmbox.c" 1
 565 0392 83F31188 		msr     BASEPRI, r3
 566              	@ 0 "" 2
ARM GAS  C:\Users\DNIEL~1\AppData\Local\Temp\ccjO8mzD.s 			page 11


 567              	.LVL85:
 568              		.thumb
 569              	.LBE14:
 570 0396 FFF7FEFF 		bl	dbg_check_lock
 571              	.LVL86:
 572 039a 636A     		ldr	r3, [r4, #36]
 573 039c 1320     		movs	r0, #19
 574 039e A3F10502 		sub	r2, r3, #5
 575 03a2 5642     		rsbs	r6, r2, #0
 576              	.LVL87:
 577 03a4 46EB0201 		adc	r1, r6, r2
 578 03a8 FFF7FEFF 		bl	_test_assert
 579 03ac 0646     		mov	r6, r0
 580 03ae 0028     		cmp	r0, #0
 581 03b0 40F03B82 		bne	.L26
 582              		.loc 1 155 0 is_stmt 0 discriminator 2
 583 03b4 FFF7FEFF 		bl	dbg_check_unlock
 584              	.LBB15:
 585 03b8 3346     		mov	r3, r6
 586              	.LVL88:
 587              	@ 155 "../../../ChibiOS/test/testmbox.c" 1
 588 03ba 83F31188 		msr     BASEPRI, r3
 589              	@ 0 "" 2
 590              	.LVL89:
 591              		.thumb
 592              	.LBE15:
 593              	.LBB16:
 594              		.loc 1 156 0 is_stmt 1 discriminator 2
 595 03be 2023     		movs	r3, #32
 596              	.LVL90:
 597              	@ 156 "../../../ChibiOS/test/testmbox.c" 1
 598 03c0 83F31188 		msr     BASEPRI, r3
 599              	@ 0 "" 2
 600              	.LVL91:
 601              		.thumb
 602              	.LBE16:
 603 03c4 FFF7FEFF 		bl	dbg_check_lock
 604              	.LVL92:
 605 03c8 A569     		ldr	r5, [r4, #24]
 606 03ca 1420     		movs	r0, #20
 607 03cc D5F10101 		rsbs	r1, r5, #1
 608 03d0 38BF     		it	cc
 609 03d2 0021     		movcc	r1, #0
 610 03d4 FFF7FEFF 		bl	_test_assert
 611 03d8 0546     		mov	r5, r0
 612 03da 0028     		cmp	r0, #0
 613 03dc 40F01F82 		bne	.L27
 614 03e0 FFF7FEFF 		bl	dbg_check_unlock
 615              	.LBB17:
 616 03e4 2B46     		mov	r3, r5
 617              	.LVL93:
 618              	@ 156 "../../../ChibiOS/test/testmbox.c" 1
 619 03e6 83F31188 		msr     BASEPRI, r3
 620              	@ 0 "" 2
 621              	.LVL94:
 622              		.thumb
 623              	.LBE17:
ARM GAS  C:\Users\DNIEL~1\AppData\Local\Temp\ccjO8mzD.s 			page 12


 624              	.LBB18:
 625              		.loc 1 157 0 discriminator 2
 626 03ea 2023     		movs	r3, #32
 627              	.LVL95:
 628              	@ 157 "../../../ChibiOS/test/testmbox.c" 1
 629 03ec 83F31188 		msr     BASEPRI, r3
 630              	@ 0 "" 2
 631              	.LVL96:
 632              		.thumb
 633              	.LBE18:
 634 03f0 FFF7FEFF 		bl	dbg_check_lock
 635              	.LVL97:
 636 03f4 A668     		ldr	r6, [r4, #8]
 637 03f6 E268     		ldr	r2, [r4, #12]
 638 03f8 1520     		movs	r0, #21
 639 03fa 911B     		subs	r1, r2, r6
 640 03fc D1F1000C 		rsbs	ip, r1, #0
 641 0400 4CEB0101 		adc	r1, ip, r1
 642 0404 FFF7FEFF 		bl	_test_assert
 643 0408 0646     		mov	r6, r0
 644 040a 0028     		cmp	r0, #0
 645 040c 40F0FB81 		bne	.L28
 646 0410 FFF7FEFF 		bl	dbg_check_unlock
 647              	.LBB19:
 648 0414 3346     		mov	r3, r6
 649              	.LVL98:
 650              	@ 157 "../../../ChibiOS/test/testmbox.c" 1
 651 0416 83F31188 		msr     BASEPRI, r3
 652              	@ 0 "" 2
 653              	.LVL99:
 654              		.thumb
 655              	.LBE19:
 656              	.LBB20:
 657              		.loc 1 162 0 discriminator 2
 658 041a 2023     		movs	r3, #32
 659              	.LVL100:
 660              	@ 162 "../../../ChibiOS/test/testmbox.c" 1
 661 041c 83F31188 		msr     BASEPRI, r3
 662              	@ 0 "" 2
 663              	.LVL101:
 664              		.thumb
 665              	.LBE20:
 666 0420 FFF7FEFF 		bl	dbg_check_lock
 667              	.LVL102:
 668              		.loc 1 163 0 discriminator 2
 669 0424 4121     		movs	r1, #65
 670 0426 2046     		mov	r0, r4
 671 0428 FFF7FEFF 		bl	chMBPostI
 672              	.LVL103:
 673              		.loc 1 164 0 discriminator 2
 674 042c D0F10101 		rsbs	r1, r0, #1
 675 0430 38BF     		it	cc
 676 0432 0021     		movcc	r1, #0
 677 0434 1620     		movs	r0, #22
 678              	.LVL104:
 679 0436 FFF7FEFF 		bl	_test_assert
 680 043a 0028     		cmp	r0, #0
ARM GAS  C:\Users\DNIEL~1\AppData\Local\Temp\ccjO8mzD.s 			page 13


 681 043c 7FF435AE 		bne	.L1
 682              		.loc 1 165 0
 683 0440 4221     		movs	r1, #66
 684 0442 2046     		mov	r0, r4
 685 0444 FFF7FEFF 		bl	chMBPostI
 686              	.LVL105:
 687              		.loc 1 166 0
 688 0448 D0F10101 		rsbs	r1, r0, #1
 689 044c 38BF     		it	cc
 690 044e 0021     		movcc	r1, #0
 691 0450 1720     		movs	r0, #23
 692              	.LVL106:
 693 0452 FFF7FEFF 		bl	_test_assert
 694 0456 0028     		cmp	r0, #0
 695 0458 7FF427AE 		bne	.L1
 696              		.loc 1 167 0
 697 045c 624C     		ldr	r4, .L38+4
 698 045e 4321     		movs	r1, #67
 699 0460 2046     		mov	r0, r4
 700 0462 FFF7FEFF 		bl	chMBPostI
 701              	.LVL107:
 702              		.loc 1 168 0
 703 0466 D0F10101 		rsbs	r1, r0, #1
 704 046a 38BF     		it	cc
 705 046c 0021     		movcc	r1, #0
 706 046e 1820     		movs	r0, #24
 707              	.LVL108:
 708 0470 FFF7FEFF 		bl	_test_assert
 709 0474 0028     		cmp	r0, #0
 710 0476 7FF418AE 		bne	.L1
 711              		.loc 1 169 0
 712 047a 4421     		movs	r1, #68
 713 047c 2046     		mov	r0, r4
 714 047e FFF7FEFF 		bl	chMBPostI
 715              	.LVL109:
 716              		.loc 1 170 0
 717 0482 D0F10101 		rsbs	r1, r0, #1
 718 0486 38BF     		it	cc
 719 0488 0021     		movcc	r1, #0
 720 048a 1920     		movs	r0, #25
 721              	.LVL110:
 722 048c FFF7FEFF 		bl	_test_assert
 723 0490 0546     		mov	r5, r0
 724 0492 0028     		cmp	r0, #0
 725 0494 7FF409AE 		bne	.L1
 726              		.loc 1 171 0
 727 0498 4521     		movs	r1, #69
 728 049a 2046     		mov	r0, r4
 729 049c FFF7FEFF 		bl	chMBPostI
 730 04a0 0646     		mov	r6, r0
 731              	.LVL111:
 732              		.loc 1 172 0
 733 04a2 FFF7FEFF 		bl	dbg_check_unlock
 734              	.LVL112:
 735              	.LBB21:
 736 04a6 2B46     		mov	r3, r5
 737              	.LVL113:
ARM GAS  C:\Users\DNIEL~1\AppData\Local\Temp\ccjO8mzD.s 			page 14


 738              	@ 172 "../../../ChibiOS/test/testmbox.c" 1
 739 04a8 83F31188 		msr     BASEPRI, r3
 740              	@ 0 "" 2
 741              	.LVL114:
 742              		.thumb
 743              	.LBE21:
 744              		.loc 1 173 0
 745 04ac 1A20     		movs	r0, #26
 746 04ae D6F10101 		rsbs	r1, r6, #1
 747 04b2 38BF     		it	cc
 748 04b4 0021     		movcc	r1, #0
 749 04b6 FFF7FEFF 		bl	_test_assert
 750              	.LVL115:
 751 04ba 0028     		cmp	r0, #0
 752 04bc 7FF4F5AD 		bne	.L1
 753              		.loc 1 174 0
 754 04c0 E168     		ldr	r1, [r4, #12]
 755 04c2 A268     		ldr	r2, [r4, #8]
 756 04c4 1B30     		adds	r0, r0, #27
 757 04c6 8B1A     		subs	r3, r1, r2
 758 04c8 D3F1000E 		rsbs	lr, r3, #0
 759 04cc 4EEB0301 		adc	r1, lr, r3
 760 04d0 FFF7FEFF 		bl	_test_assert
 761 04d4 0028     		cmp	r0, #0
 762 04d6 7FF4E8AD 		bne	.L1
 763 04da 0535     		adds	r5, r5, #5
 764              	.LVL116:
 765              	.L9:
 766              	.LBB22:
 767              		.loc 1 176 0
 768 04dc 2023     		movs	r3, #32
 769              	.LVL117:
 770              	@ 176 "../../../ChibiOS/test/testmbox.c" 1
 771 04de 83F31188 		msr     BASEPRI, r3
 772              	@ 0 "" 2
 773              	.LVL118:
 774              		.thumb
 775              	.LBE22:
 776              		.loc 1 177 0
 777 04e2 414C     		ldr	r4, .L38+4
 778              		.loc 1 176 0
 779 04e4 FFF7FEFF 		bl	dbg_check_lock
 780              	.LVL119:
 781              		.loc 1 177 0
 782 04e8 01A9     		add	r1, sp, #4
 783 04ea 2046     		mov	r0, r4
 784 04ec FFF7FEFF 		bl	chMBFetchI
 785 04f0 0646     		mov	r6, r0
 786              	.LVL120:
 787              		.loc 1 178 0
 788 04f2 FFF7FEFF 		bl	dbg_check_unlock
 789              	.LVL121:
 790              	.LBB23:
 791 04f6 0023     		movs	r3, #0
 792              	.LVL122:
 793              	@ 178 "../../../ChibiOS/test/testmbox.c" 1
 794 04f8 83F31188 		msr     BASEPRI, r3
ARM GAS  C:\Users\DNIEL~1\AppData\Local\Temp\ccjO8mzD.s 			page 15


 795              	@ 0 "" 2
 796              	.LVL123:
 797              		.thumb
 798              	.LBE23:
 799              		.loc 1 179 0
 800 04fc C3EB060E 		rsb	lr, r3, r6
 801              	.LVL124:
 802 0500 1C20     		movs	r0, #28
 803 0502 DEF1000C 		rsbs	ip, lr, #0
 804 0506 4CEB0E01 		adc	r1, ip, lr
 805 050a FFF7FEFF 		bl	_test_assert
 806 050e 0028     		cmp	r0, #0
 807 0510 7FF4CBAD 		bne	.L1
 808              		.loc 1 180 0
 809 0514 9DF80400 		ldrb	r0, [sp, #4]	@ zero_extendqisi2
 810 0518 FFF7FEFF 		bl	test_emit_token
 811              		.loc 1 175 0
 812 051c 013D     		subs	r5, r5, #1
 813 051e DDD1     		bne	.L9
 814              		.loc 1 182 0
 815 0520 1D20     		movs	r0, #29
 816 0522 3049     		ldr	r1, .L38
 817 0524 FFF7FEFF 		bl	_test_assert_sequence
 818 0528 0028     		cmp	r0, #0
 819 052a 7FF4BEAD 		bne	.L1
 820              	.LBB24:
 821              		.loc 1 183 0
 822 052e 2023     		movs	r3, #32
 823              	.LVL125:
 824              	@ 183 "../../../ChibiOS/test/testmbox.c" 1
 825 0530 83F31188 		msr     BASEPRI, r3
 826              	@ 0 "" 2
 827              	.LVL126:
 828              		.thumb
 829              	.LBE24:
 830 0534 FFF7FEFF 		bl	dbg_check_lock
 831              	.LVL127:
 832 0538 626A     		ldr	r2, [r4, #36]
 833 053a 1E20     		movs	r0, #30
 834 053c A2F10501 		sub	r1, r2, #5
 835 0540 4B42     		rsbs	r3, r1, #0
 836 0542 43EB0101 		adc	r1, r3, r1
 837 0546 FFF7FEFF 		bl	_test_assert
 838 054a 0028     		cmp	r0, #0
 839 054c 40F07381 		bne	.L29
 840              		.loc 1 183 0 is_stmt 0 discriminator 2
 841 0550 FFF7FEFF 		bl	dbg_check_unlock
 842              	.LBB25:
 843 0554 2B46     		mov	r3, r5
 844              	.LVL128:
 845              	@ 183 "../../../ChibiOS/test/testmbox.c" 1
 846 0556 83F31188 		msr     BASEPRI, r3
 847              	@ 0 "" 2
 848              	.LVL129:
 849              		.thumb
 850              	.LBE25:
 851              	.LBB26:
ARM GAS  C:\Users\DNIEL~1\AppData\Local\Temp\ccjO8mzD.s 			page 16


 852              		.loc 1 184 0 is_stmt 1 discriminator 2
 853 055a 2023     		movs	r3, #32
 854              	.LVL130:
 855              	@ 184 "../../../ChibiOS/test/testmbox.c" 1
 856 055c 83F31188 		msr     BASEPRI, r3
 857              	@ 0 "" 2
 858              	.LVL131:
 859              		.thumb
 860              	.LBE26:
 861 0560 FFF7FEFF 		bl	dbg_check_lock
 862              	.LVL132:
 863 0564 A369     		ldr	r3, [r4, #24]
 864 0566 1F20     		movs	r0, #31
 865 0568 D3F10101 		rsbs	r1, r3, #1
 866 056c 38BF     		it	cc
 867 056e 0021     		movcc	r1, #0
 868 0570 FFF7FEFF 		bl	_test_assert
 869 0574 0028     		cmp	r0, #0
 870 0576 40F04C81 		bne	.L30
 871 057a FFF7FEFF 		bl	dbg_check_unlock
 872              	.LBB27:
 873 057e 2B46     		mov	r3, r5
 874              	.LVL133:
 875              	@ 184 "../../../ChibiOS/test/testmbox.c" 1
 876 0580 83F31188 		msr     BASEPRI, r3
 877              	@ 0 "" 2
 878              	.LVL134:
 879              		.thumb
 880              	.LBE27:
 881              		.loc 1 185 0 discriminator 2
 882 0584 E368     		ldr	r3, [r4, #12]
 883              	.LVL135:
 884 0586 A268     		ldr	r2, [r4, #8]
 885 0588 2020     		movs	r0, #32
 886 058a 991A     		subs	r1, r3, r2
 887 058c D1F1000C 		rsbs	ip, r1, #0
 888 0590 4CEB0101 		adc	r1, ip, r1
 889 0594 FFF7FEFF 		bl	_test_assert
 890 0598 0028     		cmp	r0, #0
 891 059a 7FF486AD 		bne	.L1
 892              	.LBB28:
 893              		.loc 1 187 0
 894 059e 2023     		movs	r3, #32
 895              	.LVL136:
 896              	@ 187 "../../../ChibiOS/test/testmbox.c" 1
 897 05a0 83F31188 		msr     BASEPRI, r3
 898              	@ 0 "" 2
 899              	.LVL137:
 900              		.thumb
 901              	.LBE28:
 902 05a4 FFF7FEFF 		bl	dbg_check_lock
 903              	.LVL138:
 904              		.loc 1 188 0
 905 05a8 4521     		movs	r1, #69
 906 05aa 2046     		mov	r0, r4
 907 05ac FFF7FEFF 		bl	chMBPostAheadI
 908              	.LVL139:
ARM GAS  C:\Users\DNIEL~1\AppData\Local\Temp\ccjO8mzD.s 			page 17


 909              		.loc 1 189 0
 910 05b0 D0F10101 		rsbs	r1, r0, #1
 911 05b4 38BF     		it	cc
 912 05b6 0021     		movcc	r1, #0
 913 05b8 2120     		movs	r0, #33
 914              	.LVL140:
 915 05ba FFF7FEFF 		bl	_test_assert
 916 05be 0028     		cmp	r0, #0
 917 05c0 7FF473AD 		bne	.L1
 918              		.loc 1 190 0
 919 05c4 4421     		movs	r1, #68
 920 05c6 2046     		mov	r0, r4
 921 05c8 FFF7FEFF 		bl	chMBPostAheadI
 922              	.LVL141:
 923              		.loc 1 191 0
 924 05cc D0F10101 		rsbs	r1, r0, #1
 925 05d0 38BF     		it	cc
 926 05d2 0021     		movcc	r1, #0
 927 05d4 2220     		movs	r0, #34
 928              	.LVL142:
 929 05d6 FFF7FEFF 		bl	_test_assert
 930 05da 0028     		cmp	r0, #0
 931 05dc 7FF465AD 		bne	.L1
 932 05e0 04E0     		b	.L39
 933              	.L40:
 934 05e2 00BF     		.align	2
 935              	.L38:
 936 05e4 00000000 		.word	.LC0
 937 05e8 00000000 		.word	.LANCHOR0
 938              	.L39:
 939              		.loc 1 192 0
 940 05ec 4321     		movs	r1, #67
 941 05ee 2046     		mov	r0, r4
 942 05f0 FFF7FEFF 		bl	chMBPostAheadI
 943              	.LVL143:
 944              		.loc 1 193 0
 945 05f4 D0F10101 		rsbs	r1, r0, #1
 946 05f8 38BF     		it	cc
 947 05fa 0021     		movcc	r1, #0
 948 05fc 2320     		movs	r0, #35
 949              	.LVL144:
 950 05fe FFF7FEFF 		bl	_test_assert
 951 0602 0028     		cmp	r0, #0
 952 0604 7FF451AD 		bne	.L1
 953              		.loc 1 194 0
 954 0608 4221     		movs	r1, #66
 955 060a 2046     		mov	r0, r4
 956 060c FFF7FEFF 		bl	chMBPostAheadI
 957              	.LVL145:
 958              		.loc 1 195 0
 959 0610 D0F10101 		rsbs	r1, r0, #1
 960 0614 38BF     		it	cc
 961 0616 0021     		movcc	r1, #0
 962 0618 2420     		movs	r0, #36
 963              	.LVL146:
 964 061a FFF7FEFF 		bl	_test_assert
 965 061e 0028     		cmp	r0, #0
ARM GAS  C:\Users\DNIEL~1\AppData\Local\Temp\ccjO8mzD.s 			page 18


 966 0620 7FF443AD 		bne	.L1
 967              		.loc 1 196 0
 968 0624 964C     		ldr	r4, .L41
 969 0626 4121     		movs	r1, #65
 970 0628 2046     		mov	r0, r4
 971 062a FFF7FEFF 		bl	chMBPostAheadI
 972 062e 0546     		mov	r5, r0
 973              	.LVL147:
 974              		.loc 1 197 0
 975 0630 FFF7FEFF 		bl	dbg_check_unlock
 976              	.LVL148:
 977              	.LBB29:
 978 0634 0023     		movs	r3, #0
 979              	.LVL149:
 980              	@ 197 "../../../ChibiOS/test/testmbox.c" 1
 981 0636 83F31188 		msr     BASEPRI, r3
 982              	@ 0 "" 2
 983              	.LVL150:
 984              		.thumb
 985              	.LBE29:
 986              		.loc 1 198 0
 987 063a C3EB050C 		rsb	ip, r3, r5
 988              	.LVL151:
 989 063e 2520     		movs	r0, #37
 990 0640 DCF10001 		rsbs	r1, ip, #0
 991 0644 41EB0C01 		adc	r1, r1, ip
 992 0648 FFF7FEFF 		bl	_test_assert
 993 064c 0028     		cmp	r0, #0
 994 064e 7FF42CAD 		bne	.L1
 995              		.loc 1 199 0
 996 0652 E168     		ldr	r1, [r4, #12]
 997 0654 A368     		ldr	r3, [r4, #8]
 998 0656 2630     		adds	r0, r0, #38
 999 0658 C3EB010E 		rsb	lr, r3, r1
 1000 065c DEF10002 		rsbs	r2, lr, #0
 1001 0660 42EB0E01 		adc	r1, r2, lr
 1002 0664 FFF7FEFF 		bl	_test_assert
 1003 0668 0028     		cmp	r0, #0
 1004 066a 7FF41EAD 		bne	.L1
 1005 066e 0524     		movs	r4, #5
 1006              	.LVL152:
 1007              	.L12:
 1008              	.LBB30:
 1009              		.loc 1 201 0
 1010 0670 2023     		movs	r3, #32
 1011              	.LVL153:
 1012              	@ 201 "../../../ChibiOS/test/testmbox.c" 1
 1013 0672 83F31188 		msr     BASEPRI, r3
 1014              	@ 0 "" 2
 1015              	.LVL154:
 1016              		.thumb
 1017              	.LBE30:
 1018              		.loc 1 202 0
 1019 0676 824D     		ldr	r5, .L41
 1020              		.loc 1 201 0
 1021 0678 FFF7FEFF 		bl	dbg_check_lock
 1022              	.LVL155:
ARM GAS  C:\Users\DNIEL~1\AppData\Local\Temp\ccjO8mzD.s 			page 19


 1023              		.loc 1 202 0
 1024 067c 01A9     		add	r1, sp, #4
 1025 067e 2846     		mov	r0, r5
 1026 0680 FFF7FEFF 		bl	chMBFetchI
 1027 0684 0646     		mov	r6, r0
 1028              	.LVL156:
 1029              		.loc 1 203 0
 1030 0686 FFF7FEFF 		bl	dbg_check_unlock
 1031              	.LVL157:
 1032              	.LBB31:
 1033 068a 0023     		movs	r3, #0
 1034              	.LVL158:
 1035              	@ 203 "../../../ChibiOS/test/testmbox.c" 1
 1036 068c 83F31188 		msr     BASEPRI, r3
 1037              	@ 0 "" 2
 1038              	.LVL159:
 1039              		.thumb
 1040              	.LBE31:
 1041              		.loc 1 204 0
 1042 0690 F21A     		subs	r2, r6, r3
 1043              	.LVL160:
 1044 0692 2720     		movs	r0, #39
 1045 0694 D2F1000C 		rsbs	ip, r2, #0
 1046 0698 4CEB0201 		adc	r1, ip, r2
 1047 069c FFF7FEFF 		bl	_test_assert
 1048 06a0 0028     		cmp	r0, #0
 1049 06a2 7FF402AD 		bne	.L1
 1050              		.loc 1 205 0
 1051 06a6 9DF80400 		ldrb	r0, [sp, #4]	@ zero_extendqisi2
 1052 06aa FFF7FEFF 		bl	test_emit_token
 1053              		.loc 1 200 0
 1054 06ae 013C     		subs	r4, r4, #1
 1055 06b0 DED1     		bne	.L12
 1056              		.loc 1 207 0
 1057 06b2 2820     		movs	r0, #40
 1058 06b4 7349     		ldr	r1, .L41+4
 1059 06b6 FFF7FEFF 		bl	_test_assert_sequence
 1060 06ba 0028     		cmp	r0, #0
 1061 06bc 7FF4F5AC 		bne	.L1
 1062              	.LBB32:
 1063              		.loc 1 208 0
 1064 06c0 2023     		movs	r3, #32
 1065              	.LVL161:
 1066              	@ 208 "../../../ChibiOS/test/testmbox.c" 1
 1067 06c2 83F31188 		msr     BASEPRI, r3
 1068              	@ 0 "" 2
 1069              	.LVL162:
 1070              		.thumb
 1071              	.LBE32:
 1072 06c6 FFF7FEFF 		bl	dbg_check_lock
 1073              	.LVL163:
 1074 06ca 6A6A     		ldr	r2, [r5, #36]
 1075 06cc 2920     		movs	r0, #41
 1076 06ce A2F10503 		sub	r3, r2, #5
 1077 06d2 5942     		rsbs	r1, r3, #0
 1078 06d4 41EB0301 		adc	r1, r1, r3
 1079 06d8 FFF7FEFF 		bl	_test_assert
ARM GAS  C:\Users\DNIEL~1\AppData\Local\Temp\ccjO8mzD.s 			page 20


 1080 06dc 0028     		cmp	r0, #0
 1081 06de 40F0C880 		bne	.L31
 1082              		.loc 1 208 0 is_stmt 0 discriminator 2
 1083 06e2 FFF7FEFF 		bl	dbg_check_unlock
 1084              	.LBB33:
 1085 06e6 2346     		mov	r3, r4
 1086              	.LVL164:
 1087              	@ 208 "../../../ChibiOS/test/testmbox.c" 1
 1088 06e8 83F31188 		msr     BASEPRI, r3
 1089              	@ 0 "" 2
 1090              	.LVL165:
 1091              		.thumb
 1092              	.LBE33:
 1093              	.LBB34:
 1094              		.loc 1 209 0 is_stmt 1 discriminator 2
 1095 06ec 2023     		movs	r3, #32
 1096              	.LVL166:
 1097              	@ 209 "../../../ChibiOS/test/testmbox.c" 1
 1098 06ee 83F31188 		msr     BASEPRI, r3
 1099              	@ 0 "" 2
 1100              	.LVL167:
 1101              		.thumb
 1102              	.LBE34:
 1103 06f2 FFF7FEFF 		bl	dbg_check_lock
 1104              	.LVL168:
 1105 06f6 A969     		ldr	r1, [r5, #24]
 1106 06f8 2A20     		movs	r0, #42
 1107 06fa D1F10101 		rsbs	r1, r1, #1
 1108 06fe 38BF     		it	cc
 1109 0700 0021     		movcc	r1, #0
 1110 0702 FFF7FEFF 		bl	_test_assert
 1111 0706 0028     		cmp	r0, #0
 1112 0708 40F0AD80 		bne	.L32
 1113 070c FFF7FEFF 		bl	dbg_check_unlock
 1114              	.LBB35:
 1115 0710 2346     		mov	r3, r4
 1116              	.LVL169:
 1117              	@ 209 "../../../ChibiOS/test/testmbox.c" 1
 1118 0712 83F31188 		msr     BASEPRI, r3
 1119              	@ 0 "" 2
 1120              	.LVL170:
 1121              		.thumb
 1122              	.LBE35:
 1123              		.loc 1 210 0 discriminator 2
 1124 0716 A968     		ldr	r1, [r5, #8]
 1125 0718 EA68     		ldr	r2, [r5, #12]
 1126 071a 2B20     		movs	r0, #43
 1127 071c C1EB020C 		rsb	ip, r1, r2
 1128 0720 DCF10003 		rsbs	r3, ip, #0
 1129              	.LVL171:
 1130 0724 43EB0C01 		adc	r1, r3, ip
 1131 0728 FFF7FEFF 		bl	_test_assert
 1132 072c 0028     		cmp	r0, #0
 1133 072e 7FF4BCAC 		bne	.L1
 1134              		.loc 1 215 0
 1135 0732 2846     		mov	r0, r5
 1136 0734 FFF7FEFF 		bl	chMBReset
ARM GAS  C:\Users\DNIEL~1\AppData\Local\Temp\ccjO8mzD.s 			page 21


 1137              	.LBB36:
 1138              		.loc 1 220 0
 1139 0738 2023     		movs	r3, #32
 1140              	.LVL172:
 1141              	@ 220 "../../../ChibiOS/test/testmbox.c" 1
 1142 073a 83F31188 		msr     BASEPRI, r3
 1143              	@ 0 "" 2
 1144              	.LVL173:
 1145              		.thumb
 1146              	.LBE36:
 1147 073e FFF7FEFF 		bl	dbg_check_lock
 1148              	.LVL174:
 1149 0742 6A6A     		ldr	r2, [r5, #36]
 1150 0744 2C20     		movs	r0, #44
 1151 0746 A2F1050E 		sub	lr, r2, #5
 1152 074a DEF10003 		rsbs	r3, lr, #0
 1153 074e 43EB0E01 		adc	r1, r3, lr
 1154 0752 FFF7FEFF 		bl	_test_assert
 1155 0756 0028     		cmp	r0, #0
 1156 0758 7FD1     		bne	.L33
 1157              		.loc 1 220 0 is_stmt 0 discriminator 2
 1158 075a FFF7FEFF 		bl	dbg_check_unlock
 1159              	.LBB37:
 1160 075e 2346     		mov	r3, r4
 1161              	.LVL175:
 1162              	@ 220 "../../../ChibiOS/test/testmbox.c" 1
 1163 0760 83F31188 		msr     BASEPRI, r3
 1164              	@ 0 "" 2
 1165              	.LVL176:
 1166              		.thumb
 1167              	.LBE37:
 1168              	.LBB38:
 1169              		.loc 1 221 0 is_stmt 1 discriminator 2
 1170 0764 2023     		movs	r3, #32
 1171              	.LVL177:
 1172              	@ 221 "../../../ChibiOS/test/testmbox.c" 1
 1173 0766 83F31188 		msr     BASEPRI, r3
 1174              	@ 0 "" 2
 1175              	.LVL178:
 1176              		.thumb
 1177              	.LBE38:
 1178 076a FFF7FEFF 		bl	dbg_check_lock
 1179              	.LVL179:
 1180 076e A969     		ldr	r1, [r5, #24]
 1181 0770 2D20     		movs	r0, #45
 1182 0772 D1F10101 		rsbs	r1, r1, #1
 1183 0776 38BF     		it	cc
 1184 0778 0021     		movcc	r1, #0
 1185 077a FFF7FEFF 		bl	_test_assert
 1186 077e 0028     		cmp	r0, #0
 1187 0780 65D1     		bne	.L34
 1188 0782 FFF7FEFF 		bl	dbg_check_unlock
 1189              	.LBB39:
 1190 0786 2346     		mov	r3, r4
 1191              	.LVL180:
 1192              	@ 221 "../../../ChibiOS/test/testmbox.c" 1
 1193 0788 83F31188 		msr     BASEPRI, r3
ARM GAS  C:\Users\DNIEL~1\AppData\Local\Temp\ccjO8mzD.s 			page 22


 1194              	@ 0 "" 2
 1195              	.LVL181:
 1196              		.thumb
 1197              	.LBE39:
 1198              	.LBB40:
 1199              		.loc 1 222 0 discriminator 2
 1200 078c 2023     		movs	r3, #32
 1201              	.LVL182:
 1202              	@ 222 "../../../ChibiOS/test/testmbox.c" 1
 1203 078e 83F31188 		msr     BASEPRI, r3
 1204              	@ 0 "" 2
 1205              	.LVL183:
 1206              		.thumb
 1207              	.LBE40:
 1208 0792 FFF7FEFF 		bl	dbg_check_lock
 1209              	.LVL184:
 1210 0796 A968     		ldr	r1, [r5, #8]
 1211 0798 2A68     		ldr	r2, [r5, #0]
 1212 079a 2E20     		movs	r0, #46
 1213 079c 531A     		subs	r3, r2, r1
 1214 079e D3F1000C 		rsbs	ip, r3, #0
 1215 07a2 4CEB0301 		adc	r1, ip, r3
 1216 07a6 FFF7FEFF 		bl	_test_assert
 1217 07aa 0028     		cmp	r0, #0
 1218 07ac 49D1     		bne	.L35
 1219 07ae FFF7FEFF 		bl	dbg_check_unlock
 1220              	.LBB41:
 1221 07b2 2346     		mov	r3, r4
 1222              	.LVL185:
 1223              	@ 222 "../../../ChibiOS/test/testmbox.c" 1
 1224 07b4 83F31188 		msr     BASEPRI, r3
 1225              	@ 0 "" 2
 1226              	.LVL186:
 1227              		.thumb
 1228              	.LBE41:
 1229              	.LBB42:
 1230              		.loc 1 223 0 discriminator 2
 1231 07b8 2023     		movs	r3, #32
 1232              	.LVL187:
 1233              	@ 223 "../../../ChibiOS/test/testmbox.c" 1
 1234 07ba 83F31188 		msr     BASEPRI, r3
 1235              	@ 0 "" 2
 1236              	.LVL188:
 1237              		.thumb
 1238              	.LBE42:
 1239 07be FFF7FEFF 		bl	dbg_check_lock
 1240              	.LVL189:
 1241 07c2 2968     		ldr	r1, [r5, #0]
 1242 07c4 EA68     		ldr	r2, [r5, #12]
 1243 07c6 2F20     		movs	r0, #47
 1244 07c8 8B1A     		subs	r3, r1, r2
 1245 07ca D3F1000C 		rsbs	ip, r3, #0
 1246 07ce 4CEB0301 		adc	r1, ip, r3
 1247 07d2 FFF7FEFF 		bl	_test_assert
 1248 07d6 FFF7FEFF 		bl	dbg_check_unlock
 1249              	.LBB43:
 1250 07da 0023     		movs	r3, #0
ARM GAS  C:\Users\DNIEL~1\AppData\Local\Temp\ccjO8mzD.s 			page 23


 1251              	@ 223 "../../../ChibiOS/test/testmbox.c" 1
 1252 07dc 83F31188 		msr     BASEPRI, r3
 1253              	@ 0 "" 2
 1254              	.LVL190:
 1255              		.thumb
 1256 07e0 63E4     		b	.L1
 1257              	.LVL191:
 1258              	.L23:
 1259              	.LBE43:
 1260              		.loc 1 118 0 discriminator 1
 1261 07e2 FFF7FEFF 		bl	dbg_check_unlock
 1262              	.LBB44:
 1263 07e6 0023     		movs	r3, #0
 1264              	@ 118 "../../../ChibiOS/test/testmbox.c" 1
 1265 07e8 83F31188 		msr     BASEPRI, r3
 1266              	@ 0 "" 2
 1267              	.LVL192:
 1268              		.thumb
 1269              	.LBE44:
 1270 07ec 5DE4     		b	.L1
 1271              	.LVL193:
 1272              	.L24:
 1273              		.loc 1 119 0 discriminator 1
 1274 07ee FFF7FEFF 		bl	dbg_check_unlock
 1275              	.LBB45:
 1276 07f2 3346     		mov	r3, r6
 1277              	@ 119 "../../../ChibiOS/test/testmbox.c" 1
 1278 07f4 83F31188 		msr     BASEPRI, r3
 1279              	@ 0 "" 2
 1280              	.LVL194:
 1281              		.thumb
 1282              	.LBE45:
 1283 07f8 57E4     		b	.L1
 1284              	.LVL195:
 1285              	.L25:
 1286              		.loc 1 120 0 discriminator 1
 1287 07fa FFF7FEFF 		bl	dbg_check_unlock
 1288              	.LBB46:
 1289 07fe 2B46     		mov	r3, r5
 1290              	@ 120 "../../../ChibiOS/test/testmbox.c" 1
 1291 0800 83F31188 		msr     BASEPRI, r3
 1292              	@ 0 "" 2
 1293              	.LVL196:
 1294              		.thumb
 1295              	.LBE46:
 1296 0804 51E4     		b	.L1
 1297              	.LVL197:
 1298              	.L28:
 1299              		.loc 1 157 0 discriminator 1
 1300 0806 FFF7FEFF 		bl	dbg_check_unlock
 1301              	.LBB47:
 1302 080a 2B46     		mov	r3, r5
 1303              	@ 157 "../../../ChibiOS/test/testmbox.c" 1
 1304 080c 83F31188 		msr     BASEPRI, r3
 1305              	@ 0 "" 2
 1306              	.LVL198:
 1307              		.thumb
ARM GAS  C:\Users\DNIEL~1\AppData\Local\Temp\ccjO8mzD.s 			page 24


 1308              	.LBE47:
 1309 0810 4BE4     		b	.L1
 1310              	.LVL199:
 1311              	.L30:
 1312              		.loc 1 184 0 discriminator 1
 1313 0812 FFF7FEFF 		bl	dbg_check_unlock
 1314              	.LBB48:
 1315 0816 2B46     		mov	r3, r5
 1316              	@ 184 "../../../ChibiOS/test/testmbox.c" 1
 1317 0818 83F31188 		msr     BASEPRI, r3
 1318              	@ 0 "" 2
 1319              	.LVL200:
 1320              		.thumb
 1321              	.LBE48:
 1322 081c 45E4     		b	.L1
 1323              	.LVL201:
 1324              	.L27:
 1325              		.loc 1 156 0 discriminator 1
 1326 081e FFF7FEFF 		bl	dbg_check_unlock
 1327              	.LBB49:
 1328 0822 3346     		mov	r3, r6
 1329              	@ 156 "../../../ChibiOS/test/testmbox.c" 1
 1330 0824 83F31188 		msr     BASEPRI, r3
 1331              	@ 0 "" 2
 1332              	.LVL202:
 1333              		.thumb
 1334              	.LBE49:
 1335 0828 3FE4     		b	.L1
 1336              	.LVL203:
 1337              	.L26:
 1338              		.loc 1 155 0 discriminator 1
 1339 082a FFF7FEFF 		bl	dbg_check_unlock
 1340              	.LBB50:
 1341 082e 2B46     		mov	r3, r5
 1342              	@ 155 "../../../ChibiOS/test/testmbox.c" 1
 1343 0830 83F31188 		msr     BASEPRI, r3
 1344              	@ 0 "" 2
 1345              	.LVL204:
 1346              		.thumb
 1347              	.LBE50:
 1348 0834 39E4     		b	.L1
 1349              	.LVL205:
 1350              	.L29:
 1351              		.loc 1 183 0 discriminator 1
 1352 0836 FFF7FEFF 		bl	dbg_check_unlock
 1353              	.LBB51:
 1354 083a 2B46     		mov	r3, r5
 1355              	@ 183 "../../../ChibiOS/test/testmbox.c" 1
 1356 083c 83F31188 		msr     BASEPRI, r3
 1357              	@ 0 "" 2
 1358              	.LVL206:
 1359              		.thumb
 1360              	.LBE51:
 1361 0840 33E4     		b	.L1
 1362              	.LVL207:
 1363              	.L35:
 1364              		.loc 1 222 0 discriminator 1
ARM GAS  C:\Users\DNIEL~1\AppData\Local\Temp\ccjO8mzD.s 			page 25


 1365 0842 FFF7FEFF 		bl	dbg_check_unlock
 1366              	.LBB52:
 1367 0846 2346     		mov	r3, r4
 1368              	@ 222 "../../../ChibiOS/test/testmbox.c" 1
 1369 0848 83F31188 		msr     BASEPRI, r3
 1370              	@ 0 "" 2
 1371              	.LVL208:
 1372              		.thumb
 1373              	.LBE52:
 1374 084c 2DE4     		b	.L1
 1375              	.LVL209:
 1376              	.L34:
 1377              		.loc 1 221 0 discriminator 1
 1378 084e FFF7FEFF 		bl	dbg_check_unlock
 1379              	.LBB53:
 1380 0852 2346     		mov	r3, r4
 1381              	@ 221 "../../../ChibiOS/test/testmbox.c" 1
 1382 0854 83F31188 		msr     BASEPRI, r3
 1383              	@ 0 "" 2
 1384              	.LVL210:
 1385              		.thumb
 1386              	.LBE53:
 1387 0858 27E4     		b	.L1
 1388              	.LVL211:
 1389              	.L33:
 1390              		.loc 1 220 0 discriminator 1
 1391 085a FFF7FEFF 		bl	dbg_check_unlock
 1392              	.LBB54:
 1393 085e 2346     		mov	r3, r4
 1394              	@ 220 "../../../ChibiOS/test/testmbox.c" 1
 1395 0860 83F31188 		msr     BASEPRI, r3
 1396              	@ 0 "" 2
 1397              	.LVL212:
 1398              		.thumb
 1399              	.LBE54:
 1400 0864 21E4     		b	.L1
 1401              	.LVL213:
 1402              	.L32:
 1403              		.loc 1 209 0 discriminator 1
 1404 0866 FFF7FEFF 		bl	dbg_check_unlock
 1405              	.LBB55:
 1406 086a 2346     		mov	r3, r4
 1407              	@ 209 "../../../ChibiOS/test/testmbox.c" 1
 1408 086c 83F31188 		msr     BASEPRI, r3
 1409              	@ 0 "" 2
 1410              	.LVL214:
 1411              		.thumb
 1412              	.LBE55:
 1413 0870 1BE4     		b	.L1
 1414              	.LVL215:
 1415              	.L31:
 1416              		.loc 1 208 0 discriminator 1
 1417 0872 FFF7FEFF 		bl	dbg_check_unlock
 1418              	.LBB56:
 1419 0876 2346     		mov	r3, r4
 1420              	@ 208 "../../../ChibiOS/test/testmbox.c" 1
 1421 0878 83F31188 		msr     BASEPRI, r3
ARM GAS  C:\Users\DNIEL~1\AppData\Local\Temp\ccjO8mzD.s 			page 26


 1422              	@ 0 "" 2
 1423              	.LVL216:
 1424              		.thumb
 1425              	.LBE56:
 1426 087c 15E4     		b	.L1
 1427              	.L42:
 1428 087e 00BF     		.align	2
 1429              	.L41:
 1430 0880 00000000 		.word	.LANCHOR0
 1431 0884 00000000 		.word	.LC0
 1432              		.cfi_endproc
 1433              	.LFE8:
 1434              		.size	mbox1_execute, .-mbox1_execute
 1435 0888 AFF30080 		.section	.text.mbox1_setup,"ax",%progbits
 1435      AFF30080 
 1436              		.align	2
 1437              		.p2align 4,,15
 1438              		.thumb
 1439              		.thumb_func
 1440              		.type	mbox1_setup, %function
 1441              	mbox1_setup:
 1442              	.LFB7:
 1443              		.loc 1 75 0
 1444              		.cfi_startproc
 1445              		@ args = 0, pretend = 0, frame = 0
 1446              		@ frame_needed = 0, uses_anonymous_args = 0
 1447              		@ link register save eliminated.
 1448              		.loc 1 77 0
 1449 0000 0248     		ldr	r0, .L44
 1450 0002 0349     		ldr	r1, .L44+4
 1451 0004 0522     		movs	r2, #5
 1452              		.loc 1 78 0
 1453              		.loc 1 77 0
 1454 0006 FFF7FEBF 		b	chMBInit
 1455              	.L45:
 1456 000a 00BF     		.align	2
 1457              	.L44:
 1458 000c 00000000 		.word	.LANCHOR0
 1459 0010 00000000 		.word	test
 1460              		.cfi_endproc
 1461              	.LFE7:
 1462              		.size	mbox1_setup, .-mbox1_setup
 1463              		.global	testmbox1
 1464              		.global	patternmbox
 1465 0014 AFF30080 		.section	.data.mb1,"aw",%progbits
 1465      AFF30080 
 1465      AFF30080 
 1466              		.align	2
 1467              		.set	.LANCHOR0,. + 0
 1468              		.type	mb1, %object
 1469              		.size	mb1, 40
 1470              	mb1:
 1471 0000 00000000 		.word	test
 1472 0004 14000000 		.word	test+20
 1473 0008 00000000 		.word	test
 1474 000c 00000000 		.word	test
 1475 0010 10000000 		.word	mb1+16
ARM GAS  C:\Users\DNIEL~1\AppData\Local\Temp\ccjO8mzD.s 			page 27


 1476 0014 10000000 		.word	mb1+16
 1477 0018 00000000 		.word	0
 1478 001c 1C000000 		.word	mb1+28
 1479 0020 1C000000 		.word	mb1+28
 1480 0024 05000000 		.word	5
 1481              		.section	.rodata.patternmbox,"a",%progbits
 1482              		.align	2
 1483              		.type	patternmbox, %object
 1484              		.size	patternmbox, 8
 1485              	patternmbox:
 1486 0000 00000000 		.word	testmbox1
 1487 0004 00000000 		.word	0
 1488              		.section	.rodata.str1.4,"aMS",%progbits,1
 1489              		.align	2
 1490              	.LC0:
 1491 0000 41424344 		.ascii	"ABCDE\000"
 1491      4500
 1492 0006 0000     		.space	2
 1493              	.LC1:
 1494 0008 4D61696C 		.ascii	"Mailboxes, queuing and timeouts\000"
 1494      626F7865 
 1494      732C2071 
 1494      75657569 
 1494      6E672061 
 1495              		.section	.rodata.testmbox1,"a",%progbits
 1496              		.align	2
 1497              		.type	testmbox1, %object
 1498              		.size	testmbox1, 16
 1499              	testmbox1:
 1500 0000 08000000 		.word	.LC1
 1501 0004 00000000 		.word	mbox1_setup
 1502 0008 00000000 		.word	0
 1503 000c 00000000 		.word	mbox1_execute
 1504              		.text
 1505              	.Letext0:
 1506              		.section	.debug_loc,"",%progbits
 1507              	.Ldebug_loc0:
 1508              	.LLST0:
 1509 0000 00000000 		.4byte	.LFB8
 1510 0004 02000000 		.4byte	.LCFI0
 1511 0008 0200     		.2byte	0x2
 1512 000a 7D       		.byte	0x7d
 1513 000b 00       		.sleb128 0
 1514 000c 02000000 		.4byte	.LCFI0
 1515 0010 0A000000 		.4byte	.LCFI1
 1516 0014 0200     		.2byte	0x2
 1517 0016 7D       		.byte	0x7d
 1518 0017 10       		.sleb128 16
 1519 0018 0A000000 		.4byte	.LCFI1
 1520 001c 88080000 		.4byte	.LFE8
 1521 0020 0200     		.2byte	0x2
 1522 0022 7D       		.byte	0x7d
 1523 0023 18       		.sleb128 24
 1524 0024 00000000 		.4byte	0x0
 1525 0028 00000000 		.4byte	0x0
 1526              	.LLST1:
 1527 002c 2A000000 		.4byte	.LVL0
ARM GAS  C:\Users\DNIEL~1\AppData\Local\Temp\ccjO8mzD.s 			page 28


 1528 0030 34000000 		.4byte	.LVL1
 1529 0034 0100     		.2byte	0x1
 1530 0036 50       		.byte	0x50
 1531 0037 46000000 		.4byte	.LVL3
 1532 003b 50000000 		.4byte	.LVL4
 1533 003f 0100     		.2byte	0x1
 1534 0041 50       		.byte	0x50
 1535 0042 62000000 		.4byte	.LVL6
 1536 0046 6C000000 		.4byte	.LVL7
 1537 004a 0100     		.2byte	0x1
 1538 004c 50       		.byte	0x50
 1539 004d 7E000000 		.4byte	.LVL9
 1540 0051 88000000 		.4byte	.LVL10
 1541 0055 0100     		.2byte	0x1
 1542 0057 50       		.byte	0x50
 1543 0058 9A000000 		.4byte	.LVL12
 1544 005c A4000000 		.4byte	.LVL13
 1545 0060 0100     		.2byte	0x1
 1546 0062 50       		.byte	0x50
 1547 0063 BE000000 		.4byte	.LVL16
 1548 0067 C4000000 		.4byte	.LVL17
 1549 006b 0100     		.2byte	0x1
 1550 006d 50       		.byte	0x50
 1551 006e C4000000 		.4byte	.LVL17
 1552 0072 CD000000 		.4byte	.LVL18-1
 1553 0076 0300     		.2byte	0x3
 1554 0078 73       		.byte	0x73
 1555 0079 7F       		.sleb128 -1
 1556 007a 9F       		.byte	0x9f
 1557 007b E8000000 		.4byte	.LVL22
 1558 007f EB000000 		.4byte	.LVL23-1
 1559 0083 0100     		.2byte	0x1
 1560 0085 50       		.byte	0x50
 1561 0086 EB000000 		.4byte	.LVL23-1
 1562 008a 12010000 		.4byte	.LVL27
 1563 008e 0100     		.2byte	0x1
 1564 0090 56       		.byte	0x56
 1565 0091 12010000 		.4byte	.LVL27
 1566 0095 1E010000 		.4byte	.LVL28
 1567 0099 0100     		.2byte	0x1
 1568 009b 50       		.byte	0x50
 1569 009c 1E010000 		.4byte	.LVL28
 1570 00a0 21010000 		.4byte	.LVL29-1
 1571 00a4 0300     		.2byte	0x3
 1572 00a6 72       		.byte	0x72
 1573 00a7 7F       		.sleb128 -1
 1574 00a8 9F       		.byte	0x9f
 1575 00a9 3C010000 		.4byte	.LVL33
 1576 00ad 3F010000 		.4byte	.LVL34-1
 1577 00b1 0100     		.2byte	0x1
 1578 00b3 50       		.byte	0x50
 1579 00b4 3F010000 		.4byte	.LVL34-1
 1580 00b8 68010000 		.4byte	.LVL41
 1581 00bc 0100     		.2byte	0x1
 1582 00be 56       		.byte	0x56
 1583 00bf F2010000 		.4byte	.LVL54
 1584 00c3 FC010000 		.4byte	.LVL55
ARM GAS  C:\Users\DNIEL~1\AppData\Local\Temp\ccjO8mzD.s 			page 29


 1585 00c7 0100     		.2byte	0x1
 1586 00c9 50       		.byte	0x50
 1587 00ca 1A020000 		.4byte	.LVL57
 1588 00ce 24020000 		.4byte	.LVL58
 1589 00d2 0100     		.2byte	0x1
 1590 00d4 50       		.byte	0x50
 1591 00d5 42020000 		.4byte	.LVL60
 1592 00d9 4C020000 		.4byte	.LVL61
 1593 00dd 0100     		.2byte	0x1
 1594 00df 50       		.byte	0x50
 1595 00e0 6A020000 		.4byte	.LVL63
 1596 00e4 74020000 		.4byte	.LVL64
 1597 00e8 0100     		.2byte	0x1
 1598 00ea 50       		.byte	0x50
 1599 00eb 92020000 		.4byte	.LVL66
 1600 00ef 9C020000 		.4byte	.LVL67
 1601 00f3 0100     		.2byte	0x1
 1602 00f5 50       		.byte	0x50
 1603 00f6 C8020000 		.4byte	.LVL69
 1604 00fa D2020000 		.4byte	.LVL70
 1605 00fe 0100     		.2byte	0x1
 1606 0100 50       		.byte	0x50
 1607 0101 EA020000 		.4byte	.LVL71
 1608 0105 F4020000 		.4byte	.LVL72
 1609 0109 0100     		.2byte	0x1
 1610 010b 50       		.byte	0x50
 1611 010c 40030000 		.4byte	.LVL73
 1612 0110 46030000 		.4byte	.LVL74
 1613 0114 0100     		.2byte	0x1
 1614 0116 50       		.byte	0x50
 1615 0117 46030000 		.4byte	.LVL74
 1616 011b 52030000 		.4byte	.LVL75
 1617 011f 0300     		.2byte	0x3
 1618 0121 75       		.byte	0x75
 1619 0122 7F       		.sleb128 -1
 1620 0123 9F       		.byte	0x9f
 1621 0124 6C030000 		.4byte	.LVL79
 1622 0128 6F030000 		.4byte	.LVL80-1
 1623 012c 0100     		.2byte	0x1
 1624 012e 50       		.byte	0x50
 1625 012f 6F030000 		.4byte	.LVL80-1
 1626 0133 A4030000 		.4byte	.LVL87
 1627 0137 0100     		.2byte	0x1
 1628 0139 56       		.byte	0x56
 1629 013a 2C040000 		.4byte	.LVL103
 1630 013e 36040000 		.4byte	.LVL104
 1631 0142 0100     		.2byte	0x1
 1632 0144 50       		.byte	0x50
 1633 0145 48040000 		.4byte	.LVL105
 1634 0149 52040000 		.4byte	.LVL106
 1635 014d 0100     		.2byte	0x1
 1636 014f 50       		.byte	0x50
 1637 0150 66040000 		.4byte	.LVL107
 1638 0154 70040000 		.4byte	.LVL108
 1639 0158 0100     		.2byte	0x1
 1640 015a 50       		.byte	0x50
 1641 015b 82040000 		.4byte	.LVL109
ARM GAS  C:\Users\DNIEL~1\AppData\Local\Temp\ccjO8mzD.s 			page 30


 1642 015f 8C040000 		.4byte	.LVL110
 1643 0163 0100     		.2byte	0x1
 1644 0165 50       		.byte	0x50
 1645 0166 A2040000 		.4byte	.LVL111
 1646 016a A5040000 		.4byte	.LVL112-1
 1647 016e 0100     		.2byte	0x1
 1648 0170 50       		.byte	0x50
 1649 0171 A5040000 		.4byte	.LVL112-1
 1650 0175 F2040000 		.4byte	.LVL120
 1651 0179 0100     		.2byte	0x1
 1652 017b 56       		.byte	0x56
 1653 017c F2040000 		.4byte	.LVL120
 1654 0180 F5040000 		.4byte	.LVL121-1
 1655 0184 0100     		.2byte	0x1
 1656 0186 50       		.byte	0x50
 1657 0187 F5040000 		.4byte	.LVL121-1
 1658 018b B0050000 		.4byte	.LVL139
 1659 018f 0100     		.2byte	0x1
 1660 0191 56       		.byte	0x56
 1661 0192 B0050000 		.4byte	.LVL139
 1662 0196 BA050000 		.4byte	.LVL140
 1663 019a 0100     		.2byte	0x1
 1664 019c 50       		.byte	0x50
 1665 019d CC050000 		.4byte	.LVL141
 1666 01a1 D6050000 		.4byte	.LVL142
 1667 01a5 0100     		.2byte	0x1
 1668 01a7 50       		.byte	0x50
 1669 01a8 F4050000 		.4byte	.LVL143
 1670 01ac FE050000 		.4byte	.LVL144
 1671 01b0 0100     		.2byte	0x1
 1672 01b2 50       		.byte	0x50
 1673 01b3 10060000 		.4byte	.LVL145
 1674 01b7 1A060000 		.4byte	.LVL146
 1675 01bb 0100     		.2byte	0x1
 1676 01bd 50       		.byte	0x50
 1677 01be 30060000 		.4byte	.LVL147
 1678 01c2 33060000 		.4byte	.LVL148-1
 1679 01c6 0100     		.2byte	0x1
 1680 01c8 50       		.byte	0x50
 1681 01c9 33060000 		.4byte	.LVL148-1
 1682 01cd 70060000 		.4byte	.LVL152
 1683 01d1 0100     		.2byte	0x1
 1684 01d3 55       		.byte	0x55
 1685 01d4 86060000 		.4byte	.LVL156
 1686 01d8 89060000 		.4byte	.LVL157-1
 1687 01dc 0100     		.2byte	0x1
 1688 01de 50       		.byte	0x50
 1689 01df 89060000 		.4byte	.LVL157-1
 1690 01e3 E2070000 		.4byte	.LVL191
 1691 01e7 0100     		.2byte	0x1
 1692 01e9 56       		.byte	0x56
 1693 01ea 12080000 		.4byte	.LVL199
 1694 01ee 1E080000 		.4byte	.LVL201
 1695 01f2 0100     		.2byte	0x1
 1696 01f4 56       		.byte	0x56
 1697 01f5 36080000 		.4byte	.LVL205
 1698 01f9 88080000 		.4byte	.LFE8
ARM GAS  C:\Users\DNIEL~1\AppData\Local\Temp\ccjO8mzD.s 			page 31


 1699 01fd 0100     		.2byte	0x1
 1700 01ff 56       		.byte	0x56
 1701 0200 00000000 		.4byte	0x0
 1702 0204 00000000 		.4byte	0x0
 1703              	.LLST2:
 1704 0208 3A000000 		.4byte	.LVL2
 1705 020c 56000000 		.4byte	.LVL5
 1706 0210 0200     		.2byte	0x2
 1707 0212 31       		.byte	0x31
 1708 0213 9F       		.byte	0x9f
 1709 0214 56000000 		.4byte	.LVL5
 1710 0218 72000000 		.4byte	.LVL8
 1711 021c 0200     		.2byte	0x2
 1712 021e 32       		.byte	0x32
 1713 021f 9F       		.byte	0x9f
 1714 0220 72000000 		.4byte	.LVL8
 1715 0224 8E000000 		.4byte	.LVL11
 1716 0228 0200     		.2byte	0x2
 1717 022a 33       		.byte	0x33
 1718 022b 9F       		.byte	0x9f
 1719 022c 8E000000 		.4byte	.LVL11
 1720 0230 AA000000 		.4byte	.LVL14
 1721 0234 0200     		.2byte	0x2
 1722 0236 34       		.byte	0x34
 1723 0237 9F       		.byte	0x9f
 1724 0238 B4000000 		.4byte	.LVL15
 1725 023c E6010000 		.4byte	.LVL53
 1726 0240 0200     		.2byte	0x2
 1727 0242 34       		.byte	0x34
 1728 0243 9F       		.byte	0x9f
 1729 0244 E6010000 		.4byte	.LVL53
 1730 0248 0E020000 		.4byte	.LVL56
 1731 024c 0200     		.2byte	0x2
 1732 024e 30       		.byte	0x30
 1733 024f 9F       		.byte	0x9f
 1734 0250 0E020000 		.4byte	.LVL56
 1735 0254 36020000 		.4byte	.LVL59
 1736 0258 0200     		.2byte	0x2
 1737 025a 31       		.byte	0x31
 1738 025b 9F       		.byte	0x9f
 1739 025c 36020000 		.4byte	.LVL59
 1740 0260 5E020000 		.4byte	.LVL62
 1741 0264 0200     		.2byte	0x2
 1742 0266 32       		.byte	0x32
 1743 0267 9F       		.byte	0x9f
 1744 0268 5E020000 		.4byte	.LVL62
 1745 026c 86020000 		.4byte	.LVL65
 1746 0270 0200     		.2byte	0x2
 1747 0272 33       		.byte	0x33
 1748 0273 9F       		.byte	0x9f
 1749 0274 86020000 		.4byte	.LVL65
 1750 0278 AE020000 		.4byte	.LVL68
 1751 027c 0200     		.2byte	0x2
 1752 027e 34       		.byte	0x34
 1753 027f 9F       		.byte	0x9f
 1754 0280 AE020000 		.4byte	.LVL68
 1755 0284 DC040000 		.4byte	.LVL116
ARM GAS  C:\Users\DNIEL~1\AppData\Local\Temp\ccjO8mzD.s 			page 32


 1756 0288 0200     		.2byte	0x2
 1757 028a 35       		.byte	0x35
 1758 028b 9F       		.byte	0x9f
 1759 028c E2070000 		.4byte	.LVL191
 1760 0290 06080000 		.4byte	.LVL197
 1761 0294 0200     		.2byte	0x2
 1762 0296 34       		.byte	0x34
 1763 0297 9F       		.byte	0x9f
 1764 0298 06080000 		.4byte	.LVL197
 1765 029c 12080000 		.4byte	.LVL199
 1766 02a0 0200     		.2byte	0x2
 1767 02a2 35       		.byte	0x35
 1768 02a3 9F       		.byte	0x9f
 1769 02a4 1E080000 		.4byte	.LVL201
 1770 02a8 36080000 		.4byte	.LVL205
 1771 02ac 0200     		.2byte	0x2
 1772 02ae 35       		.byte	0x35
 1773 02af 9F       		.byte	0x9f
 1774 02b0 00000000 		.4byte	0x0
 1775 02b4 00000000 		.4byte	0x0
 1776              	.LLST3:
 1777 02b8 DA000000 		.4byte	.LVL20
 1778 02bc DD000000 		.4byte	.LVL21-1
 1779 02c0 0100     		.2byte	0x1
 1780 02c2 53       		.byte	0x53
 1781 02c3 00000000 		.4byte	0x0
 1782 02c7 00000000 		.4byte	0x0
 1783              	.LLST4:
 1784 02cb F2000000 		.4byte	.LVL25
 1785 02cf 03010000 		.4byte	.LVL26-1
 1786 02d3 0100     		.2byte	0x1
 1787 02d5 53       		.byte	0x53
 1788 02d6 00000000 		.4byte	0x0
 1789 02da 00000000 		.4byte	0x0
 1790              	.LLST5:
 1791 02de 2E010000 		.4byte	.LVL31
 1792 02e2 31010000 		.4byte	.LVL32-1
 1793 02e6 0100     		.2byte	0x1
 1794 02e8 53       		.byte	0x53
 1795 02e9 00000000 		.4byte	0x0
 1796 02ed 00000000 		.4byte	0x0
 1797              	.LLST6:
 1798 02f1 46010000 		.4byte	.LVL36
 1799 02f5 50010000 		.4byte	.LVL37
 1800 02f9 0100     		.2byte	0x1
 1801 02fb 53       		.byte	0x53
 1802 02fc 00000000 		.4byte	0x0
 1803 0300 00000000 		.4byte	0x0
 1804              	.LLST7:
 1805 0304 62010000 		.4byte	.LVL39
 1806 0308 65010000 		.4byte	.LVL40-1
 1807 030c 0100     		.2byte	0x1
 1808 030e 53       		.byte	0x53
 1809 030f 00000000 		.4byte	0x0
 1810 0313 00000000 		.4byte	0x0
 1811              	.LLST8:
 1812 0317 88010000 		.4byte	.LVL43
ARM GAS  C:\Users\DNIEL~1\AppData\Local\Temp\ccjO8mzD.s 			page 33


 1813 031b 8A010000 		.4byte	.LVL44
 1814 031f 0100     		.2byte	0x1
 1815 0321 53       		.byte	0x53
 1816 0322 00000000 		.4byte	0x0
 1817 0326 00000000 		.4byte	0x0
 1818              	.LLST9:
 1819 032a 8E010000 		.4byte	.LVL45
 1820 032e 91010000 		.4byte	.LVL46-1
 1821 0332 0100     		.2byte	0x1
 1822 0334 53       		.byte	0x53
 1823 0335 00000000 		.4byte	0x0
 1824 0339 00000000 		.4byte	0x0
 1825              	.LLST10:
 1826 033d B8010000 		.4byte	.LVL48
 1827 0341 BA010000 		.4byte	.LVL49
 1828 0345 0100     		.2byte	0x1
 1829 0347 53       		.byte	0x53
 1830 0348 00000000 		.4byte	0x0
 1831 034c 00000000 		.4byte	0x0
 1832              	.LLST11:
 1833 0350 BE010000 		.4byte	.LVL50
 1834 0354 C1010000 		.4byte	.LVL51-1
 1835 0358 0100     		.2byte	0x1
 1836 035a 53       		.byte	0x53
 1837 035b 00000000 		.4byte	0x0
 1838 035f 00000000 		.4byte	0x0
 1839              	.LLST12:
 1840 0363 E6010000 		.4byte	.LVL53
 1841 0367 F1010000 		.4byte	.LVL54-1
 1842 036b 0100     		.2byte	0x1
 1843 036d 53       		.byte	0x53
 1844 036e 00000000 		.4byte	0x0
 1845 0372 00000000 		.4byte	0x0
 1846              	.LLST13:
 1847 0376 5E030000 		.4byte	.LVL77
 1848 037a 61030000 		.4byte	.LVL78-1
 1849 037e 0100     		.2byte	0x1
 1850 0380 53       		.byte	0x53
 1851 0381 00000000 		.4byte	0x0
 1852 0385 00000000 		.4byte	0x0
 1853              	.LLST14:
 1854 0389 76030000 		.4byte	.LVL82
 1855 038d 87030000 		.4byte	.LVL83-1
 1856 0391 0100     		.2byte	0x1
 1857 0393 53       		.byte	0x53
 1858 0394 00000000 		.4byte	0x0
 1859 0398 00000000 		.4byte	0x0
 1860              	.LLST15:
 1861 039c 96030000 		.4byte	.LVL85
 1862 03a0 99030000 		.4byte	.LVL86-1
 1863 03a4 0100     		.2byte	0x1
 1864 03a6 53       		.byte	0x53
 1865 03a7 00000000 		.4byte	0x0
 1866 03ab 00000000 		.4byte	0x0
 1867              	.LLST16:
 1868 03af BE030000 		.4byte	.LVL89
 1869 03b3 C0030000 		.4byte	.LVL90
ARM GAS  C:\Users\DNIEL~1\AppData\Local\Temp\ccjO8mzD.s 			page 34


 1870 03b7 0100     		.2byte	0x1
 1871 03b9 53       		.byte	0x53
 1872 03ba 00000000 		.4byte	0x0
 1873 03be 00000000 		.4byte	0x0
 1874              	.LLST17:
 1875 03c2 C4030000 		.4byte	.LVL91
 1876 03c6 C7030000 		.4byte	.LVL92-1
 1877 03ca 0100     		.2byte	0x1
 1878 03cc 53       		.byte	0x53
 1879 03cd 00000000 		.4byte	0x0
 1880 03d1 00000000 		.4byte	0x0
 1881              	.LLST18:
 1882 03d5 EA030000 		.4byte	.LVL94
 1883 03d9 EC030000 		.4byte	.LVL95
 1884 03dd 0100     		.2byte	0x1
 1885 03df 53       		.byte	0x53
 1886 03e0 00000000 		.4byte	0x0
 1887 03e4 00000000 		.4byte	0x0
 1888              	.LLST19:
 1889 03e8 F0030000 		.4byte	.LVL96
 1890 03ec F3030000 		.4byte	.LVL97-1
 1891 03f0 0100     		.2byte	0x1
 1892 03f2 53       		.byte	0x53
 1893 03f3 00000000 		.4byte	0x0
 1894 03f7 00000000 		.4byte	0x0
 1895              	.LLST20:
 1896 03fb 1A040000 		.4byte	.LVL99
 1897 03ff 1C040000 		.4byte	.LVL100
 1898 0403 0100     		.2byte	0x1
 1899 0405 53       		.byte	0x53
 1900 0406 00000000 		.4byte	0x0
 1901 040a 00000000 		.4byte	0x0
 1902              	.LLST21:
 1903 040e 20040000 		.4byte	.LVL101
 1904 0412 23040000 		.4byte	.LVL102-1
 1905 0416 0100     		.2byte	0x1
 1906 0418 53       		.byte	0x53
 1907 0419 00000000 		.4byte	0x0
 1908 041d 00000000 		.4byte	0x0
 1909              	.LLST22:
 1910 0421 AC040000 		.4byte	.LVL114
 1911 0425 B9040000 		.4byte	.LVL115-1
 1912 0429 0100     		.2byte	0x1
 1913 042b 53       		.byte	0x53
 1914 042c 00000000 		.4byte	0x0
 1915 0430 00000000 		.4byte	0x0
 1916              	.LLST23:
 1917 0434 E2040000 		.4byte	.LVL118
 1918 0438 E7040000 		.4byte	.LVL119-1
 1919 043c 0100     		.2byte	0x1
 1920 043e 53       		.byte	0x53
 1921 043f 00000000 		.4byte	0x0
 1922 0443 00000000 		.4byte	0x0
 1923              	.LLST24:
 1924 0447 FC040000 		.4byte	.LVL123
 1925 044b 00050000 		.4byte	.LVL124
 1926 044f 0100     		.2byte	0x1
ARM GAS  C:\Users\DNIEL~1\AppData\Local\Temp\ccjO8mzD.s 			page 35


 1927 0451 53       		.byte	0x53
 1928 0452 00000000 		.4byte	0x0
 1929 0456 00000000 		.4byte	0x0
 1930              	.LLST25:
 1931 045a 34050000 		.4byte	.LVL126
 1932 045e 37050000 		.4byte	.LVL127-1
 1933 0462 0100     		.2byte	0x1
 1934 0464 53       		.byte	0x53
 1935 0465 00000000 		.4byte	0x0
 1936 0469 00000000 		.4byte	0x0
 1937              	.LLST26:
 1938 046d 5A050000 		.4byte	.LVL129
 1939 0471 5C050000 		.4byte	.LVL130
 1940 0475 0100     		.2byte	0x1
 1941 0477 53       		.byte	0x53
 1942 0478 00000000 		.4byte	0x0
 1943 047c 00000000 		.4byte	0x0
 1944              	.LLST27:
 1945 0480 60050000 		.4byte	.LVL131
 1946 0484 63050000 		.4byte	.LVL132-1
 1947 0488 0100     		.2byte	0x1
 1948 048a 53       		.byte	0x53
 1949 048b 00000000 		.4byte	0x0
 1950 048f 00000000 		.4byte	0x0
 1951              	.LLST28:
 1952 0493 84050000 		.4byte	.LVL134
 1953 0497 86050000 		.4byte	.LVL135
 1954 049b 0100     		.2byte	0x1
 1955 049d 53       		.byte	0x53
 1956 049e 00000000 		.4byte	0x0
 1957 04a2 00000000 		.4byte	0x0
 1958              	.LLST29:
 1959 04a6 A4050000 		.4byte	.LVL137
 1960 04aa A7050000 		.4byte	.LVL138-1
 1961 04ae 0100     		.2byte	0x1
 1962 04b0 53       		.byte	0x53
 1963 04b1 00000000 		.4byte	0x0
 1964 04b5 00000000 		.4byte	0x0
 1965              	.LLST30:
 1966 04b9 3A060000 		.4byte	.LVL150
 1967 04bd 3E060000 		.4byte	.LVL151
 1968 04c1 0100     		.2byte	0x1
 1969 04c3 53       		.byte	0x53
 1970 04c4 00000000 		.4byte	0x0
 1971 04c8 00000000 		.4byte	0x0
 1972              	.LLST31:
 1973 04cc 76060000 		.4byte	.LVL154
 1974 04d0 7B060000 		.4byte	.LVL155-1
 1975 04d4 0100     		.2byte	0x1
 1976 04d6 53       		.byte	0x53
 1977 04d7 00000000 		.4byte	0x0
 1978 04db 00000000 		.4byte	0x0
 1979              	.LLST32:
 1980 04df 90060000 		.4byte	.LVL159
 1981 04e3 92060000 		.4byte	.LVL160
 1982 04e7 0100     		.2byte	0x1
 1983 04e9 53       		.byte	0x53
ARM GAS  C:\Users\DNIEL~1\AppData\Local\Temp\ccjO8mzD.s 			page 36


 1984 04ea 00000000 		.4byte	0x0
 1985 04ee 00000000 		.4byte	0x0
 1986              	.LLST33:
 1987 04f2 C6060000 		.4byte	.LVL162
 1988 04f6 C9060000 		.4byte	.LVL163-1
 1989 04fa 0100     		.2byte	0x1
 1990 04fc 53       		.byte	0x53
 1991 04fd 00000000 		.4byte	0x0
 1992 0501 00000000 		.4byte	0x0
 1993              	.LLST34:
 1994 0505 EC060000 		.4byte	.LVL165
 1995 0509 EE060000 		.4byte	.LVL166
 1996 050d 0100     		.2byte	0x1
 1997 050f 53       		.byte	0x53
 1998 0510 00000000 		.4byte	0x0
 1999 0514 00000000 		.4byte	0x0
 2000              	.LLST35:
 2001 0518 F2060000 		.4byte	.LVL167
 2002 051c F5060000 		.4byte	.LVL168-1
 2003 0520 0100     		.2byte	0x1
 2004 0522 53       		.byte	0x53
 2005 0523 00000000 		.4byte	0x0
 2006 0527 00000000 		.4byte	0x0
 2007              	.LLST36:
 2008 052b 16070000 		.4byte	.LVL170
 2009 052f 24070000 		.4byte	.LVL171
 2010 0533 0100     		.2byte	0x1
 2011 0535 53       		.byte	0x53
 2012 0536 00000000 		.4byte	0x0
 2013 053a 00000000 		.4byte	0x0
 2014              	.LLST37:
 2015 053e 3E070000 		.4byte	.LVL173
 2016 0542 41070000 		.4byte	.LVL174-1
 2017 0546 0100     		.2byte	0x1
 2018 0548 53       		.byte	0x53
 2019 0549 00000000 		.4byte	0x0
 2020 054d 00000000 		.4byte	0x0
 2021              	.LLST38:
 2022 0551 64070000 		.4byte	.LVL176
 2023 0555 66070000 		.4byte	.LVL177
 2024 0559 0100     		.2byte	0x1
 2025 055b 53       		.byte	0x53
 2026 055c 00000000 		.4byte	0x0
 2027 0560 00000000 		.4byte	0x0
 2028              	.LLST39:
 2029 0564 6A070000 		.4byte	.LVL178
 2030 0568 6D070000 		.4byte	.LVL179-1
 2031 056c 0100     		.2byte	0x1
 2032 056e 53       		.byte	0x53
 2033 056f 00000000 		.4byte	0x0
 2034 0573 00000000 		.4byte	0x0
 2035              	.LLST40:
 2036 0577 8C070000 		.4byte	.LVL181
 2037 057b 8E070000 		.4byte	.LVL182
 2038 057f 0100     		.2byte	0x1
 2039 0581 53       		.byte	0x53
 2040 0582 00000000 		.4byte	0x0
ARM GAS  C:\Users\DNIEL~1\AppData\Local\Temp\ccjO8mzD.s 			page 37


 2041 0586 00000000 		.4byte	0x0
 2042              	.LLST41:
 2043 058a 92070000 		.4byte	.LVL183
 2044 058e 95070000 		.4byte	.LVL184-1
 2045 0592 0100     		.2byte	0x1
 2046 0594 53       		.byte	0x53
 2047 0595 00000000 		.4byte	0x0
 2048 0599 00000000 		.4byte	0x0
 2049              	.LLST42:
 2050 059d B8070000 		.4byte	.LVL186
 2051 05a1 BA070000 		.4byte	.LVL187
 2052 05a5 0100     		.2byte	0x1
 2053 05a7 53       		.byte	0x53
 2054 05a8 00000000 		.4byte	0x0
 2055 05ac 00000000 		.4byte	0x0
 2056              	.LLST43:
 2057 05b0 BE070000 		.4byte	.LVL188
 2058 05b4 C1070000 		.4byte	.LVL189-1
 2059 05b8 0100     		.2byte	0x1
 2060 05ba 53       		.byte	0x53
 2061 05bb 00000000 		.4byte	0x0
 2062 05bf 00000000 		.4byte	0x0
 2063              	.LLST44:
 2064 05c3 AA000000 		.4byte	.LVL14
 2065 05c7 B4000000 		.4byte	.LVL15
 2066 05cb 0100     		.2byte	0x1
 2067 05cd 53       		.byte	0x53
 2068 05ce E0070000 		.4byte	.LVL190
 2069 05d2 E2070000 		.4byte	.LVL191
 2070 05d6 0100     		.2byte	0x1
 2071 05d8 53       		.byte	0x53
 2072 05d9 00000000 		.4byte	0x0
 2073 05dd 00000000 		.4byte	0x0
 2074              	.LLST45:
 2075 05e1 AA000000 		.4byte	.LVL14
 2076 05e5 B4000000 		.4byte	.LVL15
 2077 05e9 0100     		.2byte	0x1
 2078 05eb 53       		.byte	0x53
 2079 05ec EC070000 		.4byte	.LVL192
 2080 05f0 EE070000 		.4byte	.LVL193
 2081 05f4 0100     		.2byte	0x1
 2082 05f6 53       		.byte	0x53
 2083 05f7 00000000 		.4byte	0x0
 2084 05fb 00000000 		.4byte	0x0
 2085              	.LLST46:
 2086 05ff AA000000 		.4byte	.LVL14
 2087 0603 B4000000 		.4byte	.LVL15
 2088 0607 0100     		.2byte	0x1
 2089 0609 53       		.byte	0x53
 2090 060a F8070000 		.4byte	.LVL194
 2091 060e FA070000 		.4byte	.LVL195
 2092 0612 0100     		.2byte	0x1
 2093 0614 53       		.byte	0x53
 2094 0615 00000000 		.4byte	0x0
 2095 0619 00000000 		.4byte	0x0
 2096              	.LLST47:
 2097 061d AA000000 		.4byte	.LVL14
ARM GAS  C:\Users\DNIEL~1\AppData\Local\Temp\ccjO8mzD.s 			page 38


 2098 0621 B4000000 		.4byte	.LVL15
 2099 0625 0100     		.2byte	0x1
 2100 0627 53       		.byte	0x53
 2101 0628 04080000 		.4byte	.LVL196
 2102 062c 06080000 		.4byte	.LVL197
 2103 0630 0100     		.2byte	0x1
 2104 0632 53       		.byte	0x53
 2105 0633 00000000 		.4byte	0x0
 2106 0637 00000000 		.4byte	0x0
 2107              	.LLST48:
 2108 063b AA000000 		.4byte	.LVL14
 2109 063f B4000000 		.4byte	.LVL15
 2110 0643 0100     		.2byte	0x1
 2111 0645 53       		.byte	0x53
 2112 0646 10080000 		.4byte	.LVL198
 2113 064a 12080000 		.4byte	.LVL199
 2114 064e 0100     		.2byte	0x1
 2115 0650 53       		.byte	0x53
 2116 0651 00000000 		.4byte	0x0
 2117 0655 00000000 		.4byte	0x0
 2118              	.LLST49:
 2119 0659 AA000000 		.4byte	.LVL14
 2120 065d B4000000 		.4byte	.LVL15
 2121 0661 0100     		.2byte	0x1
 2122 0663 53       		.byte	0x53
 2123 0664 1C080000 		.4byte	.LVL200
 2124 0668 1E080000 		.4byte	.LVL201
 2125 066c 0100     		.2byte	0x1
 2126 066e 53       		.byte	0x53
 2127 066f 00000000 		.4byte	0x0
 2128 0673 00000000 		.4byte	0x0
 2129              	.LLST50:
 2130 0677 AA000000 		.4byte	.LVL14
 2131 067b B4000000 		.4byte	.LVL15
 2132 067f 0100     		.2byte	0x1
 2133 0681 53       		.byte	0x53
 2134 0682 28080000 		.4byte	.LVL202
 2135 0686 2A080000 		.4byte	.LVL203
 2136 068a 0100     		.2byte	0x1
 2137 068c 53       		.byte	0x53
 2138 068d 00000000 		.4byte	0x0
 2139 0691 00000000 		.4byte	0x0
 2140              	.LLST51:
 2141 0695 AA000000 		.4byte	.LVL14
 2142 0699 B4000000 		.4byte	.LVL15
 2143 069d 0100     		.2byte	0x1
 2144 069f 53       		.byte	0x53
 2145 06a0 34080000 		.4byte	.LVL204
 2146 06a4 36080000 		.4byte	.LVL205
 2147 06a8 0100     		.2byte	0x1
 2148 06aa 53       		.byte	0x53
 2149 06ab 00000000 		.4byte	0x0
 2150 06af 00000000 		.4byte	0x0
 2151              	.LLST52:
 2152 06b3 AA000000 		.4byte	.LVL14
 2153 06b7 B4000000 		.4byte	.LVL15
 2154 06bb 0100     		.2byte	0x1
ARM GAS  C:\Users\DNIEL~1\AppData\Local\Temp\ccjO8mzD.s 			page 39


 2155 06bd 53       		.byte	0x53
 2156 06be 40080000 		.4byte	.LVL206
 2157 06c2 42080000 		.4byte	.LVL207
 2158 06c6 0100     		.2byte	0x1
 2159 06c8 53       		.byte	0x53
 2160 06c9 00000000 		.4byte	0x0
 2161 06cd 00000000 		.4byte	0x0
 2162              	.LLST53:
 2163 06d1 AA000000 		.4byte	.LVL14
 2164 06d5 B4000000 		.4byte	.LVL15
 2165 06d9 0100     		.2byte	0x1
 2166 06db 53       		.byte	0x53
 2167 06dc 4C080000 		.4byte	.LVL208
 2168 06e0 4E080000 		.4byte	.LVL209
 2169 06e4 0100     		.2byte	0x1
 2170 06e6 53       		.byte	0x53
 2171 06e7 00000000 		.4byte	0x0
 2172 06eb 00000000 		.4byte	0x0
 2173              	.LLST54:
 2174 06ef AA000000 		.4byte	.LVL14
 2175 06f3 B4000000 		.4byte	.LVL15
 2176 06f7 0100     		.2byte	0x1
 2177 06f9 53       		.byte	0x53
 2178 06fa 58080000 		.4byte	.LVL210
 2179 06fe 5A080000 		.4byte	.LVL211
 2180 0702 0100     		.2byte	0x1
 2181 0704 53       		.byte	0x53
 2182 0705 00000000 		.4byte	0x0
 2183 0709 00000000 		.4byte	0x0
 2184              	.LLST55:
 2185 070d AA000000 		.4byte	.LVL14
 2186 0711 B4000000 		.4byte	.LVL15
 2187 0715 0100     		.2byte	0x1
 2188 0717 53       		.byte	0x53
 2189 0718 64080000 		.4byte	.LVL212
 2190 071c 66080000 		.4byte	.LVL213
 2191 0720 0100     		.2byte	0x1
 2192 0722 53       		.byte	0x53
 2193 0723 00000000 		.4byte	0x0
 2194 0727 00000000 		.4byte	0x0
 2195              	.LLST56:
 2196 072b AA000000 		.4byte	.LVL14
 2197 072f B4000000 		.4byte	.LVL15
 2198 0733 0100     		.2byte	0x1
 2199 0735 53       		.byte	0x53
 2200 0736 70080000 		.4byte	.LVL214
 2201 073a 72080000 		.4byte	.LVL215
 2202 073e 0100     		.2byte	0x1
 2203 0740 53       		.byte	0x53
 2204 0741 00000000 		.4byte	0x0
 2205 0745 00000000 		.4byte	0x0
 2206              	.LLST57:
 2207 0749 AA000000 		.4byte	.LVL14
 2208 074d B4000000 		.4byte	.LVL15
 2209 0751 0100     		.2byte	0x1
 2210 0753 53       		.byte	0x53
 2211 0754 7C080000 		.4byte	.LVL216
ARM GAS  C:\Users\DNIEL~1\AppData\Local\Temp\ccjO8mzD.s 			page 40


 2212 0758 88080000 		.4byte	.LFE8
 2213 075c 0100     		.2byte	0x1
 2214 075e 53       		.byte	0x53
 2215 075f 00000000 		.4byte	0x0
 2216 0763 00000000 		.4byte	0x0
 2217              		.file 2 "c:\\program files (x86)\\codesourcery\\sourcery g++ lite\\bin\\../lib/gcc/arm-none-eabi/4
 2218              		.file 3 "../../../ChibiOS/os/ports/GCC/ARMCMx/chtypes.h"
 2219              		.file 4 "../../../ChibiOS/os/kernel/include/chlists.h"
 2220              		.file 5 "../../../ChibiOS/os/kernel/include/chthreads.h"
 2221              		.file 6 "../../../ChibiOS/os/ports/GCC/ARMCMx/chcore_v7m.h"
 2222              		.file 7 "../../../ChibiOS/os/kernel/include/chsem.h"
 2223              		.file 8 "../../../ChibiOS/os/kernel/include/chmtx.h"
 2224              		.file 9 "../../../ChibiOS/os/kernel/include/chmboxes.h"
 2225              		.file 10 "../../../ChibiOS/test/test.h"
 2226              		.section	.debug_info
 2227 0000 820C0000 		.4byte	0xc82
 2228 0004 0200     		.2byte	0x2
 2229 0006 00000000 		.4byte	.Ldebug_abbrev0
 2230 000a 04       		.byte	0x4
 2231 000b 01       		.uleb128 0x1
 2232 000c 44030000 		.4byte	.LASF78
 2233 0010 01       		.byte	0x1
 2234 0011 2D020000 		.4byte	.LASF79
 2235 0015 BC010000 		.4byte	.LASF80
 2236 0019 00000000 		.4byte	0x0
 2237 001d 00000000 		.4byte	0x0
 2238 0021 00000000 		.4byte	.Ldebug_ranges0+0x0
 2239 0025 00000000 		.4byte	.Ldebug_line0
 2240 0029 02       		.uleb128 0x2
 2241 002a 04       		.byte	0x4
 2242 002b 05       		.byte	0x5
 2243 002c 696E7400 		.ascii	"int\000"
 2244 0030 03       		.uleb128 0x3
 2245 0031 04       		.byte	0x4
 2246 0032 07       		.byte	0x7
 2247 0033 CF000000 		.4byte	.LASF0
 2248 0037 03       		.uleb128 0x3
 2249 0038 01       		.byte	0x1
 2250 0039 06       		.byte	0x6
 2251 003a 6D000000 		.4byte	.LASF1
 2252 003e 04       		.uleb128 0x4
 2253 003f 35030000 		.4byte	.LASF5
 2254 0043 02       		.byte	0x2
 2255 0044 2A       		.byte	0x2a
 2256 0045 49000000 		.4byte	0x49
 2257 0049 03       		.uleb128 0x3
 2258 004a 01       		.byte	0x1
 2259 004b 08       		.byte	0x8
 2260 004c 56020000 		.4byte	.LASF2
 2261 0050 03       		.uleb128 0x3
 2262 0051 02       		.byte	0x2
 2263 0052 05       		.byte	0x5
 2264 0053 75020000 		.4byte	.LASF3
 2265 0057 03       		.uleb128 0x3
 2266 0058 02       		.byte	0x2
 2267 0059 07       		.byte	0x7
 2268 005a 20010000 		.4byte	.LASF4
ARM GAS  C:\Users\DNIEL~1\AppData\Local\Temp\ccjO8mzD.s 			page 41


 2269 005e 04       		.uleb128 0x4
 2270 005f 4E020000 		.4byte	.LASF6
 2271 0063 02       		.byte	0x2
 2272 0064 4F       		.byte	0x4f
 2273 0065 69000000 		.4byte	0x69
 2274 0069 03       		.uleb128 0x3
 2275 006a 04       		.byte	0x4
 2276 006b 05       		.byte	0x5
 2277 006c 93000000 		.4byte	.LASF7
 2278 0070 04       		.uleb128 0x4
 2279 0071 C2020000 		.4byte	.LASF8
 2280 0075 02       		.byte	0x2
 2281 0076 50       		.byte	0x50
 2282 0077 7B000000 		.4byte	0x7b
 2283 007b 03       		.uleb128 0x3
 2284 007c 04       		.byte	0x4
 2285 007d 07       		.byte	0x7
 2286 007e E6000000 		.4byte	.LASF9
 2287 0082 03       		.uleb128 0x3
 2288 0083 08       		.byte	0x8
 2289 0084 05       		.byte	0x5
 2290 0085 5F000000 		.4byte	.LASF10
 2291 0089 04       		.uleb128 0x4
 2292 008a 0D000000 		.4byte	.LASF11
 2293 008e 02       		.byte	0x2
 2294 008f 78       		.byte	0x78
 2295 0090 94000000 		.4byte	0x94
 2296 0094 03       		.uleb128 0x3
 2297 0095 08       		.byte	0x8
 2298 0096 07       		.byte	0x7
 2299 0097 1E000000 		.4byte	.LASF12
 2300 009b 04       		.uleb128 0x4
 2301 009c 39010000 		.4byte	.LASF13
 2302 00a0 03       		.byte	0x3
 2303 00a1 28       		.byte	0x28
 2304 00a2 3E000000 		.4byte	0x3e
 2305 00a6 04       		.uleb128 0x4
 2306 00a7 9C000000 		.4byte	.LASF14
 2307 00ab 03       		.byte	0x3
 2308 00ac 29       		.byte	0x29
 2309 00ad 3E000000 		.4byte	0x3e
 2310 00b1 04       		.uleb128 0x4
 2311 00b2 0E020000 		.4byte	.LASF15
 2312 00b6 03       		.byte	0x3
 2313 00b7 2A       		.byte	0x2a
 2314 00b8 3E000000 		.4byte	0x3e
 2315 00bc 04       		.uleb128 0x4
 2316 00bd 89000000 		.4byte	.LASF16
 2317 00c1 03       		.byte	0x3
 2318 00c2 2B       		.byte	0x2b
 2319 00c3 3E000000 		.4byte	0x3e
 2320 00c7 04       		.uleb128 0x4
 2321 00c8 25020000 		.4byte	.LASF17
 2322 00cc 03       		.byte	0x3
 2323 00cd 2C       		.byte	0x2c
 2324 00ce 70000000 		.4byte	0x70
 2325 00d2 04       		.uleb128 0x4
ARM GAS  C:\Users\DNIEL~1\AppData\Local\Temp\ccjO8mzD.s 			page 42


 2326 00d3 33010000 		.4byte	.LASF18
 2327 00d7 03       		.byte	0x3
 2328 00d8 2D       		.byte	0x2d
 2329 00d9 5E000000 		.4byte	0x5e
 2330 00dd 04       		.uleb128 0x4
 2331 00de 59010000 		.4byte	.LASF19
 2332 00e2 03       		.byte	0x3
 2333 00e3 2F       		.byte	0x2f
 2334 00e4 70000000 		.4byte	0x70
 2335 00e8 04       		.uleb128 0x4
 2336 00e9 D7020000 		.4byte	.LASF20
 2337 00ed 03       		.byte	0x3
 2338 00ee 31       		.byte	0x31
 2339 00ef 70000000 		.4byte	0x70
 2340 00f3 04       		.uleb128 0x4
 2341 00f4 BE000000 		.4byte	.LASF21
 2342 00f8 03       		.byte	0x3
 2343 00f9 32       		.byte	0x32
 2344 00fa 5E000000 		.4byte	0x5e
 2345 00fe 04       		.uleb128 0x4
 2346 00ff A7020000 		.4byte	.LASF22
 2347 0103 04       		.byte	0x4
 2348 0104 23       		.byte	0x23
 2349 0105 09010000 		.4byte	0x109
 2350 0109 05       		.uleb128 0x5
 2351 010a A7020000 		.4byte	.LASF22
 2352 010e 4C       		.byte	0x4c
 2353 010f 05       		.byte	0x5
 2354 0110 57       		.byte	0x57
 2355 0111 3C020000 		.4byte	0x23c
 2356 0115 06       		.uleb128 0x6
 2357 0116 98020000 		.4byte	.LASF23
 2358 011a 05       		.byte	0x5
 2359 011b 58       		.byte	0x58
 2360 011c 61020000 		.4byte	0x261
 2361 0120 02       		.byte	0x2
 2362 0121 23       		.byte	0x23
 2363 0122 00       		.uleb128 0x0
 2364 0123 06       		.uleb128 0x6
 2365 0124 16020000 		.4byte	.LASF24
 2366 0128 05       		.byte	0x5
 2367 0129 5A       		.byte	0x5a
 2368 012a 61020000 		.4byte	0x261
 2369 012e 02       		.byte	0x2
 2370 012f 23       		.byte	0x23
 2371 0130 04       		.uleb128 0x4
 2372 0131 06       		.uleb128 0x6
 2373 0132 58000000 		.4byte	.LASF25
 2374 0136 05       		.byte	0x5
 2375 0137 5C       		.byte	0x5c
 2376 0138 C7000000 		.4byte	0xc7
 2377 013c 02       		.byte	0x2
 2378 013d 23       		.byte	0x23
 2379 013e 08       		.uleb128 0x8
 2380 013f 06       		.uleb128 0x6
 2381 0140 5F030000 		.4byte	.LASF26
 2382 0144 05       		.byte	0x5
ARM GAS  C:\Users\DNIEL~1\AppData\Local\Temp\ccjO8mzD.s 			page 43


 2383 0145 5D       		.byte	0x5d
 2384 0146 3A030000 		.4byte	0x33a
 2385 014a 02       		.byte	0x2
 2386 014b 23       		.byte	0x23
 2387 014c 0C       		.uleb128 0xc
 2388 014d 06       		.uleb128 0x6
 2389 014e A5000000 		.4byte	.LASF27
 2390 0152 05       		.byte	0x5
 2391 0153 5F       		.byte	0x5f
 2392 0154 61020000 		.4byte	0x261
 2393 0158 02       		.byte	0x2
 2394 0159 23       		.byte	0x23
 2395 015a 10       		.uleb128 0x10
 2396 015b 06       		.uleb128 0x6
 2397 015c 89010000 		.4byte	.LASF28
 2398 0160 05       		.byte	0x5
 2399 0161 60       		.byte	0x60
 2400 0162 61020000 		.4byte	0x261
 2401 0166 02       		.byte	0x2
 2402 0167 23       		.byte	0x23
 2403 0168 14       		.uleb128 0x14
 2404 0169 06       		.uleb128 0x6
 2405 016a 50030000 		.4byte	.LASF29
 2406 016e 05       		.byte	0x5
 2407 016f 67       		.byte	0x67
 2408 0170 81040000 		.4byte	0x481
 2409 0174 02       		.byte	0x2
 2410 0175 23       		.byte	0x23
 2411 0176 18       		.uleb128 0x18
 2412 0177 06       		.uleb128 0x6
 2413 0178 C4000000 		.4byte	.LASF30
 2414 017c 05       		.byte	0x5
 2415 017d 6D       		.byte	0x6d
 2416 017e 93040000 		.4byte	0x493
 2417 0182 02       		.byte	0x2
 2418 0183 23       		.byte	0x23
 2419 0184 1C       		.uleb128 0x1c
 2420 0185 06       		.uleb128 0x6
 2421 0186 7F020000 		.4byte	.LASF31
 2422 018a 05       		.byte	0x5
 2423 018b 72       		.byte	0x72
 2424 018c A6000000 		.4byte	0xa6
 2425 0190 02       		.byte	0x2
 2426 0191 23       		.byte	0x23
 2427 0192 20       		.uleb128 0x20
 2428 0193 06       		.uleb128 0x6
 2429 0194 9F020000 		.4byte	.LASF32
 2430 0198 05       		.byte	0x5
 2431 0199 76       		.byte	0x76
 2432 019a 9B000000 		.4byte	0x9b
 2433 019e 02       		.byte	0x2
 2434 019f 23       		.byte	0x23
 2435 01a0 21       		.uleb128 0x21
 2436 01a1 06       		.uleb128 0x6
 2437 01a2 2E030000 		.4byte	.LASF33
 2438 01a6 05       		.byte	0x5
 2439 01a7 7B       		.byte	0x7b
ARM GAS  C:\Users\DNIEL~1\AppData\Local\Temp\ccjO8mzD.s 			page 44


 2440 01a8 B1000000 		.4byte	0xb1
 2441 01ac 02       		.byte	0x2
 2442 01ad 23       		.byte	0x23
 2443 01ae 22       		.uleb128 0x22
 2444 01af 06       		.uleb128 0x6
 2445 01b0 87020000 		.4byte	.LASF34
 2446 01b4 05       		.byte	0x5
 2447 01b5 81       		.byte	0x81
 2448 01b6 BC000000 		.4byte	0xbc
 2449 01ba 02       		.byte	0x2
 2450 01bb 23       		.byte	0x23
 2451 01bc 23       		.uleb128 0x23
 2452 01bd 06       		.uleb128 0x6
 2453 01be F3020000 		.4byte	.LASF35
 2454 01c2 05       		.byte	0x5
 2455 01c3 88       		.byte	0x88
 2456 01c4 5D030000 		.4byte	0x35d
 2457 01c8 02       		.byte	0x2
 2458 01c9 23       		.byte	0x23
 2459 01ca 24       		.uleb128 0x24
 2460 01cb 07       		.uleb128 0x7
 2461 01cc 705F7500 		.ascii	"p_u\000"
 2462 01d0 05       		.byte	0x5
 2463 01d1 AD       		.byte	0xad
 2464 01d2 4C040000 		.4byte	0x44c
 2465 01d6 02       		.byte	0x2
 2466 01d7 23       		.byte	0x23
 2467 01d8 28       		.uleb128 0x28
 2468 01d9 06       		.uleb128 0x6
 2469 01da 65030000 		.4byte	.LASF36
 2470 01de 05       		.byte	0x5
 2471 01df B2       		.byte	0xb2
 2472 01e0 89020000 		.4byte	0x289
 2473 01e4 02       		.byte	0x2
 2474 01e5 23       		.byte	0x23
 2475 01e6 2C       		.uleb128 0x2c
 2476 01e7 06       		.uleb128 0x6
 2477 01e8 01030000 		.4byte	.LASF37
 2478 01ec 05       		.byte	0x5
 2479 01ed B8       		.byte	0xb8
 2480 01ee 67020000 		.4byte	0x267
 2481 01f2 02       		.byte	0x2
 2482 01f3 23       		.byte	0x23
 2483 01f4 30       		.uleb128 0x30
 2484 01f5 06       		.uleb128 0x6
 2485 01f6 00000000 		.4byte	.LASF38
 2486 01fa 05       		.byte	0x5
 2487 01fb BC       		.byte	0xbc
 2488 01fc D2000000 		.4byte	0xd2
 2489 0200 02       		.byte	0x2
 2490 0201 23       		.byte	0x23
 2491 0202 38       		.uleb128 0x38
 2492 0203 06       		.uleb128 0x6
 2493 0204 B7020000 		.4byte	.LASF39
 2494 0208 05       		.byte	0x5
 2495 0209 C2       		.byte	0xc2
 2496 020a DD000000 		.4byte	0xdd
ARM GAS  C:\Users\DNIEL~1\AppData\Local\Temp\ccjO8mzD.s 			page 45


 2497 020e 02       		.byte	0x2
 2498 020f 23       		.byte	0x23
 2499 0210 3C       		.uleb128 0x3c
 2500 0211 06       		.uleb128 0x6
 2501 0212 6B020000 		.4byte	.LASF40
 2502 0216 05       		.byte	0x5
 2503 0217 C9       		.byte	0xc9
 2504 0218 99040000 		.4byte	0x499
 2505 021c 02       		.byte	0x2
 2506 021d 23       		.byte	0x23
 2507 021e 40       		.uleb128 0x40
 2508 021f 06       		.uleb128 0x6
 2509 0220 E1020000 		.4byte	.LASF41
 2510 0224 05       		.byte	0x5
 2511 0225 CD       		.byte	0xcd
 2512 0226 C7000000 		.4byte	0xc7
 2513 022a 02       		.byte	0x2
 2514 022b 23       		.byte	0x23
 2515 022c 44       		.uleb128 0x44
 2516 022d 06       		.uleb128 0x6
 2517 022e 79000000 		.4byte	.LASF42
 2518 0232 05       		.byte	0x5
 2519 0233 D3       		.byte	0xd3
 2520 0234 9F020000 		.4byte	0x29f
 2521 0238 02       		.byte	0x2
 2522 0239 23       		.byte	0x23
 2523 023a 48       		.uleb128 0x48
 2524 023b 00       		.byte	0x0
 2525 023c 08       		.uleb128 0x8
 2526 023d 08       		.byte	0x8
 2527 023e 04       		.byte	0x4
 2528 023f 5A       		.byte	0x5a
 2529 0240 61020000 		.4byte	0x261
 2530 0244 06       		.uleb128 0x6
 2531 0245 98020000 		.4byte	.LASF23
 2532 0249 04       		.byte	0x4
 2533 024a 5B       		.byte	0x5b
 2534 024b 61020000 		.4byte	0x261
 2535 024f 02       		.byte	0x2
 2536 0250 23       		.byte	0x23
 2537 0251 00       		.uleb128 0x0
 2538 0252 06       		.uleb128 0x6
 2539 0253 16020000 		.4byte	.LASF24
 2540 0257 04       		.byte	0x4
 2541 0258 5D       		.byte	0x5d
 2542 0259 61020000 		.4byte	0x261
 2543 025d 02       		.byte	0x2
 2544 025e 23       		.byte	0x23
 2545 025f 04       		.uleb128 0x4
 2546 0260 00       		.byte	0x0
 2547 0261 09       		.uleb128 0x9
 2548 0262 04       		.byte	0x4
 2549 0263 FE000000 		.4byte	0xfe
 2550 0267 04       		.uleb128 0x4
 2551 0268 91010000 		.4byte	.LASF43
 2552 026c 04       		.byte	0x4
 2553 026d 5F       		.byte	0x5f
ARM GAS  C:\Users\DNIEL~1\AppData\Local\Temp\ccjO8mzD.s 			page 46


 2554 026e 3C020000 		.4byte	0x23c
 2555 0272 08       		.uleb128 0x8
 2556 0273 04       		.byte	0x4
 2557 0274 04       		.byte	0x4
 2558 0275 64       		.byte	0x64
 2559 0276 89020000 		.4byte	0x289
 2560 027a 06       		.uleb128 0x6
 2561 027b 98020000 		.4byte	.LASF23
 2562 027f 04       		.byte	0x4
 2563 0280 66       		.byte	0x66
 2564 0281 61020000 		.4byte	0x261
 2565 0285 02       		.byte	0x2
 2566 0286 23       		.byte	0x23
 2567 0287 00       		.uleb128 0x0
 2568 0288 00       		.byte	0x0
 2569 0289 04       		.uleb128 0x4
 2570 028a 4D010000 		.4byte	.LASF44
 2571 028e 04       		.byte	0x4
 2572 028f 69       		.byte	0x69
 2573 0290 72020000 		.4byte	0x272
 2574 0294 04       		.uleb128 0x4
 2575 0295 B5000000 		.4byte	.LASF45
 2576 0299 06       		.byte	0x6
 2577 029a DE       		.byte	0xde
 2578 029b 9F020000 		.4byte	0x29f
 2579 029f 0A       		.uleb128 0xa
 2580 02a0 04       		.byte	0x4
 2581 02a1 04       		.uleb128 0x4
 2582 02a2 75010000 		.4byte	.LASF46
 2583 02a6 06       		.byte	0x6
 2584 02a7 E4       		.byte	0xe4
 2585 02a8 89000000 		.4byte	0x89
 2586 02ac 0B       		.uleb128 0xb
 2587 02ad FA020000 		.4byte	.LASF47
 2588 02b1 24       		.byte	0x24
 2589 02b2 06       		.byte	0x6
 2590 02b3 0501     		.2byte	0x105
 2591 02b5 3A030000 		.4byte	0x33a
 2592 02b9 0C       		.uleb128 0xc
 2593 02ba 723400   		.ascii	"r4\000"
 2594 02bd 06       		.byte	0x6
 2595 02be 1801     		.2byte	0x118
 2596 02c0 94020000 		.4byte	0x294
 2597 02c4 02       		.byte	0x2
 2598 02c5 23       		.byte	0x23
 2599 02c6 00       		.uleb128 0x0
 2600 02c7 0C       		.uleb128 0xc
 2601 02c8 723500   		.ascii	"r5\000"
 2602 02cb 06       		.byte	0x6
 2603 02cc 1901     		.2byte	0x119
 2604 02ce 94020000 		.4byte	0x294
 2605 02d2 02       		.byte	0x2
 2606 02d3 23       		.byte	0x23
 2607 02d4 04       		.uleb128 0x4
 2608 02d5 0C       		.uleb128 0xc
 2609 02d6 723600   		.ascii	"r6\000"
 2610 02d9 06       		.byte	0x6
ARM GAS  C:\Users\DNIEL~1\AppData\Local\Temp\ccjO8mzD.s 			page 47


 2611 02da 1A01     		.2byte	0x11a
 2612 02dc 94020000 		.4byte	0x294
 2613 02e0 02       		.byte	0x2
 2614 02e1 23       		.byte	0x23
 2615 02e2 08       		.uleb128 0x8
 2616 02e3 0C       		.uleb128 0xc
 2617 02e4 723700   		.ascii	"r7\000"
 2618 02e7 06       		.byte	0x6
 2619 02e8 1B01     		.2byte	0x11b
 2620 02ea 94020000 		.4byte	0x294
 2621 02ee 02       		.byte	0x2
 2622 02ef 23       		.byte	0x23
 2623 02f0 0C       		.uleb128 0xc
 2624 02f1 0C       		.uleb128 0xc
 2625 02f2 723800   		.ascii	"r8\000"
 2626 02f5 06       		.byte	0x6
 2627 02f6 1C01     		.2byte	0x11c
 2628 02f8 94020000 		.4byte	0x294
 2629 02fc 02       		.byte	0x2
 2630 02fd 23       		.byte	0x23
 2631 02fe 10       		.uleb128 0x10
 2632 02ff 0C       		.uleb128 0xc
 2633 0300 723900   		.ascii	"r9\000"
 2634 0303 06       		.byte	0x6
 2635 0304 1D01     		.2byte	0x11d
 2636 0306 94020000 		.4byte	0x294
 2637 030a 02       		.byte	0x2
 2638 030b 23       		.byte	0x23
 2639 030c 14       		.uleb128 0x14
 2640 030d 0C       		.uleb128 0xc
 2641 030e 72313000 		.ascii	"r10\000"
 2642 0312 06       		.byte	0x6
 2643 0313 1E01     		.2byte	0x11e
 2644 0315 94020000 		.4byte	0x294
 2645 0319 02       		.byte	0x2
 2646 031a 23       		.byte	0x23
 2647 031b 18       		.uleb128 0x18
 2648 031c 0C       		.uleb128 0xc
 2649 031d 72313100 		.ascii	"r11\000"
 2650 0321 06       		.byte	0x6
 2651 0322 1F01     		.2byte	0x11f
 2652 0324 94020000 		.4byte	0x294
 2653 0328 02       		.byte	0x2
 2654 0329 23       		.byte	0x23
 2655 032a 1C       		.uleb128 0x1c
 2656 032b 0C       		.uleb128 0xc
 2657 032c 6C7200   		.ascii	"lr\000"
 2658 032f 06       		.byte	0x6
 2659 0330 2001     		.2byte	0x120
 2660 0332 94020000 		.4byte	0x294
 2661 0336 02       		.byte	0x2
 2662 0337 23       		.byte	0x23
 2663 0338 20       		.uleb128 0x20
 2664 0339 00       		.byte	0x0
 2665 033a 0B       		.uleb128 0xb
 2666 033b 18010000 		.4byte	.LASF48
 2667 033f 04       		.byte	0x4
ARM GAS  C:\Users\DNIEL~1\AppData\Local\Temp\ccjO8mzD.s 			page 48


 2668 0340 06       		.byte	0x6
 2669 0341 2A01     		.2byte	0x12a
 2670 0343 57030000 		.4byte	0x357
 2671 0347 0C       		.uleb128 0xc
 2672 0348 72313300 		.ascii	"r13\000"
 2673 034c 06       		.byte	0x6
 2674 034d 2B01     		.2byte	0x12b
 2675 034f 57030000 		.4byte	0x357
 2676 0353 02       		.byte	0x2
 2677 0354 23       		.byte	0x23
 2678 0355 00       		.uleb128 0x0
 2679 0356 00       		.byte	0x0
 2680 0357 09       		.uleb128 0x9
 2681 0358 04       		.byte	0x4
 2682 0359 AC020000 		.4byte	0x2ac
 2683 035d 0D       		.uleb128 0xd
 2684 035e E8000000 		.4byte	0xe8
 2685 0362 05       		.uleb128 0x5
 2686 0363 0C030000 		.4byte	.LASF49
 2687 0367 0C       		.byte	0xc
 2688 0368 07       		.byte	0x7
 2689 0369 25       		.byte	0x25
 2690 036a 8B030000 		.4byte	0x38b
 2691 036e 06       		.uleb128 0x6
 2692 036f AD000000 		.4byte	.LASF50
 2693 0373 07       		.byte	0x7
 2694 0374 26       		.byte	0x26
 2695 0375 67020000 		.4byte	0x267
 2696 0379 02       		.byte	0x2
 2697 037a 23       		.byte	0x23
 2698 037b 00       		.uleb128 0x0
 2699 037c 06       		.uleb128 0x6
 2700 037d 12010000 		.4byte	.LASF51
 2701 0381 07       		.byte	0x7
 2702 0382 28       		.byte	0x28
 2703 0383 F3000000 		.4byte	0xf3
 2704 0387 02       		.byte	0x2
 2705 0388 23       		.byte	0x23
 2706 0389 08       		.uleb128 0x8
 2707 038a 00       		.byte	0x0
 2708 038b 04       		.uleb128 0x4
 2709 038c 0C030000 		.4byte	.LASF49
 2710 0390 07       		.byte	0x7
 2711 0391 29       		.byte	0x29
 2712 0392 62030000 		.4byte	0x362
 2713 0396 05       		.uleb128 0x5
 2714 0397 65010000 		.4byte	.LASF52
 2715 039b 10       		.byte	0x10
 2716 039c 08       		.byte	0x8
 2717 039d 25       		.byte	0x25
 2718 039e CD030000 		.4byte	0x3cd
 2719 03a2 06       		.uleb128 0x6
 2720 03a3 81000000 		.4byte	.LASF53
 2721 03a7 08       		.byte	0x8
 2722 03a8 26       		.byte	0x26
 2723 03a9 67020000 		.4byte	0x267
 2724 03ad 02       		.byte	0x2
ARM GAS  C:\Users\DNIEL~1\AppData\Local\Temp\ccjO8mzD.s 			page 49


 2725 03ae 23       		.byte	0x23
 2726 03af 00       		.uleb128 0x0
 2727 03b0 06       		.uleb128 0x6
 2728 03b1 57030000 		.4byte	.LASF54
 2729 03b5 08       		.byte	0x8
 2730 03b6 28       		.byte	0x28
 2731 03b7 61020000 		.4byte	0x261
 2732 03bb 02       		.byte	0x2
 2733 03bc 23       		.byte	0x23
 2734 03bd 08       		.uleb128 0x8
 2735 03be 06       		.uleb128 0x6
 2736 03bf D0020000 		.4byte	.LASF55
 2737 03c3 08       		.byte	0x8
 2738 03c4 2A       		.byte	0x2a
 2739 03c5 CD030000 		.4byte	0x3cd
 2740 03c9 02       		.byte	0x2
 2741 03ca 23       		.byte	0x23
 2742 03cb 0C       		.uleb128 0xc
 2743 03cc 00       		.byte	0x0
 2744 03cd 09       		.uleb128 0x9
 2745 03ce 04       		.byte	0x4
 2746 03cf 96030000 		.4byte	0x396
 2747 03d3 04       		.uleb128 0x4
 2748 03d4 65010000 		.4byte	.LASF52
 2749 03d8 08       		.byte	0x8
 2750 03d9 2C       		.byte	0x2c
 2751 03da 96030000 		.4byte	0x396
 2752 03de 08       		.uleb128 0x8
 2753 03df 28       		.byte	0x28
 2754 03e0 09       		.byte	0x9
 2755 03e1 2C       		.byte	0x2c
 2756 03e2 3B040000 		.4byte	0x43b
 2757 03e6 06       		.uleb128 0x6
 2758 03e7 A4010000 		.4byte	.LASF56
 2759 03eb 09       		.byte	0x9
 2760 03ec 2D       		.byte	0x2d
 2761 03ed 3B040000 		.4byte	0x43b
 2762 03f1 02       		.byte	0x2
 2763 03f2 23       		.byte	0x23
 2764 03f3 00       		.uleb128 0x0
 2765 03f4 06       		.uleb128 0x6
 2766 03f5 64020000 		.4byte	.LASF57
 2767 03f9 09       		.byte	0x9
 2768 03fa 2F       		.byte	0x2f
 2769 03fb 3B040000 		.4byte	0x43b
 2770 03ff 02       		.byte	0x2
 2771 0400 23       		.byte	0x23
 2772 0401 04       		.uleb128 0x4
 2773 0402 06       		.uleb128 0x6
 2774 0403 4F000000 		.4byte	.LASF58
 2775 0407 09       		.byte	0x9
 2776 0408 31       		.byte	0x31
 2777 0409 3B040000 		.4byte	0x43b
 2778 040d 02       		.byte	0x2
 2779 040e 23       		.byte	0x23
 2780 040f 08       		.uleb128 0x8
 2781 0410 06       		.uleb128 0x6
ARM GAS  C:\Users\DNIEL~1\AppData\Local\Temp\ccjO8mzD.s 			page 50


 2782 0411 80010000 		.4byte	.LASF59
 2783 0415 09       		.byte	0x9
 2784 0416 32       		.byte	0x32
 2785 0417 3B040000 		.4byte	0x43b
 2786 041b 02       		.byte	0x2
 2787 041c 23       		.byte	0x23
 2788 041d 0C       		.uleb128 0xc
 2789 041e 06       		.uleb128 0x6
 2790 041f 16030000 		.4byte	.LASF60
 2791 0423 09       		.byte	0x9
 2792 0424 33       		.byte	0x33
 2793 0425 8B030000 		.4byte	0x38b
 2794 0429 02       		.byte	0x2
 2795 042a 23       		.byte	0x23
 2796 042b 10       		.uleb128 0x10
 2797 042c 06       		.uleb128 0x6
 2798 042d 01010000 		.4byte	.LASF61
 2799 0431 09       		.byte	0x9
 2800 0432 35       		.byte	0x35
 2801 0433 8B030000 		.4byte	0x38b
 2802 0437 02       		.byte	0x2
 2803 0438 23       		.byte	0x23
 2804 0439 1C       		.uleb128 0x1c
 2805 043a 00       		.byte	0x0
 2806 043b 09       		.uleb128 0x9
 2807 043c 04       		.byte	0x4
 2808 043d D2000000 		.4byte	0xd2
 2809 0441 04       		.uleb128 0x4
 2810 0442 16000000 		.4byte	.LASF62
 2811 0446 09       		.byte	0x9
 2812 0447 37       		.byte	0x37
 2813 0448 DE030000 		.4byte	0x3de
 2814 044c 0E       		.uleb128 0xe
 2815 044d 04       		.byte	0x4
 2816 044e 05       		.byte	0x5
 2817 044f 8F       		.byte	0x8f
 2818 0450 81040000 		.4byte	0x481
 2819 0454 0F       		.uleb128 0xf
 2820 0455 06000000 		.4byte	.LASF63
 2821 0459 05       		.byte	0x5
 2822 045a 96       		.byte	0x96
 2823 045b D2000000 		.4byte	0xd2
 2824 045f 0F       		.uleb128 0xf
 2825 0460 41000000 		.4byte	.LASF64
 2826 0464 05       		.byte	0x5
 2827 0465 9D       		.byte	0x9d
 2828 0466 D2000000 		.4byte	0xd2
 2829 046a 0F       		.uleb128 0xf
 2830 046b 3D030000 		.4byte	.LASF65
 2831 046f 05       		.byte	0x5
 2832 0470 A4       		.byte	0xa4
 2833 0471 9F020000 		.4byte	0x29f
 2834 0475 0F       		.uleb128 0xf
 2835 0476 91020000 		.4byte	.LASF66
 2836 047a 05       		.byte	0x5
 2837 047b AB       		.byte	0xab
 2838 047c DD000000 		.4byte	0xdd
ARM GAS  C:\Users\DNIEL~1\AppData\Local\Temp\ccjO8mzD.s 			page 51


 2839 0480 00       		.byte	0x0
 2840 0481 09       		.uleb128 0x9
 2841 0482 04       		.byte	0x4
 2842 0483 87040000 		.4byte	0x487
 2843 0487 10       		.uleb128 0x10
 2844 0488 8C040000 		.4byte	0x48c
 2845 048c 03       		.uleb128 0x3
 2846 048d 01       		.byte	0x1
 2847 048e 08       		.byte	0x8
 2848 048f CB020000 		.4byte	.LASF67
 2849 0493 09       		.uleb128 0x9
 2850 0494 04       		.byte	0x4
 2851 0495 A1020000 		.4byte	0x2a1
 2852 0499 09       		.uleb128 0x9
 2853 049a 04       		.byte	0x4
 2854 049b D3030000 		.4byte	0x3d3
 2855 049f 05       		.uleb128 0x5
 2856 04a0 AE020000 		.4byte	.LASF68
 2857 04a4 10       		.byte	0x10
 2858 04a5 0A       		.byte	0xa
 2859 04a6 3F       		.byte	0x3f
 2860 04a7 E4040000 		.4byte	0x4e4
 2861 04ab 06       		.uleb128 0x6
 2862 04ac 0D010000 		.4byte	.LASF69
 2863 04b0 0A       		.byte	0xa
 2864 04b1 40       		.byte	0x40
 2865 04b2 81040000 		.4byte	0x481
 2866 04b6 02       		.byte	0x2
 2867 04b7 23       		.byte	0x23
 2868 04b8 00       		.uleb128 0x0
 2869 04b9 06       		.uleb128 0x6
 2870 04ba 9E010000 		.4byte	.LASF70
 2871 04be 0A       		.byte	0xa
 2872 04bf 41       		.byte	0x41
 2873 04c0 E6040000 		.4byte	0x4e6
 2874 04c4 02       		.byte	0x2
 2875 04c5 23       		.byte	0x23
 2876 04c6 04       		.uleb128 0x4
 2877 04c7 06       		.uleb128 0x6
 2878 04c8 F8000000 		.4byte	.LASF71
 2879 04cc 0A       		.byte	0xa
 2880 04cd 42       		.byte	0x42
 2881 04ce E6040000 		.4byte	0x4e6
 2882 04d2 02       		.byte	0x2
 2883 04d3 23       		.byte	0x23
 2884 04d4 08       		.uleb128 0x8
 2885 04d5 06       		.uleb128 0x6
 2886 04d6 1D020000 		.4byte	.LASF72
 2887 04da 0A       		.byte	0xa
 2888 04db 43       		.byte	0x43
 2889 04dc E6040000 		.4byte	0x4e6
 2890 04e0 02       		.byte	0x2
 2891 04e1 23       		.byte	0x23
 2892 04e2 0C       		.uleb128 0xc
 2893 04e3 00       		.byte	0x0
 2894 04e4 11       		.uleb128 0x11
 2895 04e5 01       		.byte	0x1
ARM GAS  C:\Users\DNIEL~1\AppData\Local\Temp\ccjO8mzD.s 			page 52


 2896 04e6 09       		.uleb128 0x9
 2897 04e7 04       		.byte	0x4
 2898 04e8 E4040000 		.4byte	0x4e4
 2899 04ec 12       		.uleb128 0x12
 2900 04ed F005     		.2byte	0x5f0
 2901 04ef 0A       		.byte	0xa
 2902 04f0 48       		.byte	0x48
 2903 04f1 3B050000 		.4byte	0x53b
 2904 04f5 07       		.uleb128 0x7
 2905 04f6 543000   		.ascii	"T0\000"
 2906 04f9 0A       		.byte	0xa
 2907 04fa 49       		.byte	0x49
 2908 04fb 3B050000 		.4byte	0x53b
 2909 04ff 02       		.byte	0x2
 2910 0500 23       		.byte	0x23
 2911 0501 00       		.uleb128 0x0
 2912 0502 07       		.uleb128 0x7
 2913 0503 543100   		.ascii	"T1\000"
 2914 0506 0A       		.byte	0xa
 2915 0507 4A       		.byte	0x4a
 2916 0508 3B050000 		.4byte	0x53b
 2917 050c 03       		.byte	0x3
 2918 050d 23       		.byte	0x23
 2919 050e B002     		.uleb128 0x130
 2920 0510 07       		.uleb128 0x7
 2921 0511 543200   		.ascii	"T2\000"
 2922 0514 0A       		.byte	0xa
 2923 0515 4B       		.byte	0x4b
 2924 0516 3B050000 		.4byte	0x53b
 2925 051a 03       		.byte	0x3
 2926 051b 23       		.byte	0x23
 2927 051c E004     		.uleb128 0x260
 2928 051e 07       		.uleb128 0x7
 2929 051f 543300   		.ascii	"T3\000"
 2930 0522 0A       		.byte	0xa
 2931 0523 4C       		.byte	0x4c
 2932 0524 3B050000 		.4byte	0x53b
 2933 0528 03       		.byte	0x3
 2934 0529 23       		.byte	0x23
 2935 052a 9007     		.uleb128 0x390
 2936 052c 07       		.uleb128 0x7
 2937 052d 543400   		.ascii	"T4\000"
 2938 0530 0A       		.byte	0xa
 2939 0531 4D       		.byte	0x4d
 2940 0532 3B050000 		.4byte	0x53b
 2941 0536 03       		.byte	0x3
 2942 0537 23       		.byte	0x23
 2943 0538 C009     		.uleb128 0x4c0
 2944 053a 00       		.byte	0x0
 2945 053b 13       		.uleb128 0x13
 2946 053c A1020000 		.4byte	0x2a1
 2947 0540 4B050000 		.4byte	0x54b
 2948 0544 14       		.uleb128 0x14
 2949 0545 30000000 		.4byte	0x30
 2950 0549 25       		.byte	0x25
 2951 054a 00       		.byte	0x0
 2952 054b 15       		.uleb128 0x15
ARM GAS  C:\Users\DNIEL~1\AppData\Local\Temp\ccjO8mzD.s 			page 53


 2953 054c 21030000 		.4byte	.LASF81
 2954 0550 F005     		.2byte	0x5f0
 2955 0552 0A       		.byte	0xa
 2956 0553 47       		.byte	0x47
 2957 0554 6E050000 		.4byte	0x56e
 2958 0558 16       		.uleb128 0x16
 2959 0559 776100   		.ascii	"wa\000"
 2960 055c 0A       		.byte	0xa
 2961 055d 4E       		.byte	0x4e
 2962 055e EC040000 		.4byte	0x4ec
 2963 0562 0F       		.uleb128 0xf
 2964 0563 EC020000 		.4byte	.LASF73
 2965 0567 0A       		.byte	0xa
 2966 0568 4F       		.byte	0x4f
 2967 0569 6E050000 		.4byte	0x56e
 2968 056d 00       		.byte	0x0
 2969 056e 13       		.uleb128 0x13
 2970 056f 3E000000 		.4byte	0x3e
 2971 0573 7F050000 		.4byte	0x57f
 2972 0577 17       		.uleb128 0x17
 2973 0578 30000000 		.4byte	0x30
 2974 057c EF05     		.2byte	0x5ef
 2975 057e 00       		.byte	0x0
 2976 057f 18       		.uleb128 0x18
 2977 0580 AE010000 		.4byte	.LASF82
 2978 0584 01       		.byte	0x1
 2979 0585 50       		.byte	0x50
 2980 0586 01       		.byte	0x1
 2981 0587 00000000 		.4byte	.LFB8
 2982 058b 88080000 		.4byte	.LFE8
 2983 058f 00000000 		.4byte	.LLST0
 2984 0593 F60B0000 		.4byte	0xbf6
 2985 0597 19       		.uleb128 0x19
 2986 0598 DC000000 		.4byte	.LASF74
 2987 059c 01       		.byte	0x1
 2988 059d 51       		.byte	0x51
 2989 059e D2000000 		.4byte	0xd2
 2990 05a2 2C000000 		.4byte	.LLST1
 2991 05a6 1A       		.uleb128 0x1a
 2992 05a7 E1000000 		.4byte	.LASF83
 2993 05ab 01       		.byte	0x1
 2994 05ac 51       		.byte	0x51
 2995 05ad D2000000 		.4byte	0xd2
 2996 05b1 1B       		.uleb128 0x1b
 2997 05b2 6900     		.ascii	"i\000"
 2998 05b4 01       		.byte	0x1
 2999 05b5 52       		.byte	0x52
 3000 05b6 30000000 		.4byte	0x30
 3001 05ba 08020000 		.4byte	.LLST2
 3002 05be 1C       		.uleb128 0x1c
 3003 05bf D4000000 		.4byte	.LBB2
 3004 05c3 DA000000 		.4byte	.LBE2
 3005 05c7 DB050000 		.4byte	0x5db
 3006 05cb 1B       		.uleb128 0x1b
 3007 05cc 746D7000 		.ascii	"tmp\000"
 3008 05d0 01       		.byte	0x1
 3009 05d1 68       		.byte	0x68
ARM GAS  C:\Users\DNIEL~1\AppData\Local\Temp\ccjO8mzD.s 			page 54


 3010 05d2 70000000 		.4byte	0x70
 3011 05d6 B8020000 		.4byte	.LLST3
 3012 05da 00       		.byte	0x0
 3013 05db 1C       		.uleb128 0x1c
 3014 05dc EC000000 		.4byte	.LBB3
 3015 05e0 F2000000 		.4byte	.LBE3
 3016 05e4 F8050000 		.4byte	0x5f8
 3017 05e8 1B       		.uleb128 0x1b
 3018 05e9 746D7000 		.ascii	"tmp\000"
 3019 05ed 01       		.byte	0x1
 3020 05ee 6A       		.byte	0x6a
 3021 05ef 70000000 		.4byte	0x70
 3022 05f3 CB020000 		.4byte	.LLST4
 3023 05f7 00       		.byte	0x0
 3024 05f8 1C       		.uleb128 0x1c
 3025 05f9 28010000 		.4byte	.LBB4
 3026 05fd 2E010000 		.4byte	.LBE4
 3027 0601 15060000 		.4byte	0x615
 3028 0605 1B       		.uleb128 0x1b
 3029 0606 746D7000 		.ascii	"tmp\000"
 3030 060a 01       		.byte	0x1
 3031 060b 6E       		.byte	0x6e
 3032 060c 70000000 		.4byte	0x70
 3033 0610 DE020000 		.4byte	.LLST5
 3034 0614 00       		.byte	0x0
 3035 0615 1C       		.uleb128 0x1c
 3036 0616 40010000 		.4byte	.LBB5
 3037 061a 46010000 		.4byte	.LBE5
 3038 061e 32060000 		.4byte	0x632
 3039 0622 1B       		.uleb128 0x1b
 3040 0623 746D7000 		.ascii	"tmp\000"
 3041 0627 01       		.byte	0x1
 3042 0628 70       		.byte	0x70
 3043 0629 70000000 		.4byte	0x70
 3044 062d F1020000 		.4byte	.LLST6
 3045 0631 00       		.byte	0x0
 3046 0632 1C       		.uleb128 0x1c
 3047 0633 5C010000 		.4byte	.LBB6
 3048 0637 62010000 		.4byte	.LBE6
 3049 063b 4F060000 		.4byte	0x64f
 3050 063f 1B       		.uleb128 0x1b
 3051 0640 746D7000 		.ascii	"tmp\000"
 3052 0644 01       		.byte	0x1
 3053 0645 76       		.byte	0x76
 3054 0646 70000000 		.4byte	0x70
 3055 064a 04030000 		.4byte	.LLST7
 3056 064e 00       		.byte	0x0
 3057 064f 1C       		.uleb128 0x1c
 3058 0650 82010000 		.4byte	.LBB7
 3059 0654 88010000 		.4byte	.LBE7
 3060 0658 6C060000 		.4byte	0x66c
 3061 065c 1B       		.uleb128 0x1b
 3062 065d 746D7000 		.ascii	"tmp\000"
 3063 0661 01       		.byte	0x1
 3064 0662 76       		.byte	0x76
 3065 0663 70000000 		.4byte	0x70
 3066 0667 17030000 		.4byte	.LLST8
ARM GAS  C:\Users\DNIEL~1\AppData\Local\Temp\ccjO8mzD.s 			page 55


 3067 066b 00       		.byte	0x0
 3068 066c 1C       		.uleb128 0x1c
 3069 066d 88010000 		.4byte	.LBB8
 3070 0671 8E010000 		.4byte	.LBE8
 3071 0675 89060000 		.4byte	0x689
 3072 0679 1B       		.uleb128 0x1b
 3073 067a 746D7000 		.ascii	"tmp\000"
 3074 067e 01       		.byte	0x1
 3075 067f 77       		.byte	0x77
 3076 0680 70000000 		.4byte	0x70
 3077 0684 2A030000 		.4byte	.LLST9
 3078 0688 00       		.byte	0x0
 3079 0689 1C       		.uleb128 0x1c
 3080 068a B2010000 		.4byte	.LBB9
 3081 068e B8010000 		.4byte	.LBE9
 3082 0692 A6060000 		.4byte	0x6a6
 3083 0696 1B       		.uleb128 0x1b
 3084 0697 746D7000 		.ascii	"tmp\000"
 3085 069b 01       		.byte	0x1
 3086 069c 77       		.byte	0x77
 3087 069d 70000000 		.4byte	0x70
 3088 06a1 3D030000 		.4byte	.LLST10
 3089 06a5 00       		.byte	0x0
 3090 06a6 1C       		.uleb128 0x1c
 3091 06a7 B8010000 		.4byte	.LBB10
 3092 06ab BE010000 		.4byte	.LBE10
 3093 06af C3060000 		.4byte	0x6c3
 3094 06b3 1B       		.uleb128 0x1b
 3095 06b4 746D7000 		.ascii	"tmp\000"
 3096 06b8 01       		.byte	0x1
 3097 06b9 78       		.byte	0x78
 3098 06ba 70000000 		.4byte	0x70
 3099 06be 50030000 		.4byte	.LLST11
 3100 06c2 00       		.byte	0x0
 3101 06c3 1C       		.uleb128 0x1c
 3102 06c4 E0010000 		.4byte	.LBB11
 3103 06c8 E6010000 		.4byte	.LBE11
 3104 06cc E0060000 		.4byte	0x6e0
 3105 06d0 1B       		.uleb128 0x1b
 3106 06d1 746D7000 		.ascii	"tmp\000"
 3107 06d5 01       		.byte	0x1
 3108 06d6 78       		.byte	0x78
 3109 06d7 70000000 		.4byte	0x70
 3110 06db 63030000 		.4byte	.LLST12
 3111 06df 00       		.byte	0x0
 3112 06e0 1C       		.uleb128 0x1c
 3113 06e1 58030000 		.4byte	.LBB12
 3114 06e5 5E030000 		.4byte	.LBE12
 3115 06e9 FD060000 		.4byte	0x6fd
 3116 06ed 1B       		.uleb128 0x1b
 3117 06ee 746D7000 		.ascii	"tmp\000"
 3118 06f2 01       		.byte	0x1
 3119 06f3 93       		.byte	0x93
 3120 06f4 70000000 		.4byte	0x70
 3121 06f8 76030000 		.4byte	.LLST13
 3122 06fc 00       		.byte	0x0
 3123 06fd 1C       		.uleb128 0x1c
ARM GAS  C:\Users\DNIEL~1\AppData\Local\Temp\ccjO8mzD.s 			page 56


 3124 06fe 70030000 		.4byte	.LBB13
 3125 0702 76030000 		.4byte	.LBE13
 3126 0706 1A070000 		.4byte	0x71a
 3127 070a 1B       		.uleb128 0x1b
 3128 070b 746D7000 		.ascii	"tmp\000"
 3129 070f 01       		.byte	0x1
 3130 0710 95       		.byte	0x95
 3131 0711 70000000 		.4byte	0x70
 3132 0715 89030000 		.4byte	.LLST14
 3133 0719 00       		.byte	0x0
 3134 071a 1C       		.uleb128 0x1c
 3135 071b 90030000 		.4byte	.LBB14
 3136 071f 96030000 		.4byte	.LBE14
 3137 0723 37070000 		.4byte	0x737
 3138 0727 1B       		.uleb128 0x1b
 3139 0728 746D7000 		.ascii	"tmp\000"
 3140 072c 01       		.byte	0x1
 3141 072d 9B       		.byte	0x9b
 3142 072e 70000000 		.4byte	0x70
 3143 0732 9C030000 		.4byte	.LLST15
 3144 0736 00       		.byte	0x0
 3145 0737 1C       		.uleb128 0x1c
 3146 0738 B8030000 		.4byte	.LBB15
 3147 073c BE030000 		.4byte	.LBE15
 3148 0740 54070000 		.4byte	0x754
 3149 0744 1B       		.uleb128 0x1b
 3150 0745 746D7000 		.ascii	"tmp\000"
 3151 0749 01       		.byte	0x1
 3152 074a 9B       		.byte	0x9b
 3153 074b 70000000 		.4byte	0x70
 3154 074f AF030000 		.4byte	.LLST16
 3155 0753 00       		.byte	0x0
 3156 0754 1C       		.uleb128 0x1c
 3157 0755 BE030000 		.4byte	.LBB16
 3158 0759 C4030000 		.4byte	.LBE16
 3159 075d 71070000 		.4byte	0x771
 3160 0761 1B       		.uleb128 0x1b
 3161 0762 746D7000 		.ascii	"tmp\000"
 3162 0766 01       		.byte	0x1
 3163 0767 9C       		.byte	0x9c
 3164 0768 70000000 		.4byte	0x70
 3165 076c C2030000 		.4byte	.LLST17
 3166 0770 00       		.byte	0x0
 3167 0771 1C       		.uleb128 0x1c
 3168 0772 E4030000 		.4byte	.LBB17
 3169 0776 EA030000 		.4byte	.LBE17
 3170 077a 8E070000 		.4byte	0x78e
 3171 077e 1B       		.uleb128 0x1b
 3172 077f 746D7000 		.ascii	"tmp\000"
 3173 0783 01       		.byte	0x1
 3174 0784 9C       		.byte	0x9c
 3175 0785 70000000 		.4byte	0x70
 3176 0789 D5030000 		.4byte	.LLST18
 3177 078d 00       		.byte	0x0
 3178 078e 1C       		.uleb128 0x1c
 3179 078f EA030000 		.4byte	.LBB18
 3180 0793 F0030000 		.4byte	.LBE18
ARM GAS  C:\Users\DNIEL~1\AppData\Local\Temp\ccjO8mzD.s 			page 57


 3181 0797 AB070000 		.4byte	0x7ab
 3182 079b 1B       		.uleb128 0x1b
 3183 079c 746D7000 		.ascii	"tmp\000"
 3184 07a0 01       		.byte	0x1
 3185 07a1 9D       		.byte	0x9d
 3186 07a2 70000000 		.4byte	0x70
 3187 07a6 E8030000 		.4byte	.LLST19
 3188 07aa 00       		.byte	0x0
 3189 07ab 1C       		.uleb128 0x1c
 3190 07ac 14040000 		.4byte	.LBB19
 3191 07b0 1A040000 		.4byte	.LBE19
 3192 07b4 C8070000 		.4byte	0x7c8
 3193 07b8 1B       		.uleb128 0x1b
 3194 07b9 746D7000 		.ascii	"tmp\000"
 3195 07bd 01       		.byte	0x1
 3196 07be 9D       		.byte	0x9d
 3197 07bf 70000000 		.4byte	0x70
 3198 07c3 FB030000 		.4byte	.LLST20
 3199 07c7 00       		.byte	0x0
 3200 07c8 1C       		.uleb128 0x1c
 3201 07c9 1A040000 		.4byte	.LBB20
 3202 07cd 20040000 		.4byte	.LBE20
 3203 07d1 E5070000 		.4byte	0x7e5
 3204 07d5 1B       		.uleb128 0x1b
 3205 07d6 746D7000 		.ascii	"tmp\000"
 3206 07da 01       		.byte	0x1
 3207 07db A2       		.byte	0xa2
 3208 07dc 70000000 		.4byte	0x70
 3209 07e0 0E040000 		.4byte	.LLST21
 3210 07e4 00       		.byte	0x0
 3211 07e5 1C       		.uleb128 0x1c
 3212 07e6 A6040000 		.4byte	.LBB21
 3213 07ea AC040000 		.4byte	.LBE21
 3214 07ee 02080000 		.4byte	0x802
 3215 07f2 1B       		.uleb128 0x1b
 3216 07f3 746D7000 		.ascii	"tmp\000"
 3217 07f7 01       		.byte	0x1
 3218 07f8 AC       		.byte	0xac
 3219 07f9 70000000 		.4byte	0x70
 3220 07fd 21040000 		.4byte	.LLST22
 3221 0801 00       		.byte	0x0
 3222 0802 1C       		.uleb128 0x1c
 3223 0803 DC040000 		.4byte	.LBB22
 3224 0807 E2040000 		.4byte	.LBE22
 3225 080b 1F080000 		.4byte	0x81f
 3226 080f 1B       		.uleb128 0x1b
 3227 0810 746D7000 		.ascii	"tmp\000"
 3228 0814 01       		.byte	0x1
 3229 0815 B0       		.byte	0xb0
 3230 0816 70000000 		.4byte	0x70
 3231 081a 34040000 		.4byte	.LLST23
 3232 081e 00       		.byte	0x0
 3233 081f 1C       		.uleb128 0x1c
 3234 0820 F6040000 		.4byte	.LBB23
 3235 0824 FC040000 		.4byte	.LBE23
 3236 0828 3C080000 		.4byte	0x83c
 3237 082c 1B       		.uleb128 0x1b
ARM GAS  C:\Users\DNIEL~1\AppData\Local\Temp\ccjO8mzD.s 			page 58


 3238 082d 746D7000 		.ascii	"tmp\000"
 3239 0831 01       		.byte	0x1
 3240 0832 B2       		.byte	0xb2
 3241 0833 70000000 		.4byte	0x70
 3242 0837 47040000 		.4byte	.LLST24
 3243 083b 00       		.byte	0x0
 3244 083c 1C       		.uleb128 0x1c
 3245 083d 2E050000 		.4byte	.LBB24
 3246 0841 34050000 		.4byte	.LBE24
 3247 0845 59080000 		.4byte	0x859
 3248 0849 1B       		.uleb128 0x1b
 3249 084a 746D7000 		.ascii	"tmp\000"
 3250 084e 01       		.byte	0x1
 3251 084f B7       		.byte	0xb7
 3252 0850 70000000 		.4byte	0x70
 3253 0854 5A040000 		.4byte	.LLST25
 3254 0858 00       		.byte	0x0
 3255 0859 1C       		.uleb128 0x1c
 3256 085a 54050000 		.4byte	.LBB25
 3257 085e 5A050000 		.4byte	.LBE25
 3258 0862 76080000 		.4byte	0x876
 3259 0866 1B       		.uleb128 0x1b
 3260 0867 746D7000 		.ascii	"tmp\000"
 3261 086b 01       		.byte	0x1
 3262 086c B7       		.byte	0xb7
 3263 086d 70000000 		.4byte	0x70
 3264 0871 6D040000 		.4byte	.LLST26
 3265 0875 00       		.byte	0x0
 3266 0876 1C       		.uleb128 0x1c
 3267 0877 5A050000 		.4byte	.LBB26
 3268 087b 60050000 		.4byte	.LBE26
 3269 087f 93080000 		.4byte	0x893
 3270 0883 1B       		.uleb128 0x1b
 3271 0884 746D7000 		.ascii	"tmp\000"
 3272 0888 01       		.byte	0x1
 3273 0889 B8       		.byte	0xb8
 3274 088a 70000000 		.4byte	0x70
 3275 088e 80040000 		.4byte	.LLST27
 3276 0892 00       		.byte	0x0
 3277 0893 1C       		.uleb128 0x1c
 3278 0894 7E050000 		.4byte	.LBB27
 3279 0898 84050000 		.4byte	.LBE27
 3280 089c B0080000 		.4byte	0x8b0
 3281 08a0 1B       		.uleb128 0x1b
 3282 08a1 746D7000 		.ascii	"tmp\000"
 3283 08a5 01       		.byte	0x1
 3284 08a6 B8       		.byte	0xb8
 3285 08a7 70000000 		.4byte	0x70
 3286 08ab 93040000 		.4byte	.LLST28
 3287 08af 00       		.byte	0x0
 3288 08b0 1C       		.uleb128 0x1c
 3289 08b1 9E050000 		.4byte	.LBB28
 3290 08b5 A4050000 		.4byte	.LBE28
 3291 08b9 CD080000 		.4byte	0x8cd
 3292 08bd 1B       		.uleb128 0x1b
 3293 08be 746D7000 		.ascii	"tmp\000"
 3294 08c2 01       		.byte	0x1
ARM GAS  C:\Users\DNIEL~1\AppData\Local\Temp\ccjO8mzD.s 			page 59


 3295 08c3 BB       		.byte	0xbb
 3296 08c4 70000000 		.4byte	0x70
 3297 08c8 A6040000 		.4byte	.LLST29
 3298 08cc 00       		.byte	0x0
 3299 08cd 1C       		.uleb128 0x1c
 3300 08ce 34060000 		.4byte	.LBB29
 3301 08d2 3A060000 		.4byte	.LBE29
 3302 08d6 EA080000 		.4byte	0x8ea
 3303 08da 1B       		.uleb128 0x1b
 3304 08db 746D7000 		.ascii	"tmp\000"
 3305 08df 01       		.byte	0x1
 3306 08e0 C5       		.byte	0xc5
 3307 08e1 70000000 		.4byte	0x70
 3308 08e5 B9040000 		.4byte	.LLST30
 3309 08e9 00       		.byte	0x0
 3310 08ea 1C       		.uleb128 0x1c
 3311 08eb 70060000 		.4byte	.LBB30
 3312 08ef 76060000 		.4byte	.LBE30
 3313 08f3 07090000 		.4byte	0x907
 3314 08f7 1B       		.uleb128 0x1b
 3315 08f8 746D7000 		.ascii	"tmp\000"
 3316 08fc 01       		.byte	0x1
 3317 08fd C9       		.byte	0xc9
 3318 08fe 70000000 		.4byte	0x70
 3319 0902 CC040000 		.4byte	.LLST31
 3320 0906 00       		.byte	0x0
 3321 0907 1C       		.uleb128 0x1c
 3322 0908 8A060000 		.4byte	.LBB31
 3323 090c 90060000 		.4byte	.LBE31
 3324 0910 24090000 		.4byte	0x924
 3325 0914 1B       		.uleb128 0x1b
 3326 0915 746D7000 		.ascii	"tmp\000"
 3327 0919 01       		.byte	0x1
 3328 091a CB       		.byte	0xcb
 3329 091b 70000000 		.4byte	0x70
 3330 091f DF040000 		.4byte	.LLST32
 3331 0923 00       		.byte	0x0
 3332 0924 1C       		.uleb128 0x1c
 3333 0925 C0060000 		.4byte	.LBB32
 3334 0929 C6060000 		.4byte	.LBE32
 3335 092d 41090000 		.4byte	0x941
 3336 0931 1B       		.uleb128 0x1b
 3337 0932 746D7000 		.ascii	"tmp\000"
 3338 0936 01       		.byte	0x1
 3339 0937 D0       		.byte	0xd0
 3340 0938 70000000 		.4byte	0x70
 3341 093c F2040000 		.4byte	.LLST33
 3342 0940 00       		.byte	0x0
 3343 0941 1C       		.uleb128 0x1c
 3344 0942 E6060000 		.4byte	.LBB33
 3345 0946 EC060000 		.4byte	.LBE33
 3346 094a 5E090000 		.4byte	0x95e
 3347 094e 1B       		.uleb128 0x1b
 3348 094f 746D7000 		.ascii	"tmp\000"
 3349 0953 01       		.byte	0x1
 3350 0954 D0       		.byte	0xd0
 3351 0955 70000000 		.4byte	0x70
ARM GAS  C:\Users\DNIEL~1\AppData\Local\Temp\ccjO8mzD.s 			page 60


 3352 0959 05050000 		.4byte	.LLST34
 3353 095d 00       		.byte	0x0
 3354 095e 1C       		.uleb128 0x1c
 3355 095f EC060000 		.4byte	.LBB34
 3356 0963 F2060000 		.4byte	.LBE34
 3357 0967 7B090000 		.4byte	0x97b
 3358 096b 1B       		.uleb128 0x1b
 3359 096c 746D7000 		.ascii	"tmp\000"
 3360 0970 01       		.byte	0x1
 3361 0971 D1       		.byte	0xd1
 3362 0972 70000000 		.4byte	0x70
 3363 0976 18050000 		.4byte	.LLST35
 3364 097a 00       		.byte	0x0
 3365 097b 1C       		.uleb128 0x1c
 3366 097c 10070000 		.4byte	.LBB35
 3367 0980 16070000 		.4byte	.LBE35
 3368 0984 98090000 		.4byte	0x998
 3369 0988 1B       		.uleb128 0x1b
 3370 0989 746D7000 		.ascii	"tmp\000"
 3371 098d 01       		.byte	0x1
 3372 098e D1       		.byte	0xd1
 3373 098f 70000000 		.4byte	0x70
 3374 0993 2B050000 		.4byte	.LLST36
 3375 0997 00       		.byte	0x0
 3376 0998 1C       		.uleb128 0x1c
 3377 0999 38070000 		.4byte	.LBB36
 3378 099d 3E070000 		.4byte	.LBE36
 3379 09a1 B5090000 		.4byte	0x9b5
 3380 09a5 1B       		.uleb128 0x1b
 3381 09a6 746D7000 		.ascii	"tmp\000"
 3382 09aa 01       		.byte	0x1
 3383 09ab DC       		.byte	0xdc
 3384 09ac 70000000 		.4byte	0x70
 3385 09b0 3E050000 		.4byte	.LLST37
 3386 09b4 00       		.byte	0x0
 3387 09b5 1C       		.uleb128 0x1c
 3388 09b6 5E070000 		.4byte	.LBB37
 3389 09ba 64070000 		.4byte	.LBE37
 3390 09be D2090000 		.4byte	0x9d2
 3391 09c2 1B       		.uleb128 0x1b
 3392 09c3 746D7000 		.ascii	"tmp\000"
 3393 09c7 01       		.byte	0x1
 3394 09c8 DC       		.byte	0xdc
 3395 09c9 70000000 		.4byte	0x70
 3396 09cd 51050000 		.4byte	.LLST38
 3397 09d1 00       		.byte	0x0
 3398 09d2 1C       		.uleb128 0x1c
 3399 09d3 64070000 		.4byte	.LBB38
 3400 09d7 6A070000 		.4byte	.LBE38
 3401 09db EF090000 		.4byte	0x9ef
 3402 09df 1B       		.uleb128 0x1b
 3403 09e0 746D7000 		.ascii	"tmp\000"
 3404 09e4 01       		.byte	0x1
 3405 09e5 DD       		.byte	0xdd
 3406 09e6 70000000 		.4byte	0x70
 3407 09ea 64050000 		.4byte	.LLST39
 3408 09ee 00       		.byte	0x0
ARM GAS  C:\Users\DNIEL~1\AppData\Local\Temp\ccjO8mzD.s 			page 61


 3409 09ef 1C       		.uleb128 0x1c
 3410 09f0 86070000 		.4byte	.LBB39
 3411 09f4 8C070000 		.4byte	.LBE39
 3412 09f8 0C0A0000 		.4byte	0xa0c
 3413 09fc 1B       		.uleb128 0x1b
 3414 09fd 746D7000 		.ascii	"tmp\000"
 3415 0a01 01       		.byte	0x1
 3416 0a02 DD       		.byte	0xdd
 3417 0a03 70000000 		.4byte	0x70
 3418 0a07 77050000 		.4byte	.LLST40
 3419 0a0b 00       		.byte	0x0
 3420 0a0c 1C       		.uleb128 0x1c
 3421 0a0d 8C070000 		.4byte	.LBB40
 3422 0a11 92070000 		.4byte	.LBE40
 3423 0a15 290A0000 		.4byte	0xa29
 3424 0a19 1B       		.uleb128 0x1b
 3425 0a1a 746D7000 		.ascii	"tmp\000"
 3426 0a1e 01       		.byte	0x1
 3427 0a1f DE       		.byte	0xde
 3428 0a20 70000000 		.4byte	0x70
 3429 0a24 8A050000 		.4byte	.LLST41
 3430 0a28 00       		.byte	0x0
 3431 0a29 1C       		.uleb128 0x1c
 3432 0a2a B2070000 		.4byte	.LBB41
 3433 0a2e B8070000 		.4byte	.LBE41
 3434 0a32 460A0000 		.4byte	0xa46
 3435 0a36 1B       		.uleb128 0x1b
 3436 0a37 746D7000 		.ascii	"tmp\000"
 3437 0a3b 01       		.byte	0x1
 3438 0a3c DE       		.byte	0xde
 3439 0a3d 70000000 		.4byte	0x70
 3440 0a41 9D050000 		.4byte	.LLST42
 3441 0a45 00       		.byte	0x0
 3442 0a46 1C       		.uleb128 0x1c
 3443 0a47 B8070000 		.4byte	.LBB42
 3444 0a4b BE070000 		.4byte	.LBE42
 3445 0a4f 630A0000 		.4byte	0xa63
 3446 0a53 1B       		.uleb128 0x1b
 3447 0a54 746D7000 		.ascii	"tmp\000"
 3448 0a58 01       		.byte	0x1
 3449 0a59 DF       		.byte	0xdf
 3450 0a5a 70000000 		.4byte	0x70
 3451 0a5e B0050000 		.4byte	.LLST43
 3452 0a62 00       		.byte	0x0
 3453 0a63 1C       		.uleb128 0x1c
 3454 0a64 DA070000 		.4byte	.LBB43
 3455 0a68 E2070000 		.4byte	.LBE43
 3456 0a6c 800A0000 		.4byte	0xa80
 3457 0a70 1B       		.uleb128 0x1b
 3458 0a71 746D7000 		.ascii	"tmp\000"
 3459 0a75 01       		.byte	0x1
 3460 0a76 DF       		.byte	0xdf
 3461 0a77 70000000 		.4byte	0x70
 3462 0a7b C3050000 		.4byte	.LLST44
 3463 0a7f 00       		.byte	0x0
 3464 0a80 1C       		.uleb128 0x1c
 3465 0a81 E6070000 		.4byte	.LBB44
ARM GAS  C:\Users\DNIEL~1\AppData\Local\Temp\ccjO8mzD.s 			page 62


 3466 0a85 EC070000 		.4byte	.LBE44
 3467 0a89 9D0A0000 		.4byte	0xa9d
 3468 0a8d 1B       		.uleb128 0x1b
 3469 0a8e 746D7000 		.ascii	"tmp\000"
 3470 0a92 01       		.byte	0x1
 3471 0a93 76       		.byte	0x76
 3472 0a94 70000000 		.4byte	0x70
 3473 0a98 E1050000 		.4byte	.LLST45
 3474 0a9c 00       		.byte	0x0
 3475 0a9d 1C       		.uleb128 0x1c
 3476 0a9e F2070000 		.4byte	.LBB45
 3477 0aa2 F8070000 		.4byte	.LBE45
 3478 0aa6 BA0A0000 		.4byte	0xaba
 3479 0aaa 1B       		.uleb128 0x1b
 3480 0aab 746D7000 		.ascii	"tmp\000"
 3481 0aaf 01       		.byte	0x1
 3482 0ab0 77       		.byte	0x77
 3483 0ab1 70000000 		.4byte	0x70
 3484 0ab5 FF050000 		.4byte	.LLST46
 3485 0ab9 00       		.byte	0x0
 3486 0aba 1C       		.uleb128 0x1c
 3487 0abb FE070000 		.4byte	.LBB46
 3488 0abf 04080000 		.4byte	.LBE46
 3489 0ac3 D70A0000 		.4byte	0xad7
 3490 0ac7 1B       		.uleb128 0x1b
 3491 0ac8 746D7000 		.ascii	"tmp\000"
 3492 0acc 01       		.byte	0x1
 3493 0acd 78       		.byte	0x78
 3494 0ace 70000000 		.4byte	0x70
 3495 0ad2 1D060000 		.4byte	.LLST47
 3496 0ad6 00       		.byte	0x0
 3497 0ad7 1C       		.uleb128 0x1c
 3498 0ad8 0A080000 		.4byte	.LBB47
 3499 0adc 10080000 		.4byte	.LBE47
 3500 0ae0 F40A0000 		.4byte	0xaf4
 3501 0ae4 1B       		.uleb128 0x1b
 3502 0ae5 746D7000 		.ascii	"tmp\000"
 3503 0ae9 01       		.byte	0x1
 3504 0aea 9D       		.byte	0x9d
 3505 0aeb 70000000 		.4byte	0x70
 3506 0aef 3B060000 		.4byte	.LLST48
 3507 0af3 00       		.byte	0x0
 3508 0af4 1C       		.uleb128 0x1c
 3509 0af5 16080000 		.4byte	.LBB48
 3510 0af9 1C080000 		.4byte	.LBE48
 3511 0afd 110B0000 		.4byte	0xb11
 3512 0b01 1B       		.uleb128 0x1b
 3513 0b02 746D7000 		.ascii	"tmp\000"
 3514 0b06 01       		.byte	0x1
 3515 0b07 B8       		.byte	0xb8
 3516 0b08 70000000 		.4byte	0x70
 3517 0b0c 59060000 		.4byte	.LLST49
 3518 0b10 00       		.byte	0x0
 3519 0b11 1C       		.uleb128 0x1c
 3520 0b12 22080000 		.4byte	.LBB49
 3521 0b16 28080000 		.4byte	.LBE49
 3522 0b1a 2E0B0000 		.4byte	0xb2e
ARM GAS  C:\Users\DNIEL~1\AppData\Local\Temp\ccjO8mzD.s 			page 63


 3523 0b1e 1B       		.uleb128 0x1b
 3524 0b1f 746D7000 		.ascii	"tmp\000"
 3525 0b23 01       		.byte	0x1
 3526 0b24 9C       		.byte	0x9c
 3527 0b25 70000000 		.4byte	0x70
 3528 0b29 77060000 		.4byte	.LLST50
 3529 0b2d 00       		.byte	0x0
 3530 0b2e 1C       		.uleb128 0x1c
 3531 0b2f 2E080000 		.4byte	.LBB50
 3532 0b33 34080000 		.4byte	.LBE50
 3533 0b37 4B0B0000 		.4byte	0xb4b
 3534 0b3b 1B       		.uleb128 0x1b
 3535 0b3c 746D7000 		.ascii	"tmp\000"
 3536 0b40 01       		.byte	0x1
 3537 0b41 9B       		.byte	0x9b
 3538 0b42 70000000 		.4byte	0x70
 3539 0b46 95060000 		.4byte	.LLST51
 3540 0b4a 00       		.byte	0x0
 3541 0b4b 1C       		.uleb128 0x1c
 3542 0b4c 3A080000 		.4byte	.LBB51
 3543 0b50 40080000 		.4byte	.LBE51
 3544 0b54 680B0000 		.4byte	0xb68
 3545 0b58 1B       		.uleb128 0x1b
 3546 0b59 746D7000 		.ascii	"tmp\000"
 3547 0b5d 01       		.byte	0x1
 3548 0b5e B7       		.byte	0xb7
 3549 0b5f 70000000 		.4byte	0x70
 3550 0b63 B3060000 		.4byte	.LLST52
 3551 0b67 00       		.byte	0x0
 3552 0b68 1C       		.uleb128 0x1c
 3553 0b69 46080000 		.4byte	.LBB52
 3554 0b6d 4C080000 		.4byte	.LBE52
 3555 0b71 850B0000 		.4byte	0xb85
 3556 0b75 1B       		.uleb128 0x1b
 3557 0b76 746D7000 		.ascii	"tmp\000"
 3558 0b7a 01       		.byte	0x1
 3559 0b7b DE       		.byte	0xde
 3560 0b7c 70000000 		.4byte	0x70
 3561 0b80 D1060000 		.4byte	.LLST53
 3562 0b84 00       		.byte	0x0
 3563 0b85 1C       		.uleb128 0x1c
 3564 0b86 52080000 		.4byte	.LBB53
 3565 0b8a 58080000 		.4byte	.LBE53
 3566 0b8e A20B0000 		.4byte	0xba2
 3567 0b92 1B       		.uleb128 0x1b
 3568 0b93 746D7000 		.ascii	"tmp\000"
 3569 0b97 01       		.byte	0x1
 3570 0b98 DD       		.byte	0xdd
 3571 0b99 70000000 		.4byte	0x70
 3572 0b9d EF060000 		.4byte	.LLST54
 3573 0ba1 00       		.byte	0x0
 3574 0ba2 1C       		.uleb128 0x1c
 3575 0ba3 5E080000 		.4byte	.LBB54
 3576 0ba7 64080000 		.4byte	.LBE54
 3577 0bab BF0B0000 		.4byte	0xbbf
 3578 0baf 1B       		.uleb128 0x1b
 3579 0bb0 746D7000 		.ascii	"tmp\000"
ARM GAS  C:\Users\DNIEL~1\AppData\Local\Temp\ccjO8mzD.s 			page 64


 3580 0bb4 01       		.byte	0x1
 3581 0bb5 DC       		.byte	0xdc
 3582 0bb6 70000000 		.4byte	0x70
 3583 0bba 0D070000 		.4byte	.LLST55
 3584 0bbe 00       		.byte	0x0
 3585 0bbf 1C       		.uleb128 0x1c
 3586 0bc0 6A080000 		.4byte	.LBB55
 3587 0bc4 70080000 		.4byte	.LBE55
 3588 0bc8 DC0B0000 		.4byte	0xbdc
 3589 0bcc 1B       		.uleb128 0x1b
 3590 0bcd 746D7000 		.ascii	"tmp\000"
 3591 0bd1 01       		.byte	0x1
 3592 0bd2 D1       		.byte	0xd1
 3593 0bd3 70000000 		.4byte	0x70
 3594 0bd7 2B070000 		.4byte	.LLST56
 3595 0bdb 00       		.byte	0x0
 3596 0bdc 1D       		.uleb128 0x1d
 3597 0bdd 76080000 		.4byte	.LBB56
 3598 0be1 7C080000 		.4byte	.LBE56
 3599 0be5 1B       		.uleb128 0x1b
 3600 0be6 746D7000 		.ascii	"tmp\000"
 3601 0bea 01       		.byte	0x1
 3602 0beb D0       		.byte	0xd0
 3603 0bec 70000000 		.4byte	0x70
 3604 0bf0 49070000 		.4byte	.LLST57
 3605 0bf4 00       		.byte	0x0
 3606 0bf5 00       		.byte	0x0
 3607 0bf6 1E       		.uleb128 0x1e
 3608 0bf7 41010000 		.4byte	.LASF84
 3609 0bfb 01       		.byte	0x1
 3610 0bfc 4B       		.byte	0x4b
 3611 0bfd 01       		.byte	0x1
 3612 0bfe 00000000 		.4byte	.LFB7
 3613 0c02 14000000 		.4byte	.LFE7
 3614 0c06 02       		.byte	0x2
 3615 0c07 7D       		.byte	0x7d
 3616 0c08 00       		.sleb128 0
 3617 0c09 1F       		.uleb128 0x1f
 3618 0c0a 4A000000 		.4byte	.LASF75
 3619 0c0e 0A       		.byte	0xa
 3620 0c0f AA       		.byte	0xaa
 3621 0c10 4B050000 		.4byte	0x54b
 3622 0c14 01       		.byte	0x1
 3623 0c15 01       		.byte	0x1
 3624 0c16 20       		.uleb128 0x20
 3625 0c17 6D623100 		.ascii	"mb1\000"
 3626 0c1b 01       		.byte	0x1
 3627 0c1c 40       		.byte	0x40
 3628 0c1d 41040000 		.4byte	0x441
 3629 0c21 05       		.byte	0x5
 3630 0c22 03       		.byte	0x3
 3631 0c23 00000000 		.4byte	mb1
 3632 0c27 1F       		.uleb128 0x1f
 3633 0c28 6B010000 		.4byte	.LASF76
 3634 0c2c 01       		.byte	0x1
 3635 0c2d E2       		.byte	0xe2
 3636 0c2e 340C0000 		.4byte	0xc34
ARM GAS  C:\Users\DNIEL~1\AppData\Local\Temp\ccjO8mzD.s 			page 65


 3637 0c32 01       		.byte	0x1
 3638 0c33 01       		.byte	0x1
 3639 0c34 10       		.uleb128 0x10
 3640 0c35 9F040000 		.4byte	0x49f
 3641 0c39 1F       		.uleb128 0x1f
 3642 0c3a 4A000000 		.4byte	.LASF75
 3643 0c3e 0A       		.byte	0xa
 3644 0c3f AA       		.byte	0xaa
 3645 0c40 4B050000 		.4byte	0x54b
 3646 0c44 01       		.byte	0x1
 3647 0c45 01       		.byte	0x1
 3648 0c46 21       		.uleb128 0x21
 3649 0c47 6B010000 		.4byte	.LASF76
 3650 0c4b 01       		.byte	0x1
 3651 0c4c E2       		.byte	0xe2
 3652 0c4d 340C0000 		.4byte	0xc34
 3653 0c51 01       		.byte	0x1
 3654 0c52 05       		.byte	0x5
 3655 0c53 03       		.byte	0x3
 3656 0c54 00000000 		.4byte	testmbox1
 3657 0c58 13       		.uleb128 0x13
 3658 0c59 680C0000 		.4byte	0xc68
 3659 0c5d 680C0000 		.4byte	0xc68
 3660 0c61 14       		.uleb128 0x14
 3661 0c62 30000000 		.4byte	0x30
 3662 0c66 01       		.byte	0x1
 3663 0c67 00       		.byte	0x0
 3664 0c68 09       		.uleb128 0x9
 3665 0c69 04       		.byte	0x4
 3666 0c6a 340C0000 		.4byte	0xc34
 3667 0c6e 21       		.uleb128 0x21
 3668 0c6f 35000000 		.4byte	.LASF77
 3669 0c73 01       		.byte	0x1
 3670 0c74 EE       		.byte	0xee
 3671 0c75 800C0000 		.4byte	0xc80
 3672 0c79 01       		.byte	0x1
 3673 0c7a 05       		.byte	0x5
 3674 0c7b 03       		.byte	0x3
 3675 0c7c 00000000 		.4byte	patternmbox
 3676 0c80 10       		.uleb128 0x10
 3677 0c81 580C0000 		.4byte	0xc58
 3678 0c85 00       		.byte	0x0
 3679              		.section	.debug_abbrev
 3680 0000 01       		.uleb128 0x1
 3681 0001 11       		.uleb128 0x11
 3682 0002 01       		.byte	0x1
 3683 0003 25       		.uleb128 0x25
 3684 0004 0E       		.uleb128 0xe
 3685 0005 13       		.uleb128 0x13
 3686 0006 0B       		.uleb128 0xb
 3687 0007 03       		.uleb128 0x3
 3688 0008 0E       		.uleb128 0xe
 3689 0009 1B       		.uleb128 0x1b
 3690 000a 0E       		.uleb128 0xe
 3691 000b 11       		.uleb128 0x11
 3692 000c 01       		.uleb128 0x1
 3693 000d 52       		.uleb128 0x52
ARM GAS  C:\Users\DNIEL~1\AppData\Local\Temp\ccjO8mzD.s 			page 66


 3694 000e 01       		.uleb128 0x1
 3695 000f 55       		.uleb128 0x55
 3696 0010 06       		.uleb128 0x6
 3697 0011 10       		.uleb128 0x10
 3698 0012 06       		.uleb128 0x6
 3699 0013 00       		.byte	0x0
 3700 0014 00       		.byte	0x0
 3701 0015 02       		.uleb128 0x2
 3702 0016 24       		.uleb128 0x24
 3703 0017 00       		.byte	0x0
 3704 0018 0B       		.uleb128 0xb
 3705 0019 0B       		.uleb128 0xb
 3706 001a 3E       		.uleb128 0x3e
 3707 001b 0B       		.uleb128 0xb
 3708 001c 03       		.uleb128 0x3
 3709 001d 08       		.uleb128 0x8
 3710 001e 00       		.byte	0x0
 3711 001f 00       		.byte	0x0
 3712 0020 03       		.uleb128 0x3
 3713 0021 24       		.uleb128 0x24
 3714 0022 00       		.byte	0x0
 3715 0023 0B       		.uleb128 0xb
 3716 0024 0B       		.uleb128 0xb
 3717 0025 3E       		.uleb128 0x3e
 3718 0026 0B       		.uleb128 0xb
 3719 0027 03       		.uleb128 0x3
 3720 0028 0E       		.uleb128 0xe
 3721 0029 00       		.byte	0x0
 3722 002a 00       		.byte	0x0
 3723 002b 04       		.uleb128 0x4
 3724 002c 16       		.uleb128 0x16
 3725 002d 00       		.byte	0x0
 3726 002e 03       		.uleb128 0x3
 3727 002f 0E       		.uleb128 0xe
 3728 0030 3A       		.uleb128 0x3a
 3729 0031 0B       		.uleb128 0xb
 3730 0032 3B       		.uleb128 0x3b
 3731 0033 0B       		.uleb128 0xb
 3732 0034 49       		.uleb128 0x49
 3733 0035 13       		.uleb128 0x13
 3734 0036 00       		.byte	0x0
 3735 0037 00       		.byte	0x0
 3736 0038 05       		.uleb128 0x5
 3737 0039 13       		.uleb128 0x13
 3738 003a 01       		.byte	0x1
 3739 003b 03       		.uleb128 0x3
 3740 003c 0E       		.uleb128 0xe
 3741 003d 0B       		.uleb128 0xb
 3742 003e 0B       		.uleb128 0xb
 3743 003f 3A       		.uleb128 0x3a
 3744 0040 0B       		.uleb128 0xb
 3745 0041 3B       		.uleb128 0x3b
 3746 0042 0B       		.uleb128 0xb
 3747 0043 01       		.uleb128 0x1
 3748 0044 13       		.uleb128 0x13
 3749 0045 00       		.byte	0x0
 3750 0046 00       		.byte	0x0
ARM GAS  C:\Users\DNIEL~1\AppData\Local\Temp\ccjO8mzD.s 			page 67


 3751 0047 06       		.uleb128 0x6
 3752 0048 0D       		.uleb128 0xd
 3753 0049 00       		.byte	0x0
 3754 004a 03       		.uleb128 0x3
 3755 004b 0E       		.uleb128 0xe
 3756 004c 3A       		.uleb128 0x3a
 3757 004d 0B       		.uleb128 0xb
 3758 004e 3B       		.uleb128 0x3b
 3759 004f 0B       		.uleb128 0xb
 3760 0050 49       		.uleb128 0x49
 3761 0051 13       		.uleb128 0x13
 3762 0052 38       		.uleb128 0x38
 3763 0053 0A       		.uleb128 0xa
 3764 0054 00       		.byte	0x0
 3765 0055 00       		.byte	0x0
 3766 0056 07       		.uleb128 0x7
 3767 0057 0D       		.uleb128 0xd
 3768 0058 00       		.byte	0x0
 3769 0059 03       		.uleb128 0x3
 3770 005a 08       		.uleb128 0x8
 3771 005b 3A       		.uleb128 0x3a
 3772 005c 0B       		.uleb128 0xb
 3773 005d 3B       		.uleb128 0x3b
 3774 005e 0B       		.uleb128 0xb
 3775 005f 49       		.uleb128 0x49
 3776 0060 13       		.uleb128 0x13
 3777 0061 38       		.uleb128 0x38
 3778 0062 0A       		.uleb128 0xa
 3779 0063 00       		.byte	0x0
 3780 0064 00       		.byte	0x0
 3781 0065 08       		.uleb128 0x8
 3782 0066 13       		.uleb128 0x13
 3783 0067 01       		.byte	0x1
 3784 0068 0B       		.uleb128 0xb
 3785 0069 0B       		.uleb128 0xb
 3786 006a 3A       		.uleb128 0x3a
 3787 006b 0B       		.uleb128 0xb
 3788 006c 3B       		.uleb128 0x3b
 3789 006d 0B       		.uleb128 0xb
 3790 006e 01       		.uleb128 0x1
 3791 006f 13       		.uleb128 0x13
 3792 0070 00       		.byte	0x0
 3793 0071 00       		.byte	0x0
 3794 0072 09       		.uleb128 0x9
 3795 0073 0F       		.uleb128 0xf
 3796 0074 00       		.byte	0x0
 3797 0075 0B       		.uleb128 0xb
 3798 0076 0B       		.uleb128 0xb
 3799 0077 49       		.uleb128 0x49
 3800 0078 13       		.uleb128 0x13
 3801 0079 00       		.byte	0x0
 3802 007a 00       		.byte	0x0
 3803 007b 0A       		.uleb128 0xa
 3804 007c 0F       		.uleb128 0xf
 3805 007d 00       		.byte	0x0
 3806 007e 0B       		.uleb128 0xb
 3807 007f 0B       		.uleb128 0xb
ARM GAS  C:\Users\DNIEL~1\AppData\Local\Temp\ccjO8mzD.s 			page 68


 3808 0080 00       		.byte	0x0
 3809 0081 00       		.byte	0x0
 3810 0082 0B       		.uleb128 0xb
 3811 0083 13       		.uleb128 0x13
 3812 0084 01       		.byte	0x1
 3813 0085 03       		.uleb128 0x3
 3814 0086 0E       		.uleb128 0xe
 3815 0087 0B       		.uleb128 0xb
 3816 0088 0B       		.uleb128 0xb
 3817 0089 3A       		.uleb128 0x3a
 3818 008a 0B       		.uleb128 0xb
 3819 008b 3B       		.uleb128 0x3b
 3820 008c 05       		.uleb128 0x5
 3821 008d 01       		.uleb128 0x1
 3822 008e 13       		.uleb128 0x13
 3823 008f 00       		.byte	0x0
 3824 0090 00       		.byte	0x0
 3825 0091 0C       		.uleb128 0xc
 3826 0092 0D       		.uleb128 0xd
 3827 0093 00       		.byte	0x0
 3828 0094 03       		.uleb128 0x3
 3829 0095 08       		.uleb128 0x8
 3830 0096 3A       		.uleb128 0x3a
 3831 0097 0B       		.uleb128 0xb
 3832 0098 3B       		.uleb128 0x3b
 3833 0099 05       		.uleb128 0x5
 3834 009a 49       		.uleb128 0x49
 3835 009b 13       		.uleb128 0x13
 3836 009c 38       		.uleb128 0x38
 3837 009d 0A       		.uleb128 0xa
 3838 009e 00       		.byte	0x0
 3839 009f 00       		.byte	0x0
 3840 00a0 0D       		.uleb128 0xd
 3841 00a1 35       		.uleb128 0x35
 3842 00a2 00       		.byte	0x0
 3843 00a3 49       		.uleb128 0x49
 3844 00a4 13       		.uleb128 0x13
 3845 00a5 00       		.byte	0x0
 3846 00a6 00       		.byte	0x0
 3847 00a7 0E       		.uleb128 0xe
 3848 00a8 17       		.uleb128 0x17
 3849 00a9 01       		.byte	0x1
 3850 00aa 0B       		.uleb128 0xb
 3851 00ab 0B       		.uleb128 0xb
 3852 00ac 3A       		.uleb128 0x3a
 3853 00ad 0B       		.uleb128 0xb
 3854 00ae 3B       		.uleb128 0x3b
 3855 00af 0B       		.uleb128 0xb
 3856 00b0 01       		.uleb128 0x1
 3857 00b1 13       		.uleb128 0x13
 3858 00b2 00       		.byte	0x0
 3859 00b3 00       		.byte	0x0
 3860 00b4 0F       		.uleb128 0xf
 3861 00b5 0D       		.uleb128 0xd
 3862 00b6 00       		.byte	0x0
 3863 00b7 03       		.uleb128 0x3
 3864 00b8 0E       		.uleb128 0xe
ARM GAS  C:\Users\DNIEL~1\AppData\Local\Temp\ccjO8mzD.s 			page 69


 3865 00b9 3A       		.uleb128 0x3a
 3866 00ba 0B       		.uleb128 0xb
 3867 00bb 3B       		.uleb128 0x3b
 3868 00bc 0B       		.uleb128 0xb
 3869 00bd 49       		.uleb128 0x49
 3870 00be 13       		.uleb128 0x13
 3871 00bf 00       		.byte	0x0
 3872 00c0 00       		.byte	0x0
 3873 00c1 10       		.uleb128 0x10
 3874 00c2 26       		.uleb128 0x26
 3875 00c3 00       		.byte	0x0
 3876 00c4 49       		.uleb128 0x49
 3877 00c5 13       		.uleb128 0x13
 3878 00c6 00       		.byte	0x0
 3879 00c7 00       		.byte	0x0
 3880 00c8 11       		.uleb128 0x11
 3881 00c9 15       		.uleb128 0x15
 3882 00ca 00       		.byte	0x0
 3883 00cb 27       		.uleb128 0x27
 3884 00cc 0C       		.uleb128 0xc
 3885 00cd 00       		.byte	0x0
 3886 00ce 00       		.byte	0x0
 3887 00cf 12       		.uleb128 0x12
 3888 00d0 13       		.uleb128 0x13
 3889 00d1 01       		.byte	0x1
 3890 00d2 0B       		.uleb128 0xb
 3891 00d3 05       		.uleb128 0x5
 3892 00d4 3A       		.uleb128 0x3a
 3893 00d5 0B       		.uleb128 0xb
 3894 00d6 3B       		.uleb128 0x3b
 3895 00d7 0B       		.uleb128 0xb
 3896 00d8 01       		.uleb128 0x1
 3897 00d9 13       		.uleb128 0x13
 3898 00da 00       		.byte	0x0
 3899 00db 00       		.byte	0x0
 3900 00dc 13       		.uleb128 0x13
 3901 00dd 01       		.uleb128 0x1
 3902 00de 01       		.byte	0x1
 3903 00df 49       		.uleb128 0x49
 3904 00e0 13       		.uleb128 0x13
 3905 00e1 01       		.uleb128 0x1
 3906 00e2 13       		.uleb128 0x13
 3907 00e3 00       		.byte	0x0
 3908 00e4 00       		.byte	0x0
 3909 00e5 14       		.uleb128 0x14
 3910 00e6 21       		.uleb128 0x21
 3911 00e7 00       		.byte	0x0
 3912 00e8 49       		.uleb128 0x49
 3913 00e9 13       		.uleb128 0x13
 3914 00ea 2F       		.uleb128 0x2f
 3915 00eb 0B       		.uleb128 0xb
 3916 00ec 00       		.byte	0x0
 3917 00ed 00       		.byte	0x0
 3918 00ee 15       		.uleb128 0x15
 3919 00ef 17       		.uleb128 0x17
 3920 00f0 01       		.byte	0x1
 3921 00f1 03       		.uleb128 0x3
ARM GAS  C:\Users\DNIEL~1\AppData\Local\Temp\ccjO8mzD.s 			page 70


 3922 00f2 0E       		.uleb128 0xe
 3923 00f3 0B       		.uleb128 0xb
 3924 00f4 05       		.uleb128 0x5
 3925 00f5 3A       		.uleb128 0x3a
 3926 00f6 0B       		.uleb128 0xb
 3927 00f7 3B       		.uleb128 0x3b
 3928 00f8 0B       		.uleb128 0xb
 3929 00f9 01       		.uleb128 0x1
 3930 00fa 13       		.uleb128 0x13
 3931 00fb 00       		.byte	0x0
 3932 00fc 00       		.byte	0x0
 3933 00fd 16       		.uleb128 0x16
 3934 00fe 0D       		.uleb128 0xd
 3935 00ff 00       		.byte	0x0
 3936 0100 03       		.uleb128 0x3
 3937 0101 08       		.uleb128 0x8
 3938 0102 3A       		.uleb128 0x3a
 3939 0103 0B       		.uleb128 0xb
 3940 0104 3B       		.uleb128 0x3b
 3941 0105 0B       		.uleb128 0xb
 3942 0106 49       		.uleb128 0x49
 3943 0107 13       		.uleb128 0x13
 3944 0108 00       		.byte	0x0
 3945 0109 00       		.byte	0x0
 3946 010a 17       		.uleb128 0x17
 3947 010b 21       		.uleb128 0x21
 3948 010c 00       		.byte	0x0
 3949 010d 49       		.uleb128 0x49
 3950 010e 13       		.uleb128 0x13
 3951 010f 2F       		.uleb128 0x2f
 3952 0110 05       		.uleb128 0x5
 3953 0111 00       		.byte	0x0
 3954 0112 00       		.byte	0x0
 3955 0113 18       		.uleb128 0x18
 3956 0114 2E       		.uleb128 0x2e
 3957 0115 01       		.byte	0x1
 3958 0116 03       		.uleb128 0x3
 3959 0117 0E       		.uleb128 0xe
 3960 0118 3A       		.uleb128 0x3a
 3961 0119 0B       		.uleb128 0xb
 3962 011a 3B       		.uleb128 0x3b
 3963 011b 0B       		.uleb128 0xb
 3964 011c 27       		.uleb128 0x27
 3965 011d 0C       		.uleb128 0xc
 3966 011e 11       		.uleb128 0x11
 3967 011f 01       		.uleb128 0x1
 3968 0120 12       		.uleb128 0x12
 3969 0121 01       		.uleb128 0x1
 3970 0122 40       		.uleb128 0x40
 3971 0123 06       		.uleb128 0x6
 3972 0124 01       		.uleb128 0x1
 3973 0125 13       		.uleb128 0x13
 3974 0126 00       		.byte	0x0
 3975 0127 00       		.byte	0x0
 3976 0128 19       		.uleb128 0x19
 3977 0129 34       		.uleb128 0x34
 3978 012a 00       		.byte	0x0
ARM GAS  C:\Users\DNIEL~1\AppData\Local\Temp\ccjO8mzD.s 			page 71


 3979 012b 03       		.uleb128 0x3
 3980 012c 0E       		.uleb128 0xe
 3981 012d 3A       		.uleb128 0x3a
 3982 012e 0B       		.uleb128 0xb
 3983 012f 3B       		.uleb128 0x3b
 3984 0130 0B       		.uleb128 0xb
 3985 0131 49       		.uleb128 0x49
 3986 0132 13       		.uleb128 0x13
 3987 0133 02       		.uleb128 0x2
 3988 0134 06       		.uleb128 0x6
 3989 0135 00       		.byte	0x0
 3990 0136 00       		.byte	0x0
 3991 0137 1A       		.uleb128 0x1a
 3992 0138 34       		.uleb128 0x34
 3993 0139 00       		.byte	0x0
 3994 013a 03       		.uleb128 0x3
 3995 013b 0E       		.uleb128 0xe
 3996 013c 3A       		.uleb128 0x3a
 3997 013d 0B       		.uleb128 0xb
 3998 013e 3B       		.uleb128 0x3b
 3999 013f 0B       		.uleb128 0xb
 4000 0140 49       		.uleb128 0x49
 4001 0141 13       		.uleb128 0x13
 4002 0142 00       		.byte	0x0
 4003 0143 00       		.byte	0x0
 4004 0144 1B       		.uleb128 0x1b
 4005 0145 34       		.uleb128 0x34
 4006 0146 00       		.byte	0x0
 4007 0147 03       		.uleb128 0x3
 4008 0148 08       		.uleb128 0x8
 4009 0149 3A       		.uleb128 0x3a
 4010 014a 0B       		.uleb128 0xb
 4011 014b 3B       		.uleb128 0x3b
 4012 014c 0B       		.uleb128 0xb
 4013 014d 49       		.uleb128 0x49
 4014 014e 13       		.uleb128 0x13
 4015 014f 02       		.uleb128 0x2
 4016 0150 06       		.uleb128 0x6
 4017 0151 00       		.byte	0x0
 4018 0152 00       		.byte	0x0
 4019 0153 1C       		.uleb128 0x1c
 4020 0154 0B       		.uleb128 0xb
 4021 0155 01       		.byte	0x1
 4022 0156 11       		.uleb128 0x11
 4023 0157 01       		.uleb128 0x1
 4024 0158 12       		.uleb128 0x12
 4025 0159 01       		.uleb128 0x1
 4026 015a 01       		.uleb128 0x1
 4027 015b 13       		.uleb128 0x13
 4028 015c 00       		.byte	0x0
 4029 015d 00       		.byte	0x0
 4030 015e 1D       		.uleb128 0x1d
 4031 015f 0B       		.uleb128 0xb
 4032 0160 01       		.byte	0x1
 4033 0161 11       		.uleb128 0x11
 4034 0162 01       		.uleb128 0x1
 4035 0163 12       		.uleb128 0x12
ARM GAS  C:\Users\DNIEL~1\AppData\Local\Temp\ccjO8mzD.s 			page 72


 4036 0164 01       		.uleb128 0x1
 4037 0165 00       		.byte	0x0
 4038 0166 00       		.byte	0x0
 4039 0167 1E       		.uleb128 0x1e
 4040 0168 2E       		.uleb128 0x2e
 4041 0169 00       		.byte	0x0
 4042 016a 03       		.uleb128 0x3
 4043 016b 0E       		.uleb128 0xe
 4044 016c 3A       		.uleb128 0x3a
 4045 016d 0B       		.uleb128 0xb
 4046 016e 3B       		.uleb128 0x3b
 4047 016f 0B       		.uleb128 0xb
 4048 0170 27       		.uleb128 0x27
 4049 0171 0C       		.uleb128 0xc
 4050 0172 11       		.uleb128 0x11
 4051 0173 01       		.uleb128 0x1
 4052 0174 12       		.uleb128 0x12
 4053 0175 01       		.uleb128 0x1
 4054 0176 40       		.uleb128 0x40
 4055 0177 0A       		.uleb128 0xa
 4056 0178 00       		.byte	0x0
 4057 0179 00       		.byte	0x0
 4058 017a 1F       		.uleb128 0x1f
 4059 017b 34       		.uleb128 0x34
 4060 017c 00       		.byte	0x0
 4061 017d 03       		.uleb128 0x3
 4062 017e 0E       		.uleb128 0xe
 4063 017f 3A       		.uleb128 0x3a
 4064 0180 0B       		.uleb128 0xb
 4065 0181 3B       		.uleb128 0x3b
 4066 0182 0B       		.uleb128 0xb
 4067 0183 49       		.uleb128 0x49
 4068 0184 13       		.uleb128 0x13
 4069 0185 3F       		.uleb128 0x3f
 4070 0186 0C       		.uleb128 0xc
 4071 0187 3C       		.uleb128 0x3c
 4072 0188 0C       		.uleb128 0xc
 4073 0189 00       		.byte	0x0
 4074 018a 00       		.byte	0x0
 4075 018b 20       		.uleb128 0x20
 4076 018c 34       		.uleb128 0x34
 4077 018d 00       		.byte	0x0
 4078 018e 03       		.uleb128 0x3
 4079 018f 08       		.uleb128 0x8
 4080 0190 3A       		.uleb128 0x3a
 4081 0191 0B       		.uleb128 0xb
 4082 0192 3B       		.uleb128 0x3b
 4083 0193 0B       		.uleb128 0xb
 4084 0194 49       		.uleb128 0x49
 4085 0195 13       		.uleb128 0x13
 4086 0196 02       		.uleb128 0x2
 4087 0197 0A       		.uleb128 0xa
 4088 0198 00       		.byte	0x0
 4089 0199 00       		.byte	0x0
 4090 019a 21       		.uleb128 0x21
 4091 019b 34       		.uleb128 0x34
 4092 019c 00       		.byte	0x0
ARM GAS  C:\Users\DNIEL~1\AppData\Local\Temp\ccjO8mzD.s 			page 73


 4093 019d 03       		.uleb128 0x3
 4094 019e 0E       		.uleb128 0xe
 4095 019f 3A       		.uleb128 0x3a
 4096 01a0 0B       		.uleb128 0xb
 4097 01a1 3B       		.uleb128 0x3b
 4098 01a2 0B       		.uleb128 0xb
 4099 01a3 49       		.uleb128 0x49
 4100 01a4 13       		.uleb128 0x13
 4101 01a5 3F       		.uleb128 0x3f
 4102 01a6 0C       		.uleb128 0xc
 4103 01a7 02       		.uleb128 0x2
 4104 01a8 0A       		.uleb128 0xa
 4105 01a9 00       		.byte	0x0
 4106 01aa 00       		.byte	0x0
 4107 01ab 00       		.byte	0x0
 4108              		.section	.debug_pubnames,"",%progbits
 4109 0000 2C000000 		.4byte	0x2c
 4110 0004 0200     		.2byte	0x2
 4111 0006 00000000 		.4byte	.Ldebug_info0
 4112 000a 860C0000 		.4byte	0xc86
 4113 000e 460C0000 		.4byte	0xc46
 4114 0012 74657374 		.ascii	"testmbox1\000"
 4114      6D626F78 
 4114      3100
 4115 001c 6E0C0000 		.4byte	0xc6e
 4116 0020 70617474 		.ascii	"patternmbox\000"
 4116      65726E6D 
 4116      626F7800 
 4117 002c 00000000 		.4byte	0x0
 4118              		.section	.debug_pubtypes,"",%progbits
 4119 0000 75010000 		.4byte	0x175
 4120 0004 0200     		.2byte	0x2
 4121 0006 00000000 		.4byte	.Ldebug_info0
 4122 000a 860C0000 		.4byte	0xc86
 4123 000e 3E000000 		.4byte	0x3e
 4124 0012 75696E74 		.ascii	"uint8_t\000"
 4124      385F7400 
 4125 001a 5E000000 		.4byte	0x5e
 4126 001e 696E7433 		.ascii	"int32_t\000"
 4126      325F7400 
 4127 0026 70000000 		.4byte	0x70
 4128 002a 75696E74 		.ascii	"uint32_t\000"
 4128      33325F74 
 4128      00
 4129 0033 89000000 		.4byte	0x89
 4130 0037 75696E74 		.ascii	"uint64_t\000"
 4130      36345F74 
 4130      00
 4131 0040 9B000000 		.4byte	0x9b
 4132 0044 746D6F64 		.ascii	"tmode_t\000"
 4132      655F7400 
 4133 004c A6000000 		.4byte	0xa6
 4134 0050 74737461 		.ascii	"tstate_t\000"
 4134      74655F74 
 4134      00
 4135 0059 B1000000 		.4byte	0xb1
 4136 005d 74726566 		.ascii	"trefs_t\000"
ARM GAS  C:\Users\DNIEL~1\AppData\Local\Temp\ccjO8mzD.s 			page 74


 4136      735F7400 
 4137 0065 BC000000 		.4byte	0xbc
 4138 0069 74736C69 		.ascii	"tslices_t\000"
 4138      6365735F 
 4138      7400
 4139 0073 C7000000 		.4byte	0xc7
 4140 0077 74707269 		.ascii	"tprio_t\000"
 4140      6F5F7400 
 4141 007f D2000000 		.4byte	0xd2
 4142 0083 6D73675F 		.ascii	"msg_t\000"
 4142      7400
 4143 0089 DD000000 		.4byte	0xdd
 4144 008d 6576656E 		.ascii	"eventmask_t\000"
 4144      746D6173 
 4144      6B5F7400 
 4145 0099 E8000000 		.4byte	0xe8
 4146 009d 73797374 		.ascii	"systime_t\000"
 4146      696D655F 
 4146      7400
 4147 00a7 F3000000 		.4byte	0xf3
 4148 00ab 636E745F 		.ascii	"cnt_t\000"
 4148      7400
 4149 00b1 FE000000 		.4byte	0xfe
 4150 00b5 54687265 		.ascii	"Thread\000"
 4150      616400
 4151 00bc 67020000 		.4byte	0x267
 4152 00c0 54687265 		.ascii	"ThreadsQueue\000"
 4152      61647351 
 4152      75657565 
 4152      00
 4153 00cd 89020000 		.4byte	0x289
 4154 00d1 54687265 		.ascii	"ThreadsList\000"
 4154      6164734C 
 4154      69737400 
 4155 00dd 94020000 		.4byte	0x294
 4156 00e1 72656761 		.ascii	"regarm_t\000"
 4156      726D5F74 
 4156      00
 4157 00ea A1020000 		.4byte	0x2a1
 4158 00ee 73746B61 		.ascii	"stkalign_t\000"
 4158      6C69676E 
 4158      5F7400
 4159 00f9 AC020000 		.4byte	0x2ac
 4160 00fd 696E7463 		.ascii	"intctx\000"
 4160      747800
 4161 0104 3A030000 		.4byte	0x33a
 4162 0108 636F6E74 		.ascii	"context\000"
 4162      65787400 
 4163 0110 62030000 		.4byte	0x362
 4164 0114 53656D61 		.ascii	"Semaphore\000"
 4164      70686F72 
 4164      6500
 4165 011e 8B030000 		.4byte	0x38b
 4166 0122 53656D61 		.ascii	"Semaphore\000"
 4166      70686F72 
 4166      6500
 4167 012c 96030000 		.4byte	0x396
ARM GAS  C:\Users\DNIEL~1\AppData\Local\Temp\ccjO8mzD.s 			page 75


 4168 0130 4D757465 		.ascii	"Mutex\000"
 4168      7800
 4169 0136 D3030000 		.4byte	0x3d3
 4170 013a 4D757465 		.ascii	"Mutex\000"
 4170      7800
 4171 0140 41040000 		.4byte	0x441
 4172 0144 4D61696C 		.ascii	"Mailbox\000"
 4172      626F7800 
 4173 014c 09010000 		.4byte	0x109
 4174 0150 54687265 		.ascii	"Thread\000"
 4174      616400
 4175 0157 9F040000 		.4byte	0x49f
 4176 015b 74657374 		.ascii	"testcase\000"
 4176      63617365 
 4176      00
 4177 0164 4B050000 		.4byte	0x54b
 4178 0168 74657374 		.ascii	"test_buffers\000"
 4178      5F627566 
 4178      66657273 
 4178      00
 4179 0175 00000000 		.4byte	0x0
 4180              		.section	.debug_aranges,"",%progbits
 4181 0000 24000000 		.4byte	0x24
 4182 0004 0200     		.2byte	0x2
 4183 0006 00000000 		.4byte	.Ldebug_info0
 4184 000a 04       		.byte	0x4
 4185 000b 00       		.byte	0x0
 4186 000c 0000     		.2byte	0x0
 4187 000e 0000     		.2byte	0x0
 4188 0010 00000000 		.4byte	.LFB8
 4189 0014 88080000 		.4byte	.LFE8-.LFB8
 4190 0018 00000000 		.4byte	.LFB7
 4191 001c 14000000 		.4byte	.LFE7-.LFB7
 4192 0020 00000000 		.4byte	0x0
 4193 0024 00000000 		.4byte	0x0
 4194              		.section	.debug_ranges,"",%progbits
 4195              	.Ldebug_ranges0:
 4196 0000 00000000 		.4byte	.LFB8
 4197 0004 88080000 		.4byte	.LFE8
 4198 0008 00000000 		.4byte	.LFB7
 4199 000c 14000000 		.4byte	.LFE7
 4200 0010 00000000 		.4byte	0x0
 4201 0014 00000000 		.4byte	0x0
 4202              		.section	.debug_str,"MS",%progbits,1
 4203              	.LASF38:
 4204 0000 705F6D73 		.ascii	"p_msg\000"
 4204      6700
 4205              	.LASF63:
 4206 0006 7264796D 		.ascii	"rdymsg\000"
 4206      736700
 4207              	.LASF11:
 4208 000d 75696E74 		.ascii	"uint64_t\000"
 4208      36345F74 
 4208      00
 4209              	.LASF62:
 4210 0016 4D61696C 		.ascii	"Mailbox\000"
 4210      626F7800 
ARM GAS  C:\Users\DNIEL~1\AppData\Local\Temp\ccjO8mzD.s 			page 76


 4211              	.LASF12:
 4212 001e 6C6F6E67 		.ascii	"long long unsigned int\000"
 4212      206C6F6E 
 4212      6720756E 
 4212      7369676E 
 4212      65642069 
 4213              	.LASF77:
 4214 0035 70617474 		.ascii	"patternmbox\000"
 4214      65726E6D 
 4214      626F7800 
 4215              	.LASF64:
 4216 0041 65786974 		.ascii	"exitcode\000"
 4216      636F6465 
 4216      00
 4217              	.LASF75:
 4218 004a 74657374 		.ascii	"test\000"
 4218      00
 4219              	.LASF58:
 4220 004f 6D625F77 		.ascii	"mb_wrptr\000"
 4220      72707472 
 4220      00
 4221              	.LASF25:
 4222 0058 705F7072 		.ascii	"p_prio\000"
 4222      696F00
 4223              	.LASF10:
 4224 005f 6C6F6E67 		.ascii	"long long int\000"
 4224      206C6F6E 
 4224      6720696E 
 4224      7400
 4225              	.LASF1:
 4226 006d 7369676E 		.ascii	"signed char\000"
 4226      65642063 
 4226      68617200 
 4227              	.LASF42:
 4228 0079 705F6D70 		.ascii	"p_mpool\000"
 4228      6F6F6C00 
 4229              	.LASF53:
 4230 0081 6D5F7175 		.ascii	"m_queue\000"
 4230      65756500 
 4231              	.LASF16:
 4232 0089 74736C69 		.ascii	"tslices_t\000"
 4232      6365735F 
 4232      7400
 4233              	.LASF7:
 4234 0093 6C6F6E67 		.ascii	"long int\000"
 4234      20696E74 
 4234      00
 4235              	.LASF14:
 4236 009c 74737461 		.ascii	"tstate_t\000"
 4236      74655F74 
 4236      00
 4237              	.LASF27:
 4238 00a5 705F6E65 		.ascii	"p_newer\000"
 4238      77657200 
 4239              	.LASF50:
 4240 00ad 735F7175 		.ascii	"s_queue\000"
 4240      65756500 
ARM GAS  C:\Users\DNIEL~1\AppData\Local\Temp\ccjO8mzD.s 			page 77


 4241              	.LASF45:
 4242 00b5 72656761 		.ascii	"regarm_t\000"
 4242      726D5F74 
 4242      00
 4243              	.LASF21:
 4244 00be 636E745F 		.ascii	"cnt_t\000"
 4244      7400
 4245              	.LASF30:
 4246 00c4 705F7374 		.ascii	"p_stklimit\000"
 4246      6B6C696D 
 4246      697400
 4247              	.LASF0:
 4248 00cf 756E7369 		.ascii	"unsigned int\000"
 4248      676E6564 
 4248      20696E74 
 4248      00
 4249              	.LASF74:
 4250 00dc 6D736731 		.ascii	"msg1\000"
 4250      00
 4251              	.LASF83:
 4252 00e1 6D736732 		.ascii	"msg2\000"
 4252      00
 4253              	.LASF9:
 4254 00e6 6C6F6E67 		.ascii	"long unsigned int\000"
 4254      20756E73 
 4254      69676E65 
 4254      6420696E 
 4254      7400
 4255              	.LASF71:
 4256 00f8 74656172 		.ascii	"teardown\000"
 4256      646F776E 
 4256      00
 4257              	.LASF61:
 4258 0101 6D625F65 		.ascii	"mb_emptysem\000"
 4258      6D707479 
 4258      73656D00 
 4259              	.LASF69:
 4260 010d 6E616D65 		.ascii	"name\000"
 4260      00
 4261              	.LASF51:
 4262 0112 735F636E 		.ascii	"s_cnt\000"
 4262      7400
 4263              	.LASF48:
 4264 0118 636F6E74 		.ascii	"context\000"
 4264      65787400 
 4265              	.LASF4:
 4266 0120 73686F72 		.ascii	"short unsigned int\000"
 4266      7420756E 
 4266      7369676E 
 4266      65642069 
 4266      6E7400
 4267              	.LASF18:
 4268 0133 6D73675F 		.ascii	"msg_t\000"
 4268      7400
 4269              	.LASF13:
 4270 0139 746D6F64 		.ascii	"tmode_t\000"
 4270      655F7400 
ARM GAS  C:\Users\DNIEL~1\AppData\Local\Temp\ccjO8mzD.s 			page 78


 4271              	.LASF84:
 4272 0141 6D626F78 		.ascii	"mbox1_setup\000"
 4272      315F7365 
 4272      74757000 
 4273              	.LASF44:
 4274 014d 54687265 		.ascii	"ThreadsList\000"
 4274      6164734C 
 4274      69737400 
 4275              	.LASF19:
 4276 0159 6576656E 		.ascii	"eventmask_t\000"
 4276      746D6173 
 4276      6B5F7400 
 4277              	.LASF52:
 4278 0165 4D757465 		.ascii	"Mutex\000"
 4278      7800
 4279              	.LASF76:
 4280 016b 74657374 		.ascii	"testmbox1\000"
 4280      6D626F78 
 4280      3100
 4281              	.LASF46:
 4282 0175 73746B61 		.ascii	"stkalign_t\000"
 4282      6C69676E 
 4282      5F7400
 4283              	.LASF59:
 4284 0180 6D625F72 		.ascii	"mb_rdptr\000"
 4284      64707472 
 4284      00
 4285              	.LASF28:
 4286 0189 705F6F6C 		.ascii	"p_older\000"
 4286      64657200 
 4287              	.LASF43:
 4288 0191 54687265 		.ascii	"ThreadsQueue\000"
 4288      61647351 
 4288      75657565 
 4288      00
 4289              	.LASF70:
 4290 019e 73657475 		.ascii	"setup\000"
 4290      7000
 4291              	.LASF56:
 4292 01a4 6D625F62 		.ascii	"mb_buffer\000"
 4292      75666665 
 4292      7200
 4293              	.LASF82:
 4294 01ae 6D626F78 		.ascii	"mbox1_execute\000"
 4294      315F6578 
 4294      65637574 
 4294      6500
 4295              	.LASF80:
 4296 01bc 433A5C55 		.ascii	"C:\\Users\\D\341niel\\Dropbox\\Solar Racing\\Szoftv"
 4296      73657273 
 4296      5C44E16E 
 4296      69656C5C 
 4296      44726F70 
 4297 01e7 65725C4D 		.ascii	"er\\Modulux\\Modulux_v0\\modulux\\firmware\000"
 4297      6F64756C 
 4297      75785C4D 
 4297      6F64756C 
ARM GAS  C:\Users\DNIEL~1\AppData\Local\Temp\ccjO8mzD.s 			page 79


 4297      75785F76 
 4298              	.LASF15:
 4299 020e 74726566 		.ascii	"trefs_t\000"
 4299      735F7400 
 4300              	.LASF24:
 4301 0216 705F7072 		.ascii	"p_prev\000"
 4301      657600
 4302              	.LASF72:
 4303 021d 65786563 		.ascii	"execute\000"
 4303      75746500 
 4304              	.LASF17:
 4305 0225 74707269 		.ascii	"tprio_t\000"
 4305      6F5F7400 
 4306              	.LASF79:
 4307 022d 2E2E2F2E 		.ascii	"../../../ChibiOS/test/testmbox.c\000"
 4307      2E2F2E2E 
 4307      2F436869 
 4307      62694F53 
 4307      2F746573 
 4308              	.LASF6:
 4309 024e 696E7433 		.ascii	"int32_t\000"
 4309      325F7400 
 4310              	.LASF2:
 4311 0256 756E7369 		.ascii	"unsigned char\000"
 4311      676E6564 
 4311      20636861 
 4311      7200
 4312              	.LASF57:
 4313 0264 6D625F74 		.ascii	"mb_top\000"
 4313      6F7000
 4314              	.LASF40:
 4315 026b 705F6D74 		.ascii	"p_mtxlist\000"
 4315      786C6973 
 4315      7400
 4316              	.LASF3:
 4317 0275 73686F72 		.ascii	"short int\000"
 4317      7420696E 
 4317      7400
 4318              	.LASF31:
 4319 027f 705F7374 		.ascii	"p_state\000"
 4319      61746500 
 4320              	.LASF34:
 4321 0287 705F7072 		.ascii	"p_preempt\000"
 4321      65656D70 
 4321      7400
 4322              	.LASF66:
 4323 0291 65776D61 		.ascii	"ewmask\000"
 4323      736B00
 4324              	.LASF23:
 4325 0298 705F6E65 		.ascii	"p_next\000"
 4325      787400
 4326              	.LASF32:
 4327 029f 705F666C 		.ascii	"p_flags\000"
 4327      61677300 
 4328              	.LASF22:
 4329 02a7 54687265 		.ascii	"Thread\000"
 4329      616400
ARM GAS  C:\Users\DNIEL~1\AppData\Local\Temp\ccjO8mzD.s 			page 80


 4330              	.LASF68:
 4331 02ae 74657374 		.ascii	"testcase\000"
 4331      63617365 
 4331      00
 4332              	.LASF39:
 4333 02b7 705F6570 		.ascii	"p_epending\000"
 4333      656E6469 
 4333      6E6700
 4334              	.LASF8:
 4335 02c2 75696E74 		.ascii	"uint32_t\000"
 4335      33325F74 
 4335      00
 4336              	.LASF67:
 4337 02cb 63686172 		.ascii	"char\000"
 4337      00
 4338              	.LASF55:
 4339 02d0 6D5F6E65 		.ascii	"m_next\000"
 4339      787400
 4340              	.LASF20:
 4341 02d7 73797374 		.ascii	"systime_t\000"
 4341      696D655F 
 4341      7400
 4342              	.LASF41:
 4343 02e1 705F7265 		.ascii	"p_realprio\000"
 4343      616C7072 
 4343      696F00
 4344              	.LASF73:
 4345 02ec 62756666 		.ascii	"buffer\000"
 4345      657200
 4346              	.LASF35:
 4347 02f3 705F7469 		.ascii	"p_time\000"
 4347      6D6500
 4348              	.LASF47:
 4349 02fa 696E7463 		.ascii	"intctx\000"
 4349      747800
 4350              	.LASF37:
 4351 0301 705F6D73 		.ascii	"p_msgqueue\000"
 4351      67717565 
 4351      756500
 4352              	.LASF49:
 4353 030c 53656D61 		.ascii	"Semaphore\000"
 4353      70686F72 
 4353      6500
 4354              	.LASF60:
 4355 0316 6D625F66 		.ascii	"mb_fullsem\000"
 4355      756C6C73 
 4355      656D00
 4356              	.LASF81:
 4357 0321 74657374 		.ascii	"test_buffers\000"
 4357      5F627566 
 4357      66657273 
 4357      00
 4358              	.LASF33:
 4359 032e 705F7265 		.ascii	"p_refs\000"
 4359      667300
 4360              	.LASF5:
 4361 0335 75696E74 		.ascii	"uint8_t\000"
ARM GAS  C:\Users\DNIEL~1\AppData\Local\Temp\ccjO8mzD.s 			page 81


 4361      385F7400 
 4362              	.LASF65:
 4363 033d 77746F62 		.ascii	"wtobjp\000"
 4363      6A7000
 4364              	.LASF78:
 4365 0344 474E5520 		.ascii	"GNU C 4.5.2\000"
 4365      4320342E 
 4365      352E3200 
 4366              	.LASF29:
 4367 0350 705F6E61 		.ascii	"p_name\000"
 4367      6D6500
 4368              	.LASF54:
 4369 0357 6D5F6F77 		.ascii	"m_owner\000"
 4369      6E657200 
 4370              	.LASF26:
 4371 035f 705F6374 		.ascii	"p_ctx\000"
 4371      7800
 4372              	.LASF36:
 4373 0365 705F7761 		.ascii	"p_waiting\000"
 4373      6974696E 
 4373      6700
 4374              		.ident	"GCC: (Sourcery G++ Lite 2011.03-42) 4.5.2"
ARM GAS  C:\Users\DNIEL~1\AppData\Local\Temp\ccjO8mzD.s 			page 82


DEFINED SYMBOLS
                            *ABS*:00000000 testmbox.c
C:\Users\DNIEL~1\AppData\Local\Temp\ccjO8mzD.s:24     .text.mbox1_execute:00000000 $t
C:\Users\DNIEL~1\AppData\Local\Temp\ccjO8mzD.s:29     .text.mbox1_execute:00000000 mbox1_execute
C:\Users\DNIEL~1\AppData\Local\Temp\ccjO8mzD.s:140    .text.mbox1_execute:000000b0 $d
C:\Users\DNIEL~1\AppData\Local\Temp\ccjO8mzD.s:144    .text.mbox1_execute:000000b4 $t
C:\Users\DNIEL~1\AppData\Local\Temp\ccjO8mzD.s:936    .text.mbox1_execute:000005e4 $d
C:\Users\DNIEL~1\AppData\Local\Temp\ccjO8mzD.s:940    .text.mbox1_execute:000005ec $t
C:\Users\DNIEL~1\AppData\Local\Temp\ccjO8mzD.s:1430   .text.mbox1_execute:00000880 $d
C:\Users\DNIEL~1\AppData\Local\Temp\ccjO8mzD.s:1436   .text.mbox1_setup:00000000 $t
C:\Users\DNIEL~1\AppData\Local\Temp\ccjO8mzD.s:1441   .text.mbox1_setup:00000000 mbox1_setup
C:\Users\DNIEL~1\AppData\Local\Temp\ccjO8mzD.s:1458   .text.mbox1_setup:0000000c $d
C:\Users\DNIEL~1\AppData\Local\Temp\ccjO8mzD.s:1499   .rodata.testmbox1:00000000 testmbox1
C:\Users\DNIEL~1\AppData\Local\Temp\ccjO8mzD.s:1485   .rodata.patternmbox:00000000 patternmbox
C:\Users\DNIEL~1\AppData\Local\Temp\ccjO8mzD.s:1466   .data.mb1:00000000 $d
C:\Users\DNIEL~1\AppData\Local\Temp\ccjO8mzD.s:1470   .data.mb1:00000000 mb1
C:\Users\DNIEL~1\AppData\Local\Temp\ccjO8mzD.s:1482   .rodata.patternmbox:00000000 $d
C:\Users\DNIEL~1\AppData\Local\Temp\ccjO8mzD.s:1489   .rodata.str1.4:00000000 $d
C:\Users\DNIEL~1\AppData\Local\Temp\ccjO8mzD.s:1496   .rodata.testmbox1:00000000 $d
                     .debug_frame:00000010 $d
C:\Users\DNIEL~1\AppData\Local\Temp\ccjO8mzD.s:1435   .text.mbox1_execute:00000888 $t
C:\Users\DNIEL~1\AppData\Local\Temp\ccjO8mzD.s:1465   .text.mbox1_setup:00000014 $t

UNDEFINED SYMBOLS
_test_assert
chMBPost
chMBPostAhead
dbg_check_lock
chMBPostI
dbg_check_unlock
chMBPostAheadI
chMBFetch
test_emit_token
_test_assert_sequence
chMBFetchI
chMBReset
chMBInit
test
