ARM GAS  C:\Users\DNIEL~1\AppData\Local\Temp\ccTDYczq.s 			page 1


   1              		.syntax unified
   2              		.cpu cortex-m3
   3              		.fpu softvfp
   4              		.eabi_attribute 20, 1
   5              		.eabi_attribute 21, 1
   6              		.eabi_attribute 23, 3
   7              		.eabi_attribute 24, 1
   8              		.eabi_attribute 25, 1
   9              		.eabi_attribute 26, 1
  10              		.eabi_attribute 30, 2
  11              		.eabi_attribute 18, 4
  12              		.thumb
  13              		.file	"testqueues.c"
  20 0000 95040000 		.text
  20      0200DD01 
  20      00000201 
  20      FB0E0D00 
  20      01010101 
  21              	.Ltext0:
  22              		.cfi_sections	.debug_frame
  23              		.section	.text.notify,"ax",%progbits
  24              		.align	2
  25              		.p2align 4,,15
  26              		.thumb
  27              		.thumb_func
  28              		.type	notify, %function
  29              	notify:
  30              	.LFB7:
  31              		.file 1 "../../../ChibiOS/test/testqueues.c"
  32              		.loc 1 61 0
  33              		.cfi_startproc
  34              		@ args = 0, pretend = 0, frame = 0
  35              		@ frame_needed = 0, uses_anonymous_args = 0
  36              		@ link register save eliminated.
  37              	.LVL0:
  38              		.loc 1 63 0
  39 0000 7047     		bx	lr
  40              		.cfi_endproc
  41              	.LFE7:
  42              		.size	notify, .-notify
  43 0002 00BFAFF3 		.section	.text.thread2,"ax",%progbits
  43      0080AFF3 
  43      0080AFF3 
  43      0080
  44              		.align	2
  45              		.p2align 4,,15
  46              		.thumb
  47              		.thumb_func
  48              		.type	thread2, %function
  49              	thread2:
  50              	.LFB12:
ARM GAS  C:\Users\DNIEL~1\AppData\Local\Temp\ccTDYczq.s 			page 2


  51              		.loc 1 174 0
  52              		.cfi_startproc
  53              		@ args = 0, pretend = 0, frame = 0
  54              		@ frame_needed = 0, uses_anonymous_args = 0
  55              	.LVL1:
  56 0000 08B5     		push	{r3, lr}
  57              	.LCFI0:
  58              		.cfi_def_cfa_offset 8
  59              		.loc 1 177 0
  60 0002 0021     		movs	r1, #0
  61 0004 C822     		movs	r2, #200
  62 0006 0248     		ldr	r0, .L3
  63              	.LVL2:
  64              		.cfi_offset 14, -4
  65              		.cfi_offset 3, -8
  66 0008 FFF7FEFF 		bl	chOQPutTimeout
  67              		.loc 1 179 0
  68 000c 0020     		movs	r0, #0
  69 000e 08BD     		pop	{r3, pc}
  70              	.L4:
  71              		.align	2
  72              	.L3:
  73 0010 00000000 		.word	.LANCHOR0
  74              		.cfi_endproc
  75              	.LFE12:
  76              		.size	thread2, .-thread2
  77 0014 AFF30080 		.section	.text.queues2_execute,"ax",%progbits
  77      AFF30080 
  77      AFF30080 
  78              		.align	2
  79              		.p2align 4,,15
  80              		.thumb
  81              		.thumb_func
  82              		.type	queues2_execute, %function
  83              	queues2_execute:
  84              	.LFB13:
  85              		.loc 1 181 0
  86              		.cfi_startproc
  87              		@ args = 0, pretend = 0, frame = 0
  88              		@ frame_needed = 0, uses_anonymous_args = 0
  89 0000 2DE9F041 		push	{r4, r5, r6, r7, r8, lr}
  90              	.LCFI1:
  91              		.cfi_def_cfa_offset 24
  92              	.LBB2:
  93              		.loc 1 186 0
  94 0004 2023     		movs	r3, #32
  95              	.LVL3:
  96              	.LBE2:
  97              		.loc 1 181 0
  98 0006 82B0     		sub	sp, sp, #8
  99              	.LCFI2:
 100              		.cfi_def_cfa_offset 32
 101              	.LBB3:
 102              		.loc 1 186 0
 103              	@ 186 "../../../ChibiOS/test/testqueues.c" 1
 104 0008 83F31188 		msr     BASEPRI, r3
 105              	@ 0 "" 2
ARM GAS  C:\Users\DNIEL~1\AppData\Local\Temp\ccTDYczq.s 			page 3


 106              	.LVL4:
 107              		.thumb
 108              	.LBE3:
 109 000c C04D     		ldr	r5, .L30
 110              		.cfi_offset 14, -4
 111              		.cfi_offset 8, -8
 112              		.cfi_offset 7, -12
 113              		.cfi_offset 6, -16
 114              		.cfi_offset 5, -20
 115              		.cfi_offset 4, -24
 116 000e FFF7FEFF 		bl	dbg_check_lock
 117              	.LVL5:
 118 0012 6A69     		ldr	r2, [r5, #20]
 119 0014 AB69     		ldr	r3, [r5, #24]
 120 0016 9A42     		cmp	r2, r3
 121 0018 00F09481 		beq	.L20
 122 001c 0021     		movs	r1, #0
 123              	.L6:
 124              		.loc 1 186 0 is_stmt 0 discriminator 4
 125 001e 0120     		movs	r0, #1
 126 0020 FFF7FEFF 		bl	_test_assert
 127 0024 0646     		mov	r6, r0
 128 0026 0028     		cmp	r0, #0
 129 0028 40F08681 		bne	.L21
 130              		.loc 1 186 0 discriminator 6
 131 002c FFF7FEFF 		bl	dbg_check_unlock
 132              	.LBB4:
 133 0030 3346     		mov	r3, r6
 134              	.LVL6:
 135              	@ 186 "../../../ChibiOS/test/testqueues.c" 1
 136 0032 83F31188 		msr     BASEPRI, r3
 137              	@ 0 "" 2
 138              	.LVL7:
 139              		.thumb
 140              	.LBE4:
 141              		.loc 1 190 0 is_stmt 1 discriminator 6
 142 0036 B64C     		ldr	r4, .L30
 143 0038 4121     		movs	r1, #65
 144 003a 2046     		mov	r0, r4
 145 003c 4FF0FF32 		mov	r2, #-1
 146 0040 FFF7FEFF 		bl	chOQPutTimeout
 147              	.LVL8:
 148 0044 4221     		movs	r1, #66
 149 0046 2046     		mov	r0, r4
 150 0048 4FF0FF32 		mov	r2, #-1
 151 004c FFF7FEFF 		bl	chOQPutTimeout
 152              	.LVL9:
 153 0050 4321     		movs	r1, #67
 154 0052 2046     		mov	r0, r4
 155 0054 4FF0FF32 		mov	r2, #-1
 156 0058 FFF7FEFF 		bl	chOQPutTimeout
 157              	.LVL10:
 158 005c 2046     		mov	r0, r4
 159 005e 4421     		movs	r1, #68
 160 0060 4FF0FF32 		mov	r2, #-1
 161 0064 FFF7FEFF 		bl	chOQPutTimeout
 162              	.LVL11:
ARM GAS  C:\Users\DNIEL~1\AppData\Local\Temp\ccTDYczq.s 			page 4


 163              	.LBB5:
 164              		.loc 1 191 0 discriminator 6
 165 0068 2023     		movs	r3, #32
 166              	.LVL12:
 167              	@ 191 "../../../ChibiOS/test/testqueues.c" 1
 168 006a 83F31188 		msr     BASEPRI, r3
 169              	@ 0 "" 2
 170              	.LVL13:
 171              		.thumb
 172              	.LBE5:
 173 006e FFF7FEFF 		bl	dbg_check_lock
 174              	.LVL14:
 175 0072 AD68     		ldr	r5, [r5, #8]
 176 0074 0220     		movs	r0, #2
 177 0076 D5F10101 		rsbs	r1, r5, #1
 178 007a 38BF     		it	cc
 179 007c 0021     		movcc	r1, #0
 180 007e FFF7FEFF 		bl	_test_assert
 181 0082 0546     		mov	r5, r0
 182 0084 0028     		cmp	r0, #0
 183 0086 40F04F81 		bne	.L22
 184              		.loc 1 191 0 is_stmt 0 discriminator 2
 185 008a FFF7FEFF 		bl	dbg_check_unlock
 186              	.LBB6:
 187 008e 2B46     		mov	r3, r5
 188              	.LVL15:
 189              	@ 191 "../../../ChibiOS/test/testqueues.c" 1
 190 0090 83F31188 		msr     BASEPRI, r3
 191              	@ 0 "" 2
 192              	.LVL16:
 193              		.thumb
 194              	.LBE6:
 195              	.LBB7:
 196              	.LBB8:
 197              		.loc 1 197 0 is_stmt 1 discriminator 2
 198 0094 2023     		movs	r3, #32
 199              	.LVL17:
 200              	@ 197 "../../../ChibiOS/test/testqueues.c" 1
 201 0096 83F31188 		msr     BASEPRI, r3
 202              	@ 0 "" 2
 203              	.LVL18:
 204              		.thumb
 205              	.LBE8:
 206 009a FFF7FEFF 		bl	dbg_check_lock
 207              	.LVL19:
 208              		.loc 1 198 0 discriminator 2
 209 009e 2046     		mov	r0, r4
 210 00a0 FFF7FEFF 		bl	chOQGetI
 211 00a4 0646     		mov	r6, r0
 212              	.LVL20:
 213              		.loc 1 199 0 discriminator 2
 214 00a6 FFF7FEFF 		bl	dbg_check_unlock
 215              	.LVL21:
 216              	.LBB9:
 217 00aa 2B46     		mov	r3, r5
 218              	.LVL22:
 219              	@ 199 "../../../ChibiOS/test/testqueues.c" 1
ARM GAS  C:\Users\DNIEL~1\AppData\Local\Temp\ccTDYczq.s 			page 5


 220 00ac 83F31188 		msr     BASEPRI, r3
 221              	@ 0 "" 2
 222              	.LVL23:
 223              		.thumb
 224              	.LBE9:
 225              		.loc 1 200 0 discriminator 2
 226 00b0 F0B2     		uxtb	r0, r6
 227 00b2 FFF7FEFF 		bl	test_emit_token
 228              	.LVL24:
 229              	.LBB10:
 230              		.loc 1 197 0 discriminator 2
 231 00b6 2023     		movs	r3, #32
 232              	@ 197 "../../../ChibiOS/test/testqueues.c" 1
 233 00b8 83F31188 		msr     BASEPRI, r3
 234              	@ 0 "" 2
 235              	.LVL25:
 236              		.thumb
 237              	.LBE10:
 238 00bc FFF7FEFF 		bl	dbg_check_lock
 239              	.LVL26:
 240              		.loc 1 198 0 discriminator 2
 241 00c0 2046     		mov	r0, r4
 242 00c2 FFF7FEFF 		bl	chOQGetI
 243 00c6 0646     		mov	r6, r0
 244              	.LVL27:
 245              		.loc 1 199 0 discriminator 2
 246 00c8 FFF7FEFF 		bl	dbg_check_unlock
 247              	.LVL28:
 248              	.LBB11:
 249 00cc 2B46     		mov	r3, r5
 250              	@ 199 "../../../ChibiOS/test/testqueues.c" 1
 251 00ce 83F31188 		msr     BASEPRI, r3
 252              	@ 0 "" 2
 253              	.LVL29:
 254              		.thumb
 255              	.LBE11:
 256              		.loc 1 200 0 discriminator 2
 257 00d2 F0B2     		uxtb	r0, r6
 258 00d4 FFF7FEFF 		bl	test_emit_token
 259              	.LVL30:
 260              	.LBB12:
 261              		.loc 1 197 0 discriminator 2
 262 00d8 2023     		movs	r3, #32
 263              	@ 197 "../../../ChibiOS/test/testqueues.c" 1
 264 00da 83F31188 		msr     BASEPRI, r3
 265              	@ 0 "" 2
 266              	.LVL31:
 267              		.thumb
 268              	.LBE12:
 269 00de FFF7FEFF 		bl	dbg_check_lock
 270              	.LVL32:
 271              		.loc 1 198 0 discriminator 2
 272 00e2 2046     		mov	r0, r4
 273 00e4 FFF7FEFF 		bl	chOQGetI
 274 00e8 0646     		mov	r6, r0
 275              	.LVL33:
 276              		.loc 1 199 0 discriminator 2
ARM GAS  C:\Users\DNIEL~1\AppData\Local\Temp\ccTDYczq.s 			page 6


 277 00ea FFF7FEFF 		bl	dbg_check_unlock
 278              	.LVL34:
 279              	.LBB13:
 280 00ee 2B46     		mov	r3, r5
 281              	@ 199 "../../../ChibiOS/test/testqueues.c" 1
 282 00f0 83F31188 		msr     BASEPRI, r3
 283              	@ 0 "" 2
 284              	.LVL35:
 285              		.thumb
 286              	.LBE13:
 287              		.loc 1 200 0 discriminator 2
 288 00f4 F0B2     		uxtb	r0, r6
 289 00f6 FFF7FEFF 		bl	test_emit_token
 290              	.LVL36:
 291              	.LBB14:
 292              		.loc 1 197 0 discriminator 2
 293 00fa 2023     		movs	r3, #32
 294              	@ 197 "../../../ChibiOS/test/testqueues.c" 1
 295 00fc 83F31188 		msr     BASEPRI, r3
 296              	@ 0 "" 2
 297              	.LVL37:
 298              		.thumb
 299              	.LBE14:
 300 0100 FFF7FEFF 		bl	dbg_check_lock
 301              	.LVL38:
 302              		.loc 1 198 0 discriminator 2
 303 0104 2046     		mov	r0, r4
 304 0106 FFF7FEFF 		bl	chOQGetI
 305 010a 0646     		mov	r6, r0
 306              	.LVL39:
 307              		.loc 1 199 0 discriminator 2
 308 010c FFF7FEFF 		bl	dbg_check_unlock
 309              	.LVL40:
 310              	.LBB15:
 311 0110 2B46     		mov	r3, r5
 312              	@ 199 "../../../ChibiOS/test/testqueues.c" 1
 313 0112 83F31188 		msr     BASEPRI, r3
 314              	@ 0 "" 2
 315              	.LVL41:
 316              		.thumb
 317              	.LBE15:
 318              		.loc 1 200 0 discriminator 2
 319 0116 F0B2     		uxtb	r0, r6
 320 0118 FFF7FEFF 		bl	test_emit_token
 321              	.LVL42:
 322              	.LBE7:
 323              	.LBB16:
 324              		.loc 1 202 0 discriminator 2
 325 011c 2023     		movs	r3, #32
 326              	.LVL43:
 327              	@ 202 "../../../ChibiOS/test/testqueues.c" 1
 328 011e 83F31188 		msr     BASEPRI, r3
 329              	@ 0 "" 2
 330              	.LVL44:
 331              		.thumb
 332              	.LBE16:
 333 0122 FFF7FEFF 		bl	dbg_check_lock
ARM GAS  C:\Users\DNIEL~1\AppData\Local\Temp\ccTDYczq.s 			page 7


 334              	.LVL45:
 335 0126 6069     		ldr	r0, [r4, #20]
 336 0128 A269     		ldr	r2, [r4, #24]
 337 012a 9042     		cmp	r0, r2
 338 012c 00F01581 		beq	.L23
 339              		.loc 1 202 0 is_stmt 0
 340 0130 2946     		mov	r1, r5
 341              	.L10:
 342              		.loc 1 202 0 discriminator 4
 343 0132 0320     		movs	r0, #3
 344 0134 FFF7FEFF 		bl	_test_assert
 345 0138 0446     		mov	r4, r0
 346 013a 0028     		cmp	r0, #0
 347 013c 40F00781 		bne	.L24
 348              		.loc 1 202 0 discriminator 6
 349 0140 FFF7FEFF 		bl	dbg_check_unlock
 350              	.LBB17:
 351 0144 2346     		mov	r3, r4
 352              	.LVL46:
 353              	@ 202 "../../../ChibiOS/test/testqueues.c" 1
 354 0146 83F31188 		msr     BASEPRI, r3
 355              	@ 0 "" 2
 356              	.LVL47:
 357              		.thumb
 358              	.LBE17:
 359              		.loc 1 203 0 is_stmt 1 discriminator 6
 360 014a 0420     		movs	r0, #4
 361 014c 7149     		ldr	r1, .L30+4
 362 014e FFF7FEFF 		bl	_test_assert_sequence
 363              	.LVL48:
 364 0152 0546     		mov	r5, r0
 365 0154 0028     		cmp	r0, #0
 366 0156 40F0EC80 		bne	.L5
 367              	.LBB18:
 368              		.loc 1 204 0
 369 015a 2023     		movs	r3, #32
 370              	.LVL49:
 371              	@ 204 "../../../ChibiOS/test/testqueues.c" 1
 372 015c 83F31188 		msr     BASEPRI, r3
 373              	@ 0 "" 2
 374              	.LVL50:
 375              		.thumb
 376              	.LBE18:
 377 0160 6B4C     		ldr	r4, .L30
 378 0162 FFF7FEFF 		bl	dbg_check_lock
 379              	.LVL51:
 380 0166 2046     		mov	r0, r4
 381 0168 FFF7FEFF 		bl	chOQGetI
 382 016c 10F1030F 		cmn	r0, #3
 383 0170 14BF     		ite	ne
 384 0172 0021     		movne	r1, #0
 385 0174 0121     		moveq	r1, #1
 386 0176 0520     		movs	r0, #5
 387 0178 FFF7FEFF 		bl	_test_assert
 388 017c 0646     		mov	r6, r0
 389              	.LVL52:
 390 017e 0028     		cmp	r0, #0
ARM GAS  C:\Users\DNIEL~1\AppData\Local\Temp\ccTDYczq.s 			page 8


 391 0180 40F0F080 		bne	.L25
 392              		.loc 1 204 0 is_stmt 0 discriminator 2
 393 0184 FFF7FEFF 		bl	dbg_check_unlock
 394              	.LBB19:
 395 0188 3346     		mov	r3, r6
 396              	.LVL53:
 397              	@ 204 "../../../ChibiOS/test/testqueues.c" 1
 398 018a 83F31188 		msr     BASEPRI, r3
 399              	@ 0 "" 2
 400              	.LVL54:
 401              		.thumb
 402              	.LBE19:
 403              		.loc 1 207 0 is_stmt 1 discriminator 2
 404 018e 624D     		ldr	r5, .L30+8
 405 0190 0822     		movs	r2, #8
 406 0192 6E68     		ldr	r6, [r5, #4]
 407 0194 2046     		mov	r0, r4
 408 0196 3146     		mov	r1, r6
 409 0198 FFF7FEFF 		bl	chOQWriteTimeout
 410              	.LVL55:
 411              		.loc 1 208 0 discriminator 2
 412 019c A0F1040C 		sub	ip, r0, #4
 413 01a0 DCF10008 		rsbs	r8, ip, #0
 414 01a4 48EB0C01 		adc	r1, r8, ip
 415 01a8 0620     		movs	r0, #6
 416              	.LVL56:
 417 01aa FFF7FEFF 		bl	_test_assert
 418              	.LVL57:
 419 01ae 8046     		mov	r8, r0
 420 01b0 0028     		cmp	r0, #0
 421 01b2 40F0BE80 		bne	.L5
 422              	.LBB20:
 423              		.loc 1 209 0
 424 01b6 2023     		movs	r3, #32
 425              	.LVL58:
 426              	@ 209 "../../../ChibiOS/test/testqueues.c" 1
 427 01b8 83F31188 		msr     BASEPRI, r3
 428              	@ 0 "" 2
 429              	.LVL59:
 430              		.thumb
 431              	.LBE20:
 432 01bc FFF7FEFF 		bl	dbg_check_lock
 433              	.LVL60:
 434 01c0 A768     		ldr	r7, [r4, #8]
 435 01c2 0720     		movs	r0, #7
 436 01c4 D7F10101 		rsbs	r1, r7, #1
 437 01c8 38BF     		it	cc
 438 01ca 0021     		movcc	r1, #0
 439 01cc FFF7FEFF 		bl	_test_assert
 440 01d0 0746     		mov	r7, r0
 441 01d2 0028     		cmp	r0, #0
 442 01d4 40F0CC80 		bne	.L26
 443              		.loc 1 209 0 is_stmt 0 discriminator 2
 444 01d8 FFF7FEFF 		bl	dbg_check_unlock
 445              	.LBB21:
 446 01dc 3B46     		mov	r3, r7
 447              	.LVL61:
ARM GAS  C:\Users\DNIEL~1\AppData\Local\Temp\ccTDYczq.s 			page 9


 448              	@ 209 "../../../ChibiOS/test/testqueues.c" 1
 449 01de 83F31188 		msr     BASEPRI, r3
 450              	@ 0 "" 2
 451              	.LVL62:
 452              		.thumb
 453              	.LBE21:
 454              		.loc 1 210 0 is_stmt 1 discriminator 2
 455 01e2 4E4A     		ldr	r2, .L30+12
 456 01e4 2868     		ldr	r0, [r5, #0]
 457 01e6 9369     		ldr	r3, [r2, #24]
 458              	.LVL63:
 459 01e8 4FF49871 		mov	r1, #304
 460 01ec 9D68     		ldr	r5, [r3, #8]
 461 01ee 4C4B     		ldr	r3, .L30+16
 462 01f0 6A1C     		adds	r2, r5, #1
 463 01f2 0097     		str	r7, [sp, #0]
 464 01f4 FFF7FEFF 		bl	chThdCreateStatic
 465 01f8 4A49     		ldr	r1, .L30+20
 466              	.LBB22:
 467              		.loc 1 211 0 discriminator 2
 468 01fa 2023     		movs	r3, #32
 469              	.LVL64:
 470              	.LBE22:
 471              		.loc 1 210 0 discriminator 2
 472 01fc 0860     		str	r0, [r1, #0]
 473              	.LBB23:
 474              		.loc 1 211 0 discriminator 2
 475              	@ 211 "../../../ChibiOS/test/testqueues.c" 1
 476 01fe 83F31188 		msr     BASEPRI, r3
 477              	@ 0 "" 2
 478              	.LVL65:
 479              		.thumb
 480              	.LBE23:
 481 0202 FFF7FEFF 		bl	dbg_check_lock
 482              	.LVL66:
 483 0206 2369     		ldr	r3, [r4, #16]
 484 0208 E268     		ldr	r2, [r4, #12]
 485 020a A068     		ldr	r0, [r4, #8]
 486 020c 9D1A     		subs	r5, r3, r2
 487 020e 291A     		subs	r1, r5, r0
 488 0210 A1F1040E 		sub	lr, r1, #4
 489 0214 0820     		movs	r0, #8
 490 0216 DEF10003 		rsbs	r3, lr, #0
 491 021a 43EB0E01 		adc	r1, r3, lr
 492 021e FFF7FEFF 		bl	_test_assert
 493 0222 0546     		mov	r5, r0
 494 0224 0028     		cmp	r0, #0
 495 0226 40F0A980 		bne	.L27
 496 022a FFF7FEFF 		bl	dbg_check_unlock
 497              	.LBB24:
 498 022e 2B46     		mov	r3, r5
 499              	.LVL67:
 500              	@ 211 "../../../ChibiOS/test/testqueues.c" 1
 501 0230 83F31188 		msr     BASEPRI, r3
 502              	@ 0 "" 2
 503              	.LVL68:
 504              		.thumb
ARM GAS  C:\Users\DNIEL~1\AppData\Local\Temp\ccTDYczq.s 			page 10


 505              	.LBE24:
 506              		.loc 1 212 0 discriminator 2
 507 0234 FFF7FEFF 		bl	test_wait_threads
 508              	.LVL69:
 509              	.LBB25:
 510              		.loc 1 215 0 discriminator 2
 511 0238 2023     		movs	r3, #32
 512              	.LVL70:
 513              	@ 215 "../../../ChibiOS/test/testqueues.c" 1
 514 023a 83F31188 		msr     BASEPRI, r3
 515              	@ 0 "" 2
 516              	.LVL71:
 517              		.thumb
 518              	.LBE25:
 519 023e FFF7FEFF 		bl	dbg_check_lock
 520              	.LVL72:
 521              		.loc 1 216 0 discriminator 2
 522 0242 2046     		mov	r0, r4
 523 0244 FFF7FEFF 		bl	chOQResetI
 524              		.loc 1 217 0 discriminator 2
 525 0248 FFF7FEFF 		bl	dbg_check_unlock
 526              	.LBB26:
 527 024c 2B46     		mov	r3, r5
 528              	.LVL73:
 529              	@ 217 "../../../ChibiOS/test/testqueues.c" 1
 530 024e 83F31188 		msr     BASEPRI, r3
 531              	@ 0 "" 2
 532              	.LVL74:
 533              		.thumb
 534              	.LBE26:
 535              	.LBB27:
 536              		.loc 1 218 0 discriminator 2
 537 0252 2023     		movs	r3, #32
 538              	.LVL75:
 539              	@ 218 "../../../ChibiOS/test/testqueues.c" 1
 540 0254 83F31188 		msr     BASEPRI, r3
 541              	@ 0 "" 2
 542              	.LVL76:
 543              		.thumb
 544              	.LBE27:
 545 0258 FFF7FEFF 		bl	dbg_check_lock
 546              	.LVL77:
 547 025c 2069     		ldr	r0, [r4, #16]
 548 025e E268     		ldr	r2, [r4, #12]
 549 0260 A368     		ldr	r3, [r4, #8]
 550 0262 811A     		subs	r1, r0, r2
 551 0264 CF1A     		subs	r7, r1, r3
 552 0266 0920     		movs	r0, #9
 553 0268 D7F1000C 		rsbs	ip, r7, #0
 554 026c 4CEB0701 		adc	r1, ip, r7
 555 0270 FFF7FEFF 		bl	_test_assert
 556 0274 0746     		mov	r7, r0
 557 0276 0028     		cmp	r0, #0
 558 0278 40F08680 		bne	.L28
 559 027c FFF7FEFF 		bl	dbg_check_unlock
 560              	.LBB28:
 561 0280 3B46     		mov	r3, r7
ARM GAS  C:\Users\DNIEL~1\AppData\Local\Temp\ccTDYczq.s 			page 11


 562              	.LVL78:
 563              	@ 218 "../../../ChibiOS/test/testqueues.c" 1
 564 0282 83F31188 		msr     BASEPRI, r3
 565              	@ 0 "" 2
 566              	.LVL79:
 567              		.thumb
 568              	.LBE28:
 569              		.loc 1 221 0 discriminator 2
 570 0286 0222     		movs	r2, #2
 571 0288 3146     		mov	r1, r6
 572 028a 2046     		mov	r0, r4
 573 028c FFF7FEFF 		bl	chOQWriteTimeout
 574              	.LVL80:
 575              		.loc 1 222 0 discriminator 2
 576 0290 A0F10201 		sub	r1, r0, #2
 577 0294 D1F1000C 		rsbs	ip, r1, #0
 578 0298 4CEB0101 		adc	r1, ip, r1
 579 029c 0A20     		movs	r0, #10
 580              	.LVL81:
 581 029e FFF7FEFF 		bl	_test_assert
 582 02a2 0346     		mov	r3, r0
 583 02a4 0028     		cmp	r0, #0
 584 02a6 44D1     		bne	.L5
 585              		.loc 1 223 0
 586 02a8 3146     		mov	r1, r6
 587 02aa 0222     		movs	r2, #2
 588 02ac 2046     		mov	r0, r4
 589 02ae FFF7FEFF 		bl	chOQWriteTimeout
 590              	.LVL82:
 591              		.loc 1 224 0
 592 02b2 A0F10200 		sub	r0, r0, #2
 593              	.LVL83:
 594 02b6 4342     		rsbs	r3, r0, #0
 595 02b8 43EB0001 		adc	r1, r3, r0
 596 02bc 0B20     		movs	r0, #11
 597              	.LVL84:
 598 02be FFF7FEFF 		bl	_test_assert
 599 02c2 0028     		cmp	r0, #0
 600 02c4 35D1     		bne	.L5
 601              	.LBB29:
 602              		.loc 1 225 0
 603 02c6 2023     		movs	r3, #32
 604              	.LVL85:
 605              	@ 225 "../../../ChibiOS/test/testqueues.c" 1
 606 02c8 83F31188 		msr     BASEPRI, r3
 607              	@ 0 "" 2
 608              	.LVL86:
 609              		.thumb
 610              	.LBE29:
 611 02cc FFF7FEFF 		bl	dbg_check_lock
 612              	.LVL87:
 613 02d0 A268     		ldr	r2, [r4, #8]
 614 02d2 0C20     		movs	r0, #12
 615 02d4 D2F10101 		rsbs	r1, r2, #1
 616 02d8 38BF     		it	cc
 617 02da 0021     		movcc	r1, #0
 618 02dc FFF7FEFF 		bl	_test_assert
ARM GAS  C:\Users\DNIEL~1\AppData\Local\Temp\ccTDYczq.s 			page 12


 619 02e0 0028     		cmp	r0, #0
 620 02e2 57D1     		bne	.L29
 621              		.loc 1 225 0 is_stmt 0 discriminator 2
 622 02e4 FFF7FEFF 		bl	dbg_check_unlock
 623              	.LBB30:
 624 02e8 0023     		movs	r3, #0
 625              	.LVL88:
 626              	@ 225 "../../../ChibiOS/test/testqueues.c" 1
 627 02ea 83F31188 		msr     BASEPRI, r3
 628              	@ 0 "" 2
 629              	.LVL89:
 630              		.thumb
 631              	.LBE30:
 632              		.loc 1 228 0 is_stmt 1 discriminator 2
 633 02ee 0A22     		movs	r2, #10
 634 02f0 1946     		mov	r1, r3
 635 02f2 0748     		ldr	r0, .L30
 636 02f4 FFF7FEFF 		bl	chOQPutTimeout
 637              	.LVL90:
 638 02f8 A0F1FF31 		sub	r1, r0, #-1
 639 02fc D1F1000C 		rsbs	ip, r1, #0
 640 0300 4CEB0101 		adc	r1, ip, r1
 641 0304 0D20     		movs	r0, #13
 642              		.loc 1 229 0 discriminator 2
 643 0306 02B0     		add	sp, sp, #8
 644 0308 BDE8F041 		pop	{r4, r5, r6, r7, r8, lr}
 645              		.loc 1 228 0 discriminator 2
 646 030c FFF7FEBF 		b	_test_assert
 647              	.L31:
 648              		.align	2
 649              	.L30:
 650 0310 00000000 		.word	.LANCHOR0
 651 0314 00000000 		.word	.LC0
 652 0318 00000000 		.word	wa
 653 031c 00000000 		.word	rlist
 654 0320 00000000 		.word	thread2
 655 0324 00000000 		.word	threads
 656              	.L22:
 657              		.loc 1 191 0 discriminator 1
 658 0328 FFF7FEFF 		bl	dbg_check_unlock
 659              	.LBB31:
 660 032c 3346     		mov	r3, r6
 661              	.LVL91:
 662              	@ 191 "../../../ChibiOS/test/testqueues.c" 1
 663 032e 83F31188 		msr     BASEPRI, r3
 664              	@ 0 "" 2
 665              	.LVL92:
 666              		.thumb
 667              	.L5:
 668              	.LBE31:
 669              		.loc 1 229 0
 670 0332 02B0     		add	sp, sp, #8
 671 0334 BDE8F081 		pop	{r4, r5, r6, r7, r8, pc}
 672              	.LVL93:
 673              	.L21:
 674              		.loc 1 186 0 discriminator 5
 675 0338 FFF7FEFF 		bl	dbg_check_unlock
ARM GAS  C:\Users\DNIEL~1\AppData\Local\Temp\ccTDYczq.s 			page 13


 676              	.LBB32:
 677 033c 0023     		movs	r3, #0
 678              	@ 186 "../../../ChibiOS/test/testqueues.c" 1
 679 033e 83F31188 		msr     BASEPRI, r3
 680              	@ 0 "" 2
 681              	.LVL94:
 682              		.thumb
 683              	.LBE32:
 684 0342 F6E7     		b	.L5
 685              	.LVL95:
 686              	.L20:
 687              		.loc 1 181 0 discriminator 1
 688 0344 A968     		ldr	r1, [r5, #8]
 689 0346 0039     		subs	r1, r1, #0
 690 0348 18BF     		it	ne
 691 034a 0121     		movne	r1, #1
 692 034c 67E6     		b	.L6
 693              	.LVL96:
 694              	.L24:
 695              		.loc 1 202 0 discriminator 5
 696 034e FFF7FEFF 		bl	dbg_check_unlock
 697              	.LBB33:
 698 0352 0023     		movs	r3, #0
 699              	@ 202 "../../../ChibiOS/test/testqueues.c" 1
 700 0354 83F31188 		msr     BASEPRI, r3
 701              	@ 0 "" 2
 702              	.LVL97:
 703              		.thumb
 704              	.LBE33:
 705 0358 EBE7     		b	.L5
 706              	.LVL98:
 707              	.L23:
 708              		.loc 1 181 0 discriminator 1
 709 035a A468     		ldr	r4, [r4, #8]
 710 035c 211E     		subs	r1, r4, #0
 711 035e 18BF     		it	ne
 712 0360 0121     		movne	r1, #1
 713 0362 E6E6     		b	.L10
 714              	.LVL99:
 715              	.L25:
 716              		.loc 1 204 0 discriminator 1
 717 0364 FFF7FEFF 		bl	dbg_check_unlock
 718              	.LBB34:
 719 0368 2B46     		mov	r3, r5
 720              	@ 204 "../../../ChibiOS/test/testqueues.c" 1
 721 036a 83F31188 		msr     BASEPRI, r3
 722              	@ 0 "" 2
 723              	.LVL100:
 724              		.thumb
 725              	.LBE34:
 726 036e E0E7     		b	.L5
 727              	.LVL101:
 728              	.L26:
 729              		.loc 1 209 0 discriminator 1
 730 0370 FFF7FEFF 		bl	dbg_check_unlock
 731              	.LBB35:
 732 0374 4346     		mov	r3, r8
ARM GAS  C:\Users\DNIEL~1\AppData\Local\Temp\ccTDYczq.s 			page 14


 733              	@ 209 "../../../ChibiOS/test/testqueues.c" 1
 734 0376 83F31188 		msr     BASEPRI, r3
 735              	@ 0 "" 2
 736              	.LVL102:
 737              		.thumb
 738              	.LBE35:
 739 037a DAE7     		b	.L5
 740              	.LVL103:
 741              	.L27:
 742              		.loc 1 211 0 discriminator 1
 743 037c FFF7FEFF 		bl	dbg_check_unlock
 744              	.LBB36:
 745 0380 3B46     		mov	r3, r7
 746              	@ 211 "../../../ChibiOS/test/testqueues.c" 1
 747 0382 83F31188 		msr     BASEPRI, r3
 748              	@ 0 "" 2
 749              	.LVL104:
 750              		.thumb
 751              	.LBE36:
 752 0386 D4E7     		b	.L5
 753              	.LVL105:
 754              	.L28:
 755              		.loc 1 218 0 discriminator 1
 756 0388 FFF7FEFF 		bl	dbg_check_unlock
 757              	.LBB37:
 758 038c 2B46     		mov	r3, r5
 759              	@ 218 "../../../ChibiOS/test/testqueues.c" 1
 760 038e 83F31188 		msr     BASEPRI, r3
 761              	@ 0 "" 2
 762              	.LVL106:
 763              		.thumb
 764              	.LBE37:
 765 0392 CEE7     		b	.L5
 766              	.LVL107:
 767              	.L29:
 768              		.loc 1 225 0 discriminator 1
 769 0394 FFF7FEFF 		bl	dbg_check_unlock
 770              	.LBB38:
 771 0398 0023     		movs	r3, #0
 772              	@ 225 "../../../ChibiOS/test/testqueues.c" 1
 773 039a 83F31188 		msr     BASEPRI, r3
 774              	@ 0 "" 2
 775              	.LVL108:
 776              		.thumb
 777 039e C8E7     		b	.L5
 778              	.LBE38:
 779              		.cfi_endproc
 780              	.LFE13:
 781              		.size	queues2_execute, .-queues2_execute
 782              		.section	.text.queues2_setup,"ax",%progbits
 783              		.align	2
 784              		.p2align 4,,15
 785              		.thumb
 786              		.thumb_func
 787              		.type	queues2_setup, %function
 788              	queues2_setup:
 789              	.LFB11:
ARM GAS  C:\Users\DNIEL~1\AppData\Local\Temp\ccTDYczq.s 			page 15


 790              		.loc 1 169 0
 791              		.cfi_startproc
 792              		@ args = 0, pretend = 0, frame = 0
 793              		@ frame_needed = 0, uses_anonymous_args = 0
 794 0000 10B5     		push	{r4, lr}
 795              	.LCFI3:
 796              		.cfi_def_cfa_offset 8
 797              		.loc 1 171 0
 798 0002 064B     		ldr	r3, .L33
 799              		.loc 1 169 0
 800 0004 82B0     		sub	sp, sp, #8
 801              	.LCFI4:
 802              		.cfi_def_cfa_offset 16
 803              		.loc 1 171 0
 804 0006 1968     		ldr	r1, [r3, #0]
 805 0008 0024     		movs	r4, #0
 806              		.cfi_offset 14, -4
 807              		.cfi_offset 4, -8
 808 000a 0548     		ldr	r0, .L33+4
 809 000c 0422     		movs	r2, #4
 810 000e 054B     		ldr	r3, .L33+8
 811 0010 0094     		str	r4, [sp, #0]
 812 0012 FFF7FEFF 		bl	chOQInit
 813              		.loc 1 172 0
 814 0016 02B0     		add	sp, sp, #8
 815 0018 10BD     		pop	{r4, pc}
 816              	.L34:
 817 001a 00BF     		.align	2
 818              	.L33:
 819 001c 00000000 		.word	wa
 820 0020 00000000 		.word	.LANCHOR0
 821 0024 00000000 		.word	notify
 822              		.cfi_endproc
 823              	.LFE11:
 824              		.size	queues2_setup, .-queues2_setup
 825 0028 AFF30080 		.section	.text.thread1,"ax",%progbits
 825      AFF30080 
 826              		.align	2
 827              		.p2align 4,,15
 828              		.thumb
 829              		.thumb_func
 830              		.type	thread1, %function
 831              	thread1:
 832              	.LFB9:
 833              		.loc 1 87 0
 834              		.cfi_startproc
 835              		@ args = 0, pretend = 0, frame = 0
 836              		@ frame_needed = 0, uses_anonymous_args = 0
 837              	.LVL109:
 838 0000 08B5     		push	{r3, lr}
 839              	.LCFI5:
 840              		.cfi_def_cfa_offset 8
 841              		.loc 1 90 0
 842 0002 C821     		movs	r1, #200
 843 0004 0248     		ldr	r0, .L36
 844              	.LVL110:
 845              		.cfi_offset 14, -4
ARM GAS  C:\Users\DNIEL~1\AppData\Local\Temp\ccTDYczq.s 			page 16


 846              		.cfi_offset 3, -8
 847 0006 FFF7FEFF 		bl	chIQGetTimeout
 848              		.loc 1 92 0
 849 000a 0020     		movs	r0, #0
 850 000c 08BD     		pop	{r3, pc}
 851              	.L37:
 852 000e 00BF     		.align	2
 853              	.L36:
 854 0010 00000000 		.word	.LANCHOR1
 855              		.cfi_endproc
 856              	.LFE9:
 857              		.size	thread1, .-thread1
 858 0014 AFF30080 		.section	.text.queues1_execute,"ax",%progbits
 858      AFF30080 
 858      AFF30080 
 859              		.align	2
 860              		.p2align 4,,15
 861              		.thumb
 862              		.thumb_func
 863              		.type	queues1_execute, %function
 864              	queues1_execute:
 865              	.LFB10:
 866              		.loc 1 94 0
 867              		.cfi_startproc
 868              		@ args = 0, pretend = 0, frame = 0
 869              		@ frame_needed = 0, uses_anonymous_args = 0
 870 0000 2DE9F043 		push	{r4, r5, r6, r7, r8, r9, lr}
 871              	.LCFI6:
 872              		.cfi_def_cfa_offset 28
 873              	.LBB39:
 874              		.loc 1 99 0
 875 0004 2023     		movs	r3, #32
 876              	.LVL111:
 877              	.LBE39:
 878              		.loc 1 94 0
 879 0006 83B0     		sub	sp, sp, #12
 880              	.LCFI7:
 881              		.cfi_def_cfa_offset 40
 882              	.LBB40:
 883              		.loc 1 99 0
 884              	@ 99 "../../../ChibiOS/test/testqueues.c" 1
 885 0008 83F31188 		msr     BASEPRI, r3
 886              	@ 0 "" 2
 887              	.LVL112:
 888              		.thumb
 889              	.LBE40:
 890 000c C64C     		ldr	r4, .L59
 891              		.cfi_offset 14, -4
 892              		.cfi_offset 9, -8
 893              		.cfi_offset 8, -12
 894              		.cfi_offset 7, -16
 895              		.cfi_offset 6, -20
 896              		.cfi_offset 5, -24
 897              		.cfi_offset 4, -28
 898 000e FFF7FEFF 		bl	dbg_check_lock
 899              	.LVL113:
 900 0012 A168     		ldr	r1, [r4, #8]
ARM GAS  C:\Users\DNIEL~1\AppData\Local\Temp\ccTDYczq.s 			page 17


 901 0014 0120     		movs	r0, #1
 902 0016 D1F10101 		rsbs	r1, r1, #1
 903 001a 38BF     		it	cc
 904 001c 0021     		movcc	r1, #0
 905 001e FFF7FEFF 		bl	_test_assert
 906 0022 0546     		mov	r5, r0
 907 0024 0028     		cmp	r0, #0
 908 0026 40F09881 		bne	.L50
 909              		.loc 1 99 0 is_stmt 0 discriminator 2
 910 002a FFF7FEFF 		bl	dbg_check_unlock
 911              	.LBB41:
 912 002e 2B46     		mov	r3, r5
 913              	.LVL114:
 914              	@ 99 "../../../ChibiOS/test/testqueues.c" 1
 915 0030 83F31188 		msr     BASEPRI, r3
 916              	@ 0 "" 2
 917              	.LVL115:
 918              		.thumb
 919              	.LBE41:
 920              	.LBB42:
 921              		.loc 1 102 0 is_stmt 1 discriminator 2
 922 0034 2023     		movs	r3, #32
 923              	.LVL116:
 924              	@ 102 "../../../ChibiOS/test/testqueues.c" 1
 925 0036 83F31188 		msr     BASEPRI, r3
 926              	@ 0 "" 2
 927              	.LVL117:
 928              		.thumb
 929              	.LBE42:
 930 003a FFF7FEFF 		bl	dbg_check_lock
 931              	.LVL118:
 932              		.loc 1 104 0 discriminator 2
 933 003e 4121     		movs	r1, #65
 934 0040 2046     		mov	r0, r4
 935 0042 FFF7FEFF 		bl	chIQPutI
 936              	.LVL119:
 937 0046 4221     		movs	r1, #66
 938 0048 2046     		mov	r0, r4
 939 004a FFF7FEFF 		bl	chIQPutI
 940              	.LVL120:
 941 004e 4321     		movs	r1, #67
 942 0050 2046     		mov	r0, r4
 943 0052 FFF7FEFF 		bl	chIQPutI
 944              	.LVL121:
 945 0056 4421     		movs	r1, #68
 946 0058 2046     		mov	r0, r4
 947 005a FFF7FEFF 		bl	chIQPutI
 948              	.LVL122:
 949              		.loc 1 105 0 discriminator 2
 950 005e FFF7FEFF 		bl	dbg_check_unlock
 951              	.LBB43:
 952 0062 2B46     		mov	r3, r5
 953              	.LVL123:
 954              	@ 105 "../../../ChibiOS/test/testqueues.c" 1
 955 0064 83F31188 		msr     BASEPRI, r3
 956              	@ 0 "" 2
 957              	.LVL124:
ARM GAS  C:\Users\DNIEL~1\AppData\Local\Temp\ccTDYczq.s 			page 18


 958              		.thumb
 959              	.LBE43:
 960              	.LBB44:
 961              		.loc 1 106 0 discriminator 2
 962 0068 2023     		movs	r3, #32
 963              	.LVL125:
 964              	@ 106 "../../../ChibiOS/test/testqueues.c" 1
 965 006a 83F31188 		msr     BASEPRI, r3
 966              	@ 0 "" 2
 967              	.LVL126:
 968              		.thumb
 969              	.LBE44:
 970 006e FFF7FEFF 		bl	dbg_check_lock
 971              	.LVL127:
 972 0072 6269     		ldr	r2, [r4, #20]
 973 0074 A369     		ldr	r3, [r4, #24]
 974 0076 9A42     		cmp	r2, r3
 975 0078 00F08181 		beq	.L51
 976              		.loc 1 106 0 is_stmt 0
 977 007c 2946     		mov	r1, r5
 978              	.L41:
 979              		.loc 1 106 0 discriminator 4
 980 007e 0220     		movs	r0, #2
 981 0080 FFF7FEFF 		bl	_test_assert
 982 0084 0646     		mov	r6, r0
 983 0086 0028     		cmp	r0, #0
 984 0088 40F05F81 		bne	.L52
 985              		.loc 1 106 0 discriminator 6
 986 008c FFF7FEFF 		bl	dbg_check_unlock
 987              	.LBB45:
 988 0090 3346     		mov	r3, r6
 989              	.LVL128:
 990              	@ 106 "../../../ChibiOS/test/testqueues.c" 1
 991 0092 83F31188 		msr     BASEPRI, r3
 992              	@ 0 "" 2
 993              	.LVL129:
 994              		.thumb
 995              	.LBE45:
 996              	.LBB46:
 997              		.loc 1 107 0 is_stmt 1 discriminator 6
 998 0096 2023     		movs	r3, #32
 999              	.LVL130:
 1000              	@ 107 "../../../ChibiOS/test/testqueues.c" 1
 1001 0098 83F31188 		msr     BASEPRI, r3
 1002              	@ 0 "" 2
 1003              	.LVL131:
 1004              		.thumb
 1005              	.LBE46:
 1006 009c A24D     		ldr	r5, .L59
 1007 009e FFF7FEFF 		bl	dbg_check_lock
 1008              	.LVL132:
 1009 00a2 3146     		mov	r1, r6
 1010 00a4 2846     		mov	r0, r5
 1011 00a6 FFF7FEFF 		bl	chIQPutI
 1012 00aa 10F1040F 		cmn	r0, #4
 1013 00ae 14BF     		ite	ne
 1014 00b0 0021     		movne	r1, #0
ARM GAS  C:\Users\DNIEL~1\AppData\Local\Temp\ccTDYczq.s 			page 19


 1015 00b2 0121     		moveq	r1, #1
 1016 00b4 0320     		movs	r0, #3
 1017 00b6 FFF7FEFF 		bl	_test_assert
 1018 00ba 0746     		mov	r7, r0
 1019 00bc 0028     		cmp	r0, #0
 1020 00be 40F05881 		bne	.L53
 1021              		.loc 1 107 0 is_stmt 0 discriminator 2
 1022 00c2 FFF7FEFF 		bl	dbg_check_unlock
 1023              	.LBB47:
 1024 00c6 3B46     		mov	r3, r7
 1025              	.LVL133:
 1026              	@ 107 "../../../ChibiOS/test/testqueues.c" 1
 1027 00c8 83F31188 		msr     BASEPRI, r3
 1028              	@ 0 "" 2
 1029              	.LVL134:
 1030              		.thumb
 1031              	.LBE47:
 1032              		.loc 1 111 0 is_stmt 1 discriminator 2
 1033 00cc 4FF0FF31 		mov	r1, #-1
 1034 00d0 2846     		mov	r0, r5
 1035 00d2 FFF7FEFF 		bl	chIQGetTimeout
 1036              	.LVL135:
 1037 00d6 C0B2     		uxtb	r0, r0
 1038 00d8 FFF7FEFF 		bl	test_emit_token
 1039              	.LVL136:
 1040 00dc 4FF0FF31 		mov	r1, #-1
 1041 00e0 2846     		mov	r0, r5
 1042 00e2 FFF7FEFF 		bl	chIQGetTimeout
 1043 00e6 C0B2     		uxtb	r0, r0
 1044 00e8 FFF7FEFF 		bl	test_emit_token
 1045              	.LVL137:
 1046 00ec 4FF0FF31 		mov	r1, #-1
 1047 00f0 2846     		mov	r0, r5
 1048 00f2 FFF7FEFF 		bl	chIQGetTimeout
 1049 00f6 C0B2     		uxtb	r0, r0
 1050 00f8 FFF7FEFF 		bl	test_emit_token
 1051              	.LVL138:
 1052 00fc 4FF0FF31 		mov	r1, #-1
 1053 0100 2846     		mov	r0, r5
 1054 0102 FFF7FEFF 		bl	chIQGetTimeout
 1055 0106 C0B2     		uxtb	r0, r0
 1056 0108 FFF7FEFF 		bl	test_emit_token
 1057              	.LVL139:
 1058              	.LBB48:
 1059              		.loc 1 112 0 discriminator 2
 1060 010c 2023     		movs	r3, #32
 1061              	.LVL140:
 1062              	@ 112 "../../../ChibiOS/test/testqueues.c" 1
 1063 010e 83F31188 		msr     BASEPRI, r3
 1064              	@ 0 "" 2
 1065              	.LVL141:
 1066              		.thumb
 1067              	.LBE48:
 1068 0112 FFF7FEFF 		bl	dbg_check_lock
 1069              	.LVL142:
 1070 0116 AE68     		ldr	r6, [r5, #8]
 1071 0118 0420     		movs	r0, #4
ARM GAS  C:\Users\DNIEL~1\AppData\Local\Temp\ccTDYczq.s 			page 20


 1072 011a D6F10101 		rsbs	r1, r6, #1
 1073 011e 38BF     		it	cc
 1074 0120 0021     		movcc	r1, #0
 1075 0122 FFF7FEFF 		bl	_test_assert
 1076 0126 0646     		mov	r6, r0
 1077 0128 0028     		cmp	r0, #0
 1078 012a 40F01C81 		bne	.L54
 1079 012e FFF7FEFF 		bl	dbg_check_unlock
 1080              	.LBB49:
 1081 0132 3346     		mov	r3, r6
 1082              	.LVL143:
 1083              	@ 112 "../../../ChibiOS/test/testqueues.c" 1
 1084 0134 83F31188 		msr     BASEPRI, r3
 1085              	@ 0 "" 2
 1086              	.LVL144:
 1087              		.thumb
 1088              	.LBE49:
 1089              		.loc 1 113 0 discriminator 2
 1090 0138 0520     		movs	r0, #5
 1091 013a 7C49     		ldr	r1, .L59+4
 1092 013c FFF7FEFF 		bl	_test_assert_sequence
 1093              	.LVL145:
 1094 0140 0646     		mov	r6, r0
 1095 0142 0028     		cmp	r0, #0
 1096 0144 40F00681 		bne	.L38
 1097              	.LBB50:
 1098              		.loc 1 116 0
 1099 0148 2023     		movs	r3, #32
 1100              	.LVL146:
 1101              	@ 116 "../../../ChibiOS/test/testqueues.c" 1
 1102 014a 83F31188 		msr     BASEPRI, r3
 1103              	@ 0 "" 2
 1104              	.LVL147:
 1105              		.thumb
 1106              	.LBE50:
 1107 014e FFF7FEFF 		bl	dbg_check_lock
 1108              	.LVL148:
 1109              		.loc 1 118 0
 1110 0152 4121     		movs	r1, #65
 1111 0154 2846     		mov	r0, r5
 1112 0156 FFF7FEFF 		bl	chIQPutI
 1113              	.LVL149:
 1114 015a 4221     		movs	r1, #66
 1115 015c 2846     		mov	r0, r5
 1116 015e FFF7FEFF 		bl	chIQPutI
 1117              	.LVL150:
 1118 0162 4321     		movs	r1, #67
 1119 0164 2846     		mov	r0, r5
 1120 0166 FFF7FEFF 		bl	chIQPutI
 1121              	.LVL151:
 1122 016a 4421     		movs	r1, #68
 1123 016c 2846     		mov	r0, r5
 1124 016e FFF7FEFF 		bl	chIQPutI
 1125              	.LVL152:
 1126              		.loc 1 119 0
 1127 0172 FFF7FEFF 		bl	dbg_check_unlock
 1128              	.LBB51:
ARM GAS  C:\Users\DNIEL~1\AppData\Local\Temp\ccTDYczq.s 			page 21


 1129 0176 3346     		mov	r3, r6
 1130              	.LVL153:
 1131              	@ 119 "../../../ChibiOS/test/testqueues.c" 1
 1132 0178 83F31188 		msr     BASEPRI, r3
 1133              	@ 0 "" 2
 1134              	.LVL154:
 1135              		.thumb
 1136              	.LBE51:
 1137              		.loc 1 122 0
 1138 017c 6C4F     		ldr	r7, .L59+8
 1139 017e 0822     		movs	r2, #8
 1140 0180 7E68     		ldr	r6, [r7, #4]
 1141 0182 2846     		mov	r0, r5
 1142 0184 3146     		mov	r1, r6
 1143 0186 FFF7FEFF 		bl	chIQReadTimeout
 1144              	.LVL155:
 1145              		.loc 1 123 0
 1146 018a A0F1040C 		sub	ip, r0, #4
 1147 018e DCF10008 		rsbs	r8, ip, #0
 1148 0192 48EB0C01 		adc	r1, r8, ip
 1149 0196 0620     		movs	r0, #6
 1150              	.LVL156:
 1151 0198 FFF7FEFF 		bl	_test_assert
 1152              	.LVL157:
 1153 019c 8046     		mov	r8, r0
 1154 019e 0028     		cmp	r0, #0
 1155 01a0 40F0D880 		bne	.L38
 1156              	.LBB52:
 1157              		.loc 1 124 0
 1158 01a4 2023     		movs	r3, #32
 1159              	.LVL158:
 1160              	@ 124 "../../../ChibiOS/test/testqueues.c" 1
 1161 01a6 83F31188 		msr     BASEPRI, r3
 1162              	@ 0 "" 2
 1163              	.LVL159:
 1164              		.thumb
 1165              	.LBE52:
 1166 01aa FFF7FEFF 		bl	dbg_check_lock
 1167              	.LVL160:
 1168 01ae A968     		ldr	r1, [r5, #8]
 1169 01b0 0720     		movs	r0, #7
 1170 01b2 D1F10101 		rsbs	r1, r1, #1
 1171 01b6 38BF     		it	cc
 1172 01b8 0021     		movcc	r1, #0
 1173 01ba FFF7FEFF 		bl	_test_assert
 1174 01be 8146     		mov	r9, r0
 1175 01c0 0028     		cmp	r0, #0
 1176 01c2 40F0E180 		bne	.L55
 1177              		.loc 1 124 0 is_stmt 0 discriminator 2
 1178 01c6 FFF7FEFF 		bl	dbg_check_unlock
 1179              	.LBB53:
 1180 01ca 4B46     		mov	r3, r9
 1181              	.LVL161:
 1182              	@ 124 "../../../ChibiOS/test/testqueues.c" 1
 1183 01cc 83F31188 		msr     BASEPRI, r3
 1184              	@ 0 "" 2
 1185              	.LVL162:
ARM GAS  C:\Users\DNIEL~1\AppData\Local\Temp\ccTDYczq.s 			page 22


 1186              		.thumb
 1187              	.LBE53:
 1188              	.LBB54:
 1189              		.loc 1 127 0 is_stmt 1 discriminator 2
 1190 01d0 2023     		movs	r3, #32
 1191              	.LVL163:
 1192              	@ 127 "../../../ChibiOS/test/testqueues.c" 1
 1193 01d2 83F31188 		msr     BASEPRI, r3
 1194              	@ 0 "" 2
 1195              	.LVL164:
 1196              		.thumb
 1197              	.LBE54:
 1198 01d6 FFF7FEFF 		bl	dbg_check_lock
 1199              	.LVL165:
 1200              		.loc 1 129 0 discriminator 2
 1201 01da 4121     		movs	r1, #65
 1202 01dc 2846     		mov	r0, r5
 1203 01de FFF7FEFF 		bl	chIQPutI
 1204              	.LVL166:
 1205 01e2 4221     		movs	r1, #66
 1206 01e4 2846     		mov	r0, r5
 1207 01e6 FFF7FEFF 		bl	chIQPutI
 1208              	.LVL167:
 1209 01ea 4321     		movs	r1, #67
 1210 01ec 2846     		mov	r0, r5
 1211 01ee FFF7FEFF 		bl	chIQPutI
 1212              	.LVL168:
 1213 01f2 4421     		movs	r1, #68
 1214 01f4 2846     		mov	r0, r5
 1215 01f6 FFF7FEFF 		bl	chIQPutI
 1216              	.LVL169:
 1217              		.loc 1 130 0 discriminator 2
 1218 01fa FFF7FEFF 		bl	dbg_check_unlock
 1219              	.LBB55:
 1220 01fe 4B46     		mov	r3, r9
 1221              	.LVL170:
 1222              	@ 130 "../../../ChibiOS/test/testqueues.c" 1
 1223 0200 83F31188 		msr     BASEPRI, r3
 1224              	@ 0 "" 2
 1225              	.LVL171:
 1226              		.thumb
 1227              	.LBE55:
 1228              		.loc 1 133 0 discriminator 2
 1229 0204 0222     		movs	r2, #2
 1230 0206 3146     		mov	r1, r6
 1231 0208 2846     		mov	r0, r5
 1232 020a FFF7FEFF 		bl	chIQReadTimeout
 1233              	.LVL172:
 1234              		.loc 1 134 0 discriminator 2
 1235 020e A0F1020E 		sub	lr, r0, #2
 1236 0212 DEF10002 		rsbs	r2, lr, #0
 1237 0216 42EB0E01 		adc	r1, r2, lr
 1238 021a 0820     		movs	r0, #8
 1239              	.LVL173:
 1240 021c FFF7FEFF 		bl	_test_assert
 1241              	.LVL174:
 1242 0220 0028     		cmp	r0, #0
ARM GAS  C:\Users\DNIEL~1\AppData\Local\Temp\ccTDYczq.s 			page 23


 1243 0222 40F09780 		bne	.L38
 1244              		.loc 1 135 0
 1245 0226 0222     		movs	r2, #2
 1246 0228 0346     		mov	r3, r0
 1247 022a 3146     		mov	r1, r6
 1248 022c 2846     		mov	r0, r5
 1249 022e FFF7FEFF 		bl	chIQReadTimeout
 1250              	.LVL175:
 1251              		.loc 1 136 0
 1252 0232 A0F10200 		sub	r0, r0, #2
 1253              	.LVL176:
 1254 0236 4342     		rsbs	r3, r0, #0
 1255 0238 43EB0001 		adc	r1, r3, r0
 1256 023c 0920     		movs	r0, #9
 1257              	.LVL177:
 1258 023e FFF7FEFF 		bl	_test_assert
 1259 0242 8046     		mov	r8, r0
 1260 0244 0028     		cmp	r0, #0
 1261 0246 40F08580 		bne	.L38
 1262              	.LBB56:
 1263              		.loc 1 137 0
 1264 024a 2023     		movs	r3, #32
 1265              	.LVL178:
 1266              	@ 137 "../../../ChibiOS/test/testqueues.c" 1
 1267 024c 83F31188 		msr     BASEPRI, r3
 1268              	@ 0 "" 2
 1269              	.LVL179:
 1270              		.thumb
 1271              	.LBE56:
 1272 0250 FFF7FEFF 		bl	dbg_check_lock
 1273              	.LVL180:
 1274 0254 AE68     		ldr	r6, [r5, #8]
 1275 0256 0A20     		movs	r0, #10
 1276 0258 D6F10101 		rsbs	r1, r6, #1
 1277 025c 38BF     		it	cc
 1278 025e 0021     		movcc	r1, #0
 1279 0260 FFF7FEFF 		bl	_test_assert
 1280 0264 0646     		mov	r6, r0
 1281 0266 0028     		cmp	r0, #0
 1282 0268 40F09A80 		bne	.L56
 1283              		.loc 1 137 0 is_stmt 0 discriminator 2
 1284 026c FFF7FEFF 		bl	dbg_check_unlock
 1285              	.LBB57:
 1286 0270 3346     		mov	r3, r6
 1287              	.LVL181:
 1288              	@ 137 "../../../ChibiOS/test/testqueues.c" 1
 1289 0272 83F31188 		msr     BASEPRI, r3
 1290              	@ 0 "" 2
 1291              	.LVL182:
 1292              		.thumb
 1293              	.LBE57:
 1294              	.LBB58:
 1295              		.loc 1 140 0 is_stmt 1 discriminator 2
 1296 0276 2023     		movs	r3, #32
 1297              	.LVL183:
 1298              	@ 140 "../../../ChibiOS/test/testqueues.c" 1
 1299 0278 83F31188 		msr     BASEPRI, r3
ARM GAS  C:\Users\DNIEL~1\AppData\Local\Temp\ccTDYczq.s 			page 24


 1300              	@ 0 "" 2
 1301              	.LVL184:
 1302              		.thumb
 1303              	.LBE58:
 1304 027c FFF7FEFF 		bl	dbg_check_lock
 1305              	.LVL185:
 1306              		.loc 1 141 0 discriminator 2
 1307 0280 3146     		mov	r1, r6
 1308 0282 2846     		mov	r0, r5
 1309 0284 FFF7FEFF 		bl	chIQPutI
 1310              		.loc 1 142 0 discriminator 2
 1311 0288 2846     		mov	r0, r5
 1312 028a FFF7FEFF 		bl	chIQResetI
 1313              		.loc 1 143 0 discriminator 2
 1314 028e FFF7FEFF 		bl	dbg_check_unlock
 1315              	.LBB59:
 1316 0292 3346     		mov	r3, r6
 1317              	.LVL186:
 1318              	@ 143 "../../../ChibiOS/test/testqueues.c" 1
 1319 0294 83F31188 		msr     BASEPRI, r3
 1320              	@ 0 "" 2
 1321              	.LVL187:
 1322              		.thumb
 1323              	.LBE59:
 1324              	.LBB60:
 1325              		.loc 1 144 0 discriminator 2
 1326 0298 2023     		movs	r3, #32
 1327              	.LVL188:
 1328              	@ 144 "../../../ChibiOS/test/testqueues.c" 1
 1329 029a 83F31188 		msr     BASEPRI, r3
 1330              	@ 0 "" 2
 1331              	.LVL189:
 1332              		.thumb
 1333              	.LBE60:
 1334 029e FFF7FEFF 		bl	dbg_check_lock
 1335              	.LVL190:
 1336 02a2 A968     		ldr	r1, [r5, #8]
 1337 02a4 0B20     		movs	r0, #11
 1338 02a6 D1F10101 		rsbs	r1, r1, #1
 1339 02aa 38BF     		it	cc
 1340 02ac 0021     		movcc	r1, #0
 1341 02ae FFF7FEFF 		bl	_test_assert
 1342 02b2 0028     		cmp	r0, #0
 1343 02b4 6ED1     		bne	.L57
 1344 02b6 FFF7FEFF 		bl	dbg_check_unlock
 1345              	.LBB61:
 1346 02ba 0023     		movs	r3, #0
 1347              	.LVL191:
 1348              	@ 144 "../../../ChibiOS/test/testqueues.c" 1
 1349 02bc 83F31188 		msr     BASEPRI, r3
 1350              	@ 0 "" 2
 1351              	.LVL192:
 1352              		.thumb
 1353              	.LBE61:
 1354              		.loc 1 145 0 discriminator 2
 1355 02c0 1C48     		ldr	r0, .L59+12
 1356 02c2 1D46     		mov	r5, r3
ARM GAS  C:\Users\DNIEL~1\AppData\Local\Temp\ccTDYczq.s 			page 25


 1357 02c4 8269     		ldr	r2, [r0, #24]
 1358 02c6 4FF49871 		mov	r1, #304
 1359 02ca 9368     		ldr	r3, [r2, #8]
 1360              	.LVL193:
 1361 02cc 3868     		ldr	r0, [r7, #0]
 1362 02ce 5A1C     		adds	r2, r3, #1
 1363 02d0 194B     		ldr	r3, .L59+16
 1364 02d2 0095     		str	r5, [sp, #0]
 1365 02d4 FFF7FEFF 		bl	chThdCreateStatic
 1366 02d8 1849     		ldr	r1, .L59+20
 1367              	.LBB62:
 1368              		.loc 1 146 0 discriminator 2
 1369 02da 2023     		movs	r3, #32
 1370              	.LVL194:
 1371              	.LBE62:
 1372              		.loc 1 145 0 discriminator 2
 1373 02dc 0860     		str	r0, [r1, #0]
 1374              	.LBB63:
 1375              		.loc 1 146 0 discriminator 2
 1376              	@ 146 "../../../ChibiOS/test/testqueues.c" 1
 1377 02de 83F31188 		msr     BASEPRI, r3
 1378              	@ 0 "" 2
 1379              	.LVL195:
 1380              		.thumb
 1381              	.LBE63:
 1382 02e2 FFF7FEFF 		bl	dbg_check_lock
 1383              	.LVL196:
 1384 02e6 A268     		ldr	r2, [r4, #8]
 1385 02e8 0C20     		movs	r0, #12
 1386 02ea C5EB020C 		rsb	ip, r5, r2
 1387 02ee DCF10004 		rsbs	r4, ip, #0
 1388 02f2 44EB0C01 		adc	r1, r4, ip
 1389 02f6 FFF7FEFF 		bl	_test_assert
 1390 02fa 0446     		mov	r4, r0
 1391 02fc 0028     		cmp	r0, #0
 1392 02fe 55D1     		bne	.L58
 1393 0300 FFF7FEFF 		bl	dbg_check_unlock
 1394              	.LBB64:
 1395 0304 2346     		mov	r3, r4
 1396              	.LVL197:
 1397              	@ 146 "../../../ChibiOS/test/testqueues.c" 1
 1398 0306 83F31188 		msr     BASEPRI, r3
 1399              	@ 0 "" 2
 1400              	.LVL198:
 1401              		.thumb
 1402              	.LBE64:
 1403              		.loc 1 147 0 discriminator 2
 1404 030a FFF7FEFF 		bl	test_wait_threads
 1405              	.LVL199:
 1406              		.loc 1 150 0 discriminator 2
 1407 030e 0A21     		movs	r1, #10
 1408 0310 0548     		ldr	r0, .L59
 1409 0312 FFF7FEFF 		bl	chIQGetTimeout
 1410 0316 A0F1FF31 		sub	r1, r0, #-1
 1411 031a D1F1000C 		rsbs	ip, r1, #0
 1412 031e 4CEB0101 		adc	r1, ip, r1
 1413 0322 0D20     		movs	r0, #13
ARM GAS  C:\Users\DNIEL~1\AppData\Local\Temp\ccTDYczq.s 			page 26


 1414 0324 0CE0     		b	.L60
 1415              	.L61:
 1416 0326 00BF     		.align	2
 1417              	.L59:
 1418 0328 00000000 		.word	.LANCHOR1
 1419 032c 00000000 		.word	.LC0
 1420 0330 00000000 		.word	wa
 1421 0334 00000000 		.word	rlist
 1422 0338 00000000 		.word	thread1
 1423 033c 00000000 		.word	threads
 1424              	.L60:
 1425              		.loc 1 151 0 discriminator 2
 1426 0340 03B0     		add	sp, sp, #12
 1427 0342 BDE8F043 		pop	{r4, r5, r6, r7, r8, r9, lr}
 1428              		.loc 1 150 0 discriminator 2
 1429 0346 FFF7FEBF 		b	_test_assert
 1430              	.L52:
 1431              		.loc 1 106 0 discriminator 5
 1432 034a FFF7FEFF 		bl	dbg_check_unlock
 1433              	.LBB65:
 1434 034e 0023     		movs	r3, #0
 1435              	.LVL200:
 1436              	@ 106 "../../../ChibiOS/test/testqueues.c" 1
 1437 0350 83F31188 		msr     BASEPRI, r3
 1438              	@ 0 "" 2
 1439              	.LVL201:
 1440              		.thumb
 1441              	.L38:
 1442              	.LBE65:
 1443              		.loc 1 151 0
 1444 0354 03B0     		add	sp, sp, #12
 1445 0356 BDE8F083 		pop	{r4, r5, r6, r7, r8, r9, pc}
 1446              	.LVL202:
 1447              	.L50:
 1448              		.loc 1 99 0 discriminator 1
 1449 035a FFF7FEFF 		bl	dbg_check_unlock
 1450              	.LBB66:
 1451 035e 0023     		movs	r3, #0
 1452              	@ 99 "../../../ChibiOS/test/testqueues.c" 1
 1453 0360 83F31188 		msr     BASEPRI, r3
 1454              	@ 0 "" 2
 1455              	.LVL203:
 1456              		.thumb
 1457              	.LBE66:
 1458 0364 F6E7     		b	.L38
 1459              	.LVL204:
 1460              	.L54:
 1461              		.loc 1 112 0 discriminator 1
 1462 0366 FFF7FEFF 		bl	dbg_check_unlock
 1463              	.LBB67:
 1464 036a 3B46     		mov	r3, r7
 1465              	@ 112 "../../../ChibiOS/test/testqueues.c" 1
 1466 036c 83F31188 		msr     BASEPRI, r3
 1467              	@ 0 "" 2
 1468              	.LVL205:
 1469              		.thumb
 1470              	.LBE67:
ARM GAS  C:\Users\DNIEL~1\AppData\Local\Temp\ccTDYczq.s 			page 27


 1471 0370 F0E7     		b	.L38
 1472              	.LVL206:
 1473              	.L53:
 1474              		.loc 1 107 0 discriminator 1
 1475 0372 FFF7FEFF 		bl	dbg_check_unlock
 1476              	.LBB68:
 1477 0376 3346     		mov	r3, r6
 1478              	@ 107 "../../../ChibiOS/test/testqueues.c" 1
 1479 0378 83F31188 		msr     BASEPRI, r3
 1480              	@ 0 "" 2
 1481              	.LVL207:
 1482              		.thumb
 1483              	.LBE68:
 1484 037c EAE7     		b	.L38
 1485              	.LVL208:
 1486              	.L51:
 1487              		.loc 1 94 0 discriminator 1
 1488 037e A068     		ldr	r0, [r4, #8]
 1489 0380 011E     		subs	r1, r0, #0
 1490 0382 18BF     		it	ne
 1491 0384 0121     		movne	r1, #1
 1492 0386 7AE6     		b	.L41
 1493              	.L55:
 1494              		.loc 1 124 0 discriminator 1
 1495 0388 FFF7FEFF 		bl	dbg_check_unlock
 1496              	.LBB69:
 1497 038c 4346     		mov	r3, r8
 1498              	@ 124 "../../../ChibiOS/test/testqueues.c" 1
 1499 038e 83F31188 		msr     BASEPRI, r3
 1500              	@ 0 "" 2
 1501              	.LVL209:
 1502              		.thumb
 1503              	.LBE69:
 1504 0392 DFE7     		b	.L38
 1505              	.LVL210:
 1506              	.L57:
 1507              		.loc 1 144 0 discriminator 1
 1508 0394 FFF7FEFF 		bl	dbg_check_unlock
 1509              	.LBB70:
 1510 0398 0023     		movs	r3, #0
 1511              	@ 144 "../../../ChibiOS/test/testqueues.c" 1
 1512 039a 83F31188 		msr     BASEPRI, r3
 1513              	@ 0 "" 2
 1514              	.LVL211:
 1515              		.thumb
 1516              	.LBE70:
 1517 039e D9E7     		b	.L38
 1518              	.LVL212:
 1519              	.L56:
 1520              		.loc 1 137 0 discriminator 1
 1521 03a0 FFF7FEFF 		bl	dbg_check_unlock
 1522              	.LBB71:
 1523 03a4 4346     		mov	r3, r8
 1524              	@ 137 "../../../ChibiOS/test/testqueues.c" 1
 1525 03a6 83F31188 		msr     BASEPRI, r3
 1526              	@ 0 "" 2
 1527              	.LVL213:
ARM GAS  C:\Users\DNIEL~1\AppData\Local\Temp\ccTDYczq.s 			page 28


 1528              		.thumb
 1529              	.LBE71:
 1530 03aa D3E7     		b	.L38
 1531              	.LVL214:
 1532              	.L58:
 1533              		.loc 1 146 0 discriminator 1
 1534 03ac FFF7FEFF 		bl	dbg_check_unlock
 1535              	.LBB72:
 1536 03b0 2B46     		mov	r3, r5
 1537              	@ 146 "../../../ChibiOS/test/testqueues.c" 1
 1538 03b2 83F31188 		msr     BASEPRI, r3
 1539              	@ 0 "" 2
 1540              	.LVL215:
 1541              		.thumb
 1542 03b6 CDE7     		b	.L38
 1543              	.LBE72:
 1544              		.cfi_endproc
 1545              	.LFE10:
 1546              		.size	queues1_execute, .-queues1_execute
 1547 03b8 AFF30080 		.section	.text.queues1_setup,"ax",%progbits
 1547      AFF30080 
 1548              		.align	2
 1549              		.p2align 4,,15
 1550              		.thumb
 1551              		.thumb_func
 1552              		.type	queues1_setup, %function
 1553              	queues1_setup:
 1554              	.LFB8:
 1555              		.loc 1 82 0
 1556              		.cfi_startproc
 1557              		@ args = 0, pretend = 0, frame = 0
 1558              		@ frame_needed = 0, uses_anonymous_args = 0
 1559 0000 10B5     		push	{r4, lr}
 1560              	.LCFI8:
 1561              		.cfi_def_cfa_offset 8
 1562              		.loc 1 84 0
 1563 0002 064B     		ldr	r3, .L63
 1564              		.loc 1 82 0
 1565 0004 82B0     		sub	sp, sp, #8
 1566              	.LCFI9:
 1567              		.cfi_def_cfa_offset 16
 1568              		.loc 1 84 0
 1569 0006 1968     		ldr	r1, [r3, #0]
 1570 0008 0024     		movs	r4, #0
 1571              		.cfi_offset 14, -4
 1572              		.cfi_offset 4, -8
 1573 000a 0548     		ldr	r0, .L63+4
 1574 000c 0422     		movs	r2, #4
 1575 000e 054B     		ldr	r3, .L63+8
 1576 0010 0094     		str	r4, [sp, #0]
 1577 0012 FFF7FEFF 		bl	chIQInit
 1578              		.loc 1 85 0
 1579 0016 02B0     		add	sp, sp, #8
 1580 0018 10BD     		pop	{r4, pc}
 1581              	.L64:
 1582 001a 00BF     		.align	2
 1583              	.L63:
ARM GAS  C:\Users\DNIEL~1\AppData\Local\Temp\ccTDYczq.s 			page 29


 1584 001c 00000000 		.word	wa
 1585 0020 00000000 		.word	.LANCHOR1
 1586 0024 00000000 		.word	notify
 1587              		.cfi_endproc
 1588              	.LFE8:
 1589              		.size	queues1_setup, .-queues1_setup
 1590              		.global	testqueues1
 1591              		.global	testqueues2
 1592              		.global	patternqueues
 1593              		.section	.rodata.testqueues1,"a",%progbits
 1594              		.align	2
 1595              		.type	testqueues1, %object
 1596              		.size	testqueues1, 16
 1597              	testqueues1:
 1598 0000 08000000 		.word	.LC1
 1599 0004 00000000 		.word	queues1_setup
 1600 0008 00000000 		.word	0
 1601 000c 00000000 		.word	queues1_execute
 1602              		.section	.rodata.testqueues2,"a",%progbits
 1603              		.align	2
 1604              		.type	testqueues2, %object
 1605              		.size	testqueues2, 16
 1606              	testqueues2:
 1607 0000 20000000 		.word	.LC2
 1608 0004 00000000 		.word	queues2_setup
 1609 0008 00000000 		.word	0
 1610 000c 00000000 		.word	queues2_execute
 1611              		.section	.rodata.str1.4,"aMS",%progbits,1
 1612              		.align	2
 1613              	.LC0:
 1614 0000 41424344 		.ascii	"ABCD\000"
 1614      00
 1615 0005 000000   		.space	3
 1616              	.LC1:
 1617 0008 51756575 		.ascii	"Queues, input queues\000"
 1617      65732C20 
 1617      696E7075 
 1617      74207175 
 1617      65756573 
 1618 001d 000000   		.space	3
 1619              	.LC2:
 1620 0020 51756575 		.ascii	"Queues, output queues\000"
 1620      65732C20 
 1620      6F757470 
 1620      75742071 
 1620      75657565 
 1621 0036 0000     		.section	.rodata.patternqueues,"a",%progbits
 1622              		.align	2
 1623              		.type	patternqueues, %object
 1624              		.size	patternqueues, 12
 1625              	patternqueues:
 1626 0000 00000000 		.word	testqueues1
 1627 0004 00000000 		.word	testqueues2
 1628 0008 00000000 		.word	0
 1629              		.section	.data.oq,"aw",%progbits
 1630              		.align	2
 1631              		.set	.LANCHOR0,. + 0
ARM GAS  C:\Users\DNIEL~1\AppData\Local\Temp\ccTDYczq.s 			page 30


 1632              		.type	oq, %object
 1633              		.size	oq, 36
 1634              	oq:
 1635 0000 00000000 		.word	oq
 1636 0004 00000000 		.word	oq
 1637 0008 04000000 		.word	4
 1638 000c 30010000 		.word	test+304
 1639 0010 34010000 		.word	test+308
 1640 0014 30010000 		.word	test+304
 1641 0018 30010000 		.word	test+304
 1642 001c 00000000 		.word	notify
 1643 0020 00000000 		.word	0
 1644              		.section	.data.iq,"aw",%progbits
 1645              		.align	2
 1646              		.set	.LANCHOR1,. + 0
 1647              		.type	iq, %object
 1648              		.size	iq, 36
 1649              	iq:
 1650 0000 00000000 		.word	iq
 1651 0004 00000000 		.word	iq
 1652 0008 00000000 		.word	0
 1653 000c 00000000 		.word	test
 1654 0010 04000000 		.word	test+4
 1655 0014 00000000 		.word	test
 1656 0018 00000000 		.word	test
 1657 001c 00000000 		.word	notify
 1658 0020 00000000 		.word	0
 1659              		.text
 1660              	.Letext0: