ARM GAS  C:\Users\DNIEL~1\AppData\Local\Temp\ccjO8mzD.s 			page 1


   1              		.syntax unified
   2              		.cpu cortex-m3
   3              		.fpu softvfp
   4              		.eabi_attribute 20, 1
   5              		.eabi_attribute 21, 1
   6              		.eabi_attribute 23, 3
   7              		.eabi_attribute 24, 1
   8              		.eabi_attribute 25, 1
   9              		.eabi_attribute 26, 1
  10              		.eabi_attribute 30, 2
  11              		.eabi_attribute 18, 4
  12              		.thumb
  13              		.file	"testmbox.c"
  20 0000 D2020000 		.text
  20      02006D01 
  20      00000201 
  20      FB0E0D00 
  20      01010101 
  21              	.Ltext0:
  22              		.cfi_sections	.debug_frame
  23              		.section	.text.mbox1_execute,"ax",%progbits
  24              		.align	2
  25              		.p2align 4,,15
  26              		.thumb
  27              		.thumb_func
  28              		.type	mbox1_execute, %function
  29              	mbox1_execute:
  30              	.LFB8:
  31              		.file 1 "../../../ChibiOS/test/testmbox.c"
  32              		.loc 1 80 0
  33              		.cfi_startproc
  34              		@ args = 0, pretend = 0, frame = 8
  35              		@ frame_needed = 0, uses_anonymous_args = 0
  36 0000 70B5     		push	{r4, r5, r6, lr}
  37              	.LCFI0:
  38              		.cfi_def_cfa_offset 16
  39              		.loc 1 87 0
  40 0002 2B4C     		ldr	r4, .L36
  41              		.cfi_offset 14, -4
  42              		.cfi_offset 6, -8
  43              		.cfi_offset 5, -12
  44              		.cfi_offset 4, -16
  45 0004 0120     		movs	r0, #1
  46 0006 626A     		ldr	r2, [r4, #36]
  47              		.loc 1 80 0
  48 0008 82B0     		sub	sp, sp, #8
  49              	.LCFI1:
  50              		.cfi_def_cfa_offset 24
  51              		.loc 1 87 0
  52 000a A2F1050E 		sub	lr, r2, #5
  53 000e DEF10001 		rsbs	r1, lr, #0
ARM GAS  C:\Users\DNIEL~1\AppData\Local\Temp\ccjO8mzD.s 			page 2


  54 0012 41EB0E01 		adc	r1, r1, lr
  55 0016 FFF7FEFF 		bl	_test_assert
  56 001a 0028     		cmp	r0, #0
  57 001c 45D1     		bne	.L1
  58              		.loc 1 93 0
  59 001e 4221     		movs	r1, #66
  60 0020 2046     		mov	r0, r4
  61 0022 4FF0FF32 		mov	r2, #-1
  62 0026 FFF7FEFF 		bl	chMBPost
  63              	.LVL0:
  64              		.loc 1 94 0
  65 002a D0F10101 		rsbs	r1, r0, #1
  66 002e 38BF     		it	cc
  67 0030 0021     		movcc	r1, #0
  68 0032 0220     		movs	r0, #2
  69              	.LVL1:
  70 0034 FFF7FEFF 		bl	_test_assert
  71 0038 B8BB     		cbnz	r0, .L1
  72              	.LVL2:
  73              		.loc 1 93 0
  74 003a 4321     		movs	r1, #67
  75 003c 2046     		mov	r0, r4
  76 003e 4FF0FF32 		mov	r2, #-1
  77 0042 FFF7FEFF 		bl	chMBPost
  78              	.LVL3:
  79              		.loc 1 94 0
  80 0046 D0F10101 		rsbs	r1, r0, #1
  81 004a 38BF     		it	cc
  82 004c 0021     		movcc	r1, #0
  83 004e 0220     		movs	r0, #2
  84              	.LVL4:
  85 0050 FFF7FEFF 		bl	_test_assert
  86 0054 48BB     		cbnz	r0, .L1
  87              	.LVL5:
  88              		.loc 1 93 0
  89 0056 4421     		movs	r1, #68
  90 0058 2046     		mov	r0, r4
  91 005a 4FF0FF32 		mov	r2, #-1
  92 005e FFF7FEFF 		bl	chMBPost
  93              	.LVL6:
  94              		.loc 1 94 0
  95 0062 D0F10101 		rsbs	r1, r0, #1
  96 0066 38BF     		it	cc
  97 0068 0021     		movcc	r1, #0
  98 006a 0220     		movs	r0, #2
  99              	.LVL7:
 100 006c FFF7FEFF 		bl	_test_assert
 101 0070 D8B9     		cbnz	r0, .L1
 102              	.LVL8:
 103              		.loc 1 93 0
 104 0072 4521     		movs	r1, #69
 105 0074 2046     		mov	r0, r4
 106 0076 4FF0FF32 		mov	r2, #-1
 107 007a FFF7FEFF 		bl	chMBPost
 108              	.LVL9:
 109              		.loc 1 94 0
 110 007e D0F10101 		rsbs	r1, r0, #1
ARM GAS  C:\Users\DNIEL~1\AppData\Local\Temp\ccjO8mzD.s 			page 3


 111 0082 38BF     		it	cc
 112 0084 0021     		movcc	r1, #0
 113 0086 0220     		movs	r0, #2
 114              	.LVL10:
 115 0088 FFF7FEFF 		bl	_test_assert
 116 008c 68B9     		cbnz	r0, .L1
 117              	.LVL11:
 118              		.loc 1 96 0
 119 008e 4121     		movs	r1, #65
 120 0090 2046     		mov	r0, r4
 121 0092 4FF0FF32 		mov	r2, #-1
 122 0096 FFF7FEFF 		bl	chMBPostAhead
 123              	.LVL12:
 124              		.loc 1 97 0
 125 009a D0F10101 		rsbs	r1, r0, #1
 126 009e 38BF     		it	cc
 127 00a0 0021     		movcc	r1, #0
 128 00a2 0320     		movs	r0, #3
 129              	.LVL13:
 130 00a4 FFF7FEFF 		bl	_test_assert
 131 00a8 20B1     		cbz	r0, .L22
 132              	.LVL14:
 133              	.L1:
 134              		.loc 1 224 0
 135 00aa 02B0     		add	sp, sp, #8
 136 00ac 70BD     		pop	{r4, r5, r6, pc}
 137              	.L37:
 138 00ae 00BF     		.align	2
 139              	.L36:
 140 00b0 00000000 		.word	.LANCHOR0
 141              	.LVL15:
 142              	.L22:
 143              		.loc 1 102 0
 144 00b4 5821     		movs	r1, #88
 145 00b6 0122     		movs	r2, #1
 146 00b8 2046     		mov	r0, r4
 147 00ba FFF7FEFF 		bl	chMBPost
 148              	.LVL16:
 149              		.loc 1 103 0
 150 00be A0F1FF33 		sub	r3, r0, #-1
 151 00c2 5842     		rsbs	r0, r3, #0
 152              	.LVL17:
 153 00c4 40EB0301 		adc	r1, r0, r3
 154 00c8 0420     		movs	r0, #4
 155 00ca FFF7FEFF 		bl	_test_assert
 156              	.LVL18:
 157 00ce 0546     		mov	r5, r0
 158 00d0 0028     		cmp	r0, #0
 159 00d2 EAD1     		bne	.L1
 160              	.LBB2:
 161              		.loc 1 104 0
 162 00d4 2023     		movs	r3, #32
 163              	.LVL19:
 164              	@ 104 "../../../ChibiOS/test/testmbox.c" 1
 165 00d6 83F31188 		msr     BASEPRI, r3
 166              	@ 0 "" 2
 167              	.LVL20:
ARM GAS  C:\Users\DNIEL~1\AppData\Local\Temp\ccjO8mzD.s 			page 4


 168              		.thumb
 169              	.LBE2:
 170 00da FFF7FEFF 		bl	dbg_check_lock
 171              	.LVL21:
 172              		.loc 1 105 0
 173 00de 5821     		movs	r1, #88
 174 00e0 2046     		mov	r0, r4
 175 00e2 FFF7FEFF 		bl	chMBPostI
 176 00e6 0646     		mov	r6, r0
 177              	.LVL22:
 178              		.loc 1 106 0
 179 00e8 FFF7FEFF 		bl	dbg_check_unlock
 180              	.LVL23:
 181              	.LBB3:
 182 00ec 2B46     		mov	r3, r5
 183              	.LVL24:
 184              	@ 106 "../../../ChibiOS/test/testmbox.c" 1
 185 00ee 83F31188 		msr     BASEPRI, r3
 186              	@ 0 "" 2
 187              	.LVL25:
 188              		.thumb
 189              	.LBE3:
 190              		.loc 1 107 0
 191 00f2 A6F1FF31 		sub	r1, r6, #-1
 192 00f6 0520     		movs	r0, #5
 193 00f8 D1F1000C 		rsbs	ip, r1, #0
 194 00fc 4CEB0101 		adc	r1, ip, r1
 195 0100 FFF7FEFF 		bl	_test_assert
 196              	.LVL26:
 197 0104 0028     		cmp	r0, #0
 198 0106 D0D1     		bne	.L1
 199              		.loc 1 108 0
 200 0108 5821     		movs	r1, #88
 201 010a 0122     		movs	r2, #1
 202 010c 2046     		mov	r0, r4
 203 010e FFF7FEFF 		bl	chMBPostAhead
 204              	.LVL27:
 205              		.loc 1 109 0
 206 0112 A0F1FF32 		sub	r2, r0, #-1
 207 0116 5542     		rsbs	r5, r2, #0
 208 0118 45EB0201 		adc	r1, r5, r2
 209 011c 0620     		movs	r0, #6
 210              	.LVL28:
 211 011e FFF7FEFF 		bl	_test_assert
 212              	.LVL29:
 213 0122 0546     		mov	r5, r0
 214 0124 0028     		cmp	r0, #0
 215 0126 C0D1     		bne	.L1
 216              	.LBB4:
 217              		.loc 1 110 0
 218 0128 2023     		movs	r3, #32
 219              	.LVL30:
 220              	@ 110 "../../../ChibiOS/test/testmbox.c" 1
 221 012a 83F31188 		msr     BASEPRI, r3
 222              	@ 0 "" 2
 223              	.LVL31:
 224              		.thumb
ARM GAS  C:\Users\DNIEL~1\AppData\Local\Temp\ccjO8mzD.s 			page 5


 225              	.LBE4:
 226 012e FFF7FEFF 		bl	dbg_check_lock
 227              	.LVL32:
 228              		.loc 1 111 0
 229 0132 5821     		movs	r1, #88
 230 0134 2046     		mov	r0, r4
 231 0136 FFF7FEFF 		bl	chMBPostAheadI
 232 013a 0646     		mov	r6, r0
 233              	.LVL33:
 234              		.loc 1 112 0
 235 013c FFF7FEFF 		bl	dbg_check_unlock
 236              	.LVL34:
 237              	.LBB5:
 238 0140 2B46     		mov	r3, r5
 239              	.LVL35:
 240              	@ 112 "../../../ChibiOS/test/testmbox.c" 1
 241 0142 83F31188 		msr     BASEPRI, r3
 242              	@ 0 "" 2
 243              	.LVL36:
 244              		.thumb
 245              	.LBE5:
 246              		.loc 1 113 0
 247 0146 A6F1FF3E 		sub	lr, r6, #-1
 248 014a 0720     		movs	r0, #7
 249 014c DEF10003 		rsbs	r3, lr, #0
 250              	.LVL37:
 251 0150 43EB0E01 		adc	r1, r3, lr
 252 0154 FFF7FEFF 		bl	_test_assert
 253 0158 0028     		cmp	r0, #0
 254 015a A6D1     		bne	.L1
 255              	.LBB6:
 256              		.loc 1 118 0
 257 015c 2023     		movs	r3, #32
 258              	.LVL38:
 259              	@ 118 "../../../ChibiOS/test/testmbox.c" 1
 260 015e 83F31188 		msr     BASEPRI, r3
 261              	@ 0 "" 2
 262              	.LVL39:
 263              		.thumb
 264              	.LBE6:
 265 0162 FFF7FEFF 		bl	dbg_check_lock
 266              	.LVL40:
 267 0166 666A     		ldr	r6, [r4, #36]
 268              	.LVL41:
 269 0168 0820     		movs	r0, #8
 270 016a D6F10101 		rsbs	r1, r6, #1
 271 016e 38BF     		it	cc
 272 0170 0021     		movcc	r1, #0
 273 0172 FFF7FEFF 		bl	_test_assert
 274 0176 0646     		mov	r6, r0
 275 0178 0028     		cmp	r0, #0
 276 017a 40F03283 		bne	.L23
 277              		.loc 1 118 0 is_stmt 0 discriminator 2
 278 017e FFF7FEFF 		bl	dbg_check_unlock
 279              	.LBB7:
 280 0182 3346     		mov	r3, r6
 281              	.LVL42:
ARM GAS  C:\Users\DNIEL~1\AppData\Local\Temp\ccjO8mzD.s 			page 6


 282              	@ 118 "../../../ChibiOS/test/testmbox.c" 1
 283 0184 83F31188 		msr     BASEPRI, r3
 284              	@ 0 "" 2
 285              	.LVL43:
 286              		.thumb
 287              	.LBE7:
 288              	.LBB8:
 289              		.loc 1 119 0 is_stmt 1 discriminator 2
 290 0188 2023     		movs	r3, #32
 291              	.LVL44:
 292              	@ 119 "../../../ChibiOS/test/testmbox.c" 1
 293 018a 83F31188 		msr     BASEPRI, r3
 294              	@ 0 "" 2
 295              	.LVL45:
 296              		.thumb
 297              	.LBE8:
 298 018e FFF7FEFF 		bl	dbg_check_lock
 299              	.LVL46:
 300 0192 A569     		ldr	r5, [r4, #24]
 301 0194 0920     		movs	r0, #9
 302 0196 A5F10501 		sub	r1, r5, #5
 303 019a D1F1000C 		rsbs	ip, r1, #0
 304 019e 4CEB0101 		adc	r1, ip, r1
 305 01a2 FFF7FEFF 		bl	_test_assert
 306 01a6 0546     		mov	r5, r0
 307 01a8 0028     		cmp	r0, #0
 308 01aa 40F02083 		bne	.L24
 309 01ae FFF7FEFF 		bl	dbg_check_unlock
 310              	.LBB9:
 311 01b2 2B46     		mov	r3, r5
 312              	.LVL47:
 313              	@ 119 "../../../ChibiOS/test/testmbox.c" 1
 314 01b4 83F31188 		msr     BASEPRI, r3
 315              	@ 0 "" 2
 316              	.LVL48:
 317              		.thumb
 318              	.LBE9:
 319              	.LBB10:
 320              		.loc 1 120 0 discriminator 2
 321 01b8 2023     		movs	r3, #32
 322              	.LVL49:
 323              	@ 120 "../../../ChibiOS/test/testmbox.c" 1
 324 01ba 83F31188 		msr     BASEPRI, r3
 325              	@ 0 "" 2
 326              	.LVL50:
 327              		.thumb
 328              	.LBE10:
 329 01be FFF7FEFF 		bl	dbg_check_lock
 330              	.LVL51:
 331 01c2 E668     		ldr	r6, [r4, #12]
 332 01c4 A168     		ldr	r1, [r4, #8]
 333 01c6 0A20     		movs	r0, #10
 334 01c8 721A     		subs	r2, r6, r1
 335 01ca 5342     		rsbs	r3, r2, #0
 336 01cc 43EB0201 		adc	r1, r3, r2
 337 01d0 FFF7FEFF 		bl	_test_assert
 338 01d4 0646     		mov	r6, r0
ARM GAS  C:\Users\DNIEL~1\AppData\Local\Temp\ccjO8mzD.s 			page 7


 339 01d6 0028     		cmp	r0, #0
 340 01d8 40F00F83 		bne	.L25
 341 01dc FFF7FEFF 		bl	dbg_check_unlock
 342              	.LBB11:
 343 01e0 3346     		mov	r3, r6
 344              	.LVL52:
 345              	@ 120 "../../../ChibiOS/test/testmbox.c" 1
 346 01e2 83F31188 		msr     BASEPRI, r3
 347              	@ 0 "" 2
 348              	.LVL53:
 349              		.thumb
 350              	.LBE11:
 351              		.loc 1 126 0 discriminator 2
 352 01e6 4FF0FF32 		mov	r2, #-1
 353 01ea 01A9     		add	r1, sp, #4
 354 01ec 2046     		mov	r0, r4
 355 01ee FFF7FEFF 		bl	chMBFetch
 356              	.LVL54:
 357              		.loc 1 127 0 discriminator 2
 358 01f2 D0F10101 		rsbs	r1, r0, #1
 359 01f6 38BF     		it	cc
 360 01f8 0021     		movcc	r1, #0
 361 01fa 0B20     		movs	r0, #11
 362              	.LVL55:
 363 01fc FFF7FEFF 		bl	_test_assert
 364 0200 0028     		cmp	r0, #0
 365 0202 7FF452AF 		bne	.L1
 366              		.loc 1 128 0
 367 0206 9DF80400 		ldrb	r0, [sp, #4]	@ zero_extendqisi2
 368 020a FFF7FEFF 		bl	test_emit_token
 369              	.LVL56:
 370              		.loc 1 126 0
 371 020e 01A9     		add	r1, sp, #4
 372 0210 2046     		mov	r0, r4
 373 0212 4FF0FF32 		mov	r2, #-1
 374 0216 FFF7FEFF 		bl	chMBFetch
 375              	.LVL57:
 376              		.loc 1 127 0
 377 021a D0F10101 		rsbs	r1, r0, #1
 378 021e 38BF     		it	cc
 379 0220 0021     		movcc	r1, #0
 380 0222 0B20     		movs	r0, #11
 381              	.LVL58:
 382 0224 FFF7FEFF 		bl	_test_assert
 383 0228 0028     		cmp	r0, #0
 384 022a 7FF43EAF 		bne	.L1
 385              		.loc 1 128 0
 386 022e 9DF80400 		ldrb	r0, [sp, #4]	@ zero_extendqisi2
 387 0232 FFF7FEFF 		bl	test_emit_token
 388              	.LVL59:
 389              		.loc 1 126 0
 390 0236 01A9     		add	r1, sp, #4
 391 0238 2046     		mov	r0, r4
 392 023a 4FF0FF32 		mov	r2, #-1
 393 023e FFF7FEFF 		bl	chMBFetch
 394              	.LVL60:
 395              		.loc 1 127 0
ARM GAS  C:\Users\DNIEL~1\AppData\Local\Temp\ccjO8mzD.s 			page 8


 396 0242 D0F10101 		rsbs	r1, r0, #1
 397 0246 38BF     		it	cc
 398 0248 0021     		movcc	r1, #0
 399 024a 0B20     		movs	r0, #11
 400              	.LVL61:
 401 024c FFF7FEFF 		bl	_test_assert
 402 0250 0028     		cmp	r0, #0
 403 0252 7FF42AAF 		bne	.L1
 404              		.loc 1 128 0
 405 0256 9DF80400 		ldrb	r0, [sp, #4]	@ zero_extendqisi2
 406 025a FFF7FEFF 		bl	test_emit_token
 407              	.LVL62:
 408              		.loc 1 126 0
 409 025e 01A9     		add	r1, sp, #4
 410 0260 2046     		mov	r0, r4
 411 0262 4FF0FF32 		mov	r2, #-1
 412 0266 FFF7FEFF 		bl	chMBFetch
 413              	.LVL63:
 414              		.loc 1 127 0
 415 026a D0F10101 		rsbs	r1, r0, #1
 416 026e 38BF     		it	cc
 417 0270 0021     		movcc	r1, #0
 418 0272 0B20     		movs	r0, #11
 419              	.LVL64:
 420 0274 FFF7FEFF 		bl	_test_assert
 421 0278 0028     		cmp	r0, #0
 422 027a 7FF416AF 		bne	.L1
 423              		.loc 1 128 0
 424 027e 9DF80400 		ldrb	r0, [sp, #4]	@ zero_extendqisi2
 425 0282 FFF7FEFF 		bl	test_emit_token
 426              	.LVL65:
 427              		.loc 1 126 0
 428 0286 01A9     		add	r1, sp, #4
 429 0288 2046     		mov	r0, r4
 430 028a 4FF0FF32 		mov	r2, #-1
 431 028e FFF7FEFF 		bl	chMBFetch
 432              	.LVL66:
 433              		.loc 1 127 0
 434 0292 D0F10101 		rsbs	r1, r0, #1
 435 0296 38BF     		it	cc
 436 0298 0021     		movcc	r1, #0
 437 029a 0B20     		movs	r0, #11
 438              	.LVL67:
 439 029c FFF7FEFF 		bl	_test_assert
 440 02a0 0028     		cmp	r0, #0
 441 02a2 7FF402AF 		bne	.L1
 442              		.loc 1 128 0
 443 02a6 9DF80400 		ldrb	r0, [sp, #4]	@ zero_extendqisi2
 444 02aa FFF7FEFF 		bl	test_emit_token
 445              	.LVL68:
 446              		.loc 1 130 0
 447 02ae 0C20     		movs	r0, #12
 448 02b0 CC49     		ldr	r1, .L38
 449 02b2 FFF7FEFF 		bl	_test_assert_sequence
 450 02b6 0028     		cmp	r0, #0
 451 02b8 7FF4F7AE 		bne	.L1
 452              		.loc 1 135 0
ARM GAS  C:\Users\DNIEL~1\AppData\Local\Temp\ccjO8mzD.s 			page 9


 453 02bc 4721     		movs	r1, #71
 454 02be 2046     		mov	r0, r4
 455 02c0 4FF0FF32 		mov	r2, #-1
 456 02c4 FFF7FEFF 		bl	chMBPost
 457              	.LVL69:
 458              		.loc 1 136 0
 459 02c8 D0F10101 		rsbs	r1, r0, #1
 460 02cc 38BF     		it	cc
 461 02ce 0021     		movcc	r1, #0
 462 02d0 0D20     		movs	r0, #13
 463              	.LVL70:
 464 02d2 FFF7FEFF 		bl	_test_assert
 465 02d6 0028     		cmp	r0, #0
 466 02d8 7FF4E7AE 		bne	.L1
 467              		.loc 1 137 0
 468 02dc C24C     		ldr	r4, .L38+4
 469 02de 01A9     		add	r1, sp, #4
 470 02e0 2046     		mov	r0, r4
 471 02e2 4FF0FF32 		mov	r2, #-1
 472 02e6 FFF7FEFF 		bl	chMBFetch
 473              	.LVL71:
 474              		.loc 1 138 0
 475 02ea D0F10101 		rsbs	r1, r0, #1
 476 02ee 38BF     		it	cc
 477 02f0 0021     		movcc	r1, #0
 478 02f2 0E20     		movs	r0, #14
 479              	.LVL72:
 480 02f4 FFF7FEFF 		bl	_test_assert
 481 02f8 0028     		cmp	r0, #0
 482 02fa 7FF4D6AE 		bne	.L1
 483              		.loc 1 139 0
 484 02fe 2268     		ldr	r2, [r4, #0]
 485 0300 A368     		ldr	r3, [r4, #8]
 486 0302 0F30     		adds	r0, r0, #15
 487 0304 C3EB020C 		rsb	ip, r3, r2
 488 0308 DCF1000E 		rsbs	lr, ip, #0
 489 030c 4EEB0C01 		adc	r1, lr, ip
 490 0310 FFF7FEFF 		bl	_test_assert
 491 0314 0028     		cmp	r0, #0
 492 0316 7FF4C8AE 		bne	.L1
 493              		.loc 1 140 0
 494 031a 2268     		ldr	r2, [r4, #0]
 495 031c E368     		ldr	r3, [r4, #12]
 496 031e 1030     		adds	r0, r0, #16
 497 0320 C3EB020E 		rsb	lr, r3, r2
 498 0324 DEF10001 		rsbs	r1, lr, #0
 499 0328 41EB0E01 		adc	r1, r1, lr
 500 032c FFF7FEFF 		bl	_test_assert
 501 0330 0028     		cmp	r0, #0
 502 0332 7FF4BAAE 		bne	.L1
 503              		.loc 1 145 0
 504 0336 0122     		movs	r2, #1
 505 0338 01A9     		add	r1, sp, #4
 506 033a 2046     		mov	r0, r4
 507 033c FFF7FEFF 		bl	chMBFetch
 508              	.LVL73:
 509              		.loc 1 146 0
ARM GAS  C:\Users\DNIEL~1\AppData\Local\Temp\ccjO8mzD.s 			page 10


 510 0340 A0F1FF35 		sub	r5, r0, #-1
 511 0344 6842     		rsbs	r0, r5, #0
 512              	.LVL74:
 513 0346 40EB0501 		adc	r1, r0, r5
 514 034a 1120     		movs	r0, #17
 515 034c FFF7FEFF 		bl	_test_assert
 516 0350 0546     		mov	r5, r0
 517              	.LVL75:
 518 0352 0028     		cmp	r0, #0
 519 0354 7FF4A9AE 		bne	.L1
 520              	.LBB12:
 521              		.loc 1 147 0
 522 0358 2023     		movs	r3, #32
 523              	.LVL76:
 524              	@ 147 "../../../ChibiOS/test/testmbox.c" 1
 525 035a 83F31188 		msr     BASEPRI, r3
 526              	@ 0 "" 2
 527              	.LVL77:
 528              		.thumb
 529              	.LBE12:
 530 035e FFF7FEFF 		bl	dbg_check_lock
 531              	.LVL78:
 532              		.loc 1 148 0
 533 0362 01A9     		add	r1, sp, #4
 534 0364 2046     		mov	r0, r4
 535 0366 FFF7FEFF 		bl	chMBFetchI
 536 036a 0646     		mov	r6, r0
 537              	.LVL79:
 538              		.loc 1 149 0
 539 036c FFF7FEFF 		bl	dbg_check_unlock
 540              	.LVL80:
 541              	.LBB13:
 542 0370 2B46     		mov	r3, r5
 543              	.LVL81:
 544              	@ 149 "../../../ChibiOS/test/testmbox.c" 1
 545 0372 83F31188 		msr     BASEPRI, r3
 546              	@ 0 "" 2
 547              	.LVL82:
 548              		.thumb
 549              	.LBE13:
 550              		.loc 1 150 0
 551 0376 A6F1FF31 		sub	r1, r6, #-1
 552 037a 1220     		movs	r0, #18
 553 037c D1F1000C 		rsbs	ip, r1, #0
 554 0380 4CEB0101 		adc	r1, ip, r1
 555 0384 FFF7FEFF 		bl	_test_assert
 556              	.LVL83:
 557 0388 0546     		mov	r5, r0
 558 038a 0028     		cmp	r0, #0
 559 038c 7FF48DAE 		bne	.L1
 560              	.LBB14:
 561              		.loc 1 155 0
 562 0390 2023     		movs	r3, #32
 563              	.LVL84:
 564              	@ 155 "../../../ChibiOS/test/testmbox.c" 1
 565 0392 83F31188 		msr     BASEPRI, r3
 566              	@ 0 "" 2
ARM GAS  C:\Users\DNIEL~1\AppData\Local\Temp\ccjO8mzD.s 			page 11


 567              	.LVL85:
 568              		.thumb
 569              	.LBE14:
 570 0396 FFF7FEFF 		bl	dbg_check_lock
 571              	.LVL86:
 572 039a 636A     		ldr	r3, [r4, #36]
 573 039c 1320     		movs	r0, #19
 574 039e A3F10502 		sub	r2, r3, #5
 575 03a2 5642     		rsbs	r6, r2, #0
 576              	.LVL87:
 577 03a4 46EB0201 		adc	r1, r6, r2
 578 03a8 FFF7FEFF 		bl	_test_assert
 579 03ac 0646     		mov	r6, r0
 580 03ae 0028     		cmp	r0, #0
 581 03b0 40F03B82 		bne	.L26
 582              		.loc 1 155 0 is_stmt 0 discriminator 2
 583 03b4 FFF7FEFF 		bl	dbg_check_unlock
 584              	.LBB15:
 585 03b8 3346     		mov	r3, r6
 586              	.LVL88:
 587              	@ 155 "../../../ChibiOS/test/testmbox.c" 1
 588 03ba 83F31188 		msr     BASEPRI, r3
 589              	@ 0 "" 2
 590              	.LVL89:
 591              		.thumb
 592              	.LBE15:
 593              	.LBB16:
 594              		.loc 1 156 0 is_stmt 1 discriminator 2
 595 03be 2023     		movs	r3, #32
 596              	.LVL90:
 597              	@ 156 "../../../ChibiOS/test/testmbox.c" 1
 598 03c0 83F31188 		msr     BASEPRI, r3
 599              	@ 0 "" 2
 600              	.LVL91:
 601              		.thumb
 602              	.LBE16:
 603 03c4 FFF7FEFF 		bl	dbg_check_lock
 604              	.LVL92:
 605 03c8 A569     		ldr	r5, [r4, #24]
 606 03ca 1420     		movs	r0, #20
 607 03cc D5F10101 		rsbs	r1, r5, #1
 608 03d0 38BF     		it	cc
 609 03d2 0021     		movcc	r1, #0
 610 03d4 FFF7FEFF 		bl	_test_assert
 611 03d8 0546     		mov	r5, r0
 612 03da 0028     		cmp	r0, #0
 613 03dc 40F01F82 		bne	.L27
 614 03e0 FFF7FEFF 		bl	dbg_check_unlock
 615              	.LBB17:
 616 03e4 2B46     		mov	r3, r5
 617              	.LVL93:
 618              	@ 156 "../../../ChibiOS/test/testmbox.c" 1
 619 03e6 83F31188 		msr     BASEPRI, r3
 620              	@ 0 "" 2
 621              	.LVL94:
 622              		.thumb
 623              	.LBE17:
ARM GAS  C:\Users\DNIEL~1\AppData\Local\Temp\ccjO8mzD.s 			page 12


 624              	.LBB18:
 625              		.loc 1 157 0 discriminator 2
 626 03ea 2023     		movs	r3, #32
 627              	.LVL95:
 628              	@ 157 "../../../ChibiOS/test/testmbox.c" 1
 629 03ec 83F31188 		msr     BASEPRI, r3
 630              	@ 0 "" 2
 631              	.LVL96:
 632              		.thumb
 633              	.LBE18:
 634 03f0 FFF7FEFF 		bl	dbg_check_lock
 635              	.LVL97:
 636 03f4 A668     		ldr	r6, [r4, #8]
 637 03f6 E268     		ldr	r2, [r4, #12]
 638 03f8 1520     		movs	r0, #21
 639 03fa 911B     		subs	r1, r2, r6
 640 03fc D1F1000C 		rsbs	ip, r1, #0
 641 0400 4CEB0101 		adc	r1, ip, r1
 642 0404 FFF7FEFF 		bl	_test_assert
 643 0408 0646     		mov	r6, r0
 644 040a 0028     		cmp	r0, #0
 645 040c 40F0FB81 		bne	.L28
 646 0410 FFF7FEFF 		bl	dbg_check_unlock
 647              	.LBB19:
 648 0414 3346     		mov	r3, r6
 649              	.LVL98:
 650              	@ 157 "../../../ChibiOS/test/testmbox.c" 1
 651 0416 83F31188 		msr     BASEPRI, r3
 652              	@ 0 "" 2
 653              	.LVL99:
 654              		.thumb
 655              	.LBE19:
 656              	.LBB20:
 657              		.loc 1 162 0 discriminator 2
 658 041a 2023     		movs	r3, #32
 659              	.LVL100:
 660              	@ 162 "../../../ChibiOS/test/testmbox.c" 1
 661 041c 83F31188 		msr     BASEPRI, r3
 662              	@ 0 "" 2
 663              	.LVL101:
 664              		.thumb
 665              	.LBE20:
 666 0420 FFF7FEFF 		bl	dbg_check_lock
 667              	.LVL102:
 668              		.loc 1 163 0 discriminator 2
 669 0424 4121     		movs	r1, #65
 670 0426 2046     		mov	r0, r4
 671 0428 FFF7FEFF 		bl	chMBPostI
 672              	.LVL103:
 673              		.loc 1 164 0 discriminator 2
 674 042c D0F10101 		rsbs	r1, r0, #1
 675 0430 38BF     		it	cc
 676 0432 0021     		movcc	r1, #0
 677 0434 1620     		movs	r0, #22
 678              	.LVL104:
 679 0436 FFF7FEFF 		bl	_test_assert
 680 043a 0028     		cmp	r0, #0
ARM GAS  C:\Users\DNIEL~1\AppData\Local\Temp\ccjO8mzD.s 			page 13


 681 043c 7FF435AE 		bne	.L1
 682              		.loc 1 165 0
 683 0440 4221     		movs	r1, #66
 684 0442 2046     		mov	r0, r4
 685 0444 FFF7FEFF 		bl	chMBPostI
 686              	.LVL105:
 687              		.loc 1 166 0
 688 0448 D0F10101 		rsbs	r1, r0, #1
 689 044c 38BF     		it	cc
 690 044e 0021     		movcc	r1, #0
 691 0450 1720     		movs	r0, #23
 692              	.LVL106:
 693 0452 FFF7FEFF 		bl	_test_assert
 694 0456 0028     		cmp	r0, #0
 695 0458 7FF427AE 		bne	.L1
 696              		.loc 1 167 0
 697 045c 624C     		ldr	r4, .L38+4
 698 045e 4321     		movs	r1, #67
 699 0460 2046     		mov	r0, r4
 700 0462 FFF7FEFF 		bl	chMBPostI
 701              	.LVL107:
 702              		.loc 1 168 0
 703 0466 D0F10101 		rsbs	r1, r0, #1
 704 046a 38BF     		it	cc
 705 046c 0021     		movcc	r1, #0
 706 046e 1820     		movs	r0, #24
 707              	.LVL108:
 708 0470 FFF7FEFF 		bl	_test_assert
 709 0474 0028     		cmp	r0, #0
 710 0476 7FF418AE 		bne	.L1
 711              		.loc 1 169 0
 712 047a 4421     		movs	r1, #68
 713 047c 2046     		mov	r0, r4
 714 047e FFF7FEFF 		bl	chMBPostI
 715              	.LVL109:
 716              		.loc 1 170 0
 717 0482 D0F10101 		rsbs	r1, r0, #1
 718 0486 38BF     		it	cc
 719 0488 0021     		movcc	r1, #0
 720 048a 1920     		movs	r0, #25
 721              	.LVL110:
 722 048c FFF7FEFF 		bl	_test_assert
 723 0490 0546     		mov	r5, r0
 724 0492 0028     		cmp	r0, #0
 725 0494 7FF409AE 		bne	.L1
 726              		.loc 1 171 0
 727 0498 4521     		movs	r1, #69
 728 049a 2046     		mov	r0, r4
 729 049c FFF7FEFF 		bl	chMBPostI
 730 04a0 0646     		mov	r6, r0
 731              	.LVL111:
 732              		.loc 1 172 0
 733 04a2 FFF7FEFF 		bl	dbg_check_unlock
 734              	.LVL112:
 735              	.LBB21:
 736 04a6 2B46     		mov	r3, r5
 737              	.LVL113:
ARM GAS  C:\Users\DNIEL~1\AppData\Local\Temp\ccjO8mzD.s 			page 14


 738              	@ 172 "../../../ChibiOS/test/testmbox.c" 1
 739 04a8 83F31188 		msr     BASEPRI, r3
 740              	@ 0 "" 2
 741              	.LVL114:
 742              		.thumb
 743              	.LBE21:
 744              		.loc 1 173 0
 745 04ac 1A20     		movs	r0, #26
 746 04ae D6F10101 		rsbs	r1, r6, #1
 747 04b2 38BF     		it	cc
 748 04b4 0021     		movcc	r1, #0
 749 04b6 FFF7FEFF 		bl	_test_assert
 750              	.LVL115:
 751 04ba 0028     		cmp	r0, #0
 752 04bc 7FF4F5AD 		bne	.L1
 753              		.loc 1 174 0
 754 04c0 E168     		ldr	r1, [r4, #12]
 755 04c2 A268     		ldr	r2, [r4, #8]
 756 04c4 1B30     		adds	r0, r0, #27
 757 04c6 8B1A     		subs	r3, r1, r2
 758 04c8 D3F1000E 		rsbs	lr, r3, #0
 759 04cc 4EEB0301 		adc	r1, lr, r3
 760 04d0 FFF7FEFF 		bl	_test_assert
 761 04d4 0028     		cmp	r0, #0
 762 04d6 7FF4E8AD 		bne	.L1
 763 04da 0535     		adds	r5, r5, #5
 764              	.LVL116:
 765              	.L9:
 766              	.LBB22:
 767              		.loc 1 176 0
 768 04dc 2023     		movs	r3, #32
 769              	.LVL117:
 770              	@ 176 "../../../ChibiOS/test/testmbox.c" 1
 771 04de 83F31188 		msr     BASEPRI, r3
 772              	@ 0 "" 2
 773              	.LVL118:
 774              		.thumb
 775              	.LBE22:
 776              		.loc 1 177 0
 777 04e2 414C     		ldr	r4, .L38+4
 778              		.loc 1 176 0
 779 04e4 FFF7FEFF 		bl	dbg_check_lock
 780              	.LVL119:
 781              		.loc 1 177 0
 782 04e8 01A9     		add	r1, sp, #4
 783 04ea 2046     		mov	r0, r4
 784 04ec FFF7FEFF 		bl	chMBFetchI
 785 04f0 0646     		mov	r6, r0
 786              	.LVL120:
 787              		.loc 1 178 0
 788 04f2 FFF7FEFF 		bl	dbg_check_unlock
 789              	.LVL121:
 790              	.LBB23:
 791 04f6 0023     		movs	r3, #0
 792              	.LVL122:
 793              	@ 178 "../../../ChibiOS/test/testmbox.c" 1
 794 04f8 83F31188 		msr     BASEPRI, r3
ARM GAS  C:\Users\DNIEL~1\AppData\Local\Temp\ccjO8mzD.s 			page 15


 795              	@ 0 "" 2
 796              	.LVL123:
 797              		.thumb
 798              	.LBE23:
 799              		.loc 1 179 0
 800 04fc C3EB060E 		rsb	lr, r3, r6
 801              	.LVL124:
 802 0500 1C20     		movs	r0, #28
 803 0502 DEF1000C 		rsbs	ip, lr, #0
 804 0506 4CEB0E01 		adc	r1, ip, lr
 805 050a FFF7FEFF 		bl	_test_assert
 806 050e 0028     		cmp	r0, #0
 807 0510 7FF4CBAD 		bne	.L1
 808              		.loc 1 180 0
 809 0514 9DF80400 		ldrb	r0, [sp, #4]	@ zero_extendqisi2
 810 0518 FFF7FEFF 		bl	test_emit_token
 811              		.loc 1 175 0
 812 051c 013D     		subs	r5, r5, #1
 813 051e DDD1     		bne	.L9
 814              		.loc 1 182 0
 815 0520 1D20     		movs	r0, #29
 816 0522 3049     		ldr	r1, .L38
 817 0524 FFF7FEFF 		bl	_test_assert_sequence
 818 0528 0028     		cmp	r0, #0
 819 052a 7FF4BEAD 		bne	.L1
 820              	.LBB24:
 821              		.loc 1 183 0
 822 052e 2023     		movs	r3, #32
 823              	.LVL125:
 824              	@ 183 "../../../ChibiOS/test/testmbox.c" 1
 825 0530 83F31188 		msr     BASEPRI, r3
 826              	@ 0 "" 2
 827              	.LVL126:
 828              		.thumb
 829              	.LBE24:
 830 0534 FFF7FEFF 		bl	dbg_check_lock
 831              	.LVL127:
 832 0538 626A     		ldr	r2, [r4, #36]
 833 053a 1E20     		movs	r0, #30
 834 053c A2F10501 		sub	r1, r2, #5
 835 0540 4B42     		rsbs	r3, r1, #0
 836 0542 43EB0101 		adc	r1, r3, r1
 837 0546 FFF7FEFF 		bl	_test_assert
 838 054a 0028     		cmp	r0, #0
 839 054c 40F07381 		bne	.L29
 840              		.loc 1 183 0 is_stmt 0 discriminator 2
 841 0550 FFF7FEFF 		bl	dbg_check_unlock
 842              	.LBB25:
 843 0554 2B46     		mov	r3, r5
 844              	.LVL128:
 845              	@ 183 "../../../ChibiOS/test/testmbox.c" 1
 846 0556 83F31188 		msr     BASEPRI, r3
 847              	@ 0 "" 2
 848              	.LVL129:
 849              		.thumb
 850              	.LBE25:
 851              	.LBB26:
ARM GAS  C:\Users\DNIEL~1\AppData\Local\Temp\ccjO8mzD.s 			page 16


 852              		.loc 1 184 0 is_stmt 1 discriminator 2
 853 055a 2023     		movs	r3, #32
 854              	.LVL130:
 855              	@ 184 "../../../ChibiOS/test/testmbox.c" 1
 856 055c 83F31188 		msr     BASEPRI, r3
 857              	@ 0 "" 2
 858              	.LVL131:
 859              		.thumb
 860              	.LBE26:
 861 0560 FFF7FEFF 		bl	dbg_check_lock
 862              	.LVL132:
 863 0564 A369     		ldr	r3, [r4, #24]
 864 0566 1F20     		movs	r0, #31
 865 0568 D3F10101 		rsbs	r1, r3, #1
 866 056c 38BF     		it	cc
 867 056e 0021     		movcc	r1, #0
 868 0570 FFF7FEFF 		bl	_test_assert
 869 0574 0028     		cmp	r0, #0
 870 0576 40F04C81 		bne	.L30
 871 057a FFF7FEFF 		bl	dbg_check_unlock
 872              	.LBB27:
 873 057e 2B46     		mov	r3, r5
 874              	.LVL133:
 875              	@ 184 "../../../ChibiOS/test/testmbox.c" 1
 876 0580 83F31188 		msr     BASEPRI, r3
 877              	@ 0 "" 2
 878              	.LVL134:
 879              		.thumb
 880              	.LBE27:
 881              		.loc 1 185 0 discriminator 2
 882 0584 E368     		ldr	r3, [r4, #12]
 883              	.LVL135:
 884 0586 A268     		ldr	r2, [r4, #8]
 885 0588 2020     		movs	r0, #32
 886 058a 991A     		subs	r1, r3, r2
 887 058c D1F1000C 		rsbs	ip, r1, #0
 888 0590 4CEB0101 		adc	r1, ip, r1
 889 0594 FFF7FEFF 		bl	_test_assert
 890 0598 0028     		cmp	r0, #0
 891 059a 7FF486AD 		bne	.L1
 892              	.LBB28:
 893              		.loc 1 187 0
 894 059e 2023     		movs	r3, #32
 895              	.LVL136:
 896              	@ 187 "../../../ChibiOS/test/testmbox.c" 1
 897 05a0 83F31188 		msr     BASEPRI, r3
 898              	@ 0 "" 2
 899              	.LVL137:
 900              		.thumb
 901              	.LBE28:
 902 05a4 FFF7FEFF 		bl	dbg_check_lock
 903              	.LVL138:
 904              		.loc 1 188 0
 905 05a8 4521     		movs	r1, #69
 906 05aa 2046     		mov	r0, r4
 907 05ac FFF7FEFF 		bl	chMBPostAheadI
 908              	.LVL139:
ARM GAS  C:\Users\DNIEL~1\AppData\Local\Temp\ccjO8mzD.s 			page 17


 909              		.loc 1 189 0
 910 05b0 D0F10101 		rsbs	r1, r0, #1
 911 05b4 38BF     		it	cc
 912 05b6 0021     		movcc	r1, #0
 913 05b8 2120     		movs	r0, #33
 914              	.LVL140:
 915 05ba FFF7FEFF 		bl	_test_assert
 916 05be 0028     		cmp	r0, #0
 917 05c0 7FF473AD 		bne	.L1
 918              		.loc 1 190 0
 919 05c4 4421     		movs	r1, #68
 920 05c6 2046     		mov	r0, r4
 921 05c8 FFF7FEFF 		bl	chMBPostAheadI
 922              	.LVL141:
 923              		.loc 1 191 0
 924 05cc D0F10101 		rsbs	r1, r0, #1
 925 05d0 38BF     		it	cc
 926 05d2 0021     		movcc	r1, #0
 927 05d4 2220     		movs	r0, #34
 928              	.LVL142:
 929 05d6 FFF7FEFF 		bl	_test_assert
 930 05da 0028     		cmp	r0, #0
 931 05dc 7FF465AD 		bne	.L1
 932 05e0 04E0     		b	.L39
 933              	.L40:
 934 05e2 00BF     		.align	2
 935              	.L38:
 936 05e4 00000000 		.word	.LC0
 937 05e8 00000000 		.word	.LANCHOR0
 938              	.L39:
 939              		.loc 1 192 0
 940 05ec 4321     		movs	r1, #67
 941 05ee 2046     		mov	r0, r4
 942 05f0 FFF7FEFF 		bl	chMBPostAheadI
 943              	.LVL143:
 944              		.loc 1 193 0
 945 05f4 D0F10101 		rsbs	r1, r0, #1
 946 05f8 38BF     		it	cc
 947 05fa 0021     		movcc	r1, #0
 948 05fc 2320     		movs	r0, #35
 949              	.LVL144:
 950 05fe FFF7FEFF 		bl	_test_assert
 951 0602 0028     		cmp	r0, #0
 952 0604 7FF451AD 		bne	.L1
 953              		.loc 1 194 0
 954 0608 4221     		movs	r1, #66
 955 060a 2046     		mov	r0, r4
 956 060c FFF7FEFF 		bl	chMBPostAheadI
 957              	.LVL145:
 958              		.loc 1 195 0
 959 0610 D0F10101 		rsbs	r1, r0, #1
 960 0614 38BF     		it	cc
 961 0616 0021     		movcc	r1, #0
 962 0618 2420     		movs	r0, #36
 963              	.LVL146:
 964 061a FFF7FEFF 		bl	_test_assert
 965 061e 0028     		cmp	r0, #0
ARM GAS  C:\Users\DNIEL~1\AppData\Local\Temp\ccjO8mzD.s 			page 18


 966 0620 7FF443AD 		bne	.L1
 967              		.loc 1 196 0
 968 0624 964C     		ldr	r4, .L41
 969 0626 4121     		movs	r1, #65
 970 0628 2046     		mov	r0, r4
 971 062a FFF7FEFF 		bl	chMBPostAheadI
 972 062e 0546     		mov	r5, r0
 973              	.LVL147:
 974              		.loc 1 197 0
 975 0630 FFF7FEFF 		bl	dbg_check_unlock
 976              	.LVL148:
 977              	.LBB29:
 978 0634 0023     		movs	r3, #0
 979              	.LVL149:
 980              	@ 197 "../../../ChibiOS/test/testmbox.c" 1
 981 0636 83F31188 		msr     BASEPRI, r3
 982              	@ 0 "" 2
 983              	.LVL150:
 984              		.thumb
 985              	.LBE29:
 986              		.loc 1 198 0
 987 063a C3EB050C 		rsb	ip, r3, r5
 988              	.LVL151:
 989 063e 2520     		movs	r0, #37
 990 0640 DCF10001 		rsbs	r1, ip, #0
 991 0644 41EB0C01 		adc	r1, r1, ip
 992 0648 FFF7FEFF 		bl	_test_assert
 993 064c 0028     		cmp	r0, #0
 994 064e 7FF42CAD 		bne	.L1
 995              		.loc 1 199 0
 996 0652 E168     		ldr	r1, [r4, #12]
 997 0654 A368     		ldr	r3, [r4, #8]
 998 0656 2630     		adds	r0, r0, #38
 999 0658 C3EB010E 		rsb	lr, r3, r1
 1000 065c DEF10002 		rsbs	r2, lr, #0
 1001 0660 42EB0E01 		adc	r1, r2, lr
 1002 0664 FFF7FEFF 		bl	_test_assert
 1003 0668 0028     		cmp	r0, #0
 1004 066a 7FF41EAD 		bne	.L1
 1005 066e 0524     		movs	r4, #5
 1006              	.LVL152:
 1007              	.L12:
 1008              	.LBB30:
 1009              		.loc 1 201 0
 1010 0670 2023     		movs	r3, #32
 1011              	.LVL153:
 1012              	@ 201 "../../../ChibiOS/test/testmbox.c" 1
 1013 0672 83F31188 		msr     BASEPRI, r3
 1014              	@ 0 "" 2
 1015              	.LVL154:
 1016              		.thumb
 1017              	.LBE30:
 1018              		.loc 1 202 0
 1019 0676 824D     		ldr	r5, .L41
 1020              		.loc 1 201 0
 1021 0678 FFF7FEFF 		bl	dbg_check_lock
 1022              	.LVL155:
ARM GAS  C:\Users\DNIEL~1\AppData\Local\Temp\ccjO8mzD.s 			page 19


 1023              		.loc 1 202 0
 1024 067c 01A9     		add	r1, sp, #4
 1025 067e 2846     		mov	r0, r5
 1026 0680 FFF7FEFF 		bl	chMBFetchI
 1027 0684 0646     		mov	r6, r0
 1028              	.LVL156:
 1029              		.loc 1 203 0
 1030 0686 FFF7FEFF 		bl	dbg_check_unlock
 1031              	.LVL157:
 1032              	.LBB31:
 1033 068a 0023     		movs	r3, #0
 1034              	.LVL158:
 1035              	@ 203 "../../../ChibiOS/test/testmbox.c" 1
 1036 068c 83F31188 		msr     BASEPRI, r3
 1037              	@ 0 "" 2
 1038              	.LVL159:
 1039              		.thumb
 1040              	.LBE31:
 1041              		.loc 1 204 0
 1042 0690 F21A     		subs	r2, r6, r3
 1043              	.LVL160:
 1044 0692 2720     		movs	r0, #39
 1045 0694 D2F1000C 		rsbs	ip, r2, #0
 1046 0698 4CEB0201 		adc	r1, ip, r2
 1047 069c FFF7FEFF 		bl	_test_assert
 1048 06a0 0028     		cmp	r0, #0
 1049 06a2 7FF402AD 		bne	.L1
 1050              		.loc 1 205 0
 1051 06a6 9DF80400 		ldrb	r0, [sp, #4]	@ zero_extendqisi2
 1052 06aa FFF7FEFF 		bl	test_emit_token
 1053              		.loc 1 200 0
 1054 06ae 013C     		subs	r4, r4, #1
 1055 06b0 DED1     		bne	.L12
 1056              		.loc 1 207 0
 1057 06b2 2820     		movs	r0, #40
 1058 06b4 7349     		ldr	r1, .L41+4
 1059 06b6 FFF7FEFF 		bl	_test_assert_sequence
 1060 06ba 0028     		cmp	r0, #0
 1061 06bc 7FF4F5AC 		bne	.L1
 1062              	.LBB32:
 1063              		.loc 1 208 0
 1064 06c0 2023     		movs	r3, #32
 1065              	.LVL161:
 1066              	@ 208 "../../../ChibiOS/test/testmbox.c" 1
 1067 06c2 83F31188 		msr     BASEPRI, r3
 1068              	@ 0 "" 2
 1069              	.LVL162:
 1070              		.thumb
 1071              	.LBE32:
 1072 06c6 FFF7FEFF 		bl	dbg_check_lock
 1073              	.LVL163:
 1074 06ca 6A6A     		ldr	r2, [r5, #36]
 1075 06cc 2920     		movs	r0, #41
 1076 06ce A2F10503 		sub	r3, r2, #5
 1077 06d2 5942     		rsbs	r1, r3, #0
 1078 06d4 41EB0301 		adc	r1, r1, r3
 1079 06d8 FFF7FEFF 		bl	_test_assert
ARM GAS  C:\Users\DNIEL~1\AppData\Local\Temp\ccjO8mzD.s 			page 20


 1080 06dc 0028     		cmp	r0, #0
 1081 06de 40F0C880 		bne	.L31
 1082              		.loc 1 208 0 is_stmt 0 discriminator 2
 1083 06e2 FFF7FEFF 		bl	dbg_check_unlock
 1084              	.LBB33:
 1085 06e6 2346     		mov	r3, r4
 1086              	.LVL164:
 1087              	@ 208 "../../../ChibiOS/test/testmbox.c" 1
 1088 06e8 83F31188 		msr     BASEPRI, r3
 1089              	@ 0 "" 2
 1090              	.LVL165:
 1091              		.thumb
 1092              	.LBE33:
 1093              	.LBB34:
 1094              		.loc 1 209 0 is_stmt 1 discriminator 2
 1095 06ec 2023     		movs	r3, #32
 1096              	.LVL166:
 1097              	@ 209 "../../../ChibiOS/test/testmbox.c" 1
 1098 06ee 83F31188 		msr     BASEPRI, r3
 1099              	@ 0 "" 2
 1100              	.LVL167:
 1101              		.thumb
 1102              	.LBE34:
 1103 06f2 FFF7FEFF 		bl	dbg_check_lock
 1104              	.LVL168:
 1105 06f6 A969     		ldr	r1, [r5, #24]
 1106 06f8 2A20     		movs	r0, #42
 1107 06fa D1F10101 		rsbs	r1, r1, #1
 1108 06fe 38BF     		it	cc
 1109 0700 0021     		movcc	r1, #0
 1110 0702 FFF7FEFF 		bl	_test_assert
 1111 0706 0028     		cmp	r0, #0
 1112 0708 40F0AD80 		bne	.L32
 1113 070c FFF7FEFF 		bl	dbg_check_unlock
 1114              	.LBB35:
 1115 0710 2346     		mov	r3, r4
 1116              	.LVL169:
 1117              	@ 209 "../../../ChibiOS/test/testmbox.c" 1
 1118 0712 83F31188 		msr     BASEPRI, r3
 1119              	@ 0 "" 2
 1120              	.LVL170:
 1121              		.thumb
 1122              	.LBE35:
 1123              		.loc 1 210 0 discriminator 2
 1124 0716 A968     		ldr	r1, [r5, #8]
 1125 0718 EA68     		ldr	r2, [r5, #12]
 1126 071a 2B20     		movs	r0, #43
 1127 071c C1EB020C 		rsb	ip, r1, r2
 1128 0720 DCF10003 		rsbs	r3, ip, #0
 1129              	.LVL171:
 1130 0724 43EB0C01 		adc	r1, r3, ip
 1131 0728 FFF7FEFF 		bl	_test_assert
 1132 072c 0028     		cmp	r0, #0
 1133 072e 7FF4BCAC 		bne	.L1
 1134              		.loc 1 215 0
 1135 0732 2846     		mov	r0, r5
 1136 0734 FFF7FEFF 		bl	chMBReset
ARM GAS  C:\Users\DNIEL~1\AppData\Local\Temp\ccjO8mzD.s 			page 21


 1137              	.LBB36:
 1138              		.loc 1 220 0
 1139 0738 2023     		movs	r3, #32
 1140              	.LVL172:
 1141              	@ 220 "../../../ChibiOS/test/testmbox.c" 1
 1142 073a 83F31188 		msr     BASEPRI, r3
 1143              	@ 0 "" 2
 1144              	.LVL173:
 1145              		.thumb
 1146              	.LBE36:
 1147 073e FFF7FEFF 		bl	dbg_check_lock
 1148              	.LVL174:
 1149 0742 6A6A     		ldr	r2, [r5, #36]
 1150 0744 2C20     		movs	r0, #44
 1151 0746 A2F1050E 		sub	lr, r2, #5
 1152 074a DEF10003 		rsbs	r3, lr, #0
 1153 074e 43EB0E01 		adc	r1, r3, lr
 1154 0752 FFF7FEFF 		bl	_test_assert
 1155 0756 0028     		cmp	r0, #0
 1156 0758 7FD1     		bne	.L33
 1157              		.loc 1 220 0 is_stmt 0 discriminator 2
 1158 075a FFF7FEFF 		bl	dbg_check_unlock
 1159              	.LBB37:
 1160 075e 2346     		mov	r3, r4
 1161              	.LVL175:
 1162              	@ 220 "../../../ChibiOS/test/testmbox.c" 1
 1163 0760 83F31188 		msr     BASEPRI, r3
 1164              	@ 0 "" 2
 1165              	.LVL176:
 1166              		.thumb
 1167              	.LBE37:
 1168              	.LBB38:
 1169              		.loc 1 221 0 is_stmt 1 discriminator 2
 1170 0764 2023     		movs	r3, #32
 1171              	.LVL177:
 1172              	@ 221 "../../../ChibiOS/test/testmbox.c" 1
 1173 0766 83F31188 		msr     BASEPRI, r3
 1174              	@ 0 "" 2
 1175              	.LVL178:
 1176              		.thumb
 1177              	.LBE38:
 1178 076a FFF7FEFF 		bl	dbg_check_lock
 1179              	.LVL179:
 1180 076e A969     		ldr	r1, [r5, #24]
 1181 0770 2D20     		movs	r0, #45
 1182 0772 D1F10101 		rsbs	r1, r1, #1
 1183 0776 38BF     		it	cc
 1184 0778 0021     		movcc	r1, #0
 1185 077a FFF7FEFF 		bl	_test_assert
 1186 077e 0028     		cmp	r0, #0
 1187 0780 65D1     		bne	.L34
 1188 0782 FFF7FEFF 		bl	dbg_check_unlock
 1189              	.LBB39:
 1190 0786 2346     		mov	r3, r4
 1191              	.LVL180:
 1192              	@ 221 "../../../ChibiOS/test/testmbox.c" 1
 1193 0788 83F31188 		msr     BASEPRI, r3
ARM GAS  C:\Users\DNIEL~1\AppData\Local\Temp\ccjO8mzD.s 			page 22


 1194              	@ 0 "" 2
 1195              	.LVL181:
 1196              		.thumb
 1197              	.LBE39:
 1198              	.LBB40:
 1199              		.loc 1 222 0 discriminator 2
 1200 078c 2023     		movs	r3, #32
 1201              	.LVL182:
 1202              	@ 222 "../../../ChibiOS/test/testmbox.c" 1
 1203 078e 83F31188 		msr     BASEPRI, r3
 1204              	@ 0 "" 2
 1205              	.LVL183:
 1206              		.thumb
 1207              	.LBE40:
 1208 0792 FFF7FEFF 		bl	dbg_check_lock
 1209              	.LVL184:
 1210 0796 A968     		ldr	r1, [r5, #8]
 1211 0798 2A68     		ldr	r2, [r5, #0]
 1212 079a 2E20     		movs	r0, #46
 1213 079c 531A     		subs	r3, r2, r1
 1214 079e D3F1000C 		rsbs	ip, r3, #0
 1215 07a2 4CEB0301 		adc	r1, ip, r3
 1216 07a6 FFF7FEFF 		bl	_test_assert
 1217 07aa 0028     		cmp	r0, #0
 1218 07ac 49D1     		bne	.L35
 1219 07ae FFF7FEFF 		bl	dbg_check_unlock
 1220              	.LBB41:
 1221 07b2 2346     		mov	r3, r4
 1222              	.LVL185:
 1223              	@ 222 "../../../ChibiOS/test/testmbox.c" 1
 1224 07b4 83F31188 		msr     BASEPRI, r3
 1225              	@ 0 "" 2
 1226              	.LVL186:
 1227              		.thumb
 1228              	.LBE41:
 1229              	.LBB42:
 1230              		.loc 1 223 0 discriminator 2
 1231 07b8 2023     		movs	r3, #32
 1232              	.LVL187:
 1233              	@ 223 "../../../ChibiOS/test/testmbox.c" 1
 1234 07ba 83F31188 		msr     BASEPRI, r3
 1235              	@ 0 "" 2
 1236              	.LVL188:
 1237              		.thumb
 1238              	.LBE42:
 1239 07be FFF7FEFF 		bl	dbg_check_lock
 1240              	.LVL189:
 1241 07c2 2968     		ldr	r1, [r5, #0]
 1242 07c4 EA68     		ldr	r2, [r5, #12]
 1243 07c6 2F20     		movs	r0, #47
 1244 07c8 8B1A     		subs	r3, r1, r2
 1245 07ca D3F1000C 		rsbs	ip, r3, #0
 1246 07ce 4CEB0301 		adc	r1, ip, r3
 1247 07d2 FFF7FEFF 		bl	_test_assert
 1248 07d6 FFF7FEFF 		bl	dbg_check_unlock
 1249              	.LBB43:
 1250 07da 0023     		movs	r3, #0
ARM GAS  C:\Users\DNIEL~1\AppData\Local\Temp\ccjO8mzD.s 			page 23


 1251              	@ 223 "../../../ChibiOS/test/testmbox.c" 1
 1252 07dc 83F31188 		msr     BASEPRI, r3
 1253              	@ 0 "" 2
 1254              	.LVL190:
 1255              		.thumb
 1256 07e0 63E4     		b	.L1
 1257              	.LVL191:
 1258              	.L23:
 1259              	.LBE43:
 1260              		.loc 1 118 0 discriminator 1
 1261 07e2 FFF7FEFF 		bl	dbg_check_unlock
 1262              	.LBB44:
 1263 07e6 0023     		movs	r3, #0
 1264              	@ 118 "../../../ChibiOS/test/testmbox.c" 1
 1265 07e8 83F31188 		msr     BASEPRI, r3
 1266              	@ 0 "" 2
 1267              	.LVL192:
 1268              		.thumb
 1269              	.LBE44:
 1270 07ec 5DE4     		b	.L1
 1271              	.LVL193:
 1272              	.L24:
 1273              		.loc 1 119 0 discriminator 1
 1274 07ee FFF7FEFF 		bl	dbg_check_unlock
 1275              	.LBB45:
 1276 07f2 3346     		mov	r3, r6
 1277              	@ 119 "../../../ChibiOS/test/testmbox.c" 1
 1278 07f4 83F31188 		msr     BASEPRI, r3
 1279              	@ 0 "" 2
 1280              	.LVL194:
 1281              		.thumb
 1282              	.LBE45:
 1283 07f8 57E4     		b	.L1
 1284              	.LVL195:
 1285              	.L25:
 1286              		.loc 1 120 0 discriminator 1
 1287 07fa FFF7FEFF 		bl	dbg_check_unlock
 1288              	.LBB46:
 1289 07fe 2B46     		mov	r3, r5
 1290              	@ 120 "../../../ChibiOS/test/testmbox.c" 1
 1291 0800 83F31188 		msr     BASEPRI, r3
 1292              	@ 0 "" 2
 1293              	.LVL196:
 1294              		.thumb
 1295              	.LBE46:
 1296 0804 51E4     		b	.L1
 1297              	.LVL197:
 1298              	.L28:
 1299              		.loc 1 157 0 discriminator 1
 1300 0806 FFF7FEFF 		bl	dbg_check_unlock
 1301              	.LBB47:
 1302 080a 2B46     		mov	r3, r5
 1303              	@ 157 "../../../ChibiOS/test/testmbox.c" 1
 1304 080c 83F31188 		msr     BASEPRI, r3
 1305              	@ 0 "" 2
 1306              	.LVL198:
 1307              		.thumb
ARM GAS  C:\Users\DNIEL~1\AppData\Local\Temp\ccjO8mzD.s 			page 24


 1308              	.LBE47:
 1309 0810 4BE4     		b	.L1
 1310              	.LVL199:
 1311              	.L30:
 1312              		.loc 1 184 0 discriminator 1
 1313 0812 FFF7FEFF 		bl	dbg_check_unlock
 1314              	.LBB48:
 1315 0816 2B46     		mov	r3, r5
 1316              	@ 184 "../../../ChibiOS/test/testmbox.c" 1
 1317 0818 83F31188 		msr     BASEPRI, r3
 1318              	@ 0 "" 2
 1319              	.LVL200:
 1320              		.thumb
 1321              	.LBE48:
 1322 081c 45E4     		b	.L1
 1323              	.LVL201:
 1324              	.L27:
 1325              		.loc 1 156 0 discriminator 1
 1326 081e FFF7FEFF 		bl	dbg_check_unlock
 1327              	.LBB49:
 1328 0822 3346     		mov	r3, r6
 1329              	@ 156 "../../../ChibiOS/test/testmbox.c" 1
 1330 0824 83F31188 		msr     BASEPRI, r3
 1331              	@ 0 "" 2
 1332              	.LVL202:
 1333              		.thumb
 1334              	.LBE49:
 1335 0828 3FE4     		b	.L1
 1336              	.LVL203:
 1337              	.L26:
 1338              		.loc 1 155 0 discriminator 1
 1339 082a FFF7FEFF 		bl	dbg_check_unlock
 1340              	.LBB50:
 1341 082e 2B46     		mov	r3, r5
 1342              	@ 155 "../../../ChibiOS/test/testmbox.c" 1
 1343 0830 83F31188 		msr     BASEPRI, r3
 1344              	@ 0 "" 2
 1345              	.LVL204:
 1346              		.thumb
 1347              	.LBE50:
 1348 0834 39E4     		b	.L1
 1349              	.LVL205:
 1350              	.L29:
 1351              		.loc 1 183 0 discriminator 1
 1352 0836 FFF7FEFF 		bl	dbg_check_unlock
 1353              	.LBB51:
 1354 083a 2B46     		mov	r3, r5
 1355              	@ 183 "../../../ChibiOS/test/testmbox.c" 1
 1356 083c 83F31188 		msr     BASEPRI, r3
 1357              	@ 0 "" 2
 1358              	.LVL206:
 1359              		.thumb
 1360              	.LBE51:
 1361 0840 33E4     		b	.L1
 1362              	.LVL207:
 1363              	.L35:
 1364              		.loc 1 222 0 discriminator 1
ARM GAS  C:\Users\DNIEL~1\AppData\Local\Temp\ccjO8mzD.s 			page 25


 1365 0842 FFF7FEFF 		bl	dbg_check_unlock
 1366              	.LBB52:
 1367 0846 2346     		mov	r3, r4
 1368              	@ 222 "../../../ChibiOS/test/testmbox.c" 1
 1369 0848 83F31188 		msr     BASEPRI, r3
 1370              	@ 0 "" 2
 1371              	.LVL208:
 1372              		.thumb
 1373              	.LBE52:
 1374 084c 2DE4     		b	.L1
 1375              	.LVL209:
 1376              	.L34:
 1377              		.loc 1 221 0 discriminator 1
 1378 084e FFF7FEFF 		bl	dbg_check_unlock
 1379              	.LBB53:
 1380 0852 2346     		mov	r3, r4
 1381              	@ 221 "../../../ChibiOS/test/testmbox.c" 1
 1382 0854 83F31188 		msr     BASEPRI, r3
 1383              	@ 0 "" 2
 1384              	.LVL210:
 1385              		.thumb
 1386              	.LBE53:
 1387 0858 27E4     		b	.L1
 1388              	.LVL211:
 1389              	.L33:
 1390              		.loc 1 220 0 discriminator 1
 1391 085a FFF7FEFF 		bl	dbg_check_unlock
 1392              	.LBB54:
 1393 085e 2346     		mov	r3, r4
 1394              	@ 220 "../../../ChibiOS/test/testmbox.c" 1
 1395 0860 83F31188 		msr     BASEPRI, r3
 1396              	@ 0 "" 2
 1397              	.LVL212:
 1398              		.thumb
 1399              	.LBE54:
 1400 0864 21E4     		b	.L1
 1401              	.LVL213:
 1402              	.L32:
 1403              		.loc 1 209 0 discriminator 1
 1404 0866 FFF7FEFF 		bl	dbg_check_unlock
 1405              	.LBB55:
 1406 086a 2346     		mov	r3, r4
 1407              	@ 209 "../../../ChibiOS/test/testmbox.c" 1
 1408 086c 83F31188 		msr     BASEPRI, r3
 1409              	@ 0 "" 2
 1410              	.LVL214:
 1411              		.thumb
 1412              	.LBE55:
 1413 0870 1BE4     		b	.L1
 1414              	.LVL215:
 1415              	.L31:
 1416              		.loc 1 208 0 discriminator 1
 1417 0872 FFF7FEFF 		bl	dbg_check_unlock
 1418              	.LBB56:
 1419 0876 2346     		mov	r3, r4
 1420              	@ 208 "../../../ChibiOS/test/testmbox.c" 1
 1421 0878 83F31188 		msr     BASEPRI, r3
ARM GAS  C:\Users\DNIEL~1\AppData\Local\Temp\ccjO8mzD.s 			page 26


 1422              	@ 0 "" 2
 1423              	.LVL216:
 1424              		.thumb
 1425              	.LBE56:
 1426 087c 15E4     		b	.L1
 1427              	.L42:
 1428 087e 00BF     		.align	2
 1429              	.L41:
 1430 0880 00000000 		.word	.LANCHOR0
 1431 0884 00000000 		.word	.LC0
 1432              		.cfi_endproc
 1433              	.LFE8:
 1434              		.size	mbox1_execute, .-mbox1_execute
 1435 0888 AFF30080 		.section	.text.mbox1_setup,"ax",%progbits
 1435      AFF30080 
 1436              		.align	2
 1437              		.p2align 4,,15
 1438              		.thumb
 1439              		.thumb_func
 1440              		.type	mbox1_setup, %function
 1441              	mbox1_setup:
 1442              	.LFB7:
 1443              		.loc 1 75 0
 1444              		.cfi_startproc
 1445              		@ args = 0, pretend = 0, frame = 0
 1446              		@ frame_needed = 0, uses_anonymous_args = 0
 1447              		@ link register save eliminated.
 1448              		.loc 1 77 0
 1449 0000 0248     		ldr	r0, .L44
 1450 0002 0349     		ldr	r1, .L44+4
 1451 0004 0522     		movs	r2, #5
 1452              		.loc 1 78 0
 1453              		.loc 1 77 0
 1454 0006 FFF7FEBF 		b	chMBInit
 1455              	.L45:
 1456 000a 00BF     		.align	2
 1457              	.L44:
 1458 000c 00000000 		.word	.LANCHOR0
 1459 0010 00000000 		.word	test
 1460              		.cfi_endproc
 1461              	.LFE7:
 1462              		.size	mbox1_setup, .-mbox1_setup
 1463              		.global	testmbox1
 1464              		.global	patternmbox
 1465 0014 AFF30080 		.section	.data.mb1,"aw",%progbits
 1465      AFF30080 
 1465      AFF30080 
 1466              		.align	2
 1467              		.set	.LANCHOR0,. + 0
 1468              		.type	mb1, %object
 1469              		.size	mb1, 40
 1470              	mb1:
 1471 0000 00000000 		.word	test
 1472 0004 14000000 		.word	test+20
 1473 0008 00000000 		.word	test
 1474 000c 00000000 		.word	test
 1475 0010 10000000 		.word	mb1+16
ARM GAS  C:\Users\DNIEL~1\AppData\Local\Temp\ccjO8mzD.s 			page 27


 1476 0014 10000000 		.word	mb1+16
 1477 0018 00000000 		.word	0
 1478 001c 1C000000 		.word	mb1+28
 1479 0020 1C000000 		.word	mb1+28
 1480 0024 05000000 		.word	5
 1481              		.section	.rodata.patternmbox,"a",%progbits
 1482              		.align	2
 1483              		.type	patternmbox, %object
 1484              		.size	patternmbox, 8
 1485              	patternmbox:
 1486 0000 00000000 		.word	testmbox1
 1487 0004 00000000 		.word	0
 1488              		.section	.rodata.str1.4,"aMS",%progbits,1
 1489              		.align	2
 1490              	.LC0:
 1491 0000 41424344 		.ascii	"ABCDE\000"
 1491      4500
 1492 0006 0000     		.space	2
 1493              	.LC1:
 1494 0008 4D61696C 		.ascii	"Mailboxes, queuing and timeouts\000"
 1494      626F7865 
 1494      732C2071 
 1494      75657569 
 1494      6E672061 
 1495              		.section	.rodata.testmbox1,"a",%progbits
 1496              		.align	2
 1497              		.type	testmbox1, %object
 1498              		.size	testmbox1, 16
 1499              	testmbox1:
 1500 0000 08000000 		.word	.LC1
 1501 0004 00000000 		.word	mbox1_setup
 1502 0008 00000000 		.word	0
 1503 000c 00000000 		.word	mbox1_execute
 1504              		.text
 1505              	.Letext0: