ARM GAS  C:\Users\DNIEL~1\AppData\Local\Temp\ccjK1mfl.s 			page 1


   1              		.syntax unified
   2              		.cpu cortex-m3
   3              		.fpu softvfp
   4              		.eabi_attribute 20, 1
   5              		.eabi_attribute 21, 1
   6              		.eabi_attribute 23, 3
   7              		.eabi_attribute 24, 1
   8              		.eabi_attribute 25, 1
   9              		.eabi_attribute 26, 1
  10              		.eabi_attribute 30, 2
  11              		.eabi_attribute 18, 4
  12              		.thumb
  13              		.file	"uart.c"
  20 0000 1E040000 		.text
  20      02002302 
  20      00000201 
  20      FB0E0D00 
  20      01010101 
  21              	.Ltext0:
  22              		.cfi_sections	.debug_frame
  23              		.section	.text.uartInit,"ax",%progbits
  24              		.align	2
  25              		.p2align 4,,15
  26              		.global	uartInit
  27              		.thumb
  28              		.thumb_func
  29              		.type	uartInit, %function
  30              	uartInit:
  31              	.LFB118:
  32              		.file 1 "../../../ChibiOS/os/hal/src/uart.c"
  33              		.loc 1 61 0
  34              		.cfi_startproc
  35              		@ args = 0, pretend = 0, frame = 0
  36              		@ frame_needed = 0, uses_anonymous_args = 0
  37              		@ link register save eliminated.
  38              		.loc 1 64 0
  39              		.loc 1 63 0
  40 0000 FFF7FEBF 		b	uart_lld_init
  41              		.cfi_endproc
  42              	.LFE118:
  43              		.size	uartInit, .-uartInit
  44 0004 AFF30080 		.section	.text.uartObjectInit,"ax",%progbits
  44      AFF30080 
  44      AFF30080 
  45              		.align	2
  46              		.p2align 4,,15
  47              		.global	uartObjectInit
  48              		.thumb
  49              		.thumb_func
  50              		.type	uartObjectInit, %function
  51              	uartObjectInit:
ARM GAS  C:\Users\DNIEL~1\AppData\Local\Temp\ccjK1mfl.s 			page 2


  52              	.LFB119:
  53              		.loc 1 73 0
  54              		.cfi_startproc
  55              		@ args = 0, pretend = 0, frame = 0
  56              		@ frame_needed = 0, uses_anonymous_args = 0
  57              		@ link register save eliminated.
  58              	.LVL0:
  59              		.loc 1 76 0
  60 0000 0023     		movs	r3, #0
  61              		.loc 1 75 0
  62 0002 0122     		movs	r2, #1
  63 0004 0270     		strb	r2, [r0, #0]
  64              		.loc 1 76 0
  65 0006 4370     		strb	r3, [r0, #1]
  66              		.loc 1 77 0
  67 0008 8370     		strb	r3, [r0, #2]
  68              		.loc 1 78 0
  69 000a 4360     		str	r3, [r0, #4]
  70              		.loc 1 83 0
  71 000c 7047     		bx	lr
  72              		.cfi_endproc
  73              	.LFE119:
  74              		.size	uartObjectInit, .-uartObjectInit
  75 000e 00BF     		.section	.text.uartStart,"ax",%progbits
  76              		.align	2
  77              		.p2align 4,,15
  78              		.global	uartStart
  79              		.thumb
  80              		.thumb_func
  81              		.type	uartStart, %function
  82              	uartStart:
  83              	.LFB120:
  84              		.loc 1 93 0
  85              		.cfi_startproc
  86              		@ args = 0, pretend = 0, frame = 0
  87              		@ frame_needed = 0, uses_anonymous_args = 0
  88              	.LVL1:
  89 0000 38B5     		push	{r3, r4, r5, lr}
  90              	.LCFI0:
  91              		.cfi_def_cfa_offset 16
  92              		.loc 1 95 0
  93 0002 0446     		mov	r4, r0
  94              		.cfi_offset 14, -4
  95              		.cfi_offset 5, -8
  96              		.cfi_offset 4, -12
  97              		.cfi_offset 3, -16
  98              		.loc 1 93 0
  99 0004 0D46     		mov	r5, r1
 100              		.loc 1 95 0
 101 0006 C8B1     		cbz	r0, .L4
 102              		.loc 1 95 0 is_stmt 0 discriminator 2
 103 0008 C1B1     		cbz	r1, .L4
 104              	.LVL2:
 105              	.L5:
 106              	.LBB2:
 107              		.loc 1 97 0 is_stmt 1
 108 000a 2023     		movs	r3, #32
ARM GAS  C:\Users\DNIEL~1\AppData\Local\Temp\ccjK1mfl.s 			page 3


 109              	.LVL3:
 110              	@ 97 "../../../ChibiOS/os/hal/src/uart.c" 1
 111 000c 83F31188 		msr     BASEPRI, r3
 112              	@ 0 "" 2
 113              	.LVL4:
 114              		.thumb
 115              	.LBE2:
 116 0010 FFF7FEFF 		bl	dbg_check_lock
 117              	.LVL5:
 118              		.loc 1 98 0
 119 0014 2178     		ldrb	r1, [r4, #0]	@ zero_extendqisi2
 120 0016 481E     		subs	r0, r1, #1
 121 0018 C3B2     		uxtb	r3, r0
 122 001a 012B     		cmp	r3, #1
 123 001c 02D9     		bls	.L6
 124              		.loc 1 98 0 is_stmt 0 discriminator 1
 125 001e 0948     		ldr	r0, .L8
 126 0020 FFF7FEFF 		bl	chDbgPanic
 127              	.L6:
 128              		.loc 1 102 0 is_stmt 1
 129 0024 2046     		mov	r0, r4
 130              		.loc 1 101 0
 131 0026 6560     		str	r5, [r4, #4]
 132              		.loc 1 102 0
 133 0028 FFF7FEFF 		bl	uart_lld_start
 134              		.loc 1 103 0
 135 002c 0222     		movs	r2, #2
 136 002e 2270     		strb	r2, [r4, #0]
 137              		.loc 1 104 0
 138 0030 FFF7FEFF 		bl	dbg_check_unlock
 139              	.LBB3:
 140 0034 0023     		movs	r3, #0
 141              	.LVL6:
 142              	@ 104 "../../../ChibiOS/os/hal/src/uart.c" 1
 143 0036 83F31188 		msr     BASEPRI, r3
 144              	@ 0 "" 2
 145              	.LVL7:
 146              		.thumb
 147              	.LBE3:
 148              		.loc 1 105 0
 149 003a 38BD     		pop	{r3, r4, r5, pc}
 150              	.LVL8:
 151              	.L4:
 152              		.loc 1 95 0 discriminator 1
 153 003c 0248     		ldr	r0, .L8+4
 154 003e FFF7FEFF 		bl	chDbgPanic
 155 0042 E2E7     		b	.L5
 156              	.L9:
 157              		.align	2
 158              	.L8:
 159 0044 10000000 		.word	.LC1
 160 0048 00000000 		.word	.LC0
 161              		.cfi_endproc
 162              	.LFE120:
 163              		.size	uartStart, .-uartStart
 164 004c AFF30080 		.section	.text.uartStop,"ax",%progbits
 165              		.align	2
ARM GAS  C:\Users\DNIEL~1\AppData\Local\Temp\ccjK1mfl.s 			page 4


 166              		.p2align 4,,15
 167              		.global	uartStop
 168              		.thumb
 169              		.thumb_func
 170              		.type	uartStop, %function
 171              	uartStop:
 172              	.LFB121:
 173              		.loc 1 114 0
 174              		.cfi_startproc
 175              		@ args = 0, pretend = 0, frame = 0
 176              		@ frame_needed = 0, uses_anonymous_args = 0
 177              	.LVL9:
 178 0000 38B5     		push	{r3, r4, r5, lr}
 179              	.LCFI1:
 180              		.cfi_def_cfa_offset 16
 181              		.loc 1 116 0
 182 0002 0446     		mov	r4, r0
 183              		.cfi_offset 14, -4
 184              		.cfi_offset 5, -8
 185              		.cfi_offset 4, -12
 186              		.cfi_offset 3, -16
 187 0004 D0B1     		cbz	r0, .L13
 188              	.LVL10:
 189              	.L11:
 190              	.LBB4:
 191              		.loc 1 118 0
 192 0006 2023     		movs	r3, #32
 193              	.LVL11:
 194              	@ 118 "../../../ChibiOS/os/hal/src/uart.c" 1
 195 0008 83F31188 		msr     BASEPRI, r3
 196              	@ 0 "" 2
 197              	.LVL12:
 198              		.thumb
 199              	.LBE4:
 200 000c FFF7FEFF 		bl	dbg_check_lock
 201              	.LVL13:
 202              		.loc 1 119 0
 203 0010 2178     		ldrb	r1, [r4, #0]	@ zero_extendqisi2
 204 0012 481E     		subs	r0, r1, #1
 205 0014 C3B2     		uxtb	r3, r0
 206 0016 012B     		cmp	r3, #1
 207 0018 02D9     		bls	.L12
 208              		.loc 1 119 0 is_stmt 0 discriminator 1
 209 001a 0A48     		ldr	r0, .L14
 210 001c FFF7FEFF 		bl	chDbgPanic
 211              	.L12:
 212              		.loc 1 122 0 is_stmt 1
 213 0020 2046     		mov	r0, r4
 214 0022 FFF7FEFF 		bl	uart_lld_stop
 215              		.loc 1 124 0
 216 0026 0025     		movs	r5, #0
 217              		.loc 1 123 0
 218 0028 0122     		movs	r2, #1
 219 002a 2270     		strb	r2, [r4, #0]
 220              		.loc 1 124 0
 221 002c 6570     		strb	r5, [r4, #1]
 222              		.loc 1 125 0
ARM GAS  C:\Users\DNIEL~1\AppData\Local\Temp\ccjK1mfl.s 			page 5


 223 002e A570     		strb	r5, [r4, #2]
 224              		.loc 1 126 0
 225 0030 FFF7FEFF 		bl	dbg_check_unlock
 226              	.LBB5:
 227 0034 2B46     		mov	r3, r5
 228              	.LVL14:
 229              	@ 126 "../../../ChibiOS/os/hal/src/uart.c" 1
 230 0036 83F31188 		msr     BASEPRI, r3
 231              	@ 0 "" 2
 232              	.LVL15:
 233              		.thumb
 234              	.LBE5:
 235              		.loc 1 127 0
 236 003a 38BD     		pop	{r3, r4, r5, pc}
 237              	.LVL16:
 238              	.L13:
 239              		.loc 1 116 0 discriminator 1
 240 003c 0248     		ldr	r0, .L14+4
 241 003e FFF7FEFF 		bl	chDbgPanic
 242 0042 E0E7     		b	.L11
 243              	.L15:
 244              		.align	2
 245              	.L14:
 246 0044 30000000 		.word	.LC3
 247 0048 20000000 		.word	.LC2
 248              		.cfi_endproc
 249              	.LFE121:
 250              		.size	uartStop, .-uartStop
 251 004c AFF30080 		.section	.text.uartStartSend,"ax",%progbits
 252              		.align	2
 253              		.p2align 4,,15
 254              		.global	uartStartSend
 255              		.thumb
 256              		.thumb_func
 257              		.type	uartStartSend, %function
 258              	uartStartSend:
 259              	.LFB122:
 260              		.loc 1 140 0
 261              		.cfi_startproc
 262              		@ args = 0, pretend = 0, frame = 0
 263              		@ frame_needed = 0, uses_anonymous_args = 0
 264              	.LVL17:
 265 0000 70B5     		push	{r4, r5, r6, lr}
 266              	.LCFI2:
 267              		.cfi_def_cfa_offset 16
 268              		.loc 1 142 0
 269 0002 0446     		mov	r4, r0
 270              		.cfi_offset 14, -4
 271              		.cfi_offset 6, -8
 272              		.cfi_offset 5, -12
 273              		.cfi_offset 4, -16
 274              		.loc 1 140 0
 275 0004 0D46     		mov	r5, r1
 276 0006 1646     		mov	r6, r2
 277              		.loc 1 142 0
 278 0008 00B1     		cbz	r0, .L17
 279              		.loc 1 142 0 is_stmt 0 discriminator 2
ARM GAS  C:\Users\DNIEL~1\AppData\Local\Temp\ccjK1mfl.s 			page 6


 280 000a D1B9     		cbnz	r1, .L20
 281              	.L17:
 282              		.loc 1 142 0 discriminator 1
 283 000c 0E48     		ldr	r0, .L21
 284              	.LVL18:
 285 000e FFF7FEFF 		bl	chDbgPanic
 286              	.LVL19:
 287              	.L18:
 288              	.LBB6:
 289              		.loc 1 145 0 is_stmt 1
 290 0012 2023     		movs	r3, #32
 291              	.LVL20:
 292              	@ 145 "../../../ChibiOS/os/hal/src/uart.c" 1
 293 0014 83F31188 		msr     BASEPRI, r3
 294              	@ 0 "" 2
 295              	.LVL21:
 296              		.thumb
 297              	.LBE6:
 298 0018 FFF7FEFF 		bl	dbg_check_lock
 299              	.LVL22:
 300              		.loc 1 146 0
 301 001c 2388     		ldrh	r3, [r4, #0]
 302 001e 022B     		cmp	r3, #2
 303 0020 02D0     		beq	.L19
 304              		.loc 1 146 0 is_stmt 0 discriminator 1
 305 0022 0A48     		ldr	r0, .L21+4
 306 0024 FFF7FEFF 		bl	chDbgPanic
 307              	.L19:
 308              		.loc 1 149 0 is_stmt 1
 309 0028 2046     		mov	r0, r4
 310 002a 2946     		mov	r1, r5
 311 002c 3246     		mov	r2, r6
 312 002e FFF7FEFF 		bl	uart_lld_start_send
 313              		.loc 1 150 0
 314 0032 0120     		movs	r0, #1
 315 0034 6070     		strb	r0, [r4, #1]
 316              		.loc 1 151 0
 317 0036 FFF7FEFF 		bl	dbg_check_unlock
 318              	.LBB7:
 319 003a 0023     		movs	r3, #0
 320              	.LVL23:
 321              	@ 151 "../../../ChibiOS/os/hal/src/uart.c" 1
 322 003c 83F31188 		msr     BASEPRI, r3
 323              	@ 0 "" 2
 324              	.LVL24:
 325              		.thumb
 326              	.LBE7:
 327              		.loc 1 152 0
 328 0040 70BD     		pop	{r4, r5, r6, pc}
 329              	.LVL25:
 330              	.L20:
 331              		.loc 1 142 0 discriminator 3
 332 0042 002A     		cmp	r2, #0
 333 0044 E5D1     		bne	.L18
 334 0046 E1E7     		b	.L17
 335              	.L22:
 336              		.align	2
ARM GAS  C:\Users\DNIEL~1\AppData\Local\Temp\ccjK1mfl.s 			page 7


 337              	.L21:
 338 0048 40000000 		.word	.LC4
 339 004c 54000000 		.word	.LC5
 340              		.cfi_endproc
 341              	.LFE122:
 342              		.size	uartStartSend, .-uartStartSend
 343              		.section	.text.uartStartSendI,"ax",%progbits
 344              		.align	2
 345              		.p2align 4,,15
 346              		.global	uartStartSendI
 347              		.thumb
 348              		.thumb_func
 349              		.type	uartStartSendI, %function
 350              	uartStartSendI:
 351              	.LFB123:
 352              		.loc 1 166 0
 353              		.cfi_startproc
 354              		@ args = 0, pretend = 0, frame = 0
 355              		@ frame_needed = 0, uses_anonymous_args = 0
 356              	.LVL26:
 357 0000 70B5     		push	{r4, r5, r6, lr}
 358              	.LCFI3:
 359              		.cfi_def_cfa_offset 16
 360              		.loc 1 166 0
 361 0002 0446     		mov	r4, r0
 362              		.cfi_offset 14, -4
 363              		.cfi_offset 6, -8
 364              		.cfi_offset 5, -12
 365              		.cfi_offset 4, -16
 366 0004 0D46     		mov	r5, r1
 367 0006 1646     		mov	r6, r2
 368              		.loc 1 168 0
 369 0008 FFF7FEFF 		bl	chDbgCheckClassI
 370              	.LVL27:
 371              		.loc 1 169 0
 372 000c 04B1     		cbz	r4, .L24
 373              		.loc 1 169 0 is_stmt 0 discriminator 2
 374 000e 85B9     		cbnz	r5, .L29
 375              	.L24:
 376              		.loc 1 169 0 discriminator 1
 377 0010 0C48     		ldr	r0, .L31
 378 0012 FFF7FEFF 		bl	chDbgPanic
 379              		.loc 1 171 0 is_stmt 1 discriminator 1
 380 0016 2378     		ldrb	r3, [r4, #0]	@ zero_extendqisi2
 381 0018 022B     		cmp	r3, #2
 382 001a 0FD0     		beq	.L30
 383              	.L26:
 384 001c 0A48     		ldr	r0, .L31+4
 385 001e FFF7FEFF 		bl	chDbgPanic
 386              	.L27:
 387              		.loc 1 175 0
 388 0022 2946     		mov	r1, r5
 389 0024 2046     		mov	r0, r4
 390 0026 3246     		mov	r2, r6
 391 0028 FFF7FEFF 		bl	uart_lld_start_send
 392              		.loc 1 176 0
 393 002c 0121     		movs	r1, #1
ARM GAS  C:\Users\DNIEL~1\AppData\Local\Temp\ccjK1mfl.s 			page 8


 394 002e 6170     		strb	r1, [r4, #1]
 395              		.loc 1 177 0
 396 0030 70BD     		pop	{r4, r5, r6, pc}
 397              	.L29:
 398              		.loc 1 169 0 discriminator 3
 399 0032 002E     		cmp	r6, #0
 400 0034 ECD0     		beq	.L24
 401              		.loc 1 171 0
 402 0036 2378     		ldrb	r3, [r4, #0]	@ zero_extendqisi2
 403 0038 022B     		cmp	r3, #2
 404 003a EFD1     		bne	.L26
 405              	.L30:
 406              		.loc 1 171 0 is_stmt 0 discriminator 2
 407 003c 6078     		ldrb	r0, [r4, #1]	@ zero_extendqisi2
 408 003e 0128     		cmp	r0, #1
 409 0040 EFD1     		bne	.L27
 410 0042 EBE7     		b	.L26
 411              	.L32:
 412              		.align	2
 413              	.L31:
 414 0044 68000000 		.word	.LC6
 415 0048 7C000000 		.word	.LC7
 416              		.cfi_endproc
 417              	.LFE123:
 418              		.size	uartStartSendI, .-uartStartSendI
 419 004c AFF30080 		.section	.text.uartStopSend,"ax",%progbits
 420              		.align	2
 421              		.p2align 4,,15
 422              		.global	uartStopSend
 423              		.thumb
 424              		.thumb_func
 425              		.type	uartStopSend, %function
 426              	uartStopSend:
 427              	.LFB124:
 428              		.loc 1 191 0 is_stmt 1
 429              		.cfi_startproc
 430              		@ args = 0, pretend = 0, frame = 0
 431              		@ frame_needed = 0, uses_anonymous_args = 0
 432              	.LVL28:
 433 0000 38B5     		push	{r3, r4, r5, lr}
 434              	.LCFI4:
 435              		.cfi_def_cfa_offset 16
 436              		.loc 1 194 0
 437 0002 0446     		mov	r4, r0
 438              		.cfi_offset 14, -4
 439              		.cfi_offset 5, -8
 440              		.cfi_offset 4, -12
 441              		.cfi_offset 3, -16
 442 0004 10B3     		cbz	r0, .L38
 443              	.LVL29:
 444              	.L34:
 445              	.LBB8:
 446              		.loc 1 196 0
 447 0006 2023     		movs	r3, #32
 448              	.LVL30:
 449              	@ 196 "../../../ChibiOS/os/hal/src/uart.c" 1
 450 0008 83F31188 		msr     BASEPRI, r3
ARM GAS  C:\Users\DNIEL~1\AppData\Local\Temp\ccjK1mfl.s 			page 9


 451              	@ 0 "" 2
 452              	.LVL31:
 453              		.thumb
 454              	.LBE8:
 455 000c FFF7FEFF 		bl	dbg_check_lock
 456              	.LVL32:
 457              		.loc 1 197 0
 458 0010 2378     		ldrb	r3, [r4, #0]	@ zero_extendqisi2
 459 0012 022B     		cmp	r3, #2
 460 0014 02D0     		beq	.L35
 461              		.loc 1 197 0 is_stmt 0 discriminator 1
 462 0016 0F48     		ldr	r0, .L40
 463 0018 FFF7FEFF 		bl	chDbgPanic
 464              	.L35:
 465              		.loc 1 199 0 is_stmt 1
 466 001c 6078     		ldrb	r0, [r4, #1]	@ zero_extendqisi2
 467 001e 0128     		cmp	r0, #1
 468 0020 07D0     		beq	.L39
 469              		.loc 1 205 0
 470 0022 FFF7FEFF 		bl	dbg_check_unlock
 471              		.loc 1 204 0
 472 0026 0025     		movs	r5, #0
 473              	.LVL33:
 474              	.LBB9:
 475              		.loc 1 205 0
 476 0028 0023     		movs	r3, #0
 477              	.LVL34:
 478              	@ 205 "../../../ChibiOS/os/hal/src/uart.c" 1
 479 002a 83F31188 		msr     BASEPRI, r3
 480              	@ 0 "" 2
 481              	.LVL35:
 482              		.thumb
 483              	.LBE9:
 484              		.loc 1 207 0
 485 002e 2846     		mov	r0, r5
 486 0030 38BD     		pop	{r3, r4, r5, pc}
 487              	.LVL36:
 488              	.L39:
 489              		.loc 1 200 0
 490 0032 2046     		mov	r0, r4
 491 0034 FFF7FEFF 		bl	uart_lld_stop_send
 492              		.loc 1 201 0
 493 0038 0021     		movs	r1, #0
 494 003a 6170     		strb	r1, [r4, #1]
 495              		.loc 1 200 0
 496 003c 0546     		mov	r5, r0
 497              	.LVL37:
 498              		.loc 1 205 0
 499 003e FFF7FEFF 		bl	dbg_check_unlock
 500              	.LVL38:
 501              	.LBB10:
 502 0042 0023     		movs	r3, #0
 503              	@ 205 "../../../ChibiOS/os/hal/src/uart.c" 1
 504 0044 83F31188 		msr     BASEPRI, r3
 505              	@ 0 "" 2
 506              	.LVL39:
 507              		.thumb
ARM GAS  C:\Users\DNIEL~1\AppData\Local\Temp\ccjK1mfl.s 			page 10


 508              	.LBE10:
 509              		.loc 1 207 0
 510 0048 2846     		mov	r0, r5
 511 004a 38BD     		pop	{r3, r4, r5, pc}
 512              	.LVL40:
 513              	.L38:
 514              		.loc 1 194 0 discriminator 1
 515 004c 0248     		ldr	r0, .L40+4
 516 004e FFF7FEFF 		bl	chDbgPanic
 517 0052 D8E7     		b	.L34
 518              	.L41:
 519              		.align	2
 520              	.L40:
 521 0054 A8000000 		.word	.LC9
 522 0058 94000000 		.word	.LC8
 523              		.cfi_endproc
 524              	.LFE124:
 525              		.size	uartStopSend, .-uartStopSend
 526 005c AFF30080 		.section	.text.uartStopSendI,"ax",%progbits
 527              		.align	2
 528              		.p2align 4,,15
 529              		.global	uartStopSendI
 530              		.thumb
 531              		.thumb_func
 532              		.type	uartStopSendI, %function
 533              	uartStopSendI:
 534              	.LFB125:
 535              		.loc 1 222 0
 536              		.cfi_startproc
 537              		@ args = 0, pretend = 0, frame = 0
 538              		@ frame_needed = 0, uses_anonymous_args = 0
 539              	.LVL41:
 540 0000 10B5     		push	{r4, lr}
 541              	.LCFI5:
 542              		.cfi_def_cfa_offset 8
 543              		.loc 1 222 0
 544 0002 0446     		mov	r4, r0
 545              		.cfi_offset 14, -4
 546              		.cfi_offset 4, -8
 547              		.loc 1 224 0
 548 0004 FFF7FEFF 		bl	chDbgCheckClassI
 549              	.LVL42:
 550              		.loc 1 225 0
 551 0008 84B1     		cbz	r4, .L47
 552              	.L43:
 553              		.loc 1 226 0
 554 000a 2378     		ldrb	r3, [r4, #0]	@ zero_extendqisi2
 555 000c 022B     		cmp	r3, #2
 556 000e 02D0     		beq	.L44
 557              		.loc 1 226 0 is_stmt 0 discriminator 1
 558 0010 0848     		ldr	r0, .L49
 559 0012 FFF7FEFF 		bl	chDbgPanic
 560              	.L44:
 561              		.loc 1 228 0 is_stmt 1
 562 0016 6078     		ldrb	r0, [r4, #1]	@ zero_extendqisi2
 563 0018 0128     		cmp	r0, #1
 564 001a 01D0     		beq	.L48
ARM GAS  C:\Users\DNIEL~1\AppData\Local\Temp\ccjK1mfl.s 			page 11


 565              		.loc 1 233 0
 566 001c 0020     		movs	r0, #0
 567              		.loc 1 234 0
 568 001e 10BD     		pop	{r4, pc}
 569              	.L48:
 570              	.LBB11:
 571              		.loc 1 229 0
 572 0020 2046     		mov	r0, r4
 573 0022 FFF7FEFF 		bl	uart_lld_stop_send
 574              	.LVL43:
 575              		.loc 1 230 0
 576 0026 0021     		movs	r1, #0
 577 0028 6170     		strb	r1, [r4, #1]
 578              		.loc 1 231 0
 579 002a 10BD     		pop	{r4, pc}
 580              	.LVL44:
 581              	.L47:
 582              	.LBE11:
 583              		.loc 1 225 0 discriminator 1
 584 002c 0248     		ldr	r0, .L49+4
 585 002e FFF7FEFF 		bl	chDbgPanic
 586 0032 EAE7     		b	.L43
 587              	.L50:
 588              		.align	2
 589              	.L49:
 590 0034 D0000000 		.word	.LC11
 591 0038 BC000000 		.word	.LC10
 592              		.cfi_endproc
 593              	.LFE125:
 594              		.size	uartStopSendI, .-uartStopSendI
 595 003c AFF30080 		.section	.text.uartStartReceive,"ax",%progbits
 596              		.align	2
 597              		.p2align 4,,15
 598              		.global	uartStartReceive
 599              		.thumb
 600              		.thumb_func
 601              		.type	uartStartReceive, %function
 602              	uartStartReceive:
 603              	.LFB126:
 604              		.loc 1 247 0
 605              		.cfi_startproc
 606              		@ args = 0, pretend = 0, frame = 0
 607              		@ frame_needed = 0, uses_anonymous_args = 0
 608              	.LVL45:
 609 0000 70B5     		push	{r4, r5, r6, lr}
 610              	.LCFI6:
 611              		.cfi_def_cfa_offset 16
 612              		.loc 1 249 0
 613 0002 0446     		mov	r4, r0
 614              		.cfi_offset 14, -4
 615              		.cfi_offset 6, -8
 616              		.cfi_offset 5, -12
 617              		.cfi_offset 4, -16
 618              		.loc 1 247 0
 619 0004 0D46     		mov	r5, r1
 620 0006 1646     		mov	r6, r2
 621              		.loc 1 249 0
ARM GAS  C:\Users\DNIEL~1\AppData\Local\Temp\ccjK1mfl.s 			page 12


 622 0008 00B1     		cbz	r0, .L52
 623              		.loc 1 249 0 is_stmt 0 discriminator 2
 624 000a E1B9     		cbnz	r1, .L55
 625              	.L52:
 626              		.loc 1 249 0 discriminator 1
 627 000c 0F48     		ldr	r0, .L56
 628              	.LVL46:
 629 000e FFF7FEFF 		bl	chDbgPanic
 630              	.LVL47:
 631              	.L53:
 632              	.LBB12:
 633              		.loc 1 252 0 is_stmt 1
 634 0012 2023     		movs	r3, #32
 635              	.LVL48:
 636              	@ 252 "../../../ChibiOS/os/hal/src/uart.c" 1
 637 0014 83F31188 		msr     BASEPRI, r3
 638              	@ 0 "" 2
 639              	.LVL49:
 640              		.thumb
 641              	.LBE12:
 642 0018 FFF7FEFF 		bl	dbg_check_lock
 643              	.LVL50:
 644              		.loc 1 253 0
 645 001c 2068     		ldr	r0, [r4, #0]
 646 001e 00F0FF13 		and	r3, r0, #16711935
 647 0022 022B     		cmp	r3, #2
 648 0024 02D0     		beq	.L54
 649              		.loc 1 253 0 is_stmt 0 discriminator 1
 650 0026 0A48     		ldr	r0, .L56+4
 651 0028 FFF7FEFF 		bl	chDbgPanic
 652              	.L54:
 653              		.loc 1 256 0 is_stmt 1
 654 002c 2046     		mov	r0, r4
 655 002e 2946     		mov	r1, r5
 656 0030 3246     		mov	r2, r6
 657 0032 FFF7FEFF 		bl	uart_lld_start_receive
 658              		.loc 1 257 0
 659 0036 0121     		movs	r1, #1
 660 0038 A170     		strb	r1, [r4, #2]
 661              		.loc 1 258 0
 662 003a FFF7FEFF 		bl	dbg_check_unlock
 663              	.LBB13:
 664 003e 0023     		movs	r3, #0
 665              	.LVL51:
 666              	@ 258 "../../../ChibiOS/os/hal/src/uart.c" 1
 667 0040 83F31188 		msr     BASEPRI, r3
 668              	@ 0 "" 2
 669              	.LVL52:
 670              		.thumb
 671              	.LBE13:
 672              		.loc 1 259 0
 673 0044 70BD     		pop	{r4, r5, r6, pc}
 674              	.LVL53:
 675              	.L55:
 676              		.loc 1 249 0 discriminator 3
 677 0046 002A     		cmp	r2, #0
 678 0048 E3D1     		bne	.L53
ARM GAS  C:\Users\DNIEL~1\AppData\Local\Temp\ccjK1mfl.s 			page 13


 679 004a DFE7     		b	.L52
 680              	.L57:
 681              		.align	2
 682              	.L56:
 683 004c E4000000 		.word	.LC12
 684 0050 FC000000 		.word	.LC13
 685              		.cfi_endproc
 686              	.LFE126:
 687              		.size	uartStartReceive, .-uartStartReceive
 688 0054 AFF30080 		.section	.text.uartStartReceiveI,"ax",%progbits
 688      AFF30080 
 688      AFF30080 
 689              		.align	2
 690              		.p2align 4,,15
 691              		.global	uartStartReceiveI
 692              		.thumb
 693              		.thumb_func
 694              		.type	uartStartReceiveI, %function
 695              	uartStartReceiveI:
 696              	.LFB127:
 697              		.loc 1 273 0
 698              		.cfi_startproc
 699              		@ args = 0, pretend = 0, frame = 0
 700              		@ frame_needed = 0, uses_anonymous_args = 0
 701              	.LVL54:
 702 0000 70B5     		push	{r4, r5, r6, lr}
 703              	.LCFI7:
 704              		.cfi_def_cfa_offset 16
 705              		.loc 1 273 0
 706 0002 0446     		mov	r4, r0
 707              		.cfi_offset 14, -4
 708              		.cfi_offset 6, -8
 709              		.cfi_offset 5, -12
 710              		.cfi_offset 4, -16
 711 0004 0D46     		mov	r5, r1
 712 0006 1646     		mov	r6, r2
 713              		.loc 1 275 0
 714 0008 FFF7FEFF 		bl	chDbgCheckClassI
 715              	.LVL55:
 716              		.loc 1 276 0
 717 000c 04B1     		cbz	r4, .L59
 718              		.loc 1 276 0 is_stmt 0 discriminator 2
 719 000e 95B9     		cbnz	r5, .L62
 720              	.L59:
 721              		.loc 1 276 0 discriminator 1
 722 0010 0A48     		ldr	r0, .L63
 723 0012 FFF7FEFF 		bl	chDbgPanic
 724              	.L60:
 725              		.loc 1 278 0 is_stmt 1
 726 0016 2068     		ldr	r0, [r4, #0]
 727 0018 00F0FF13 		and	r3, r0, #16711935
 728 001c 022B     		cmp	r3, #2
 729 001e 02D0     		beq	.L61
 730              		.loc 1 278 0 is_stmt 0 discriminator 1
 731 0020 0748     		ldr	r0, .L63+4
 732 0022 FFF7FEFF 		bl	chDbgPanic
 733              	.L61:
ARM GAS  C:\Users\DNIEL~1\AppData\Local\Temp\ccjK1mfl.s 			page 14


 734              		.loc 1 281 0 is_stmt 1
 735 0026 2946     		mov	r1, r5
 736 0028 2046     		mov	r0, r4
 737 002a 3246     		mov	r2, r6
 738 002c FFF7FEFF 		bl	uart_lld_start_receive
 739              		.loc 1 282 0
 740 0030 0121     		movs	r1, #1
 741 0032 A170     		strb	r1, [r4, #2]
 742              		.loc 1 283 0
 743 0034 70BD     		pop	{r4, r5, r6, pc}
 744              	.L62:
 745              		.loc 1 276 0 discriminator 3
 746 0036 002E     		cmp	r6, #0
 747 0038 EDD1     		bne	.L60
 748 003a E9E7     		b	.L59
 749              	.L64:
 750              		.align	2
 751              	.L63:
 752 003c 14010000 		.word	.LC14
 753 0040 2C010000 		.word	.LC15
 754              		.cfi_endproc
 755              	.LFE127:
 756              		.size	uartStartReceiveI, .-uartStartReceiveI
 757 0044 AFF30080 		.section	.text.uartStopReceive,"ax",%progbits
 757      AFF30080 
 757      AFF30080 
 758              		.align	2
 759              		.p2align 4,,15
 760              		.global	uartStopReceive
 761              		.thumb
 762              		.thumb_func
 763              		.type	uartStopReceive, %function
 764              	uartStopReceive:
 765              	.LFB128:
 766              		.loc 1 297 0
 767              		.cfi_startproc
 768              		@ args = 0, pretend = 0, frame = 0
 769              		@ frame_needed = 0, uses_anonymous_args = 0
 770              	.LVL56:
 771 0000 38B5     		push	{r3, r4, r5, lr}
 772              	.LCFI8:
 773              		.cfi_def_cfa_offset 16
 774              		.loc 1 300 0
 775 0002 0446     		mov	r4, r0
 776              		.cfi_offset 14, -4
 777              		.cfi_offset 5, -8
 778              		.cfi_offset 4, -12
 779              		.cfi_offset 3, -16
 780 0004 10B3     		cbz	r0, .L70
 781              	.LVL57:
 782              	.L66:
 783              	.LBB14:
 784              		.loc 1 302 0
 785 0006 2023     		movs	r3, #32
 786              	.LVL58:
 787              	@ 302 "../../../ChibiOS/os/hal/src/uart.c" 1
 788 0008 83F31188 		msr     BASEPRI, r3
ARM GAS  C:\Users\DNIEL~1\AppData\Local\Temp\ccjK1mfl.s 			page 15


 789              	@ 0 "" 2
 790              	.LVL59:
 791              		.thumb
 792              	.LBE14:
 793 000c FFF7FEFF 		bl	dbg_check_lock
 794              	.LVL60:
 795              		.loc 1 303 0
 796 0010 2378     		ldrb	r3, [r4, #0]	@ zero_extendqisi2
 797 0012 022B     		cmp	r3, #2
 798 0014 02D0     		beq	.L67
 799              		.loc 1 303 0 is_stmt 0 discriminator 1
 800 0016 0F48     		ldr	r0, .L72
 801 0018 FFF7FEFF 		bl	chDbgPanic
 802              	.L67:
 803              		.loc 1 306 0 is_stmt 1
 804 001c A078     		ldrb	r0, [r4, #2]	@ zero_extendqisi2
 805 001e 0128     		cmp	r0, #1
 806 0020 07D0     		beq	.L71
 807              		.loc 1 312 0
 808 0022 FFF7FEFF 		bl	dbg_check_unlock
 809              		.loc 1 311 0
 810 0026 0025     		movs	r5, #0
 811              	.LVL61:
 812              	.LBB15:
 813              		.loc 1 312 0
 814 0028 0023     		movs	r3, #0
 815              	.LVL62:
 816              	@ 312 "../../../ChibiOS/os/hal/src/uart.c" 1
 817 002a 83F31188 		msr     BASEPRI, r3
 818              	@ 0 "" 2
 819              	.LVL63:
 820              		.thumb
 821              	.LBE15:
 822              		.loc 1 314 0
 823 002e 2846     		mov	r0, r5
 824 0030 38BD     		pop	{r3, r4, r5, pc}
 825              	.LVL64:
 826              	.L71:
 827              		.loc 1 307 0
 828 0032 2046     		mov	r0, r4
 829 0034 FFF7FEFF 		bl	uart_lld_stop_receive
 830              		.loc 1 308 0
 831 0038 0021     		movs	r1, #0
 832 003a A170     		strb	r1, [r4, #2]
 833              		.loc 1 307 0
 834 003c 0546     		mov	r5, r0
 835              	.LVL65:
 836              		.loc 1 312 0
 837 003e FFF7FEFF 		bl	dbg_check_unlock
 838              	.LVL66:
 839              	.LBB16:
 840 0042 0023     		movs	r3, #0
 841              	@ 312 "../../../ChibiOS/os/hal/src/uart.c" 1
 842 0044 83F31188 		msr     BASEPRI, r3
 843              	@ 0 "" 2
 844              	.LVL67:
 845              		.thumb
ARM GAS  C:\Users\DNIEL~1\AppData\Local\Temp\ccjK1mfl.s 			page 16


 846              	.LBE16:
 847              		.loc 1 314 0
 848 0048 2846     		mov	r0, r5
 849 004a 38BD     		pop	{r3, r4, r5, pc}
 850              	.LVL68:
 851              	.L70:
 852              		.loc 1 300 0 discriminator 1
 853 004c 0248     		ldr	r0, .L72+4
 854 004e FFF7FEFF 		bl	chDbgPanic
 855 0052 D8E7     		b	.L66
 856              	.L73:
 857              		.align	2
 858              	.L72:
 859 0054 58010000 		.word	.LC17
 860 0058 44010000 		.word	.LC16
 861              		.cfi_endproc
 862              	.LFE128:
 863              		.size	uartStopReceive, .-uartStopReceive
 864 005c AFF30080 		.section	.text.uartStopReceiveI,"ax",%progbits
 865              		.align	2
 866              		.p2align 4,,15
 867              		.global	uartStopReceiveI
 868              		.thumb
 869              		.thumb_func
 870              		.type	uartStopReceiveI, %function
 871              	uartStopReceiveI:
 872              	.LFB129:
 873              		.loc 1 329 0
 874              		.cfi_startproc
 875              		@ args = 0, pretend = 0, frame = 0
 876              		@ frame_needed = 0, uses_anonymous_args = 0
 877              	.LVL69:
 878 0000 10B5     		push	{r4, lr}
 879              	.LCFI9:
 880              		.cfi_def_cfa_offset 8
 881              		.loc 1 329 0
 882 0002 0446     		mov	r4, r0
 883              		.cfi_offset 14, -4
 884              		.cfi_offset 4, -8
 885              		.loc 1 331 0
 886 0004 FFF7FEFF 		bl	chDbgCheckClassI
 887              	.LVL70:
 888              		.loc 1 332 0
 889 0008 84B1     		cbz	r4, .L79
 890              	.L75:
 891              		.loc 1 333 0
 892 000a 2378     		ldrb	r3, [r4, #0]	@ zero_extendqisi2
 893 000c 022B     		cmp	r3, #2
 894 000e 02D0     		beq	.L76
 895              		.loc 1 333 0 is_stmt 0 discriminator 1
 896 0010 0848     		ldr	r0, .L81
 897 0012 FFF7FEFF 		bl	chDbgPanic
 898              	.L76:
 899              		.loc 1 336 0 is_stmt 1
 900 0016 A078     		ldrb	r0, [r4, #2]	@ zero_extendqisi2
 901 0018 0128     		cmp	r0, #1
 902 001a 01D0     		beq	.L80
ARM GAS  C:\Users\DNIEL~1\AppData\Local\Temp\ccjK1mfl.s 			page 17


 903              		.loc 1 341 0
 904 001c 0020     		movs	r0, #0
 905              		.loc 1 342 0
 906 001e 10BD     		pop	{r4, pc}
 907              	.L80:
 908              	.LBB17:
 909              		.loc 1 337 0
 910 0020 2046     		mov	r0, r4
 911 0022 FFF7FEFF 		bl	uart_lld_stop_receive
 912              	.LVL71:
 913              		.loc 1 338 0
 914 0026 0021     		movs	r1, #0
 915 0028 A170     		strb	r1, [r4, #2]
 916              		.loc 1 339 0
 917 002a 10BD     		pop	{r4, pc}
 918              	.LVL72:
 919              	.L79:
 920              	.LBE17:
 921              		.loc 1 332 0 discriminator 1
 922 002c 0248     		ldr	r0, .L81+4
 923 002e FFF7FEFF 		bl	chDbgPanic
 924 0032 EAE7     		b	.L75
 925              	.L82:
 926              		.align	2
 927              	.L81:
 928 0034 88010000 		.word	.LC19
 929 0038 70010000 		.word	.LC18
 930              		.cfi_endproc
 931              	.LFE129:
 932              		.size	uartStopReceiveI, .-uartStopReceiveI
 933 003c AFF30080 		.section	.rodata.str1.4,"aMS",%progbits,1
 934              		.align	2
 935              	.LC0:
 936 0000 22756172 		.ascii	"\"uartStart\"()\000"
 936      74537461 
 936      72742228 
 936      2900
 937 000e 0000     		.space	2
 938              	.LC1:
 939 0010 75617274 		.ascii	"uartStart(), #1\000"
 939      53746172 
 939      7428292C 
 939      20233100 
 940              	.LC2:
 941 0020 22756172 		.ascii	"\"uartStop\"()\000"
 941      7453746F 
 941      70222829 
 941      00
 942 002d 000000   		.space	3
 943              	.LC3:
 944 0030 75617274 		.ascii	"uartStop(), #1\000"
 944      53746F70 
 944      28292C20 
 944      233100
 945 003f 00       		.space	1
 946              	.LC4:
 947 0040 22756172 		.ascii	"\"uartStartSend\"()\000"
ARM GAS  C:\Users\DNIEL~1\AppData\Local\Temp\ccjK1mfl.s 			page 18


 947      74537461 
 947      72745365 
 947      6E642228 
 947      2900
 948 0052 0000     		.space	2
 949              	.LC5:
 950 0054 75617274 		.ascii	"uartStartSend(), #1\000"
 950      53746172 
 950      7453656E 
 950      6428292C 
 950      20233100 
 951              	.LC6:
 952 0068 22756172 		.ascii	"\"uartStartSendI\"()\000"
 952      74537461 
 952      72745365 
 952      6E644922 
 952      282900
 953 007b 00       		.space	1
 954              	.LC7:
 955 007c 75617274 		.ascii	"uartStartSendI(), #1\000"
 955      53746172 
 955      7453656E 
 955      64492829 
 955      2C202331 
 956 0091 000000   		.space	3
 957              	.LC8:
 958 0094 22756172 		.ascii	"\"uartStopSend\"()\000"
 958      7453746F 
 958      7053656E 
 958      64222829 
 958      00
 959 00a5 000000   		.space	3
 960              	.LC9:
 961 00a8 75617274 		.ascii	"uartStopSend(), #1\000"
 961      53746F70 
 961      53656E64 
 961      28292C20 
 961      233100
 962 00bb 00       		.space	1
 963              	.LC10:
 964 00bc 22756172 		.ascii	"\"uartStopSendI\"()\000"
 964      7453746F 
 964      7053656E 
 964      64492228 
 964      2900
 965 00ce 0000     		.space	2
 966              	.LC11:
 967 00d0 75617274 		.ascii	"uartStopSendI(), #1\000"
 967      53746F70 
 967      53656E64 
 967      4928292C 
 967      20233100 
 968              	.LC12:
 969 00e4 22756172 		.ascii	"\"uartStartReceive\"()\000"
 969      74537461 
 969      72745265 
 969      63656976 
ARM GAS  C:\Users\DNIEL~1\AppData\Local\Temp\ccjK1mfl.s 			page 19


 969      65222829 
 970 00f9 000000   		.space	3
 971              	.LC13:
 972 00fc 75617274 		.ascii	"uartStartReceive(), #1\000"
 972      53746172 
 972      74526563 
 972      65697665 
 972      28292C20 
 973 0113 00       		.space	1
 974              	.LC14:
 975 0114 22756172 		.ascii	"\"uartStartReceiveI\"()\000"
 975      74537461 
 975      72745265 
 975      63656976 
 975      65492228 
 976 012a 0000     		.space	2
 977              	.LC15:
 978 012c 75617274 		.ascii	"uartStartReceiveI(), #1\000"
 978      53746172 
 978      74526563 
 978      65697665 
 978      4928292C 
 979              	.LC16:
 980 0144 22756172 		.ascii	"\"uartStopReceive\"()\000"
 980      7453746F 
 980      70526563 
 980      65697665 
 980      22282900 
 981              	.LC17:
 982 0158 75617274 		.ascii	"uartStopReceive(), #1\000"
 982      53746F70 
 982      52656365 
 982      69766528 
 982      292C2023 
 983 016e 0000     		.space	2
 984              	.LC18:
 985 0170 22756172 		.ascii	"\"uartStopReceiveI\"()\000"
 985      7453746F 
 985      70526563 
 985      65697665 
 985      49222829 
 986 0185 000000   		.space	3
 987              	.LC19:
 988 0188 75617274 		.ascii	"uartStopReceiveI(), #1\000"
 988      53746F70 
 988      52656365 
 988      69766549 
 988      28292C20 
 989 019f 00       		.text
 990              	.Letext0: