ARM GAS  C:\Users\DNIEL~1\AppData\Local\Temp\cc4qdATB.s 			page 1


   1              		.syntax unified
   2              		.cpu cortex-m3
   3              		.fpu softvfp
   4              		.eabi_attribute 20, 1
   5              		.eabi_attribute 21, 1
   6              		.eabi_attribute 23, 3
   7              		.eabi_attribute 24, 1
   8              		.eabi_attribute 25, 1
   9              		.eabi_attribute 26, 1
  10              		.eabi_attribute 30, 2
  11              		.eabi_attribute 18, 4
  12              		.thumb
  13              		.file	"uart_lld.c"
  20 0000 FD040000 		.text
  20      02003D02 
  20      00000201 
  20      FB0E0D00 
  20      01010101 
  21              	.Ltext0:
  22              		.cfi_sections	.debug_frame
  23              		.section	.text.set_rx_idle_loop,"ax",%progbits
  24              		.align	2
  25              		.p2align 4,,15
  26              		.thumb
  27              		.thumb_func
  28              		.type	set_rx_idle_loop, %function
  29              	set_rx_idle_loop:
  30              	.LFB119:
  31              		.file 1 "../../../ChibiOS/os/hal/platforms/STM32/USARTv1/uart_lld.c"
  32              		.loc 1 131 0
  33              		.cfi_startproc
  34              		@ args = 0, pretend = 0, frame = 0
  35              		@ frame_needed = 0, uses_anonymous_args = 0
  36              		@ link register save eliminated.
  37              	.LVL0:
  38              		.loc 1 136 0
  39 0000 4168     		ldr	r1, [r0, #4]
  40              		.loc 1 140 0
  41 0002 0369     		ldr	r3, [r0, #16]
  42              		.loc 1 136 0
  43 0004 CA68     		ldr	r2, [r1, #12]
  44              		.loc 1 142 0
  45 0006 C168     		ldr	r1, [r0, #12]
  46              		.loc 1 140 0
  47 0008 1B68     		ldr	r3, [r3, #0]
  48              		.loc 1 137 0
  49 000a 002A     		cmp	r2, #0
  50 000c 14BF     		ite	ne
  51 000e 4FF4887C 		movne	ip, #272
  52 0012 4FF4807C 		moveq	ip, #256
  53              	.LVL1:
ARM GAS  C:\Users\DNIEL~1\AppData\Local\Temp\cc4qdATB.s 			page 2


  54              		.loc 1 142 0
  55 0016 4CEA0102 		orr	r2, ip, r1
  56              		.loc 1 140 0
  57 001a 1830     		adds	r0, r0, #24
  58              	.LVL2:
  59              		.loc 1 141 0
  60 001c 0121     		movs	r1, #1
  61              		.loc 1 140 0
  62 001e D860     		str	r0, [r3, #12]
  63              		.loc 1 141 0
  64 0020 5960     		str	r1, [r3, #4]
  65              		.loc 1 142 0
  66 0022 1A60     		str	r2, [r3, #0]
  67              		.loc 1 143 0
  68 0024 1868     		ldr	r0, [r3, #0]
  69              	.LVL3:
  70 0026 40EA0102 		orr	r2, r0, r1
  71 002a 1A60     		str	r2, [r3, #0]
  72              		.loc 1 144 0
  73 002c 7047     		bx	lr
  74              		.cfi_endproc
  75              	.LFE119:
  76              		.size	set_rx_idle_loop, .-set_rx_idle_loop
  77 002e 00BF     		.section	.text.usart_stop,"ax",%progbits
  78              		.align	2
  79              		.p2align 4,,15
  80              		.thumb
  81              		.thumb_func
  82              		.type	usart_stop, %function
  83              	usart_stop:
  84              	.LFB120:
  85              		.loc 1 152 0
  86              		.cfi_startproc
  87              		@ args = 0, pretend = 0, frame = 0
  88              		@ frame_needed = 0, uses_anonymous_args = 0
  89              		@ link register save eliminated.
  90              	.LVL4:
  91 0000 30B4     		push	{r4, r5}
  92              	.LCFI0:
  93              		.cfi_def_cfa_offset 8
  94              		.loc 1 155 0
  95 0002 0469     		ldr	r4, [r0, #16]
  96              		.cfi_offset 5, -4
  97              		.cfi_offset 4, -8
  98 0004 2268     		ldr	r2, [r4, #0]
  99 0006 1168     		ldr	r1, [r2, #0]
 100 0008 21F00103 		bic	r3, r1, #1
 101 000c 1360     		str	r3, [r2, #0]
 102              	.L5:
 103              		.loc 1 155 0 is_stmt 0 discriminator 1
 104 000e 1568     		ldr	r5, [r2, #0]
 105 0010 15F0010F 		tst	r5, #1
 106 0014 FBD1     		bne	.L5
 107              		.loc 1 155 0 discriminator 2
 108 0016 217A     		ldrb	r1, [r4, #8]	@ zero_extendqisi2
 109 0018 3D22     		movs	r2, #61
 110 001a 12FA01F5 		lsls	r5, r2, r1
ARM GAS  C:\Users\DNIEL~1\AppData\Local\Temp\cc4qdATB.s 			page 3


 111              		.loc 1 156 0 is_stmt 1 discriminator 2
 112 001e 4169     		ldr	r1, [r0, #20]
 113              		.loc 1 155 0 discriminator 2
 114 0020 6468     		ldr	r4, [r4, #4]
 115              		.loc 1 156 0 discriminator 2
 116 0022 0A68     		ldr	r2, [r1, #0]
 117              		.loc 1 155 0 discriminator 2
 118 0024 2560     		str	r5, [r4, #0]
 119              		.loc 1 156 0 discriminator 2
 120 0026 1368     		ldr	r3, [r2, #0]
 121 0028 23F00104 		bic	r4, r3, #1
 122 002c 1460     		str	r4, [r2, #0]
 123              	.L6:
 124              		.loc 1 156 0 is_stmt 0 discriminator 1
 125 002e 1368     		ldr	r3, [r2, #0]
 126 0030 13F00103 		ands	r3, r3, #1
 127 0034 FBD1     		bne	.L6
 128              		.loc 1 156 0 discriminator 2
 129 0036 0A7A     		ldrb	r2, [r1, #8]	@ zero_extendqisi2
 130 0038 3D24     		movs	r4, #61
 131 003a 9440     		lsls	r4, r4, r2
 132              		.loc 1 159 0 is_stmt 1 discriminator 2
 133 003c 8068     		ldr	r0, [r0, #8]
 134              	.LVL5:
 135              		.loc 1 156 0 discriminator 2
 136 003e 4A68     		ldr	r2, [r1, #4]
 137 0040 1460     		str	r4, [r2, #0]
 138              		.loc 1 159 0 discriminator 2
 139 0042 8381     		strh	r3, [r0, #12]	@ movhi
 140              		.loc 1 160 0 discriminator 2
 141 0044 0382     		strh	r3, [r0, #16]	@ movhi
 142              		.loc 1 161 0 discriminator 2
 143 0046 8382     		strh	r3, [r0, #20]	@ movhi
 144              		.loc 1 162 0 discriminator 2
 145 0048 30BC     		pop	{r4, r5}
 146 004a 7047     		bx	lr
 147              		.cfi_endproc
 148              	.LFE120:
 149              		.size	usart_stop, .-usart_stop
 150 004c AFF30080 		.section	.text.uart_lld_serve_tx_end_irq,"ax",%progbits
 151              		.align	2
 152              		.p2align 4,,15
 153              		.thumb
 154              		.thumb_func
 155              		.type	uart_lld_serve_tx_end_irq, %function
 156              	uart_lld_serve_tx_end_irq:
 157              	.LFB123:
 158              		.loc 1 254 0
 159              		.cfi_startproc
 160              		@ args = 0, pretend = 0, frame = 0
 161              		@ frame_needed = 0, uses_anonymous_args = 0
 162              	.LVL6:
 163              		.loc 1 258 0
 164 0000 11F00C0F 		tst	r1, #12
 165              		.loc 1 254 0
 166 0004 10B5     		push	{r4, lr}
 167              	.LCFI1:
ARM GAS  C:\Users\DNIEL~1\AppData\Local\Temp\cc4qdATB.s 			page 4


 168              		.cfi_def_cfa_offset 8
 169              		.loc 1 254 0
 170 0006 0446     		mov	r4, r0
 171              		.cfi_offset 14, -4
 172              		.cfi_offset 4, -8
 173              		.loc 1 258 0
 174 0008 1FD1     		bne	.L16
 175              	.LVL7:
 176              	.L11:
 177              		.loc 1 265 0
 178 000a 6169     		ldr	r1, [r4, #20]
 179 000c 0A68     		ldr	r2, [r1, #0]
 180 000e 1068     		ldr	r0, [r2, #0]
 181 0010 20F00103 		bic	r3, r0, #1
 182 0014 1360     		str	r3, [r2, #0]
 183              	.L12:
 184              		.loc 1 265 0 is_stmt 0 discriminator 1
 185 0016 1368     		ldr	r3, [r2, #0]
 186 0018 13F0010F 		tst	r3, #1
 187 001c FBD1     		bne	.L12
 188              		.loc 1 265 0 discriminator 2
 189 001e 087A     		ldrb	r0, [r1, #8]	@ zero_extendqisi2
 190 0020 3D22     		movs	r2, #61
 191 0022 12FA00F0 		lsls	r0, r2, r0
 192              		.loc 1 269 0 is_stmt 1 discriminator 2
 193 0026 6368     		ldr	r3, [r4, #4]
 194              		.loc 1 265 0 discriminator 2
 195 0028 4968     		ldr	r1, [r1, #4]
 196              		.loc 1 269 0 discriminator 2
 197 002a 1B68     		ldr	r3, [r3, #0]
 198              		.loc 1 268 0 discriminator 2
 199 002c 0222     		movs	r2, #2
 200              		.loc 1 265 0 discriminator 2
 201 002e 0860     		str	r0, [r1, #0]
 202              		.loc 1 268 0 discriminator 2
 203 0030 6270     		strb	r2, [r4, #1]
 204              		.loc 1 269 0 discriminator 2
 205 0032 3BB1     		cbz	r3, .L13
 206              		.loc 1 270 0
 207 0034 2046     		mov	r0, r4
 208 0036 9847     		blx	r3
 209              		.loc 1 274 0
 210 0038 94F801C0 		ldrb	ip, [r4, #1]	@ zero_extendqisi2
 211 003c BCF1020F 		cmp	ip, #2
 212 0040 00D0     		beq	.L13
 213 0042 10BD     		pop	{r4, pc}
 214              	.L13:
 215              		.loc 1 275 0
 216 0044 0021     		movs	r1, #0
 217 0046 6170     		strb	r1, [r4, #1]
 218 0048 10BD     		pop	{r4, pc}
 219              	.LVL8:
 220              	.L16:
 221              		.loc 1 259 0
 222 004a FFF7FEFF 		bl	port_halt
 223              	.LVL9:
 224 004e DCE7     		b	.L11
ARM GAS  C:\Users\DNIEL~1\AppData\Local\Temp\cc4qdATB.s 			page 5


 225              		.cfi_endproc
 226              	.LFE123:
 227              		.size	uart_lld_serve_tx_end_irq, .-uart_lld_serve_tx_end_irq
 228              		.section	.text.uart_lld_serve_rx_end_irq,"ax",%progbits
 229              		.align	2
 230              		.p2align 4,,15
 231              		.thumb
 232              		.thumb_func
 233              		.type	uart_lld_serve_rx_end_irq, %function
 234              	uart_lld_serve_rx_end_irq:
 235              	.LFB122:
 236              		.loc 1 214 0
 237              		.cfi_startproc
 238              		@ args = 0, pretend = 0, frame = 0
 239              		@ frame_needed = 0, uses_anonymous_args = 0
 240              	.LVL10:
 241              		.loc 1 218 0
 242 0000 11F00C0F 		tst	r1, #12
 243              		.loc 1 214 0
 244 0004 10B5     		push	{r4, lr}
 245              	.LCFI2:
 246              		.cfi_def_cfa_offset 8
 247              		.loc 1 214 0
 248 0006 0446     		mov	r4, r0
 249              		.cfi_offset 14, -4
 250              		.cfi_offset 4, -8
 251              		.loc 1 218 0
 252 0008 26D1     		bne	.L24
 253              	.LVL11:
 254              	.L18:
 255              		.loc 1 225 0
 256 000a A378     		ldrb	r3, [r4, #2]	@ zero_extendqisi2
 257 000c 3BB9     		cbnz	r3, .L19
 258              		.loc 1 228 0
 259 000e 6068     		ldr	r0, [r4, #4]
 260 0010 C368     		ldr	r3, [r0, #12]
 261 0012 03B3     		cbz	r3, .L17
 262              		.loc 1 229 0
 263 0014 218B     		ldrh	r1, [r4, #24]
 264 0016 2046     		mov	r0, r4
 265 0018 89B2     		uxth	r1, r1
 266 001a 9847     		blx	r3
 267 001c 10BD     		pop	{r4, pc}
 268              	.L19:
 269              		.loc 1 234 0
 270 001e 2169     		ldr	r1, [r4, #16]
 271 0020 0A68     		ldr	r2, [r1, #0]
 272 0022 1068     		ldr	r0, [r2, #0]
 273 0024 20F00103 		bic	r3, r0, #1
 274 0028 1360     		str	r3, [r2, #0]
 275              	.L21:
 276              		.loc 1 234 0 is_stmt 0 discriminator 1
 277 002a 1368     		ldr	r3, [r2, #0]
 278 002c 13F0010F 		tst	r3, #1
 279 0030 FBD1     		bne	.L21
 280              		.loc 1 234 0 discriminator 2
 281 0032 087A     		ldrb	r0, [r1, #8]	@ zero_extendqisi2
ARM GAS  C:\Users\DNIEL~1\AppData\Local\Temp\cc4qdATB.s 			page 6


 282 0034 3D22     		movs	r2, #61
 283 0036 12FA00F0 		lsls	r0, r2, r0
 284              		.loc 1 236 0 is_stmt 1 discriminator 2
 285 003a 6368     		ldr	r3, [r4, #4]
 286              		.loc 1 234 0 discriminator 2
 287 003c 4968     		ldr	r1, [r1, #4]
 288              		.loc 1 236 0 discriminator 2
 289 003e 9B68     		ldr	r3, [r3, #8]
 290              		.loc 1 235 0 discriminator 2
 291 0040 0222     		movs	r2, #2
 292              		.loc 1 234 0 discriminator 2
 293 0042 0860     		str	r0, [r1, #0]
 294              		.loc 1 235 0 discriminator 2
 295 0044 A270     		strb	r2, [r4, #2]
 296              		.loc 1 236 0 discriminator 2
 297 0046 53B1     		cbz	r3, .L22
 298              		.loc 1 237 0
 299 0048 2046     		mov	r0, r4
 300 004a 9847     		blx	r3
 301              		.loc 1 241 0
 302 004c 94F802C0 		ldrb	ip, [r4, #2]	@ zero_extendqisi2
 303 0050 BCF1020F 		cmp	ip, #2
 304 0054 03D0     		beq	.L22
 305              	.L17:
 306 0056 10BD     		pop	{r4, pc}
 307              	.LVL12:
 308              	.L24:
 309              		.loc 1 219 0
 310 0058 FFF7FEFF 		bl	port_halt
 311              	.LVL13:
 312 005c D5E7     		b	.L18
 313              	.L22:
 314              		.loc 1 242 0
 315 005e 0021     		movs	r1, #0
 316              		.loc 1 243 0
 317 0060 2046     		mov	r0, r4
 318              		.loc 1 242 0
 319 0062 A170     		strb	r1, [r4, #2]
 320              		.loc 1 246 0
 321 0064 BDE81040 		pop	{r4, lr}
 322              		.loc 1 243 0
 323 0068 FFF7FEBF 		b	set_rx_idle_loop
 324              		.cfi_endproc
 325              	.LFE122:
 326              		.size	uart_lld_serve_rx_end_irq, .-uart_lld_serve_rx_end_irq
 327 006c AFF30080 		.section	.text.Vector15C,"ax",%progbits
 328              		.align	2
 329              		.p2align 4,,15
 330              		.global	Vector15C
 331              		.thumb
 332              		.thumb_func
 333              		.type	Vector15C, %function
 334              	Vector15C:
 335              	.LFB125:
 336              		.loc 1 374 0
 337              		.cfi_startproc
 338              		@ args = 0, pretend = 0, frame = 0
ARM GAS  C:\Users\DNIEL~1\AppData\Local\Temp\cc4qdATB.s 			page 7


 339              		@ frame_needed = 0, uses_anonymous_args = 0
 340 0000 70B5     		push	{r4, r5, r6, lr}
 341              	.LCFI3:
 342              		.cfi_def_cfa_offset 16
 343              	.LBB11:
 344              	.LBB12:
 345              		.loc 1 285 0
 346 0002 1F4E     		ldr	r6, .L34
 347              		.cfi_offset 14, -4
 348              		.cfi_offset 6, -8
 349              		.cfi_offset 5, -12
 350              		.cfi_offset 4, -16
 351              	.LBE12:
 352              	.LBE11:
 353              		.loc 1 376 0
 354 0004 FFF7FEFF 		bl	dbg_check_enter_isr
 355              	.LVL14:
 356              	.LBB16:
 357              	.LBB15:
 358              		.loc 1 285 0
 359 0008 B568     		ldr	r5, [r6, #8]
 360              	.LVL15:
 361              		.loc 1 289 0
 362 000a 40F20F10 		movw	r0, #271
 363              		.loc 1 287 0
 364 000e 2C88     		ldrh	r4, [r5, #0]
 365              		.loc 1 288 0
 366 0010 AA88     		ldrh	r2, [r5, #4]
 367              		.loc 1 287 0
 368 0012 A4B2     		uxth	r4, r4
 369              	.LVL16:
 370              		.loc 1 289 0
 371 0014 04EA0003 		and	r3, r4, r0
 372 0018 FBB1     		cbz	r3, .L26
 373              		.loc 1 292 0
 374 001a 7168     		ldr	r1, [r6, #4]
 375              		.loc 1 291 0
 376 001c 4FF6FF62 		movw	r2, 65279	@ movhi
 377              		.loc 1 292 0
 378 0020 0B69     		ldr	r3, [r1, #16]
 379              		.loc 1 291 0
 380 0022 2A80     		strh	r2, [r5, #0]	@ movhi
 381              		.loc 1 292 0
 382 0024 CBB1     		cbz	r3, .L26
 383              	.LVL17:
 384              	.LBB13:
 385              	.LBB14:
 386              		.loc 1 114 0
 387 0026 14F00801 		ands	r1, r4, #8
 388 002a 18BF     		it	ne
 389 002c 1021     		movne	r1, #16
 390              	.LVL18:
 391              		.loc 1 115 0
 392 002e 14F0010F 		tst	r4, #1
 393              		.loc 1 116 0
 394 0032 18BF     		it	ne
 395 0034 41F00401 		orrne	r1, r1, #4
ARM GAS  C:\Users\DNIEL~1\AppData\Local\Temp\cc4qdATB.s 			page 8


 396              	.LVL19:
 397              		.loc 1 117 0
 398 0038 14F0020F 		tst	r4, #2
 399              		.loc 1 118 0
 400 003c 18BF     		it	ne
 401 003e 41F00801 		orrne	r1, r1, #8
 402              	.LVL20:
 403              		.loc 1 119 0
 404 0042 14F0040F 		tst	r4, #4
 405              		.loc 1 120 0
 406 0046 18BF     		it	ne
 407 0048 41F02001 		orrne	r1, r1, #32
 408              	.LVL21:
 409              		.loc 1 121 0
 410 004c 14F4807F 		tst	r4, #256
 411              		.loc 1 122 0
 412 0050 18BF     		it	ne
 413 0052 41F04001 		orrne	r1, r1, #64
 414              	.LVL22:
 415              	.LBE14:
 416              	.LBE13:
 417              		.loc 1 293 0
 418 0056 0A48     		ldr	r0, .L34
 419 0058 9847     		blx	r3
 420              	.LVL23:
 421              	.L26:
 422              		.loc 1 295 0
 423 005a 14F0400F 		tst	r4, #64
 424 005e 08D0     		beq	.L32
 425              		.loc 1 299 0
 426 0060 7368     		ldr	r3, [r6, #4]
 427              		.loc 1 296 0
 428 0062 4FF6BF7C 		movw	ip, 65471	@ movhi
 429              		.loc 1 299 0
 430 0066 5B68     		ldr	r3, [r3, #4]
 431              		.loc 1 296 0
 432 0068 A5F800C0 		strh	ip, [r5, #0]	@ movhi
 433              		.loc 1 299 0
 434 006c 0BB1     		cbz	r3, .L32
 435              		.loc 1 300 0
 436 006e 0448     		ldr	r0, .L34
 437 0070 9847     		blx	r3
 438              	.L32:
 439              	.LBE15:
 440              	.LBE16:
 441              		.loc 1 380 0
 442 0072 FFF7FEFF 		bl	dbg_check_leave_isr
 443              		.loc 1 381 0
 444 0076 BDE87040 		pop	{r4, r5, r6, lr}
 445              		.loc 1 380 0
 446 007a FFF7FEBF 		b	_port_irq_epilogue
 447              	.L35:
 448 007e 00BF     		.align	2
 449              	.L34:
 450 0080 00000000 		.word	.LANCHOR0
 451              		.cfi_endproc
 452              	.LFE125:
ARM GAS  C:\Users\DNIEL~1\AppData\Local\Temp\cc4qdATB.s 			page 9


 453              		.size	Vector15C, .-Vector15C
 454 0084 AFF30080 		.section	.text.uart_lld_init,"ax",%progbits
 454      AFF30080 
 454      AFF30080 
 455              		.align	2
 456              		.p2align 4,,15
 457              		.global	uart_lld_init
 458              		.thumb
 459              		.thumb_func
 460              		.type	uart_lld_init, %function
 461              	uart_lld_init:
 462              	.LFB126:
 463              		.loc 1 393 0
 464              		.cfi_startproc
 465              		@ args = 0, pretend = 0, frame = 0
 466              		@ frame_needed = 0, uses_anonymous_args = 0
 467 0000 10B5     		push	{r4, lr}
 468              	.LCFI4:
 469              		.cfi_def_cfa_offset 8
 470              		.loc 1 417 0
 471 0002 064C     		ldr	r4, .L37
 472              		.cfi_offset 14, -4
 473              		.cfi_offset 4, -8
 474 0004 2046     		mov	r0, r4
 475 0006 FFF7FEFF 		bl	uartObjectInit
 476              		.loc 1 419 0
 477 000a 054B     		ldr	r3, .L37+4
 478              		.loc 1 418 0
 479 000c 0549     		ldr	r1, .L37+8
 480              		.loc 1 420 0
 481 000e 03F13C02 		add	r2, r3, #60
 482              		.loc 1 418 0
 483 0012 A160     		str	r1, [r4, #8]
 484              		.loc 1 419 0
 485 0014 2361     		str	r3, [r4, #16]
 486              		.loc 1 420 0
 487 0016 6261     		str	r2, [r4, #20]
 488              		.loc 1 422 0
 489 0018 10BD     		pop	{r4, pc}
 490              	.L38:
 491 001a 00BF     		.align	2
 492              	.L37:
 493 001c 00000000 		.word	.LANCHOR0
 494 0020 78000000 		.word	_stm32_dma_streams+120
 495 0024 00140140 		.word	1073812480
 496              		.cfi_endproc
 497              	.LFE126:
 498              		.size	uart_lld_init, .-uart_lld_init
 499 0028 AFF30080 		.section	.text.uart_lld_start,"ax",%progbits
 499      AFF30080 
 500              		.align	2
 501              		.p2align 4,,15
 502              		.global	uart_lld_start
 503              		.thumb
 504              		.thumb_func
 505              		.type	uart_lld_start, %function
 506              	uart_lld_start:
ARM GAS  C:\Users\DNIEL~1\AppData\Local\Temp\cc4qdATB.s 			page 10


 507              	.LFB127:
 508              		.loc 1 431 0
 509              		.cfi_startproc
 510              		@ args = 0, pretend = 0, frame = 0
 511              		@ frame_needed = 0, uses_anonymous_args = 0
 512              	.LVL24:
 513              		.loc 1 435 0
 514 0000 0378     		ldrb	r3, [r0, #0]	@ zero_extendqisi2
 515              		.loc 1 433 0
 516 0002 0622     		movs	r2, #6
 517              		.loc 1 435 0
 518 0004 012B     		cmp	r3, #1
 519              		.loc 1 431 0
 520 0006 2DE9F041 		push	{r4, r5, r6, r7, r8, lr}
 521              	.LCFI5:
 522              		.cfi_def_cfa_offset 24
 523              		.loc 1 431 0
 524 000a 0446     		mov	r4, r0
 525              		.cfi_offset 14, -4
 526              		.cfi_offset 8, -8
 527              		.cfi_offset 7, -12
 528              		.cfi_offset 6, -16
 529              		.cfi_offset 5, -20
 530              		.cfi_offset 4, -24
 531              		.loc 1 433 0
 532 000c C260     		str	r2, [r0, #12]
 533              		.loc 1 435 0
 534 000e 34D0     		beq	.L51
 535 0010 8568     		ldr	r5, [r0, #8]
 536              	.LVL25:
 537              	.L40:
 538              		.loc 1 529 0
 539 0012 0026     		movs	r6, #0
 540 0014 A670     		strb	r6, [r4, #2]
 541              		.loc 1 530 0
 542 0016 6670     		strb	r6, [r4, #1]
 543              	.LVL26:
 544              	.LBB17:
 545              	.LBB19:
 546              		.loc 1 175 0
 547 0018 2046     		mov	r0, r4
 548 001a FFF7FEFF 		bl	usart_stop
 549              		.loc 1 179 0
 550 001e A368     		ldr	r3, [r4, #8]
 551 0020 394A     		ldr	r2, .L56
 552 0022 9342     		cmp	r3, r2
 553 0024 3FD0     		beq	.L45
 554 0026 02F5806E 		add	lr, r2, #1024
 555 002a 7345     		cmp	r3, lr
 556 002c 3BD0     		beq	.L45
 557              		.loc 1 185 0
 558 002e 6068     		ldr	r0, [r4, #4]
 559 0030 364E     		ldr	r6, .L56+4
 560 0032 4169     		ldr	r1, [r0, #20]
 561 0034 B6FBF1F2 		udiv	r2, r6, r1
 562 0038 2A81     		strh	r2, [r5, #8]	@ movhi
 563              	.L47:
ARM GAS  C:\Users\DNIEL~1\AppData\Local\Temp\cc4qdATB.s 			page 11


 564              		.loc 1 194 0
 565 003a 4768     		ldr	r7, [r0, #4]
 566              		.loc 1 200 0
 567 003c 428B     		ldrh	r2, [r0, #26]
 568              		.loc 1 201 0
 569 003e B0F81CE0 		ldrh	lr, [r0, #28]
 570              		.loc 1 195 0
 571 0042 42F20C16 		movw	r6, #8460
 572              		.loc 1 199 0
 573 0046 008B     		ldrh	r0, [r0, #24]
 574              		.loc 1 195 0
 575 0048 42F24C11 		movw	r1, #8524
 576 004c 002F     		cmp	r7, #0
 577 004e 08BF     		it	eq
 578 0050 3146     		moveq	r1, r6
 579              	.LVL27:
 580              		.loc 1 199 0
 581 0052 41EA0003 		orr	r3, r1, r0
 582              		.loc 1 200 0
 583 0056 42F0400C 		orr	ip, r2, #64
 584              		.loc 1 188 0
 585 005a 2888     		ldrh	r0, [r5, #0]
 586              		.loc 1 201 0
 587 005c 4EF0C10E 		orr	lr, lr, #193
 588              		.loc 1 205 0
 589 0060 2046     		mov	r0, r4
 590              		.loc 1 189 0
 591 0062 AC88     		ldrh	r4, [r5, #4]
 592              	.LVL28:
 593              		.loc 1 190 0
 594 0064 0024     		movs	r4, #0
 595 0066 2C80     		strh	r4, [r5, #0]	@ movhi
 596              		.loc 1 199 0
 597 0068 AB81     		strh	r3, [r5, #12]	@ movhi
 598              		.loc 1 200 0
 599 006a A5F810C0 		strh	ip, [r5, #16]	@ movhi
 600              		.loc 1 201 0
 601 006e A5F814E0 		strh	lr, [r5, #20]	@ movhi
 602              	.LBE19:
 603              	.LBE17:
 604              		.loc 1 532 0
 605 0072 BDE8F041 		pop	{r4, r5, r6, r7, r8, lr}
 606              	.LBB21:
 607              	.LBB18:
 608              		.loc 1 205 0
 609 0076 FFF7FEBF 		b	set_rx_idle_loop
 610              	.LVL29:
 611              	.L51:
 612              	.LBE18:
 613              	.LBE21:
 614              		.loc 1 500 0
 615 007a 254D     		ldr	r5, .L56+8
 616 007c A842     		cmp	r0, r5
 617 007e 1FD0     		beq	.L52
 618              	.LVL30:
 619              	.L41:
 620              		.loc 1 522 0
ARM GAS  C:\Users\DNIEL~1\AppData\Local\Temp\cc4qdATB.s 			page 12


 621 0080 6268     		ldr	r2, [r4, #4]
 622 0082 B2F818C0 		ldrh	ip, [r2, #24]
 623 0086 0CF4A055 		and	r5, ip, #5120
 624 008a B5F5805F 		cmp	r5, #4096
 625 008e 12D0     		beq	.L53
 626              	.L44:
 627              		.loc 1 524 0
 628 0090 2169     		ldr	r1, [r4, #16]
 629              		.loc 1 525 0
 630 0092 6069     		ldr	r0, [r4, #20]
 631              		.loc 1 524 0
 632 0094 A568     		ldr	r5, [r4, #8]
 633 0096 0A68     		ldr	r2, [r1, #0]
 634              		.loc 1 525 0
 635 0098 0768     		ldr	r7, [r0, #0]
 636              		.loc 1 524 0
 637 009a 2B1D     		adds	r3, r5, #4
 638              		.loc 1 526 0
 639 009c 0026     		movs	r6, #0
 640              		.loc 1 524 0
 641 009e 9360     		str	r3, [r2, #8]
 642              		.loc 1 525 0
 643 00a0 BB60     		str	r3, [r7, #8]
 644              		.loc 1 526 0
 645 00a2 2683     		strh	r6, [r4, #24]	@ movhi
 646 00a4 B5E7     		b	.L40
 647              	.LVL31:
 648              	.L45:
 649              	.LBB22:
 650              	.LBB20:
 651              		.loc 1 183 0
 652 00a6 6068     		ldr	r0, [r4, #4]
 653 00a8 1A4B     		ldr	r3, .L56+12
 654 00aa 4769     		ldr	r7, [r0, #20]
 655 00ac B3FBF7FC 		udiv	ip, r3, r7
 656 00b0 A5F808C0 		strh	ip, [r5, #8]	@ movhi
 657 00b4 C1E7     		b	.L47
 658              	.LVL32:
 659              	.L53:
 660              	.LBE20:
 661              	.LBE22:
 662              		.loc 1 523 0
 663 00b6 E168     		ldr	r1, [r4, #12]
 664 00b8 41F42050 		orr	r0, r1, #10240
 665 00bc E060     		str	r0, [r4, #12]
 666 00be E7E7     		b	.L44
 667              	.L52:
 668              	.LBB23:
 669              		.loc 1 502 0
 670 00c0 0069     		ldr	r0, [r0, #16]
 671 00c2 0C21     		movs	r1, #12
 672 00c4 144A     		ldr	r2, .L56+16
 673 00c6 2346     		mov	r3, r4
 674 00c8 FFF7FEFF 		bl	dmaStreamAllocate
 675              	.LVL33:
 676              		.loc 1 506 0
 677 00cc A0B9     		cbnz	r0, .L54
ARM GAS  C:\Users\DNIEL~1\AppData\Local\Temp\cc4qdATB.s 			page 13


 678              	.LVL34:
 679              	.L42:
 680              		.loc 1 507 0
 681 00ce 6869     		ldr	r0, [r5, #20]
 682 00d0 0C21     		movs	r1, #12
 683 00d2 124A     		ldr	r2, .L56+20
 684 00d4 0E4B     		ldr	r3, .L56+8
 685 00d6 FFF7FEFF 		bl	dmaStreamAllocate
 686              	.LVL35:
 687              		.loc 1 511 0
 688 00da 88B9     		cbnz	r0, .L55
 689              	.LVL36:
 690              	.L43:
 691              		.loc 1 512 0
 692 00dc 104F     		ldr	r7, .L56+24
 693              		.loc 1 513 0
 694 00de 4720     		movs	r0, #71
 695              		.loc 1 512 0
 696 00e0 7B6C     		ldr	r3, [r7, #68]
 697              		.loc 1 513 0
 698 00e2 C021     		movs	r1, #192
 699              		.loc 1 512 0
 700 00e4 43F02006 		orr	r6, r3, #32
 701 00e8 7E64     		str	r6, [r7, #68]
 702              		.loc 1 513 0
 703 00ea FFF7FEFF 		bl	nvicEnableVector
 704              		.loc 1 515 0
 705 00ee E968     		ldr	r1, [r5, #12]
 706 00f0 41F02060 		orr	r0, r1, #167772160
 707 00f4 E860     		str	r0, [r5, #12]
 708 00f6 C3E7     		b	.L41
 709              	.LVL37:
 710              	.L54:
 711              		.loc 1 506 0 discriminator 1
 712 00f8 0A48     		ldr	r0, .L56+28
 713              	.LVL38:
 714 00fa FFF7FEFF 		bl	chDbgPanic
 715 00fe E6E7     		b	.L42
 716              	.LVL39:
 717              	.L55:
 718              		.loc 1 511 0 discriminator 1
 719 0100 0948     		ldr	r0, .L56+32
 720              	.LVL40:
 721 0102 FFF7FEFF 		bl	chDbgPanic
 722 0106 E9E7     		b	.L43
 723              	.L57:
 724              		.align	2
 725              	.L56:
 726 0108 00100140 		.word	1073811456
 727 010c 80DE8002 		.word	42000000
 728 0110 00000000 		.word	.LANCHOR0
 729 0114 00BD0105 		.word	84000000
 730 0118 00000000 		.word	uart_lld_serve_rx_end_irq
 731 011c 00000000 		.word	uart_lld_serve_tx_end_irq
 732 0120 00380240 		.word	1073887232
 733 0124 00000000 		.word	.LC0
 734 0128 18000000 		.word	.LC1
ARM GAS  C:\Users\DNIEL~1\AppData\Local\Temp\cc4qdATB.s 			page 14


 735              	.LBE23:
 736              		.cfi_endproc
 737              	.LFE127:
 738              		.size	uart_lld_start, .-uart_lld_start
 739 012c AFF30080 		.section	.text.uart_lld_stop,"ax",%progbits
 740              		.align	2
 741              		.p2align 4,,15
 742              		.global	uart_lld_stop
 743              		.thumb
 744              		.thumb_func
 745              		.type	uart_lld_stop, %function
 746              	uart_lld_stop:
 747              	.LFB128:
 748              		.loc 1 541 0
 749              		.cfi_startproc
 750              		@ args = 0, pretend = 0, frame = 0
 751              		@ frame_needed = 0, uses_anonymous_args = 0
 752              	.LVL41:
 753              		.loc 1 543 0
 754 0000 0378     		ldrb	r3, [r0, #0]	@ zero_extendqisi2
 755              		.loc 1 541 0
 756 0002 10B5     		push	{r4, lr}
 757              	.LCFI6:
 758              		.cfi_def_cfa_offset 8
 759              		.loc 1 543 0
 760 0004 022B     		cmp	r3, #2
 761              		.loc 1 541 0
 762 0006 0446     		mov	r4, r0
 763              		.cfi_offset 14, -4
 764              		.cfi_offset 4, -8
 765              		.loc 1 543 0
 766 0008 00D0     		beq	.L60
 767              	.LVL42:
 768              	.L58:
 769 000a 10BD     		pop	{r4, pc}
 770              	.L60:
 771              		.loc 1 544 0
 772 000c FFF7FEFF 		bl	usart_stop
 773              		.loc 1 545 0
 774 0010 2069     		ldr	r0, [r4, #16]
 775 0012 FFF7FEFF 		bl	dmaStreamRelease
 776              		.loc 1 546 0
 777 0016 6069     		ldr	r0, [r4, #20]
 778 0018 FFF7FEFF 		bl	dmaStreamRelease
 779              		.loc 1 573 0
 780 001c 0548     		ldr	r0, .L61
 781 001e 8442     		cmp	r4, r0
 782 0020 F3D1     		bne	.L58
 783              		.loc 1 574 0
 784 0022 4720     		movs	r0, #71
 785 0024 FFF7FEFF 		bl	nvicDisableVector
 786              		.loc 1 575 0
 787 0028 0349     		ldr	r1, .L61+4
 788 002a 4B6C     		ldr	r3, [r1, #68]
 789 002c 23F02002 		bic	r2, r3, #32
 790 0030 4A64     		str	r2, [r1, #68]
 791 0032 EAE7     		b	.L58
ARM GAS  C:\Users\DNIEL~1\AppData\Local\Temp\cc4qdATB.s 			page 15


 792              	.L62:
 793              		.align	2
 794              	.L61:
 795 0034 00000000 		.word	.LANCHOR0
 796 0038 00380240 		.word	1073887232
 797              		.cfi_endproc
 798              	.LFE128:
 799              		.size	uart_lld_stop, .-uart_lld_stop
 800 003c AFF30080 		.section	.text.uart_lld_start_send,"ax",%progbits
 801              		.align	2
 802              		.p2align 4,,15
 803              		.global	uart_lld_start_send
 804              		.thumb
 805              		.thumb_func
 806              		.type	uart_lld_start_send, %function
 807              	uart_lld_start_send:
 808              	.LFB129:
 809              		.loc 1 593 0
 810              		.cfi_startproc
 811              		@ args = 0, pretend = 0, frame = 0
 812              		@ frame_needed = 0, uses_anonymous_args = 0
 813              		@ link register save eliminated.
 814              	.LVL43:
 815              		.loc 1 596 0
 816 0000 4369     		ldr	r3, [r0, #20]
 817              		.loc 1 598 0
 818 0002 C068     		ldr	r0, [r0, #12]
 819              	.LVL44:
 820              		.loc 1 596 0
 821 0004 1B68     		ldr	r3, [r3, #0]
 822              		.loc 1 598 0
 823 0006 40F48A60 		orr	r0, r0, #1104
 824              		.loc 1 596 0
 825 000a DA60     		str	r2, [r3, #12]
 826              		.loc 1 597 0
 827 000c 5960     		str	r1, [r3, #4]
 828              		.loc 1 598 0
 829 000e 1860     		str	r0, [r3, #0]
 830              		.loc 1 600 0
 831 0010 1868     		ldr	r0, [r3, #0]
 832 0012 40F00102 		orr	r2, r0, #1
 833              	.LVL45:
 834 0016 1A60     		str	r2, [r3, #0]
 835              		.loc 1 601 0
 836 0018 7047     		bx	lr
 837              		.cfi_endproc
 838              	.LFE129:
 839              		.size	uart_lld_start_send, .-uart_lld_start_send
 840 001a 00BFAFF3 		.section	.text.uart_lld_stop_send,"ax",%progbits
 840      0080
 841              		.align	2
 842              		.p2align 4,,15
 843              		.global	uart_lld_stop_send
 844              		.thumb
 845              		.thumb_func
 846              		.type	uart_lld_stop_send, %function
 847              	uart_lld_stop_send:
ARM GAS  C:\Users\DNIEL~1\AppData\Local\Temp\cc4qdATB.s 			page 16


 848              	.LFB130:
 849              		.loc 1 614 0
 850              		.cfi_startproc
 851              		@ args = 0, pretend = 0, frame = 0
 852              		@ frame_needed = 0, uses_anonymous_args = 0
 853              		@ link register save eliminated.
 854              	.LVL46:
 855              		.loc 1 616 0
 856 0000 4169     		ldr	r1, [r0, #20]
 857 0002 0A68     		ldr	r2, [r1, #0]
 858 0004 1068     		ldr	r0, [r2, #0]
 859              	.LVL47:
 860 0006 20F00103 		bic	r3, r0, #1
 861 000a 1360     		str	r3, [r2, #0]
 862              	.L65:
 863              		.loc 1 616 0 is_stmt 0 discriminator 1
 864 000c 1368     		ldr	r3, [r2, #0]
 865 000e 13F0010F 		tst	r3, #1
 866 0012 FBD1     		bne	.L65
 867              		.loc 1 616 0 discriminator 2
 868 0014 0B7A     		ldrb	r3, [r1, #8]	@ zero_extendqisi2
 869 0016 3D20     		movs	r0, #61
 870 0018 9840     		lsls	r0, r0, r3
 871 001a 4968     		ldr	r1, [r1, #4]
 872 001c 0860     		str	r0, [r1, #0]
 873              		.loc 1 617 0 is_stmt 1 discriminator 2
 874 001e 5068     		ldr	r0, [r2, #4]
 875              		.loc 1 618 0 discriminator 2
 876 0020 7047     		bx	lr
 877              		.cfi_endproc
 878              	.LFE130:
 879              		.size	uart_lld_stop_send, .-uart_lld_stop_send
 880 0022 00BFAFF3 		.section	.text.uart_lld_start_receive,"ax",%progbits
 880      0080AFF3 
 880      0080AFF3 
 880      0080
 881              		.align	2
 882              		.p2align 4,,15
 883              		.global	uart_lld_start_receive
 884              		.thumb
 885              		.thumb_func
 886              		.type	uart_lld_start_receive, %function
 887              	uart_lld_start_receive:
 888              	.LFB131:
 889              		.loc 1 631 0
 890              		.cfi_startproc
 891              		@ args = 0, pretend = 0, frame = 0
 892              		@ frame_needed = 0, uses_anonymous_args = 0
 893              		@ link register save eliminated.
 894              	.LVL48:
 895              		.loc 1 634 0
 896 0000 0369     		ldr	r3, [r0, #16]
 897              		.loc 1 631 0
 898 0002 70B4     		push	{r4, r5, r6}
 899              	.LCFI7:
 900              		.cfi_def_cfa_offset 12
 901              		.loc 1 634 0
ARM GAS  C:\Users\DNIEL~1\AppData\Local\Temp\cc4qdATB.s 			page 17


 902 0004 1C68     		ldr	r4, [r3, #0]
 903              		.cfi_offset 6, -4
 904              		.cfi_offset 5, -8
 905              		.cfi_offset 4, -12
 906 0006 2668     		ldr	r6, [r4, #0]
 907 0008 26F00105 		bic	r5, r6, #1
 908 000c 2560     		str	r5, [r4, #0]
 909              	.L68:
 910              		.loc 1 634 0 is_stmt 0 discriminator 1
 911 000e 2568     		ldr	r5, [r4, #0]
 912 0010 15F0010F 		tst	r5, #1
 913 0014 FBD1     		bne	.L68
 914              		.loc 1 634 0 discriminator 2
 915 0016 1D7A     		ldrb	r5, [r3, #8]	@ zero_extendqisi2
 916 0018 3D26     		movs	r6, #61
 917 001a 16FA05F5 		lsls	r5, r6, r5
 918 001e 5B68     		ldr	r3, [r3, #4]
 919 0020 1D60     		str	r5, [r3, #0]
 920              		.loc 1 639 0 is_stmt 1 discriminator 2
 921 0022 C368     		ldr	r3, [r0, #12]
 922              		.loc 1 637 0 discriminator 2
 923 0024 E260     		str	r2, [r4, #12]
 924              		.loc 1 639 0 discriminator 2
 925 0026 43F48262 		orr	r2, r3, #1040
 926              	.LVL49:
 927              		.loc 1 638 0 discriminator 2
 928 002a 6160     		str	r1, [r4, #4]
 929              		.loc 1 639 0 discriminator 2
 930 002c 2260     		str	r2, [r4, #0]
 931              		.loc 1 641 0 discriminator 2
 932 002e 2068     		ldr	r0, [r4, #0]
 933              	.LVL50:
 934 0030 40F00103 		orr	r3, r0, #1
 935 0034 2360     		str	r3, [r4, #0]
 936              		.loc 1 642 0 discriminator 2
 937 0036 70BC     		pop	{r4, r5, r6}
 938 0038 7047     		bx	lr
 939              		.cfi_endproc
 940              	.LFE131:
 941              		.size	uart_lld_start_receive, .-uart_lld_start_receive
 942 003a 00BFAFF3 		.section	.text.uart_lld_stop_receive,"ax",%progbits
 942      0080
 943              		.align	2
 944              		.p2align 4,,15
 945              		.global	uart_lld_stop_receive
 946              		.thumb
 947              		.thumb_func
 948              		.type	uart_lld_stop_receive, %function
 949              	uart_lld_stop_receive:
 950              	.LFB132:
 951              		.loc 1 655 0
 952              		.cfi_startproc
 953              		@ args = 0, pretend = 0, frame = 0
 954              		@ frame_needed = 0, uses_anonymous_args = 0
 955              	.LVL51:
 956 0000 10B5     		push	{r4, lr}
 957              	.LCFI8:
ARM GAS  C:\Users\DNIEL~1\AppData\Local\Temp\cc4qdATB.s 			page 18


 958              		.cfi_def_cfa_offset 8
 959              		.loc 1 658 0
 960 0002 0469     		ldr	r4, [r0, #16]
 961              		.cfi_offset 14, -4
 962              		.cfi_offset 4, -8
 963 0004 2368     		ldr	r3, [r4, #0]
 964 0006 1968     		ldr	r1, [r3, #0]
 965 0008 21F00102 		bic	r2, r1, #1
 966 000c 1A60     		str	r2, [r3, #0]
 967              	.L71:
 968              		.loc 1 658 0 is_stmt 0 discriminator 1
 969 000e 1A68     		ldr	r2, [r3, #0]
 970 0010 12F0010F 		tst	r2, #1
 971 0014 FBD1     		bne	.L71
 972              		.loc 1 658 0 discriminator 2
 973 0016 227A     		ldrb	r2, [r4, #8]	@ zero_extendqisi2
 974 0018 3D21     		movs	r1, #61
 975 001a 9140     		lsls	r1, r1, r2
 976 001c 6468     		ldr	r4, [r4, #4]
 977 001e 2160     		str	r1, [r4, #0]
 978              		.loc 1 659 0 is_stmt 1 discriminator 2
 979 0020 5C68     		ldr	r4, [r3, #4]
 980              	.LVL52:
 981              		.loc 1 660 0 discriminator 2
 982 0022 FFF7FEFF 		bl	set_rx_idle_loop
 983              	.LVL53:
 984              		.loc 1 662 0 discriminator 2
 985 0026 2046     		mov	r0, r4
 986 0028 10BD     		pop	{r4, pc}
 987              		.cfi_endproc
 988              	.LFE132:
 989              		.size	uart_lld_stop_receive, .-uart_lld_stop_receive
 990              		.global	UARTD6
 991 002a 00BFAFF3 		.section	.rodata.str1.4,"aMS",%progbits,1
 991      0080
 992              		.align	2
 993              	.LC0:
 994 0000 75617274 		.ascii	"uart_lld_start(), #5\000"
 994      5F6C6C64 
 994      5F737461 
 994      72742829 
 994      2C202335 
 995 0015 000000   		.space	3
 996              	.LC1:
 997 0018 75617274 		.ascii	"uart_lld_start(), #6\000"
 997      5F6C6C64 
 997      5F737461 
 997      72742829 
 997      2C202336 
 998 002d 000000   		.section	.bss.UARTD6,"aw",%nobits
 999              		.align	2
 1000              		.set	.LANCHOR0,. + 0
 1001              		.type	UARTD6, %object
 1002              		.size	UARTD6, 28
 1003              	UARTD6:
 1004 0000 00000000 		.space	28
 1004      00000000 
ARM GAS  C:\Users\DNIEL~1\AppData\Local\Temp\cc4qdATB.s 			page 19


 1004      00000000 
 1004      00000000 
 1004      00000000 
 1005              		.text
 1006              	.Letext0: