ARM GAS  C:\Users\DNIEL~1\AppData\Local\Temp\cc4qdATB.s 			page 1


   1              		.syntax unified
   2              		.cpu cortex-m3
   3              		.fpu softvfp
   4              		.eabi_attribute 20, 1
   5              		.eabi_attribute 21, 1
   6              		.eabi_attribute 23, 3
   7              		.eabi_attribute 24, 1
   8              		.eabi_attribute 25, 1
   9              		.eabi_attribute 26, 1
  10              		.eabi_attribute 30, 2
  11              		.eabi_attribute 18, 4
  12              		.thumb
  13              		.file	"uart_lld.c"
  14              		.section	.debug_abbrev,"",%progbits
  15              	.Ldebug_abbrev0:
  16              		.section	.debug_info,"",%progbits
  17              	.Ldebug_info0:
  18              		.section	.debug_line,"",%progbits
  19              	.Ldebug_line0:
  20 0000 FD040000 		.text
  20      02003D02 
  20      00000201 
  20      FB0E0D00 
  20      01010101 
  21              	.Ltext0:
  22              		.cfi_sections	.debug_frame
  23              		.section	.text.set_rx_idle_loop,"ax",%progbits
  24              		.align	2
  25              		.p2align 4,,15
  26              		.thumb
  27              		.thumb_func
  28              		.type	set_rx_idle_loop, %function
  29              	set_rx_idle_loop:
  30              	.LFB119:
  31              		.file 1 "../../../ChibiOS/os/hal/platforms/STM32/USARTv1/uart_lld.c"
  32              		.loc 1 131 0
  33              		.cfi_startproc
  34              		@ args = 0, pretend = 0, frame = 0
  35              		@ frame_needed = 0, uses_anonymous_args = 0
  36              		@ link register save eliminated.
  37              	.LVL0:
  38              		.loc 1 136 0
  39 0000 4168     		ldr	r1, [r0, #4]
  40              		.loc 1 140 0
  41 0002 0369     		ldr	r3, [r0, #16]
  42              		.loc 1 136 0
  43 0004 CA68     		ldr	r2, [r1, #12]
  44              		.loc 1 142 0
  45 0006 C168     		ldr	r1, [r0, #12]
  46              		.loc 1 140 0
  47 0008 1B68     		ldr	r3, [r3, #0]
  48              		.loc 1 137 0
  49 000a 002A     		cmp	r2, #0
  50 000c 14BF     		ite	ne
  51 000e 4FF4887C 		movne	ip, #272
  52 0012 4FF4807C 		moveq	ip, #256
  53              	.LVL1:
ARM GAS  C:\Users\DNIEL~1\AppData\Local\Temp\cc4qdATB.s 			page 2


  54              		.loc 1 142 0
  55 0016 4CEA0102 		orr	r2, ip, r1
  56              		.loc 1 140 0
  57 001a 1830     		adds	r0, r0, #24
  58              	.LVL2:
  59              		.loc 1 141 0
  60 001c 0121     		movs	r1, #1
  61              		.loc 1 140 0
  62 001e D860     		str	r0, [r3, #12]
  63              		.loc 1 141 0
  64 0020 5960     		str	r1, [r3, #4]
  65              		.loc 1 142 0
  66 0022 1A60     		str	r2, [r3, #0]
  67              		.loc 1 143 0
  68 0024 1868     		ldr	r0, [r3, #0]
  69              	.LVL3:
  70 0026 40EA0102 		orr	r2, r0, r1
  71 002a 1A60     		str	r2, [r3, #0]
  72              		.loc 1 144 0
  73 002c 7047     		bx	lr
  74              		.cfi_endproc
  75              	.LFE119:
  76              		.size	set_rx_idle_loop, .-set_rx_idle_loop
  77 002e 00BF     		.section	.text.usart_stop,"ax",%progbits
  78              		.align	2
  79              		.p2align 4,,15
  80              		.thumb
  81              		.thumb_func
  82              		.type	usart_stop, %function
  83              	usart_stop:
  84              	.LFB120:
  85              		.loc 1 152 0
  86              		.cfi_startproc
  87              		@ args = 0, pretend = 0, frame = 0
  88              		@ frame_needed = 0, uses_anonymous_args = 0
  89              		@ link register save eliminated.
  90              	.LVL4:
  91 0000 30B4     		push	{r4, r5}
  92              	.LCFI0:
  93              		.cfi_def_cfa_offset 8
  94              		.loc 1 155 0
  95 0002 0469     		ldr	r4, [r0, #16]
  96              		.cfi_offset 5, -4
  97              		.cfi_offset 4, -8
  98 0004 2268     		ldr	r2, [r4, #0]
  99 0006 1168     		ldr	r1, [r2, #0]
 100 0008 21F00103 		bic	r3, r1, #1
 101 000c 1360     		str	r3, [r2, #0]
 102              	.L5:
 103              		.loc 1 155 0 is_stmt 0 discriminator 1
 104 000e 1568     		ldr	r5, [r2, #0]
 105 0010 15F0010F 		tst	r5, #1
 106 0014 FBD1     		bne	.L5
 107              		.loc 1 155 0 discriminator 2
 108 0016 217A     		ldrb	r1, [r4, #8]	@ zero_extendqisi2
 109 0018 3D22     		movs	r2, #61
 110 001a 12FA01F5 		lsls	r5, r2, r1
ARM GAS  C:\Users\DNIEL~1\AppData\Local\Temp\cc4qdATB.s 			page 3


 111              		.loc 1 156 0 is_stmt 1 discriminator 2
 112 001e 4169     		ldr	r1, [r0, #20]
 113              		.loc 1 155 0 discriminator 2
 114 0020 6468     		ldr	r4, [r4, #4]
 115              		.loc 1 156 0 discriminator 2
 116 0022 0A68     		ldr	r2, [r1, #0]
 117              		.loc 1 155 0 discriminator 2
 118 0024 2560     		str	r5, [r4, #0]
 119              		.loc 1 156 0 discriminator 2
 120 0026 1368     		ldr	r3, [r2, #0]
 121 0028 23F00104 		bic	r4, r3, #1
 122 002c 1460     		str	r4, [r2, #0]
 123              	.L6:
 124              		.loc 1 156 0 is_stmt 0 discriminator 1
 125 002e 1368     		ldr	r3, [r2, #0]
 126 0030 13F00103 		ands	r3, r3, #1
 127 0034 FBD1     		bne	.L6
 128              		.loc 1 156 0 discriminator 2
 129 0036 0A7A     		ldrb	r2, [r1, #8]	@ zero_extendqisi2
 130 0038 3D24     		movs	r4, #61
 131 003a 9440     		lsls	r4, r4, r2
 132              		.loc 1 159 0 is_stmt 1 discriminator 2
 133 003c 8068     		ldr	r0, [r0, #8]
 134              	.LVL5:
 135              		.loc 1 156 0 discriminator 2
 136 003e 4A68     		ldr	r2, [r1, #4]
 137 0040 1460     		str	r4, [r2, #0]
 138              		.loc 1 159 0 discriminator 2
 139 0042 8381     		strh	r3, [r0, #12]	@ movhi
 140              		.loc 1 160 0 discriminator 2
 141 0044 0382     		strh	r3, [r0, #16]	@ movhi
 142              		.loc 1 161 0 discriminator 2
 143 0046 8382     		strh	r3, [r0, #20]	@ movhi
 144              		.loc 1 162 0 discriminator 2
 145 0048 30BC     		pop	{r4, r5}
 146 004a 7047     		bx	lr
 147              		.cfi_endproc
 148              	.LFE120:
 149              		.size	usart_stop, .-usart_stop
 150 004c AFF30080 		.section	.text.uart_lld_serve_tx_end_irq,"ax",%progbits
 151              		.align	2
 152              		.p2align 4,,15
 153              		.thumb
 154              		.thumb_func
 155              		.type	uart_lld_serve_tx_end_irq, %function
 156              	uart_lld_serve_tx_end_irq:
 157              	.LFB123:
 158              		.loc 1 254 0
 159              		.cfi_startproc
 160              		@ args = 0, pretend = 0, frame = 0
 161              		@ frame_needed = 0, uses_anonymous_args = 0
 162              	.LVL6:
 163              		.loc 1 258 0
 164 0000 11F00C0F 		tst	r1, #12
 165              		.loc 1 254 0
 166 0004 10B5     		push	{r4, lr}
 167              	.LCFI1:
ARM GAS  C:\Users\DNIEL~1\AppData\Local\Temp\cc4qdATB.s 			page 4


 168              		.cfi_def_cfa_offset 8
 169              		.loc 1 254 0
 170 0006 0446     		mov	r4, r0
 171              		.cfi_offset 14, -4
 172              		.cfi_offset 4, -8
 173              		.loc 1 258 0
 174 0008 1FD1     		bne	.L16
 175              	.LVL7:
 176              	.L11:
 177              		.loc 1 265 0
 178 000a 6169     		ldr	r1, [r4, #20]
 179 000c 0A68     		ldr	r2, [r1, #0]
 180 000e 1068     		ldr	r0, [r2, #0]
 181 0010 20F00103 		bic	r3, r0, #1
 182 0014 1360     		str	r3, [r2, #0]
 183              	.L12:
 184              		.loc 1 265 0 is_stmt 0 discriminator 1
 185 0016 1368     		ldr	r3, [r2, #0]
 186 0018 13F0010F 		tst	r3, #1
 187 001c FBD1     		bne	.L12
 188              		.loc 1 265 0 discriminator 2
 189 001e 087A     		ldrb	r0, [r1, #8]	@ zero_extendqisi2
 190 0020 3D22     		movs	r2, #61
 191 0022 12FA00F0 		lsls	r0, r2, r0
 192              		.loc 1 269 0 is_stmt 1 discriminator 2
 193 0026 6368     		ldr	r3, [r4, #4]
 194              		.loc 1 265 0 discriminator 2
 195 0028 4968     		ldr	r1, [r1, #4]
 196              		.loc 1 269 0 discriminator 2
 197 002a 1B68     		ldr	r3, [r3, #0]
 198              		.loc 1 268 0 discriminator 2
 199 002c 0222     		movs	r2, #2
 200              		.loc 1 265 0 discriminator 2
 201 002e 0860     		str	r0, [r1, #0]
 202              		.loc 1 268 0 discriminator 2
 203 0030 6270     		strb	r2, [r4, #1]
 204              		.loc 1 269 0 discriminator 2
 205 0032 3BB1     		cbz	r3, .L13
 206              		.loc 1 270 0
 207 0034 2046     		mov	r0, r4
 208 0036 9847     		blx	r3
 209              		.loc 1 274 0
 210 0038 94F801C0 		ldrb	ip, [r4, #1]	@ zero_extendqisi2
 211 003c BCF1020F 		cmp	ip, #2
 212 0040 00D0     		beq	.L13
 213 0042 10BD     		pop	{r4, pc}
 214              	.L13:
 215              		.loc 1 275 0
 216 0044 0021     		movs	r1, #0
 217 0046 6170     		strb	r1, [r4, #1]
 218 0048 10BD     		pop	{r4, pc}
 219              	.LVL8:
 220              	.L16:
 221              		.loc 1 259 0
 222 004a FFF7FEFF 		bl	port_halt
 223              	.LVL9:
 224 004e DCE7     		b	.L11
ARM GAS  C:\Users\DNIEL~1\AppData\Local\Temp\cc4qdATB.s 			page 5


 225              		.cfi_endproc
 226              	.LFE123:
 227              		.size	uart_lld_serve_tx_end_irq, .-uart_lld_serve_tx_end_irq
 228              		.section	.text.uart_lld_serve_rx_end_irq,"ax",%progbits
 229              		.align	2
 230              		.p2align 4,,15
 231              		.thumb
 232              		.thumb_func
 233              		.type	uart_lld_serve_rx_end_irq, %function
 234              	uart_lld_serve_rx_end_irq:
 235              	.LFB122:
 236              		.loc 1 214 0
 237              		.cfi_startproc
 238              		@ args = 0, pretend = 0, frame = 0
 239              		@ frame_needed = 0, uses_anonymous_args = 0
 240              	.LVL10:
 241              		.loc 1 218 0
 242 0000 11F00C0F 		tst	r1, #12
 243              		.loc 1 214 0
 244 0004 10B5     		push	{r4, lr}
 245              	.LCFI2:
 246              		.cfi_def_cfa_offset 8
 247              		.loc 1 214 0
 248 0006 0446     		mov	r4, r0
 249              		.cfi_offset 14, -4
 250              		.cfi_offset 4, -8
 251              		.loc 1 218 0
 252 0008 26D1     		bne	.L24
 253              	.LVL11:
 254              	.L18:
 255              		.loc 1 225 0
 256 000a A378     		ldrb	r3, [r4, #2]	@ zero_extendqisi2
 257 000c 3BB9     		cbnz	r3, .L19
 258              		.loc 1 228 0
 259 000e 6068     		ldr	r0, [r4, #4]
 260 0010 C368     		ldr	r3, [r0, #12]
 261 0012 03B3     		cbz	r3, .L17
 262              		.loc 1 229 0
 263 0014 218B     		ldrh	r1, [r4, #24]
 264 0016 2046     		mov	r0, r4
 265 0018 89B2     		uxth	r1, r1
 266 001a 9847     		blx	r3
 267 001c 10BD     		pop	{r4, pc}
 268              	.L19:
 269              		.loc 1 234 0
 270 001e 2169     		ldr	r1, [r4, #16]
 271 0020 0A68     		ldr	r2, [r1, #0]
 272 0022 1068     		ldr	r0, [r2, #0]
 273 0024 20F00103 		bic	r3, r0, #1
 274 0028 1360     		str	r3, [r2, #0]
 275              	.L21:
 276              		.loc 1 234 0 is_stmt 0 discriminator 1
 277 002a 1368     		ldr	r3, [r2, #0]
 278 002c 13F0010F 		tst	r3, #1
 279 0030 FBD1     		bne	.L21
 280              		.loc 1 234 0 discriminator 2
 281 0032 087A     		ldrb	r0, [r1, #8]	@ zero_extendqisi2
ARM GAS  C:\Users\DNIEL~1\AppData\Local\Temp\cc4qdATB.s 			page 6


 282 0034 3D22     		movs	r2, #61
 283 0036 12FA00F0 		lsls	r0, r2, r0
 284              		.loc 1 236 0 is_stmt 1 discriminator 2
 285 003a 6368     		ldr	r3, [r4, #4]
 286              		.loc 1 234 0 discriminator 2
 287 003c 4968     		ldr	r1, [r1, #4]
 288              		.loc 1 236 0 discriminator 2
 289 003e 9B68     		ldr	r3, [r3, #8]
 290              		.loc 1 235 0 discriminator 2
 291 0040 0222     		movs	r2, #2
 292              		.loc 1 234 0 discriminator 2
 293 0042 0860     		str	r0, [r1, #0]
 294              		.loc 1 235 0 discriminator 2
 295 0044 A270     		strb	r2, [r4, #2]
 296              		.loc 1 236 0 discriminator 2
 297 0046 53B1     		cbz	r3, .L22
 298              		.loc 1 237 0
 299 0048 2046     		mov	r0, r4
 300 004a 9847     		blx	r3
 301              		.loc 1 241 0
 302 004c 94F802C0 		ldrb	ip, [r4, #2]	@ zero_extendqisi2
 303 0050 BCF1020F 		cmp	ip, #2
 304 0054 03D0     		beq	.L22
 305              	.L17:
 306 0056 10BD     		pop	{r4, pc}
 307              	.LVL12:
 308              	.L24:
 309              		.loc 1 219 0
 310 0058 FFF7FEFF 		bl	port_halt
 311              	.LVL13:
 312 005c D5E7     		b	.L18
 313              	.L22:
 314              		.loc 1 242 0
 315 005e 0021     		movs	r1, #0
 316              		.loc 1 243 0
 317 0060 2046     		mov	r0, r4
 318              		.loc 1 242 0
 319 0062 A170     		strb	r1, [r4, #2]
 320              		.loc 1 246 0
 321 0064 BDE81040 		pop	{r4, lr}
 322              		.loc 1 243 0
 323 0068 FFF7FEBF 		b	set_rx_idle_loop
 324              		.cfi_endproc
 325              	.LFE122:
 326              		.size	uart_lld_serve_rx_end_irq, .-uart_lld_serve_rx_end_irq
 327 006c AFF30080 		.section	.text.Vector15C,"ax",%progbits
 328              		.align	2
 329              		.p2align 4,,15
 330              		.global	Vector15C
 331              		.thumb
 332              		.thumb_func
 333              		.type	Vector15C, %function
 334              	Vector15C:
 335              	.LFB125:
 336              		.loc 1 374 0
 337              		.cfi_startproc
 338              		@ args = 0, pretend = 0, frame = 0
ARM GAS  C:\Users\DNIEL~1\AppData\Local\Temp\cc4qdATB.s 			page 7


 339              		@ frame_needed = 0, uses_anonymous_args = 0
 340 0000 70B5     		push	{r4, r5, r6, lr}
 341              	.LCFI3:
 342              		.cfi_def_cfa_offset 16
 343              	.LBB11:
 344              	.LBB12:
 345              		.loc 1 285 0
 346 0002 1F4E     		ldr	r6, .L34
 347              		.cfi_offset 14, -4
 348              		.cfi_offset 6, -8
 349              		.cfi_offset 5, -12
 350              		.cfi_offset 4, -16
 351              	.LBE12:
 352              	.LBE11:
 353              		.loc 1 376 0
 354 0004 FFF7FEFF 		bl	dbg_check_enter_isr
 355              	.LVL14:
 356              	.LBB16:
 357              	.LBB15:
 358              		.loc 1 285 0
 359 0008 B568     		ldr	r5, [r6, #8]
 360              	.LVL15:
 361              		.loc 1 289 0
 362 000a 40F20F10 		movw	r0, #271
 363              		.loc 1 287 0
 364 000e 2C88     		ldrh	r4, [r5, #0]
 365              		.loc 1 288 0
 366 0010 AA88     		ldrh	r2, [r5, #4]
 367              		.loc 1 287 0
 368 0012 A4B2     		uxth	r4, r4
 369              	.LVL16:
 370              		.loc 1 289 0
 371 0014 04EA0003 		and	r3, r4, r0
 372 0018 FBB1     		cbz	r3, .L26
 373              		.loc 1 292 0
 374 001a 7168     		ldr	r1, [r6, #4]
 375              		.loc 1 291 0
 376 001c 4FF6FF62 		movw	r2, 65279	@ movhi
 377              		.loc 1 292 0
 378 0020 0B69     		ldr	r3, [r1, #16]
 379              		.loc 1 291 0
 380 0022 2A80     		strh	r2, [r5, #0]	@ movhi
 381              		.loc 1 292 0
 382 0024 CBB1     		cbz	r3, .L26
 383              	.LVL17:
 384              	.LBB13:
 385              	.LBB14:
 386              		.loc 1 114 0
 387 0026 14F00801 		ands	r1, r4, #8
 388 002a 18BF     		it	ne
 389 002c 1021     		movne	r1, #16
 390              	.LVL18:
 391              		.loc 1 115 0
 392 002e 14F0010F 		tst	r4, #1
 393              		.loc 1 116 0
 394 0032 18BF     		it	ne
 395 0034 41F00401 		orrne	r1, r1, #4
ARM GAS  C:\Users\DNIEL~1\AppData\Local\Temp\cc4qdATB.s 			page 8


 396              	.LVL19:
 397              		.loc 1 117 0
 398 0038 14F0020F 		tst	r4, #2
 399              		.loc 1 118 0
 400 003c 18BF     		it	ne
 401 003e 41F00801 		orrne	r1, r1, #8
 402              	.LVL20:
 403              		.loc 1 119 0
 404 0042 14F0040F 		tst	r4, #4
 405              		.loc 1 120 0
 406 0046 18BF     		it	ne
 407 0048 41F02001 		orrne	r1, r1, #32
 408              	.LVL21:
 409              		.loc 1 121 0
 410 004c 14F4807F 		tst	r4, #256
 411              		.loc 1 122 0
 412 0050 18BF     		it	ne
 413 0052 41F04001 		orrne	r1, r1, #64
 414              	.LVL22:
 415              	.LBE14:
 416              	.LBE13:
 417              		.loc 1 293 0
 418 0056 0A48     		ldr	r0, .L34
 419 0058 9847     		blx	r3
 420              	.LVL23:
 421              	.L26:
 422              		.loc 1 295 0
 423 005a 14F0400F 		tst	r4, #64
 424 005e 08D0     		beq	.L32
 425              		.loc 1 299 0
 426 0060 7368     		ldr	r3, [r6, #4]
 427              		.loc 1 296 0
 428 0062 4FF6BF7C 		movw	ip, 65471	@ movhi
 429              		.loc 1 299 0
 430 0066 5B68     		ldr	r3, [r3, #4]
 431              		.loc 1 296 0
 432 0068 A5F800C0 		strh	ip, [r5, #0]	@ movhi
 433              		.loc 1 299 0
 434 006c 0BB1     		cbz	r3, .L32
 435              		.loc 1 300 0
 436 006e 0448     		ldr	r0, .L34
 437 0070 9847     		blx	r3
 438              	.L32:
 439              	.LBE15:
 440              	.LBE16:
 441              		.loc 1 380 0
 442 0072 FFF7FEFF 		bl	dbg_check_leave_isr
 443              		.loc 1 381 0
 444 0076 BDE87040 		pop	{r4, r5, r6, lr}
 445              		.loc 1 380 0
 446 007a FFF7FEBF 		b	_port_irq_epilogue
 447              	.L35:
 448 007e 00BF     		.align	2
 449              	.L34:
 450 0080 00000000 		.word	.LANCHOR0
 451              		.cfi_endproc
 452              	.LFE125:
ARM GAS  C:\Users\DNIEL~1\AppData\Local\Temp\cc4qdATB.s 			page 9


 453              		.size	Vector15C, .-Vector15C
 454 0084 AFF30080 		.section	.text.uart_lld_init,"ax",%progbits
 454      AFF30080 
 454      AFF30080 
 455              		.align	2
 456              		.p2align 4,,15
 457              		.global	uart_lld_init
 458              		.thumb
 459              		.thumb_func
 460              		.type	uart_lld_init, %function
 461              	uart_lld_init:
 462              	.LFB126:
 463              		.loc 1 393 0
 464              		.cfi_startproc
 465              		@ args = 0, pretend = 0, frame = 0
 466              		@ frame_needed = 0, uses_anonymous_args = 0
 467 0000 10B5     		push	{r4, lr}
 468              	.LCFI4:
 469              		.cfi_def_cfa_offset 8
 470              		.loc 1 417 0
 471 0002 064C     		ldr	r4, .L37
 472              		.cfi_offset 14, -4
 473              		.cfi_offset 4, -8
 474 0004 2046     		mov	r0, r4
 475 0006 FFF7FEFF 		bl	uartObjectInit
 476              		.loc 1 419 0
 477 000a 054B     		ldr	r3, .L37+4
 478              		.loc 1 418 0
 479 000c 0549     		ldr	r1, .L37+8
 480              		.loc 1 420 0
 481 000e 03F13C02 		add	r2, r3, #60
 482              		.loc 1 418 0
 483 0012 A160     		str	r1, [r4, #8]
 484              		.loc 1 419 0
 485 0014 2361     		str	r3, [r4, #16]
 486              		.loc 1 420 0
 487 0016 6261     		str	r2, [r4, #20]
 488              		.loc 1 422 0
 489 0018 10BD     		pop	{r4, pc}
 490              	.L38:
 491 001a 00BF     		.align	2
 492              	.L37:
 493 001c 00000000 		.word	.LANCHOR0
 494 0020 78000000 		.word	_stm32_dma_streams+120
 495 0024 00140140 		.word	1073812480
 496              		.cfi_endproc
 497              	.LFE126:
 498              		.size	uart_lld_init, .-uart_lld_init
 499 0028 AFF30080 		.section	.text.uart_lld_start,"ax",%progbits
 499      AFF30080 
 500              		.align	2
 501              		.p2align 4,,15
 502              		.global	uart_lld_start
 503              		.thumb
 504              		.thumb_func
 505              		.type	uart_lld_start, %function
 506              	uart_lld_start:
ARM GAS  C:\Users\DNIEL~1\AppData\Local\Temp\cc4qdATB.s 			page 10


 507              	.LFB127:
 508              		.loc 1 431 0
 509              		.cfi_startproc
 510              		@ args = 0, pretend = 0, frame = 0
 511              		@ frame_needed = 0, uses_anonymous_args = 0
 512              	.LVL24:
 513              		.loc 1 435 0
 514 0000 0378     		ldrb	r3, [r0, #0]	@ zero_extendqisi2
 515              		.loc 1 433 0
 516 0002 0622     		movs	r2, #6
 517              		.loc 1 435 0
 518 0004 012B     		cmp	r3, #1
 519              		.loc 1 431 0
 520 0006 2DE9F041 		push	{r4, r5, r6, r7, r8, lr}
 521              	.LCFI5:
 522              		.cfi_def_cfa_offset 24
 523              		.loc 1 431 0
 524 000a 0446     		mov	r4, r0
 525              		.cfi_offset 14, -4
 526              		.cfi_offset 8, -8
 527              		.cfi_offset 7, -12
 528              		.cfi_offset 6, -16
 529              		.cfi_offset 5, -20
 530              		.cfi_offset 4, -24
 531              		.loc 1 433 0
 532 000c C260     		str	r2, [r0, #12]
 533              		.loc 1 435 0
 534 000e 34D0     		beq	.L51
 535 0010 8568     		ldr	r5, [r0, #8]
 536              	.LVL25:
 537              	.L40:
 538              		.loc 1 529 0
 539 0012 0026     		movs	r6, #0
 540 0014 A670     		strb	r6, [r4, #2]
 541              		.loc 1 530 0
 542 0016 6670     		strb	r6, [r4, #1]
 543              	.LVL26:
 544              	.LBB17:
 545              	.LBB19:
 546              		.loc 1 175 0
 547 0018 2046     		mov	r0, r4
 548 001a FFF7FEFF 		bl	usart_stop
 549              		.loc 1 179 0
 550 001e A368     		ldr	r3, [r4, #8]
 551 0020 394A     		ldr	r2, .L56
 552 0022 9342     		cmp	r3, r2
 553 0024 3FD0     		beq	.L45
 554 0026 02F5806E 		add	lr, r2, #1024
 555 002a 7345     		cmp	r3, lr
 556 002c 3BD0     		beq	.L45
 557              		.loc 1 185 0
 558 002e 6068     		ldr	r0, [r4, #4]
 559 0030 364E     		ldr	r6, .L56+4
 560 0032 4169     		ldr	r1, [r0, #20]
 561 0034 B6FBF1F2 		udiv	r2, r6, r1
 562 0038 2A81     		strh	r2, [r5, #8]	@ movhi
 563              	.L47:
ARM GAS  C:\Users\DNIEL~1\AppData\Local\Temp\cc4qdATB.s 			page 11


 564              		.loc 1 194 0
 565 003a 4768     		ldr	r7, [r0, #4]
 566              		.loc 1 200 0
 567 003c 428B     		ldrh	r2, [r0, #26]
 568              		.loc 1 201 0
 569 003e B0F81CE0 		ldrh	lr, [r0, #28]
 570              		.loc 1 195 0
 571 0042 42F20C16 		movw	r6, #8460
 572              		.loc 1 199 0
 573 0046 008B     		ldrh	r0, [r0, #24]
 574              		.loc 1 195 0
 575 0048 42F24C11 		movw	r1, #8524
 576 004c 002F     		cmp	r7, #0
 577 004e 08BF     		it	eq
 578 0050 3146     		moveq	r1, r6
 579              	.LVL27:
 580              		.loc 1 199 0
 581 0052 41EA0003 		orr	r3, r1, r0
 582              		.loc 1 200 0
 583 0056 42F0400C 		orr	ip, r2, #64
 584              		.loc 1 188 0
 585 005a 2888     		ldrh	r0, [r5, #0]
 586              		.loc 1 201 0
 587 005c 4EF0C10E 		orr	lr, lr, #193
 588              		.loc 1 205 0
 589 0060 2046     		mov	r0, r4
 590              		.loc 1 189 0
 591 0062 AC88     		ldrh	r4, [r5, #4]
 592              	.LVL28:
 593              		.loc 1 190 0
 594 0064 0024     		movs	r4, #0
 595 0066 2C80     		strh	r4, [r5, #0]	@ movhi
 596              		.loc 1 199 0
 597 0068 AB81     		strh	r3, [r5, #12]	@ movhi
 598              		.loc 1 200 0
 599 006a A5F810C0 		strh	ip, [r5, #16]	@ movhi
 600              		.loc 1 201 0
 601 006e A5F814E0 		strh	lr, [r5, #20]	@ movhi
 602              	.LBE19:
 603              	.LBE17:
 604              		.loc 1 532 0
 605 0072 BDE8F041 		pop	{r4, r5, r6, r7, r8, lr}
 606              	.LBB21:
 607              	.LBB18:
 608              		.loc 1 205 0
 609 0076 FFF7FEBF 		b	set_rx_idle_loop
 610              	.LVL29:
 611              	.L51:
 612              	.LBE18:
 613              	.LBE21:
 614              		.loc 1 500 0
 615 007a 254D     		ldr	r5, .L56+8
 616 007c A842     		cmp	r0, r5
 617 007e 1FD0     		beq	.L52
 618              	.LVL30:
 619              	.L41:
 620              		.loc 1 522 0
ARM GAS  C:\Users\DNIEL~1\AppData\Local\Temp\cc4qdATB.s 			page 12


 621 0080 6268     		ldr	r2, [r4, #4]
 622 0082 B2F818C0 		ldrh	ip, [r2, #24]
 623 0086 0CF4A055 		and	r5, ip, #5120
 624 008a B5F5805F 		cmp	r5, #4096
 625 008e 12D0     		beq	.L53
 626              	.L44:
 627              		.loc 1 524 0
 628 0090 2169     		ldr	r1, [r4, #16]
 629              		.loc 1 525 0
 630 0092 6069     		ldr	r0, [r4, #20]
 631              		.loc 1 524 0
 632 0094 A568     		ldr	r5, [r4, #8]
 633 0096 0A68     		ldr	r2, [r1, #0]
 634              		.loc 1 525 0
 635 0098 0768     		ldr	r7, [r0, #0]
 636              		.loc 1 524 0
 637 009a 2B1D     		adds	r3, r5, #4
 638              		.loc 1 526 0
 639 009c 0026     		movs	r6, #0
 640              		.loc 1 524 0
 641 009e 9360     		str	r3, [r2, #8]
 642              		.loc 1 525 0
 643 00a0 BB60     		str	r3, [r7, #8]
 644              		.loc 1 526 0
 645 00a2 2683     		strh	r6, [r4, #24]	@ movhi
 646 00a4 B5E7     		b	.L40
 647              	.LVL31:
 648              	.L45:
 649              	.LBB22:
 650              	.LBB20:
 651              		.loc 1 183 0
 652 00a6 6068     		ldr	r0, [r4, #4]
 653 00a8 1A4B     		ldr	r3, .L56+12
 654 00aa 4769     		ldr	r7, [r0, #20]
 655 00ac B3FBF7FC 		udiv	ip, r3, r7
 656 00b0 A5F808C0 		strh	ip, [r5, #8]	@ movhi
 657 00b4 C1E7     		b	.L47
 658              	.LVL32:
 659              	.L53:
 660              	.LBE20:
 661              	.LBE22:
 662              		.loc 1 523 0
 663 00b6 E168     		ldr	r1, [r4, #12]
 664 00b8 41F42050 		orr	r0, r1, #10240
 665 00bc E060     		str	r0, [r4, #12]
 666 00be E7E7     		b	.L44
 667              	.L52:
 668              	.LBB23:
 669              		.loc 1 502 0
 670 00c0 0069     		ldr	r0, [r0, #16]
 671 00c2 0C21     		movs	r1, #12
 672 00c4 144A     		ldr	r2, .L56+16
 673 00c6 2346     		mov	r3, r4
 674 00c8 FFF7FEFF 		bl	dmaStreamAllocate
 675              	.LVL33:
 676              		.loc 1 506 0
 677 00cc A0B9     		cbnz	r0, .L54
ARM GAS  C:\Users\DNIEL~1\AppData\Local\Temp\cc4qdATB.s 			page 13


 678              	.LVL34:
 679              	.L42:
 680              		.loc 1 507 0
 681 00ce 6869     		ldr	r0, [r5, #20]
 682 00d0 0C21     		movs	r1, #12
 683 00d2 124A     		ldr	r2, .L56+20
 684 00d4 0E4B     		ldr	r3, .L56+8
 685 00d6 FFF7FEFF 		bl	dmaStreamAllocate
 686              	.LVL35:
 687              		.loc 1 511 0
 688 00da 88B9     		cbnz	r0, .L55
 689              	.LVL36:
 690              	.L43:
 691              		.loc 1 512 0
 692 00dc 104F     		ldr	r7, .L56+24
 693              		.loc 1 513 0
 694 00de 4720     		movs	r0, #71
 695              		.loc 1 512 0
 696 00e0 7B6C     		ldr	r3, [r7, #68]
 697              		.loc 1 513 0
 698 00e2 C021     		movs	r1, #192
 699              		.loc 1 512 0
 700 00e4 43F02006 		orr	r6, r3, #32
 701 00e8 7E64     		str	r6, [r7, #68]
 702              		.loc 1 513 0
 703 00ea FFF7FEFF 		bl	nvicEnableVector
 704              		.loc 1 515 0
 705 00ee E968     		ldr	r1, [r5, #12]
 706 00f0 41F02060 		orr	r0, r1, #167772160
 707 00f4 E860     		str	r0, [r5, #12]
 708 00f6 C3E7     		b	.L41
 709              	.LVL37:
 710              	.L54:
 711              		.loc 1 506 0 discriminator 1
 712 00f8 0A48     		ldr	r0, .L56+28
 713              	.LVL38:
 714 00fa FFF7FEFF 		bl	chDbgPanic
 715 00fe E6E7     		b	.L42
 716              	.LVL39:
 717              	.L55:
 718              		.loc 1 511 0 discriminator 1
 719 0100 0948     		ldr	r0, .L56+32
 720              	.LVL40:
 721 0102 FFF7FEFF 		bl	chDbgPanic
 722 0106 E9E7     		b	.L43
 723              	.L57:
 724              		.align	2
 725              	.L56:
 726 0108 00100140 		.word	1073811456
 727 010c 80DE8002 		.word	42000000
 728 0110 00000000 		.word	.LANCHOR0
 729 0114 00BD0105 		.word	84000000
 730 0118 00000000 		.word	uart_lld_serve_rx_end_irq
 731 011c 00000000 		.word	uart_lld_serve_tx_end_irq
 732 0120 00380240 		.word	1073887232
 733 0124 00000000 		.word	.LC0
 734 0128 18000000 		.word	.LC1
ARM GAS  C:\Users\DNIEL~1\AppData\Local\Temp\cc4qdATB.s 			page 14


 735              	.LBE23:
 736              		.cfi_endproc
 737              	.LFE127:
 738              		.size	uart_lld_start, .-uart_lld_start
 739 012c AFF30080 		.section	.text.uart_lld_stop,"ax",%progbits
 740              		.align	2
 741              		.p2align 4,,15
 742              		.global	uart_lld_stop
 743              		.thumb
 744              		.thumb_func
 745              		.type	uart_lld_stop, %function
 746              	uart_lld_stop:
 747              	.LFB128:
 748              		.loc 1 541 0
 749              		.cfi_startproc
 750              		@ args = 0, pretend = 0, frame = 0
 751              		@ frame_needed = 0, uses_anonymous_args = 0
 752              	.LVL41:
 753              		.loc 1 543 0
 754 0000 0378     		ldrb	r3, [r0, #0]	@ zero_extendqisi2
 755              		.loc 1 541 0
 756 0002 10B5     		push	{r4, lr}
 757              	.LCFI6:
 758              		.cfi_def_cfa_offset 8
 759              		.loc 1 543 0
 760 0004 022B     		cmp	r3, #2
 761              		.loc 1 541 0
 762 0006 0446     		mov	r4, r0
 763              		.cfi_offset 14, -4
 764              		.cfi_offset 4, -8
 765              		.loc 1 543 0
 766 0008 00D0     		beq	.L60
 767              	.LVL42:
 768              	.L58:
 769 000a 10BD     		pop	{r4, pc}
 770              	.L60:
 771              		.loc 1 544 0
 772 000c FFF7FEFF 		bl	usart_stop
 773              		.loc 1 545 0
 774 0010 2069     		ldr	r0, [r4, #16]
 775 0012 FFF7FEFF 		bl	dmaStreamRelease
 776              		.loc 1 546 0
 777 0016 6069     		ldr	r0, [r4, #20]
 778 0018 FFF7FEFF 		bl	dmaStreamRelease
 779              		.loc 1 573 0
 780 001c 0548     		ldr	r0, .L61
 781 001e 8442     		cmp	r4, r0
 782 0020 F3D1     		bne	.L58
 783              		.loc 1 574 0
 784 0022 4720     		movs	r0, #71
 785 0024 FFF7FEFF 		bl	nvicDisableVector
 786              		.loc 1 575 0
 787 0028 0349     		ldr	r1, .L61+4
 788 002a 4B6C     		ldr	r3, [r1, #68]
 789 002c 23F02002 		bic	r2, r3, #32
 790 0030 4A64     		str	r2, [r1, #68]
 791 0032 EAE7     		b	.L58
ARM GAS  C:\Users\DNIEL~1\AppData\Local\Temp\cc4qdATB.s 			page 15


 792              	.L62:
 793              		.align	2
 794              	.L61:
 795 0034 00000000 		.word	.LANCHOR0
 796 0038 00380240 		.word	1073887232
 797              		.cfi_endproc
 798              	.LFE128:
 799              		.size	uart_lld_stop, .-uart_lld_stop
 800 003c AFF30080 		.section	.text.uart_lld_start_send,"ax",%progbits
 801              		.align	2
 802              		.p2align 4,,15
 803              		.global	uart_lld_start_send
 804              		.thumb
 805              		.thumb_func
 806              		.type	uart_lld_start_send, %function
 807              	uart_lld_start_send:
 808              	.LFB129:
 809              		.loc 1 593 0
 810              		.cfi_startproc
 811              		@ args = 0, pretend = 0, frame = 0
 812              		@ frame_needed = 0, uses_anonymous_args = 0
 813              		@ link register save eliminated.
 814              	.LVL43:
 815              		.loc 1 596 0
 816 0000 4369     		ldr	r3, [r0, #20]
 817              		.loc 1 598 0
 818 0002 C068     		ldr	r0, [r0, #12]
 819              	.LVL44:
 820              		.loc 1 596 0
 821 0004 1B68     		ldr	r3, [r3, #0]
 822              		.loc 1 598 0
 823 0006 40F48A60 		orr	r0, r0, #1104
 824              		.loc 1 596 0
 825 000a DA60     		str	r2, [r3, #12]
 826              		.loc 1 597 0
 827 000c 5960     		str	r1, [r3, #4]
 828              		.loc 1 598 0
 829 000e 1860     		str	r0, [r3, #0]
 830              		.loc 1 600 0
 831 0010 1868     		ldr	r0, [r3, #0]
 832 0012 40F00102 		orr	r2, r0, #1
 833              	.LVL45:
 834 0016 1A60     		str	r2, [r3, #0]
 835              		.loc 1 601 0
 836 0018 7047     		bx	lr
 837              		.cfi_endproc
 838              	.LFE129:
 839              		.size	uart_lld_start_send, .-uart_lld_start_send
 840 001a 00BFAFF3 		.section	.text.uart_lld_stop_send,"ax",%progbits
 840      0080
 841              		.align	2
 842              		.p2align 4,,15
 843              		.global	uart_lld_stop_send
 844              		.thumb
 845              		.thumb_func
 846              		.type	uart_lld_stop_send, %function
 847              	uart_lld_stop_send:
ARM GAS  C:\Users\DNIEL~1\AppData\Local\Temp\cc4qdATB.s 			page 16


 848              	.LFB130:
 849              		.loc 1 614 0
 850              		.cfi_startproc
 851              		@ args = 0, pretend = 0, frame = 0
 852              		@ frame_needed = 0, uses_anonymous_args = 0
 853              		@ link register save eliminated.
 854              	.LVL46:
 855              		.loc 1 616 0
 856 0000 4169     		ldr	r1, [r0, #20]
 857 0002 0A68     		ldr	r2, [r1, #0]
 858 0004 1068     		ldr	r0, [r2, #0]
 859              	.LVL47:
 860 0006 20F00103 		bic	r3, r0, #1
 861 000a 1360     		str	r3, [r2, #0]
 862              	.L65:
 863              		.loc 1 616 0 is_stmt 0 discriminator 1
 864 000c 1368     		ldr	r3, [r2, #0]
 865 000e 13F0010F 		tst	r3, #1
 866 0012 FBD1     		bne	.L65
 867              		.loc 1 616 0 discriminator 2
 868 0014 0B7A     		ldrb	r3, [r1, #8]	@ zero_extendqisi2
 869 0016 3D20     		movs	r0, #61
 870 0018 9840     		lsls	r0, r0, r3
 871 001a 4968     		ldr	r1, [r1, #4]
 872 001c 0860     		str	r0, [r1, #0]
 873              		.loc 1 617 0 is_stmt 1 discriminator 2
 874 001e 5068     		ldr	r0, [r2, #4]
 875              		.loc 1 618 0 discriminator 2
 876 0020 7047     		bx	lr
 877              		.cfi_endproc
 878              	.LFE130:
 879              		.size	uart_lld_stop_send, .-uart_lld_stop_send
 880 0022 00BFAFF3 		.section	.text.uart_lld_start_receive,"ax",%progbits
 880      0080AFF3 
 880      0080AFF3 
 880      0080
 881              		.align	2
 882              		.p2align 4,,15
 883              		.global	uart_lld_start_receive
 884              		.thumb
 885              		.thumb_func
 886              		.type	uart_lld_start_receive, %function
 887              	uart_lld_start_receive:
 888              	.LFB131:
 889              		.loc 1 631 0
 890              		.cfi_startproc
 891              		@ args = 0, pretend = 0, frame = 0
 892              		@ frame_needed = 0, uses_anonymous_args = 0
 893              		@ link register save eliminated.
 894              	.LVL48:
 895              		.loc 1 634 0
 896 0000 0369     		ldr	r3, [r0, #16]
 897              		.loc 1 631 0
 898 0002 70B4     		push	{r4, r5, r6}
 899              	.LCFI7:
 900              		.cfi_def_cfa_offset 12
 901              		.loc 1 634 0
ARM GAS  C:\Users\DNIEL~1\AppData\Local\Temp\cc4qdATB.s 			page 17


 902 0004 1C68     		ldr	r4, [r3, #0]
 903              		.cfi_offset 6, -4
 904              		.cfi_offset 5, -8
 905              		.cfi_offset 4, -12
 906 0006 2668     		ldr	r6, [r4, #0]
 907 0008 26F00105 		bic	r5, r6, #1
 908 000c 2560     		str	r5, [r4, #0]
 909              	.L68:
 910              		.loc 1 634 0 is_stmt 0 discriminator 1
 911 000e 2568     		ldr	r5, [r4, #0]
 912 0010 15F0010F 		tst	r5, #1
 913 0014 FBD1     		bne	.L68
 914              		.loc 1 634 0 discriminator 2
 915 0016 1D7A     		ldrb	r5, [r3, #8]	@ zero_extendqisi2
 916 0018 3D26     		movs	r6, #61
 917 001a 16FA05F5 		lsls	r5, r6, r5
 918 001e 5B68     		ldr	r3, [r3, #4]
 919 0020 1D60     		str	r5, [r3, #0]
 920              		.loc 1 639 0 is_stmt 1 discriminator 2
 921 0022 C368     		ldr	r3, [r0, #12]
 922              		.loc 1 637 0 discriminator 2
 923 0024 E260     		str	r2, [r4, #12]
 924              		.loc 1 639 0 discriminator 2
 925 0026 43F48262 		orr	r2, r3, #1040
 926              	.LVL49:
 927              		.loc 1 638 0 discriminator 2
 928 002a 6160     		str	r1, [r4, #4]
 929              		.loc 1 639 0 discriminator 2
 930 002c 2260     		str	r2, [r4, #0]
 931              		.loc 1 641 0 discriminator 2
 932 002e 2068     		ldr	r0, [r4, #0]
 933              	.LVL50:
 934 0030 40F00103 		orr	r3, r0, #1
 935 0034 2360     		str	r3, [r4, #0]
 936              		.loc 1 642 0 discriminator 2
 937 0036 70BC     		pop	{r4, r5, r6}
 938 0038 7047     		bx	lr
 939              		.cfi_endproc
 940              	.LFE131:
 941              		.size	uart_lld_start_receive, .-uart_lld_start_receive
 942 003a 00BFAFF3 		.section	.text.uart_lld_stop_receive,"ax",%progbits
 942      0080
 943              		.align	2
 944              		.p2align 4,,15
 945              		.global	uart_lld_stop_receive
 946              		.thumb
 947              		.thumb_func
 948              		.type	uart_lld_stop_receive, %function
 949              	uart_lld_stop_receive:
 950              	.LFB132:
 951              		.loc 1 655 0
 952              		.cfi_startproc
 953              		@ args = 0, pretend = 0, frame = 0
 954              		@ frame_needed = 0, uses_anonymous_args = 0
 955              	.LVL51:
 956 0000 10B5     		push	{r4, lr}
 957              	.LCFI8:
ARM GAS  C:\Users\DNIEL~1\AppData\Local\Temp\cc4qdATB.s 			page 18


 958              		.cfi_def_cfa_offset 8
 959              		.loc 1 658 0
 960 0002 0469     		ldr	r4, [r0, #16]
 961              		.cfi_offset 14, -4
 962              		.cfi_offset 4, -8
 963 0004 2368     		ldr	r3, [r4, #0]
 964 0006 1968     		ldr	r1, [r3, #0]
 965 0008 21F00102 		bic	r2, r1, #1
 966 000c 1A60     		str	r2, [r3, #0]
 967              	.L71:
 968              		.loc 1 658 0 is_stmt 0 discriminator 1
 969 000e 1A68     		ldr	r2, [r3, #0]
 970 0010 12F0010F 		tst	r2, #1
 971 0014 FBD1     		bne	.L71
 972              		.loc 1 658 0 discriminator 2
 973 0016 227A     		ldrb	r2, [r4, #8]	@ zero_extendqisi2
 974 0018 3D21     		movs	r1, #61
 975 001a 9140     		lsls	r1, r1, r2
 976 001c 6468     		ldr	r4, [r4, #4]
 977 001e 2160     		str	r1, [r4, #0]
 978              		.loc 1 659 0 is_stmt 1 discriminator 2
 979 0020 5C68     		ldr	r4, [r3, #4]
 980              	.LVL52:
 981              		.loc 1 660 0 discriminator 2
 982 0022 FFF7FEFF 		bl	set_rx_idle_loop
 983              	.LVL53:
 984              		.loc 1 662 0 discriminator 2
 985 0026 2046     		mov	r0, r4
 986 0028 10BD     		pop	{r4, pc}
 987              		.cfi_endproc
 988              	.LFE132:
 989              		.size	uart_lld_stop_receive, .-uart_lld_stop_receive
 990              		.global	UARTD6
 991 002a 00BFAFF3 		.section	.rodata.str1.4,"aMS",%progbits,1
 991      0080
 992              		.align	2
 993              	.LC0:
 994 0000 75617274 		.ascii	"uart_lld_start(), #5\000"
 994      5F6C6C64 
 994      5F737461 
 994      72742829 
 994      2C202335 
 995 0015 000000   		.space	3
 996              	.LC1:
 997 0018 75617274 		.ascii	"uart_lld_start(), #6\000"
 997      5F6C6C64 
 997      5F737461 
 997      72742829 
 997      2C202336 
 998 002d 000000   		.section	.bss.UARTD6,"aw",%nobits
 999              		.align	2
 1000              		.set	.LANCHOR0,. + 0
 1001              		.type	UARTD6, %object
 1002              		.size	UARTD6, 28
 1003              	UARTD6:
 1004 0000 00000000 		.space	28
 1004      00000000 
ARM GAS  C:\Users\DNIEL~1\AppData\Local\Temp\cc4qdATB.s 			page 19


 1004      00000000 
 1004      00000000 
 1004      00000000 
 1005              		.text
 1006              	.Letext0:
 1007              		.section	.debug_loc,"",%progbits
 1008              	.Ldebug_loc0:
 1009              	.LLST0:
 1010 0000 00000000 		.4byte	.LVL0
 1011 0004 1C000000 		.4byte	.LVL2
 1012 0008 0100     		.2byte	0x1
 1013 000a 50       		.byte	0x50
 1014 000b 1C000000 		.4byte	.LVL2
 1015 000f 26000000 		.4byte	.LVL3
 1016 0013 0300     		.2byte	0x3
 1017 0015 70       		.byte	0x70
 1018 0016 68       		.sleb128 -24
 1019 0017 9F       		.byte	0x9f
 1020 0018 26000000 		.4byte	.LVL3
 1021 001c 2E000000 		.4byte	.LFE119
 1022 0020 0700     		.2byte	0x7
 1023 0022 73       		.byte	0x73
 1024 0023 0C       		.sleb128 12
 1025 0024 06       		.byte	0x6
 1026 0025 09       		.byte	0x9
 1027 0026 E8       		.byte	0xe8
 1028 0027 22       		.byte	0x22
 1029 0028 9F       		.byte	0x9f
 1030 0029 00000000 		.4byte	0x0
 1031 002d 00000000 		.4byte	0x0
 1032              	.LLST1:
 1033 0031 00000000 		.4byte	.LFB120
 1034 0035 02000000 		.4byte	.LCFI0
 1035 0039 0200     		.2byte	0x2
 1036 003b 7D       		.byte	0x7d
 1037 003c 00       		.sleb128 0
 1038 003d 02000000 		.4byte	.LCFI0
 1039 0041 4C000000 		.4byte	.LFE120
 1040 0045 0200     		.2byte	0x2
 1041 0047 7D       		.byte	0x7d
 1042 0048 08       		.sleb128 8
 1043 0049 00000000 		.4byte	0x0
 1044 004d 00000000 		.4byte	0x0
 1045              	.LLST2:
 1046 0051 00000000 		.4byte	.LVL4
 1047 0055 3E000000 		.4byte	.LVL5
 1048 0059 0100     		.2byte	0x1
 1049 005b 50       		.byte	0x50
 1050 005c 00000000 		.4byte	0x0
 1051 0060 00000000 		.4byte	0x0
 1052              	.LLST3:
 1053 0064 00000000 		.4byte	.LFB123
 1054 0068 06000000 		.4byte	.LCFI1
 1055 006c 0200     		.2byte	0x2
 1056 006e 7D       		.byte	0x7d
 1057 006f 00       		.sleb128 0
 1058 0070 06000000 		.4byte	.LCFI1
ARM GAS  C:\Users\DNIEL~1\AppData\Local\Temp\cc4qdATB.s 			page 20


 1059 0074 50000000 		.4byte	.LFE123
 1060 0078 0200     		.2byte	0x2
 1061 007a 7D       		.byte	0x7d
 1062 007b 08       		.sleb128 8
 1063 007c 00000000 		.4byte	0x0
 1064 0080 00000000 		.4byte	0x0
 1065              	.LLST4:
 1066 0084 00000000 		.4byte	.LVL6
 1067 0088 0A000000 		.4byte	.LVL7
 1068 008c 0100     		.2byte	0x1
 1069 008e 50       		.byte	0x50
 1070 008f 0A000000 		.4byte	.LVL7
 1071 0093 50000000 		.4byte	.LFE123
 1072 0097 0100     		.2byte	0x1
 1073 0099 54       		.byte	0x54
 1074 009a 00000000 		.4byte	0x0
 1075 009e 00000000 		.4byte	0x0
 1076              	.LLST5:
 1077 00a2 00000000 		.4byte	.LVL6
 1078 00a6 0A000000 		.4byte	.LVL7
 1079 00aa 0100     		.2byte	0x1
 1080 00ac 51       		.byte	0x51
 1081 00ad 4A000000 		.4byte	.LVL8
 1082 00b1 4D000000 		.4byte	.LVL9-1
 1083 00b5 0100     		.2byte	0x1
 1084 00b7 51       		.byte	0x51
 1085 00b8 00000000 		.4byte	0x0
 1086 00bc 00000000 		.4byte	0x0
 1087              	.LLST6:
 1088 00c0 00000000 		.4byte	.LFB122
 1089 00c4 06000000 		.4byte	.LCFI2
 1090 00c8 0200     		.2byte	0x2
 1091 00ca 7D       		.byte	0x7d
 1092 00cb 00       		.sleb128 0
 1093 00cc 06000000 		.4byte	.LCFI2
 1094 00d0 6C000000 		.4byte	.LFE122
 1095 00d4 0200     		.2byte	0x2
 1096 00d6 7D       		.byte	0x7d
 1097 00d7 08       		.sleb128 8
 1098 00d8 00000000 		.4byte	0x0
 1099 00dc 00000000 		.4byte	0x0
 1100              	.LLST7:
 1101 00e0 00000000 		.4byte	.LVL10
 1102 00e4 0A000000 		.4byte	.LVL11
 1103 00e8 0100     		.2byte	0x1
 1104 00ea 50       		.byte	0x50
 1105 00eb 0A000000 		.4byte	.LVL11
 1106 00ef 6C000000 		.4byte	.LFE122
 1107 00f3 0100     		.2byte	0x1
 1108 00f5 54       		.byte	0x54
 1109 00f6 00000000 		.4byte	0x0
 1110 00fa 00000000 		.4byte	0x0
 1111              	.LLST8:
 1112 00fe 00000000 		.4byte	.LVL10
 1113 0102 0A000000 		.4byte	.LVL11
 1114 0106 0100     		.2byte	0x1
 1115 0108 51       		.byte	0x51
ARM GAS  C:\Users\DNIEL~1\AppData\Local\Temp\cc4qdATB.s 			page 21


 1116 0109 58000000 		.4byte	.LVL12
 1117 010d 5B000000 		.4byte	.LVL13-1
 1118 0111 0100     		.2byte	0x1
 1119 0113 51       		.byte	0x51
 1120 0114 00000000 		.4byte	0x0
 1121 0118 00000000 		.4byte	0x0
 1122              	.LLST9:
 1123 011c 00000000 		.4byte	.LFB125
 1124 0120 02000000 		.4byte	.LCFI3
 1125 0124 0200     		.2byte	0x2
 1126 0126 7D       		.byte	0x7d
 1127 0127 00       		.sleb128 0
 1128 0128 02000000 		.4byte	.LCFI3
 1129 012c 84000000 		.4byte	.LFE125
 1130 0130 0200     		.2byte	0x2
 1131 0132 7D       		.byte	0x7d
 1132 0133 10       		.sleb128 16
 1133 0134 00000000 		.4byte	0x0
 1134 0138 00000000 		.4byte	0x0
 1135              	.LLST10:
 1136 013c 0A000000 		.4byte	.LVL15
 1137 0140 59000000 		.4byte	.LVL23-1
 1138 0144 0500     		.2byte	0x5
 1139 0146 03       		.byte	0x3
 1140 0147 08000000 		.4byte	UARTD6+8
 1141 014b 59000000 		.4byte	.LVL23-1
 1142 014f 84000000 		.4byte	.LFE125
 1143 0153 0100     		.2byte	0x1
 1144 0155 55       		.byte	0x55
 1145 0156 00000000 		.4byte	0x0
 1146 015a 00000000 		.4byte	0x0
 1147              	.LLST11:
 1148 015e 26000000 		.4byte	.LVL17
 1149 0162 5A000000 		.4byte	.LVL23
 1150 0166 0100     		.2byte	0x1
 1151 0168 54       		.byte	0x54
 1152 0169 00000000 		.4byte	0x0
 1153 016d 00000000 		.4byte	0x0
 1154              	.LLST12:
 1155 0171 26000000 		.4byte	.LVL17
 1156 0175 2E000000 		.4byte	.LVL18
 1157 0179 0200     		.2byte	0x2
 1158 017b 30       		.byte	0x30
 1159 017c 9F       		.byte	0x9f
 1160 017d 2E000000 		.4byte	.LVL18
 1161 0181 38000000 		.4byte	.LVL19
 1162 0185 0100     		.2byte	0x1
 1163 0187 51       		.byte	0x51
 1164 0188 38000000 		.4byte	.LVL19
 1165 018c 42000000 		.4byte	.LVL20
 1166 0190 0100     		.2byte	0x1
 1167 0192 51       		.byte	0x51
 1168 0193 42000000 		.4byte	.LVL20
 1169 0197 4C000000 		.4byte	.LVL21
 1170 019b 0100     		.2byte	0x1
 1171 019d 51       		.byte	0x51
 1172 019e 4C000000 		.4byte	.LVL21
ARM GAS  C:\Users\DNIEL~1\AppData\Local\Temp\cc4qdATB.s 			page 22


 1173 01a2 56000000 		.4byte	.LVL22
 1174 01a6 0100     		.2byte	0x1
 1175 01a8 51       		.byte	0x51
 1176 01a9 56000000 		.4byte	.LVL22
 1177 01ad 59000000 		.4byte	.LVL23-1
 1178 01b1 0100     		.2byte	0x1
 1179 01b3 51       		.byte	0x51
 1180 01b4 00000000 		.4byte	0x0
 1181 01b8 00000000 		.4byte	0x0
 1182              	.LLST13:
 1183 01bc 00000000 		.4byte	.LFB126
 1184 01c0 02000000 		.4byte	.LCFI4
 1185 01c4 0200     		.2byte	0x2
 1186 01c6 7D       		.byte	0x7d
 1187 01c7 00       		.sleb128 0
 1188 01c8 02000000 		.4byte	.LCFI4
 1189 01cc 28000000 		.4byte	.LFE126
 1190 01d0 0200     		.2byte	0x2
 1191 01d2 7D       		.byte	0x7d
 1192 01d3 08       		.sleb128 8
 1193 01d4 00000000 		.4byte	0x0
 1194 01d8 00000000 		.4byte	0x0
 1195              	.LLST14:
 1196 01dc 00000000 		.4byte	.LFB127
 1197 01e0 0A000000 		.4byte	.LCFI5
 1198 01e4 0200     		.2byte	0x2
 1199 01e6 7D       		.byte	0x7d
 1200 01e7 00       		.sleb128 0
 1201 01e8 0A000000 		.4byte	.LCFI5
 1202 01ec 2C010000 		.4byte	.LFE127
 1203 01f0 0200     		.2byte	0x2
 1204 01f2 7D       		.byte	0x7d
 1205 01f3 18       		.sleb128 24
 1206 01f4 00000000 		.4byte	0x0
 1207 01f8 00000000 		.4byte	0x0
 1208              	.LLST15:
 1209 01fc 00000000 		.4byte	.LVL24
 1210 0200 12000000 		.4byte	.LVL25
 1211 0204 0100     		.2byte	0x1
 1212 0206 50       		.byte	0x50
 1213 0207 12000000 		.4byte	.LVL25
 1214 020b 64000000 		.4byte	.LVL28
 1215 020f 0100     		.2byte	0x1
 1216 0211 54       		.byte	0x54
 1217 0212 64000000 		.4byte	.LVL28
 1218 0216 79000000 		.4byte	.LVL29-1
 1219 021a 0100     		.2byte	0x1
 1220 021c 50       		.byte	0x50
 1221 021d 7A000000 		.4byte	.LVL29
 1222 0221 80000000 		.4byte	.LVL30
 1223 0225 0100     		.2byte	0x1
 1224 0227 50       		.byte	0x50
 1225 0228 80000000 		.4byte	.LVL30
 1226 022c 2C010000 		.4byte	.LFE127
 1227 0230 0100     		.2byte	0x1
 1228 0232 54       		.byte	0x54
 1229 0233 00000000 		.4byte	0x0
ARM GAS  C:\Users\DNIEL~1\AppData\Local\Temp\cc4qdATB.s 			page 23


 1230 0237 00000000 		.4byte	0x0
 1231              	.LLST16:
 1232 023b 18000000 		.4byte	.LVL26
 1233 023f 64000000 		.4byte	.LVL28
 1234 0243 0100     		.2byte	0x1
 1235 0245 54       		.byte	0x54
 1236 0246 64000000 		.4byte	.LVL28
 1237 024a 79000000 		.4byte	.LVL29-1
 1238 024e 0100     		.2byte	0x1
 1239 0250 50       		.byte	0x50
 1240 0251 A6000000 		.4byte	.LVL31
 1241 0255 B6000000 		.4byte	.LVL32
 1242 0259 0100     		.2byte	0x1
 1243 025b 54       		.byte	0x54
 1244 025c 00000000 		.4byte	0x0
 1245 0260 00000000 		.4byte	0x0
 1246              	.LLST17:
 1247 0264 52000000 		.4byte	.LVL27
 1248 0268 79000000 		.4byte	.LVL29-1
 1249 026c 0100     		.2byte	0x1
 1250 026e 51       		.byte	0x51
 1251 026f 00000000 		.4byte	0x0
 1252 0273 00000000 		.4byte	0x0
 1253              	.LLST18:
 1254 0277 18000000 		.4byte	.LVL26
 1255 027b 7A000000 		.4byte	.LVL29
 1256 027f 0100     		.2byte	0x1
 1257 0281 55       		.byte	0x55
 1258 0282 A6000000 		.4byte	.LVL31
 1259 0286 B6000000 		.4byte	.LVL32
 1260 028a 0100     		.2byte	0x1
 1261 028c 55       		.byte	0x55
 1262 028d 00000000 		.4byte	0x0
 1263 0291 00000000 		.4byte	0x0
 1264              	.LLST19:
 1265 0295 CC000000 		.4byte	.LVL33
 1266 0299 CE000000 		.4byte	.LVL34
 1267 029d 0100     		.2byte	0x1
 1268 029f 50       		.byte	0x50
 1269 02a0 DA000000 		.4byte	.LVL35
 1270 02a4 DC000000 		.4byte	.LVL36
 1271 02a8 0100     		.2byte	0x1
 1272 02aa 50       		.byte	0x50
 1273 02ab F8000000 		.4byte	.LVL37
 1274 02af FA000000 		.4byte	.LVL38
 1275 02b3 0100     		.2byte	0x1
 1276 02b5 50       		.byte	0x50
 1277 02b6 00010000 		.4byte	.LVL39
 1278 02ba 02010000 		.4byte	.LVL40
 1279 02be 0100     		.2byte	0x1
 1280 02c0 50       		.byte	0x50
 1281 02c1 00000000 		.4byte	0x0
 1282 02c5 00000000 		.4byte	0x0
 1283              	.LLST20:
 1284 02c9 00000000 		.4byte	.LFB128
 1285 02cd 04000000 		.4byte	.LCFI6
 1286 02d1 0200     		.2byte	0x2
ARM GAS  C:\Users\DNIEL~1\AppData\Local\Temp\cc4qdATB.s 			page 24


 1287 02d3 7D       		.byte	0x7d
 1288 02d4 00       		.sleb128 0
 1289 02d5 04000000 		.4byte	.LCFI6
 1290 02d9 3C000000 		.4byte	.LFE128
 1291 02dd 0200     		.2byte	0x2
 1292 02df 7D       		.byte	0x7d
 1293 02e0 08       		.sleb128 8
 1294 02e1 00000000 		.4byte	0x0
 1295 02e5 00000000 		.4byte	0x0
 1296              	.LLST21:
 1297 02e9 00000000 		.4byte	.LVL41
 1298 02ed 0A000000 		.4byte	.LVL42
 1299 02f1 0100     		.2byte	0x1
 1300 02f3 50       		.byte	0x50
 1301 02f4 0A000000 		.4byte	.LVL42
 1302 02f8 3C000000 		.4byte	.LFE128
 1303 02fc 0100     		.2byte	0x1
 1304 02fe 54       		.byte	0x54
 1305 02ff 00000000 		.4byte	0x0
 1306 0303 00000000 		.4byte	0x0
 1307              	.LLST22:
 1308 0307 00000000 		.4byte	.LVL43
 1309 030b 04000000 		.4byte	.LVL44
 1310 030f 0100     		.2byte	0x1
 1311 0311 50       		.byte	0x50
 1312 0312 00000000 		.4byte	0x0
 1313 0316 00000000 		.4byte	0x0
 1314              	.LLST23:
 1315 031a 00000000 		.4byte	.LVL43
 1316 031e 16000000 		.4byte	.LVL45
 1317 0322 0100     		.2byte	0x1
 1318 0324 52       		.byte	0x52
 1319 0325 16000000 		.4byte	.LVL45
 1320 0329 1A000000 		.4byte	.LFE129
 1321 032d 0200     		.2byte	0x2
 1322 032f 73       		.byte	0x73
 1323 0330 0C       		.sleb128 12
 1324 0331 00000000 		.4byte	0x0
 1325 0335 00000000 		.4byte	0x0
 1326              	.LLST24:
 1327 0339 00000000 		.4byte	.LVL46
 1328 033d 06000000 		.4byte	.LVL47
 1329 0341 0100     		.2byte	0x1
 1330 0343 50       		.byte	0x50
 1331 0344 00000000 		.4byte	0x0
 1332 0348 00000000 		.4byte	0x0
 1333              	.LLST25:
 1334 034c 00000000 		.4byte	.LFB131
 1335 0350 04000000 		.4byte	.LCFI7
 1336 0354 0200     		.2byte	0x2
 1337 0356 7D       		.byte	0x7d
 1338 0357 00       		.sleb128 0
 1339 0358 04000000 		.4byte	.LCFI7
 1340 035c 3A000000 		.4byte	.LFE131
 1341 0360 0200     		.2byte	0x2
 1342 0362 7D       		.byte	0x7d
 1343 0363 0C       		.sleb128 12
ARM GAS  C:\Users\DNIEL~1\AppData\Local\Temp\cc4qdATB.s 			page 25


 1344 0364 00000000 		.4byte	0x0
 1345 0368 00000000 		.4byte	0x0
 1346              	.LLST26:
 1347 036c 00000000 		.4byte	.LVL48
 1348 0370 30000000 		.4byte	.LVL50
 1349 0374 0100     		.2byte	0x1
 1350 0376 50       		.byte	0x50
 1351 0377 00000000 		.4byte	0x0
 1352 037b 00000000 		.4byte	0x0
 1353              	.LLST27:
 1354 037f 00000000 		.4byte	.LVL48
 1355 0383 2A000000 		.4byte	.LVL49
 1356 0387 0100     		.2byte	0x1
 1357 0389 52       		.byte	0x52
 1358 038a 30000000 		.4byte	.LVL50
 1359 038e 3A000000 		.4byte	.LFE131
 1360 0392 0200     		.2byte	0x2
 1361 0394 74       		.byte	0x74
 1362 0395 0C       		.sleb128 12
 1363 0396 00000000 		.4byte	0x0
 1364 039a 00000000 		.4byte	0x0
 1365              	.LLST28:
 1366 039e 00000000 		.4byte	.LFB132
 1367 03a2 02000000 		.4byte	.LCFI8
 1368 03a6 0200     		.2byte	0x2
 1369 03a8 7D       		.byte	0x7d
 1370 03a9 00       		.sleb128 0
 1371 03aa 02000000 		.4byte	.LCFI8
 1372 03ae 2A000000 		.4byte	.LFE132
 1373 03b2 0200     		.2byte	0x2
 1374 03b4 7D       		.byte	0x7d
 1375 03b5 08       		.sleb128 8
 1376 03b6 00000000 		.4byte	0x0
 1377 03ba 00000000 		.4byte	0x0
 1378              	.LLST29:
 1379 03be 00000000 		.4byte	.LVL51
 1380 03c2 25000000 		.4byte	.LVL53-1
 1381 03c6 0100     		.2byte	0x1
 1382 03c8 50       		.byte	0x50
 1383 03c9 00000000 		.4byte	0x0
 1384 03cd 00000000 		.4byte	0x0
 1385              		.file 2 "c:\\program files (x86)\\codesourcery\\sourcery g++ lite\\bin\\../lib/gcc/arm-none-eabi/4
 1386              		.file 3 "c:\\program files (x86)\\codesourcery\\sourcery g++ lite\\bin\\../lib/gcc/arm-none-eabi/4
 1387              		.file 4 "../../../ChibiOS/os/ports/GCC/ARMCMx/chtypes.h"
 1388              		.file 5 "../../../ChibiOS/os/hal/platforms/STM32F4xx/stm32f4xx.h"
 1389              		.file 6 "../../../ChibiOS/os/hal/platforms/STM32F4xx/stm32_dma.h"
 1390              		.file 7 "../../../ChibiOS/os/hal/include/uart.h"
 1391              		.file 8 "../../../ChibiOS/os/hal/platforms/STM32/USARTv1/uart_lld.h"
 1392              		.file 9 "../../../ChibiOS/os/ports/common/ARMCMx/CMSIS/include/core_cm4.h"
 1393              		.section	.debug_info
 1394 0000 FB0C0000 		.4byte	0xcfb
 1395 0004 0200     		.2byte	0x2
 1396 0006 00000000 		.4byte	.Ldebug_abbrev0
 1397 000a 04       		.byte	0x4
 1398 000b 01       		.uleb128 0x1
 1399 000c 4C090000 		.4byte	.LASF200
 1400 0010 01       		.byte	0x1
ARM GAS  C:\Users\DNIEL~1\AppData\Local\Temp\cc4qdATB.s 			page 26


 1401 0011 88090000 		.4byte	.LASF201
 1402 0015 CD050000 		.4byte	.LASF202
 1403 0019 00000000 		.4byte	0x0
 1404 001d 00000000 		.4byte	0x0
 1405 0021 70000000 		.4byte	.Ldebug_ranges0+0x70
 1406 0025 00000000 		.4byte	.Ldebug_line0
 1407 0029 02       		.uleb128 0x2
 1408 002a 04       		.byte	0x4
 1409 002b 05       		.byte	0x5
 1410 002c 696E7400 		.ascii	"int\000"
 1411 0030 03       		.uleb128 0x3
 1412 0031 60000000 		.4byte	.LASF2
 1413 0035 02       		.byte	0x2
 1414 0036 D3       		.byte	0xd3
 1415 0037 3B000000 		.4byte	0x3b
 1416 003b 04       		.uleb128 0x4
 1417 003c 04       		.byte	0x4
 1418 003d 07       		.byte	0x7
 1419 003e 0E030000 		.4byte	.LASF0
 1420 0042 04       		.uleb128 0x4
 1421 0043 01       		.byte	0x1
 1422 0044 06       		.byte	0x6
 1423 0045 79010000 		.4byte	.LASF1
 1424 0049 03       		.uleb128 0x3
 1425 004a 26090000 		.4byte	.LASF3
 1426 004e 03       		.byte	0x3
 1427 004f 2A       		.byte	0x2a
 1428 0050 54000000 		.4byte	0x54
 1429 0054 04       		.uleb128 0x4
 1430 0055 01       		.byte	0x1
 1431 0056 08       		.byte	0x8
 1432 0057 AC060000 		.4byte	.LASF4
 1433 005b 04       		.uleb128 0x4
 1434 005c 02       		.byte	0x2
 1435 005d 05       		.byte	0x5
 1436 005e 19070000 		.4byte	.LASF5
 1437 0062 03       		.uleb128 0x3
 1438 0063 1B020000 		.4byte	.LASF6
 1439 0067 03       		.byte	0x3
 1440 0068 36       		.byte	0x36
 1441 0069 6D000000 		.4byte	0x6d
 1442 006d 04       		.uleb128 0x4
 1443 006e 02       		.byte	0x2
 1444 006f 07       		.byte	0x7
 1445 0070 D9030000 		.4byte	.LASF7
 1446 0074 03       		.uleb128 0x3
 1447 0075 A4060000 		.4byte	.LASF8
 1448 0079 03       		.byte	0x3
 1449 007a 4F       		.byte	0x4f
 1450 007b 7F000000 		.4byte	0x7f
 1451 007f 04       		.uleb128 0x4
 1452 0080 04       		.byte	0x4
 1453 0081 05       		.byte	0x5
 1454 0082 D3010000 		.4byte	.LASF9
 1455 0086 03       		.uleb128 0x3
 1456 0087 9F030000 		.4byte	.LASF10
 1457 008b 03       		.byte	0x3
ARM GAS  C:\Users\DNIEL~1\AppData\Local\Temp\cc4qdATB.s 			page 27


 1458 008c 50       		.byte	0x50
 1459 008d 91000000 		.4byte	0x91
 1460 0091 04       		.uleb128 0x4
 1461 0092 04       		.byte	0x4
 1462 0093 07       		.byte	0x7
 1463 0094 77030000 		.4byte	.LASF11
 1464 0098 04       		.uleb128 0x4
 1465 0099 08       		.byte	0x8
 1466 009a 05       		.byte	0x5
 1467 009b 6B010000 		.4byte	.LASF12
 1468 009f 04       		.uleb128 0x4
 1469 00a0 08       		.byte	0x8
 1470 00a1 07       		.byte	0x7
 1471 00a2 24020000 		.4byte	.LASF13
 1472 00a6 03       		.uleb128 0x3
 1473 00a7 C4000000 		.4byte	.LASF14
 1474 00ab 04       		.byte	0x4
 1475 00ac 27       		.byte	0x27
 1476 00ad 74000000 		.4byte	0x74
 1477 00b1 05       		.uleb128 0x5
 1478 00b2 04       		.byte	0x4
 1479 00b3 06       		.uleb128 0x6
 1480 00b4 86000000 		.4byte	0x86
 1481 00b8 04       		.uleb128 0x4
 1482 00b9 01       		.byte	0x1
 1483 00ba 08       		.byte	0x8
 1484 00bb E6070000 		.4byte	.LASF15
 1485 00bf 07       		.uleb128 0x7
 1486 00c0 C5040000 		.4byte	.LASF203
 1487 00c4 01       		.byte	0x1
 1488 00c5 05       		.byte	0x5
 1489 00c6 8C       		.byte	0x8c
 1490 00c7 FA020000 		.4byte	0x2fa
 1491 00cb 08       		.uleb128 0x8
 1492 00cc 2F080000 		.4byte	.LASF16
 1493 00d0 72       		.sleb128 -14
 1494 00d1 08       		.uleb128 0x8
 1495 00d2 45030000 		.4byte	.LASF17
 1496 00d6 74       		.sleb128 -12
 1497 00d7 08       		.uleb128 0x8
 1498 00d8 F0070000 		.4byte	.LASF18
 1499 00dc 75       		.sleb128 -11
 1500 00dd 08       		.uleb128 0x8
 1501 00de B2070000 		.4byte	.LASF19
 1502 00e2 76       		.sleb128 -10
 1503 00e3 08       		.uleb128 0x8
 1504 00e4 CD030000 		.4byte	.LASF20
 1505 00e8 7B       		.sleb128 -5
 1506 00e9 08       		.uleb128 0x8
 1507 00ea 9A080000 		.4byte	.LASF21
 1508 00ee 7C       		.sleb128 -4
 1509 00ef 08       		.uleb128 0x8
 1510 00f0 6D020000 		.4byte	.LASF22
 1511 00f4 7E       		.sleb128 -2
 1512 00f5 08       		.uleb128 0x8
 1513 00f6 83040000 		.4byte	.LASF23
 1514 00fa 7F       		.sleb128 -1
ARM GAS  C:\Users\DNIEL~1\AppData\Local\Temp\cc4qdATB.s 			page 28


 1515 00fb 08       		.uleb128 0x8
 1516 00fc 2A010000 		.4byte	.LASF24
 1517 0100 00       		.sleb128 0
 1518 0101 08       		.uleb128 0x8
 1519 0102 3B000000 		.4byte	.LASF25
 1520 0106 01       		.sleb128 1
 1521 0107 08       		.uleb128 0x8
 1522 0108 70080000 		.4byte	.LASF26
 1523 010c 02       		.sleb128 2
 1524 010d 08       		.uleb128 0x8
 1525 010e 16010000 		.4byte	.LASF27
 1526 0112 03       		.sleb128 3
 1527 0113 08       		.uleb128 0x8
 1528 0114 80070000 		.4byte	.LASF28
 1529 0118 04       		.sleb128 4
 1530 0119 08       		.uleb128 0x8
 1531 011a 230A0000 		.4byte	.LASF29
 1532 011e 05       		.sleb128 5
 1533 011f 08       		.uleb128 0x8
 1534 0120 FA080000 		.4byte	.LASF30
 1535 0124 06       		.sleb128 6
 1536 0125 08       		.uleb128 0x8
 1537 0126 470A0000 		.4byte	.LASF31
 1538 012a 07       		.sleb128 7
 1539 012b 08       		.uleb128 0x8
 1540 012c 5C070000 		.4byte	.LASF32
 1541 0130 08       		.sleb128 8
 1542 0131 08       		.uleb128 0x8
 1543 0132 6D050000 		.4byte	.LASF33
 1544 0136 09       		.sleb128 9
 1545 0137 08       		.uleb128 0x8
 1546 0138 00070000 		.4byte	.LASF34
 1547 013c 0A       		.sleb128 10
 1548 013d 08       		.uleb128 0x8
 1549 013e 520A0000 		.4byte	.LASF35
 1550 0142 0B       		.sleb128 11
 1551 0143 08       		.uleb128 0x8
 1552 0144 3C040000 		.4byte	.LASF36
 1553 0148 0C       		.sleb128 12
 1554 0149 08       		.uleb128 0x8
 1555 014a 82050000 		.4byte	.LASF37
 1556 014e 0D       		.sleb128 13
 1557 014f 08       		.uleb128 0x8
 1558 0150 1B030000 		.4byte	.LASF38
 1559 0154 0E       		.sleb128 14
 1560 0155 08       		.uleb128 0x8
 1561 0156 11050000 		.4byte	.LASF39
 1562 015a 0F       		.sleb128 15
 1563 015b 08       		.uleb128 0x8
 1564 015c EE010000 		.4byte	.LASF40
 1565 0160 10       		.sleb128 16
 1566 0161 08       		.uleb128 0x8
 1567 0162 33030000 		.4byte	.LASF41
 1568 0166 11       		.sleb128 17
 1569 0167 08       		.uleb128 0x8
 1570 0168 DE090000 		.4byte	.LASF42
 1571 016c 12       		.sleb128 18
ARM GAS  C:\Users\DNIEL~1\AppData\Local\Temp\cc4qdATB.s 			page 29


 1572 016d 08       		.uleb128 0x8
 1573 016e 0D040000 		.4byte	.LASF43
 1574 0172 13       		.sleb128 19
 1575 0173 08       		.uleb128 0x8
 1576 0174 2D000000 		.4byte	.LASF44
 1577 0178 14       		.sleb128 20
 1578 0179 08       		.uleb128 0x8
 1579 017a F9090000 		.4byte	.LASF45
 1580 017e 15       		.sleb128 21
 1581 017f 08       		.uleb128 0x8
 1582 0180 070A0000 		.4byte	.LASF46
 1583 0184 16       		.sleb128 22
 1584 0185 08       		.uleb128 0x8
 1585 0186 00020000 		.4byte	.LASF47
 1586 018a 17       		.sleb128 23
 1587 018b 08       		.uleb128 0x8
 1588 018c CD060000 		.4byte	.LASF48
 1589 0190 18       		.sleb128 24
 1590 0191 08       		.uleb128 0x8
 1591 0192 ED060000 		.4byte	.LASF49
 1592 0196 19       		.sleb128 25
 1593 0197 08       		.uleb128 0x8
 1594 0198 38070000 		.4byte	.LASF50
 1595 019c 1A       		.sleb128 26
 1596 019d 08       		.uleb128 0x8
 1597 019e 90040000 		.4byte	.LASF51
 1598 01a2 1B       		.sleb128 27
 1599 01a3 08       		.uleb128 0x8
 1600 01a4 F0080000 		.4byte	.LASF52
 1601 01a8 1C       		.sleb128 28
 1602 01a9 08       		.uleb128 0x8
 1603 01aa 3D0A0000 		.4byte	.LASF53
 1604 01ae 1D       		.sleb128 29
 1605 01af 08       		.uleb128 0x8
 1606 01b0 01010000 		.4byte	.LASF54
 1607 01b4 1E       		.sleb128 30
 1608 01b5 08       		.uleb128 0x8
 1609 01b6 83000000 		.4byte	.LASF55
 1610 01ba 1F       		.sleb128 31
 1611 01bb 08       		.uleb128 0x8
 1612 01bc D1090000 		.4byte	.LASF56
 1613 01c0 20       		.sleb128 32
 1614 01c1 08       		.uleb128 0x8
 1615 01c2 D1080000 		.4byte	.LASF57
 1616 01c6 21       		.sleb128 33
 1617 01c7 08       		.uleb128 0x8
 1618 01c8 F4000000 		.4byte	.LASF58
 1619 01cc 22       		.sleb128 34
 1620 01cd 08       		.uleb128 0x8
 1621 01ce 32040000 		.4byte	.LASF59
 1622 01d2 23       		.sleb128 35
 1623 01d3 08       		.uleb128 0x8
 1624 01d4 78050000 		.4byte	.LASF60
 1625 01d8 24       		.sleb128 36
 1626 01d9 08       		.uleb128 0x8
 1627 01da 05090000 		.4byte	.LASF61
 1628 01de 25       		.sleb128 37
ARM GAS  C:\Users\DNIEL~1\AppData\Local\Temp\cc4qdATB.s 			page 30


 1629 01df 08       		.uleb128 0x8
 1630 01e0 A6070000 		.4byte	.LASF62
 1631 01e4 26       		.sleb128 38
 1632 01e5 08       		.uleb128 0x8
 1633 01e6 DE080000 		.4byte	.LASF63
 1634 01ea 27       		.sleb128 39
 1635 01eb 08       		.uleb128 0x8
 1636 01ec 23040000 		.4byte	.LASF64
 1637 01f0 28       		.sleb128 40
 1638 01f1 08       		.uleb128 0x8
 1639 01f2 CB000000 		.4byte	.LASF65
 1640 01f6 29       		.sleb128 41
 1641 01f7 08       		.uleb128 0x8
 1642 01f8 5C020000 		.4byte	.LASF66
 1643 01fc 2A       		.sleb128 42
 1644 01fd 08       		.uleb128 0x8
 1645 01fe 6F040000 		.4byte	.LASF67
 1646 0202 2B       		.sleb128 43
 1647 0203 08       		.uleb128 0x8
 1648 0204 79020000 		.4byte	.LASF68
 1649 0208 2C       		.sleb128 44
 1650 0209 08       		.uleb128 0x8
 1651 020a 9D040000 		.4byte	.LASF69
 1652 020e 2D       		.sleb128 45
 1653 020f 08       		.uleb128 0x8
 1654 0210 48010000 		.4byte	.LASF70
 1655 0214 2E       		.sleb128 46
 1656 0215 08       		.uleb128 0x8
 1657 0216 D4070000 		.4byte	.LASF71
 1658 021a 2F       		.sleb128 47
 1659 021b 08       		.uleb128 0x8
 1660 021c 9A060000 		.4byte	.LASF72
 1661 0220 30       		.sleb128 48
 1662 0221 08       		.uleb128 0x8
 1663 0222 34010000 		.4byte	.LASF73
 1664 0226 31       		.sleb128 49
 1665 0227 08       		.uleb128 0x8
 1666 0228 49050000 		.4byte	.LASF74
 1667 022c 32       		.sleb128 50
 1668 022d 08       		.uleb128 0x8
 1669 022e 7E060000 		.4byte	.LASF75
 1670 0232 33       		.sleb128 51
 1671 0233 08       		.uleb128 0x8
 1672 0234 51020000 		.4byte	.LASF76
 1673 0238 34       		.sleb128 52
 1674 0239 08       		.uleb128 0x8
 1675 023a 2D070000 		.4byte	.LASF77
 1676 023e 35       		.sleb128 53
 1677 023f 08       		.uleb128 0x8
 1678 0240 3B020000 		.4byte	.LASF78
 1679 0244 36       		.sleb128 54
 1680 0245 08       		.uleb128 0x8
 1681 0246 12080000 		.4byte	.LASF79
 1682 024a 37       		.sleb128 55
 1683 024b 08       		.uleb128 0x8
 1684 024c AC080000 		.4byte	.LASF80
 1685 0250 38       		.sleb128 56
ARM GAS  C:\Users\DNIEL~1\AppData\Local\Temp\cc4qdATB.s 			page 31


 1686 0251 08       		.uleb128 0x8
 1687 0252 E7090000 		.4byte	.LASF81
 1688 0256 39       		.sleb128 57
 1689 0257 08       		.uleb128 0x8
 1690 0258 23050000 		.4byte	.LASF82
 1691 025c 3A       		.sleb128 58
 1692 025d 08       		.uleb128 0x8
 1693 025e CA020000 		.4byte	.LASF83
 1694 0262 3B       		.sleb128 59
 1695 0263 08       		.uleb128 0x8
 1696 0264 88060000 		.4byte	.LASF84
 1697 0268 3C       		.sleb128 60
 1698 0269 08       		.uleb128 0x8
 1699 026a E6040000 		.4byte	.LASF85
 1700 026e 3D       		.sleb128 61
 1701 026f 08       		.uleb128 0x8
 1702 0270 0D020000 		.4byte	.LASF86
 1703 0274 3E       		.sleb128 62
 1704 0275 08       		.uleb128 0x8
 1705 0276 94050000 		.4byte	.LASF87
 1706 027a 3F       		.sleb128 63
 1707 027b 08       		.uleb128 0x8
 1708 027c 44000000 		.4byte	.LASF88
 1709 0280 C000     		.sleb128 64
 1710 0282 08       		.uleb128 0x8
 1711 0283 85010000 		.4byte	.LASF89
 1712 0287 C100     		.sleb128 65
 1713 0289 08       		.uleb128 0x8
 1714 028a 150A0000 		.4byte	.LASF90
 1715 028e C200     		.sleb128 66
 1716 0290 08       		.uleb128 0x8
 1717 0291 90070000 		.4byte	.LASF91
 1718 0295 C300     		.sleb128 67
 1719 0297 08       		.uleb128 0x8
 1720 0298 90000000 		.4byte	.LASF92
 1721 029c C400     		.sleb128 68
 1722 029e 08       		.uleb128 0x8
 1723 029f B3010000 		.4byte	.LASF93
 1724 02a3 C500     		.sleb128 69
 1725 02a5 08       		.uleb128 0x8
 1726 02a6 DC020000 		.4byte	.LASF94
 1727 02aa C600     		.sleb128 70
 1728 02ac 08       		.uleb128 0x8
 1729 02ad 35050000 		.4byte	.LASF95
 1730 02b1 C700     		.sleb128 71
 1731 02b3 08       		.uleb128 0x8
 1732 02b4 6A030000 		.4byte	.LASF96
 1733 02b8 C800     		.sleb128 72
 1734 02ba 08       		.uleb128 0x8
 1735 02bb 71000000 		.4byte	.LASF97
 1736 02bf C900     		.sleb128 73
 1737 02c1 08       		.uleb128 0x8
 1738 02c2 B9030000 		.4byte	.LASF98
 1739 02c6 CA00     		.sleb128 74
 1740 02c8 08       		.uleb128 0x8
 1741 02c9 1C080000 		.4byte	.LASF99
 1742 02cd CB00     		.sleb128 75
ARM GAS  C:\Users\DNIEL~1\AppData\Local\Temp\cc4qdATB.s 			page 32


 1743 02cf 08       		.uleb128 0x8
 1744 02d0 2C0A0000 		.4byte	.LASF100
 1745 02d4 CC00     		.sleb128 76
 1746 02d6 08       		.uleb128 0x8
 1747 02d7 C1050000 		.4byte	.LASF101
 1748 02db CD00     		.sleb128 77
 1749 02dd 08       		.uleb128 0x8
 1750 02de 3A090000 		.4byte	.LASF102
 1751 02e2 CE00     		.sleb128 78
 1752 02e4 08       		.uleb128 0x8
 1753 02e5 93010000 		.4byte	.LASF103
 1754 02e9 CF00     		.sleb128 79
 1755 02eb 08       		.uleb128 0x8
 1756 02ec 0B070000 		.4byte	.LASF104
 1757 02f0 D000     		.sleb128 80
 1758 02f2 08       		.uleb128 0x8
 1759 02f3 66090000 		.4byte	.LASF105
 1760 02f7 D100     		.sleb128 81
 1761 02f9 00       		.byte	0x0
 1762 02fa 09       		.uleb128 0x9
 1763 02fb 86000000 		.4byte	0x86
 1764 02ff 0A030000 		.4byte	0x30a
 1765 0303 0A       		.uleb128 0xa
 1766 0304 3B000000 		.4byte	0x3b
 1767 0308 01       		.byte	0x1
 1768 0309 00       		.byte	0x0
 1769 030a 06       		.uleb128 0x6
 1770 030b 62000000 		.4byte	0x62
 1771 030f 06       		.uleb128 0x6
 1772 0310 74000000 		.4byte	0x74
 1773 0314 0B       		.uleb128 0xb
 1774 0315 18       		.byte	0x18
 1775 0316 05       		.byte	0x5
 1776 0317 D301     		.2byte	0x1d3
 1777 0319 77030000 		.4byte	0x377
 1778 031d 0C       		.uleb128 0xc
 1779 031e 435200   		.ascii	"CR\000"
 1780 0321 05       		.byte	0x5
 1781 0322 D501     		.2byte	0x1d5
 1782 0324 B3000000 		.4byte	0xb3
 1783 0328 02       		.byte	0x2
 1784 0329 23       		.byte	0x23
 1785 032a 00       		.uleb128 0x0
 1786 032b 0D       		.uleb128 0xd
 1787 032c 50080000 		.4byte	.LASF106
 1788 0330 05       		.byte	0x5
 1789 0331 D601     		.2byte	0x1d6
 1790 0333 B3000000 		.4byte	0xb3
 1791 0337 02       		.byte	0x2
 1792 0338 23       		.byte	0x23
 1793 0339 04       		.uleb128 0x4
 1794 033a 0C       		.uleb128 0xc
 1795 033b 50415200 		.ascii	"PAR\000"
 1796 033f 05       		.byte	0x5
 1797 0340 D701     		.2byte	0x1d7
 1798 0342 B3000000 		.4byte	0xb3
 1799 0346 02       		.byte	0x2
ARM GAS  C:\Users\DNIEL~1\AppData\Local\Temp\cc4qdATB.s 			page 33


 1800 0347 23       		.byte	0x23
 1801 0348 08       		.uleb128 0x8
 1802 0349 0D       		.uleb128 0xd
 1803 034a 7E000000 		.4byte	.LASF107
 1804 034e 05       		.byte	0x5
 1805 034f D801     		.2byte	0x1d8
 1806 0351 B3000000 		.4byte	0xb3
 1807 0355 02       		.byte	0x2
 1808 0356 23       		.byte	0x23
 1809 0357 0C       		.uleb128 0xc
 1810 0358 0D       		.uleb128 0xd
 1811 0359 BE080000 		.4byte	.LASF108
 1812 035d 05       		.byte	0x5
 1813 035e D901     		.2byte	0x1d9
 1814 0360 B3000000 		.4byte	0xb3
 1815 0364 02       		.byte	0x2
 1816 0365 23       		.byte	0x23
 1817 0366 10       		.uleb128 0x10
 1818 0367 0C       		.uleb128 0xc
 1819 0368 46435200 		.ascii	"FCR\000"
 1820 036c 05       		.byte	0x5
 1821 036d DA01     		.2byte	0x1da
 1822 036f B3000000 		.4byte	0xb3
 1823 0373 02       		.byte	0x2
 1824 0374 23       		.byte	0x23
 1825 0375 14       		.uleb128 0x14
 1826 0376 00       		.byte	0x0
 1827 0377 0E       		.uleb128 0xe
 1828 0378 55080000 		.4byte	.LASF109
 1829 037c 05       		.byte	0x5
 1830 037d DB01     		.2byte	0x1db
 1831 037f 14030000 		.4byte	0x314
 1832 0383 0B       		.uleb128 0xb
 1833 0384 88       		.byte	0x88
 1834 0385 05       		.byte	0x5
 1835 0386 DB02     		.2byte	0x2db
 1836 0388 50050000 		.4byte	0x550
 1837 038c 0C       		.uleb128 0xc
 1838 038d 435200   		.ascii	"CR\000"
 1839 0390 05       		.byte	0x5
 1840 0391 DD02     		.2byte	0x2dd
 1841 0393 B3000000 		.4byte	0xb3
 1842 0397 02       		.byte	0x2
 1843 0398 23       		.byte	0x23
 1844 0399 00       		.uleb128 0x0
 1845 039a 0D       		.uleb128 0xd
 1846 039b 49020000 		.4byte	.LASF110
 1847 039f 05       		.byte	0x5
 1848 03a0 DE02     		.2byte	0x2de
 1849 03a2 B3000000 		.4byte	0xb3
 1850 03a6 02       		.byte	0x2
 1851 03a7 23       		.byte	0x23
 1852 03a8 04       		.uleb128 0x4
 1853 03a9 0D       		.uleb128 0xd
 1854 03aa 6F090000 		.4byte	.LASF111
 1855 03ae 05       		.byte	0x5
 1856 03af DF02     		.2byte	0x2df
ARM GAS  C:\Users\DNIEL~1\AppData\Local\Temp\cc4qdATB.s 			page 34


 1857 03b1 B3000000 		.4byte	0xb3
 1858 03b5 02       		.byte	0x2
 1859 03b6 23       		.byte	0x23
 1860 03b7 08       		.uleb128 0x8
 1861 03b8 0C       		.uleb128 0xc
 1862 03b9 43495200 		.ascii	"CIR\000"
 1863 03bd 05       		.byte	0x5
 1864 03be E002     		.2byte	0x2e0
 1865 03c0 B3000000 		.4byte	0xb3
 1866 03c4 02       		.byte	0x2
 1867 03c5 23       		.byte	0x23
 1868 03c6 0C       		.uleb128 0xc
 1869 03c7 0D       		.uleb128 0xd
 1870 03c8 9D010000 		.4byte	.LASF112
 1871 03cc 05       		.byte	0x5
 1872 03cd E102     		.2byte	0x2e1
 1873 03cf B3000000 		.4byte	0xb3
 1874 03d3 02       		.byte	0x2
 1875 03d4 23       		.byte	0x23
 1876 03d5 10       		.uleb128 0x10
 1877 03d6 0D       		.uleb128 0xd
 1878 03d7 A6020000 		.4byte	.LASF113
 1879 03db 05       		.byte	0x5
 1880 03dc E202     		.2byte	0x2e2
 1881 03de B3000000 		.4byte	0xb3
 1882 03e2 02       		.byte	0x2
 1883 03e3 23       		.byte	0x23
 1884 03e4 14       		.uleb128 0x14
 1885 03e5 0D       		.uleb128 0xd
 1886 03e6 1A040000 		.4byte	.LASF114
 1887 03ea 05       		.byte	0x5
 1888 03eb E302     		.2byte	0x2e3
 1889 03ed B3000000 		.4byte	0xb3
 1890 03f1 02       		.byte	0x2
 1891 03f2 23       		.byte	0x23
 1892 03f3 18       		.uleb128 0x18
 1893 03f4 0D       		.uleb128 0xd
 1894 03f5 25060000 		.4byte	.LASF115
 1895 03f9 05       		.byte	0x5
 1896 03fa E402     		.2byte	0x2e4
 1897 03fc 86000000 		.4byte	0x86
 1898 0400 02       		.byte	0x2
 1899 0401 23       		.byte	0x23
 1900 0402 1C       		.uleb128 0x1c
 1901 0403 0D       		.uleb128 0xd
 1902 0404 B8050000 		.4byte	.LASF116
 1903 0408 05       		.byte	0x5
 1904 0409 E502     		.2byte	0x2e5
 1905 040b B3000000 		.4byte	0xb3
 1906 040f 02       		.byte	0x2
 1907 0410 23       		.byte	0x23
 1908 0411 20       		.uleb128 0x20
 1909 0412 0D       		.uleb128 0xd
 1910 0413 DC010000 		.4byte	.LASF117
 1911 0417 05       		.byte	0x5
 1912 0418 E602     		.2byte	0x2e6
 1913 041a B3000000 		.4byte	0xb3
ARM GAS  C:\Users\DNIEL~1\AppData\Local\Temp\cc4qdATB.s 			page 35


 1914 041e 02       		.byte	0x2
 1915 041f 23       		.byte	0x23
 1916 0420 24       		.uleb128 0x24
 1917 0421 0D       		.uleb128 0xd
 1918 0422 2F060000 		.4byte	.LASF118
 1919 0426 05       		.byte	0x5
 1920 0427 E702     		.2byte	0x2e7
 1921 0429 FA020000 		.4byte	0x2fa
 1922 042d 02       		.byte	0x2
 1923 042e 23       		.byte	0x23
 1924 042f 28       		.uleb128 0x28
 1925 0430 0D       		.uleb128 0xd
 1926 0431 5E090000 		.4byte	.LASF119
 1927 0435 05       		.byte	0x5
 1928 0436 E802     		.2byte	0x2e8
 1929 0438 B3000000 		.4byte	0xb3
 1930 043c 02       		.byte	0x2
 1931 043d 23       		.byte	0x23
 1932 043e 30       		.uleb128 0x30
 1933 043f 0D       		.uleb128 0xd
 1934 0440 68080000 		.4byte	.LASF120
 1935 0444 05       		.byte	0x5
 1936 0445 E902     		.2byte	0x2e9
 1937 0447 B3000000 		.4byte	0xb3
 1938 044b 02       		.byte	0x2
 1939 044c 23       		.byte	0x23
 1940 044d 34       		.uleb128 0x34
 1941 044e 0D       		.uleb128 0xd
 1942 044f 41050000 		.4byte	.LASF121
 1943 0453 05       		.byte	0x5
 1944 0454 EA02     		.2byte	0x2ea
 1945 0456 B3000000 		.4byte	0xb3
 1946 045a 02       		.byte	0x2
 1947 045b 23       		.byte	0x23
 1948 045c 38       		.uleb128 0x38
 1949 045d 0D       		.uleb128 0xd
 1950 045e 39060000 		.4byte	.LASF122
 1951 0462 05       		.byte	0x5
 1952 0463 EB02     		.2byte	0x2eb
 1953 0465 86000000 		.4byte	0x86
 1954 0469 02       		.byte	0x2
 1955 046a 23       		.byte	0x23
 1956 046b 3C       		.uleb128 0x3c
 1957 046c 0D       		.uleb128 0xd
 1958 046d C2070000 		.4byte	.LASF123
 1959 0471 05       		.byte	0x5
 1960 0472 EC02     		.2byte	0x2ec
 1961 0474 B3000000 		.4byte	0xb3
 1962 0478 02       		.byte	0x2
 1963 0479 23       		.byte	0x23
 1964 047a 40       		.uleb128 0x40
 1965 047b 0D       		.uleb128 0xd
 1966 047c 67070000 		.4byte	.LASF124
 1967 0480 05       		.byte	0x5
 1968 0481 ED02     		.2byte	0x2ed
 1969 0483 B3000000 		.4byte	0xb3
 1970 0487 02       		.byte	0x2
ARM GAS  C:\Users\DNIEL~1\AppData\Local\Temp\cc4qdATB.s 			page 36


 1971 0488 23       		.byte	0x23
 1972 0489 44       		.uleb128 0x44
 1973 048a 0D       		.uleb128 0xd
 1974 048b 43060000 		.4byte	.LASF125
 1975 048f 05       		.byte	0x5
 1976 0490 EE02     		.2byte	0x2ee
 1977 0492 FA020000 		.4byte	0x2fa
 1978 0496 02       		.byte	0x2
 1979 0497 23       		.byte	0x23
 1980 0498 48       		.uleb128 0x48
 1981 0499 0D       		.uleb128 0xd
 1982 049a 3E010000 		.4byte	.LASF126
 1983 049e 05       		.byte	0x5
 1984 049f EF02     		.2byte	0x2ef
 1985 04a1 B3000000 		.4byte	0xb3
 1986 04a5 02       		.byte	0x2
 1987 04a6 23       		.byte	0x23
 1988 04a7 50       		.uleb128 0x50
 1989 04a8 0D       		.uleb128 0xd
 1990 04a9 BA000000 		.4byte	.LASF127
 1991 04ad 05       		.byte	0x5
 1992 04ae F002     		.2byte	0x2f0
 1993 04b0 B3000000 		.4byte	0xb3
 1994 04b4 02       		.byte	0x2
 1995 04b5 23       		.byte	0x23
 1996 04b6 54       		.uleb128 0x54
 1997 04b7 0D       		.uleb128 0xd
 1998 04b8 23070000 		.4byte	.LASF128
 1999 04bc 05       		.byte	0x5
 2000 04bd F102     		.2byte	0x2f1
 2001 04bf B3000000 		.4byte	0xb3
 2002 04c3 02       		.byte	0x2
 2003 04c4 23       		.byte	0x23
 2004 04c5 58       		.uleb128 0x58
 2005 04c6 0D       		.uleb128 0xd
 2006 04c7 4D060000 		.4byte	.LASF129
 2007 04cb 05       		.byte	0x5
 2008 04cc F202     		.2byte	0x2f2
 2009 04ce 86000000 		.4byte	0x86
 2010 04d2 02       		.byte	0x2
 2011 04d3 23       		.byte	0x23
 2012 04d4 5C       		.uleb128 0x5c
 2013 04d5 0D       		.uleb128 0xd
 2014 04d6 17000000 		.4byte	.LASF130
 2015 04da 05       		.byte	0x5
 2016 04db F302     		.2byte	0x2f3
 2017 04dd B3000000 		.4byte	0xb3
 2018 04e1 02       		.byte	0x2
 2019 04e2 23       		.byte	0x23
 2020 04e3 60       		.uleb128 0x60
 2021 04e4 0D       		.uleb128 0xd
 2022 04e5 5C040000 		.4byte	.LASF131
 2023 04e9 05       		.byte	0x5
 2024 04ea F402     		.2byte	0x2f4
 2025 04ec B3000000 		.4byte	0xb3
 2026 04f0 02       		.byte	0x2
 2027 04f1 23       		.byte	0x23
ARM GAS  C:\Users\DNIEL~1\AppData\Local\Temp\cc4qdATB.s 			page 37


 2028 04f2 64       		.uleb128 0x64
 2029 04f3 0D       		.uleb128 0xd
 2030 04f4 57060000 		.4byte	.LASF132
 2031 04f8 05       		.byte	0x5
 2032 04f9 F502     		.2byte	0x2f5
 2033 04fb FA020000 		.4byte	0x2fa
 2034 04ff 02       		.byte	0x2
 2035 0500 23       		.byte	0x23
 2036 0501 68       		.uleb128 0x68
 2037 0502 0D       		.uleb128 0xd
 2038 0503 11090000 		.4byte	.LASF133
 2039 0507 05       		.byte	0x5
 2040 0508 F602     		.2byte	0x2f6
 2041 050a B3000000 		.4byte	0xb3
 2042 050e 02       		.byte	0x2
 2043 050f 23       		.byte	0x23
 2044 0510 70       		.uleb128 0x70
 2045 0511 0C       		.uleb128 0xc
 2046 0512 43535200 		.ascii	"CSR\000"
 2047 0516 05       		.byte	0x5
 2048 0517 F702     		.2byte	0x2f7
 2049 0519 B3000000 		.4byte	0xb3
 2050 051d 02       		.byte	0x2
 2051 051e 23       		.byte	0x23
 2052 051f 74       		.uleb128 0x74
 2053 0520 0D       		.uleb128 0xd
 2054 0521 61060000 		.4byte	.LASF134
 2055 0525 05       		.byte	0x5
 2056 0526 F802     		.2byte	0x2f8
 2057 0528 FA020000 		.4byte	0x2fa
 2058 052c 02       		.byte	0x2
 2059 052d 23       		.byte	0x23
 2060 052e 78       		.uleb128 0x78
 2061 052f 0D       		.uleb128 0xd
 2062 0530 EA080000 		.4byte	.LASF135
 2063 0534 05       		.byte	0x5
 2064 0535 F902     		.2byte	0x2f9
 2065 0537 B3000000 		.4byte	0xb3
 2066 053b 03       		.byte	0x3
 2067 053c 23       		.byte	0x23
 2068 053d 8001     		.uleb128 0x80
 2069 053f 0D       		.uleb128 0xd
 2070 0540 02040000 		.4byte	.LASF136
 2071 0544 05       		.byte	0x5
 2072 0545 FA02     		.2byte	0x2fa
 2073 0547 B3000000 		.4byte	0xb3
 2074 054b 03       		.byte	0x3
 2075 054c 23       		.byte	0x23
 2076 054d 8401     		.uleb128 0x84
 2077 054f 00       		.byte	0x0
 2078 0550 0E       		.uleb128 0xe
 2079 0551 93030000 		.4byte	.LASF137
 2080 0555 05       		.byte	0x5
 2081 0556 FB02     		.2byte	0x2fb
 2082 0558 83030000 		.4byte	0x383
 2083 055c 0B       		.uleb128 0xb
 2084 055d 1C       		.byte	0x1c
ARM GAS  C:\Users\DNIEL~1\AppData\Local\Temp\cc4qdATB.s 			page 38


 2085 055e 05       		.byte	0x5
 2086 055f 9303     		.2byte	0x393
 2087 0561 36060000 		.4byte	0x636
 2088 0565 0C       		.uleb128 0xc
 2089 0566 535200   		.ascii	"SR\000"
 2090 0569 05       		.byte	0x5
 2091 056a 9503     		.2byte	0x395
 2092 056c 0A030000 		.4byte	0x30a
 2093 0570 02       		.byte	0x2
 2094 0571 23       		.byte	0x23
 2095 0572 00       		.uleb128 0x0
 2096 0573 0D       		.uleb128 0xd
 2097 0574 25060000 		.4byte	.LASF115
 2098 0578 05       		.byte	0x5
 2099 0579 9603     		.2byte	0x396
 2100 057b 62000000 		.4byte	0x62
 2101 057f 02       		.byte	0x2
 2102 0580 23       		.byte	0x23
 2103 0581 02       		.uleb128 0x2
 2104 0582 0C       		.uleb128 0xc
 2105 0583 445200   		.ascii	"DR\000"
 2106 0586 05       		.byte	0x5
 2107 0587 9703     		.2byte	0x397
 2108 0589 0A030000 		.4byte	0x30a
 2109 058d 02       		.byte	0x2
 2110 058e 23       		.byte	0x23
 2111 058f 04       		.uleb128 0x4
 2112 0590 0D       		.uleb128 0xd
 2113 0591 2F060000 		.4byte	.LASF118
 2114 0595 05       		.byte	0x5
 2115 0596 9803     		.2byte	0x398
 2116 0598 62000000 		.4byte	0x62
 2117 059c 02       		.byte	0x2
 2118 059d 23       		.byte	0x23
 2119 059e 06       		.uleb128 0x6
 2120 059f 0C       		.uleb128 0xc
 2121 05a0 42525200 		.ascii	"BRR\000"
 2122 05a4 05       		.byte	0x5
 2123 05a5 9903     		.2byte	0x399
 2124 05a7 0A030000 		.4byte	0x30a
 2125 05ab 02       		.byte	0x2
 2126 05ac 23       		.byte	0x23
 2127 05ad 08       		.uleb128 0x8
 2128 05ae 0D       		.uleb128 0xd
 2129 05af 39060000 		.4byte	.LASF122
 2130 05b3 05       		.byte	0x5
 2131 05b4 9A03     		.2byte	0x39a
 2132 05b6 62000000 		.4byte	0x62
 2133 05ba 02       		.byte	0x2
 2134 05bb 23       		.byte	0x23
 2135 05bc 0A       		.uleb128 0xa
 2136 05bd 0C       		.uleb128 0xc
 2137 05be 43523100 		.ascii	"CR1\000"
 2138 05c2 05       		.byte	0x5
 2139 05c3 9B03     		.2byte	0x39b
 2140 05c5 0A030000 		.4byte	0x30a
 2141 05c9 02       		.byte	0x2
ARM GAS  C:\Users\DNIEL~1\AppData\Local\Temp\cc4qdATB.s 			page 39


 2142 05ca 23       		.byte	0x23
 2143 05cb 0C       		.uleb128 0xc
 2144 05cc 0D       		.uleb128 0xd
 2145 05cd 43060000 		.4byte	.LASF125
 2146 05d1 05       		.byte	0x5
 2147 05d2 9C03     		.2byte	0x39c
 2148 05d4 62000000 		.4byte	0x62
 2149 05d8 02       		.byte	0x2
 2150 05d9 23       		.byte	0x23
 2151 05da 0E       		.uleb128 0xe
 2152 05db 0C       		.uleb128 0xc
 2153 05dc 43523200 		.ascii	"CR2\000"
 2154 05e0 05       		.byte	0x5
 2155 05e1 9D03     		.2byte	0x39d
 2156 05e3 0A030000 		.4byte	0x30a
 2157 05e7 02       		.byte	0x2
 2158 05e8 23       		.byte	0x23
 2159 05e9 10       		.uleb128 0x10
 2160 05ea 0D       		.uleb128 0xd
 2161 05eb 4D060000 		.4byte	.LASF129
 2162 05ef 05       		.byte	0x5
 2163 05f0 9E03     		.2byte	0x39e
 2164 05f2 62000000 		.4byte	0x62
 2165 05f6 02       		.byte	0x2
 2166 05f7 23       		.byte	0x23
 2167 05f8 12       		.uleb128 0x12
 2168 05f9 0C       		.uleb128 0xc
 2169 05fa 43523300 		.ascii	"CR3\000"
 2170 05fe 05       		.byte	0x5
 2171 05ff 9F03     		.2byte	0x39f
 2172 0601 0A030000 		.4byte	0x30a
 2173 0605 02       		.byte	0x2
 2174 0606 23       		.byte	0x23
 2175 0607 14       		.uleb128 0x14
 2176 0608 0D       		.uleb128 0xd
 2177 0609 57060000 		.4byte	.LASF132
 2178 060d 05       		.byte	0x5
 2179 060e A003     		.2byte	0x3a0
 2180 0610 62000000 		.4byte	0x62
 2181 0614 02       		.byte	0x2
 2182 0615 23       		.byte	0x23
 2183 0616 16       		.uleb128 0x16
 2184 0617 0D       		.uleb128 0xd
 2185 0618 A6010000 		.4byte	.LASF138
 2186 061c 05       		.byte	0x5
 2187 061d A103     		.2byte	0x3a1
 2188 061f 0A030000 		.4byte	0x30a
 2189 0623 02       		.byte	0x2
 2190 0624 23       		.byte	0x23
 2191 0625 18       		.uleb128 0x18
 2192 0626 0D       		.uleb128 0xd
 2193 0627 61060000 		.4byte	.LASF134
 2194 062b 05       		.byte	0x5
 2195 062c A203     		.2byte	0x3a2
 2196 062e 62000000 		.4byte	0x62
 2197 0632 02       		.byte	0x2
 2198 0633 23       		.byte	0x23
ARM GAS  C:\Users\DNIEL~1\AppData\Local\Temp\cc4qdATB.s 			page 40


 2199 0634 1A       		.uleb128 0x1a
 2200 0635 00       		.byte	0x0
 2201 0636 0E       		.uleb128 0xe
 2202 0637 4E040000 		.4byte	.LASF139
 2203 063b 05       		.byte	0x5
 2204 063c A303     		.2byte	0x3a3
 2205 063e 5C050000 		.4byte	0x55c
 2206 0642 0F       		.uleb128 0xf
 2207 0643 0C       		.byte	0xc
 2208 0644 06       		.byte	0x6
 2209 0645 DE       		.byte	0xde
 2210 0646 91060000 		.4byte	0x691
 2211 064a 10       		.uleb128 0x10
 2212 064b A2000000 		.4byte	.LASF140
 2213 064f 06       		.byte	0x6
 2214 0650 DF       		.byte	0xdf
 2215 0651 91060000 		.4byte	0x691
 2216 0655 02       		.byte	0x2
 2217 0656 23       		.byte	0x23
 2218 0657 00       		.uleb128 0x0
 2219 0658 10       		.uleb128 0x10
 2220 0659 8B070000 		.4byte	.LASF141
 2221 065d 06       		.byte	0x6
 2222 065e E0       		.byte	0xe0
 2223 065f 97060000 		.4byte	0x697
 2224 0663 02       		.byte	0x2
 2225 0664 23       		.byte	0x23
 2226 0665 04       		.uleb128 0x4
 2227 0666 10       		.uleb128 0x10
 2228 0667 B2030000 		.4byte	.LASF142
 2229 066b 06       		.byte	0x6
 2230 066c E1       		.byte	0xe1
 2231 066d 49000000 		.4byte	0x49
 2232 0671 02       		.byte	0x2
 2233 0672 23       		.byte	0x23
 2234 0673 08       		.uleb128 0x8
 2235 0674 10       		.uleb128 0x10
 2236 0675 AF020000 		.4byte	.LASF143
 2237 0679 06       		.byte	0x6
 2238 067a E3       		.byte	0xe3
 2239 067b 49000000 		.4byte	0x49
 2240 067f 02       		.byte	0x2
 2241 0680 23       		.byte	0x23
 2242 0681 09       		.uleb128 0x9
 2243 0682 10       		.uleb128 0x10
 2244 0683 DA000000 		.4byte	.LASF144
 2245 0687 06       		.byte	0x6
 2246 0688 E4       		.byte	0xe4
 2247 0689 49000000 		.4byte	0x49
 2248 068d 02       		.byte	0x2
 2249 068e 23       		.byte	0x23
 2250 068f 0A       		.uleb128 0xa
 2251 0690 00       		.byte	0x0
 2252 0691 11       		.uleb128 0x11
 2253 0692 04       		.byte	0x4
 2254 0693 77030000 		.4byte	0x377
 2255 0697 11       		.uleb128 0x11
ARM GAS  C:\Users\DNIEL~1\AppData\Local\Temp\cc4qdATB.s 			page 41


 2256 0698 04       		.byte	0x4
 2257 0699 B3000000 		.4byte	0xb3
 2258 069d 03       		.uleb128 0x3
 2259 069e 6B060000 		.4byte	.LASF145
 2260 06a2 06       		.byte	0x6
 2261 06a3 E5       		.byte	0xe5
 2262 06a4 42060000 		.4byte	0x642
 2263 06a8 03       		.uleb128 0x3
 2264 06a9 5B030000 		.4byte	.LASF146
 2265 06ad 06       		.byte	0x6
 2266 06ae EE       		.byte	0xee
 2267 06af B3060000 		.4byte	0x6b3
 2268 06b3 11       		.uleb128 0x11
 2269 06b4 04       		.byte	0x4
 2270 06b5 B9060000 		.4byte	0x6b9
 2271 06b9 12       		.uleb128 0x12
 2272 06ba 01       		.byte	0x1
 2273 06bb CA060000 		.4byte	0x6ca
 2274 06bf 13       		.uleb128 0x13
 2275 06c0 B1000000 		.4byte	0xb1
 2276 06c4 13       		.uleb128 0x13
 2277 06c5 86000000 		.4byte	0x86
 2278 06c9 00       		.byte	0x0
 2279 06ca 11       		.uleb128 0x11
 2280 06cb 04       		.byte	0x4
 2281 06cc 36060000 		.4byte	0x636
 2282 06d0 14       		.uleb128 0x14
 2283 06d1 01       		.byte	0x1
 2284 06d2 07       		.byte	0x7
 2285 06d3 41       		.byte	0x41
 2286 06d4 EB060000 		.4byte	0x6eb
 2287 06d8 08       		.uleb128 0x8
 2288 06d9 EC030000 		.4byte	.LASF147
 2289 06dd 00       		.sleb128 0
 2290 06de 08       		.uleb128 0x8
 2291 06df F8030000 		.4byte	.LASF148
 2292 06e3 01       		.sleb128 1
 2293 06e4 08       		.uleb128 0x8
 2294 06e5 EE020000 		.4byte	.LASF149
 2295 06e9 02       		.sleb128 2
 2296 06ea 00       		.byte	0x0
 2297 06eb 03       		.uleb128 0x3
 2298 06ec 50070000 		.4byte	.LASF150
 2299 06f0 07       		.byte	0x7
 2300 06f1 45       		.byte	0x45
 2301 06f2 D0060000 		.4byte	0x6d0
 2302 06f6 14       		.uleb128 0x14
 2303 06f7 01       		.byte	0x1
 2304 06f8 07       		.byte	0x7
 2305 06f9 4A       		.byte	0x4a
 2306 06fa 11070000 		.4byte	0x711
 2307 06fe 08       		.uleb128 0x8
 2308 06ff 43080000 		.4byte	.LASF151
 2309 0703 00       		.sleb128 0
 2310 0704 08       		.uleb128 0x8
 2311 0705 F9020000 		.4byte	.LASF152
 2312 0709 01       		.sleb128 1
ARM GAS  C:\Users\DNIEL~1\AppData\Local\Temp\cc4qdATB.s 			page 42


 2313 070a 08       		.uleb128 0x8
 2314 070b 6F070000 		.4byte	.LASF153
 2315 070f 02       		.sleb128 2
 2316 0710 00       		.byte	0x0
 2317 0711 03       		.uleb128 0x3
 2318 0712 AA050000 		.4byte	.LASF154
 2319 0716 07       		.byte	0x7
 2320 0717 4E       		.byte	0x4e
 2321 0718 F6060000 		.4byte	0x6f6
 2322 071c 14       		.uleb128 0x14
 2323 071d 01       		.byte	0x1
 2324 071e 07       		.byte	0x7
 2325 071f 53       		.byte	0x53
 2326 0720 37070000 		.4byte	0x737
 2327 0724 08       		.uleb128 0x8
 2328 0725 05080000 		.4byte	.LASF155
 2329 0729 00       		.sleb128 0
 2330 072a 08       		.uleb128 0x8
 2331 072b D7040000 		.4byte	.LASF156
 2332 072f 01       		.sleb128 1
 2333 0730 08       		.uleb128 0x8
 2334 0731 00050000 		.4byte	.LASF157
 2335 0735 02       		.sleb128 2
 2336 0736 00       		.byte	0x0
 2337 0737 03       		.uleb128 0x3
 2338 0738 C3080000 		.4byte	.LASF158
 2339 073c 07       		.byte	0x7
 2340 073d 57       		.byte	0x57
 2341 073e 1C070000 		.4byte	0x71c
 2342 0742 0E       		.uleb128 0xe
 2343 0743 21000000 		.4byte	.LASF159
 2344 0747 08       		.byte	0x8
 2345 0748 6B01     		.2byte	0x16b
 2346 074a 86000000 		.4byte	0x86
 2347 074e 0E       		.uleb128 0xe
 2348 074f 9B020000 		.4byte	.LASF160
 2349 0753 08       		.byte	0x8
 2350 0754 7001     		.2byte	0x170
 2351 0756 5A070000 		.4byte	0x75a
 2352 075a 15       		.uleb128 0x15
 2353 075b 9B020000 		.4byte	.LASF160
 2354 075f 1C       		.byte	0x1c
 2355 0760 08       		.byte	0x8
 2356 0761 B801     		.2byte	0x1b8
 2357 0763 EF070000 		.4byte	0x7ef
 2358 0767 0D       		.uleb128 0xd
 2359 0768 C5010000 		.4byte	.LASF161
 2360 076c 08       		.byte	0x8
 2361 076d BC01     		.2byte	0x1bc
 2362 076f EB060000 		.4byte	0x6eb
 2363 0773 02       		.byte	0x2
 2364 0774 23       		.byte	0x23
 2365 0775 00       		.uleb128 0x0
 2366 0776 0D       		.uleb128 0xd
 2367 0777 CB010000 		.4byte	.LASF162
 2368 077b 08       		.byte	0x8
 2369 077c C001     		.2byte	0x1c0
ARM GAS  C:\Users\DNIEL~1\AppData\Local\Temp\cc4qdATB.s 			page 43


 2370 077e 11070000 		.4byte	0x711
 2371 0782 02       		.byte	0x2
 2372 0783 23       		.byte	0x23
 2373 0784 01       		.uleb128 0x1
 2374 0785 0D       		.uleb128 0xd
 2375 0786 AB010000 		.4byte	.LASF163
 2376 078a 08       		.byte	0x8
 2377 078b C401     		.2byte	0x1c4
 2378 078d 37070000 		.4byte	0x737
 2379 0791 02       		.byte	0x2
 2380 0792 23       		.byte	0x23
 2381 0793 02       		.uleb128 0x2
 2382 0794 0D       		.uleb128 0xd
 2383 0795 FE070000 		.4byte	.LASF164
 2384 0799 08       		.byte	0x8
 2385 079a C801     		.2byte	0x1c8
 2386 079c F6080000 		.4byte	0x8f6
 2387 07a0 02       		.byte	0x2
 2388 07a1 23       		.byte	0x23
 2389 07a2 04       		.uleb128 0x4
 2390 07a3 0D       		.uleb128 0xd
 2391 07a4 08030000 		.4byte	.LASF165
 2392 07a8 08       		.byte	0x8
 2393 07a9 D001     		.2byte	0x1d0
 2394 07ab CA060000 		.4byte	0x6ca
 2395 07af 02       		.byte	0x2
 2396 07b0 23       		.byte	0x23
 2397 07b1 08       		.uleb128 0x8
 2398 07b2 0D       		.uleb128 0xd
 2399 07b3 44090000 		.4byte	.LASF166
 2400 07b7 08       		.byte	0x8
 2401 07b8 D401     		.2byte	0x1d4
 2402 07ba 86000000 		.4byte	0x86
 2403 07be 02       		.byte	0x2
 2404 07bf 23       		.byte	0x23
 2405 07c0 0C       		.uleb128 0xc
 2406 07c1 0D       		.uleb128 0xd
 2407 07c2 A9000000 		.4byte	.LASF167
 2408 07c6 08       		.byte	0x8
 2409 07c7 D801     		.2byte	0x1d8
 2410 07c9 01090000 		.4byte	0x901
 2411 07cd 02       		.byte	0x2
 2412 07ce 23       		.byte	0x23
 2413 07cf 10       		.uleb128 0x10
 2414 07d0 0D       		.uleb128 0xd
 2415 07d1 1F060000 		.4byte	.LASF168
 2416 07d5 08       		.byte	0x8
 2417 07d6 DC01     		.2byte	0x1dc
 2418 07d8 01090000 		.4byte	0x901
 2419 07dc 02       		.byte	0x2
 2420 07dd 23       		.byte	0x23
 2421 07de 14       		.uleb128 0x14
 2422 07df 0D       		.uleb128 0xd
 2423 07e0 24010000 		.4byte	.LASF169
 2424 07e4 08       		.byte	0x8
 2425 07e5 E001     		.2byte	0x1e0
 2426 07e7 0A030000 		.4byte	0x30a
ARM GAS  C:\Users\DNIEL~1\AppData\Local\Temp\cc4qdATB.s 			page 44


 2427 07eb 02       		.byte	0x2
 2428 07ec 23       		.byte	0x23
 2429 07ed 18       		.uleb128 0x18
 2430 07ee 00       		.byte	0x0
 2431 07ef 0E       		.uleb128 0xe
 2432 07f0 E5010000 		.4byte	.LASF170
 2433 07f4 08       		.byte	0x8
 2434 07f5 7701     		.2byte	0x177
 2435 07f7 FB070000 		.4byte	0x7fb
 2436 07fb 11       		.uleb128 0x11
 2437 07fc 04       		.byte	0x4
 2438 07fd 01080000 		.4byte	0x801
 2439 0801 12       		.uleb128 0x12
 2440 0802 01       		.byte	0x1
 2441 0803 0D080000 		.4byte	0x80d
 2442 0807 13       		.uleb128 0x13
 2443 0808 0D080000 		.4byte	0x80d
 2444 080c 00       		.byte	0x0
 2445 080d 11       		.uleb128 0x11
 2446 080e 04       		.byte	0x4
 2447 080f 4E070000 		.4byte	0x74e
 2448 0813 0E       		.uleb128 0xe
 2449 0814 CA070000 		.4byte	.LASF171
 2450 0818 08       		.byte	0x8
 2451 0819 7F01     		.2byte	0x17f
 2452 081b 1F080000 		.4byte	0x81f
 2453 081f 11       		.uleb128 0x11
 2454 0820 04       		.byte	0x4
 2455 0821 25080000 		.4byte	0x825
 2456 0825 12       		.uleb128 0x12
 2457 0826 01       		.byte	0x1
 2458 0827 36080000 		.4byte	0x836
 2459 082b 13       		.uleb128 0x13
 2460 082c 0D080000 		.4byte	0x80d
 2461 0830 13       		.uleb128 0x13
 2462 0831 62000000 		.4byte	0x62
 2463 0835 00       		.byte	0x0
 2464 0836 0E       		.uleb128 0xe
 2465 0837 89030000 		.4byte	.LASF172
 2466 083b 08       		.byte	0x8
 2467 083c 8701     		.2byte	0x187
 2468 083e 42080000 		.4byte	0x842
 2469 0842 11       		.uleb128 0x11
 2470 0843 04       		.byte	0x4
 2471 0844 48080000 		.4byte	0x848
 2472 0848 12       		.uleb128 0x12
 2473 0849 01       		.byte	0x1
 2474 084a 59080000 		.4byte	0x859
 2475 084e 13       		.uleb128 0x13
 2476 084f 0D080000 		.4byte	0x80d
 2477 0853 13       		.uleb128 0x13
 2478 0854 42070000 		.4byte	0x742
 2479 0858 00       		.byte	0x0
 2480 0859 0B       		.uleb128 0xb
 2481 085a 20       		.byte	0x20
 2482 085b 08       		.byte	0x8
 2483 085c 8D01     		.2byte	0x18d
ARM GAS  C:\Users\DNIEL~1\AppData\Local\Temp\cc4qdATB.s 			page 45


 2484 085e EA080000 		.4byte	0x8ea
 2485 0862 0D       		.uleb128 0xd
 2486 0863 9C070000 		.4byte	.LASF173
 2487 0867 08       		.byte	0x8
 2488 0868 9101     		.2byte	0x191
 2489 086a EF070000 		.4byte	0x7ef
 2490 086e 02       		.byte	0x2
 2491 086f 23       		.byte	0x23
 2492 0870 00       		.uleb128 0x0
 2493 0871 0D       		.uleb128 0xd
 2494 0872 16090000 		.4byte	.LASF174
 2495 0876 08       		.byte	0x8
 2496 0877 9501     		.2byte	0x195
 2497 0879 EF070000 		.4byte	0x7ef
 2498 087d 02       		.byte	0x2
 2499 087e 23       		.byte	0x23
 2500 087f 04       		.uleb128 0x4
 2501 0880 0D       		.uleb128 0xd
 2502 0881 A1050000 		.4byte	.LASF175
 2503 0885 08       		.byte	0x8
 2504 0886 9901     		.2byte	0x199
 2505 0888 EF070000 		.4byte	0x7ef
 2506 088c 02       		.byte	0x2
 2507 088d 23       		.byte	0x23
 2508 088e 08       		.uleb128 0x8
 2509 088f 0D       		.uleb128 0xd
 2510 0890 67000000 		.4byte	.LASF176
 2511 0894 08       		.byte	0x8
 2512 0895 9D01     		.2byte	0x19d
 2513 0897 13080000 		.4byte	0x813
 2514 089b 02       		.byte	0x2
 2515 089c 23       		.byte	0x23
 2516 089d 0C       		.uleb128 0xc
 2517 089e 0D       		.uleb128 0xd
 2518 089f 66040000 		.4byte	.LASF177
 2519 08a3 08       		.byte	0x8
 2520 08a4 A101     		.2byte	0x1a1
 2521 08a6 36080000 		.4byte	0x836
 2522 08aa 02       		.byte	0x2
 2523 08ab 23       		.byte	0x23
 2524 08ac 10       		.uleb128 0x10
 2525 08ad 0D       		.uleb128 0xd
 2526 08ae 58090000 		.4byte	.LASF178
 2527 08b2 08       		.byte	0x8
 2528 08b3 A601     		.2byte	0x1a6
 2529 08b5 86000000 		.4byte	0x86
 2530 08b9 02       		.byte	0x2
 2531 08ba 23       		.byte	0x23
 2532 08bb 14       		.uleb128 0x14
 2533 08bc 0C       		.uleb128 0xc
 2534 08bd 63723100 		.ascii	"cr1\000"
 2535 08c1 08       		.byte	0x8
 2536 08c2 AA01     		.2byte	0x1aa
 2537 08c4 62000000 		.4byte	0x62
 2538 08c8 02       		.byte	0x2
 2539 08c9 23       		.byte	0x23
 2540 08ca 18       		.uleb128 0x18
ARM GAS  C:\Users\DNIEL~1\AppData\Local\Temp\cc4qdATB.s 			page 46


 2541 08cb 0C       		.uleb128 0xc
 2542 08cc 63723200 		.ascii	"cr2\000"
 2543 08d0 08       		.byte	0x8
 2544 08d1 AE01     		.2byte	0x1ae
 2545 08d3 62000000 		.4byte	0x62
 2546 08d7 02       		.byte	0x2
 2547 08d8 23       		.byte	0x23
 2548 08d9 1A       		.uleb128 0x1a
 2549 08da 0C       		.uleb128 0xc
 2550 08db 63723300 		.ascii	"cr3\000"
 2551 08df 08       		.byte	0x8
 2552 08e0 B201     		.2byte	0x1b2
 2553 08e2 62000000 		.4byte	0x62
 2554 08e6 02       		.byte	0x2
 2555 08e7 23       		.byte	0x23
 2556 08e8 1C       		.uleb128 0x1c
 2557 08e9 00       		.byte	0x0
 2558 08ea 0E       		.uleb128 0xe
 2559 08eb 0B010000 		.4byte	.LASF179
 2560 08ef 08       		.byte	0x8
 2561 08f0 B301     		.2byte	0x1b3
 2562 08f2 59080000 		.4byte	0x859
 2563 08f6 11       		.uleb128 0x11
 2564 08f7 04       		.byte	0x4
 2565 08f8 FC080000 		.4byte	0x8fc
 2566 08fc 16       		.uleb128 0x16
 2567 08fd EA080000 		.4byte	0x8ea
 2568 0901 11       		.uleb128 0x11
 2569 0902 04       		.byte	0x4
 2570 0903 07090000 		.4byte	0x907
 2571 0907 16       		.uleb128 0x16
 2572 0908 9D060000 		.4byte	0x69d
 2573 090c 17       		.uleb128 0x17
 2574 090d EF040000 		.4byte	.LASF204
 2575 0911 01       		.byte	0x1
 2576 0912 6E       		.byte	0x6e
 2577 0913 01       		.byte	0x1
 2578 0914 42070000 		.4byte	0x742
 2579 0918 01       		.byte	0x1
 2580 0919 33090000 		.4byte	0x933
 2581 091d 18       		.uleb128 0x18
 2582 091e 737200   		.ascii	"sr\000"
 2583 0921 01       		.byte	0x1
 2584 0922 6E       		.byte	0x6e
 2585 0923 62000000 		.4byte	0x62
 2586 0927 19       		.uleb128 0x19
 2587 0928 73747300 		.ascii	"sts\000"
 2588 092c 01       		.byte	0x1
 2589 092d 6F       		.byte	0x6f
 2590 092e 42070000 		.4byte	0x742
 2591 0932 00       		.byte	0x0
 2592 0933 1A       		.uleb128 0x1a
 2593 0934 B5040000 		.4byte	.LASF181
 2594 0938 01       		.byte	0x1
 2595 0939 1B01     		.2byte	0x11b
 2596 093b 01       		.byte	0x1
 2597 093c 01       		.byte	0x1
ARM GAS  C:\Users\DNIEL~1\AppData\Local\Temp\cc4qdATB.s 			page 47


 2598 093d 63090000 		.4byte	0x963
 2599 0941 1B       		.uleb128 0x1b
 2600 0942 CA040000 		.4byte	.LASF180
 2601 0946 01       		.byte	0x1
 2602 0947 1B01     		.2byte	0x11b
 2603 0949 0D080000 		.4byte	0x80d
 2604 094d 1C       		.uleb128 0x1c
 2605 094e 737200   		.ascii	"sr\000"
 2606 0951 01       		.byte	0x1
 2607 0952 1C01     		.2byte	0x11c
 2608 0954 62000000 		.4byte	0x62
 2609 0958 1C       		.uleb128 0x1c
 2610 0959 7500     		.ascii	"u\000"
 2611 095b 01       		.byte	0x1
 2612 095c 1D01     		.2byte	0x11d
 2613 095e CA060000 		.4byte	0x6ca
 2614 0962 00       		.byte	0x0
 2615 0963 1D       		.uleb128 0x1d
 2616 0964 2E090000 		.4byte	.LASF182
 2617 0968 01       		.byte	0x1
 2618 0969 AA       		.byte	0xaa
 2619 096a 01       		.byte	0x1
 2620 096b 01       		.byte	0x1
 2621 096c 90090000 		.4byte	0x990
 2622 0970 1E       		.uleb128 0x1e
 2623 0971 CA040000 		.4byte	.LASF180
 2624 0975 01       		.byte	0x1
 2625 0976 AA       		.byte	0xaa
 2626 0977 0D080000 		.4byte	0x80d
 2627 097b 19       		.uleb128 0x19
 2628 097c 63723100 		.ascii	"cr1\000"
 2629 0980 01       		.byte	0x1
 2630 0981 AB       		.byte	0xab
 2631 0982 62000000 		.4byte	0x62
 2632 0986 19       		.uleb128 0x19
 2633 0987 7500     		.ascii	"u\000"
 2634 0989 01       		.byte	0x1
 2635 098a AC       		.byte	0xac
 2636 098b CA060000 		.4byte	0x6ca
 2637 098f 00       		.byte	0x0
 2638 0990 1F       		.uleb128 0x1f
 2639 0991 B9020000 		.4byte	.LASF183
 2640 0995 01       		.byte	0x1
 2641 0996 83       		.byte	0x83
 2642 0997 01       		.byte	0x1
 2643 0998 00000000 		.4byte	.LFB119
 2644 099c 2E000000 		.4byte	.LFE119
 2645 09a0 02       		.byte	0x2
 2646 09a1 7D       		.byte	0x7d
 2647 09a2 00       		.sleb128 0
 2648 09a3 C4090000 		.4byte	0x9c4
 2649 09a7 20       		.uleb128 0x20
 2650 09a8 CA040000 		.4byte	.LASF180
 2651 09ac 01       		.byte	0x1
 2652 09ad 83       		.byte	0x83
 2653 09ae 0D080000 		.4byte	0x80d
 2654 09b2 00000000 		.4byte	.LLST0
ARM GAS  C:\Users\DNIEL~1\AppData\Local\Temp\cc4qdATB.s 			page 48


 2655 09b6 21       		.uleb128 0x21
 2656 09b7 EB070000 		.4byte	.LASF190
 2657 09bb 01       		.byte	0x1
 2658 09bc 84       		.byte	0x84
 2659 09bd 86000000 		.4byte	0x86
 2660 09c1 01       		.byte	0x1
 2661 09c2 5C       		.byte	0x5c
 2662 09c3 00       		.byte	0x0
 2663 09c4 22       		.uleb128 0x22
 2664 09c5 AF000000 		.4byte	.LASF184
 2665 09c9 01       		.byte	0x1
 2666 09ca 98       		.byte	0x98
 2667 09cb 01       		.byte	0x1
 2668 09cc 00000000 		.4byte	.LFB120
 2669 09d0 4C000000 		.4byte	.LFE120
 2670 09d4 31000000 		.4byte	.LLST1
 2671 09d8 EC090000 		.4byte	0x9ec
 2672 09dc 20       		.uleb128 0x20
 2673 09dd CA040000 		.4byte	.LASF180
 2674 09e1 01       		.byte	0x1
 2675 09e2 98       		.byte	0x98
 2676 09e3 0D080000 		.4byte	0x80d
 2677 09e7 51000000 		.4byte	.LLST2
 2678 09eb 00       		.byte	0x0
 2679 09ec 22       		.uleb128 0x22
 2680 09ed 53050000 		.4byte	.LASF185
 2681 09f1 01       		.byte	0x1
 2682 09f2 FE       		.byte	0xfe
 2683 09f3 01       		.byte	0x1
 2684 09f4 00000000 		.4byte	.LFB123
 2685 09f8 50000000 		.4byte	.LFE123
 2686 09fc 64000000 		.4byte	.LLST3
 2687 0a00 230A0000 		.4byte	0xa23
 2688 0a04 20       		.uleb128 0x20
 2689 0a05 CA040000 		.4byte	.LASF180
 2690 0a09 01       		.byte	0x1
 2691 0a0a FE       		.byte	0xfe
 2692 0a0b 0D080000 		.4byte	0x80d
 2693 0a0f 84000000 		.4byte	.LLST4
 2694 0a13 20       		.uleb128 0x20
 2695 0a14 20090000 		.4byte	.LASF186
 2696 0a18 01       		.byte	0x1
 2697 0a19 FE       		.byte	0xfe
 2698 0a1a 86000000 		.4byte	0x86
 2699 0a1e A2000000 		.4byte	.LLST5
 2700 0a22 00       		.byte	0x0
 2701 0a23 22       		.uleb128 0x22
 2702 0a24 80080000 		.4byte	.LASF187
 2703 0a28 01       		.byte	0x1
 2704 0a29 D6       		.byte	0xd6
 2705 0a2a 01       		.byte	0x1
 2706 0a2b 00000000 		.4byte	.LFB122
 2707 0a2f 6C000000 		.4byte	.LFE122
 2708 0a33 C0000000 		.4byte	.LLST6
 2709 0a37 5A0A0000 		.4byte	0xa5a
 2710 0a3b 20       		.uleb128 0x20
 2711 0a3c CA040000 		.4byte	.LASF180
ARM GAS  C:\Users\DNIEL~1\AppData\Local\Temp\cc4qdATB.s 			page 49


 2712 0a40 01       		.byte	0x1
 2713 0a41 D6       		.byte	0xd6
 2714 0a42 0D080000 		.4byte	0x80d
 2715 0a46 E0000000 		.4byte	.LLST7
 2716 0a4a 20       		.uleb128 0x20
 2717 0a4b 20090000 		.4byte	.LASF186
 2718 0a4f 01       		.byte	0x1
 2719 0a50 D6       		.byte	0xd6
 2720 0a51 86000000 		.4byte	0x86
 2721 0a55 FE000000 		.4byte	.LLST8
 2722 0a59 00       		.byte	0x0
 2723 0a5a 23       		.uleb128 0x23
 2724 0a5b 01       		.byte	0x1
 2725 0a5c A8030000 		.4byte	.LASF188
 2726 0a60 01       		.byte	0x1
 2727 0a61 7601     		.2byte	0x176
 2728 0a63 01       		.byte	0x1
 2729 0a64 00000000 		.4byte	.LFB125
 2730 0a68 84000000 		.4byte	.LFE125
 2731 0a6c 1C010000 		.4byte	.LLST9
 2732 0a70 D50A0000 		.4byte	0xad5
 2733 0a74 24       		.uleb128 0x24
 2734 0a75 33090000 		.4byte	0x933
 2735 0a79 02000000 		.4byte	.LBB11
 2736 0a7d 00000000 		.4byte	.Ldebug_ranges0+0x0
 2737 0a81 01       		.byte	0x1
 2738 0a82 7A01     		.2byte	0x17a
 2739 0a84 25       		.uleb128 0x25
 2740 0a85 41090000 		.4byte	0x941
 2741 0a89 06       		.byte	0x6
 2742 0a8a 03       		.byte	0x3
 2743 0a8b 00000000 		.4byte	UARTD6
 2744 0a8f 9F       		.byte	0x9f
 2745 0a90 26       		.uleb128 0x26
 2746 0a91 18000000 		.4byte	.Ldebug_ranges0+0x18
 2747 0a95 27       		.uleb128 0x27
 2748 0a96 4D090000 		.4byte	0x94d
 2749 0a9a 01       		.byte	0x1
 2750 0a9b 54       		.byte	0x54
 2751 0a9c 28       		.uleb128 0x28
 2752 0a9d 58090000 		.4byte	0x958
 2753 0aa1 3C010000 		.4byte	.LLST10
 2754 0aa5 29       		.uleb128 0x29
 2755 0aa6 0C090000 		.4byte	0x90c
 2756 0aaa 26000000 		.4byte	.LBB13
 2757 0aae 56000000 		.4byte	.LBE13
 2758 0ab2 01       		.byte	0x1
 2759 0ab3 2501     		.2byte	0x125
 2760 0ab5 2A       		.uleb128 0x2a
 2761 0ab6 1D090000 		.4byte	0x91d
 2762 0aba 5E010000 		.4byte	.LLST11
 2763 0abe 2B       		.uleb128 0x2b
 2764 0abf 26000000 		.4byte	.LBB14
 2765 0ac3 56000000 		.4byte	.LBE14
 2766 0ac7 28       		.uleb128 0x28
 2767 0ac8 27090000 		.4byte	0x927
 2768 0acc 71010000 		.4byte	.LLST12
ARM GAS  C:\Users\DNIEL~1\AppData\Local\Temp\cc4qdATB.s 			page 50


 2769 0ad0 00       		.byte	0x0
 2770 0ad1 00       		.byte	0x0
 2771 0ad2 00       		.byte	0x0
 2772 0ad3 00       		.byte	0x0
 2773 0ad4 00       		.byte	0x0
 2774 0ad5 2C       		.uleb128 0x2c
 2775 0ad6 01       		.byte	0x1
 2776 0ad7 52000000 		.4byte	.LASF205
 2777 0adb 01       		.byte	0x1
 2778 0adc 8901     		.2byte	0x189
 2779 0ade 01       		.byte	0x1
 2780 0adf 00000000 		.4byte	.LFB126
 2781 0ae3 28000000 		.4byte	.LFE126
 2782 0ae7 BC010000 		.4byte	.LLST13
 2783 0aeb 23       		.uleb128 0x23
 2784 0aec 01       		.byte	0x1
 2785 0aed 8C020000 		.4byte	.LASF189
 2786 0af1 01       		.byte	0x1
 2787 0af2 AF01     		.2byte	0x1af
 2788 0af4 01       		.byte	0x1
 2789 0af5 00000000 		.4byte	.LFB127
 2790 0af9 2C010000 		.4byte	.LFE127
 2791 0afd DC010000 		.4byte	.LLST14
 2792 0b01 640B0000 		.4byte	0xb64
 2793 0b05 2D       		.uleb128 0x2d
 2794 0b06 CA040000 		.4byte	.LASF180
 2795 0b0a 01       		.byte	0x1
 2796 0b0b AF01     		.2byte	0x1af
 2797 0b0d 0D080000 		.4byte	0x80d
 2798 0b11 FC010000 		.4byte	.LLST15
 2799 0b15 2E       		.uleb128 0x2e
 2800 0b16 63090000 		.4byte	0x963
 2801 0b1a 18000000 		.4byte	.LBB17
 2802 0b1e 30000000 		.4byte	.Ldebug_ranges0+0x30
 2803 0b22 01       		.byte	0x1
 2804 0b23 1302     		.2byte	0x213
 2805 0b25 4B0B0000 		.4byte	0xb4b
 2806 0b29 2A       		.uleb128 0x2a
 2807 0b2a 70090000 		.4byte	0x970
 2808 0b2e 3B020000 		.4byte	.LLST16
 2809 0b32 26       		.uleb128 0x26
 2810 0b33 50000000 		.4byte	.Ldebug_ranges0+0x50
 2811 0b37 28       		.uleb128 0x28
 2812 0b38 7B090000 		.4byte	0x97b
 2813 0b3c 64020000 		.4byte	.LLST17
 2814 0b40 28       		.uleb128 0x28
 2815 0b41 86090000 		.4byte	0x986
 2816 0b45 77020000 		.4byte	.LLST18
 2817 0b49 00       		.byte	0x0
 2818 0b4a 00       		.byte	0x0
 2819 0b4b 2B       		.uleb128 0x2b
 2820 0b4c C0000000 		.4byte	.LBB23
 2821 0b50 2C010000 		.4byte	.LBE23
 2822 0b54 2F       		.uleb128 0x2f
 2823 0b55 6200     		.ascii	"b\000"
 2824 0b57 01       		.byte	0x1
 2825 0b58 F501     		.2byte	0x1f5
ARM GAS  C:\Users\DNIEL~1\AppData\Local\Temp\cc4qdATB.s 			page 51


 2826 0b5a A6000000 		.4byte	0xa6
 2827 0b5e 95020000 		.4byte	.LLST19
 2828 0b62 00       		.byte	0x0
 2829 0b63 00       		.byte	0x0
 2830 0b64 23       		.uleb128 0x23
 2831 0b65 01       		.byte	0x1
 2832 0b66 C3090000 		.4byte	.LASF191
 2833 0b6a 01       		.byte	0x1
 2834 0b6b 1D02     		.2byte	0x21d
 2835 0b6d 01       		.byte	0x1
 2836 0b6e 00000000 		.4byte	.LFB128
 2837 0b72 3C000000 		.4byte	.LFE128
 2838 0b76 C9020000 		.4byte	.LLST20
 2839 0b7a 8F0B0000 		.4byte	0xb8f
 2840 0b7e 2D       		.uleb128 0x2d
 2841 0b7f CA040000 		.4byte	.LASF180
 2842 0b83 01       		.byte	0x1
 2843 0b84 1D02     		.2byte	0x21d
 2844 0b86 0D080000 		.4byte	0x80d
 2845 0b8a E9020000 		.4byte	.LLST21
 2846 0b8e 00       		.byte	0x0
 2847 0b8f 30       		.uleb128 0x30
 2848 0b90 01       		.byte	0x1
 2849 0b91 74090000 		.4byte	.LASF192
 2850 0b95 01       		.byte	0x1
 2851 0b96 5102     		.2byte	0x251
 2852 0b98 01       		.byte	0x1
 2853 0b99 00000000 		.4byte	.LFB129
 2854 0b9d 1A000000 		.4byte	.LFE129
 2855 0ba1 02       		.byte	0x2
 2856 0ba2 7D       		.byte	0x7d
 2857 0ba3 00       		.sleb128 0
 2858 0ba4 D50B0000 		.4byte	0xbd5
 2859 0ba8 2D       		.uleb128 0x2d
 2860 0ba9 CA040000 		.4byte	.LASF180
 2861 0bad 01       		.byte	0x1
 2862 0bae 5102     		.2byte	0x251
 2863 0bb0 0D080000 		.4byte	0x80d
 2864 0bb4 07030000 		.4byte	.LLST22
 2865 0bb8 31       		.uleb128 0x31
 2866 0bb9 6E00     		.ascii	"n\000"
 2867 0bbb 01       		.byte	0x1
 2868 0bbc 5102     		.2byte	0x251
 2869 0bbe 30000000 		.4byte	0x30
 2870 0bc2 01       		.byte	0x1
 2871 0bc3 51       		.byte	0x51
 2872 0bc4 2D       		.uleb128 0x2d
 2873 0bc5 2D030000 		.4byte	.LASF193
 2874 0bc9 01       		.byte	0x1
 2875 0bca 5102     		.2byte	0x251
 2876 0bcc D50B0000 		.4byte	0xbd5
 2877 0bd0 1A030000 		.4byte	.LLST23
 2878 0bd4 00       		.byte	0x0
 2879 0bd5 11       		.uleb128 0x11
 2880 0bd6 04       		.byte	0x4
 2881 0bd7 DB0B0000 		.4byte	0xbdb
 2882 0bdb 32       		.uleb128 0x32
ARM GAS  C:\Users\DNIEL~1\AppData\Local\Temp\cc4qdATB.s 			page 52


 2883 0bdc 33       		.uleb128 0x33
 2884 0bdd 01       		.byte	0x1
 2885 0bde BA060000 		.4byte	.LASF195
 2886 0be2 01       		.byte	0x1
 2887 0be3 6602     		.2byte	0x266
 2888 0be5 01       		.byte	0x1
 2889 0be6 30000000 		.4byte	0x30
 2890 0bea 00000000 		.4byte	.LFB130
 2891 0bee 22000000 		.4byte	.LFE130
 2892 0bf2 02       		.byte	0x2
 2893 0bf3 7D       		.byte	0x7d
 2894 0bf4 00       		.sleb128 0
 2895 0bf5 0A0C0000 		.4byte	0xc0a
 2896 0bf9 2D       		.uleb128 0x2d
 2897 0bfa CA040000 		.4byte	.LASF180
 2898 0bfe 01       		.byte	0x1
 2899 0bff 6602     		.2byte	0x266
 2900 0c01 0D080000 		.4byte	0x80d
 2901 0c05 39030000 		.4byte	.LLST24
 2902 0c09 00       		.byte	0x0
 2903 0c0a 23       		.uleb128 0x23
 2904 0c0b 01       		.byte	0x1
 2905 0c0c 00000000 		.4byte	.LASF194
 2906 0c10 01       		.byte	0x1
 2907 0c11 7702     		.2byte	0x277
 2908 0c13 01       		.byte	0x1
 2909 0c14 00000000 		.4byte	.LFB131
 2910 0c18 3A000000 		.4byte	.LFE131
 2911 0c1c 4C030000 		.4byte	.LLST25
 2912 0c20 510C0000 		.4byte	0xc51
 2913 0c24 2D       		.uleb128 0x2d
 2914 0c25 CA040000 		.4byte	.LASF180
 2915 0c29 01       		.byte	0x1
 2916 0c2a 7702     		.2byte	0x277
 2917 0c2c 0D080000 		.4byte	0x80d
 2918 0c30 6C030000 		.4byte	.LLST26
 2919 0c34 31       		.uleb128 0x31
 2920 0c35 6E00     		.ascii	"n\000"
 2921 0c37 01       		.byte	0x1
 2922 0c38 7702     		.2byte	0x277
 2923 0c3a 30000000 		.4byte	0x30
 2924 0c3e 01       		.byte	0x1
 2925 0c3f 51       		.byte	0x51
 2926 0c40 2D       		.uleb128 0x2d
 2927 0c41 24010000 		.4byte	.LASF169
 2928 0c45 01       		.byte	0x1
 2929 0c46 7702     		.2byte	0x277
 2930 0c48 B1000000 		.4byte	0xb1
 2931 0c4c 7F030000 		.4byte	.LLST27
 2932 0c50 00       		.byte	0x0
 2933 0c51 34       		.uleb128 0x34
 2934 0c52 01       		.byte	0x1
 2935 0c53 55010000 		.4byte	.LASF196
 2936 0c57 01       		.byte	0x1
 2937 0c58 8F02     		.2byte	0x28f
 2938 0c5a 01       		.byte	0x1
 2939 0c5b 30000000 		.4byte	0x30
ARM GAS  C:\Users\DNIEL~1\AppData\Local\Temp\cc4qdATB.s 			page 53


 2940 0c5f 00000000 		.4byte	.LFB132
 2941 0c63 2A000000 		.4byte	.LFE132
 2942 0c67 9E030000 		.4byte	.LLST28
 2943 0c6b 8C0C0000 		.4byte	0xc8c
 2944 0c6f 2D       		.uleb128 0x2d
 2945 0c70 CA040000 		.4byte	.LASF180
 2946 0c74 01       		.byte	0x1
 2947 0c75 8F02     		.2byte	0x28f
 2948 0c77 0D080000 		.4byte	0x80d
 2949 0c7b BE030000 		.4byte	.LLST29
 2950 0c7f 35       		.uleb128 0x35
 2951 0c80 6E00     		.ascii	"n\000"
 2952 0c82 01       		.byte	0x1
 2953 0c83 9002     		.2byte	0x290
 2954 0c85 30000000 		.4byte	0x30
 2955 0c89 01       		.byte	0x1
 2956 0c8a 54       		.byte	0x54
 2957 0c8b 00       		.byte	0x0
 2958 0c8c 36       		.uleb128 0x36
 2959 0c8d E0060000 		.4byte	.LASF197
 2960 0c91 09       		.byte	0x9
 2961 0c92 9806     		.2byte	0x698
 2962 0c94 0F030000 		.4byte	0x30f
 2963 0c98 01       		.byte	0x1
 2964 0c99 01       		.byte	0x1
 2965 0c9a 09       		.uleb128 0x9
 2966 0c9b 9D060000 		.4byte	0x69d
 2967 0c9f AA0C0000 		.4byte	0xcaa
 2968 0ca3 0A       		.uleb128 0xa
 2969 0ca4 3B000000 		.4byte	0x3b
 2970 0ca8 0F       		.byte	0xf
 2971 0ca9 00       		.byte	0x0
 2972 0caa 36       		.uleb128 0x36
 2973 0cab E1000000 		.4byte	.LASF198
 2974 0caf 06       		.byte	0x6
 2975 0cb0 BB01     		.2byte	0x1bb
 2976 0cb2 B80C0000 		.4byte	0xcb8
 2977 0cb6 01       		.byte	0x1
 2978 0cb7 01       		.byte	0x1
 2979 0cb8 16       		.uleb128 0x16
 2980 0cb9 9A0C0000 		.4byte	0xc9a
 2981 0cbd 36       		.uleb128 0x36
 2982 0cbe D0040000 		.4byte	.LASF199
 2983 0cc2 08       		.byte	0x8
 2984 0cc3 F801     		.2byte	0x1f8
 2985 0cc5 4E070000 		.4byte	0x74e
 2986 0cc9 01       		.byte	0x1
 2987 0cca 01       		.byte	0x1
 2988 0ccb 36       		.uleb128 0x36
 2989 0ccc E0060000 		.4byte	.LASF197
 2990 0cd0 09       		.byte	0x9
 2991 0cd1 9806     		.2byte	0x698
 2992 0cd3 0F030000 		.4byte	0x30f
 2993 0cd7 01       		.byte	0x1
 2994 0cd8 01       		.byte	0x1
 2995 0cd9 36       		.uleb128 0x36
 2996 0cda E1000000 		.4byte	.LASF198
ARM GAS  C:\Users\DNIEL~1\AppData\Local\Temp\cc4qdATB.s 			page 54


 2997 0cde 06       		.byte	0x6
 2998 0cdf BB01     		.2byte	0x1bb
 2999 0ce1 E70C0000 		.4byte	0xce7
 3000 0ce5 01       		.byte	0x1
 3001 0ce6 01       		.byte	0x1
 3002 0ce7 16       		.uleb128 0x16
 3003 0ce8 9A0C0000 		.4byte	0xc9a
 3004 0cec 37       		.uleb128 0x37
 3005 0ced D0040000 		.4byte	.LASF199
 3006 0cf1 01       		.byte	0x1
 3007 0cf2 5C       		.byte	0x5c
 3008 0cf3 4E070000 		.4byte	0x74e
 3009 0cf7 01       		.byte	0x1
 3010 0cf8 05       		.byte	0x5
 3011 0cf9 03       		.byte	0x3
 3012 0cfa 00000000 		.4byte	UARTD6
 3013 0cfe 00       		.byte	0x0
 3014              		.section	.debug_abbrev
 3015 0000 01       		.uleb128 0x1
 3016 0001 11       		.uleb128 0x11
 3017 0002 01       		.byte	0x1
 3018 0003 25       		.uleb128 0x25
 3019 0004 0E       		.uleb128 0xe
 3020 0005 13       		.uleb128 0x13
 3021 0006 0B       		.uleb128 0xb
 3022 0007 03       		.uleb128 0x3
 3023 0008 0E       		.uleb128 0xe
 3024 0009 1B       		.uleb128 0x1b
 3025 000a 0E       		.uleb128 0xe
 3026 000b 11       		.uleb128 0x11
 3027 000c 01       		.uleb128 0x1
 3028 000d 52       		.uleb128 0x52
 3029 000e 01       		.uleb128 0x1
 3030 000f 55       		.uleb128 0x55
 3031 0010 06       		.uleb128 0x6
 3032 0011 10       		.uleb128 0x10
 3033 0012 06       		.uleb128 0x6
 3034 0013 00       		.byte	0x0
 3035 0014 00       		.byte	0x0
 3036 0015 02       		.uleb128 0x2
 3037 0016 24       		.uleb128 0x24
 3038 0017 00       		.byte	0x0
 3039 0018 0B       		.uleb128 0xb
 3040 0019 0B       		.uleb128 0xb
 3041 001a 3E       		.uleb128 0x3e
 3042 001b 0B       		.uleb128 0xb
 3043 001c 03       		.uleb128 0x3
 3044 001d 08       		.uleb128 0x8
 3045 001e 00       		.byte	0x0
 3046 001f 00       		.byte	0x0
 3047 0020 03       		.uleb128 0x3
 3048 0021 16       		.uleb128 0x16
 3049 0022 00       		.byte	0x0
 3050 0023 03       		.uleb128 0x3
 3051 0024 0E       		.uleb128 0xe
 3052 0025 3A       		.uleb128 0x3a
 3053 0026 0B       		.uleb128 0xb
ARM GAS  C:\Users\DNIEL~1\AppData\Local\Temp\cc4qdATB.s 			page 55


 3054 0027 3B       		.uleb128 0x3b
 3055 0028 0B       		.uleb128 0xb
 3056 0029 49       		.uleb128 0x49
 3057 002a 13       		.uleb128 0x13
 3058 002b 00       		.byte	0x0
 3059 002c 00       		.byte	0x0
 3060 002d 04       		.uleb128 0x4
 3061 002e 24       		.uleb128 0x24
 3062 002f 00       		.byte	0x0
 3063 0030 0B       		.uleb128 0xb
 3064 0031 0B       		.uleb128 0xb
 3065 0032 3E       		.uleb128 0x3e
 3066 0033 0B       		.uleb128 0xb
 3067 0034 03       		.uleb128 0x3
 3068 0035 0E       		.uleb128 0xe
 3069 0036 00       		.byte	0x0
 3070 0037 00       		.byte	0x0
 3071 0038 05       		.uleb128 0x5
 3072 0039 0F       		.uleb128 0xf
 3073 003a 00       		.byte	0x0
 3074 003b 0B       		.uleb128 0xb
 3075 003c 0B       		.uleb128 0xb
 3076 003d 00       		.byte	0x0
 3077 003e 00       		.byte	0x0
 3078 003f 06       		.uleb128 0x6
 3079 0040 35       		.uleb128 0x35
 3080 0041 00       		.byte	0x0
 3081 0042 49       		.uleb128 0x49
 3082 0043 13       		.uleb128 0x13
 3083 0044 00       		.byte	0x0
 3084 0045 00       		.byte	0x0
 3085 0046 07       		.uleb128 0x7
 3086 0047 04       		.uleb128 0x4
 3087 0048 01       		.byte	0x1
 3088 0049 03       		.uleb128 0x3
 3089 004a 0E       		.uleb128 0xe
 3090 004b 0B       		.uleb128 0xb
 3091 004c 0B       		.uleb128 0xb
 3092 004d 3A       		.uleb128 0x3a
 3093 004e 0B       		.uleb128 0xb
 3094 004f 3B       		.uleb128 0x3b
 3095 0050 0B       		.uleb128 0xb
 3096 0051 01       		.uleb128 0x1
 3097 0052 13       		.uleb128 0x13
 3098 0053 00       		.byte	0x0
 3099 0054 00       		.byte	0x0
 3100 0055 08       		.uleb128 0x8
 3101 0056 28       		.uleb128 0x28
 3102 0057 00       		.byte	0x0
 3103 0058 03       		.uleb128 0x3
 3104 0059 0E       		.uleb128 0xe
 3105 005a 1C       		.uleb128 0x1c
 3106 005b 0D       		.uleb128 0xd
 3107 005c 00       		.byte	0x0
 3108 005d 00       		.byte	0x0
 3109 005e 09       		.uleb128 0x9
 3110 005f 01       		.uleb128 0x1
ARM GAS  C:\Users\DNIEL~1\AppData\Local\Temp\cc4qdATB.s 			page 56


 3111 0060 01       		.byte	0x1
 3112 0061 49       		.uleb128 0x49
 3113 0062 13       		.uleb128 0x13
 3114 0063 01       		.uleb128 0x1
 3115 0064 13       		.uleb128 0x13
 3116 0065 00       		.byte	0x0
 3117 0066 00       		.byte	0x0
 3118 0067 0A       		.uleb128 0xa
 3119 0068 21       		.uleb128 0x21
 3120 0069 00       		.byte	0x0
 3121 006a 49       		.uleb128 0x49
 3122 006b 13       		.uleb128 0x13
 3123 006c 2F       		.uleb128 0x2f
 3124 006d 0B       		.uleb128 0xb
 3125 006e 00       		.byte	0x0
 3126 006f 00       		.byte	0x0
 3127 0070 0B       		.uleb128 0xb
 3128 0071 13       		.uleb128 0x13
 3129 0072 01       		.byte	0x1
 3130 0073 0B       		.uleb128 0xb
 3131 0074 0B       		.uleb128 0xb
 3132 0075 3A       		.uleb128 0x3a
 3133 0076 0B       		.uleb128 0xb
 3134 0077 3B       		.uleb128 0x3b
 3135 0078 05       		.uleb128 0x5
 3136 0079 01       		.uleb128 0x1
 3137 007a 13       		.uleb128 0x13
 3138 007b 00       		.byte	0x0
 3139 007c 00       		.byte	0x0
 3140 007d 0C       		.uleb128 0xc
 3141 007e 0D       		.uleb128 0xd
 3142 007f 00       		.byte	0x0
 3143 0080 03       		.uleb128 0x3
 3144 0081 08       		.uleb128 0x8
 3145 0082 3A       		.uleb128 0x3a
 3146 0083 0B       		.uleb128 0xb
 3147 0084 3B       		.uleb128 0x3b
 3148 0085 05       		.uleb128 0x5
 3149 0086 49       		.uleb128 0x49
 3150 0087 13       		.uleb128 0x13
 3151 0088 38       		.uleb128 0x38
 3152 0089 0A       		.uleb128 0xa
 3153 008a 00       		.byte	0x0
 3154 008b 00       		.byte	0x0
 3155 008c 0D       		.uleb128 0xd
 3156 008d 0D       		.uleb128 0xd
 3157 008e 00       		.byte	0x0
 3158 008f 03       		.uleb128 0x3
 3159 0090 0E       		.uleb128 0xe
 3160 0091 3A       		.uleb128 0x3a
 3161 0092 0B       		.uleb128 0xb
 3162 0093 3B       		.uleb128 0x3b
 3163 0094 05       		.uleb128 0x5
 3164 0095 49       		.uleb128 0x49
 3165 0096 13       		.uleb128 0x13
 3166 0097 38       		.uleb128 0x38
 3167 0098 0A       		.uleb128 0xa
ARM GAS  C:\Users\DNIEL~1\AppData\Local\Temp\cc4qdATB.s 			page 57


 3168 0099 00       		.byte	0x0
 3169 009a 00       		.byte	0x0
 3170 009b 0E       		.uleb128 0xe
 3171 009c 16       		.uleb128 0x16
 3172 009d 00       		.byte	0x0
 3173 009e 03       		.uleb128 0x3
 3174 009f 0E       		.uleb128 0xe
 3175 00a0 3A       		.uleb128 0x3a
 3176 00a1 0B       		.uleb128 0xb
 3177 00a2 3B       		.uleb128 0x3b
 3178 00a3 05       		.uleb128 0x5
 3179 00a4 49       		.uleb128 0x49
 3180 00a5 13       		.uleb128 0x13
 3181 00a6 00       		.byte	0x0
 3182 00a7 00       		.byte	0x0
 3183 00a8 0F       		.uleb128 0xf
 3184 00a9 13       		.uleb128 0x13
 3185 00aa 01       		.byte	0x1
 3186 00ab 0B       		.uleb128 0xb
 3187 00ac 0B       		.uleb128 0xb
 3188 00ad 3A       		.uleb128 0x3a
 3189 00ae 0B       		.uleb128 0xb
 3190 00af 3B       		.uleb128 0x3b
 3191 00b0 0B       		.uleb128 0xb
 3192 00b1 01       		.uleb128 0x1
 3193 00b2 13       		.uleb128 0x13
 3194 00b3 00       		.byte	0x0
 3195 00b4 00       		.byte	0x0
 3196 00b5 10       		.uleb128 0x10
 3197 00b6 0D       		.uleb128 0xd
 3198 00b7 00       		.byte	0x0
 3199 00b8 03       		.uleb128 0x3
 3200 00b9 0E       		.uleb128 0xe
 3201 00ba 3A       		.uleb128 0x3a
 3202 00bb 0B       		.uleb128 0xb
 3203 00bc 3B       		.uleb128 0x3b
 3204 00bd 0B       		.uleb128 0xb
 3205 00be 49       		.uleb128 0x49
 3206 00bf 13       		.uleb128 0x13
 3207 00c0 38       		.uleb128 0x38
 3208 00c1 0A       		.uleb128 0xa
 3209 00c2 00       		.byte	0x0
 3210 00c3 00       		.byte	0x0
 3211 00c4 11       		.uleb128 0x11
 3212 00c5 0F       		.uleb128 0xf
 3213 00c6 00       		.byte	0x0
 3214 00c7 0B       		.uleb128 0xb
 3215 00c8 0B       		.uleb128 0xb
 3216 00c9 49       		.uleb128 0x49
 3217 00ca 13       		.uleb128 0x13
 3218 00cb 00       		.byte	0x0
 3219 00cc 00       		.byte	0x0
 3220 00cd 12       		.uleb128 0x12
 3221 00ce 15       		.uleb128 0x15
 3222 00cf 01       		.byte	0x1
 3223 00d0 27       		.uleb128 0x27
 3224 00d1 0C       		.uleb128 0xc
ARM GAS  C:\Users\DNIEL~1\AppData\Local\Temp\cc4qdATB.s 			page 58


 3225 00d2 01       		.uleb128 0x1
 3226 00d3 13       		.uleb128 0x13
 3227 00d4 00       		.byte	0x0
 3228 00d5 00       		.byte	0x0
 3229 00d6 13       		.uleb128 0x13
 3230 00d7 05       		.uleb128 0x5
 3231 00d8 00       		.byte	0x0
 3232 00d9 49       		.uleb128 0x49
 3233 00da 13       		.uleb128 0x13
 3234 00db 00       		.byte	0x0
 3235 00dc 00       		.byte	0x0
 3236 00dd 14       		.uleb128 0x14
 3237 00de 04       		.uleb128 0x4
 3238 00df 01       		.byte	0x1
 3239 00e0 0B       		.uleb128 0xb
 3240 00e1 0B       		.uleb128 0xb
 3241 00e2 3A       		.uleb128 0x3a
 3242 00e3 0B       		.uleb128 0xb
 3243 00e4 3B       		.uleb128 0x3b
 3244 00e5 0B       		.uleb128 0xb
 3245 00e6 01       		.uleb128 0x1
 3246 00e7 13       		.uleb128 0x13
 3247 00e8 00       		.byte	0x0
 3248 00e9 00       		.byte	0x0
 3249 00ea 15       		.uleb128 0x15
 3250 00eb 13       		.uleb128 0x13
 3251 00ec 01       		.byte	0x1
 3252 00ed 03       		.uleb128 0x3
 3253 00ee 0E       		.uleb128 0xe
 3254 00ef 0B       		.uleb128 0xb
 3255 00f0 0B       		.uleb128 0xb
 3256 00f1 3A       		.uleb128 0x3a
 3257 00f2 0B       		.uleb128 0xb
 3258 00f3 3B       		.uleb128 0x3b
 3259 00f4 05       		.uleb128 0x5
 3260 00f5 01       		.uleb128 0x1
 3261 00f6 13       		.uleb128 0x13
 3262 00f7 00       		.byte	0x0
 3263 00f8 00       		.byte	0x0
 3264 00f9 16       		.uleb128 0x16
 3265 00fa 26       		.uleb128 0x26
 3266 00fb 00       		.byte	0x0
 3267 00fc 49       		.uleb128 0x49
 3268 00fd 13       		.uleb128 0x13
 3269 00fe 00       		.byte	0x0
 3270 00ff 00       		.byte	0x0
 3271 0100 17       		.uleb128 0x17
 3272 0101 2E       		.uleb128 0x2e
 3273 0102 01       		.byte	0x1
 3274 0103 03       		.uleb128 0x3
 3275 0104 0E       		.uleb128 0xe
 3276 0105 3A       		.uleb128 0x3a
 3277 0106 0B       		.uleb128 0xb
 3278 0107 3B       		.uleb128 0x3b
 3279 0108 0B       		.uleb128 0xb
 3280 0109 27       		.uleb128 0x27
 3281 010a 0C       		.uleb128 0xc
ARM GAS  C:\Users\DNIEL~1\AppData\Local\Temp\cc4qdATB.s 			page 59


 3282 010b 49       		.uleb128 0x49
 3283 010c 13       		.uleb128 0x13
 3284 010d 20       		.uleb128 0x20
 3285 010e 0B       		.uleb128 0xb
 3286 010f 01       		.uleb128 0x1
 3287 0110 13       		.uleb128 0x13
 3288 0111 00       		.byte	0x0
 3289 0112 00       		.byte	0x0
 3290 0113 18       		.uleb128 0x18
 3291 0114 05       		.uleb128 0x5
 3292 0115 00       		.byte	0x0
 3293 0116 03       		.uleb128 0x3
 3294 0117 08       		.uleb128 0x8
 3295 0118 3A       		.uleb128 0x3a
 3296 0119 0B       		.uleb128 0xb
 3297 011a 3B       		.uleb128 0x3b
 3298 011b 0B       		.uleb128 0xb
 3299 011c 49       		.uleb128 0x49
 3300 011d 13       		.uleb128 0x13
 3301 011e 00       		.byte	0x0
 3302 011f 00       		.byte	0x0
 3303 0120 19       		.uleb128 0x19
 3304 0121 34       		.uleb128 0x34
 3305 0122 00       		.byte	0x0
 3306 0123 03       		.uleb128 0x3
 3307 0124 08       		.uleb128 0x8
 3308 0125 3A       		.uleb128 0x3a
 3309 0126 0B       		.uleb128 0xb
 3310 0127 3B       		.uleb128 0x3b
 3311 0128 0B       		.uleb128 0xb
 3312 0129 49       		.uleb128 0x49
 3313 012a 13       		.uleb128 0x13
 3314 012b 00       		.byte	0x0
 3315 012c 00       		.byte	0x0
 3316 012d 1A       		.uleb128 0x1a
 3317 012e 2E       		.uleb128 0x2e
 3318 012f 01       		.byte	0x1
 3319 0130 03       		.uleb128 0x3
 3320 0131 0E       		.uleb128 0xe
 3321 0132 3A       		.uleb128 0x3a
 3322 0133 0B       		.uleb128 0xb
 3323 0134 3B       		.uleb128 0x3b
 3324 0135 05       		.uleb128 0x5
 3325 0136 27       		.uleb128 0x27
 3326 0137 0C       		.uleb128 0xc
 3327 0138 20       		.uleb128 0x20
 3328 0139 0B       		.uleb128 0xb
 3329 013a 01       		.uleb128 0x1
 3330 013b 13       		.uleb128 0x13
 3331 013c 00       		.byte	0x0
 3332 013d 00       		.byte	0x0
 3333 013e 1B       		.uleb128 0x1b
 3334 013f 05       		.uleb128 0x5
 3335 0140 00       		.byte	0x0
 3336 0141 03       		.uleb128 0x3
 3337 0142 0E       		.uleb128 0xe
 3338 0143 3A       		.uleb128 0x3a
ARM GAS  C:\Users\DNIEL~1\AppData\Local\Temp\cc4qdATB.s 			page 60


 3339 0144 0B       		.uleb128 0xb
 3340 0145 3B       		.uleb128 0x3b
 3341 0146 05       		.uleb128 0x5
 3342 0147 49       		.uleb128 0x49
 3343 0148 13       		.uleb128 0x13
 3344 0149 00       		.byte	0x0
 3345 014a 00       		.byte	0x0
 3346 014b 1C       		.uleb128 0x1c
 3347 014c 34       		.uleb128 0x34
 3348 014d 00       		.byte	0x0
 3349 014e 03       		.uleb128 0x3
 3350 014f 08       		.uleb128 0x8
 3351 0150 3A       		.uleb128 0x3a
 3352 0151 0B       		.uleb128 0xb
 3353 0152 3B       		.uleb128 0x3b
 3354 0153 05       		.uleb128 0x5
 3355 0154 49       		.uleb128 0x49
 3356 0155 13       		.uleb128 0x13
 3357 0156 00       		.byte	0x0
 3358 0157 00       		.byte	0x0
 3359 0158 1D       		.uleb128 0x1d
 3360 0159 2E       		.uleb128 0x2e
 3361 015a 01       		.byte	0x1
 3362 015b 03       		.uleb128 0x3
 3363 015c 0E       		.uleb128 0xe
 3364 015d 3A       		.uleb128 0x3a
 3365 015e 0B       		.uleb128 0xb
 3366 015f 3B       		.uleb128 0x3b
 3367 0160 0B       		.uleb128 0xb
 3368 0161 27       		.uleb128 0x27
 3369 0162 0C       		.uleb128 0xc
 3370 0163 20       		.uleb128 0x20
 3371 0164 0B       		.uleb128 0xb
 3372 0165 01       		.uleb128 0x1
 3373 0166 13       		.uleb128 0x13
 3374 0167 00       		.byte	0x0
 3375 0168 00       		.byte	0x0
 3376 0169 1E       		.uleb128 0x1e
 3377 016a 05       		.uleb128 0x5
 3378 016b 00       		.byte	0x0
 3379 016c 03       		.uleb128 0x3
 3380 016d 0E       		.uleb128 0xe
 3381 016e 3A       		.uleb128 0x3a
 3382 016f 0B       		.uleb128 0xb
 3383 0170 3B       		.uleb128 0x3b
 3384 0171 0B       		.uleb128 0xb
 3385 0172 49       		.uleb128 0x49
 3386 0173 13       		.uleb128 0x13
 3387 0174 00       		.byte	0x0
 3388 0175 00       		.byte	0x0
 3389 0176 1F       		.uleb128 0x1f
 3390 0177 2E       		.uleb128 0x2e
 3391 0178 01       		.byte	0x1
 3392 0179 03       		.uleb128 0x3
 3393 017a 0E       		.uleb128 0xe
 3394 017b 3A       		.uleb128 0x3a
 3395 017c 0B       		.uleb128 0xb
ARM GAS  C:\Users\DNIEL~1\AppData\Local\Temp\cc4qdATB.s 			page 61


 3396 017d 3B       		.uleb128 0x3b
 3397 017e 0B       		.uleb128 0xb
 3398 017f 27       		.uleb128 0x27
 3399 0180 0C       		.uleb128 0xc
 3400 0181 11       		.uleb128 0x11
 3401 0182 01       		.uleb128 0x1
 3402 0183 12       		.uleb128 0x12
 3403 0184 01       		.uleb128 0x1
 3404 0185 40       		.uleb128 0x40
 3405 0186 0A       		.uleb128 0xa
 3406 0187 01       		.uleb128 0x1
 3407 0188 13       		.uleb128 0x13
 3408 0189 00       		.byte	0x0
 3409 018a 00       		.byte	0x0
 3410 018b 20       		.uleb128 0x20
 3411 018c 05       		.uleb128 0x5
 3412 018d 00       		.byte	0x0
 3413 018e 03       		.uleb128 0x3
 3414 018f 0E       		.uleb128 0xe
 3415 0190 3A       		.uleb128 0x3a
 3416 0191 0B       		.uleb128 0xb
 3417 0192 3B       		.uleb128 0x3b
 3418 0193 0B       		.uleb128 0xb
 3419 0194 49       		.uleb128 0x49
 3420 0195 13       		.uleb128 0x13
 3421 0196 02       		.uleb128 0x2
 3422 0197 06       		.uleb128 0x6
 3423 0198 00       		.byte	0x0
 3424 0199 00       		.byte	0x0
 3425 019a 21       		.uleb128 0x21
 3426 019b 34       		.uleb128 0x34
 3427 019c 00       		.byte	0x0
 3428 019d 03       		.uleb128 0x3
 3429 019e 0E       		.uleb128 0xe
 3430 019f 3A       		.uleb128 0x3a
 3431 01a0 0B       		.uleb128 0xb
 3432 01a1 3B       		.uleb128 0x3b
 3433 01a2 0B       		.uleb128 0xb
 3434 01a3 49       		.uleb128 0x49
 3435 01a4 13       		.uleb128 0x13
 3436 01a5 02       		.uleb128 0x2
 3437 01a6 0A       		.uleb128 0xa
 3438 01a7 00       		.byte	0x0
 3439 01a8 00       		.byte	0x0
 3440 01a9 22       		.uleb128 0x22
 3441 01aa 2E       		.uleb128 0x2e
 3442 01ab 01       		.byte	0x1
 3443 01ac 03       		.uleb128 0x3
 3444 01ad 0E       		.uleb128 0xe
 3445 01ae 3A       		.uleb128 0x3a
 3446 01af 0B       		.uleb128 0xb
 3447 01b0 3B       		.uleb128 0x3b
 3448 01b1 0B       		.uleb128 0xb
 3449 01b2 27       		.uleb128 0x27
 3450 01b3 0C       		.uleb128 0xc
 3451 01b4 11       		.uleb128 0x11
 3452 01b5 01       		.uleb128 0x1
ARM GAS  C:\Users\DNIEL~1\AppData\Local\Temp\cc4qdATB.s 			page 62


 3453 01b6 12       		.uleb128 0x12
 3454 01b7 01       		.uleb128 0x1
 3455 01b8 40       		.uleb128 0x40
 3456 01b9 06       		.uleb128 0x6
 3457 01ba 01       		.uleb128 0x1
 3458 01bb 13       		.uleb128 0x13
 3459 01bc 00       		.byte	0x0
 3460 01bd 00       		.byte	0x0
 3461 01be 23       		.uleb128 0x23
 3462 01bf 2E       		.uleb128 0x2e
 3463 01c0 01       		.byte	0x1
 3464 01c1 3F       		.uleb128 0x3f
 3465 01c2 0C       		.uleb128 0xc
 3466 01c3 03       		.uleb128 0x3
 3467 01c4 0E       		.uleb128 0xe
 3468 01c5 3A       		.uleb128 0x3a
 3469 01c6 0B       		.uleb128 0xb
 3470 01c7 3B       		.uleb128 0x3b
 3471 01c8 05       		.uleb128 0x5
 3472 01c9 27       		.uleb128 0x27
 3473 01ca 0C       		.uleb128 0xc
 3474 01cb 11       		.uleb128 0x11
 3475 01cc 01       		.uleb128 0x1
 3476 01cd 12       		.uleb128 0x12
 3477 01ce 01       		.uleb128 0x1
 3478 01cf 40       		.uleb128 0x40
 3479 01d0 06       		.uleb128 0x6
 3480 01d1 01       		.uleb128 0x1
 3481 01d2 13       		.uleb128 0x13
 3482 01d3 00       		.byte	0x0
 3483 01d4 00       		.byte	0x0
 3484 01d5 24       		.uleb128 0x24
 3485 01d6 1D       		.uleb128 0x1d
 3486 01d7 01       		.byte	0x1
 3487 01d8 31       		.uleb128 0x31
 3488 01d9 13       		.uleb128 0x13
 3489 01da 52       		.uleb128 0x52
 3490 01db 01       		.uleb128 0x1
 3491 01dc 55       		.uleb128 0x55
 3492 01dd 06       		.uleb128 0x6
 3493 01de 58       		.uleb128 0x58
 3494 01df 0B       		.uleb128 0xb
 3495 01e0 59       		.uleb128 0x59
 3496 01e1 05       		.uleb128 0x5
 3497 01e2 00       		.byte	0x0
 3498 01e3 00       		.byte	0x0
 3499 01e4 25       		.uleb128 0x25
 3500 01e5 05       		.uleb128 0x5
 3501 01e6 00       		.byte	0x0
 3502 01e7 31       		.uleb128 0x31
 3503 01e8 13       		.uleb128 0x13
 3504 01e9 02       		.uleb128 0x2
 3505 01ea 0A       		.uleb128 0xa
 3506 01eb 00       		.byte	0x0
 3507 01ec 00       		.byte	0x0
 3508 01ed 26       		.uleb128 0x26
 3509 01ee 0B       		.uleb128 0xb
ARM GAS  C:\Users\DNIEL~1\AppData\Local\Temp\cc4qdATB.s 			page 63


 3510 01ef 01       		.byte	0x1
 3511 01f0 55       		.uleb128 0x55
 3512 01f1 06       		.uleb128 0x6
 3513 01f2 00       		.byte	0x0
 3514 01f3 00       		.byte	0x0
 3515 01f4 27       		.uleb128 0x27
 3516 01f5 34       		.uleb128 0x34
 3517 01f6 00       		.byte	0x0
 3518 01f7 31       		.uleb128 0x31
 3519 01f8 13       		.uleb128 0x13
 3520 01f9 02       		.uleb128 0x2
 3521 01fa 0A       		.uleb128 0xa
 3522 01fb 00       		.byte	0x0
 3523 01fc 00       		.byte	0x0
 3524 01fd 28       		.uleb128 0x28
 3525 01fe 34       		.uleb128 0x34
 3526 01ff 00       		.byte	0x0
 3527 0200 31       		.uleb128 0x31
 3528 0201 13       		.uleb128 0x13
 3529 0202 02       		.uleb128 0x2
 3530 0203 06       		.uleb128 0x6
 3531 0204 00       		.byte	0x0
 3532 0205 00       		.byte	0x0
 3533 0206 29       		.uleb128 0x29
 3534 0207 1D       		.uleb128 0x1d
 3535 0208 01       		.byte	0x1
 3536 0209 31       		.uleb128 0x31
 3537 020a 13       		.uleb128 0x13
 3538 020b 11       		.uleb128 0x11
 3539 020c 01       		.uleb128 0x1
 3540 020d 12       		.uleb128 0x12
 3541 020e 01       		.uleb128 0x1
 3542 020f 58       		.uleb128 0x58
 3543 0210 0B       		.uleb128 0xb
 3544 0211 59       		.uleb128 0x59
 3545 0212 05       		.uleb128 0x5
 3546 0213 00       		.byte	0x0
 3547 0214 00       		.byte	0x0
 3548 0215 2A       		.uleb128 0x2a
 3549 0216 05       		.uleb128 0x5
 3550 0217 00       		.byte	0x0
 3551 0218 31       		.uleb128 0x31
 3552 0219 13       		.uleb128 0x13
 3553 021a 02       		.uleb128 0x2
 3554 021b 06       		.uleb128 0x6
 3555 021c 00       		.byte	0x0
 3556 021d 00       		.byte	0x0
 3557 021e 2B       		.uleb128 0x2b
 3558 021f 0B       		.uleb128 0xb
 3559 0220 01       		.byte	0x1
 3560 0221 11       		.uleb128 0x11
 3561 0222 01       		.uleb128 0x1
 3562 0223 12       		.uleb128 0x12
 3563 0224 01       		.uleb128 0x1
 3564 0225 00       		.byte	0x0
 3565 0226 00       		.byte	0x0
 3566 0227 2C       		.uleb128 0x2c
ARM GAS  C:\Users\DNIEL~1\AppData\Local\Temp\cc4qdATB.s 			page 64


 3567 0228 2E       		.uleb128 0x2e
 3568 0229 00       		.byte	0x0
 3569 022a 3F       		.uleb128 0x3f
 3570 022b 0C       		.uleb128 0xc
 3571 022c 03       		.uleb128 0x3
 3572 022d 0E       		.uleb128 0xe
 3573 022e 3A       		.uleb128 0x3a
 3574 022f 0B       		.uleb128 0xb
 3575 0230 3B       		.uleb128 0x3b
 3576 0231 05       		.uleb128 0x5
 3577 0232 27       		.uleb128 0x27
 3578 0233 0C       		.uleb128 0xc
 3579 0234 11       		.uleb128 0x11
 3580 0235 01       		.uleb128 0x1
 3581 0236 12       		.uleb128 0x12
 3582 0237 01       		.uleb128 0x1
 3583 0238 40       		.uleb128 0x40
 3584 0239 06       		.uleb128 0x6
 3585 023a 00       		.byte	0x0
 3586 023b 00       		.byte	0x0
 3587 023c 2D       		.uleb128 0x2d
 3588 023d 05       		.uleb128 0x5
 3589 023e 00       		.byte	0x0
 3590 023f 03       		.uleb128 0x3
 3591 0240 0E       		.uleb128 0xe
 3592 0241 3A       		.uleb128 0x3a
 3593 0242 0B       		.uleb128 0xb
 3594 0243 3B       		.uleb128 0x3b
 3595 0244 05       		.uleb128 0x5
 3596 0245 49       		.uleb128 0x49
 3597 0246 13       		.uleb128 0x13
 3598 0247 02       		.uleb128 0x2
 3599 0248 06       		.uleb128 0x6
 3600 0249 00       		.byte	0x0
 3601 024a 00       		.byte	0x0
 3602 024b 2E       		.uleb128 0x2e
 3603 024c 1D       		.uleb128 0x1d
 3604 024d 01       		.byte	0x1
 3605 024e 31       		.uleb128 0x31
 3606 024f 13       		.uleb128 0x13
 3607 0250 52       		.uleb128 0x52
 3608 0251 01       		.uleb128 0x1
 3609 0252 55       		.uleb128 0x55
 3610 0253 06       		.uleb128 0x6
 3611 0254 58       		.uleb128 0x58
 3612 0255 0B       		.uleb128 0xb
 3613 0256 59       		.uleb128 0x59
 3614 0257 05       		.uleb128 0x5
 3615 0258 01       		.uleb128 0x1
 3616 0259 13       		.uleb128 0x13
 3617 025a 00       		.byte	0x0
 3618 025b 00       		.byte	0x0
 3619 025c 2F       		.uleb128 0x2f
 3620 025d 34       		.uleb128 0x34
 3621 025e 00       		.byte	0x0
 3622 025f 03       		.uleb128 0x3
 3623 0260 08       		.uleb128 0x8
ARM GAS  C:\Users\DNIEL~1\AppData\Local\Temp\cc4qdATB.s 			page 65


 3624 0261 3A       		.uleb128 0x3a
 3625 0262 0B       		.uleb128 0xb
 3626 0263 3B       		.uleb128 0x3b
 3627 0264 05       		.uleb128 0x5
 3628 0265 49       		.uleb128 0x49
 3629 0266 13       		.uleb128 0x13
 3630 0267 02       		.uleb128 0x2
 3631 0268 06       		.uleb128 0x6
 3632 0269 00       		.byte	0x0
 3633 026a 00       		.byte	0x0
 3634 026b 30       		.uleb128 0x30
 3635 026c 2E       		.uleb128 0x2e
 3636 026d 01       		.byte	0x1
 3637 026e 3F       		.uleb128 0x3f
 3638 026f 0C       		.uleb128 0xc
 3639 0270 03       		.uleb128 0x3
 3640 0271 0E       		.uleb128 0xe
 3641 0272 3A       		.uleb128 0x3a
 3642 0273 0B       		.uleb128 0xb
 3643 0274 3B       		.uleb128 0x3b
 3644 0275 05       		.uleb128 0x5
 3645 0276 27       		.uleb128 0x27
 3646 0277 0C       		.uleb128 0xc
 3647 0278 11       		.uleb128 0x11
 3648 0279 01       		.uleb128 0x1
 3649 027a 12       		.uleb128 0x12
 3650 027b 01       		.uleb128 0x1
 3651 027c 40       		.uleb128 0x40
 3652 027d 0A       		.uleb128 0xa
 3653 027e 01       		.uleb128 0x1
 3654 027f 13       		.uleb128 0x13
 3655 0280 00       		.byte	0x0
 3656 0281 00       		.byte	0x0
 3657 0282 31       		.uleb128 0x31
 3658 0283 05       		.uleb128 0x5
 3659 0284 00       		.byte	0x0
 3660 0285 03       		.uleb128 0x3
 3661 0286 08       		.uleb128 0x8
 3662 0287 3A       		.uleb128 0x3a
 3663 0288 0B       		.uleb128 0xb
 3664 0289 3B       		.uleb128 0x3b
 3665 028a 05       		.uleb128 0x5
 3666 028b 49       		.uleb128 0x49
 3667 028c 13       		.uleb128 0x13
 3668 028d 02       		.uleb128 0x2
 3669 028e 0A       		.uleb128 0xa
 3670 028f 00       		.byte	0x0
 3671 0290 00       		.byte	0x0
 3672 0291 32       		.uleb128 0x32
 3673 0292 26       		.uleb128 0x26
 3674 0293 00       		.byte	0x0
 3675 0294 00       		.byte	0x0
 3676 0295 00       		.byte	0x0
 3677 0296 33       		.uleb128 0x33
 3678 0297 2E       		.uleb128 0x2e
 3679 0298 01       		.byte	0x1
 3680 0299 3F       		.uleb128 0x3f
ARM GAS  C:\Users\DNIEL~1\AppData\Local\Temp\cc4qdATB.s 			page 66


 3681 029a 0C       		.uleb128 0xc
 3682 029b 03       		.uleb128 0x3
 3683 029c 0E       		.uleb128 0xe
 3684 029d 3A       		.uleb128 0x3a
 3685 029e 0B       		.uleb128 0xb
 3686 029f 3B       		.uleb128 0x3b
 3687 02a0 05       		.uleb128 0x5
 3688 02a1 27       		.uleb128 0x27
 3689 02a2 0C       		.uleb128 0xc
 3690 02a3 49       		.uleb128 0x49
 3691 02a4 13       		.uleb128 0x13
 3692 02a5 11       		.uleb128 0x11
 3693 02a6 01       		.uleb128 0x1
 3694 02a7 12       		.uleb128 0x12
 3695 02a8 01       		.uleb128 0x1
 3696 02a9 40       		.uleb128 0x40
 3697 02aa 0A       		.uleb128 0xa
 3698 02ab 01       		.uleb128 0x1
 3699 02ac 13       		.uleb128 0x13
 3700 02ad 00       		.byte	0x0
 3701 02ae 00       		.byte	0x0
 3702 02af 34       		.uleb128 0x34
 3703 02b0 2E       		.uleb128 0x2e
 3704 02b1 01       		.byte	0x1
 3705 02b2 3F       		.uleb128 0x3f
 3706 02b3 0C       		.uleb128 0xc
 3707 02b4 03       		.uleb128 0x3
 3708 02b5 0E       		.uleb128 0xe
 3709 02b6 3A       		.uleb128 0x3a
 3710 02b7 0B       		.uleb128 0xb
 3711 02b8 3B       		.uleb128 0x3b
 3712 02b9 05       		.uleb128 0x5
 3713 02ba 27       		.uleb128 0x27
 3714 02bb 0C       		.uleb128 0xc
 3715 02bc 49       		.uleb128 0x49
 3716 02bd 13       		.uleb128 0x13
 3717 02be 11       		.uleb128 0x11
 3718 02bf 01       		.uleb128 0x1
 3719 02c0 12       		.uleb128 0x12
 3720 02c1 01       		.uleb128 0x1
 3721 02c2 40       		.uleb128 0x40
 3722 02c3 06       		.uleb128 0x6
 3723 02c4 01       		.uleb128 0x1
 3724 02c5 13       		.uleb128 0x13
 3725 02c6 00       		.byte	0x0
 3726 02c7 00       		.byte	0x0
 3727 02c8 35       		.uleb128 0x35
 3728 02c9 34       		.uleb128 0x34
 3729 02ca 00       		.byte	0x0
 3730 02cb 03       		.uleb128 0x3
 3731 02cc 08       		.uleb128 0x8
 3732 02cd 3A       		.uleb128 0x3a
 3733 02ce 0B       		.uleb128 0xb
 3734 02cf 3B       		.uleb128 0x3b
 3735 02d0 05       		.uleb128 0x5
 3736 02d1 49       		.uleb128 0x49
 3737 02d2 13       		.uleb128 0x13
ARM GAS  C:\Users\DNIEL~1\AppData\Local\Temp\cc4qdATB.s 			page 67


 3738 02d3 02       		.uleb128 0x2
 3739 02d4 0A       		.uleb128 0xa
 3740 02d5 00       		.byte	0x0
 3741 02d6 00       		.byte	0x0
 3742 02d7 36       		.uleb128 0x36
 3743 02d8 34       		.uleb128 0x34
 3744 02d9 00       		.byte	0x0
 3745 02da 03       		.uleb128 0x3
 3746 02db 0E       		.uleb128 0xe
 3747 02dc 3A       		.uleb128 0x3a
 3748 02dd 0B       		.uleb128 0xb
 3749 02de 3B       		.uleb128 0x3b
 3750 02df 05       		.uleb128 0x5
 3751 02e0 49       		.uleb128 0x49
 3752 02e1 13       		.uleb128 0x13
 3753 02e2 3F       		.uleb128 0x3f
 3754 02e3 0C       		.uleb128 0xc
 3755 02e4 3C       		.uleb128 0x3c
 3756 02e5 0C       		.uleb128 0xc
 3757 02e6 00       		.byte	0x0
 3758 02e7 00       		.byte	0x0
 3759 02e8 37       		.uleb128 0x37
 3760 02e9 34       		.uleb128 0x34
 3761 02ea 00       		.byte	0x0
 3762 02eb 03       		.uleb128 0x3
 3763 02ec 0E       		.uleb128 0xe
 3764 02ed 3A       		.uleb128 0x3a
 3765 02ee 0B       		.uleb128 0xb
 3766 02ef 3B       		.uleb128 0x3b
 3767 02f0 0B       		.uleb128 0xb
 3768 02f1 49       		.uleb128 0x49
 3769 02f2 13       		.uleb128 0x13
 3770 02f3 3F       		.uleb128 0x3f
 3771 02f4 0C       		.uleb128 0xc
 3772 02f5 02       		.uleb128 0x2
 3773 02f6 0A       		.uleb128 0xa
 3774 02f7 00       		.byte	0x0
 3775 02f8 00       		.byte	0x0
 3776 02f9 00       		.byte	0x0
 3777              		.section	.debug_pubnames,"",%progbits
 3778 0000 C2000000 		.4byte	0xc2
 3779 0004 0200     		.2byte	0x2
 3780 0006 00000000 		.4byte	.Ldebug_info0
 3781 000a FF0C0000 		.4byte	0xcff
 3782 000e 5A0A0000 		.4byte	0xa5a
 3783 0012 56656374 		.ascii	"Vector15C\000"
 3783      6F723135 
 3783      4300
 3784 001c D50A0000 		.4byte	0xad5
 3785 0020 75617274 		.ascii	"uart_lld_init\000"
 3785      5F6C6C64 
 3785      5F696E69 
 3785      7400
 3786 002e EB0A0000 		.4byte	0xaeb
 3787 0032 75617274 		.ascii	"uart_lld_start\000"
 3787      5F6C6C64 
 3787      5F737461 
ARM GAS  C:\Users\DNIEL~1\AppData\Local\Temp\cc4qdATB.s 			page 68


 3787      727400
 3788 0041 640B0000 		.4byte	0xb64
 3789 0045 75617274 		.ascii	"uart_lld_stop\000"
 3789      5F6C6C64 
 3789      5F73746F 
 3789      7000
 3790 0053 8F0B0000 		.4byte	0xb8f
 3791 0057 75617274 		.ascii	"uart_lld_start_send\000"
 3791      5F6C6C64 
 3791      5F737461 
 3791      72745F73 
 3791      656E6400 
 3792 006b DC0B0000 		.4byte	0xbdc
 3793 006f 75617274 		.ascii	"uart_lld_stop_send\000"
 3793      5F6C6C64 
 3793      5F73746F 
 3793      705F7365 
 3793      6E6400
 3794 0082 0A0C0000 		.4byte	0xc0a
 3795 0086 75617274 		.ascii	"uart_lld_start_receive\000"
 3795      5F6C6C64 
 3795      5F737461 
 3795      72745F72 
 3795      65636569 
 3796 009d 510C0000 		.4byte	0xc51
 3797 00a1 75617274 		.ascii	"uart_lld_stop_receive\000"
 3797      5F6C6C64 
 3797      5F73746F 
 3797      705F7265 
 3797      63656976 
 3798 00b7 EC0C0000 		.4byte	0xcec
 3799 00bb 55415254 		.ascii	"UARTD6\000"
 3799      443600
 3800 00c2 00000000 		.4byte	0x0
 3801              		.section	.debug_pubtypes,"",%progbits
 3802 0000 5C010000 		.4byte	0x15c
 3803 0004 0200     		.2byte	0x2
 3804 0006 00000000 		.4byte	.Ldebug_info0
 3805 000a FF0C0000 		.4byte	0xcff
 3806 000e 30000000 		.4byte	0x30
 3807 0012 73697A65 		.ascii	"size_t\000"
 3807      5F7400
 3808 0019 49000000 		.4byte	0x49
 3809 001d 75696E74 		.ascii	"uint8_t\000"
 3809      385F7400 
 3810 0025 62000000 		.4byte	0x62
 3811 0029 75696E74 		.ascii	"uint16_t\000"
 3811      31365F74 
 3811      00
 3812 0032 74000000 		.4byte	0x74
 3813 0036 696E7433 		.ascii	"int32_t\000"
 3813      325F7400 
 3814 003e 86000000 		.4byte	0x86
 3815 0042 75696E74 		.ascii	"uint32_t\000"
 3815      33325F74 
 3815      00
 3816 004b A6000000 		.4byte	0xa6
ARM GAS  C:\Users\DNIEL~1\AppData\Local\Temp\cc4qdATB.s 			page 69


 3817 004f 626F6F6C 		.ascii	"bool_t\000"
 3817      5F7400
 3818 0056 BF000000 		.4byte	0xbf
 3819 005a 4952516E 		.ascii	"IRQn\000"
 3819      00
 3820 005f 77030000 		.4byte	0x377
 3821 0063 444D415F 		.ascii	"DMA_Stream_TypeDef\000"
 3821      53747265 
 3821      616D5F54 
 3821      79706544 
 3821      656600
 3822 0076 50050000 		.4byte	0x550
 3823 007a 5243435F 		.ascii	"RCC_TypeDef\000"
 3823      54797065 
 3823      44656600 
 3824 0086 36060000 		.4byte	0x636
 3825 008a 55534152 		.ascii	"USART_TypeDef\000"
 3825      545F5479 
 3825      70654465 
 3825      6600
 3826 0098 9D060000 		.4byte	0x69d
 3827 009c 73746D33 		.ascii	"stm32_dma_stream_t\000"
 3827      325F646D 
 3827      615F7374 
 3827      7265616D 
 3827      5F7400
 3828 00af A8060000 		.4byte	0x6a8
 3829 00b3 73746D33 		.ascii	"stm32_dmaisr_t\000"
 3829      325F646D 
 3829      61697372 
 3829      5F7400
 3830 00c2 EB060000 		.4byte	0x6eb
 3831 00c6 75617274 		.ascii	"uartstate_t\000"
 3831      73746174 
 3831      655F7400 
 3832 00d2 11070000 		.4byte	0x711
 3833 00d6 75617274 		.ascii	"uarttxstate_t\000"
 3833      74787374 
 3833      6174655F 
 3833      7400
 3834 00e4 37070000 		.4byte	0x737
 3835 00e8 75617274 		.ascii	"uartrxstate_t\000"
 3835      72787374 
 3835      6174655F 
 3835      7400
 3836 00f6 42070000 		.4byte	0x742
 3837 00fa 75617274 		.ascii	"uartflags_t\000"
 3837      666C6167 
 3837      735F7400 
 3838 0106 4E070000 		.4byte	0x74e
 3839 010a 55415254 		.ascii	"UARTDriver\000"
 3839      44726976 
 3839      657200
 3840 0115 EF070000 		.4byte	0x7ef
 3841 0119 75617274 		.ascii	"uartcb_t\000"
 3841      63625F74 
 3841      00
ARM GAS  C:\Users\DNIEL~1\AppData\Local\Temp\cc4qdATB.s 			page 70


 3842 0122 13080000 		.4byte	0x813
 3843 0126 75617274 		.ascii	"uartccb_t\000"
 3843      6363625F 
 3843      7400
 3844 0130 36080000 		.4byte	0x836
 3845 0134 75617274 		.ascii	"uartecb_t\000"
 3845      6563625F 
 3845      7400
 3846 013e EA080000 		.4byte	0x8ea
 3847 0142 55415254 		.ascii	"UARTConfig\000"
 3847      436F6E66 
 3847      696700
 3848 014d 5A070000 		.4byte	0x75a
 3849 0151 55415254 		.ascii	"UARTDriver\000"
 3849      44726976 
 3849      657200
 3850 015c 00000000 		.4byte	0x0
 3851              		.section	.debug_aranges,"",%progbits
 3852 0000 74000000 		.4byte	0x74
 3853 0004 0200     		.2byte	0x2
 3854 0006 00000000 		.4byte	.Ldebug_info0
 3855 000a 04       		.byte	0x4
 3856 000b 00       		.byte	0x0
 3857 000c 0000     		.2byte	0x0
 3858 000e 0000     		.2byte	0x0
 3859 0010 00000000 		.4byte	.LFB119
 3860 0014 2E000000 		.4byte	.LFE119-.LFB119
 3861 0018 00000000 		.4byte	.LFB120
 3862 001c 4C000000 		.4byte	.LFE120-.LFB120
 3863 0020 00000000 		.4byte	.LFB123
 3864 0024 50000000 		.4byte	.LFE123-.LFB123
 3865 0028 00000000 		.4byte	.LFB122
 3866 002c 6C000000 		.4byte	.LFE122-.LFB122
 3867 0030 00000000 		.4byte	.LFB125
 3868 0034 84000000 		.4byte	.LFE125-.LFB125
 3869 0038 00000000 		.4byte	.LFB126
 3870 003c 28000000 		.4byte	.LFE126-.LFB126
 3871 0040 00000000 		.4byte	.LFB127
 3872 0044 2C010000 		.4byte	.LFE127-.LFB127
 3873 0048 00000000 		.4byte	.LFB128
 3874 004c 3C000000 		.4byte	.LFE128-.LFB128
 3875 0050 00000000 		.4byte	.LFB129
 3876 0054 1A000000 		.4byte	.LFE129-.LFB129
 3877 0058 00000000 		.4byte	.LFB130
 3878 005c 22000000 		.4byte	.LFE130-.LFB130
 3879 0060 00000000 		.4byte	.LFB131
 3880 0064 3A000000 		.4byte	.LFE131-.LFB131
 3881 0068 00000000 		.4byte	.LFB132
 3882 006c 2A000000 		.4byte	.LFE132-.LFB132
 3883 0070 00000000 		.4byte	0x0
 3884 0074 00000000 		.4byte	0x0
 3885              		.section	.debug_ranges,"",%progbits
 3886              	.Ldebug_ranges0:
 3887 0000 02000000 		.4byte	.LBB11
 3888 0004 04000000 		.4byte	.LBE11
 3889 0008 08000000 		.4byte	.LBB16
 3890 000c 72000000 		.4byte	.LBE16
ARM GAS  C:\Users\DNIEL~1\AppData\Local\Temp\cc4qdATB.s 			page 71


 3891 0010 00000000 		.4byte	0x0
 3892 0014 00000000 		.4byte	0x0
 3893 0018 02000000 		.4byte	.LBB12
 3894 001c 04000000 		.4byte	.LBE12
 3895 0020 08000000 		.4byte	.LBB15
 3896 0024 72000000 		.4byte	.LBE15
 3897 0028 00000000 		.4byte	0x0
 3898 002c 00000000 		.4byte	0x0
 3899 0030 18000000 		.4byte	.LBB17
 3900 0034 72000000 		.4byte	.LBE17
 3901 0038 A6000000 		.4byte	.LBB22
 3902 003c B6000000 		.4byte	.LBE22
 3903 0040 76000000 		.4byte	.LBB21
 3904 0044 7A000000 		.4byte	.LBE21
 3905 0048 00000000 		.4byte	0x0
 3906 004c 00000000 		.4byte	0x0
 3907 0050 18000000 		.4byte	.LBB19
 3908 0054 72000000 		.4byte	.LBE19
 3909 0058 A6000000 		.4byte	.LBB20
 3910 005c B6000000 		.4byte	.LBE20
 3911 0060 76000000 		.4byte	.LBB18
 3912 0064 7A000000 		.4byte	.LBE18
 3913 0068 00000000 		.4byte	0x0
 3914 006c 00000000 		.4byte	0x0
 3915 0070 00000000 		.4byte	.LFB119
 3916 0074 2E000000 		.4byte	.LFE119
 3917 0078 00000000 		.4byte	.LFB120
 3918 007c 4C000000 		.4byte	.LFE120
 3919 0080 00000000 		.4byte	.LFB123
 3920 0084 50000000 		.4byte	.LFE123
 3921 0088 00000000 		.4byte	.LFB122
 3922 008c 6C000000 		.4byte	.LFE122
 3923 0090 00000000 		.4byte	.LFB125
 3924 0094 84000000 		.4byte	.LFE125
 3925 0098 00000000 		.4byte	.LFB126
 3926 009c 28000000 		.4byte	.LFE126
 3927 00a0 00000000 		.4byte	.LFB127
 3928 00a4 2C010000 		.4byte	.LFE127
 3929 00a8 00000000 		.4byte	.LFB128
 3930 00ac 3C000000 		.4byte	.LFE128
 3931 00b0 00000000 		.4byte	.LFB129
 3932 00b4 1A000000 		.4byte	.LFE129
 3933 00b8 00000000 		.4byte	.LFB130
 3934 00bc 22000000 		.4byte	.LFE130
 3935 00c0 00000000 		.4byte	.LFB131
 3936 00c4 3A000000 		.4byte	.LFE131
 3937 00c8 00000000 		.4byte	.LFB132
 3938 00cc 2A000000 		.4byte	.LFE132
 3939 00d0 00000000 		.4byte	0x0
 3940 00d4 00000000 		.4byte	0x0
 3941              		.section	.debug_str,"MS",%progbits,1
 3942              	.LASF194:
 3943 0000 75617274 		.ascii	"uart_lld_start_receive\000"
 3943      5F6C6C64 
 3943      5F737461 
 3943      72745F72 
 3943      65636569 
ARM GAS  C:\Users\DNIEL~1\AppData\Local\Temp\cc4qdATB.s 			page 72


 3944              	.LASF130:
 3945 0017 41504231 		.ascii	"APB1LPENR\000"
 3945      4C50454E 
 3945      5200
 3946              	.LASF159:
 3947 0021 75617274 		.ascii	"uartflags_t\000"
 3947      666C6167 
 3947      735F7400 
 3948              	.LASF44:
 3949 002d 43414E31 		.ascii	"CAN1_RX0_IRQn\000"
 3949      5F525830 
 3949      5F495251 
 3949      6E00
 3950              	.LASF25:
 3951 003b 5056445F 		.ascii	"PVD_IRQn\000"
 3951      4952516E 
 3951      00
 3952              	.LASF88:
 3953 0044 43414E32 		.ascii	"CAN2_RX0_IRQn\000"
 3953      5F525830 
 3953      5F495251 
 3953      6E00
 3954              	.LASF205:
 3955 0052 75617274 		.ascii	"uart_lld_init\000"
 3955      5F6C6C64 
 3955      5F696E69 
 3955      7400
 3956              	.LASF2:
 3957 0060 73697A65 		.ascii	"size_t\000"
 3957      5F7400
 3958              	.LASF176:
 3959 0067 72786368 		.ascii	"rxchar_cb\000"
 3959      61725F63 
 3959      6200
 3960              	.LASF97:
 3961 0071 49324333 		.ascii	"I2C3_ER_IRQn\000"
 3961      5F45525F 
 3961      4952516E 
 3961      00
 3962              	.LASF107:
 3963 007e 4D304152 		.ascii	"M0AR\000"
 3963      00
 3964              	.LASF55:
 3965 0083 49324331 		.ascii	"I2C1_EV_IRQn\000"
 3965      5F45565F 
 3965      4952516E 
 3965      00
 3966              	.LASF92:
 3967 0090 444D4132 		.ascii	"DMA2_Stream5_IRQn\000"
 3967      5F537472 
 3967      65616D35 
 3967      5F495251 
 3967      6E00
 3968              	.LASF140:
 3969 00a2 73747265 		.ascii	"stream\000"
 3969      616D00
 3970              	.LASF167:
ARM GAS  C:\Users\DNIEL~1\AppData\Local\Temp\cc4qdATB.s 			page 73


 3971 00a9 646D6172 		.ascii	"dmarx\000"
 3971      7800
 3972              	.LASF184:
 3973 00af 75736172 		.ascii	"usart_stop\000"
 3973      745F7374 
 3973      6F7000
 3974              	.LASF127:
 3975 00ba 41484232 		.ascii	"AHB2LPENR\000"
 3975      4C50454E 
 3975      5200
 3976              	.LASF14:
 3977 00c4 626F6F6C 		.ascii	"bool_t\000"
 3977      5F7400
 3978              	.LASF65:
 3979 00cb 5254435F 		.ascii	"RTC_Alarm_IRQn\000"
 3979      416C6172 
 3979      6D5F4952 
 3979      516E00
 3980              	.LASF144:
 3981 00da 76656374 		.ascii	"vector\000"
 3981      6F7200
 3982              	.LASF198:
 3983 00e1 5F73746D 		.ascii	"_stm32_dma_streams\000"
 3983      33325F64 
 3983      6D615F73 
 3983      74726561 
 3983      6D7300
 3984              	.LASF58:
 3985 00f4 49324332 		.ascii	"I2C2_ER_IRQn\000"
 3985      5F45525F 
 3985      4952516E 
 3985      00
 3986              	.LASF54:
 3987 0101 54494D34 		.ascii	"TIM4_IRQn\000"
 3987      5F495251 
 3987      6E00
 3988              	.LASF179:
 3989 010b 55415254 		.ascii	"UARTConfig\000"
 3989      436F6E66 
 3989      696700
 3990              	.LASF27:
 3991 0116 5254435F 		.ascii	"RTC_WKUP_IRQn\000"
 3991      574B5550 
 3991      5F495251 
 3991      6E00
 3992              	.LASF169:
 3993 0124 72786275 		.ascii	"rxbuf\000"
 3993      6600
 3994              	.LASF24:
 3995 012a 57574447 		.ascii	"WWDG_IRQn\000"
 3995      5F495251 
 3995      6E00
 3996              	.LASF73:
 3997 0134 5344494F 		.ascii	"SDIO_IRQn\000"
 3997      5F495251 
 3997      6E00
 3998              	.LASF126:
ARM GAS  C:\Users\DNIEL~1\AppData\Local\Temp\cc4qdATB.s 			page 74


 3999 013e 41484231 		.ascii	"AHB1LPENR\000"
 3999      4C50454E 
 3999      5200
 4000              	.LASF70:
 4001 0148 54494D38 		.ascii	"TIM8_CC_IRQn\000"
 4001      5F43435F 
 4001      4952516E 
 4001      00
 4002              	.LASF196:
 4003 0155 75617274 		.ascii	"uart_lld_stop_receive\000"
 4003      5F6C6C64 
 4003      5F73746F 
 4003      705F7265 
 4003      63656976 
 4004              	.LASF12:
 4005 016b 6C6F6E67 		.ascii	"long long int\000"
 4005      206C6F6E 
 4005      6720696E 
 4005      7400
 4006              	.LASF1:
 4007 0179 7369676E 		.ascii	"signed char\000"
 4007      65642063 
 4007      68617200 
 4008              	.LASF89:
 4009 0185 43414E32 		.ascii	"CAN2_RX1_IRQn\000"
 4009      5F525831 
 4009      5F495251 
 4009      6E00
 4010              	.LASF103:
 4011 0193 43525950 		.ascii	"CRYP_IRQn\000"
 4011      5F495251 
 4011      6E00
 4012              	.LASF112:
 4013 019d 41484231 		.ascii	"AHB1RSTR\000"
 4013      52535452 
 4013      00
 4014              	.LASF138:
 4015 01a6 47545052 		.ascii	"GTPR\000"
 4015      00
 4016              	.LASF163:
 4017 01ab 72787374 		.ascii	"rxstate\000"
 4017      61746500 
 4018              	.LASF93:
 4019 01b3 444D4132 		.ascii	"DMA2_Stream6_IRQn\000"
 4019      5F537472 
 4019      65616D36 
 4019      5F495251 
 4019      6E00
 4020              	.LASF161:
 4021 01c5 73746174 		.ascii	"state\000"
 4021      6500
 4022              	.LASF162:
 4023 01cb 74787374 		.ascii	"txstate\000"
 4023      61746500 
 4024              	.LASF9:
 4025 01d3 6C6F6E67 		.ascii	"long int\000"
 4025      20696E74 
ARM GAS  C:\Users\DNIEL~1\AppData\Local\Temp\cc4qdATB.s 			page 75


 4025      00
 4026              	.LASF117:
 4027 01dc 41504232 		.ascii	"APB2RSTR\000"
 4027      52535452 
 4027      00
 4028              	.LASF170:
 4029 01e5 75617274 		.ascii	"uartcb_t\000"
 4029      63625F74 
 4029      00
 4030              	.LASF40:
 4031 01ee 444D4131 		.ascii	"DMA1_Stream5_IRQn\000"
 4031      5F537472 
 4031      65616D35 
 4031      5F495251 
 4031      6E00
 4032              	.LASF47:
 4033 0200 45585449 		.ascii	"EXTI9_5_IRQn\000"
 4033      395F355F 
 4033      4952516E 
 4033      00
 4034              	.LASF86:
 4035 020d 4554485F 		.ascii	"ETH_WKUP_IRQn\000"
 4035      574B5550 
 4035      5F495251 
 4035      6E00
 4036              	.LASF6:
 4037 021b 75696E74 		.ascii	"uint16_t\000"
 4037      31365F74 
 4037      00
 4038              	.LASF13:
 4039 0224 6C6F6E67 		.ascii	"long long unsigned int\000"
 4039      206C6F6E 
 4039      6720756E 
 4039      7369676E 
 4039      65642069 
 4040              	.LASF78:
 4041 023b 54494D36 		.ascii	"TIM6_DAC_IRQn\000"
 4041      5F444143 
 4041      5F495251 
 4041      6E00
 4042              	.LASF110:
 4043 0249 504C4C43 		.ascii	"PLLCFGR\000"
 4043      46475200 
 4044              	.LASF76:
 4045 0251 55415254 		.ascii	"UART4_IRQn\000"
 4045      345F4952 
 4045      516E00
 4046              	.LASF66:
 4047 025c 4F54475F 		.ascii	"OTG_FS_WKUP_IRQn\000"
 4047      46535F57 
 4047      4B55505F 
 4047      4952516E 
 4047      00
 4048              	.LASF22:
 4049 026d 50656E64 		.ascii	"PendSV_IRQn\000"
 4049      53565F49 
 4049      52516E00 
ARM GAS  C:\Users\DNIEL~1\AppData\Local\Temp\cc4qdATB.s 			page 76


 4050              	.LASF68:
 4051 0279 54494D38 		.ascii	"TIM8_UP_TIM13_IRQn\000"
 4051      5F55505F 
 4051      54494D31 
 4051      335F4952 
 4051      516E00
 4052              	.LASF189:
 4053 028c 75617274 		.ascii	"uart_lld_start\000"
 4053      5F6C6C64 
 4053      5F737461 
 4053      727400
 4054              	.LASF160:
 4055 029b 55415254 		.ascii	"UARTDriver\000"
 4055      44726976 
 4055      657200
 4056              	.LASF113:
 4057 02a6 41484232 		.ascii	"AHB2RSTR\000"
 4057      52535452 
 4057      00
 4058              	.LASF143:
 4059 02af 73656C66 		.ascii	"selfindex\000"
 4059      696E6465 
 4059      7800
 4060              	.LASF183:
 4061 02b9 7365745F 		.ascii	"set_rx_idle_loop\000"
 4061      72785F69 
 4061      646C655F 
 4061      6C6F6F70 
 4061      00
 4062              	.LASF83:
 4063 02ca 444D4132 		.ascii	"DMA2_Stream3_IRQn\000"
 4063      5F537472 
 4063      65616D33 
 4063      5F495251 
 4063      6E00
 4064              	.LASF94:
 4065 02dc 444D4132 		.ascii	"DMA2_Stream7_IRQn\000"
 4065      5F537472 
 4065      65616D37 
 4065      5F495251 
 4065      6E00
 4066              	.LASF149:
 4067 02ee 55415254 		.ascii	"UART_READY\000"
 4067      5F524541 
 4067      445900
 4068              	.LASF152:
 4069 02f9 55415254 		.ascii	"UART_TX_ACTIVE\000"
 4069      5F54585F 
 4069      41435449 
 4069      564500
 4070              	.LASF165:
 4071 0308 75736172 		.ascii	"usart\000"
 4071      7400
 4072              	.LASF0:
 4073 030e 756E7369 		.ascii	"unsigned int\000"
 4073      676E6564 
 4073      20696E74 
ARM GAS  C:\Users\DNIEL~1\AppData\Local\Temp\cc4qdATB.s 			page 77


 4073      00
 4074              	.LASF38:
 4075 031b 444D4131 		.ascii	"DMA1_Stream3_IRQn\000"
 4075      5F537472 
 4075      65616D33 
 4075      5F495251 
 4075      6E00
 4076              	.LASF193:
 4077 032d 74786275 		.ascii	"txbuf\000"
 4077      6600
 4078              	.LASF41:
 4079 0333 444D4131 		.ascii	"DMA1_Stream6_IRQn\000"
 4079      5F537472 
 4079      65616D36 
 4079      5F495251 
 4079      6E00
 4080              	.LASF17:
 4081 0345 4D656D6F 		.ascii	"MemoryManagement_IRQn\000"
 4081      72794D61 
 4081      6E616765 
 4081      6D656E74 
 4081      5F495251 
 4082              	.LASF146:
 4083 035b 73746D33 		.ascii	"stm32_dmaisr_t\000"
 4083      325F646D 
 4083      61697372 
 4083      5F7400
 4084              	.LASF96:
 4085 036a 49324333 		.ascii	"I2C3_EV_IRQn\000"
 4085      5F45565F 
 4085      4952516E 
 4085      00
 4086              	.LASF11:
 4087 0377 6C6F6E67 		.ascii	"long unsigned int\000"
 4087      20756E73 
 4087      69676E65 
 4087      6420696E 
 4087      7400
 4088              	.LASF172:
 4089 0389 75617274 		.ascii	"uartecb_t\000"
 4089      6563625F 
 4089      7400
 4090              	.LASF137:
 4091 0393 5243435F 		.ascii	"RCC_TypeDef\000"
 4091      54797065 
 4091      44656600 
 4092              	.LASF10:
 4093 039f 75696E74 		.ascii	"uint32_t\000"
 4093      33325F74 
 4093      00
 4094              	.LASF188:
 4095 03a8 56656374 		.ascii	"Vector15C\000"
 4095      6F723135 
 4095      4300
 4096              	.LASF142:
 4097 03b2 69736869 		.ascii	"ishift\000"
 4097      667400
ARM GAS  C:\Users\DNIEL~1\AppData\Local\Temp\cc4qdATB.s 			page 78


 4098              	.LASF98:
 4099 03b9 4F54475F 		.ascii	"OTG_HS_EP1_OUT_IRQn\000"
 4099      48535F45 
 4099      50315F4F 
 4099      55545F49 
 4099      52516E00 
 4100              	.LASF20:
 4101 03cd 53564361 		.ascii	"SVCall_IRQn\000"
 4101      6C6C5F49 
 4101      52516E00 
 4102              	.LASF7:
 4103 03d9 73686F72 		.ascii	"short unsigned int\000"
 4103      7420756E 
 4103      7369676E 
 4103      65642069 
 4103      6E7400
 4104              	.LASF147:
 4105 03ec 55415254 		.ascii	"UART_UNINIT\000"
 4105      5F554E49 
 4105      4E495400 
 4106              	.LASF148:
 4107 03f8 55415254 		.ascii	"UART_STOP\000"
 4107      5F53544F 
 4107      5000
 4108              	.LASF136:
 4109 0402 504C4C49 		.ascii	"PLLI2SCFGR\000"
 4109      32534346 
 4109      475200
 4110              	.LASF43:
 4111 040d 43414E31 		.ascii	"CAN1_TX_IRQn\000"
 4111      5F54585F 
 4111      4952516E 
 4111      00
 4112              	.LASF114:
 4113 041a 41484233 		.ascii	"AHB3RSTR\000"
 4113      52535452 
 4113      00
 4114              	.LASF64:
 4115 0423 45585449 		.ascii	"EXTI15_10_IRQn\000"
 4115      31355F31 
 4115      305F4952 
 4115      516E00
 4116              	.LASF59:
 4117 0432 53504931 		.ascii	"SPI1_IRQn\000"
 4117      5F495251 
 4117      6E00
 4118              	.LASF36:
 4119 043c 444D4131 		.ascii	"DMA1_Stream1_IRQn\000"
 4119      5F537472 
 4119      65616D31 
 4119      5F495251 
 4119      6E00
 4120              	.LASF139:
 4121 044e 55534152 		.ascii	"USART_TypeDef\000"
 4121      545F5479 
 4121      70654465 
 4121      6600
ARM GAS  C:\Users\DNIEL~1\AppData\Local\Temp\cc4qdATB.s 			page 79


 4122              	.LASF131:
 4123 045c 41504232 		.ascii	"APB2LPENR\000"
 4123      4C50454E 
 4123      5200
 4124              	.LASF177:
 4125 0466 72786572 		.ascii	"rxerr_cb\000"
 4125      725F6362 
 4125      00
 4126              	.LASF67:
 4127 046f 54494D38 		.ascii	"TIM8_BRK_TIM12_IRQn\000"
 4127      5F42524B 
 4127      5F54494D 
 4127      31325F49 
 4127      52516E00 
 4128              	.LASF23:
 4129 0483 53797354 		.ascii	"SysTick_IRQn\000"
 4129      69636B5F 
 4129      4952516E 
 4129      00
 4130              	.LASF51:
 4131 0490 54494D31 		.ascii	"TIM1_CC_IRQn\000"
 4131      5F43435F 
 4131      4952516E 
 4131      00
 4132              	.LASF69:
 4133 049d 54494D38 		.ascii	"TIM8_TRG_COM_TIM14_IRQn\000"
 4133      5F545247 
 4133      5F434F4D 
 4133      5F54494D 
 4133      31345F49 
 4134              	.LASF181:
 4135 04b5 73657276 		.ascii	"serve_usart_irq\000"
 4135      655F7573 
 4135      6172745F 
 4135      69727100 
 4136              	.LASF203:
 4137 04c5 4952516E 		.ascii	"IRQn\000"
 4137      00
 4138              	.LASF180:
 4139 04ca 75617274 		.ascii	"uartp\000"
 4139      7000
 4140              	.LASF199:
 4141 04d0 55415254 		.ascii	"UARTD6\000"
 4141      443600
 4142              	.LASF156:
 4143 04d7 55415254 		.ascii	"UART_RX_ACTIVE\000"
 4143      5F52585F 
 4143      41435449 
 4143      564500
 4144              	.LASF85:
 4145 04e6 4554485F 		.ascii	"ETH_IRQn\000"
 4145      4952516E 
 4145      00
 4146              	.LASF204:
 4147 04ef 7472616E 		.ascii	"translate_errors\000"
 4147      736C6174 
 4147      655F6572 
ARM GAS  C:\Users\DNIEL~1\AppData\Local\Temp\cc4qdATB.s 			page 80


 4147      726F7273 
 4147      00
 4148              	.LASF157:
 4149 0500 55415254 		.ascii	"UART_RX_COMPLETE\000"
 4149      5F52585F 
 4149      434F4D50 
 4149      4C455445 
 4149      00
 4150              	.LASF39:
 4151 0511 444D4131 		.ascii	"DMA1_Stream4_IRQn\000"
 4151      5F537472 
 4151      65616D34 
 4151      5F495251 
 4151      6E00
 4152              	.LASF82:
 4153 0523 444D4132 		.ascii	"DMA2_Stream2_IRQn\000"
 4153      5F537472 
 4153      65616D32 
 4153      5F495251 
 4153      6E00
 4154              	.LASF95:
 4155 0535 55534152 		.ascii	"USART6_IRQn\000"
 4155      54365F49 
 4155      52516E00 
 4156              	.LASF121:
 4157 0541 41484233 		.ascii	"AHB3ENR\000"
 4157      454E5200 
 4158              	.LASF74:
 4159 0549 54494D35 		.ascii	"TIM5_IRQn\000"
 4159      5F495251 
 4159      6E00
 4160              	.LASF185:
 4161 0553 75617274 		.ascii	"uart_lld_serve_tx_end_irq\000"
 4161      5F6C6C64 
 4161      5F736572 
 4161      76655F74 
 4161      785F656E 
 4162              	.LASF33:
 4163 056d 45585449 		.ascii	"EXTI3_IRQn\000"
 4163      335F4952 
 4163      516E00
 4164              	.LASF60:
 4165 0578 53504932 		.ascii	"SPI2_IRQn\000"
 4165      5F495251 
 4165      6E00
 4166              	.LASF37:
 4167 0582 444D4131 		.ascii	"DMA1_Stream2_IRQn\000"
 4167      5F537472 
 4167      65616D32 
 4167      5F495251 
 4167      6E00
 4168              	.LASF87:
 4169 0594 43414E32 		.ascii	"CAN2_TX_IRQn\000"
 4169      5F54585F 
 4169      4952516E 
 4169      00
 4170              	.LASF175:
ARM GAS  C:\Users\DNIEL~1\AppData\Local\Temp\cc4qdATB.s 			page 81


 4171 05a1 7278656E 		.ascii	"rxend_cb\000"
 4171      645F6362 
 4171      00
 4172              	.LASF154:
 4173 05aa 75617274 		.ascii	"uarttxstate_t\000"
 4173      74787374 
 4173      6174655F 
 4173      7400
 4174              	.LASF116:
 4175 05b8 41504231 		.ascii	"APB1RSTR\000"
 4175      52535452 
 4175      00
 4176              	.LASF101:
 4177 05c1 4F54475F 		.ascii	"OTG_HS_IRQn\000"
 4177      48535F49 
 4177      52516E00 
 4178              	.LASF202:
 4179 05cd 433A5C55 		.ascii	"C:\\Users\\D\341niel\\Dropbox\\Solar Racing\\Szoftv"
 4179      73657273 
 4179      5C44E16E 
 4179      69656C5C 
 4179      44726F70 
 4180 05f8 65725C4D 		.ascii	"er\\Modulux\\Modulux_v0\\modulux\\firmware\000"
 4180      6F64756C 
 4180      75785C4D 
 4180      6F64756C 
 4180      75785F76 
 4181              	.LASF168:
 4182 061f 646D6174 		.ascii	"dmatx\000"
 4182      7800
 4183              	.LASF115:
 4184 0625 52455345 		.ascii	"RESERVED0\000"
 4184      52564544 
 4184      3000
 4185              	.LASF118:
 4186 062f 52455345 		.ascii	"RESERVED1\000"
 4186      52564544 
 4186      3100
 4187              	.LASF122:
 4188 0639 52455345 		.ascii	"RESERVED2\000"
 4188      52564544 
 4188      3200
 4189              	.LASF125:
 4190 0643 52455345 		.ascii	"RESERVED3\000"
 4190      52564544 
 4190      3300
 4191              	.LASF129:
 4192 064d 52455345 		.ascii	"RESERVED4\000"
 4192      52564544 
 4192      3400
 4193              	.LASF132:
 4194 0657 52455345 		.ascii	"RESERVED5\000"
 4194      52564544 
 4194      3500
 4195              	.LASF134:
 4196 0661 52455345 		.ascii	"RESERVED6\000"
 4196      52564544 
ARM GAS  C:\Users\DNIEL~1\AppData\Local\Temp\cc4qdATB.s 			page 82


 4196      3600
 4197              	.LASF145:
 4198 066b 73746D33 		.ascii	"stm32_dma_stream_t\000"
 4198      325F646D 
 4198      615F7374 
 4198      7265616D 
 4198      5F7400
 4199              	.LASF75:
 4200 067e 53504933 		.ascii	"SPI3_IRQn\000"
 4200      5F495251 
 4200      6E00
 4201              	.LASF84:
 4202 0688 444D4132 		.ascii	"DMA2_Stream4_IRQn\000"
 4202      5F537472 
 4202      65616D34 
 4202      5F495251 
 4202      6E00
 4203              	.LASF72:
 4204 069a 46534D43 		.ascii	"FSMC_IRQn\000"
 4204      5F495251 
 4204      6E00
 4205              	.LASF8:
 4206 06a4 696E7433 		.ascii	"int32_t\000"
 4206      325F7400 
 4207              	.LASF4:
 4208 06ac 756E7369 		.ascii	"unsigned char\000"
 4208      676E6564 
 4208      20636861 
 4208      7200
 4209              	.LASF195:
 4210 06ba 75617274 		.ascii	"uart_lld_stop_send\000"
 4210      5F6C6C64 
 4210      5F73746F 
 4210      705F7365 
 4210      6E6400
 4211              	.LASF48:
 4212 06cd 54494D31 		.ascii	"TIM1_BRK_TIM9_IRQn\000"
 4212      5F42524B 
 4212      5F54494D 
 4212      395F4952 
 4212      516E00
 4213              	.LASF197:
 4214 06e0 49544D5F 		.ascii	"ITM_RxBuffer\000"
 4214      52784275 
 4214      66666572 
 4214      00
 4215              	.LASF49:
 4216 06ed 54494D31 		.ascii	"TIM1_UP_TIM10_IRQn\000"
 4216      5F55505F 
 4216      54494D31 
 4216      305F4952 
 4216      516E00
 4217              	.LASF34:
 4218 0700 45585449 		.ascii	"EXTI4_IRQn\000"
 4218      345F4952 
 4218      516E00
 4219              	.LASF104:
ARM GAS  C:\Users\DNIEL~1\AppData\Local\Temp\cc4qdATB.s 			page 83


 4220 070b 48415348 		.ascii	"HASH_RNG_IRQn\000"
 4220      5F524E47 
 4220      5F495251 
 4220      6E00
 4221              	.LASF5:
 4222 0719 73686F72 		.ascii	"short int\000"
 4222      7420696E 
 4222      7400
 4223              	.LASF128:
 4224 0723 41484233 		.ascii	"AHB3LPENR\000"
 4224      4C50454E 
 4224      5200
 4225              	.LASF77:
 4226 072d 55415254 		.ascii	"UART5_IRQn\000"
 4226      355F4952 
 4226      516E00
 4227              	.LASF50:
 4228 0738 54494D31 		.ascii	"TIM1_TRG_COM_TIM11_IRQn\000"
 4228      5F545247 
 4228      5F434F4D 
 4228      5F54494D 
 4228      31315F49 
 4229              	.LASF150:
 4230 0750 75617274 		.ascii	"uartstate_t\000"
 4230      73746174 
 4230      655F7400 
 4231              	.LASF32:
 4232 075c 45585449 		.ascii	"EXTI2_IRQn\000"
 4232      325F4952 
 4232      516E00
 4233              	.LASF124:
 4234 0767 41504232 		.ascii	"APB2ENR\000"
 4234      454E5200 
 4235              	.LASF153:
 4236 076f 55415254 		.ascii	"UART_TX_COMPLETE\000"
 4236      5F54585F 
 4236      434F4D50 
 4236      4C455445 
 4236      00
 4237              	.LASF28:
 4238 0780 464C4153 		.ascii	"FLASH_IRQn\000"
 4238      485F4952 
 4238      516E00
 4239              	.LASF141:
 4240 078b 69666372 		.ascii	"ifcr\000"
 4240      00
 4241              	.LASF91:
 4242 0790 4F54475F 		.ascii	"OTG_FS_IRQn\000"
 4242      46535F49 
 4242      52516E00 
 4243              	.LASF173:
 4244 079c 7478656E 		.ascii	"txend1_cb\000"
 4244      64315F63 
 4244      6200
 4245              	.LASF62:
 4246 07a6 55534152 		.ascii	"USART2_IRQn\000"
 4246      54325F49 
ARM GAS  C:\Users\DNIEL~1\AppData\Local\Temp\cc4qdATB.s 			page 84


 4246      52516E00 
 4247              	.LASF19:
 4248 07b2 55736167 		.ascii	"UsageFault_IRQn\000"
 4248      65466175 
 4248      6C745F49 
 4248      52516E00 
 4249              	.LASF123:
 4250 07c2 41504231 		.ascii	"APB1ENR\000"
 4250      454E5200 
 4251              	.LASF171:
 4252 07ca 75617274 		.ascii	"uartccb_t\000"
 4252      6363625F 
 4252      7400
 4253              	.LASF71:
 4254 07d4 444D4131 		.ascii	"DMA1_Stream7_IRQn\000"
 4254      5F537472 
 4254      65616D37 
 4254      5F495251 
 4254      6E00
 4255              	.LASF15:
 4256 07e6 63686172 		.ascii	"char\000"
 4256      00
 4257              	.LASF190:
 4258 07eb 6D6F6465 		.ascii	"mode\000"
 4258      00
 4259              	.LASF18:
 4260 07f0 42757346 		.ascii	"BusFault_IRQn\000"
 4260      61756C74 
 4260      5F495251 
 4260      6E00
 4261              	.LASF164:
 4262 07fe 636F6E66 		.ascii	"config\000"
 4262      696700
 4263              	.LASF155:
 4264 0805 55415254 		.ascii	"UART_RX_IDLE\000"
 4264      5F52585F 
 4264      49444C45 
 4264      00
 4265              	.LASF79:
 4266 0812 54494D37 		.ascii	"TIM7_IRQn\000"
 4266      5F495251 
 4266      6E00
 4267              	.LASF99:
 4268 081c 4F54475F 		.ascii	"OTG_HS_EP1_IN_IRQn\000"
 4268      48535F45 
 4268      50315F49 
 4268      4E5F4952 
 4268      516E00
 4269              	.LASF16:
 4270 082f 4E6F6E4D 		.ascii	"NonMaskableInt_IRQn\000"
 4270      61736B61 
 4270      626C6549 
 4270      6E745F49 
 4270      52516E00 
 4271              	.LASF151:
 4272 0843 55415254 		.ascii	"UART_TX_IDLE\000"
 4272      5F54585F 
ARM GAS  C:\Users\DNIEL~1\AppData\Local\Temp\cc4qdATB.s 			page 85


 4272      49444C45 
 4272      00
 4273              	.LASF106:
 4274 0850 4E445452 		.ascii	"NDTR\000"
 4274      00
 4275              	.LASF109:
 4276 0855 444D415F 		.ascii	"DMA_Stream_TypeDef\000"
 4276      53747265 
 4276      616D5F54 
 4276      79706544 
 4276      656600
 4277              	.LASF120:
 4278 0868 41484232 		.ascii	"AHB2ENR\000"
 4278      454E5200 
 4279              	.LASF26:
 4280 0870 54414D50 		.ascii	"TAMP_STAMP_IRQn\000"
 4280      5F535441 
 4280      4D505F49 
 4280      52516E00 
 4281              	.LASF187:
 4282 0880 75617274 		.ascii	"uart_lld_serve_rx_end_irq\000"
 4282      5F6C6C64 
 4282      5F736572 
 4282      76655F72 
 4282      785F656E 
 4283              	.LASF21:
 4284 089a 44656275 		.ascii	"DebugMonitor_IRQn\000"
 4284      674D6F6E 
 4284      69746F72 
 4284      5F495251 
 4284      6E00
 4285              	.LASF80:
 4286 08ac 444D4132 		.ascii	"DMA2_Stream0_IRQn\000"
 4286      5F537472 
 4286      65616D30 
 4286      5F495251 
 4286      6E00
 4287              	.LASF108:
 4288 08be 4D314152 		.ascii	"M1AR\000"
 4288      00
 4289              	.LASF158:
 4290 08c3 75617274 		.ascii	"uartrxstate_t\000"
 4290      72787374 
 4290      6174655F 
 4290      7400
 4291              	.LASF57:
 4292 08d1 49324332 		.ascii	"I2C2_EV_IRQn\000"
 4292      5F45565F 
 4292      4952516E 
 4292      00
 4293              	.LASF63:
 4294 08de 55534152 		.ascii	"USART3_IRQn\000"
 4294      54335F49 
 4294      52516E00 
 4295              	.LASF135:
 4296 08ea 53534347 		.ascii	"SSCGR\000"
 4296      5200
ARM GAS  C:\Users\DNIEL~1\AppData\Local\Temp\cc4qdATB.s 			page 86


 4297              	.LASF52:
 4298 08f0 54494D32 		.ascii	"TIM2_IRQn\000"
 4298      5F495251 
 4298      6E00
 4299              	.LASF30:
 4300 08fa 45585449 		.ascii	"EXTI0_IRQn\000"
 4300      305F4952 
 4300      516E00
 4301              	.LASF61:
 4302 0905 55534152 		.ascii	"USART1_IRQn\000"
 4302      54315F49 
 4302      52516E00 
 4303              	.LASF133:
 4304 0911 42444352 		.ascii	"BDCR\000"
 4304      00
 4305              	.LASF174:
 4306 0916 7478656E 		.ascii	"txend2_cb\000"
 4306      64325F63 
 4306      6200
 4307              	.LASF186:
 4308 0920 666C6167 		.ascii	"flags\000"
 4308      7300
 4309              	.LASF3:
 4310 0926 75696E74 		.ascii	"uint8_t\000"
 4310      385F7400 
 4311              	.LASF182:
 4312 092e 75736172 		.ascii	"usart_start\000"
 4312      745F7374 
 4312      61727400 
 4313              	.LASF102:
 4314 093a 44434D49 		.ascii	"DCMI_IRQn\000"
 4314      5F495251 
 4314      6E00
 4315              	.LASF166:
 4316 0944 646D616D 		.ascii	"dmamode\000"
 4316      6F646500 
 4317              	.LASF200:
 4318 094c 474E5520 		.ascii	"GNU C 4.5.2\000"
 4318      4320342E 
 4318      352E3200 
 4319              	.LASF178:
 4320 0958 73706565 		.ascii	"speed\000"
 4320      6400
 4321              	.LASF119:
 4322 095e 41484231 		.ascii	"AHB1ENR\000"
 4322      454E5200 
 4323              	.LASF105:
 4324 0966 4650555F 		.ascii	"FPU_IRQn\000"
 4324      4952516E 
 4324      00
 4325              	.LASF111:
 4326 096f 43464752 		.ascii	"CFGR\000"
 4326      00
 4327              	.LASF192:
 4328 0974 75617274 		.ascii	"uart_lld_start_send\000"
 4328      5F6C6C64 
 4328      5F737461 
ARM GAS  C:\Users\DNIEL~1\AppData\Local\Temp\cc4qdATB.s 			page 87


 4328      72745F73 
 4328      656E6400 
 4329              	.LASF201:
 4330 0988 2E2E2F2E 		.ascii	"../../../ChibiOS/os/hal/platforms/STM32/USARTv1/uar"
 4330      2E2F2E2E 
 4330      2F436869 
 4330      62694F53 
 4330      2F6F732F 
 4331 09bb 745F6C6C 		.ascii	"t_lld.c\000"
 4331      642E6300 
 4332              	.LASF191:
 4333 09c3 75617274 		.ascii	"uart_lld_stop\000"
 4333      5F6C6C64 
 4333      5F73746F 
 4333      7000
 4334              	.LASF56:
 4335 09d1 49324331 		.ascii	"I2C1_ER_IRQn\000"
 4335      5F45525F 
 4335      4952516E 
 4335      00
 4336              	.LASF42:
 4337 09de 4144435F 		.ascii	"ADC_IRQn\000"
 4337      4952516E 
 4337      00
 4338              	.LASF81:
 4339 09e7 444D4132 		.ascii	"DMA2_Stream1_IRQn\000"
 4339      5F537472 
 4339      65616D31 
 4339      5F495251 
 4339      6E00
 4340              	.LASF45:
 4341 09f9 43414E31 		.ascii	"CAN1_RX1_IRQn\000"
 4341      5F525831 
 4341      5F495251 
 4341      6E00
 4342              	.LASF46:
 4343 0a07 43414E31 		.ascii	"CAN1_SCE_IRQn\000"
 4343      5F534345 
 4343      5F495251 
 4343      6E00
 4344              	.LASF90:
 4345 0a15 43414E32 		.ascii	"CAN2_SCE_IRQn\000"
 4345      5F534345 
 4345      5F495251 
 4345      6E00
 4346              	.LASF29:
 4347 0a23 5243435F 		.ascii	"RCC_IRQn\000"
 4347      4952516E 
 4347      00
 4348              	.LASF100:
 4349 0a2c 4F54475F 		.ascii	"OTG_HS_WKUP_IRQn\000"
 4349      48535F57 
 4349      4B55505F 
 4349      4952516E 
 4349      00
 4350              	.LASF53:
 4351 0a3d 54494D33 		.ascii	"TIM3_IRQn\000"
ARM GAS  C:\Users\DNIEL~1\AppData\Local\Temp\cc4qdATB.s 			page 88


 4351      5F495251 
 4351      6E00
 4352              	.LASF31:
 4353 0a47 45585449 		.ascii	"EXTI1_IRQn\000"
 4353      315F4952 
 4353      516E00
 4354              	.LASF35:
 4355 0a52 444D4131 		.ascii	"DMA1_Stream0_IRQn\000"
 4355      5F537472 
 4355      65616D30 
 4355      5F495251 
 4355      6E00
 4356              		.ident	"GCC: (Sourcery G++ Lite 2011.03-42) 4.5.2"
ARM GAS  C:\Users\DNIEL~1\AppData\Local\Temp\cc4qdATB.s 			page 89


DEFINED SYMBOLS
                            *ABS*:00000000 uart_lld.c
C:\Users\DNIEL~1\AppData\Local\Temp\cc4qdATB.s:24     .text.set_rx_idle_loop:00000000 $t
C:\Users\DNIEL~1\AppData\Local\Temp\cc4qdATB.s:29     .text.set_rx_idle_loop:00000000 set_rx_idle_loop
C:\Users\DNIEL~1\AppData\Local\Temp\cc4qdATB.s:78     .text.usart_stop:00000000 $t
C:\Users\DNIEL~1\AppData\Local\Temp\cc4qdATB.s:83     .text.usart_stop:00000000 usart_stop
C:\Users\DNIEL~1\AppData\Local\Temp\cc4qdATB.s:151    .text.uart_lld_serve_tx_end_irq:00000000 $t
C:\Users\DNIEL~1\AppData\Local\Temp\cc4qdATB.s:156    .text.uart_lld_serve_tx_end_irq:00000000 uart_lld_serve_tx_end_irq
C:\Users\DNIEL~1\AppData\Local\Temp\cc4qdATB.s:229    .text.uart_lld_serve_rx_end_irq:00000000 $t
C:\Users\DNIEL~1\AppData\Local\Temp\cc4qdATB.s:234    .text.uart_lld_serve_rx_end_irq:00000000 uart_lld_serve_rx_end_irq
C:\Users\DNIEL~1\AppData\Local\Temp\cc4qdATB.s:328    .text.Vector15C:00000000 $t
C:\Users\DNIEL~1\AppData\Local\Temp\cc4qdATB.s:334    .text.Vector15C:00000000 Vector15C
C:\Users\DNIEL~1\AppData\Local\Temp\cc4qdATB.s:450    .text.Vector15C:00000080 $d
C:\Users\DNIEL~1\AppData\Local\Temp\cc4qdATB.s:455    .text.uart_lld_init:00000000 $t
C:\Users\DNIEL~1\AppData\Local\Temp\cc4qdATB.s:461    .text.uart_lld_init:00000000 uart_lld_init
C:\Users\DNIEL~1\AppData\Local\Temp\cc4qdATB.s:493    .text.uart_lld_init:0000001c $d
C:\Users\DNIEL~1\AppData\Local\Temp\cc4qdATB.s:500    .text.uart_lld_start:00000000 $t
C:\Users\DNIEL~1\AppData\Local\Temp\cc4qdATB.s:506    .text.uart_lld_start:00000000 uart_lld_start
C:\Users\DNIEL~1\AppData\Local\Temp\cc4qdATB.s:726    .text.uart_lld_start:00000108 $d
C:\Users\DNIEL~1\AppData\Local\Temp\cc4qdATB.s:740    .text.uart_lld_stop:00000000 $t
C:\Users\DNIEL~1\AppData\Local\Temp\cc4qdATB.s:746    .text.uart_lld_stop:00000000 uart_lld_stop
C:\Users\DNIEL~1\AppData\Local\Temp\cc4qdATB.s:795    .text.uart_lld_stop:00000034 $d
C:\Users\DNIEL~1\AppData\Local\Temp\cc4qdATB.s:801    .text.uart_lld_start_send:00000000 $t
C:\Users\DNIEL~1\AppData\Local\Temp\cc4qdATB.s:807    .text.uart_lld_start_send:00000000 uart_lld_start_send
C:\Users\DNIEL~1\AppData\Local\Temp\cc4qdATB.s:841    .text.uart_lld_stop_send:00000000 $t
C:\Users\DNIEL~1\AppData\Local\Temp\cc4qdATB.s:847    .text.uart_lld_stop_send:00000000 uart_lld_stop_send
C:\Users\DNIEL~1\AppData\Local\Temp\cc4qdATB.s:881    .text.uart_lld_start_receive:00000000 $t
C:\Users\DNIEL~1\AppData\Local\Temp\cc4qdATB.s:887    .text.uart_lld_start_receive:00000000 uart_lld_start_receive
C:\Users\DNIEL~1\AppData\Local\Temp\cc4qdATB.s:943    .text.uart_lld_stop_receive:00000000 $t
C:\Users\DNIEL~1\AppData\Local\Temp\cc4qdATB.s:949    .text.uart_lld_stop_receive:00000000 uart_lld_stop_receive
C:\Users\DNIEL~1\AppData\Local\Temp\cc4qdATB.s:1003   .bss.UARTD6:00000000 UARTD6
C:\Users\DNIEL~1\AppData\Local\Temp\cc4qdATB.s:992    .rodata.str1.4:00000000 $d
C:\Users\DNIEL~1\AppData\Local\Temp\cc4qdATB.s:999    .bss.UARTD6:00000000 $d
                     .debug_frame:00000010 $d
C:\Users\DNIEL~1\AppData\Local\Temp\cc4qdATB.s:454    .text.Vector15C:00000084 $t
C:\Users\DNIEL~1\AppData\Local\Temp\cc4qdATB.s:499    .text.uart_lld_init:00000028 $t
C:\Users\DNIEL~1\AppData\Local\Temp\cc4qdATB.s:739    .text.uart_lld_start:0000012c $t
C:\Users\DNIEL~1\AppData\Local\Temp\cc4qdATB.s:800    .text.uart_lld_stop:0000003c $t

UNDEFINED SYMBOLS
port_halt
dbg_check_enter_isr
dbg_check_leave_isr
_port_irq_epilogue
uartObjectInit
_stm32_dma_streams
dmaStreamAllocate
nvicEnableVector
chDbgPanic
dmaStreamRelease
nvicDisableVector
