ARM GAS  C:\Users\srich\AppData\Local\Temp\cc7Prgoh.s 			page 1


   1              		.syntax unified
   2              		.cpu cortex-m4
   3              		.fpu softvfp
   4              		.eabi_attribute 20, 1
   5              		.eabi_attribute 21, 1
   6              		.eabi_attribute 23, 3
   7              		.eabi_attribute 24, 1
   8              		.eabi_attribute 25, 1
   9              		.eabi_attribute 26, 1
  10              		.eabi_attribute 30, 2
  11              		.eabi_attribute 34, 1
  12              		.eabi_attribute 18, 4
  13              		.thumb
  14              		.file	"usb_lld.c"
  15              		.text
  16              	.Ltext0:
  17              		.cfi_sections	.debug_frame
  18              		.section	.text.otg_disable_ep,"ax",%progbits
  19              		.align	2
  20              		.p2align 4,,15
  21              		.thumb
  22              		.thumb_func
  23              		.type	otg_disable_ep, %function
  24              	otg_disable_ep:
  25              	.LFB120:
  26              		.file 1 "c:\\ChibiStudio\\chibios/os/hal/platforms/STM32/OTGv1/usb_lld.c"
  27              		.loc 1 148 0
  28              		.cfi_startproc
  29              		@ args = 0, pretend = 0, frame = 0
  30              		@ frame_needed = 0, uses_anonymous_args = 0
  31              		@ link register save eliminated.
  32              	.LVL0:
  33 0000 416D     		ldr	r1, [r0, #84]
  34              		.loc 1 149 0
  35 0002 036D     		ldr	r3, [r0, #80]
  36              	.LVL1:
  37              		.loc 1 152 0
  38 0004 0022     		movs	r2, #0
  39              		.loc 1 148 0
  40 0006 2DE9F001 		push	{r4, r5, r6, r7, r8}
  41              	.LCFI0:
  42              		.cfi_def_cfa_offset 20
  43              		.cfi_offset 4, -20
  44              		.cfi_offset 5, -16
  45              		.cfi_offset 6, -12
  46              		.cfi_offset 7, -8
  47              		.cfi_offset 8, -4
  48              		.loc 1 163 0
  49 000a 1046     		mov	r0, r2
  50              	.LVL2:
  51 000c 8F68     		ldr	r7, [r1, #8]
  52              		.loc 1 157 0
  53 000e 4FF0804C 		mov	ip, #1073741824
  54              		.loc 1 165 0
  55 0012 4FF0FF36 		mov	r6, #-1
  56 0016 17E0     		b	.L8
  57              	.LVL3:
ARM GAS  C:\Users\srich\AppData\Local\Temp\cc7Prgoh.s 			page 2


  58              	.L2:
  59              		.loc 1 163 0
  60 0018 5850     		str	r0, [r3, r1]
  61 001a 5501     		lsls	r5, r2, #5
  62              	.L4:
  63              		.loc 1 164 0
  64 001c 5C19     		adds	r4, r3, r5
  65              		.loc 1 171 0
  66 001e 02F15801 		add	r1, r2, #88
  67 0022 4901     		lsls	r1, r1, #5
  68              		.loc 1 164 0
  69 0024 C4F81009 		str	r0, [r4, #2320]
  70              		.loc 1 165 0
  71 0028 C4F80869 		str	r6, [r4, #2312]
  72              		.loc 1 171 0
  73 002c 53F80180 		ldr	r8, [r3, r1]
  74 0030 B8F1000F 		cmp	r8, #0
  75 0034 17DB     		blt	.L19
  76              		.loc 1 178 0
  77 0036 5850     		str	r0, [r3, r1]
  78              	.L7:
  79              		.loc 1 179 0
  80 0038 5D19     		adds	r5, r3, r5
  81              		.loc 1 152 0
  82 003a 0132     		adds	r2, r2, #1
  83              	.LVL4:
  84 003c BA42     		cmp	r2, r7
  85              		.loc 1 179 0
  86 003e C5F8100B 		str	r0, [r5, #2832]
  87              		.loc 1 180 0
  88 0042 C5F8086B 		str	r6, [r5, #2824]
  89              		.loc 1 152 0
  90 0046 15D8     		bhi	.L20
  91              	.LVL5:
  92              	.L8:
  93              		.loc 1 156 0
  94 0048 02F14804 		add	r4, r2, #72
  95 004c 6101     		lsls	r1, r4, #5
  96 004e 5D58     		ldr	r5, [r3, r1]
  97 0050 002D     		cmp	r5, #0
  98 0052 E1DA     		bge	.L2
  99 0054 5501     		lsls	r5, r2, #5
 100              		.loc 1 157 0
 101 0056 43F801C0 		str	ip, [r3, r1]
 102              		.loc 1 159 0
 103 005a 5C19     		adds	r4, r3, r5
 104              	.L3:
 105              		.loc 1 159 0 is_stmt 0 discriminator 1
 106 005c D4F80819 		ldr	r1, [r4, #2312]
 107 0060 8907     		lsls	r1, r1, #30
 108 0062 FBD5     		bpl	.L3
 109 0064 DAE7     		b	.L4
 110              	.L19:
 111              		.loc 1 172 0 is_stmt 1
 112 0066 43F801C0 		str	ip, [r3, r1]
 113              	.L6:
 114              		.loc 1 174 0 discriminator 1
ARM GAS  C:\Users\srich\AppData\Local\Temp\cc7Prgoh.s 			page 3


 115 006a D4F8081B 		ldr	r1, [r4, #2824]
 116 006e C906     		lsls	r1, r1, #27
 117 0070 FBD5     		bpl	.L6
 118 0072 E1E7     		b	.L7
 119              	.LVL6:
 120              	.L20:
 121              		.loc 1 182 0
 122 0074 4FF00110 		mov	r0, #65537
 123 0078 C3F81C08 		str	r0, [r3, #2076]
 124              		.loc 1 183 0
 125 007c BDE8F001 		pop	{r4, r5, r6, r7, r8}
 126 0080 7047     		bx	lr
 127              		.cfi_endproc
 128              	.LFE120:
 129              		.size	otg_disable_ep, .-otg_disable_ep
 130 0082 00BFAFF3 		.section	.text.otg_txfifo_flush,"ax",%progbits
 130      0080AFF3 
 130      0080AFF3 
 130      0080
 131              		.align	2
 132              		.p2align 4,,15
 133              		.thumb
 134              		.thumb_func
 135              		.type	otg_txfifo_flush, %function
 136              	otg_txfifo_flush:
 137              	.LFB122:
 138              		.loc 1 195 0
 139              		.cfi_startproc
 140              		@ args = 0, pretend = 0, frame = 0
 141              		@ frame_needed = 0, uses_anonymous_args = 0
 142              		@ link register save eliminated.
 143              	.LVL7:
 144              		.loc 1 196 0
 145 0000 026D     		ldr	r2, [r0, #80]
 146              	.LVL8:
 147              		.loc 1 198 0
 148 0002 8901     		lsls	r1, r1, #6
 149              	.LVL9:
 150 0004 41F02003 		orr	r3, r1, #32
 151 0008 1361     		str	r3, [r2, #16]
 152              	.LVL10:
 153              	.L22:
 154              		.loc 1 199 0 discriminator 1
 155 000a 1069     		ldr	r0, [r2, #16]
 156 000c 8306     		lsls	r3, r0, #26
 157 000e FCD4     		bmi	.L22
 158              		.loc 1 202 0
 159 0010 0C20     		movs	r0, #12
 160              		.loc 1 203 0
 161              		.loc 1 202 0
 162 0012 FFF7FEBF 		b	halPolledDelay
 163              	.LVL11:
 164              		.cfi_endproc
 165              	.LFE122:
 166              		.size	otg_txfifo_flush, .-otg_txfifo_flush
 167 0016 00BFAFF3 		.section	.text.usb_lld_pump,"ax",%progbits
 167      0080AFF3 
ARM GAS  C:\Users\srich\AppData\Local\Temp\cc7Prgoh.s 			page 4


 167      0080
 168              		.align	2
 169              		.p2align 4,,15
 170              		.thumb
 171              		.thumb_func
 172              		.type	usb_lld_pump, %function
 173              	usb_lld_pump:
 174              	.LFB136:
 175              		.loc 1 715 0
 176              		.cfi_startproc
 177              		@ args = 0, pretend = 0, frame = 24
 178              		@ frame_needed = 0, uses_anonymous_args = 0
 179              	.LVL12:
 180 0000 2DE9F04F 		push	{r4, r5, r6, r7, r8, r9, sl, fp, lr}
 181              	.LCFI1:
 182              		.cfi_def_cfa_offset 36
 183              		.cfi_offset 4, -36
 184              		.cfi_offset 5, -32
 185              		.cfi_offset 6, -28
 186              		.cfi_offset 7, -24
 187              		.cfi_offset 8, -20
 188              		.cfi_offset 9, -16
 189              		.cfi_offset 10, -12
 190              		.cfi_offset 11, -8
 191              		.cfi_offset 14, -4
 192              		.loc 1 719 0
 193 0004 40F20001 		movw	r1, #:lower16:rlist
 194 0008 C0F20001 		movt	r1, #:upper16:rlist
 195              		.loc 1 717 0
 196 000c D0F850A0 		ldr	sl, [r0, #80]
 197              		.loc 1 719 0
 198 0010 8A69     		ldr	r2, [r1, #24]
 199              		.loc 1 715 0
 200 0012 8346     		mov	fp, r0
 201              	.LVL13:
 202              		.loc 1 719 0
 203 0014 9148     		ldr	r0, .L208
 204              	.LVL14:
 205              		.loc 1 715 0
 206 0016 87B0     		sub	sp, sp, #28
 207              	.LCFI2:
 208              		.cfi_def_cfa_offset 64
 209              	.LBB97:
 210              		.loc 1 720 0
 211 0018 2023     		movs	r3, #32
 212              	.LVL15:
 213              	.LBE97:
 214              		.loc 1 719 0
 215 001a 9061     		str	r0, [r2, #24]
 216              	.LBB98:
 217              		.loc 1 720 0
 218              	@ 720 "c:\ChibiStudio\chibios/os/hal/platforms/STM32/OTGv1/usb_lld.c" 1
 219 001c 83F31188 		msr     BASEPRI, r3
 220              	@ 0 "" 2
 221              	.LVL16:
 222              		.thumb
 223              	.LBE98:
ARM GAS  C:\Users\srich\AppData\Local\Temp\cc7Prgoh.s 			page 5


 224              	.LBB99:
 225              	.LBB100:
 226              		.loc 1 732 0
 227 0020 4FF00008 		mov	r8, #0
 228              	.LVL17:
 229              	.L87:
 230              	.LBE100:
 231              		.loc 1 726 0
 232 0024 9BF80030 		ldrb	r3, [fp, #0]	@ zero_extendqisi2
 233              	.LVL18:
 234 0028 012B     		cmp	r3, #1
 235 002a 06D0     		beq	.L25
 236              		.loc 1 726 0 is_stmt 0 discriminator 1
 237 002c DBF85C40 		ldr	r4, [fp, #92]
 238 0030 9CB9     		cbnz	r4, .L26
 239              		.loc 1 727 0 is_stmt 1
 240 0032 DAF81450 		ldr	r5, [sl, #20]
 241 0036 EB06     		lsls	r3, r5, #27
 242 0038 0FD4     		bmi	.L26
 243              	.L25:
 244              		.loc 1 729 0
 245 003a 40F20007 		movw	r7, #:lower16:rlist
 246 003e C0F20007 		movt	r7, #:upper16:rlist
 247              		.loc 1 728 0
 248 0042 DAF81860 		ldr	r6, [sl, #24]
 249              		.loc 1 729 0
 250 0046 B969     		ldr	r1, [r7, #24]
 251              		.loc 1 728 0
 252 0048 46F01002 		orr	r2, r6, #16
 253 004c CAF81820 		str	r2, [sl, #24]
 254              		.loc 1 730 0
 255 0050 0220     		movs	r0, #2
 256              		.loc 1 729 0
 257 0052 CBF86410 		str	r1, [fp, #100]
 258              		.loc 1 730 0
 259 0056 FFF7FEFF 		bl	chSchGoSleepS
 260              	.LVL19:
 261              	.L26:
 262              	.LBB101:
 263              		.loc 1 732 0
 264 005a 0023     		movs	r3, #0
 265              	.LVL20:
 266              	@ 732 "c:\ChibiStudio\chibios/os/hal/platforms/STM32/OTGv1/usb_lld.c" 1
 267 005c 83F31188 		msr     BASEPRI, r3
 268              	@ 0 "" 2
 269              	.LVL21:
 270              		.loc 1 735 0
 271              		.thumb
 272 0060 1C46     		mov	r4, r3
 273              	.LVL22:
 274              	.L180:
 275              	.LBE101:
 276              		.loc 1 738 0 discriminator 1
 277 0062 DAF81400 		ldr	r0, [sl, #20]
 278 0066 10F01007 		ands	r7, r0, #16
 279 006a 3AD0     		beq	.L204
 280              	.L52:
ARM GAS  C:\Users\srich\AppData\Local\Temp\cc7Prgoh.s 			page 6


 281              	.LVL23:
 282              	.LBB102:
 283              	.LBB103:
 284              		.loc 1 455 0
 285 006c DBF85000 		ldr	r0, [fp, #80]
 286 0070 016A     		ldr	r1, [r0, #32]
 287              	.LVL24:
 288              		.loc 1 456 0
 289 0072 01F4F015 		and	r5, r1, #1966080
 290 0076 B5F5802F 		cmp	r5, #262144
 291 007a 47D0     		beq	.L29
 292 007c B5F5402F 		cmp	r5, #786432
 293 0080 EFD1     		bne	.L180
 294              	.LVL25:
 295              		.loc 1 461 0
 296 0082 01F00F07 		and	r7, r1, #15
 297              	.LVL26:
 298              		.loc 1 462 0
 299 0086 0BEB8702 		add	r2, fp, r7, lsl #2
 300              		.loc 1 460 0
 301 008a C1F30A16 		ubfx	r6, r1, #4, #11
 302              		.loc 1 462 0
 303 008e D368     		ldr	r3, [r2, #12]
 304              	.LVL27:
 305              	.LBB104:
 306              	.LBB105:
 307              		.loc 1 373 0
 308 0090 F11C     		adds	r1, r6, #3
 309              	.LVL28:
 310              		.loc 1 375 0
 311 0092 8D08     		lsrs	r5, r1, #2
 312              	.LBE105:
 313              	.LBE104:
 314              		.loc 1 462 0
 315 0094 1F6A     		ldr	r7, [r3, #32]
 316              	.LVL29:
 317              	.LBB112:
 318              	.LBB111:
 319              		.loc 1 375 0
 320 0096 E4D0     		beq	.L180
 321 0098 00F58050 		add	r0, r0, #4096
 322              	.LVL30:
 323 009c 6A1E     		subs	r2, r5, #1
 324              	.LBB106:
 325              		.loc 1 376 0
 326 009e 0368     		ldr	r3, [r0, #0]
 327              	.LVL31:
 328              	.LBE106:
 329              		.loc 1 375 0
 330 00a0 1146     		mov	r1, r2
 331              	.LBB107:
 332              		.loc 1 380 0
 333 00a2 47F8043B 		str	r3, [r7], #4
 334              	.LVL32:
 335 00a6 02F00106 		and	r6, r2, #1
 336              		.loc 1 382 0
 337 00aa 0123     		movs	r3, #1
ARM GAS  C:\Users\srich\AppData\Local\Temp\cc7Prgoh.s 			page 7


 338              	.LVL33:
 339              	.LBE107:
 340              		.loc 1 375 0
 341 00ac 002A     		cmp	r2, #0
 342 00ae D8D0     		beq	.L180
 343 00b0 2EB1     		cbz	r6, .L31
 344              	.LBB108:
 345              		.loc 1 376 0
 346 00b2 0568     		ldr	r5, [r0, #0]
 347              	.LVL34:
 348              		.loc 1 382 0
 349 00b4 0023     		movs	r3, #0
 350              	.LVL35:
 351              	.LBE108:
 352              		.loc 1 375 0
 353 00b6 511E     		subs	r1, r2, #1
 354              	.LVL36:
 355              	.LBB109:
 356              		.loc 1 380 0
 357 00b8 47F8045B 		str	r5, [r7], #4
 358              	.LVL37:
 359              	.LBE109:
 360              		.loc 1 375 0
 361 00bc D1D0     		beq	.L180
 362              	.L31:
 363              	.LBB110:
 364              		.loc 1 376 0
 365 00be 0268     		ldr	r2, [r0, #0]
 366              		.loc 1 377 0
 367 00c0 13B1     		cbz	r3, .L33
 368              		.loc 1 380 0
 369 00c2 47F8042B 		str	r2, [r7], #4
 370              	.LVL38:
 371              		.loc 1 382 0
 372 00c6 013B     		subs	r3, r3, #1
 373              	.LVL39:
 374              	.L33:
 375              		.loc 1 384 0
 376 00c8 0139     		subs	r1, r1, #1
 377              		.loc 1 376 0
 378 00ca 0668     		ldr	r6, [r0, #0]
 379              		.loc 1 377 0
 380 00cc 13B1     		cbz	r3, .L141
 381              		.loc 1 380 0
 382 00ce 47F8046B 		str	r6, [r7], #4
 383              	.LVL40:
 384              		.loc 1 382 0
 385 00d2 013B     		subs	r3, r3, #1
 386              	.LVL41:
 387              	.L141:
 388              	.LBE110:
 389              		.loc 1 375 0
 390 00d4 0139     		subs	r1, r1, #1
 391 00d6 F2D1     		bne	.L31
 392              	.LBE111:
 393              	.LBE112:
 394              	.LBE103:
ARM GAS  C:\Users\srich\AppData\Local\Temp\cc7Prgoh.s 			page 8


 395              	.LBE102:
 396              		.loc 1 738 0
 397 00d8 DAF81400 		ldr	r0, [sl, #20]
 398              	.LVL42:
 399 00dc 10F01007 		ands	r7, r0, #16
 400              	.LVL43:
 401 00e0 C4D1     		bne	.L52
 402              	.LVL44:
 403              	.L204:
 404              		.loc 1 742 0
 405 00e2 0125     		movs	r5, #1
 406              		.loc 1 743 0
 407 00e4 DBF85C30 		ldr	r3, [fp, #92]
 408              	.LVL45:
 409              		.loc 1 742 0
 410 00e8 A540     		lsls	r5, r5, r4
 411              		.loc 1 743 0
 412 00ea 1D42     		tst	r5, r3
 413              		.loc 1 742 0
 414 00ec 0495     		str	r5, [sp, #16]
 415              	.LVL46:
 416              		.loc 1 743 0
 417 00ee 40F0B780 		bne	.L185
 418 00f2 0134     		adds	r4, r4, #1
 419 00f4 0594     		str	r4, [sp, #20]
 420              	.LVL47:
 421              	.L53:
 422              		.loc 1 735 0
 423 00f6 DBF85420 		ldr	r2, [fp, #84]
 424 00fa 059B     		ldr	r3, [sp, #20]
 425              	.LVL48:
 426 00fc 9068     		ldr	r0, [r2, #8]
 427 00fe DCB2     		uxtb	r4, r3
 428              	.LVL49:
 429 0100 8442     		cmp	r4, r0
 430 0102 AED9     		bls	.L180
 431              	.LBB129:
 432              		.loc 1 767 0
 433 0104 2023     		movs	r3, #32
 434              	.LVL50:
 435              	@ 767 "c:\ChibiStudio\chibios/os/hal/platforms/STM32/OTGv1/usb_lld.c" 1
 436 0106 83F31188 		msr     BASEPRI, r3
 437              	@ 0 "" 2
 438              	.LVL51:
 439              		.thumb
 440              	.LBE129:
 441              	.LBE99:
 442              		.loc 1 768 0
 443 010a 8BE7     		b	.L87
 444              	.LVL52:
 445              	.L29:
 446              	.LBB166:
 447              	.LBB130:
 448              	.LBB128:
 449              		.loc 1 467 0
 450 010c 01F00F07 		and	r7, r1, #15
 451              		.loc 1 468 0
ARM GAS  C:\Users\srich\AppData\Local\Temp\cc7Prgoh.s 			page 9


 452 0110 0237     		adds	r7, r7, #2
 453 0112 0BEB8705 		add	r5, fp, r7, lsl #2
 454              		.loc 1 466 0
 455 0116 C1F30A16 		ubfx	r6, r1, #4, #11
 456              	.LVL53:
 457              		.loc 1 468 0
 458 011a 6A68     		ldr	r2, [r5, #4]
 459 011c 9169     		ldr	r1, [r2, #24]
 460              	.LVL54:
 461 011e 0B78     		ldrb	r3, [r1, #0]	@ zero_extendqisi2
 462              	.LVL55:
 463 0120 002B     		cmp	r3, #0
 464 0122 3BD1     		bne	.L205
 465              		.loc 1 475 0
 466 0124 0D1D     		adds	r5, r1, #4
 467 0126 2CCD     		ldmia	r5, {r2, r3, r5}
 468              	.LVL56:
 469 0128 0332     		adds	r2, r2, #3
 470              	.LVL57:
 471              	.LBB113:
 472              	.LBB114:
 473              		.loc 1 374 0
 474 012a D31A     		subs	r3, r2, r3
 475              		.loc 1 373 0
 476 012c F21C     		adds	r2, r6, #3
 477              	.LVL58:
 478              		.loc 1 374 0
 479 012e 9B08     		lsrs	r3, r3, #2
 480              	.LVL59:
 481              		.loc 1 375 0
 482 0130 9208     		lsrs	r2, r2, #2
 483              	.LVL60:
 484 0132 29D0     		beq	.L51
 485 0134 00F58050 		add	r0, r0, #4096
 486              	.LVL61:
 487 0138 02F1FF39 		add	r9, r2, #-1
 488 013c 09F0010C 		and	ip, r9, #1
 489 0140 AE46     		mov	lr, r5
 490              	.LBB115:
 491              		.loc 1 376 0
 492 0142 D0F80090 		ldr	r9, [r0, #0]
 493              	.LVL62:
 494              		.loc 1 377 0
 495 0146 1BB1     		cbz	r3, .L129
 496              		.loc 1 380 0
 497 0148 AE46     		mov	lr, r5
 498              		.loc 1 382 0
 499 014a 013B     		subs	r3, r3, #1
 500              	.LVL63:
 501              		.loc 1 380 0
 502 014c 4EF8049B 		str	r9, [lr], #4
 503              	.LVL64:
 504              	.L129:
 505              	.LBE115:
 506              		.loc 1 375 0
 507 0150 013A     		subs	r2, r2, #1
 508              	.LVL65:
ARM GAS  C:\Users\srich\AppData\Local\Temp\cc7Prgoh.s 			page 10


 509 0152 19D0     		beq	.L51
 510 0154 BCF1000F 		cmp	ip, #0
 511 0158 07D0     		beq	.L197
 512              	.LBB116:
 513              		.loc 1 376 0
 514 015a D0F800C0 		ldr	ip, [r0, #0]
 515              	.LVL66:
 516              		.loc 1 377 0
 517 015e 13B1     		cbz	r3, .L131
 518              		.loc 1 380 0
 519 0160 4EF804CB 		str	ip, [lr], #4
 520              	.LVL67:
 521              		.loc 1 382 0
 522 0164 013B     		subs	r3, r3, #1
 523              	.LVL68:
 524              	.L131:
 525              	.LBE116:
 526              		.loc 1 375 0
 527 0166 013A     		subs	r2, r2, #1
 528 0168 0ED0     		beq	.L51
 529              	.L197:
 530 016a 8946     		mov	r9, r1
 531              	.L50:
 532              	.LBB117:
 533              		.loc 1 376 0
 534 016c 0168     		ldr	r1, [r0, #0]
 535              		.loc 1 377 0
 536 016e 13B1     		cbz	r3, .L49
 537              		.loc 1 380 0
 538 0170 4EF8041B 		str	r1, [lr], #4
 539              	.LVL69:
 540              		.loc 1 382 0
 541 0174 013B     		subs	r3, r3, #1
 542              	.LVL70:
 543              	.L49:
 544              		.loc 1 384 0
 545 0176 013A     		subs	r2, r2, #1
 546              		.loc 1 376 0
 547 0178 0168     		ldr	r1, [r0, #0]
 548              		.loc 1 377 0
 549 017a 13B1     		cbz	r3, .L134
 550              		.loc 1 380 0
 551 017c 4EF8041B 		str	r1, [lr], #4
 552              	.LVL71:
 553              		.loc 1 382 0
 554 0180 013B     		subs	r3, r3, #1
 555              	.LVL72:
 556              	.L134:
 557              	.LBE117:
 558              		.loc 1 375 0
 559 0182 013A     		subs	r2, r2, #1
 560 0184 F2D1     		bne	.L50
 561 0186 4946     		mov	r1, r9
 562              	.LVL73:
 563              	.L51:
 564              	.LBE114:
 565              	.LBE113:
ARM GAS  C:\Users\srich\AppData\Local\Temp\cc7Prgoh.s 			page 11


 566              		.loc 1 480 0
 567 0188 AD19     		adds	r5, r5, r6
 568 018a CD60     		str	r5, [r1, #12]
 569              	.LVL74:
 570              	.L45:
 571              		.loc 1 482 0
 572 018c 0BEB8707 		add	r7, fp, r7, lsl #2
 573              	.LVL75:
 574 0190 7868     		ldr	r0, [r7, #4]
 575 0192 8569     		ldr	r5, [r0, #24]
 576 0194 A968     		ldr	r1, [r5, #8]
 577 0196 8E19     		adds	r6, r1, r6
 578              	.LVL76:
 579 0198 AE60     		str	r6, [r5, #8]
 580 019a 62E7     		b	.L180
 581              	.LVL77:
 582              	.L205:
 583              		.loc 1 470 0
 584 019c 00F58050 		add	r0, r0, #4096
 585 01a0 CD68     		ldr	r5, [r1, #12]
 586              	.LVL78:
 587              	.LBB118:
 588              	.LBB119:
 589              		.loc 1 403 0
 590 01a2 002E     		cmp	r6, #0
 591 01a4 40D0     		beq	.L36
 592 01a6 3346     		mov	r3, r6
 593 01a8 A446     		mov	ip, r4
 594              	.LVL79:
 595              	.L179:
 596              	.LBB120:
 597              		.loc 1 407 0
 598 01aa 032B     		cmp	r3, #3
 599              	.LBB121:
 600              		.loc 1 413 0
 601 01ac 6969     		ldr	r1, [r5, #20]
 602              	.LBE121:
 603              		.loc 1 407 0
 604 01ae 07D9     		bls	.L38
 605              	.LVL80:
 606              	.L182:
 607              	.LBB122:
 608              		.loc 1 413 0
 609 01b0 2C69     		ldr	r4, [r5, #16]
 610 01b2 A142     		cmp	r1, r4
 611 01b4 04D3     		bcc	.L38
 612              		.loc 1 414 0
 613 01b6 EC68     		ldr	r4, [r5, #12]
 614              	.LBE122:
 615              		.loc 1 407 0
 616 01b8 032B     		cmp	r3, #3
 617              	.LBB123:
 618              		.loc 1 414 0
 619 01ba 6C61     		str	r4, [r5, #20]
 620              	.LVL81:
 621              		.loc 1 413 0
 622 01bc 6969     		ldr	r1, [r5, #20]
ARM GAS  C:\Users\srich\AppData\Local\Temp\cc7Prgoh.s 			page 12


 623              	.LBE123:
 624              		.loc 1 407 0
 625 01be F7D8     		bhi	.L182
 626              	.LVL82:
 627              	.L38:
 628              		.loc 1 425 0
 629 01c0 0268     		ldr	r2, [r0, #0]
 630              	.LVL83:
 631              		.loc 1 428 0
 632 01c2 01F8012B 		strb	r2, [r1], #1
 633              		.loc 1 429 0
 634 01c6 2C69     		ldr	r4, [r5, #16]
 635              		.loc 1 428 0
 636 01c8 6961     		str	r1, [r5, #20]
 637              		.loc 1 429 0
 638 01ca A142     		cmp	r1, r4
 639              		.loc 1 430 0
 640 01cc 24BF     		itt	cs
 641 01ce E968     		ldrcs	r1, [r5, #12]
 642 01d0 6961     		strcs	r1, [r5, #20]
 643              		.loc 1 427 0
 644 01d2 012B     		cmp	r3, #1
 645 01d4 27D0     		beq	.L191
 646              	.LVL84:
 647              		.loc 1 428 0
 648 01d6 D5F814E0 		ldr	lr, [r5, #20]
 649 01da 110A     		lsrs	r1, r2, #8
 650 01dc 0EF8011B 		strb	r1, [lr], #1
 651              		.loc 1 429 0
 652 01e0 2C69     		ldr	r4, [r5, #16]
 653              		.loc 1 428 0
 654 01e2 C5F814E0 		str	lr, [r5, #20]
 655              		.loc 1 429 0
 656 01e6 A645     		cmp	lr, r4
 657              		.loc 1 430 0
 658 01e8 24BF     		itt	cs
 659 01ea EC68     		ldrcs	r4, [r5, #12]
 660 01ec 6C61     		strcs	r4, [r5, #20]
 661              		.loc 1 427 0
 662 01ee 022B     		cmp	r3, #2
 663 01f0 19D0     		beq	.L191
 664              	.LVL85:
 665              		.loc 1 428 0
 666 01f2 D5F81490 		ldr	r9, [r5, #20]
 667 01f6 110C     		lsrs	r1, r2, #16
 668 01f8 09F8011B 		strb	r1, [r9], #1
 669              		.loc 1 429 0
 670 01fc 2C69     		ldr	r4, [r5, #16]
 671              		.loc 1 428 0
 672 01fe C5F81490 		str	r9, [r5, #20]
 673              		.loc 1 429 0
 674 0202 A145     		cmp	r9, r4
 675              		.loc 1 430 0
 676 0204 24BF     		itt	cs
 677 0206 EC68     		ldrcs	r4, [r5, #12]
 678 0208 6C61     		strcs	r4, [r5, #20]
 679              		.loc 1 427 0
ARM GAS  C:\Users\srich\AppData\Local\Temp\cc7Prgoh.s 			page 13


 680 020a 032B     		cmp	r3, #3
 681 020c 0BD0     		beq	.L191
 682              	.LVL86:
 683              		.loc 1 428 0
 684 020e 6969     		ldr	r1, [r5, #20]
 685 0210 120E     		lsrs	r2, r2, #24
 686              	.LVL87:
 687 0212 01F8012B 		strb	r2, [r1], #1
 688              		.loc 1 429 0
 689 0216 2C69     		ldr	r4, [r5, #16]
 690              		.loc 1 428 0
 691 0218 6961     		str	r1, [r5, #20]
 692              		.loc 1 429 0
 693 021a A142     		cmp	r1, r4
 694              		.loc 1 430 0
 695 021c 24BF     		itt	cs
 696 021e EC68     		ldrcs	r4, [r5, #12]
 697 0220 6C61     		strcs	r4, [r5, #20]
 698              		.loc 1 427 0
 699 0222 043B     		subs	r3, r3, #4
 700              	.LVL88:
 701 0224 C1D1     		bne	.L179
 702              	.LVL89:
 703              	.L191:
 704 0226 6446     		mov	r4, ip
 705              	.L36:
 706              	.LBE120:
 707              	.LBB124:
 708              		.loc 1 437 0
 709 0228 2023     		movs	r3, #32
 710              	.LVL90:
 711              	@ 437 "c:\ChibiStudio\chibios/os/hal/platforms/STM32/OTGv1/usb_lld.c" 1
 712 022a 83F31188 		msr     BASEPRI, r3
 713              	@ 0 "" 2
 714              	.LVL91:
 715              		.thumb
 716              	.LBE124:
 717              		.loc 1 438 0
 718 022e A968     		ldr	r1, [r5, #8]
 719              		.loc 1 439 0
 720 0230 2868     		ldr	r0, [r5, #0]
 721              	.LVL92:
 722              		.loc 1 438 0
 723 0232 8A19     		adds	r2, r1, r6
 724              		.loc 1 439 0
 725 0234 A842     		cmp	r0, r5
 726              		.loc 1 438 0
 727 0236 AA60     		str	r2, [r5, #8]
 728              		.loc 1 439 0
 729 0238 09D0     		beq	.L47
 730              	.LVL93:
 731              	.L120:
 732              	.LBB125:
 733              	.LBB126:
 734              		.file 2 "c:\\ChibiStudio\\chibios/os/kernel/include/chinline.h"
 735              		.loc 2 62 0
 736 023a 0368     		ldr	r3, [r0, #0]
ARM GAS  C:\Users\srich\AppData\Local\Temp\cc7Prgoh.s 			page 14


 737              	.LVL94:
 738 023c 2B60     		str	r3, [r5, #0]
 739 023e 5D60     		str	r5, [r3, #4]
 740              	.LBE126:
 741              	.LBE125:
 742              		.loc 1 440 0
 743 0240 FFF7FEFF 		bl	chSchReadyI
 744              	.LVL95:
 745 0244 C0F82480 		str	r8, [r0, #36]
 746              		.loc 1 439 0
 747 0248 2868     		ldr	r0, [r5, #0]
 748 024a A842     		cmp	r0, r5
 749 024c F5D1     		bne	.L120
 750              	.LVL96:
 751              	.L47:
 752              		.loc 1 441 0
 753 024e FFF7FEFF 		bl	chSchRescheduleS
 754              	.LVL97:
 755              	.LBB127:
 756              		.loc 1 442 0
 757 0252 0023     		movs	r3, #0
 758              	@ 442 "c:\ChibiStudio\chibios/os/hal/platforms/STM32/OTGv1/usb_lld.c" 1
 759 0254 83F31188 		msr     BASEPRI, r3
 760              	@ 0 "" 2
 761              	.LVL98:
 762              		.thumb
 763 0258 98E7     		b	.L45
 764              	.L209:
 765 025a 00BF     		.align	2
 766              	.L208:
 767 025c 00000000 		.word	.LC0
 768              	.LVL99:
 769              	.L185:
 770              	.LBE127:
 771              	.LBE119:
 772              	.LBE118:
 773              	.LBE128:
 774              	.LBE130:
 775              	.LBB131:
 776              	.LBB132:
 777              		.loc 1 746 0
 778 0260 2023     		movs	r3, #32
 779              	.LVL100:
 780              	@ 746 "c:\ChibiStudio\chibios/os/hal/platforms/STM32/OTGv1/usb_lld.c" 1
 781 0262 83F31188 		msr     BASEPRI, r3
 782              	@ 0 "" 2
 783              	.LVL101:
 784              		.thumb
 785              	.LBE132:
 786              		.loc 1 754 0
 787 0266 DAF80860 		ldr	r6, [sl, #8]
 788              		.loc 1 755 0
 789 026a DBF85C10 		ldr	r1, [fp, #92]
 790 026e 0498     		ldr	r0, [sp, #16]
 791              		.loc 1 754 0
 792 0270 26F00102 		bic	r2, r6, #1
 793              		.loc 1 755 0
ARM GAS  C:\Users\srich\AppData\Local\Temp\cc7Prgoh.s 			page 15


 794 0274 21EA0005 		bic	r5, r1, r0
 795              	.LVL102:
 796              		.loc 1 754 0
 797 0278 CAF80820 		str	r2, [sl, #8]
 798              	.LBB133:
 799              		.loc 1 756 0
 800 027c 3B46     		mov	r3, r7
 801              	.LVL103:
 802              	.LBE133:
 803              		.loc 1 755 0
 804 027e CBF85C50 		str	r5, [fp, #92]
 805              	.LBB134:
 806              		.loc 1 756 0
 807              	@ 756 "c:\ChibiStudio\chibios/os/hal/platforms/STM32/OTGv1/usb_lld.c" 1
 808 0282 83F31188 		msr     BASEPRI, r3
 809              	@ 0 "" 2
 810              	.LVL104:
 811              		.thumb
 812              	.LBE134:
 813              	.LBB135:
 814              	.LBB136:
 815              		.loc 1 506 0
 816 0286 A71C     		adds	r7, r4, #2
 817 0288 0BEB8703 		add	r3, fp, r7, lsl #2
 818              	.LVL105:
 819 028c 5D68     		ldr	r5, [r3, #4]
 820 028e 6869     		ldr	r0, [r5, #20]
 821 0290 8268     		ldr	r2, [r0, #8]
 822 0292 4668     		ldr	r6, [r0, #4]
 823 0294 9642     		cmp	r6, r2
 824 0296 40F2FA80 		bls	.L206
 825              		.loc 1 516 0
 826 029a DBF85010 		ldr	r1, [fp, #80]
 827              		.loc 1 511 0
 828 029e 2D8A     		ldrh	r5, [r5, #16]
 829              		.loc 1 516 0
 830 02a0 6701     		lsls	r7, r4, #5
 831 02a2 0297     		str	r7, [sp, #8]
 832 02a4 CF19     		adds	r7, r1, r7
 833              		.loc 1 510 0
 834 02a6 B61A     		subs	r6, r6, r2
 835              	.LVL106:
 836              		.loc 1 516 0
 837 02a8 D7F81829 		ldr	r2, [r7, #2328]
 838 02ac B542     		cmp	r5, r6
 839 02ae 28BF     		it	cs
 840 02b0 3546     		movcs	r5, r6
 841              	.LVL107:
 842 02b2 97B2     		uxth	r7, r2
 843 02b4 0134     		adds	r4, r4, #1
 844              	.LVL108:
 845 02b6 B5EB870F 		cmp	r5, r7, lsl #2
 846 02ba 0594     		str	r4, [sp, #20]
 847 02bc 47D8     		bhi	.L57
 848              		.loc 1 531 0
 849 02be 2603     		lsls	r6, r4, #12
 850 02c0 0196     		str	r6, [sp, #4]
ARM GAS  C:\Users\srich\AppData\Local\Temp\cc7Prgoh.s 			page 16


 851              		.loc 1 539 0
 852 02c2 0393     		str	r3, [sp, #12]
 853              	.LVL109:
 854              	.L58:
 855              		.loc 1 523 0
 856 02c4 0378     		ldrb	r3, [r0, #0]	@ zero_extendqisi2
 857 02c6 002B     		cmp	r3, #0
 858 02c8 57D1     		bne	.L207
 859              		.loc 1 531 0
 860 02ca 019F     		ldr	r7, [sp, #4]
 861              	.LBB137:
 862              	.LBB138:
 863              		.loc 1 272 0
 864 02cc EA1C     		adds	r2, r5, #3
 865              	.LBB139:
 866              	.LBB140:
 867              		.loc 1 249 0
 868 02ce 5FEA920E 		lsrs	lr, r2, #2
 869              	.LBE140:
 870              	.LBE139:
 871              	.LBE138:
 872              	.LBE137:
 873              		.loc 1 531 0
 874 02d2 01EB0704 		add	r4, r1, r7
 875 02d6 C768     		ldr	r7, [r0, #12]
 876              	.LVL110:
 877              	.LBB147:
 878              	.LBB145:
 879              	.LBB143:
 880              	.LBB141:
 881              		.loc 1 249 0
 882 02d8 1ED0     		beq	.L81
 883              	.LBE141:
 884              	.LBE143:
 885              	.LBE145:
 886              	.LBE147:
 887              		.loc 1 715 0
 888 02da 3A46     		mov	r2, r7
 889 02dc 0EF1FF36 		add	r6, lr, #-1
 890              	.LBB148:
 891              	.LBB146:
 892              	.LBB144:
 893              	.LBB142:
 894              		.loc 1 252 0
 895 02e0 52F804CB 		ldr	ip, [r2], #4
 896              		.loc 1 249 0
 897 02e4 3346     		mov	r3, r6
 898 02e6 06F00109 		and	r9, r6, #1
 899              		.loc 1 252 0
 900 02ea 019E     		ldr	r6, [sp, #4]
 901 02ec 0432     		adds	r2, r2, #4
 902 02ee 41F806C0 		str	ip, [r1, r6]
 903              	.LVL111:
 904              		.loc 1 249 0
 905 02f2 8BB1     		cbz	r3, .L81
 906 02f4 B9F1000F 		cmp	r9, #0
 907 02f8 05D0     		beq	.L80
ARM GAS  C:\Users\srich\AppData\Local\Temp\cc7Prgoh.s 			page 17


 908              		.loc 1 252 0
 909 02fa 52F8041C 		ldr	r1, [r2, #-4]
 910 02fe 0432     		adds	r2, r2, #4
 911              		.loc 1 249 0
 912 0300 013B     		subs	r3, r3, #1
 913              		.loc 1 252 0
 914 0302 2160     		str	r1, [r4, #0]
 915              	.LVL112:
 916              		.loc 1 249 0
 917 0304 08D0     		beq	.L81
 918              	.L80:
 919              		.loc 1 252 0
 920 0306 52F8046C 		ldr	r6, [r2, #-4]
 921 030a 2660     		str	r6, [r4, #0]
 922 030c 52F8041B 		ldr	r1, [r2], #4
 923 0310 0432     		adds	r2, r2, #4
 924              		.loc 1 249 0
 925 0312 023B     		subs	r3, r3, #2
 926              		.loc 1 252 0
 927 0314 2160     		str	r1, [r4, #0]
 928              		.loc 1 249 0
 929 0316 F6D1     		bne	.L80
 930              	.L81:
 931              	.LBE142:
 932              	.LBE144:
 933              	.LBE146:
 934              	.LBE148:
 935              		.loc 1 534 0
 936 0318 7C19     		adds	r4, r7, r5
 937              	.LVL113:
 938 031a C460     		str	r4, [r0, #12]
 939              	.LVL114:
 940              	.L77:
 941              		.loc 1 539 0
 942 031c 0398     		ldr	r0, [sp, #12]
 943 031e 4468     		ldr	r4, [r0, #4]
 944 0320 6069     		ldr	r0, [r4, #20]
 945 0322 8668     		ldr	r6, [r0, #8]
 946              		.loc 1 506 0
 947 0324 4268     		ldr	r2, [r0, #4]
 948              		.loc 1 539 0
 949 0326 AB19     		adds	r3, r5, r6
 950              	.LVL115:
 951              		.loc 1 506 0
 952 0328 9A42     		cmp	r2, r3
 953              		.loc 1 539 0
 954 032a 8360     		str	r3, [r0, #8]
 955              		.loc 1 506 0
 956 032c 40F2B180 		bls	.L82
 957              		.loc 1 516 0
 958 0330 029D     		ldr	r5, [sp, #8]
 959              	.LVL116:
 960 0332 DBF85010 		ldr	r1, [fp, #80]
 961              		.loc 1 511 0
 962 0336 248A     		ldrh	r4, [r4, #16]
 963              		.loc 1 516 0
 964 0338 4F19     		adds	r7, r1, r5
ARM GAS  C:\Users\srich\AppData\Local\Temp\cc7Prgoh.s 			page 18


 965              		.loc 1 510 0
 966 033a D51A     		subs	r5, r2, r3
 967              	.LVL117:
 968              		.loc 1 516 0
 969 033c D7F81869 		ldr	r6, [r7, #2328]
 970 0340 A542     		cmp	r5, r4
 971 0342 28BF     		it	cs
 972 0344 2546     		movcs	r5, r4
 973              	.LVL118:
 974 0346 B2B2     		uxth	r2, r6
 975 0348 B5EB820F 		cmp	r5, r2, lsl #2
 976 034c BAD9     		bls	.L58
 977              	.L57:
 978              	.LBB149:
 979              	.LBB150:
 980              		.loc 1 517 0
 981 034e 0020     		movs	r0, #0
 982              	.LVL119:
 983              	.L55:
 984              	.LBE150:
 985              	.LBE149:
 986              	.LBE136:
 987              	.LBE135:
 988              	.LBB163:
 989              		.loc 1 760 0
 990 0350 2023     		movs	r3, #32
 991              	.LVL120:
 992              	@ 760 "c:\ChibiStudio\chibios/os/hal/platforms/STM32/OTGv1/usb_lld.c" 1
 993 0352 83F31188 		msr     BASEPRI, r3
 994              	@ 0 "" 2
 995              	.LVL121:
 996              		.thumb
 997              	.LBE163:
 998              		.loc 1 761 0
 999 0356 DAF80810 		ldr	r1, [sl, #8]
 1000 035a 41F00104 		orr	r4, r1, #1
 1001 035e CAF80840 		str	r4, [sl, #8]
 1002              		.loc 1 762 0
 1003 0362 30B9     		cbnz	r0, .L84
 1004              		.loc 1 763 0
 1005 0364 DAF83458 		ldr	r5, [sl, #2100]
 1006 0368 049F     		ldr	r7, [sp, #16]
 1007 036a 47EA0506 		orr	r6, r7, r5
 1008 036e CAF83468 		str	r6, [sl, #2100]
 1009              	.L84:
 1010              	.LBB164:
 1011              		.loc 1 764 0
 1012 0372 0023     		movs	r3, #0
 1013              	.LVL122:
 1014              	@ 764 "c:\ChibiStudio\chibios/os/hal/platforms/STM32/OTGv1/usb_lld.c" 1
 1015 0374 83F31188 		msr     BASEPRI, r3
 1016              	@ 0 "" 2
 1017              	.LVL123:
 1018              		.thumb
 1019 0378 BDE6     		b	.L53
 1020              	.LVL124:
 1021              	.L207:
ARM GAS  C:\Users\srich\AppData\Local\Temp\cc7Prgoh.s 			page 19


 1022              	.LBE164:
 1023              	.LBB165:
 1024              	.LBB162:
 1025              		.loc 1 525 0
 1026 037a 019A     		ldr	r2, [sp, #4]
 1027 037c C468     		ldr	r4, [r0, #12]
 1028 037e 8918     		adds	r1, r1, r2
 1029              	.LVL125:
 1030              	.LBB161:
 1031              	.LBB160:
 1032              		.loc 1 290 0
 1033 0380 002D     		cmp	r5, #0
 1034 0382 35D0     		beq	.L69
 1035 0384 2069     		ldr	r0, [r4, #16]
 1036 0386 2A46     		mov	r2, r5
 1037 0388 AE46     		mov	lr, r5
 1038              	.LVL126:
 1039              	.L76:
 1040              	.LBB151:
 1041              		.loc 1 294 0
 1042 038a 9708     		lsrs	r7, r2, #2
 1043              	.LVL127:
 1044 038c 4BD0     		beq	.L63
 1045              	.LBB152:
 1046              		.loc 1 296 0
 1047 038e A569     		ldr	r5, [r4, #24]
 1048              	.LVL128:
 1049 0390 431B     		subs	r3, r0, r5
 1050 0392 48BF     		it	mi
 1051 0394 0333     		addmi	r3, r3, #3
 1052 0396 9B10     		asrs	r3, r3, #2
 1053              		.loc 1 298 0
 1054 0398 9F42     		cmp	r7, r3
 1055 039a 38BF     		it	cc
 1056 039c 3B46     		movcc	r3, r7
 1057              	.LVL129:
 1058 039e 4FEA830C 		lsl	ip, r3, #2
 1059 03a2 CCEB0202 		rsb	r2, ip, r2
 1060              	.LVL130:
 1061              	.LBB153:
 1062              	.LBB154:
 1063              		.loc 1 249 0
 1064 03a6 DBB1     		cbz	r3, .L65
 1065              		.loc 1 715 0
 1066 03a8 2E46     		mov	r6, r5
 1067 03aa 5F1E     		subs	r7, r3, #1
 1068              	.LVL131:
 1069              		.loc 1 252 0
 1070 03ac 56F8049B 		ldr	r9, [r6], #4
 1071              		.loc 1 249 0
 1072 03b0 3B46     		mov	r3, r7
 1073              	.LVL132:
 1074              		.loc 1 252 0
 1075 03b2 C1F80090 		str	r9, [r1, #0]
 1076              	.LVL133:
 1077 03b6 07F00107 		and	r7, r7, #1
 1078 03ba 0436     		adds	r6, r6, #4
ARM GAS  C:\Users\srich\AppData\Local\Temp\cc7Prgoh.s 			page 20


 1079              		.loc 1 249 0
 1080 03bc 7BB1     		cbz	r3, .L187
 1081 03be 2FB1     		cbz	r7, .L66
 1082              		.loc 1 252 0
 1083 03c0 56F8047C 		ldr	r7, [r6, #-4]
 1084 03c4 0436     		adds	r6, r6, #4
 1085              		.loc 1 249 0
 1086 03c6 013B     		subs	r3, r3, #1
 1087              	.LVL134:
 1088              		.loc 1 252 0
 1089 03c8 0F60     		str	r7, [r1, #0]
 1090              	.LVL135:
 1091              		.loc 1 249 0
 1092 03ca 08D0     		beq	.L187
 1093              	.LVL136:
 1094              	.L66:
 1095              		.loc 1 252 0
 1096 03cc 56F8047C 		ldr	r7, [r6, #-4]
 1097 03d0 0F60     		str	r7, [r1, #0]
 1098 03d2 56F8047B 		ldr	r7, [r6], #4
 1099 03d6 0436     		adds	r6, r6, #4
 1100              		.loc 1 249 0
 1101 03d8 023B     		subs	r3, r3, #2
 1102              		.loc 1 252 0
 1103 03da 0F60     		str	r7, [r1, #0]
 1104              		.loc 1 249 0
 1105 03dc F6D1     		bne	.L66
 1106              	.L187:
 1107 03de 6544     		add	r5, r5, ip
 1108              	.LVL137:
 1109              	.L65:
 1110              	.LBE154:
 1111              	.LBE153:
 1112              		.loc 1 300 0
 1113 03e0 A842     		cmp	r0, r5
 1114              		.loc 1 299 0
 1115 03e2 A561     		str	r5, [r4, #24]
 1116              		.loc 1 300 0
 1117 03e4 1DD8     		bhi	.L67
 1118              		.loc 1 301 0
 1119 03e6 E668     		ldr	r6, [r4, #12]
 1120 03e8 A661     		str	r6, [r4, #24]
 1121              	.LBE152:
 1122              	.LBE151:
 1123              		.loc 1 290 0
 1124 03ea 002A     		cmp	r2, #0
 1125 03ec CDD1     		bne	.L76
 1126              	.LVL138:
 1127              	.L195:
 1128 03ee 7546     		mov	r5, lr
 1129              	.LVL139:
 1130              	.L69:
 1131              	.LBB155:
 1132              		.loc 1 325 0
 1133 03f0 2023     		movs	r3, #32
 1134              	.LVL140:
 1135              	@ 325 "c:\ChibiStudio\chibios/os/hal/platforms/STM32/OTGv1/usb_lld.c" 1
ARM GAS  C:\Users\srich\AppData\Local\Temp\cc7Prgoh.s 			page 21


 1136 03f2 83F31188 		msr     BASEPRI, r3
 1137              	@ 0 "" 2
 1138              	.LVL141:
 1139              		.thumb
 1140              	.LBE155:
 1141              		.loc 1 326 0
 1142 03f6 A168     		ldr	r1, [r4, #8]
 1143              	.LVL142:
 1144              		.loc 1 327 0
 1145 03f8 2068     		ldr	r0, [r4, #0]
 1146              		.loc 1 326 0
 1147 03fa 4F19     		adds	r7, r1, r5
 1148              		.loc 1 327 0
 1149 03fc A042     		cmp	r0, r4
 1150              		.loc 1 326 0
 1151 03fe A760     		str	r7, [r4, #8]
 1152              		.loc 1 327 0
 1153 0400 09D0     		beq	.L62
 1154              	.L121:
 1155              	.LVL143:
 1156              	.LBB156:
 1157              	.LBB157:
 1158              		.loc 2 62 0
 1159 0402 0368     		ldr	r3, [r0, #0]
 1160              	.LVL144:
 1161 0404 2360     		str	r3, [r4, #0]
 1162 0406 5C60     		str	r4, [r3, #4]
 1163              	.LBE157:
 1164              	.LBE156:
 1165              		.loc 1 328 0
 1166 0408 FFF7FEFF 		bl	chSchReadyI
 1167              	.LVL145:
 1168 040c C0F82480 		str	r8, [r0, #36]
 1169              		.loc 1 327 0
 1170 0410 2068     		ldr	r0, [r4, #0]
 1171 0412 A042     		cmp	r0, r4
 1172 0414 F5D1     		bne	.L121
 1173              	.LVL146:
 1174              	.L62:
 1175              		.loc 1 329 0
 1176 0416 FFF7FEFF 		bl	chSchRescheduleS
 1177              	.LVL147:
 1178              	.LBB158:
 1179              		.loc 1 330 0
 1180 041a 0023     		movs	r3, #0
 1181              	@ 330 "c:\ChibiStudio\chibios/os/hal/platforms/STM32/OTGv1/usb_lld.c" 1
 1182 041c 83F31188 		msr     BASEPRI, r3
 1183              	@ 0 "" 2
 1184              	.LVL148:
 1185              		.thumb
 1186 0420 7CE7     		b	.L77
 1187              	.LVL149:
 1188              	.L67:
 1189              	.LBE158:
 1190              	.LBB159:
 1191              		.loc 1 308 0
 1192 0422 002A     		cmp	r2, #0
ARM GAS  C:\Users\srich\AppData\Local\Temp\cc7Prgoh.s 			page 22


 1193 0424 E3D0     		beq	.L195
 1194              	.LVL150:
 1195              	.L63:
 1196              		.loc 1 315 0
 1197 0426 A669     		ldr	r6, [r4, #24]
 1198 0428 16F8013B 		ldrb	r3, [r6], #1	@ zero_extendqisi2
 1199              	.LVL151:
 1200              		.loc 1 316 0
 1201 042c B042     		cmp	r0, r6
 1202              		.loc 1 315 0
 1203 042e A661     		str	r6, [r4, #24]
 1204              		.loc 1 317 0
 1205 0430 9CBF     		itt	ls
 1206 0432 E668     		ldrls	r6, [r4, #12]
 1207 0434 A661     		strls	r6, [r4, #24]
 1208              		.loc 1 314 0
 1209 0436 012A     		cmp	r2, #1
 1210 0438 27D0     		beq	.L71
 1211              		.loc 1 315 0
 1212 043a A769     		ldr	r7, [r4, #24]
 1213 043c 17F8015B 		ldrb	r5, [r7], #1	@ zero_extendqisi2
 1214              		.loc 1 316 0
 1215 0440 B842     		cmp	r0, r7
 1216              		.loc 1 315 0
 1217 0442 A761     		str	r7, [r4, #24]
 1218              		.loc 1 317 0
 1219 0444 9CBF     		itt	ls
 1220 0446 E768     		ldrls	r7, [r4, #12]
 1221 0448 A761     		strls	r7, [r4, #24]
 1222              		.loc 1 314 0
 1223 044a 022A     		cmp	r2, #2
 1224              		.loc 1 315 0
 1225 044c 43EA0523 		orr	r3, r3, r5, lsl #8
 1226              	.LVL152:
 1227              		.loc 1 314 0
 1228 0450 1BD0     		beq	.L71
 1229              		.loc 1 315 0
 1230 0452 A769     		ldr	r7, [r4, #24]
 1231 0454 17F8016B 		ldrb	r6, [r7], #1	@ zero_extendqisi2
 1232              		.loc 1 316 0
 1233 0458 B842     		cmp	r0, r7
 1234              		.loc 1 315 0
 1235 045a A761     		str	r7, [r4, #24]
 1236              		.loc 1 317 0
 1237 045c 9CBF     		itt	ls
 1238 045e E768     		ldrls	r7, [r4, #12]
 1239 0460 A761     		strls	r7, [r4, #24]
 1240              		.loc 1 314 0
 1241 0462 032A     		cmp	r2, #3
 1242              		.loc 1 315 0
 1243 0464 43EA0643 		orr	r3, r3, r6, lsl #16
 1244              	.LVL153:
 1245              		.loc 1 314 0
 1246 0468 0FD0     		beq	.L71
 1247              		.loc 1 315 0
 1248 046a A569     		ldr	r5, [r4, #24]
 1249 046c 15F8017B 		ldrb	r7, [r5], #1	@ zero_extendqisi2
ARM GAS  C:\Users\srich\AppData\Local\Temp\cc7Prgoh.s 			page 23


 1250              		.loc 1 316 0
 1251 0470 8542     		cmp	r5, r0
 1252              		.loc 1 315 0
 1253 0472 A561     		str	r5, [r4, #24]
 1254              		.loc 1 317 0
 1255 0474 24BF     		itt	cs
 1256 0476 E568     		ldrcs	r5, [r4, #12]
 1257 0478 A561     		strcs	r5, [r4, #24]
 1258              		.loc 1 314 0
 1259 047a 043A     		subs	r2, r2, #4
 1260              	.LVL154:
 1261              		.loc 1 315 0
 1262 047c 43EA0763 		orr	r3, r3, r7, lsl #24
 1263              	.LVL155:
 1264              		.loc 1 314 0
 1265 0480 03D0     		beq	.L71
 1266              	.LVL156:
 1267              	.L75:
 1268              		.loc 1 321 0
 1269 0482 0B60     		str	r3, [r1, #0]
 1270              	.LVL157:
 1271              	.LBE159:
 1272              		.loc 1 290 0
 1273 0484 002A     		cmp	r2, #0
 1274 0486 80D1     		bne	.L76
 1275 0488 B1E7     		b	.L195
 1276              	.LVL158:
 1277              	.L71:
 1278 048a 0022     		movs	r2, #0
 1279 048c F9E7     		b	.L75
 1280              	.LVL159:
 1281              	.L206:
 1282 048e 631C     		adds	r3, r4, #1
 1283 0490 0593     		str	r3, [sp, #20]
 1284              	.LVL160:
 1285              	.L82:
 1286              		.loc 1 507 0
 1287 0492 0120     		movs	r0, #1
 1288 0494 5CE7     		b	.L55
 1289              	.LBE160:
 1290              	.LBE161:
 1291              	.LBE162:
 1292              	.LBE165:
 1293              	.LBE131:
 1294              	.LBE166:
 1295              		.cfi_endproc
 1296              	.LFE136:
 1297              		.size	usb_lld_pump, .-usb_lld_pump
 1298 0496 00BFAFF3 		.section	.text.usb_lld_init,"ax",%progbits
 1298      0080AFF3 
 1298      0080
 1299              		.align	2
 1300              		.p2align 4,,15
 1301              		.global	usb_lld_init
 1302              		.thumb
 1303              		.thumb_func
 1304              		.type	usb_lld_init, %function
ARM GAS  C:\Users\srich\AppData\Local\Temp\cc7Prgoh.s 			page 24


 1305              	usb_lld_init:
 1306              	.LFB138:
 1307              		.loc 1 818 0
 1308              		.cfi_startproc
 1309              		@ args = 0, pretend = 0, frame = 0
 1310              		@ frame_needed = 0, uses_anonymous_args = 0
 1311 0000 10B5     		push	{r4, lr}
 1312              	.LCFI3:
 1313              		.cfi_def_cfa_offset 8
 1314              		.cfi_offset 4, -8
 1315              		.cfi_offset 14, -4
 1316              		.loc 1 822 0
 1317 0002 40F20004 		movw	r4, #:lower16:.LANCHOR0
 1318 0006 C0F20004 		movt	r4, #:upper16:.LANCHOR0
 1319 000a 2046     		mov	r0, r4
 1320 000c FFF7FEFF 		bl	usbObjectInit
 1321              	.LVL161:
 1322              		.loc 1 826 0
 1323 0010 40F20001 		movw	r1, #:lower16:.LANCHOR1
 1324              		.loc 1 823 0
 1325 0014 0023     		movs	r3, #0
 1326              		.loc 1 825 0
 1327 0016 4FF0A040 		mov	r0, #1342177280
 1328              		.loc 1 826 0
 1329 001a C0F20001 		movt	r1, #:upper16:.LANCHOR1
 1330              		.loc 1 823 0
 1331 001e 2366     		str	r3, [r4, #96]
 1332              		.loc 1 824 0
 1333 0020 6366     		str	r3, [r4, #100]
 1334              		.loc 1 825 0
 1335 0022 2065     		str	r0, [r4, #80]
 1336              		.loc 1 826 0
 1337 0024 6165     		str	r1, [r4, #84]
 1338 0026 10BD     		pop	{r4, pc}
 1339              		.cfi_endproc
 1340              	.LFE138:
 1341              		.size	usb_lld_init, .-usb_lld_init
 1342              		.section	.text.usb_lld_start,"ax",%progbits
 1343              		.align	2
 1344              		.p2align 4,,15
 1345              		.global	usb_lld_start
 1346              		.thumb
 1347              		.thumb_func
 1348              		.type	usb_lld_start, %function
 1349              	usb_lld_start:
 1350              	.LFB139:
 1351              		.loc 1 876 0
 1352              		.cfi_startproc
 1353              		@ args = 0, pretend = 0, frame = 0
 1354              		@ frame_needed = 0, uses_anonymous_args = 0
 1355              	.LVL162:
 1356 0000 70B5     		push	{r4, r5, r6, lr}
 1357              	.LCFI4:
 1358              		.cfi_def_cfa_offset 16
 1359              		.cfi_offset 4, -16
 1360              		.cfi_offset 5, -12
 1361              		.cfi_offset 6, -8
ARM GAS  C:\Users\srich\AppData\Local\Temp\cc7Prgoh.s 			page 25


 1362              		.cfi_offset 14, -4
 1363              		.loc 1 879 0
 1364 0002 0378     		ldrb	r3, [r0, #0]	@ zero_extendqisi2
 1365              		.loc 1 877 0
 1366 0004 056D     		ldr	r5, [r0, #80]
 1367              	.LVL163:
 1368              		.loc 1 879 0
 1369 0006 012B     		cmp	r3, #1
 1370              		.loc 1 876 0
 1371 0008 82B0     		sub	sp, sp, #8
 1372              	.LCFI5:
 1373              		.cfi_def_cfa_offset 24
 1374              		.loc 1 876 0
 1375 000a 0646     		mov	r6, r0
 1376              		.loc 1 879 0
 1377 000c 01D0     		beq	.L221
 1378              	.LVL164:
 1379              	.L211:
 1380              		.loc 1 962 0
 1381 000e 02B0     		add	sp, sp, #8
 1382 0010 70BD     		pop	{r4, r5, r6, pc}
 1383              	.LVL165:
 1384              	.L221:
 1385              		.loc 1 882 0
 1386 0012 3148     		ldr	r0, .L225
 1387              	.LVL166:
 1388 0014 8642     		cmp	r6, r0
 1389 0016 4CD0     		beq	.L222
 1390              	.L213:
 1391              		.loc 1 911 0
 1392 0018 316E     		ldr	r1, [r6, #96]
 1393              		.loc 1 910 0
 1394 001a 0024     		movs	r4, #0
 1395 001c F465     		str	r4, [r6, #92]
 1396              		.loc 1 911 0
 1397 001e 0029     		cmp	r1, #0
 1398 0020 3BD0     		beq	.L223
 1399              	.L214:
 1400              		.loc 1 921 0
 1401 0022 4FF4A250 		mov	r0, #5184
 1402              		.loc 1 924 0
 1403 0026 0323     		movs	r3, #3
 1404              		.loc 1 921 0
 1405 0028 C4F20000 		movt	r0, 16384
 1406              		.loc 1 924 0
 1407 002c C0F22023 		movt	r3, 544
 1408              		.loc 1 927 0
 1409 0030 0022     		movs	r2, #0
 1410              		.loc 1 934 0
 1411 0032 4FF45021 		mov	r1, #851968
 1412              		.loc 1 921 0
 1413 0036 E860     		str	r0, [r5, #12]
 1414              	.LBB169:
 1415              	.LBB170:
 1416              		.loc 1 132 0
 1417 0038 346D     		ldr	r4, [r6, #80]
 1418              	.LBE170:
ARM GAS  C:\Users\srich\AppData\Local\Temp\cc7Prgoh.s 			page 26


 1419              	.LBE169:
 1420              		.loc 1 924 0
 1421 003a C5F80038 		str	r3, [r5, #2048]
 1422              	.LBB173:
 1423              	.LBB171:
 1424              		.loc 1 134 0
 1425 003e 2020     		movs	r0, #32
 1426              	.LBE171:
 1427              	.LBE173:
 1428              		.loc 1 927 0
 1429 0040 C5F8002E 		str	r2, [r5, #3584]
 1430              		.loc 1 934 0
 1431 0044 A963     		str	r1, [r5, #56]
 1432              	.LVL167:
 1433              	.LBB174:
 1434              	.LBB172:
 1435              		.loc 1 134 0
 1436 0046 FFF7FEFF 		bl	halPolledDelay
 1437              	.LVL168:
 1438              		.loc 1 137 0
 1439 004a 0120     		movs	r0, #1
 1440 004c 2061     		str	r0, [r4, #16]
 1441              	.L215:
 1442              		.loc 1 138 0
 1443 004e 2369     		ldr	r3, [r4, #16]
 1444 0050 DB07     		lsls	r3, r3, #31
 1445 0052 FCD4     		bmi	.L215
 1446              		.loc 1 141 0
 1447 0054 0C20     		movs	r0, #12
 1448 0056 FFF7FEFF 		bl	halPolledDelay
 1449              	.LVL169:
 1450              	.L216:
 1451              		.loc 1 144 0
 1452 005a 2269     		ldr	r2, [r4, #16]
 1453 005c 002A     		cmp	r2, #0
 1454 005e FCDA     		bge	.L216
 1455              	.LBE172:
 1456              	.LBE174:
 1457              		.loc 1 941 0
 1458 0060 0024     		movs	r4, #0
 1459              	.LVL170:
 1460              		.loc 1 944 0
 1461 0062 3046     		mov	r0, r6
 1462              		.loc 1 941 0
 1463 0064 AC60     		str	r4, [r5, #8]
 1464              		.loc 1 944 0
 1465 0066 FFF7FEFF 		bl	otg_disable_ep
 1466              	.LVL171:
 1467              		.loc 1 951 0
 1468 006a 7168     		ldr	r1, [r6, #4]
 1469              		.loc 1 948 0
 1470 006c C5F81048 		str	r4, [r5, #2064]
 1471              		.loc 1 951 0
 1472 0070 C868     		ldr	r0, [r1, #12]
 1473              		.loc 1 949 0
 1474 0072 C5F81448 		str	r4, [r5, #2068]
 1475              		.loc 1 950 0
ARM GAS  C:\Users\srich\AppData\Local\Temp\cc7Prgoh.s 			page 27


 1476 0076 C5F81C48 		str	r4, [r5, #2076]
 1477              		.loc 1 951 0
 1478 007a 50B1     		cbz	r0, .L224
 1479              		.loc 1 955 0
 1480 007c 43F20803 		movw	r3, #12296
 1481 0080 AB61     		str	r3, [r5, #24]
 1482              	.L218:
 1483              		.loc 1 957 0
 1484 0082 4FF0FF31 		mov	r1, #-1
 1485 0086 6961     		str	r1, [r5, #20]
 1486              		.loc 1 960 0
 1487 0088 A868     		ldr	r0, [r5, #8]
 1488 008a 40F00103 		orr	r3, r0, #1
 1489 008e AB60     		str	r3, [r5, #8]
 1490 0090 BDE7     		b	.L211
 1491              	.L224:
 1492              		.loc 1 952 0
 1493 0092 4FF44052 		mov	r2, #12288
 1494 0096 AA61     		str	r2, [r5, #24]
 1495 0098 F3E7     		b	.L218
 1496              	.LVL172:
 1497              	.L223:
 1498              		.loc 1 912 0
 1499 009a 0096     		str	r6, [sp, #0]
 1500 009c 06F16800 		add	r0, r6, #104
 1501 00a0 4FF4A871 		mov	r1, #336
 1502 00a4 0222     		movs	r2, #2
 1503 00a6 0D4B     		ldr	r3, .L225+4
 1504 00a8 FFF7FEFF 		bl	chThdCreateI
 1505              	.LVL173:
 1506 00ac 7066     		str	r0, [r6, #100]
 1507 00ae 3066     		str	r0, [r6, #96]
 1508 00b0 B7E7     		b	.L214
 1509              	.L222:
 1510              		.loc 1 884 0
 1511 00b2 4FF46051 		mov	r1, #14336
 1512 00b6 C4F20201 		movt	r1, 16386
 1513 00ba 4A6B     		ldr	r2, [r1, #52]
 1514 00bc 42F08004 		orr	r4, r2, #128
 1515 00c0 4C63     		str	r4, [r1, #52]
 1516              		.loc 1 885 0
 1517 00c2 4B69     		ldr	r3, [r1, #20]
 1518 00c4 0022     		movs	r2, #0
 1519 00c6 43F08000 		orr	r0, r3, #128
 1520 00ca 4861     		str	r0, [r1, #20]
 1521 00cc 4A61     		str	r2, [r1, #20]
 1522              		.loc 1 888 0
 1523 00ce 4320     		movs	r0, #67
 1524 00d0 E021     		movs	r1, #224
 1525 00d2 FFF7FEFF 		bl	nvicEnableVector
 1526              	.LVL174:
 1527 00d6 9FE7     		b	.L213
 1528              	.L226:
 1529              		.align	2
 1530              	.L225:
 1531 00d8 00000000 		.word	.LANCHOR0
 1532 00dc 00000000 		.word	usb_lld_pump
ARM GAS  C:\Users\srich\AppData\Local\Temp\cc7Prgoh.s 			page 28


 1533              		.cfi_endproc
 1534              	.LFE139:
 1535              		.size	usb_lld_start, .-usb_lld_start
 1536              		.section	.text.usb_lld_stop,"ax",%progbits
 1537              		.align	2
 1538              		.p2align 4,,15
 1539              		.global	usb_lld_stop
 1540              		.thumb
 1541              		.thumb_func
 1542              		.type	usb_lld_stop, %function
 1543              	usb_lld_stop:
 1544              	.LFB140:
 1545              		.loc 1 971 0
 1546              		.cfi_startproc
 1547              		@ args = 0, pretend = 0, frame = 0
 1548              		@ frame_needed = 0, uses_anonymous_args = 0
 1549              	.LVL175:
 1550 0000 38B5     		push	{r3, r4, r5, lr}
 1551              	.LCFI6:
 1552              		.cfi_def_cfa_offset 16
 1553              		.cfi_offset 3, -16
 1554              		.cfi_offset 4, -12
 1555              		.cfi_offset 5, -8
 1556              		.cfi_offset 14, -4
 1557              		.loc 1 975 0
 1558 0002 0378     		ldrb	r3, [r0, #0]	@ zero_extendqisi2
 1559              		.loc 1 972 0
 1560 0004 056D     		ldr	r5, [r0, #80]
 1561              	.LVL176:
 1562              		.loc 1 975 0
 1563 0006 012B     		cmp	r3, #1
 1564              		.loc 1 971 0
 1565 0008 0446     		mov	r4, r0
 1566              		.loc 1 975 0
 1567 000a 07D0     		beq	.L227
 1568              		.loc 1 979 0
 1569 000c FFF7FEFF 		bl	otg_disable_ep
 1570              	.LVL177:
 1571              		.loc 1 981 0
 1572 0010 0020     		movs	r0, #0
 1573 0012 E065     		str	r0, [r4, #92]
 1574              		.loc 1 983 0
 1575 0014 C5F81C08 		str	r0, [r5, #2076]
 1576              		.loc 1 984 0
 1577 0018 A860     		str	r0, [r5, #8]
 1578              		.loc 1 985 0
 1579 001a A863     		str	r0, [r5, #56]
 1580              	.L227:
 1581 001c 38BD     		pop	{r3, r4, r5, pc}
 1582              		.cfi_endproc
 1583              	.LFE140:
 1584              		.size	usb_lld_stop, .-usb_lld_stop
 1585 001e 00BF     		.section	.text.usb_lld_reset,"ax",%progbits
 1586              		.align	2
 1587              		.p2align 4,,15
 1588              		.global	usb_lld_reset
 1589              		.thumb
ARM GAS  C:\Users\srich\AppData\Local\Temp\cc7Prgoh.s 			page 29


 1590              		.thumb_func
 1591              		.type	usb_lld_reset, %function
 1592              	usb_lld_reset:
 1593              	.LFB141:
 1594              		.loc 1 1010 0
 1595              		.cfi_startproc
 1596              		@ args = 0, pretend = 0, frame = 0
 1597              		@ frame_needed = 0, uses_anonymous_args = 0
 1598              	.LVL178:
 1599 0000 2DE9F84F 		push	{r3, r4, r5, r6, r7, r8, r9, sl, fp, lr}
 1600              	.LCFI7:
 1601              		.cfi_def_cfa_offset 40
 1602              		.cfi_offset 3, -40
 1603              		.cfi_offset 4, -36
 1604              		.cfi_offset 5, -32
 1605              		.cfi_offset 6, -28
 1606              		.cfi_offset 7, -24
 1607              		.cfi_offset 8, -20
 1608              		.cfi_offset 9, -16
 1609              		.cfi_offset 10, -12
 1610              		.cfi_offset 11, -8
 1611              		.cfi_offset 14, -4
 1612              		.loc 1 1010 0
 1613 0004 8046     		mov	r8, r0
 1614              		.loc 1 1015 0
 1615 0006 0021     		movs	r1, #0
 1616              		.loc 1 1012 0
 1617 0008 046D     		ldr	r4, [r0, #80]
 1618              	.LVL179:
 1619              		.loc 1 1015 0
 1620 000a FFF7FEFF 		bl	otg_txfifo_flush
 1621              	.LVL180:
 1622 000e D8F854B0 		ldr	fp, [r8, #84]
 1623 0012 DBF808A0 		ldr	sl, [fp, #8]
 1624              		.loc 1 1019 0
 1625 0016 4FF00061 		mov	r1, #134217728
 1626              		.loc 1 1021 0
 1627 001a FF22     		movs	r2, #255
 1628              		.loc 1 1019 0
 1629 001c C4F80019 		str	r1, [r4, #2304]
 1630 0020 0AF00106 		and	r6, sl, #1
 1631              		.loc 1 1020 0
 1632 0024 C4F8001B 		str	r1, [r4, #2816]
 1633              		.loc 1 1018 0
 1634 0028 0123     		movs	r3, #1
 1635              		.loc 1 1021 0
 1636 002a C4F80829 		str	r2, [r4, #2312]
 1637              		.loc 1 1022 0
 1638 002e C4F8082B 		str	r2, [r4, #2824]
 1639              		.loc 1 1018 0
 1640 0032 BAF1000F 		cmp	sl, #0
 1641 0036 33D0     		beq	.L243
 1642 0038 66B1     		cbz	r6, .L233
 1643 003a 0223     		movs	r3, #2
 1644 003c 5345     		cmp	r3, sl
 1645              		.loc 1 1019 0
 1646 003e C4F82019 		str	r1, [r4, #2336]
ARM GAS  C:\Users\srich\AppData\Local\Temp\cc7Prgoh.s 			page 30


 1647 0042 04F51267 		add	r7, r4, #2336
 1648              		.loc 1 1020 0
 1649 0046 C4F8201B 		str	r1, [r4, #2848]
 1650              		.loc 1 1021 0
 1651 004a C4F82829 		str	r2, [r4, #2344]
 1652              		.loc 1 1022 0
 1653 004e C4F8282B 		str	r2, [r4, #2856]
 1654              		.loc 1 1018 0
 1655 0052 25D8     		bhi	.L243
 1656              	.L233:
 1657              		.loc 1 1018 0 is_stmt 0 discriminator 2
 1658 0054 5F1C     		adds	r7, r3, #1
 1659              		.loc 1 1019 0 is_stmt 1 discriminator 2
 1660 0056 03F14809 		add	r9, r3, #72
 1661              		.loc 1 1020 0 discriminator 2
 1662 005a 03F15800 		add	r0, r3, #88
 1663              		.loc 1 1019 0 discriminator 2
 1664 005e 03F1490C 		add	ip, r3, #73
 1665              		.loc 1 1020 0 discriminator 2
 1666 0062 03F1590E 		add	lr, r3, #89
 1667              		.loc 1 1021 0 discriminator 2
 1668 0066 04EB4316 		add	r6, r4, r3, lsl #5
 1669 006a 04EB4715 		add	r5, r4, r7, lsl #5
 1670              		.loc 1 1020 0 discriminator 2
 1671 006e 4001     		lsls	r0, r0, #5
 1672              		.loc 1 1019 0 discriminator 2
 1673 0070 4FEA4919 		lsl	r9, r9, #5
 1674 0074 4FEA4C1C 		lsl	ip, ip, #5
 1675              		.loc 1 1020 0 discriminator 2
 1676 0078 4FEA4E1E 		lsl	lr, lr, #5
 1677              		.loc 1 1018 0 discriminator 2
 1678 007c 0233     		adds	r3, r3, #2
 1679 007e 5345     		cmp	r3, sl
 1680              		.loc 1 1019 0 discriminator 2
 1681 0080 44F80910 		str	r1, [r4, r9]
 1682              		.loc 1 1020 0 discriminator 2
 1683 0084 2150     		str	r1, [r4, r0]
 1684              		.loc 1 1021 0 discriminator 2
 1685 0086 C6F80829 		str	r2, [r6, #2312]
 1686              		.loc 1 1022 0 discriminator 2
 1687 008a C6F8082B 		str	r2, [r6, #2824]
 1688              		.loc 1 1019 0 discriminator 2
 1689 008e 44F80C10 		str	r1, [r4, ip]
 1690              		.loc 1 1020 0 discriminator 2
 1691 0092 44F80E10 		str	r1, [r4, lr]
 1692              		.loc 1 1021 0 discriminator 2
 1693 0096 C5F80829 		str	r2, [r5, #2312]
 1694              		.loc 1 1022 0 discriminator 2
 1695 009a C5F8082B 		str	r2, [r5, #2824]
 1696              		.loc 1 1018 0 discriminator 2
 1697 009e D9D9     		bls	.L233
 1698              	.L243:
 1699              	.LBB181:
 1700              	.LBB182:
 1701              		.loc 1 214 0
 1702 00a0 DBF80030 		ldr	r3, [fp, #0]
 1703              	.LBE182:
ARM GAS  C:\Users\srich\AppData\Local\Temp\cc7Prgoh.s 			page 31


 1704              	.LBE181:
 1705              	.LBB184:
 1706              	.LBB185:
 1707              		.loc 1 186 0
 1708 00a4 D8F85020 		ldr	r2, [r8, #80]
 1709              	.LBE185:
 1710              	.LBE184:
 1711              		.loc 1 1026 0
 1712 00a8 4FF0FF31 		mov	r1, #-1
 1713              		.loc 1 1027 0
 1714 00ac 4FF00116 		mov	r6, #65537
 1715              	.LBB188:
 1716              	.LBB186:
 1717              		.loc 1 188 0
 1718 00b0 1025     		movs	r5, #16
 1719              	.LBE186:
 1720              	.LBE188:
 1721              		.loc 1 1026 0
 1722 00b2 C4F81818 		str	r1, [r4, #2072]
 1723              		.loc 1 1027 0
 1724 00b6 C4F81C68 		str	r6, [r4, #2076]
 1725              	.LVL181:
 1726              	.LBB189:
 1727              	.LBB183:
 1728              		.loc 1 214 0
 1729 00ba C8F85830 		str	r3, [r8, #88]
 1730              	.LBE183:
 1731              	.LBE189:
 1732              		.loc 1 1033 0
 1733 00be 6362     		str	r3, [r4, #36]
 1734              	.LVL182:
 1735              	.LBB190:
 1736              	.LBB187:
 1737              		.loc 1 188 0
 1738 00c0 1561     		str	r5, [r2, #16]
 1739              	.L234:
 1740              		.loc 1 189 0
 1741 00c2 1069     		ldr	r0, [r2, #16]
 1742 00c4 10F01005 		ands	r5, r0, #16
 1743 00c8 FBD1     		bne	.L234
 1744              		.loc 1 192 0
 1745 00ca 0C20     		movs	r0, #12
 1746 00cc FFF7FEFF 		bl	halPolledDelay
 1747              	.LVL183:
 1748              	.LBE187:
 1749              	.LBE190:
 1750              		.loc 1 1037 0
 1751 00d0 D4F80038 		ldr	r3, [r4, #2048]
 1752              	.LBB191:
 1753              	.LBB192:
 1754              		.loc 1 228 0
 1755 00d4 D8F85810 		ldr	r1, [r8, #88]
 1756              	.LBE192:
 1757              	.LBE191:
 1758              		.loc 1 1037 0
 1759 00d8 23F4FE62 		bic	r2, r3, #2032
 1760 00dc C4F80028 		str	r2, [r4, #2048]
ARM GAS  C:\Users\srich\AppData\Local\Temp\cc7Prgoh.s 			page 32


 1761              		.loc 1 1040 0
 1762 00e0 A669     		ldr	r6, [r4, #24]
 1763 00e2 46F44020 		orr	r0, r6, #786432
 1764              		.loc 1 1041 0
 1765 00e6 0922     		movs	r2, #9
 1766              		.loc 1 1040 0
 1767 00e8 40F01006 		orr	r6, r0, #16
 1768 00ec A661     		str	r6, [r4, #24]
 1769              		.loc 1 1047 0
 1770 00ee 48F24003 		movw	r3, #32832
 1771              		.loc 1 1041 0
 1772 00f2 C4F81028 		str	r2, [r4, #2064]
 1773              		.loc 1 1042 0
 1774 00f6 C4F81428 		str	r2, [r4, #2068]
 1775              		.loc 1 1045 0
 1776 00fa 0B4A     		ldr	r2, .L244
 1777              		.loc 1 1047 0
 1778 00fc C1F20003 		movt	r3, 4096
 1779              	.LBB195:
 1780              	.LBB193:
 1781              		.loc 1 229 0
 1782 0100 01F11000 		add	r0, r1, #16
 1783              	.LBE193:
 1784              	.LBE195:
 1785              		.loc 1 1052 0
 1786 0104 41F48011 		orr	r1, r1, #1048576
 1787              		.loc 1 1045 0
 1788 0108 C8F80C20 		str	r2, [r8, #12]
 1789              		.loc 1 1046 0
 1790 010c C4F8105B 		str	r5, [r4, #2832]
 1791              		.loc 1 1047 0
 1792 0110 C4F8003B 		str	r3, [r4, #2816]
 1793              		.loc 1 1049 0
 1794 0114 C4F81059 		str	r5, [r4, #2320]
 1795              		.loc 1 1050 0
 1796 0118 C4F80039 		str	r3, [r4, #2304]
 1797              	.LVL184:
 1798              	.LBB196:
 1799              	.LBB194:
 1800              		.loc 1 229 0
 1801 011c C8F85800 		str	r0, [r8, #88]
 1802              	.LBE194:
 1803              	.LBE196:
 1804              		.loc 1 1052 0
 1805 0120 A162     		str	r1, [r4, #40]
 1806 0122 BDE8F88F 		pop	{r3, r4, r5, r6, r7, r8, r9, sl, fp, pc}
 1807              	.L245:
 1808 0126 00BF     		.align	2
 1809              	.L244:
 1810 0128 00000000 		.word	.LANCHOR2
 1811              		.cfi_endproc
 1812              	.LFE141:
 1813              		.size	usb_lld_reset, .-usb_lld_reset
 1814 012c AFF30080 		.section	.text.usb_lld_set_address,"ax",%progbits
 1815              		.align	2
 1816              		.p2align 4,,15
 1817              		.global	usb_lld_set_address
ARM GAS  C:\Users\srich\AppData\Local\Temp\cc7Prgoh.s 			page 33


 1818              		.thumb
 1819              		.thumb_func
 1820              		.type	usb_lld_set_address, %function
 1821              	usb_lld_set_address:
 1822              	.LFB142:
 1823              		.loc 1 1064 0
 1824              		.cfi_startproc
 1825              		@ args = 0, pretend = 0, frame = 0
 1826              		@ frame_needed = 0, uses_anonymous_args = 0
 1827              		@ link register save eliminated.
 1828              	.LVL185:
 1829              		.loc 1 1065 0
 1830 0000 036D     		ldr	r3, [r0, #80]
 1831              	.LVL186:
 1832              		.loc 1 1067 0
 1833 0002 90F84E10 		ldrb	r1, [r0, #78]	@ zero_extendqisi2
 1834 0006 D3F80028 		ldr	r2, [r3, #2048]
 1835 000a 22F4FE60 		bic	r0, r2, #2032
 1836              	.LVL187:
 1837 000e 40EA0111 		orr	r1, r0, r1, lsl #4
 1838 0012 C3F80018 		str	r1, [r3, #2048]
 1839 0016 7047     		bx	lr
 1840              		.cfi_endproc
 1841              	.LFE142:
 1842              		.size	usb_lld_set_address, .-usb_lld_set_address
 1843 0018 AFF30080 		.section	.text.usb_lld_init_endpoint,"ax",%progbits
 1843      AFF30080 
 1844              		.align	2
 1845              		.p2align 4,,15
 1846              		.global	usb_lld_init_endpoint
 1847              		.thumb
 1848              		.thumb_func
 1849              		.type	usb_lld_init_endpoint, %function
 1850              	usb_lld_init_endpoint:
 1851              	.LFB143:
 1852              		.loc 1 1078 0
 1853              		.cfi_startproc
 1854              		@ args = 0, pretend = 0, frame = 0
 1855              		@ frame_needed = 0, uses_anonymous_args = 0
 1856              	.LVL188:
 1857 0000 2DE9F041 		push	{r4, r5, r6, r7, r8, lr}
 1858              	.LCFI8:
 1859              		.cfi_def_cfa_offset 24
 1860              		.cfi_offset 4, -24
 1861              		.cfi_offset 5, -20
 1862              		.cfi_offset 6, -16
 1863              		.cfi_offset 7, -12
 1864              		.cfi_offset 8, -8
 1865              		.cfi_offset 14, -4
 1866              		.loc 1 1083 0
 1867 0004 8F1C     		adds	r7, r1, #2
 1868 0006 00EB8703 		add	r3, r0, r7, lsl #2
 1869              		.loc 1 1078 0
 1870 000a 0646     		mov	r6, r0
 1871              		.loc 1 1083 0
 1872 000c 5B68     		ldr	r3, [r3, #4]
 1873              		.loc 1 1080 0
ARM GAS  C:\Users\srich\AppData\Local\Temp\cc7Prgoh.s 			page 34


 1874 000e 046D     		ldr	r4, [r0, #80]
 1875              	.LVL189:
 1876              		.loc 1 1083 0
 1877 0010 1A68     		ldr	r2, [r3, #0]
 1878 0012 02F00300 		and	r0, r2, #3
 1879              	.LVL190:
 1880 0016 0228     		cmp	r0, #2
 1881              		.loc 1 1078 0
 1882 0018 0D46     		mov	r5, r1
 1883              		.loc 1 1091 0
 1884 001a 4FF40048 		mov	r8, #32768
 1885              		.loc 1 1083 0
 1886 001e 54D0     		beq	.L250
 1887 0020 0328     		cmp	r0, #3
 1888 0022 55D0     		beq	.L251
 1889              		.loc 1 1085 0
 1890 0024 4146     		mov	r1, r8
 1891              	.LVL191:
 1892 0026 C1F20001 		movt	r1, 4096
 1893 002a C1F20408 		movt	r8, 4100
 1894 002e 0128     		cmp	r0, #1
 1895 0030 18BF     		it	ne
 1896 0032 8846     		movne	r8, r1
 1897              	.L249:
 1898              	.LVL192:
 1899              		.loc 1 1101 0
 1900 0034 6A01     		lsls	r2, r5, #5
 1901 0036 A018     		adds	r0, r4, r2
 1902 0038 0021     		movs	r1, #0
 1903 003a C0F8101B 		str	r1, [r0, #2832]
 1904              		.loc 1 1102 0
 1905 003e D868     		ldr	r0, [r3, #12]
 1906 0040 0028     		cmp	r0, #0
 1907 0042 48D0     		beq	.L252
 1908              		.loc 1 1103 0
 1909 0044 588A     		ldrh	r0, [r3, #18]
 1910 0046 05F15801 		add	r1, r5, #88
 1911 004a 4901     		lsls	r1, r1, #5
 1912 004c 48EA0000 		orr	r0, r8, r0
 1913 0050 6050     		str	r0, [r4, r1]
 1914              		.loc 1 1104 0
 1915 0052 4FF0010C 		mov	ip, #1
 1916 0056 D4F81C08 		ldr	r0, [r4, #2076]
 1917 005a 05F11001 		add	r1, r5, #16
 1918 005e 0CFA01F1 		lsl	r1, ip, r1
 1919 0062 0143     		orrs	r1, r1, r0
 1920 0064 C4F81C18 		str	r1, [r4, #2076]
 1921              	.L253:
 1922              		.loc 1 1112 0
 1923 0068 A218     		adds	r2, r4, r2
 1924              		.loc 1 1113 0
 1925 006a 9968     		ldr	r1, [r3, #8]
 1926              		.loc 1 1112 0
 1927 006c 0020     		movs	r0, #0
 1928 006e C2F81009 		str	r0, [r2, #2320]
 1929              		.loc 1 1113 0
 1930 0072 0029     		cmp	r1, #0
ARM GAS  C:\Users\srich\AppData\Local\Temp\cc7Prgoh.s 			page 35


 1931 0074 42D0     		beq	.L254
 1932              		.loc 1 1116 0
 1933 0076 9A8B     		ldrh	r2, [r3, #28]
 1934              		.loc 1 1115 0
 1935 0078 198A     		ldrh	r1, [r3, #16]
 1936 007a 8B08     		lsrs	r3, r1, #2
 1937              	.LVL193:
 1938              		.loc 1 1116 0
 1939 007c 012A     		cmp	r2, #1
 1940              		.loc 1 1117 0
 1941 007e 88BF     		it	hi
 1942 0080 5343     		mulhi	r3, r2, r3
 1943              	.LVL194:
 1944              	.LBB197:
 1945              	.LBB198:
 1946              		.loc 1 228 0
 1947 0082 B26D     		ldr	r2, [r6, #88]
 1948              	.LVL195:
 1949              	.LBE198:
 1950              	.LBE197:
 1951              		.loc 1 1118 0
 1952 0084 05F13F00 		add	r0, r5, #63
 1953 0088 04EB8001 		add	r1, r4, r0, lsl #2
 1954              	.LBB200:
 1955              	.LBB199:
 1956              		.loc 1 229 0
 1957 008c 9818     		adds	r0, r3, r2
 1958 008e B065     		str	r0, [r6, #88]
 1959              	.LBE199:
 1960              	.LBE200:
 1961              		.loc 1 1118 0
 1962 0090 42EA0343 		orr	r3, r2, r3, lsl #16
 1963              	.LVL196:
 1964              		.loc 1 1120 0
 1965 0094 3046     		mov	r0, r6
 1966              		.loc 1 1124 0
 1967 0096 06EB8706 		add	r6, r6, r7, lsl #2
 1968              	.LVL197:
 1969              		.loc 1 1118 0
 1970 009a 4B60     		str	r3, [r1, #4]
 1971              		.loc 1 1120 0
 1972 009c 2946     		mov	r1, r5
 1973 009e FFF7FEFF 		bl	otg_txfifo_flush
 1974              	.LVL198:
 1975              		.loc 1 1124 0
 1976 00a2 7268     		ldr	r2, [r6, #4]
 1977              		.loc 1 1123 0
 1978 00a4 108A     		ldrh	r0, [r2, #16]
 1979              		.loc 1 1122 0
 1980 00a6 05F14801 		add	r1, r5, #72
 1981 00aa 4B01     		lsls	r3, r1, #5
 1982 00ac 40EA8551 		orr	r1, r0, r5, lsl #22
 1983              		.loc 1 1123 0
 1984 00b0 41EA0802 		orr	r2, r1, r8
 1985              		.loc 1 1122 0
 1986 00b4 E250     		str	r2, [r4, r3]
 1987              		.loc 1 1125 0
ARM GAS  C:\Users\srich\AppData\Local\Temp\cc7Prgoh.s 			page 36


 1988 00b6 0123     		movs	r3, #1
 1989 00b8 D4F81C08 		ldr	r0, [r4, #2076]
 1990 00bc 03FA05F5 		lsl	r5, r3, r5
 1991 00c0 0543     		orrs	r5, r5, r0
 1992 00c2 C4F81C58 		str	r5, [r4, #2076]
 1993 00c6 BDE8F081 		pop	{r4, r5, r6, r7, r8, pc}
 1994              	.LVL199:
 1995              	.L250:
 1996              		.loc 1 1091 0
 1997 00ca C1F20808 		movt	r8, 4104
 1998              	.LVL200:
 1999              		.loc 1 1092 0
 2000 00ce B1E7     		b	.L249
 2001              	.L251:
 2002              	.LVL201:
 2003              		.loc 1 1094 0
 2004 00d0 C1F20C08 		movt	r8, 4108
 2005              	.LVL202:
 2006              		.loc 1 1095 0
 2007 00d4 AEE7     		b	.L249
 2008              	.LVL203:
 2009              	.L252:
 2010              		.loc 1 1107 0
 2011 00d6 05F15801 		add	r1, r5, #88
 2012 00da 4901     		lsls	r1, r1, #5
 2013              		.loc 1 1108 0
 2014 00dc 05F1100E 		add	lr, r5, #16
 2015              		.loc 1 1107 0
 2016 00e0 6058     		ldr	r0, [r4, r1]
 2017 00e2 20F40040 		bic	r0, r0, #32768
 2018 00e6 6050     		str	r0, [r4, r1]
 2019              		.loc 1 1108 0
 2020 00e8 0121     		movs	r1, #1
 2021 00ea D4F81C08 		ldr	r0, [r4, #2076]
 2022 00ee 01FA0EF1 		lsl	r1, r1, lr
 2023 00f2 20EA0100 		bic	r0, r0, r1
 2024 00f6 C4F81C08 		str	r0, [r4, #2076]
 2025 00fa B5E7     		b	.L253
 2026              	.L254:
 2027              		.loc 1 1128 0
 2028 00fc 05F13F03 		add	r3, r5, #63
 2029 0100 04EB8302 		add	r2, r4, r3, lsl #2
 2030 0104 4FF48061 		mov	r1, #1024
 2031 0108 C0F20021 		movt	r1, 512
 2032 010c 5160     		str	r1, [r2, #4]
 2033              		.loc 1 1129 0
 2034 010e 3046     		mov	r0, r6
 2035 0110 2946     		mov	r1, r5
 2036 0112 FFF7FEFF 		bl	otg_txfifo_flush
 2037              	.LVL204:
 2038              		.loc 1 1130 0
 2039 0116 05F14800 		add	r0, r5, #72
 2040 011a 4301     		lsls	r3, r0, #5
 2041 011c E258     		ldr	r2, [r4, r3]
 2042 011e 22F40041 		bic	r1, r2, #32768
 2043 0122 E150     		str	r1, [r4, r3]
 2044              		.loc 1 1131 0
ARM GAS  C:\Users\srich\AppData\Local\Temp\cc7Prgoh.s 			page 37


 2045 0124 0123     		movs	r3, #1
 2046 0126 D4F81C08 		ldr	r0, [r4, #2076]
 2047 012a 03FA05F5 		lsl	r5, r3, r5
 2048 012e 20EA0505 		bic	r5, r0, r5
 2049 0132 C4F81C58 		str	r5, [r4, #2076]
 2050 0136 BDE8F081 		pop	{r4, r5, r6, r7, r8, pc}
 2051              		.cfi_endproc
 2052              	.LFE143:
 2053              		.size	usb_lld_init_endpoint, .-usb_lld_init_endpoint
 2054 013a 00BFAFF3 		.section	.text.usb_lld_disable_endpoints,"ax",%progbits
 2054      0080
 2055              		.align	2
 2056              		.p2align 4,,15
 2057              		.global	usb_lld_disable_endpoints
 2058              		.thumb
 2059              		.thumb_func
 2060              		.type	usb_lld_disable_endpoints, %function
 2061              	usb_lld_disable_endpoints:
 2062              	.LFB144:
 2063              		.loc 1 1142 0
 2064              		.cfi_startproc
 2065              		@ args = 0, pretend = 0, frame = 0
 2066              		@ frame_needed = 0, uses_anonymous_args = 0
 2067              		@ link register save eliminated.
 2068              	.LVL205:
 2069              	.LBB201:
 2070              	.LBB202:
 2071              		.loc 1 214 0
 2072 0000 426D     		ldr	r2, [r0, #84]
 2073 0002 1168     		ldr	r1, [r2, #0]
 2074 0004 8165     		str	r1, [r0, #88]
 2075              	.LBE202:
 2076              	.LBE201:
 2077              		.loc 1 1149 0
 2078              		.loc 1 1148 0
 2079 0006 FFF7FEBF 		b	otg_disable_ep
 2080              	.LVL206:
 2081              		.cfi_endproc
 2082              	.LFE144:
 2083              		.size	usb_lld_disable_endpoints, .-usb_lld_disable_endpoints
 2084 000a 00BFAFF3 		.section	.text.usb_lld_get_status_out,"ax",%progbits
 2084      0080
 2085              		.align	2
 2086              		.p2align 4,,15
 2087              		.global	usb_lld_get_status_out
 2088              		.thumb
 2089              		.thumb_func
 2090              		.type	usb_lld_get_status_out, %function
 2091              	usb_lld_get_status_out:
 2092              	.LFB145:
 2093              		.loc 1 1163 0
 2094              		.cfi_startproc
 2095              		@ args = 0, pretend = 0, frame = 0
 2096              		@ frame_needed = 0, uses_anonymous_args = 0
 2097              		@ link register save eliminated.
 2098              	.LVL207:
 2099              		.loc 1 1168 0
ARM GAS  C:\Users\srich\AppData\Local\Temp\cc7Prgoh.s 			page 38


 2100 0000 5831     		adds	r1, r1, #88
 2101              	.LVL208:
 2102 0002 036D     		ldr	r3, [r0, #80]
 2103 0004 4901     		lsls	r1, r1, #5
 2104 0006 5A58     		ldr	r2, [r3, r1]
 2105              	.LVL209:
 2106              		.loc 1 1169 0
 2107 0008 12F40040 		ands	r0, r2, #32768
 2108              	.LVL210:
 2109 000c 04D0     		beq	.L260
 2110              		.loc 1 1171 0
 2111 000e 12F4001F 		tst	r2, #2097152
 2112              		.loc 1 1172 0
 2113 0012 0CBF     		ite	eq
 2114 0014 0220     		moveq	r0, #2
 2115 0016 0120     		movne	r0, #1
 2116              	.L260:
 2117              		.loc 1 1174 0
 2118 0018 7047     		bx	lr
 2119              		.cfi_endproc
 2120              	.LFE145:
 2121              		.size	usb_lld_get_status_out, .-usb_lld_get_status_out
 2122 001a 00BFAFF3 		.section	.text.usb_lld_get_status_in,"ax",%progbits
 2122      0080
 2123              		.align	2
 2124              		.p2align 4,,15
 2125              		.global	usb_lld_get_status_in
 2126              		.thumb
 2127              		.thumb_func
 2128              		.type	usb_lld_get_status_in, %function
 2129              	usb_lld_get_status_in:
 2130              	.LFB146:
 2131              		.loc 1 1188 0
 2132              		.cfi_startproc
 2133              		@ args = 0, pretend = 0, frame = 0
 2134              		@ frame_needed = 0, uses_anonymous_args = 0
 2135              		@ link register save eliminated.
 2136              	.LVL211:
 2137              		.loc 1 1193 0
 2138 0000 4831     		adds	r1, r1, #72
 2139              	.LVL212:
 2140 0002 036D     		ldr	r3, [r0, #80]
 2141 0004 4901     		lsls	r1, r1, #5
 2142 0006 5A58     		ldr	r2, [r3, r1]
 2143              	.LVL213:
 2144              		.loc 1 1194 0
 2145 0008 12F40040 		ands	r0, r2, #32768
 2146              	.LVL214:
 2147 000c 04D0     		beq	.L264
 2148              		.loc 1 1196 0
 2149 000e 12F4001F 		tst	r2, #2097152
 2150              		.loc 1 1197 0
 2151 0012 0CBF     		ite	eq
 2152 0014 0220     		moveq	r0, #2
 2153 0016 0120     		movne	r0, #1
 2154              	.L264:
 2155              		.loc 1 1199 0
ARM GAS  C:\Users\srich\AppData\Local\Temp\cc7Prgoh.s 			page 39


 2156 0018 7047     		bx	lr
 2157              		.cfi_endproc
 2158              	.LFE146:
 2159              		.size	usb_lld_get_status_in, .-usb_lld_get_status_in
 2160 001a 00BFAFF3 		.section	.text.usb_lld_read_setup,"ax",%progbits
 2160      0080
 2161              		.align	2
 2162              		.p2align 4,,15
 2163              		.global	usb_lld_read_setup
 2164              		.thumb
 2165              		.thumb_func
 2166              		.type	usb_lld_read_setup, %function
 2167              	usb_lld_read_setup:
 2168              	.LFB147:
 2169              		.loc 1 1215 0
 2170              		.cfi_startproc
 2171              		@ args = 0, pretend = 0, frame = 0
 2172              		@ frame_needed = 0, uses_anonymous_args = 0
 2173              		@ link register save eliminated.
 2174              	.LVL215:
 2175              		.loc 1 1217 0
 2176 0000 00EB8101 		add	r1, r0, r1, lsl #2
 2177              	.LVL216:
 2178 0004 CB68     		ldr	r3, [r1, #12]
 2179 0006 186A     		ldr	r0, [r3, #32]
 2180              	.LVL217:
 2181 0008 0168     		ldr	r1, [r0, #0]	@ unaligned
 2182 000a 4368     		ldr	r3, [r0, #4]	@ unaligned
 2183 000c 1160     		str	r1, [r2, #0]	@ unaligned
 2184 000e 5360     		str	r3, [r2, #4]	@ unaligned
 2185 0010 7047     		bx	lr
 2186              		.cfi_endproc
 2187              	.LFE147:
 2188              		.size	usb_lld_read_setup, .-usb_lld_read_setup
 2189 0012 00BFAFF3 		.section	.text.usb_lld_prepare_receive,"ax",%progbits
 2189      0080AFF3 
 2189      0080AFF3 
 2189      0080
 2190              		.align	2
 2191              		.p2align 4,,15
 2192              		.global	usb_lld_prepare_receive
 2193              		.thumb
 2194              		.thumb_func
 2195              		.type	usb_lld_prepare_receive, %function
 2196              	usb_lld_prepare_receive:
 2197              	.LFB148:
 2198              		.loc 1 1228 0
 2199              		.cfi_startproc
 2200              		@ args = 0, pretend = 0, frame = 0
 2201              		@ frame_needed = 0, uses_anonymous_args = 0
 2202              		@ link register save eliminated.
 2203              	.LVL218:
 2204              		.loc 1 1230 0
 2205 0000 00EB8103 		add	r3, r0, r1, lsl #2
 2206              		.loc 1 1228 0
 2207 0004 30B4     		push	{r4, r5}
 2208              	.LCFI9:
ARM GAS  C:\Users\srich\AppData\Local\Temp\cc7Prgoh.s 			page 40


 2209              		.cfi_def_cfa_offset 8
 2210              		.cfi_offset 4, -8
 2211              		.cfi_offset 5, -4
 2212              		.loc 1 1230 0
 2213 0006 DC68     		ldr	r4, [r3, #12]
 2214 0008 A269     		ldr	r2, [r4, #24]
 2215              	.LVL219:
 2216              		.loc 1 1233 0
 2217 000a 5368     		ldr	r3, [r2, #4]
 2218 000c 1361     		str	r3, [r2, #16]
 2219              		.loc 1 1234 0
 2220 000e 39B9     		cbnz	r1, .L272
 2221              		.loc 1 1234 0 is_stmt 0 discriminator 1
 2222 0010 402B     		cmp	r3, #64
 2223 0012 05D9     		bls	.L272
 2224              		.loc 1 1235 0 is_stmt 1
 2225 0014 4023     		movs	r3, #64
 2226 0016 5360     		str	r3, [r2, #4]
 2227 0018 3F25     		movs	r5, #63
 2228 001a C6F20003 		movt	r3, 24576
 2229 001e 02E0     		b	.L270
 2230              	.L272:
 2231 0020 5D1E     		subs	r5, r3, #1
 2232 0022 43F0C043 		orr	r3, r3, #1610612736
 2233              	.L270:
 2234              		.loc 1 1237 0
 2235 0026 628A     		ldrh	r2, [r4, #18]
 2236              	.LVL220:
 2237              		.loc 1 1239 0
 2238 0028 006D     		ldr	r0, [r0, #80]
 2239              	.LVL221:
 2240              		.loc 1 1237 0
 2241 002a AC18     		adds	r4, r5, r2
 2242              	.LVL222:
 2243 002c B4FBF2F2 		udiv	r2, r4, r2
 2244              	.LVL223:
 2245              		.loc 1 1239 0
 2246 0030 00EB4111 		add	r1, r0, r1, lsl #5
 2247              	.LVL224:
 2248 0034 43EAC243 		orr	r3, r3, r2, lsl #19
 2249 0038 C1F8103B 		str	r3, [r1, #2832]
 2250              		.loc 1 1242 0
 2251 003c 30BC     		pop	{r4, r5}
 2252 003e 7047     		bx	lr
 2253              		.cfi_endproc
 2254              	.LFE148:
 2255              		.size	usb_lld_prepare_receive, .-usb_lld_prepare_receive
 2256              		.section	.text.otg_epout_handler,"ax",%progbits
 2257              		.align	2
 2258              		.p2align 4,,15
 2259              		.thumb
 2260              		.thumb_func
 2261              		.type	otg_epout_handler, %function
 2262              	otg_epout_handler:
 2263              	.LFB134:
 2264              		.loc 1 599 0
 2265              		.cfi_startproc
ARM GAS  C:\Users\srich\AppData\Local\Temp\cc7Prgoh.s 			page 41


 2266              		@ args = 0, pretend = 0, frame = 0
 2267              		@ frame_needed = 0, uses_anonymous_args = 0
 2268              	.LVL225:
 2269 0000 F8B5     		push	{r3, r4, r5, r6, r7, lr}
 2270              	.LCFI10:
 2271              		.cfi_def_cfa_offset 24
 2272              		.cfi_offset 3, -24
 2273              		.cfi_offset 4, -20
 2274              		.cfi_offset 5, -16
 2275              		.cfi_offset 6, -12
 2276              		.cfi_offset 7, -8
 2277              		.cfi_offset 14, -4
 2278              		.loc 1 600 0
 2279 0002 076D     		ldr	r7, [r0, #80]
 2280              	.LVL226:
 2281              		.loc 1 601 0
 2282 0004 07EB4113 		add	r3, r7, r1, lsl #5
 2283              		.loc 1 599 0
 2284 0008 0546     		mov	r5, r0
 2285              		.loc 1 601 0
 2286 000a D3F8084B 		ldr	r4, [r3, #2824]
 2287              	.LVL227:
 2288              		.loc 1 606 0
 2289 000e 2207     		lsls	r2, r4, #28
 2290              		.loc 1 599 0
 2291 0010 0E46     		mov	r6, r1
 2292              		.loc 1 604 0
 2293 0012 C3F8084B 		str	r4, [r3, #2824]
 2294              		.loc 1 606 0
 2295 0016 03D5     		bpl	.L274
 2296              		.loc 1 606 0 is_stmt 0 discriminator 1
 2297 0018 D7F81428 		ldr	r2, [r7, #2068]
 2298 001c 1307     		lsls	r3, r2, #28
 2299 001e 19D4     		bmi	.L289
 2300              	.LVL228:
 2301              	.L274:
 2302              		.loc 1 612 0 is_stmt 1
 2303 0020 E207     		lsls	r2, r4, #31
 2304 0022 16D5     		bpl	.L273
 2305              		.loc 1 612 0 is_stmt 0 discriminator 1
 2306 0024 D7F81408 		ldr	r0, [r7, #2068]
 2307 0028 C307     		lsls	r3, r0, #31
 2308 002a 12D5     		bpl	.L273
 2309              	.LBB203:
 2310              		.loc 1 614 0 is_stmt 1
 2311 002c 05EB8601 		add	r1, r5, r6, lsl #2
 2312 0030 CB68     		ldr	r3, [r1, #12]
 2313 0032 9A69     		ldr	r2, [r3, #24]
 2314              	.LVL229:
 2315              		.loc 1 616 0
 2316 0034 5168     		ldr	r1, [r2, #4]
 2317 0036 1069     		ldr	r0, [r2, #16]
 2318 0038 8142     		cmp	r1, r0
 2319 003a 11D3     		bcc	.L290
 2320              		.loc 1 629 0
 2321 003c 6989     		ldrh	r1, [r5, #10]
 2322 003e DB68     		ldr	r3, [r3, #12]
ARM GAS  C:\Users\srich\AppData\Local\Temp\cc7Prgoh.s 			page 42


 2323 0040 0122     		movs	r2, #1
 2324              	.LVL230:
 2325 0042 02FA06F2 		lsl	r2, r2, r6
 2326 0046 21EA0200 		bic	r0, r1, r2
 2327 004a 6881     		strh	r0, [r5, #10]	@ movhi
 2328 004c 3146     		mov	r1, r6
 2329 004e 2846     		mov	r0, r5
 2330 0050 9847     		blx	r3
 2331              	.LVL231:
 2332              	.L273:
 2333 0052 F8BD     		pop	{r3, r4, r5, r6, r7, pc}
 2334              	.LVL232:
 2335              	.L289:
 2336              	.LBE203:
 2337              		.loc 1 609 0
 2338 0054 00EB8103 		add	r3, r0, r1, lsl #2
 2339 0058 DA68     		ldr	r2, [r3, #12]
 2340 005a 5368     		ldr	r3, [r2, #4]
 2341 005c 9847     		blx	r3
 2342              	.LVL233:
 2343 005e DFE7     		b	.L274
 2344              	.LVL234:
 2345              	.L290:
 2346              	.LBB211:
 2347              		.loc 1 620 0
 2348 0060 411A     		subs	r1, r0, r1
 2349              		.loc 1 621 0
 2350 0062 0024     		movs	r4, #0
 2351              	.LVL235:
 2352              		.loc 1 620 0
 2353 0064 5160     		str	r1, [r2, #4]
 2354              		.loc 1 621 0
 2355 0066 9460     		str	r4, [r2, #8]
 2356              		.loc 1 622 0
 2357 0068 2846     		mov	r0, r5
 2358 006a 3146     		mov	r1, r6
 2359 006c FFF7FEFF 		bl	usb_lld_prepare_receive
 2360              	.LVL236:
 2361              	.LBB204:
 2362              		.loc 1 623 0
 2363 0070 2023     		movs	r3, #32
 2364              	.LVL237:
 2365              	@ 623 "c:\ChibiStudio\chibios/os/hal/platforms/STM32/OTGv1/usb_lld.c" 1
 2366 0072 83F31188 		msr     BASEPRI, r3
 2367              	@ 0 "" 2
 2368              	.LVL238:
 2369              		.thumb
 2370              	.LBE204:
 2371              	.LBB205:
 2372              	.LBB206:
 2373              		.loc 1 1283 0
 2374 0076 5836     		adds	r6, r6, #88
 2375              	.LVL239:
 2376 0078 2A6D     		ldr	r2, [r5, #80]
 2377 007a 7601     		lsls	r6, r6, #5
 2378              	.LVL240:
 2379              	.LBE206:
ARM GAS  C:\Users\srich\AppData\Local\Temp\cc7Prgoh.s 			page 43


 2380              	.LBE205:
 2381              	.LBB208:
 2382              		.loc 1 625 0
 2383 007c 2346     		mov	r3, r4
 2384              	.LVL241:
 2385              	.LBE208:
 2386              	.LBB209:
 2387              	.LBB207:
 2388              		.loc 1 1283 0
 2389 007e 9059     		ldr	r0, [r2, r6]
 2390 0080 40F08061 		orr	r1, r0, #67108864
 2391 0084 9151     		str	r1, [r2, r6]
 2392              	.LBE207:
 2393              	.LBE209:
 2394              	.LBB210:
 2395              		.loc 1 625 0
 2396              	@ 625 "c:\ChibiStudio\chibios/os/hal/platforms/STM32/OTGv1/usb_lld.c" 1
 2397 0086 83F31188 		msr     BASEPRI, r3
 2398              	@ 0 "" 2
 2399              	.LVL242:
 2400              		.thumb
 2401 008a F8BD     		pop	{r3, r4, r5, r6, r7, pc}
 2402              	.LBE210:
 2403              	.LBE211:
 2404              		.cfi_endproc
 2405              	.LFE134:
 2406              		.size	otg_epout_handler, .-otg_epout_handler
 2407 008c AFF30080 		.section	.text.usb_lld_prepare_transmit,"ax",%progbits
 2408              		.align	2
 2409              		.p2align 4,,15
 2410              		.global	usb_lld_prepare_transmit
 2411              		.thumb
 2412              		.thumb_func
 2413              		.type	usb_lld_prepare_transmit, %function
 2414              	usb_lld_prepare_transmit:
 2415              	.LFB149:
 2416              		.loc 1 1252 0
 2417              		.cfi_startproc
 2418              		@ args = 0, pretend = 0, frame = 0
 2419              		@ frame_needed = 0, uses_anonymous_args = 0
 2420              		@ link register save eliminated.
 2421              	.LVL243:
 2422              		.loc 1 1253 0
 2423 0000 00EB8103 		add	r3, r0, r1, lsl #2
 2424              		.loc 1 1252 0
 2425 0004 30B4     		push	{r4, r5}
 2426              	.LCFI11:
 2427              		.cfi_def_cfa_offset 8
 2428              		.cfi_offset 4, -8
 2429              		.cfi_offset 5, -4
 2430              		.loc 1 1253 0
 2431 0006 DC68     		ldr	r4, [r3, #12]
 2432 0008 6269     		ldr	r2, [r4, #20]
 2433              	.LVL244:
 2434              		.loc 1 1256 0
 2435 000a 5368     		ldr	r3, [r2, #4]
 2436 000c 1361     		str	r3, [r2, #16]
ARM GAS  C:\Users\srich\AppData\Local\Temp\cc7Prgoh.s 			page 44


 2437              		.loc 1 1257 0
 2438 000e A3B1     		cbz	r3, .L298
 2439              	.LBB212:
 2440              		.loc 1 1262 0
 2441 0010 69B1     		cbz	r1, .L294
 2442              	.L297:
 2443 0012 5D1E     		subs	r5, r3, #1
 2444              	.L295:
 2445              		.loc 1 1266 0
 2446 0014 228A     		ldrh	r2, [r4, #16]
 2447              	.LVL245:
 2448              		.loc 1 1268 0
 2449 0016 006D     		ldr	r0, [r0, #80]
 2450              	.LVL246:
 2451              		.loc 1 1266 0
 2452 0018 AC18     		adds	r4, r5, r2
 2453              	.LVL247:
 2454 001a B4FBF2F2 		udiv	r2, r4, r2
 2455              	.LVL248:
 2456              		.loc 1 1268 0
 2457 001e 00EB4111 		add	r1, r0, r1, lsl #5
 2458              	.LVL249:
 2459 0022 43EAC243 		orr	r3, r3, r2, lsl #19
 2460 0026 C1F81039 		str	r3, [r1, #2320]
 2461              	.LVL250:
 2462              	.L291:
 2463              	.LBE212:
 2464              		.loc 1 1271 0
 2465 002a 30BC     		pop	{r4, r5}
 2466 002c 7047     		bx	lr
 2467              	.LVL251:
 2468              	.L294:
 2469              	.LBB213:
 2470              		.loc 1 1262 0 discriminator 1
 2471 002e 402B     		cmp	r3, #64
 2472 0030 EFD9     		bls	.L297
 2473              		.loc 1 1263 0
 2474 0032 4023     		movs	r3, #64
 2475 0034 5360     		str	r3, [r2, #4]
 2476 0036 3F25     		movs	r5, #63
 2477 0038 ECE7     		b	.L295
 2478              	.L298:
 2479              	.LBE213:
 2480              		.loc 1 1259 0
 2481 003a 006D     		ldr	r0, [r0, #80]
 2482              	.LVL252:
 2483 003c 00EB4112 		add	r2, r0, r1, lsl #5
 2484              	.LVL253:
 2485 0040 4FF40021 		mov	r1, #524288
 2486              	.LVL254:
 2487 0044 C2F81019 		str	r1, [r2, #2320]
 2488 0048 EFE7     		b	.L291
 2489              		.cfi_endproc
 2490              	.LFE149:
 2491              		.size	usb_lld_prepare_transmit, .-usb_lld_prepare_transmit
 2492 004a 00BFAFF3 		.section	.text.otg_epin_handler,"ax",%progbits
 2492      0080
ARM GAS  C:\Users\srich\AppData\Local\Temp\cc7Prgoh.s 			page 45


 2493              		.align	2
 2494              		.p2align 4,,15
 2495              		.thumb
 2496              		.thumb_func
 2497              		.type	otg_epin_handler, %function
 2498              	otg_epin_handler:
 2499              	.LFB133:
 2500              		.loc 1 551 0
 2501              		.cfi_startproc
 2502              		@ args = 0, pretend = 0, frame = 0
 2503              		@ frame_needed = 0, uses_anonymous_args = 0
 2504              	.LVL255:
 2505 0000 2DE9F041 		push	{r4, r5, r6, r7, r8, lr}
 2506              	.LCFI12:
 2507              		.cfi_def_cfa_offset 24
 2508              		.cfi_offset 4, -24
 2509              		.cfi_offset 5, -20
 2510              		.cfi_offset 6, -16
 2511              		.cfi_offset 7, -12
 2512              		.cfi_offset 8, -8
 2513              		.cfi_offset 14, -4
 2514              		.loc 1 552 0
 2515 0004 056D     		ldr	r5, [r0, #80]
 2516              	.LVL256:
 2517              		.loc 1 553 0
 2518 0006 05EB4113 		add	r3, r5, r1, lsl #5
 2519              		.loc 1 551 0
 2520 000a 0646     		mov	r6, r0
 2521              		.loc 1 553 0
 2522 000c D3F80849 		ldr	r4, [r3, #2312]
 2523              	.LVL257:
 2524              		.loc 1 555 0
 2525 0010 C3F80849 		str	r4, [r3, #2312]
 2526              		.loc 1 560 0
 2527 0014 E307     		lsls	r3, r4, #31
 2528              		.loc 1 551 0
 2529 0016 0F46     		mov	r7, r1
 2530              		.loc 1 560 0
 2531 0018 03D5     		bpl	.L300
 2532              		.loc 1 560 0 is_stmt 0 discriminator 1
 2533 001a D5F81028 		ldr	r2, [r5, #2064]
 2534 001e D207     		lsls	r2, r2, #31
 2535 0020 0AD4     		bmi	.L319
 2536              	.LVL258:
 2537              	.L300:
 2538              		.loc 1 580 0 is_stmt 1
 2539 0022 2306     		lsls	r3, r4, #24
 2540              	.LVL259:
 2541 0024 06D5     		bpl	.L299
 2542              		.loc 1 581 0 discriminator 1
 2543 0026 0122     		movs	r2, #1
 2544 0028 D5F83408 		ldr	r0, [r5, #2100]
 2545 002c 02FA07F7 		lsl	r7, r2, r7
 2546              		.loc 1 580 0 discriminator 1
 2547 0030 0742     		tst	r7, r0
 2548 0032 2BD1     		bne	.L320
 2549              	.L299:
ARM GAS  C:\Users\srich\AppData\Local\Temp\cc7Prgoh.s 			page 46


 2550 0034 BDE8F081 		pop	{r4, r5, r6, r7, r8, pc}
 2551              	.LVL260:
 2552              	.L319:
 2553              	.LBB223:
 2554              		.loc 1 562 0
 2555 0038 00EB8103 		add	r3, r0, r1, lsl #2
 2556 003c DB68     		ldr	r3, [r3, #12]
 2557 003e 5A69     		ldr	r2, [r3, #20]
 2558              	.LVL261:
 2559              		.loc 1 564 0
 2560 0040 D2F804E0 		ldr	lr, [r2, #4]
 2561 0044 D2F810C0 		ldr	ip, [r2, #16]
 2562 0048 E645     		cmp	lr, ip
 2563 004a 36D2     		bcs	.L301
 2564              		.loc 1 568 0
 2565 004c CEEB0C03 		rsb	r3, lr, ip
 2566              		.loc 1 569 0
 2567 0050 4FF00008 		mov	r8, #0
 2568              		.loc 1 568 0
 2569 0054 5360     		str	r3, [r2, #4]
 2570              		.loc 1 569 0
 2571 0056 C2F80880 		str	r8, [r2, #8]
 2572              		.loc 1 570 0
 2573 005a FFF7FEFF 		bl	usb_lld_prepare_transmit
 2574              	.LVL262:
 2575              	.LBB224:
 2576              		.loc 1 571 0
 2577 005e 2023     		movs	r3, #32
 2578              	.LVL263:
 2579              	@ 571 "c:\ChibiStudio\chibios/os/hal/platforms/STM32/OTGv1/usb_lld.c" 1
 2580 0060 83F31188 		msr     BASEPRI, r3
 2581              	@ 0 "" 2
 2582              	.LVL264:
 2583              		.thumb
 2584              	.LBE224:
 2585              	.LBB225:
 2586              	.LBB226:
 2587              		.loc 1 1296 0
 2588 0064 07F14800 		add	r0, r7, #72
 2589 0068 326D     		ldr	r2, [r6, #80]
 2590 006a 4301     		lsls	r3, r0, #5
 2591              	.LVL265:
 2592 006c D158     		ldr	r1, [r2, r3]
 2593 006e 41F00440 		orr	r0, r1, #-2080374784
 2594 0072 D050     		str	r0, [r2, r3]
 2595              		.loc 1 1297 0
 2596 0074 0123     		movs	r3, #1
 2597 0076 D2F83418 		ldr	r1, [r2, #2100]
 2598 007a 03FA07F3 		lsl	r3, r3, r7
 2599 007e 0B43     		orrs	r3, r3, r1
 2600 0080 C2F83438 		str	r3, [r2, #2100]
 2601              	.LBE226:
 2602              	.LBE225:
 2603              	.LBB227:
 2604              		.loc 1 573 0
 2605 0084 4346     		mov	r3, r8
 2606              	@ 573 "c:\ChibiStudio\chibios/os/hal/platforms/STM32/OTGv1/usb_lld.c" 1
ARM GAS  C:\Users\srich\AppData\Local\Temp\cc7Prgoh.s 			page 47


 2607 0086 83F31188 		msr     BASEPRI, r3
 2608              	@ 0 "" 2
 2609              	.LVL266:
 2610              		.thumb
 2611 008a CAE7     		b	.L300
 2612              	.LVL267:
 2613              	.L320:
 2614              	.LBE227:
 2615              	.LBE223:
 2616              	.LBB228:
 2617              		.loc 1 583 0
 2618 008c 2023     		movs	r3, #32
 2619              	.LVL268:
 2620              	@ 583 "c:\ChibiStudio\chibios/os/hal/platforms/STM32/OTGv1/usb_lld.c" 1
 2621 008e 83F31188 		msr     BASEPRI, r3
 2622              	@ 0 "" 2
 2623              	.LVL269:
 2624              		.thumb
 2625              	.LBE228:
 2626              		.loc 1 584 0
 2627 0092 F16D     		ldr	r1, [r6, #92]
 2628              		.loc 1 585 0
 2629 0094 D5F83438 		ldr	r3, [r5, #2100]
 2630              	.LVL270:
 2631              	.LBB229:
 2632              	.LBB230:
 2633              		.loc 1 125 0
 2634 0098 706E     		ldr	r0, [r6, #100]
 2635              	.LBE230:
 2636              	.LBE229:
 2637              		.loc 1 584 0
 2638 009a 3943     		orrs	r1, r1, r7
 2639              		.loc 1 585 0
 2640 009c 23EA0707 		bic	r7, r3, r7
 2641              		.loc 1 584 0
 2642 00a0 F165     		str	r1, [r6, #92]
 2643              		.loc 1 585 0
 2644 00a2 C5F83478 		str	r7, [r5, #2100]
 2645              	.LVL271:
 2646              	.LBB232:
 2647              	.LBB231:
 2648              		.loc 1 125 0
 2649 00a6 18B1     		cbz	r0, .L303
 2650              		.loc 1 126 0
 2651 00a8 FFF7FEFF 		bl	chSchReadyI
 2652              	.LVL272:
 2653              		.loc 1 127 0
 2654 00ac 0020     		movs	r0, #0
 2655 00ae 7066     		str	r0, [r6, #100]
 2656              	.L303:
 2657              	.LBE231:
 2658              	.LBE232:
 2659              	.LBB233:
 2660              		.loc 1 587 0
 2661 00b0 0023     		movs	r3, #0
 2662              	.LVL273:
 2663              	@ 587 "c:\ChibiStudio\chibios/os/hal/platforms/STM32/OTGv1/usb_lld.c" 1
ARM GAS  C:\Users\srich\AppData\Local\Temp\cc7Prgoh.s 			page 48


 2664 00b2 83F31188 		msr     BASEPRI, r3
 2665              	@ 0 "" 2
 2666              	.LVL274:
 2667              		.thumb
 2668 00b6 BDE8F081 		pop	{r4, r5, r6, r7, r8, pc}
 2669              	.LVL275:
 2670              	.L301:
 2671              	.LBE233:
 2672              	.LBB234:
 2673              		.loc 1 577 0
 2674 00ba B0F808E0 		ldrh	lr, [r0, #8]
 2675 00be 9B68     		ldr	r3, [r3, #8]
 2676 00c0 0122     		movs	r2, #1
 2677              	.LVL276:
 2678 00c2 02FA01F2 		lsl	r2, r2, r1
 2679 00c6 2EEA0202 		bic	r2, lr, r2
 2680 00ca 0281     		strh	r2, [r0, #8]	@ movhi
 2681 00cc 9847     		blx	r3
 2682              	.LVL277:
 2683 00ce A8E7     		b	.L300
 2684              	.LBE234:
 2685              		.cfi_endproc
 2686              	.LFE133:
 2687              		.size	otg_epin_handler, .-otg_epin_handler
 2688              		.section	.text.Vector14C,"ax",%progbits
 2689              		.align	2
 2690              		.p2align 4,,15
 2691              		.global	Vector14C
 2692              		.thumb
 2693              		.thumb_func
 2694              		.type	Vector14C, %function
 2695              	Vector14C:
 2696              	.LFB137:
 2697              		.loc 1 780 0
 2698              		.cfi_startproc
 2699              		@ args = 0, pretend = 0, frame = 0
 2700              		@ frame_needed = 0, uses_anonymous_args = 0
 2701              	.LVL278:
 2702 0000 70B5     		push	{r4, r5, r6, lr}
 2703              	.LCFI13:
 2704              		.cfi_def_cfa_offset 16
 2705              		.cfi_offset 4, -16
 2706              		.cfi_offset 5, -12
 2707              		.cfi_offset 6, -8
 2708              		.cfi_offset 14, -4
 2709              	.LBB241:
 2710              	.LBB242:
 2711              		.loc 1 642 0
 2712 0002 3E4E     		ldr	r6, .L393
 2713 0004 356D     		ldr	r5, [r6, #80]
 2714              	.LVL279:
 2715              		.loc 1 645 0
 2716 0006 6B69     		ldr	r3, [r5, #20]
 2717              	.LVL280:
 2718              		.loc 1 646 0
 2719 0008 AC69     		ldr	r4, [r5, #24]
 2720 000a 1C40     		ands	r4, r4, r3
ARM GAS  C:\Users\srich\AppData\Local\Temp\cc7Prgoh.s 			page 49


 2721              	.LVL281:
 2722              		.loc 1 650 0
 2723 000c E204     		lsls	r2, r4, #19
 2724              		.loc 1 647 0
 2725 000e 6C61     		str	r4, [r5, #20]
 2726              		.loc 1 650 0
 2727 0010 2BD4     		bmi	.L383
 2728              	.L323:
 2729              		.loc 1 656 0
 2730 0012 A104     		lsls	r1, r4, #18
 2731              		.loc 1 657 0
 2732 0014 48BF     		it	mi
 2733 0016 D5F80818 		ldrmi	r1, [r5, #2056]
 2734              		.loc 1 661 0
 2735 001a 2007     		lsls	r0, r4, #28
 2736 001c 04D5     		bpl	.L326
 2737              		.loc 1 662 0
 2738 001e 7368     		ldr	r3, [r6, #4]
 2739 0020 DA68     		ldr	r2, [r3, #12]
 2740 0022 0AB1     		cbz	r2, .L326
 2741 0024 3548     		ldr	r0, .L393
 2742 0026 9047     		blx	r2
 2743              	.LVL282:
 2744              	.L326:
 2745              		.loc 1 666 0
 2746 0028 E106     		lsls	r1, r4, #27
 2747 002a 29D4     		bmi	.L384
 2748              	.LVL283:
 2749              	.L327:
 2750              		.loc 1 677 0
 2751 002c 6203     		lsls	r2, r4, #13
 2752              		.loc 1 676 0
 2753 002e D5F81858 		ldr	r5, [r5, #2072]
 2754              	.LVL284:
 2755              		.loc 1 677 0
 2756 0032 07D5     		bpl	.L330
 2757              		.loc 1 678 0
 2758 0034 EB07     		lsls	r3, r5, #31
 2759              	.LVL285:
 2760 0036 49D4     		bmi	.L385
 2761              		.loc 1 680 0
 2762 0038 A807     		lsls	r0, r5, #30
 2763 003a 4DD4     		bmi	.L386
 2764              	.L332:
 2765              		.loc 1 682 0
 2766 003c 6907     		lsls	r1, r5, #29
 2767 003e 51D4     		bmi	.L387
 2768              	.L333:
 2769              		.loc 1 684 0
 2770 0040 2A07     		lsls	r2, r5, #28
 2771 0042 55D4     		bmi	.L388
 2772              	.LVL286:
 2773              	.L330:
 2774              		.loc 1 693 0
 2775 0044 2303     		lsls	r3, r4, #12
 2776              	.LVL287:
 2777 0046 07D5     		bpl	.L336
ARM GAS  C:\Users\srich\AppData\Local\Temp\cc7Prgoh.s 			page 50


 2778              		.loc 1 694 0
 2779 0048 E803     		lsls	r0, r5, #15
 2780 004a 32D4     		bmi	.L389
 2781              		.loc 1 696 0
 2782 004c A903     		lsls	r1, r5, #14
 2783 004e 36D4     		bmi	.L390
 2784              	.L338:
 2785              		.loc 1 698 0
 2786 0050 6A03     		lsls	r2, r5, #13
 2787 0052 27D4     		bmi	.L391
 2788              	.L339:
 2789              		.loc 1 700 0
 2790 0054 2B03     		lsls	r3, r5, #12
 2791 0056 03D4     		bmi	.L392
 2792              	.L336:
 2793              	.LBE242:
 2794              	.LBE241:
 2795              		.loc 1 787 0
 2796 0058 BDE87040 		pop	{r4, r5, r6, lr}
 2797              		.loc 1 786 0
 2798 005c FFF7FEBF 		b	_port_irq_epilogue
 2799              	.LVL288:
 2800              	.L392:
 2801              	.LBB250:
 2802              	.LBB249:
 2803              		.loc 1 701 0
 2804 0060 2648     		ldr	r0, .L393
 2805 0062 0321     		movs	r1, #3
 2806 0064 FFF7FEFF 		bl	otg_epout_handler
 2807              	.LVL289:
 2808 0068 F6E7     		b	.L336
 2809              	.LVL290:
 2810              	.L383:
 2811              		.loc 1 651 0
 2812 006a 3046     		mov	r0, r6
 2813 006c FFF7FEFF 		bl	_usb_reset
 2814              	.LVL291:
 2815              		.loc 1 652 0
 2816 0070 7068     		ldr	r0, [r6, #4]
 2817 0072 0268     		ldr	r2, [r0, #0]
 2818 0074 002A     		cmp	r2, #0
 2819 0076 CCD0     		beq	.L323
 2820 0078 3046     		mov	r0, r6
 2821 007a 0021     		movs	r1, #0
 2822 007c 9047     		blx	r2
 2823              	.LVL292:
 2824 007e C8E7     		b	.L323
 2825              	.L384:
 2826              	.LBB243:
 2827              		.loc 1 669 0
 2828 0080 2023     		movs	r3, #32
 2829              	.LVL293:
 2830              	@ 669 "c:\ChibiStudio\chibios/os/hal/platforms/STM32/OTGv1/usb_lld.c" 1
 2831 0082 83F31188 		msr     BASEPRI, r3
 2832              	@ 0 "" 2
 2833              	.LVL294:
 2834              		.thumb
ARM GAS  C:\Users\srich\AppData\Local\Temp\cc7Prgoh.s 			page 51


 2835              	.LBE243:
 2836              		.loc 1 670 0
 2837 0086 A969     		ldr	r1, [r5, #24]
 2838              	.LBB244:
 2839              	.LBB245:
 2840              		.loc 1 125 0
 2841 0088 706E     		ldr	r0, [r6, #100]
 2842              	.LBE245:
 2843              	.LBE244:
 2844              		.loc 1 670 0
 2845 008a 21F01003 		bic	r3, r1, #16
 2846              	.LVL295:
 2847 008e AB61     		str	r3, [r5, #24]
 2848              	.LVL296:
 2849              	.LBB247:
 2850              	.LBB246:
 2851              		.loc 1 125 0
 2852 0090 20B1     		cbz	r0, .L328
 2853              		.loc 1 126 0
 2854 0092 FFF7FEFF 		bl	chSchReadyI
 2855              	.LVL297:
 2856              		.loc 1 127 0
 2857 0096 194A     		ldr	r2, .L393
 2858 0098 0020     		movs	r0, #0
 2859 009a 5066     		str	r0, [r2, #100]
 2860              	.L328:
 2861              	.LBE246:
 2862              	.LBE247:
 2863              	.LBB248:
 2864              		.loc 1 672 0
 2865 009c 0023     		movs	r3, #0
 2866              	@ 672 "c:\ChibiStudio\chibios/os/hal/platforms/STM32/OTGv1/usb_lld.c" 1
 2867 009e 83F31188 		msr     BASEPRI, r3
 2868              	@ 0 "" 2
 2869              	.LVL298:
 2870              		.thumb
 2871 00a2 C3E7     		b	.L327
 2872              	.LVL299:
 2873              	.L391:
 2874              	.LBE248:
 2875              		.loc 1 699 0
 2876 00a4 0221     		movs	r1, #2
 2877 00a6 1548     		ldr	r0, .L393
 2878 00a8 FFF7FEFF 		bl	otg_epout_handler
 2879              	.LVL300:
 2880              		.loc 1 700 0
 2881 00ac 2B03     		lsls	r3, r5, #12
 2882 00ae D3D5     		bpl	.L336
 2883 00b0 D6E7     		b	.L392
 2884              	.L389:
 2885              		.loc 1 695 0
 2886 00b2 0021     		movs	r1, #0
 2887 00b4 1148     		ldr	r0, .L393
 2888 00b6 FFF7FEFF 		bl	otg_epout_handler
 2889              	.LVL301:
 2890              		.loc 1 696 0
 2891 00ba A903     		lsls	r1, r5, #14
ARM GAS  C:\Users\srich\AppData\Local\Temp\cc7Prgoh.s 			page 52


 2892 00bc C8D5     		bpl	.L338
 2893              	.L390:
 2894              		.loc 1 697 0
 2895 00be 0121     		movs	r1, #1
 2896 00c0 0E48     		ldr	r0, .L393
 2897 00c2 FFF7FEFF 		bl	otg_epout_handler
 2898              	.LVL302:
 2899              		.loc 1 698 0
 2900 00c6 6A03     		lsls	r2, r5, #13
 2901 00c8 C4D5     		bpl	.L339
 2902 00ca EBE7     		b	.L391
 2903              	.L385:
 2904              		.loc 1 679 0
 2905 00cc 0B48     		ldr	r0, .L393
 2906 00ce 0021     		movs	r1, #0
 2907 00d0 FFF7FEFF 		bl	otg_epin_handler
 2908              	.LVL303:
 2909              		.loc 1 680 0
 2910 00d4 A807     		lsls	r0, r5, #30
 2911 00d6 B1D5     		bpl	.L332
 2912              	.L386:
 2913              		.loc 1 681 0
 2914 00d8 0121     		movs	r1, #1
 2915 00da 0848     		ldr	r0, .L393
 2916 00dc FFF7FEFF 		bl	otg_epin_handler
 2917              	.LVL304:
 2918              		.loc 1 682 0
 2919 00e0 6907     		lsls	r1, r5, #29
 2920 00e2 ADD5     		bpl	.L333
 2921              	.L387:
 2922              		.loc 1 683 0
 2923 00e4 0221     		movs	r1, #2
 2924 00e6 0548     		ldr	r0, .L393
 2925 00e8 FFF7FEFF 		bl	otg_epin_handler
 2926              	.LVL305:
 2927              		.loc 1 684 0
 2928 00ec 2A07     		lsls	r2, r5, #28
 2929 00ee A9D5     		bpl	.L330
 2930              	.L388:
 2931              		.loc 1 685 0
 2932 00f0 0248     		ldr	r0, .L393
 2933 00f2 0321     		movs	r1, #3
 2934 00f4 FFF7FEFF 		bl	otg_epin_handler
 2935              	.LVL306:
 2936 00f8 A4E7     		b	.L330
 2937              	.L394:
 2938 00fa 00BF     		.align	2
 2939              	.L393:
 2940 00fc 00000000 		.word	.LANCHOR0
 2941              	.LBE249:
 2942              	.LBE250:
 2943              		.cfi_endproc
 2944              	.LFE137:
 2945              		.size	Vector14C, .-Vector14C
 2946              		.section	.text.usb_lld_start_out,"ax",%progbits
 2947              		.align	2
 2948              		.p2align 4,,15
ARM GAS  C:\Users\srich\AppData\Local\Temp\cc7Prgoh.s 			page 53


 2949              		.global	usb_lld_start_out
 2950              		.thumb
 2951              		.thumb_func
 2952              		.type	usb_lld_start_out, %function
 2953              	usb_lld_start_out:
 2954              	.LFB150:
 2955              		.loc 1 1281 0
 2956              		.cfi_startproc
 2957              		@ args = 0, pretend = 0, frame = 0
 2958              		@ frame_needed = 0, uses_anonymous_args = 0
 2959              		@ link register save eliminated.
 2960              	.LVL307:
 2961              		.loc 1 1283 0
 2962 0000 5831     		adds	r1, r1, #88
 2963              	.LVL308:
 2964 0002 036D     		ldr	r3, [r0, #80]
 2965 0004 4901     		lsls	r1, r1, #5
 2966 0006 5A58     		ldr	r2, [r3, r1]
 2967 0008 42F08060 		orr	r0, r2, #67108864
 2968              	.LVL309:
 2969 000c 5850     		str	r0, [r3, r1]
 2970 000e 7047     		bx	lr
 2971              		.cfi_endproc
 2972              	.LFE150:
 2973              		.size	usb_lld_start_out, .-usb_lld_start_out
 2974              		.section	.text.usb_lld_start_in,"ax",%progbits
 2975              		.align	2
 2976              		.p2align 4,,15
 2977              		.global	usb_lld_start_in
 2978              		.thumb
 2979              		.thumb_func
 2980              		.type	usb_lld_start_in, %function
 2981              	usb_lld_start_in:
 2982              	.LFB151:
 2983              		.loc 1 1294 0
 2984              		.cfi_startproc
 2985              		@ args = 0, pretend = 0, frame = 0
 2986              		@ frame_needed = 0, uses_anonymous_args = 0
 2987              		@ link register save eliminated.
 2988              	.LVL310:
 2989              		.loc 1 1296 0
 2990 0000 01F14802 		add	r2, r1, #72
 2991 0004 036D     		ldr	r3, [r0, #80]
 2992 0006 5201     		lsls	r2, r2, #5
 2993 0008 9858     		ldr	r0, [r3, r2]
 2994              	.LVL311:
 2995 000a 40F00440 		orr	r0, r0, #-2080374784
 2996 000e 9850     		str	r0, [r3, r2]
 2997              		.loc 1 1297 0
 2998 0010 0120     		movs	r0, #1
 2999 0012 D3F83428 		ldr	r2, [r3, #2100]
 3000 0016 00FA01F1 		lsl	r1, r0, r1
 3001              	.LVL312:
 3002 001a 1143     		orrs	r1, r1, r2
 3003 001c C3F83418 		str	r1, [r3, #2100]
 3004 0020 7047     		bx	lr
 3005              		.cfi_endproc
ARM GAS  C:\Users\srich\AppData\Local\Temp\cc7Prgoh.s 			page 54


 3006              	.LFE151:
 3007              		.size	usb_lld_start_in, .-usb_lld_start_in
 3008 0022 00BFAFF3 		.section	.text.usb_lld_stall_out,"ax",%progbits
 3008      0080AFF3 
 3008      0080AFF3 
 3008      0080
 3009              		.align	2
 3010              		.p2align 4,,15
 3011              		.global	usb_lld_stall_out
 3012              		.thumb
 3013              		.thumb_func
 3014              		.type	usb_lld_stall_out, %function
 3015              	usb_lld_stall_out:
 3016              	.LFB152:
 3017              		.loc 1 1308 0
 3018              		.cfi_startproc
 3019              		@ args = 0, pretend = 0, frame = 0
 3020              		@ frame_needed = 0, uses_anonymous_args = 0
 3021              		@ link register save eliminated.
 3022              	.LVL313:
 3023              		.loc 1 1310 0
 3024 0000 5831     		adds	r1, r1, #88
 3025              	.LVL314:
 3026 0002 036D     		ldr	r3, [r0, #80]
 3027 0004 4901     		lsls	r1, r1, #5
 3028 0006 5A58     		ldr	r2, [r3, r1]
 3029 0008 42F40010 		orr	r0, r2, #2097152
 3030              	.LVL315:
 3031 000c 5850     		str	r0, [r3, r1]
 3032 000e 7047     		bx	lr
 3033              		.cfi_endproc
 3034              	.LFE152:
 3035              		.size	usb_lld_stall_out, .-usb_lld_stall_out
 3036              		.section	.text.usb_lld_stall_in,"ax",%progbits
 3037              		.align	2
 3038              		.p2align 4,,15
 3039              		.global	usb_lld_stall_in
 3040              		.thumb
 3041              		.thumb_func
 3042              		.type	usb_lld_stall_in, %function
 3043              	usb_lld_stall_in:
 3044              	.LFB153:
 3045              		.loc 1 1321 0
 3046              		.cfi_startproc
 3047              		@ args = 0, pretend = 0, frame = 0
 3048              		@ frame_needed = 0, uses_anonymous_args = 0
 3049              		@ link register save eliminated.
 3050              	.LVL316:
 3051              		.loc 1 1323 0
 3052 0000 4831     		adds	r1, r1, #72
 3053              	.LVL317:
 3054 0002 036D     		ldr	r3, [r0, #80]
 3055 0004 4901     		lsls	r1, r1, #5
 3056 0006 5A58     		ldr	r2, [r3, r1]
 3057 0008 42F40010 		orr	r0, r2, #2097152
 3058              	.LVL318:
 3059 000c 5850     		str	r0, [r3, r1]
ARM GAS  C:\Users\srich\AppData\Local\Temp\cc7Prgoh.s 			page 55


 3060 000e 7047     		bx	lr
 3061              		.cfi_endproc
 3062              	.LFE153:
 3063              		.size	usb_lld_stall_in, .-usb_lld_stall_in
 3064              		.section	.text.usb_lld_clear_out,"ax",%progbits
 3065              		.align	2
 3066              		.p2align 4,,15
 3067              		.global	usb_lld_clear_out
 3068              		.thumb
 3069              		.thumb_func
 3070              		.type	usb_lld_clear_out, %function
 3071              	usb_lld_clear_out:
 3072              	.LFB154:
 3073              		.loc 1 1334 0
 3074              		.cfi_startproc
 3075              		@ args = 0, pretend = 0, frame = 0
 3076              		@ frame_needed = 0, uses_anonymous_args = 0
 3077              		@ link register save eliminated.
 3078              	.LVL319:
 3079              		.loc 1 1336 0
 3080 0000 5831     		adds	r1, r1, #88
 3081              	.LVL320:
 3082 0002 036D     		ldr	r3, [r0, #80]
 3083 0004 4901     		lsls	r1, r1, #5
 3084 0006 5A58     		ldr	r2, [r3, r1]
 3085 0008 22F40010 		bic	r0, r2, #2097152
 3086              	.LVL321:
 3087 000c 5850     		str	r0, [r3, r1]
 3088 000e 7047     		bx	lr
 3089              		.cfi_endproc
 3090              	.LFE154:
 3091              		.size	usb_lld_clear_out, .-usb_lld_clear_out
 3092              		.section	.text.usb_lld_clear_in,"ax",%progbits
 3093              		.align	2
 3094              		.p2align 4,,15
 3095              		.global	usb_lld_clear_in
 3096              		.thumb
 3097              		.thumb_func
 3098              		.type	usb_lld_clear_in, %function
 3099              	usb_lld_clear_in:
 3100              	.LFB155:
 3101              		.loc 1 1347 0
 3102              		.cfi_startproc
 3103              		@ args = 0, pretend = 0, frame = 0
 3104              		@ frame_needed = 0, uses_anonymous_args = 0
 3105              		@ link register save eliminated.
 3106              	.LVL322:
 3107              		.loc 1 1349 0
 3108 0000 4831     		adds	r1, r1, #72
 3109              	.LVL323:
 3110 0002 036D     		ldr	r3, [r0, #80]
 3111 0004 4901     		lsls	r1, r1, #5
 3112 0006 5A58     		ldr	r2, [r3, r1]
 3113 0008 22F40010 		bic	r0, r2, #2097152
 3114              	.LVL324:
 3115 000c 5850     		str	r0, [r3, r1]
 3116 000e 7047     		bx	lr
ARM GAS  C:\Users\srich\AppData\Local\Temp\cc7Prgoh.s 			page 56


 3117              		.cfi_endproc
 3118              	.LFE155:
 3119              		.size	usb_lld_clear_in, .-usb_lld_clear_in
 3120              		.global	USBD1
 3121              		.section	.rodata.fsparams,"a",%progbits
 3122              		.align	2
 3123              		.set	.LANCHOR1,. + 0
 3124              		.type	fsparams, %object
 3125              		.size	fsparams, 12
 3126              	fsparams:
 3127 0000 80000000 		.word	128
 3128 0004 40010000 		.word	320
 3129 0008 03000000 		.word	3
 3130              		.section	.bss.USBD1,"aw",%nobits
 3131              		.align	3
 3132              		.set	.LANCHOR0,. + 0
 3133              		.type	USBD1, %object
 3134              		.size	USBD1, 440
 3135              	USBD1:
 3136 0000 00000000 		.space	440
 3136      00000000 
 3136      00000000 
 3136      00000000 
 3136      00000000 
 3137              		.section	.rodata.str1.4,"aMS",%progbits,1
 3138              		.align	2
 3139              	.LC0:
 3140 0000 7573625F 		.ascii	"usb_lld_pump\000"
 3140      6C6C645F 
 3140      70756D70 
 3140      00
 3141 000d 000000   		.section	.rodata.ep0config,"a",%progbits
 3142              		.align	2
 3143              		.set	.LANCHOR2,. + 0
 3144              		.type	ep0config, %object
 3145              		.size	ep0config, 36
 3146              	ep0config:
 3147 0000 00000000 		.word	0
 3148 0004 00000000 		.word	_usb_ep0setup
 3149 0008 00000000 		.word	_usb_ep0in
 3150 000c 00000000 		.word	_usb_ep0out
 3151 0010 4000     		.short	64
 3152 0012 4000     		.short	64
 3153 0014 00000000 		.word	ep0_state
 3154 0018 00000000 		.word	ep0_state
 3155 001c 0100     		.short	1
 3156 001e 0000     		.space	2
 3157 0020 00000000 		.word	ep0setup_buffer
 3158              		.section	.bss.ep0_state,"aw",%nobits
 3159              		.align	2
 3160              		.type	ep0_state, %object
 3161              		.size	ep0_state, 20
 3162              	ep0_state:
 3163 0000 00000000 		.space	20
 3163      00000000 
 3163      00000000 
 3163      00000000 
ARM GAS  C:\Users\srich\AppData\Local\Temp\cc7Prgoh.s 			page 57


 3163      00000000 
 3164              		.section	.bss.ep0setup_buffer,"aw",%nobits
 3165              		.align	2
 3166              		.type	ep0setup_buffer, %object
 3167              		.size	ep0setup_buffer, 8
 3168              	ep0setup_buffer:
 3169 0000 00000000 		.space	8
 3169      00000000 
 3170              		.text
 3171              	.Letext0:
 3172              		.file 3 "c:\\chibistudio\\tools\\gnu tools arm embedded\\4.7 2014q2\\bin\\../lib/gcc/arm-none-eabi
 3173              		.file 4 "c:\\chibistudio\\tools\\gnu tools arm embedded\\4.7 2014q2\\bin\\../lib/gcc/arm-none-eabi
 3174              		.file 5 "c:\\ChibiStudio\\chibios/os/ports/GCC/ARMCMx/chtypes.h"
 3175              		.file 6 "c:\\ChibiStudio\\chibios/os/kernel/include/chlists.h"
 3176              		.file 7 "c:\\ChibiStudio\\chibios/os/kernel/include/chthreads.h"
 3177              		.file 8 "c:\\ChibiStudio\\chibios/os/ports/GCC/ARMCMx/chcore_v7m.h"
 3178              		.file 9 "c:\\ChibiStudio\\chibios/os/kernel/include/chschd.h"
 3179              		.file 10 "c:\\ChibiStudio\\chibios/os/kernel/include/chmtx.h"
 3180              		.file 11 "c:\\ChibiStudio\\chibios/os/kernel/include/chqueues.h"
 3181              		.file 12 "c:\\ChibiStudio\\chibios/os/hal/platforms/STM32F4xx/stm32f4xx.h"
 3182              		.file 13 "c:\\ChibiStudio\\chibios/os/hal/platforms/STM32F4xx/hal_lld.h"
 3183              		.file 14 "c:\\ChibiStudio\\chibios/os/hal/include/usb.h"
 3184              		.file 15 "c:\\ChibiStudio\\chibios/os/hal/platforms/STM32/OTGv1/usb_lld.h"
 3185              		.file 16 "c:\\ChibiStudio\\chibios/os/hal/platforms/STM32/OTGv1/stm32_otg.h"
 3186              		.file 17 "c:\\ChibiStudio\\chibios/os/ports/common/ARMCMx/CMSIS/include/core_cm4.h"
 3187              		.file 18 "c:\\ChibiStudio\\chibios/os/hal/include/hal.h"
 3188              		.file 19 "c:\\ChibiStudio\\chibios/os/ports/common/ARMCMx/nvic.h"