ARM GAS  C:\Users\srich\AppData\Local\Temp\cc7Prgoh.s 			page 1


   1              		.syntax unified
   2              		.cpu cortex-m4
   3              		.fpu softvfp
   4              		.eabi_attribute 20, 1
   5              		.eabi_attribute 21, 1
   6              		.eabi_attribute 23, 3
   7              		.eabi_attribute 24, 1
   8              		.eabi_attribute 25, 1
   9              		.eabi_attribute 26, 1
  10              		.eabi_attribute 30, 2
  11              		.eabi_attribute 34, 1
  12              		.eabi_attribute 18, 4
  13              		.thumb
  14              		.file	"usb_lld.c"
  15              		.text
  16              	.Ltext0:
  17              		.cfi_sections	.debug_frame
  18              		.section	.text.otg_disable_ep,"ax",%progbits
  19              		.align	2
  20              		.p2align 4,,15
  21              		.thumb
  22              		.thumb_func
  23              		.type	otg_disable_ep, %function
  24              	otg_disable_ep:
  25              	.LFB120:
  26              		.file 1 "c:\\ChibiStudio\\chibios/os/hal/platforms/STM32/OTGv1/usb_lld.c"
  27              		.loc 1 148 0
  28              		.cfi_startproc
  29              		@ args = 0, pretend = 0, frame = 0
  30              		@ frame_needed = 0, uses_anonymous_args = 0
  31              		@ link register save eliminated.
  32              	.LVL0:
  33 0000 416D     		ldr	r1, [r0, #84]
  34              		.loc 1 149 0
  35 0002 036D     		ldr	r3, [r0, #80]
  36              	.LVL1:
  37              		.loc 1 152 0
  38 0004 0022     		movs	r2, #0
  39              		.loc 1 148 0
  40 0006 2DE9F001 		push	{r4, r5, r6, r7, r8}
  41              	.LCFI0:
  42              		.cfi_def_cfa_offset 20
  43              		.cfi_offset 4, -20
  44              		.cfi_offset 5, -16
  45              		.cfi_offset 6, -12
  46              		.cfi_offset 7, -8
  47              		.cfi_offset 8, -4
  48              		.loc 1 163 0
  49 000a 1046     		mov	r0, r2
  50              	.LVL2:
  51 000c 8F68     		ldr	r7, [r1, #8]
  52              		.loc 1 157 0
  53 000e 4FF0804C 		mov	ip, #1073741824
  54              		.loc 1 165 0
  55 0012 4FF0FF36 		mov	r6, #-1
  56 0016 17E0     		b	.L8
  57              	.LVL3:
ARM GAS  C:\Users\srich\AppData\Local\Temp\cc7Prgoh.s 			page 2


  58              	.L2:
  59              		.loc 1 163 0
  60 0018 5850     		str	r0, [r3, r1]
  61 001a 5501     		lsls	r5, r2, #5
  62              	.L4:
  63              		.loc 1 164 0
  64 001c 5C19     		adds	r4, r3, r5
  65              		.loc 1 171 0
  66 001e 02F15801 		add	r1, r2, #88
  67 0022 4901     		lsls	r1, r1, #5
  68              		.loc 1 164 0
  69 0024 C4F81009 		str	r0, [r4, #2320]
  70              		.loc 1 165 0
  71 0028 C4F80869 		str	r6, [r4, #2312]
  72              		.loc 1 171 0
  73 002c 53F80180 		ldr	r8, [r3, r1]
  74 0030 B8F1000F 		cmp	r8, #0
  75 0034 17DB     		blt	.L19
  76              		.loc 1 178 0
  77 0036 5850     		str	r0, [r3, r1]
  78              	.L7:
  79              		.loc 1 179 0
  80 0038 5D19     		adds	r5, r3, r5
  81              		.loc 1 152 0
  82 003a 0132     		adds	r2, r2, #1
  83              	.LVL4:
  84 003c BA42     		cmp	r2, r7
  85              		.loc 1 179 0
  86 003e C5F8100B 		str	r0, [r5, #2832]
  87              		.loc 1 180 0
  88 0042 C5F8086B 		str	r6, [r5, #2824]
  89              		.loc 1 152 0
  90 0046 15D8     		bhi	.L20
  91              	.LVL5:
  92              	.L8:
  93              		.loc 1 156 0
  94 0048 02F14804 		add	r4, r2, #72
  95 004c 6101     		lsls	r1, r4, #5
  96 004e 5D58     		ldr	r5, [r3, r1]
  97 0050 002D     		cmp	r5, #0
  98 0052 E1DA     		bge	.L2
  99 0054 5501     		lsls	r5, r2, #5
 100              		.loc 1 157 0
 101 0056 43F801C0 		str	ip, [r3, r1]
 102              		.loc 1 159 0
 103 005a 5C19     		adds	r4, r3, r5
 104              	.L3:
 105              		.loc 1 159 0 is_stmt 0 discriminator 1
 106 005c D4F80819 		ldr	r1, [r4, #2312]
 107 0060 8907     		lsls	r1, r1, #30
 108 0062 FBD5     		bpl	.L3
 109 0064 DAE7     		b	.L4
 110              	.L19:
 111              		.loc 1 172 0 is_stmt 1
 112 0066 43F801C0 		str	ip, [r3, r1]
 113              	.L6:
 114              		.loc 1 174 0 discriminator 1
ARM GAS  C:\Users\srich\AppData\Local\Temp\cc7Prgoh.s 			page 3


 115 006a D4F8081B 		ldr	r1, [r4, #2824]
 116 006e C906     		lsls	r1, r1, #27
 117 0070 FBD5     		bpl	.L6
 118 0072 E1E7     		b	.L7
 119              	.LVL6:
 120              	.L20:
 121              		.loc 1 182 0
 122 0074 4FF00110 		mov	r0, #65537
 123 0078 C3F81C08 		str	r0, [r3, #2076]
 124              		.loc 1 183 0
 125 007c BDE8F001 		pop	{r4, r5, r6, r7, r8}
 126 0080 7047     		bx	lr
 127              		.cfi_endproc
 128              	.LFE120:
 129              		.size	otg_disable_ep, .-otg_disable_ep
 130 0082 00BFAFF3 		.section	.text.otg_txfifo_flush,"ax",%progbits
 130      0080AFF3 
 130      0080AFF3 
 130      0080
 131              		.align	2
 132              		.p2align 4,,15
 133              		.thumb
 134              		.thumb_func
 135              		.type	otg_txfifo_flush, %function
 136              	otg_txfifo_flush:
 137              	.LFB122:
 138              		.loc 1 195 0
 139              		.cfi_startproc
 140              		@ args = 0, pretend = 0, frame = 0
 141              		@ frame_needed = 0, uses_anonymous_args = 0
 142              		@ link register save eliminated.
 143              	.LVL7:
 144              		.loc 1 196 0
 145 0000 026D     		ldr	r2, [r0, #80]
 146              	.LVL8:
 147              		.loc 1 198 0
 148 0002 8901     		lsls	r1, r1, #6
 149              	.LVL9:
 150 0004 41F02003 		orr	r3, r1, #32
 151 0008 1361     		str	r3, [r2, #16]
 152              	.LVL10:
 153              	.L22:
 154              		.loc 1 199 0 discriminator 1
 155 000a 1069     		ldr	r0, [r2, #16]
 156 000c 8306     		lsls	r3, r0, #26
 157 000e FCD4     		bmi	.L22
 158              		.loc 1 202 0
 159 0010 0C20     		movs	r0, #12
 160              		.loc 1 203 0
 161              		.loc 1 202 0
 162 0012 FFF7FEBF 		b	halPolledDelay
 163              	.LVL11:
 164              		.cfi_endproc
 165              	.LFE122:
 166              		.size	otg_txfifo_flush, .-otg_txfifo_flush
 167 0016 00BFAFF3 		.section	.text.usb_lld_pump,"ax",%progbits
 167      0080AFF3 
ARM GAS  C:\Users\srich\AppData\Local\Temp\cc7Prgoh.s 			page 4


 167      0080
 168              		.align	2
 169              		.p2align 4,,15
 170              		.thumb
 171              		.thumb_func
 172              		.type	usb_lld_pump, %function
 173              	usb_lld_pump:
 174              	.LFB136:
 175              		.loc 1 715 0
 176              		.cfi_startproc
 177              		@ args = 0, pretend = 0, frame = 24
 178              		@ frame_needed = 0, uses_anonymous_args = 0
 179              	.LVL12:
 180 0000 2DE9F04F 		push	{r4, r5, r6, r7, r8, r9, sl, fp, lr}
 181              	.LCFI1:
 182              		.cfi_def_cfa_offset 36
 183              		.cfi_offset 4, -36
 184              		.cfi_offset 5, -32
 185              		.cfi_offset 6, -28
 186              		.cfi_offset 7, -24
 187              		.cfi_offset 8, -20
 188              		.cfi_offset 9, -16
 189              		.cfi_offset 10, -12
 190              		.cfi_offset 11, -8
 191              		.cfi_offset 14, -4
 192              		.loc 1 719 0
 193 0004 40F20001 		movw	r1, #:lower16:rlist
 194 0008 C0F20001 		movt	r1, #:upper16:rlist
 195              		.loc 1 717 0
 196 000c D0F850A0 		ldr	sl, [r0, #80]
 197              		.loc 1 719 0
 198 0010 8A69     		ldr	r2, [r1, #24]
 199              		.loc 1 715 0
 200 0012 8346     		mov	fp, r0
 201              	.LVL13:
 202              		.loc 1 719 0
 203 0014 9148     		ldr	r0, .L208
 204              	.LVL14:
 205              		.loc 1 715 0
 206 0016 87B0     		sub	sp, sp, #28
 207              	.LCFI2:
 208              		.cfi_def_cfa_offset 64
 209              	.LBB97:
 210              		.loc 1 720 0
 211 0018 2023     		movs	r3, #32
 212              	.LVL15:
 213              	.LBE97:
 214              		.loc 1 719 0
 215 001a 9061     		str	r0, [r2, #24]
 216              	.LBB98:
 217              		.loc 1 720 0
 218              	@ 720 "c:\ChibiStudio\chibios/os/hal/platforms/STM32/OTGv1/usb_lld.c" 1
 219 001c 83F31188 		msr     BASEPRI, r3
 220              	@ 0 "" 2
 221              	.LVL16:
 222              		.thumb
 223              	.LBE98:
ARM GAS  C:\Users\srich\AppData\Local\Temp\cc7Prgoh.s 			page 5


 224              	.LBB99:
 225              	.LBB100:
 226              		.loc 1 732 0
 227 0020 4FF00008 		mov	r8, #0
 228              	.LVL17:
 229              	.L87:
 230              	.LBE100:
 231              		.loc 1 726 0
 232 0024 9BF80030 		ldrb	r3, [fp, #0]	@ zero_extendqisi2
 233              	.LVL18:
 234 0028 012B     		cmp	r3, #1
 235 002a 06D0     		beq	.L25
 236              		.loc 1 726 0 is_stmt 0 discriminator 1
 237 002c DBF85C40 		ldr	r4, [fp, #92]
 238 0030 9CB9     		cbnz	r4, .L26
 239              		.loc 1 727 0 is_stmt 1
 240 0032 DAF81450 		ldr	r5, [sl, #20]
 241 0036 EB06     		lsls	r3, r5, #27
 242 0038 0FD4     		bmi	.L26
 243              	.L25:
 244              		.loc 1 729 0
 245 003a 40F20007 		movw	r7, #:lower16:rlist
 246 003e C0F20007 		movt	r7, #:upper16:rlist
 247              		.loc 1 728 0
 248 0042 DAF81860 		ldr	r6, [sl, #24]
 249              		.loc 1 729 0
 250 0046 B969     		ldr	r1, [r7, #24]
 251              		.loc 1 728 0
 252 0048 46F01002 		orr	r2, r6, #16
 253 004c CAF81820 		str	r2, [sl, #24]
 254              		.loc 1 730 0
 255 0050 0220     		movs	r0, #2
 256              		.loc 1 729 0
 257 0052 CBF86410 		str	r1, [fp, #100]
 258              		.loc 1 730 0
 259 0056 FFF7FEFF 		bl	chSchGoSleepS
 260              	.LVL19:
 261              	.L26:
 262              	.LBB101:
 263              		.loc 1 732 0
 264 005a 0023     		movs	r3, #0
 265              	.LVL20:
 266              	@ 732 "c:\ChibiStudio\chibios/os/hal/platforms/STM32/OTGv1/usb_lld.c" 1
 267 005c 83F31188 		msr     BASEPRI, r3
 268              	@ 0 "" 2
 269              	.LVL21:
 270              		.loc 1 735 0
 271              		.thumb
 272 0060 1C46     		mov	r4, r3
 273              	.LVL22:
 274              	.L180:
 275              	.LBE101:
 276              		.loc 1 738 0 discriminator 1
 277 0062 DAF81400 		ldr	r0, [sl, #20]
 278 0066 10F01007 		ands	r7, r0, #16
 279 006a 3AD0     		beq	.L204
 280              	.L52:
ARM GAS  C:\Users\srich\AppData\Local\Temp\cc7Prgoh.s 			page 6


 281              	.LVL23:
 282              	.LBB102:
 283              	.LBB103:
 284              		.loc 1 455 0
 285 006c DBF85000 		ldr	r0, [fp, #80]
 286 0070 016A     		ldr	r1, [r0, #32]
 287              	.LVL24:
 288              		.loc 1 456 0
 289 0072 01F4F015 		and	r5, r1, #1966080
 290 0076 B5F5802F 		cmp	r5, #262144
 291 007a 47D0     		beq	.L29
 292 007c B5F5402F 		cmp	r5, #786432
 293 0080 EFD1     		bne	.L180
 294              	.LVL25:
 295              		.loc 1 461 0
 296 0082 01F00F07 		and	r7, r1, #15
 297              	.LVL26:
 298              		.loc 1 462 0
 299 0086 0BEB8702 		add	r2, fp, r7, lsl #2
 300              		.loc 1 460 0
 301 008a C1F30A16 		ubfx	r6, r1, #4, #11
 302              		.loc 1 462 0
 303 008e D368     		ldr	r3, [r2, #12]
 304              	.LVL27:
 305              	.LBB104:
 306              	.LBB105:
 307              		.loc 1 373 0
 308 0090 F11C     		adds	r1, r6, #3
 309              	.LVL28:
 310              		.loc 1 375 0
 311 0092 8D08     		lsrs	r5, r1, #2
 312              	.LBE105:
 313              	.LBE104:
 314              		.loc 1 462 0
 315 0094 1F6A     		ldr	r7, [r3, #32]
 316              	.LVL29:
 317              	.LBB112:
 318              	.LBB111:
 319              		.loc 1 375 0
 320 0096 E4D0     		beq	.L180
 321 0098 00F58050 		add	r0, r0, #4096
 322              	.LVL30:
 323 009c 6A1E     		subs	r2, r5, #1
 324              	.LBB106:
 325              		.loc 1 376 0
 326 009e 0368     		ldr	r3, [r0, #0]
 327              	.LVL31:
 328              	.LBE106:
 329              		.loc 1 375 0
 330 00a0 1146     		mov	r1, r2
 331              	.LBB107:
 332              		.loc 1 380 0
 333 00a2 47F8043B 		str	r3, [r7], #4
 334              	.LVL32:
 335 00a6 02F00106 		and	r6, r2, #1
 336              		.loc 1 382 0
 337 00aa 0123     		movs	r3, #1
ARM GAS  C:\Users\srich\AppData\Local\Temp\cc7Prgoh.s 			page 7


 338              	.LVL33:
 339              	.LBE107:
 340              		.loc 1 375 0
 341 00ac 002A     		cmp	r2, #0
 342 00ae D8D0     		beq	.L180
 343 00b0 2EB1     		cbz	r6, .L31
 344              	.LBB108:
 345              		.loc 1 376 0
 346 00b2 0568     		ldr	r5, [r0, #0]
 347              	.LVL34:
 348              		.loc 1 382 0
 349 00b4 0023     		movs	r3, #0
 350              	.LVL35:
 351              	.LBE108:
 352              		.loc 1 375 0
 353 00b6 511E     		subs	r1, r2, #1
 354              	.LVL36:
 355              	.LBB109:
 356              		.loc 1 380 0
 357 00b8 47F8045B 		str	r5, [r7], #4
 358              	.LVL37:
 359              	.LBE109:
 360              		.loc 1 375 0
 361 00bc D1D0     		beq	.L180
 362              	.L31:
 363              	.LBB110:
 364              		.loc 1 376 0
 365 00be 0268     		ldr	r2, [r0, #0]
 366              		.loc 1 377 0
 367 00c0 13B1     		cbz	r3, .L33
 368              		.loc 1 380 0
 369 00c2 47F8042B 		str	r2, [r7], #4
 370              	.LVL38:
 371              		.loc 1 382 0
 372 00c6 013B     		subs	r3, r3, #1
 373              	.LVL39:
 374              	.L33:
 375              		.loc 1 384 0
 376 00c8 0139     		subs	r1, r1, #1
 377              		.loc 1 376 0
 378 00ca 0668     		ldr	r6, [r0, #0]
 379              		.loc 1 377 0
 380 00cc 13B1     		cbz	r3, .L141
 381              		.loc 1 380 0
 382 00ce 47F8046B 		str	r6, [r7], #4
 383              	.LVL40:
 384              		.loc 1 382 0
 385 00d2 013B     		subs	r3, r3, #1
 386              	.LVL41:
 387              	.L141:
 388              	.LBE110:
 389              		.loc 1 375 0
 390 00d4 0139     		subs	r1, r1, #1
 391 00d6 F2D1     		bne	.L31
 392              	.LBE111:
 393              	.LBE112:
 394              	.LBE103:
ARM GAS  C:\Users\srich\AppData\Local\Temp\cc7Prgoh.s 			page 8


 395              	.LBE102:
 396              		.loc 1 738 0
 397 00d8 DAF81400 		ldr	r0, [sl, #20]
 398              	.LVL42:
 399 00dc 10F01007 		ands	r7, r0, #16
 400              	.LVL43:
 401 00e0 C4D1     		bne	.L52
 402              	.LVL44:
 403              	.L204:
 404              		.loc 1 742 0
 405 00e2 0125     		movs	r5, #1
 406              		.loc 1 743 0
 407 00e4 DBF85C30 		ldr	r3, [fp, #92]
 408              	.LVL45:
 409              		.loc 1 742 0
 410 00e8 A540     		lsls	r5, r5, r4
 411              		.loc 1 743 0
 412 00ea 1D42     		tst	r5, r3
 413              		.loc 1 742 0
 414 00ec 0495     		str	r5, [sp, #16]
 415              	.LVL46:
 416              		.loc 1 743 0
 417 00ee 40F0B780 		bne	.L185
 418 00f2 0134     		adds	r4, r4, #1
 419 00f4 0594     		str	r4, [sp, #20]
 420              	.LVL47:
 421              	.L53:
 422              		.loc 1 735 0
 423 00f6 DBF85420 		ldr	r2, [fp, #84]
 424 00fa 059B     		ldr	r3, [sp, #20]
 425              	.LVL48:
 426 00fc 9068     		ldr	r0, [r2, #8]
 427 00fe DCB2     		uxtb	r4, r3
 428              	.LVL49:
 429 0100 8442     		cmp	r4, r0
 430 0102 AED9     		bls	.L180
 431              	.LBB129:
 432              		.loc 1 767 0
 433 0104 2023     		movs	r3, #32
 434              	.LVL50:
 435              	@ 767 "c:\ChibiStudio\chibios/os/hal/platforms/STM32/OTGv1/usb_lld.c" 1
 436 0106 83F31188 		msr     BASEPRI, r3
 437              	@ 0 "" 2
 438              	.LVL51:
 439              		.thumb
 440              	.LBE129:
 441              	.LBE99:
 442              		.loc 1 768 0
 443 010a 8BE7     		b	.L87
 444              	.LVL52:
 445              	.L29:
 446              	.LBB166:
 447              	.LBB130:
 448              	.LBB128:
 449              		.loc 1 467 0
 450 010c 01F00F07 		and	r7, r1, #15
 451              		.loc 1 468 0
ARM GAS  C:\Users\srich\AppData\Local\Temp\cc7Prgoh.s 			page 9


 452 0110 0237     		adds	r7, r7, #2
 453 0112 0BEB8705 		add	r5, fp, r7, lsl #2
 454              		.loc 1 466 0
 455 0116 C1F30A16 		ubfx	r6, r1, #4, #11
 456              	.LVL53:
 457              		.loc 1 468 0
 458 011a 6A68     		ldr	r2, [r5, #4]
 459 011c 9169     		ldr	r1, [r2, #24]
 460              	.LVL54:
 461 011e 0B78     		ldrb	r3, [r1, #0]	@ zero_extendqisi2
 462              	.LVL55:
 463 0120 002B     		cmp	r3, #0
 464 0122 3BD1     		bne	.L205
 465              		.loc 1 475 0
 466 0124 0D1D     		adds	r5, r1, #4
 467 0126 2CCD     		ldmia	r5, {r2, r3, r5}
 468              	.LVL56:
 469 0128 0332     		adds	r2, r2, #3
 470              	.LVL57:
 471              	.LBB113:
 472              	.LBB114:
 473              		.loc 1 374 0
 474 012a D31A     		subs	r3, r2, r3
 475              		.loc 1 373 0
 476 012c F21C     		adds	r2, r6, #3
 477              	.LVL58:
 478              		.loc 1 374 0
 479 012e 9B08     		lsrs	r3, r3, #2
 480              	.LVL59:
 481              		.loc 1 375 0
 482 0130 9208     		lsrs	r2, r2, #2
 483              	.LVL60:
 484 0132 29D0     		beq	.L51
 485 0134 00F58050 		add	r0, r0, #4096
 486              	.LVL61:
 487 0138 02F1FF39 		add	r9, r2, #-1
 488 013c 09F0010C 		and	ip, r9, #1
 489 0140 AE46     		mov	lr, r5
 490              	.LBB115:
 491              		.loc 1 376 0
 492 0142 D0F80090 		ldr	r9, [r0, #0]
 493              	.LVL62:
 494              		.loc 1 377 0
 495 0146 1BB1     		cbz	r3, .L129
 496              		.loc 1 380 0
 497 0148 AE46     		mov	lr, r5
 498              		.loc 1 382 0
 499 014a 013B     		subs	r3, r3, #1
 500              	.LVL63:
 501              		.loc 1 380 0
 502 014c 4EF8049B 		str	r9, [lr], #4
 503              	.LVL64:
 504              	.L129:
 505              	.LBE115:
 506              		.loc 1 375 0
 507 0150 013A     		subs	r2, r2, #1
 508              	.LVL65:
ARM GAS  C:\Users\srich\AppData\Local\Temp\cc7Prgoh.s 			page 10


 509 0152 19D0     		beq	.L51
 510 0154 BCF1000F 		cmp	ip, #0
 511 0158 07D0     		beq	.L197
 512              	.LBB116:
 513              		.loc 1 376 0
 514 015a D0F800C0 		ldr	ip, [r0, #0]
 515              	.LVL66:
 516              		.loc 1 377 0
 517 015e 13B1     		cbz	r3, .L131
 518              		.loc 1 380 0
 519 0160 4EF804CB 		str	ip, [lr], #4
 520              	.LVL67:
 521              		.loc 1 382 0
 522 0164 013B     		subs	r3, r3, #1
 523              	.LVL68:
 524              	.L131:
 525              	.LBE116:
 526              		.loc 1 375 0
 527 0166 013A     		subs	r2, r2, #1
 528 0168 0ED0     		beq	.L51
 529              	.L197:
 530 016a 8946     		mov	r9, r1
 531              	.L50:
 532              	.LBB117:
 533              		.loc 1 376 0
 534 016c 0168     		ldr	r1, [r0, #0]
 535              		.loc 1 377 0
 536 016e 13B1     		cbz	r3, .L49
 537              		.loc 1 380 0
 538 0170 4EF8041B 		str	r1, [lr], #4
 539              	.LVL69:
 540              		.loc 1 382 0
 541 0174 013B     		subs	r3, r3, #1
 542              	.LVL70:
 543              	.L49:
 544              		.loc 1 384 0
 545 0176 013A     		subs	r2, r2, #1
 546              		.loc 1 376 0
 547 0178 0168     		ldr	r1, [r0, #0]
 548              		.loc 1 377 0
 549 017a 13B1     		cbz	r3, .L134
 550              		.loc 1 380 0
 551 017c 4EF8041B 		str	r1, [lr], #4
 552              	.LVL71:
 553              		.loc 1 382 0
 554 0180 013B     		subs	r3, r3, #1
 555              	.LVL72:
 556              	.L134:
 557              	.LBE117:
 558              		.loc 1 375 0
 559 0182 013A     		subs	r2, r2, #1
 560 0184 F2D1     		bne	.L50
 561 0186 4946     		mov	r1, r9
 562              	.LVL73:
 563              	.L51:
 564              	.LBE114:
 565              	.LBE113:
ARM GAS  C:\Users\srich\AppData\Local\Temp\cc7Prgoh.s 			page 11


 566              		.loc 1 480 0
 567 0188 AD19     		adds	r5, r5, r6
 568 018a CD60     		str	r5, [r1, #12]
 569              	.LVL74:
 570              	.L45:
 571              		.loc 1 482 0
 572 018c 0BEB8707 		add	r7, fp, r7, lsl #2
 573              	.LVL75:
 574 0190 7868     		ldr	r0, [r7, #4]
 575 0192 8569     		ldr	r5, [r0, #24]
 576 0194 A968     		ldr	r1, [r5, #8]
 577 0196 8E19     		adds	r6, r1, r6
 578              	.LVL76:
 579 0198 AE60     		str	r6, [r5, #8]
 580 019a 62E7     		b	.L180
 581              	.LVL77:
 582              	.L205:
 583              		.loc 1 470 0
 584 019c 00F58050 		add	r0, r0, #4096
 585 01a0 CD68     		ldr	r5, [r1, #12]
 586              	.LVL78:
 587              	.LBB118:
 588              	.LBB119:
 589              		.loc 1 403 0
 590 01a2 002E     		cmp	r6, #0
 591 01a4 40D0     		beq	.L36
 592 01a6 3346     		mov	r3, r6
 593 01a8 A446     		mov	ip, r4
 594              	.LVL79:
 595              	.L179:
 596              	.LBB120:
 597              		.loc 1 407 0
 598 01aa 032B     		cmp	r3, #3
 599              	.LBB121:
 600              		.loc 1 413 0
 601 01ac 6969     		ldr	r1, [r5, #20]
 602              	.LBE121:
 603              		.loc 1 407 0
 604 01ae 07D9     		bls	.L38
 605              	.LVL80:
 606              	.L182:
 607              	.LBB122:
 608              		.loc 1 413 0
 609 01b0 2C69     		ldr	r4, [r5, #16]
 610 01b2 A142     		cmp	r1, r4
 611 01b4 04D3     		bcc	.L38
 612              		.loc 1 414 0
 613 01b6 EC68     		ldr	r4, [r5, #12]
 614              	.LBE122:
 615              		.loc 1 407 0
 616 01b8 032B     		cmp	r3, #3
 617              	.LBB123:
 618              		.loc 1 414 0
 619 01ba 6C61     		str	r4, [r5, #20]
 620              	.LVL81:
 621              		.loc 1 413 0
 622 01bc 6969     		ldr	r1, [r5, #20]
ARM GAS  C:\Users\srich\AppData\Local\Temp\cc7Prgoh.s 			page 12


 623              	.LBE123:
 624              		.loc 1 407 0
 625 01be F7D8     		bhi	.L182
 626              	.LVL82:
 627              	.L38:
 628              		.loc 1 425 0
 629 01c0 0268     		ldr	r2, [r0, #0]
 630              	.LVL83:
 631              		.loc 1 428 0
 632 01c2 01F8012B 		strb	r2, [r1], #1
 633              		.loc 1 429 0
 634 01c6 2C69     		ldr	r4, [r5, #16]
 635              		.loc 1 428 0
 636 01c8 6961     		str	r1, [r5, #20]
 637              		.loc 1 429 0
 638 01ca A142     		cmp	r1, r4
 639              		.loc 1 430 0
 640 01cc 24BF     		itt	cs
 641 01ce E968     		ldrcs	r1, [r5, #12]
 642 01d0 6961     		strcs	r1, [r5, #20]
 643              		.loc 1 427 0
 644 01d2 012B     		cmp	r3, #1
 645 01d4 27D0     		beq	.L191
 646              	.LVL84:
 647              		.loc 1 428 0
 648 01d6 D5F814E0 		ldr	lr, [r5, #20]
 649 01da 110A     		lsrs	r1, r2, #8
 650 01dc 0EF8011B 		strb	r1, [lr], #1
 651              		.loc 1 429 0
 652 01e0 2C69     		ldr	r4, [r5, #16]
 653              		.loc 1 428 0
 654 01e2 C5F814E0 		str	lr, [r5, #20]
 655              		.loc 1 429 0
 656 01e6 A645     		cmp	lr, r4
 657              		.loc 1 430 0
 658 01e8 24BF     		itt	cs
 659 01ea EC68     		ldrcs	r4, [r5, #12]
 660 01ec 6C61     		strcs	r4, [r5, #20]
 661              		.loc 1 427 0
 662 01ee 022B     		cmp	r3, #2
 663 01f0 19D0     		beq	.L191
 664              	.LVL85:
 665              		.loc 1 428 0
 666 01f2 D5F81490 		ldr	r9, [r5, #20]
 667 01f6 110C     		lsrs	r1, r2, #16
 668 01f8 09F8011B 		strb	r1, [r9], #1
 669              		.loc 1 429 0
 670 01fc 2C69     		ldr	r4, [r5, #16]
 671              		.loc 1 428 0
 672 01fe C5F81490 		str	r9, [r5, #20]
 673              		.loc 1 429 0
 674 0202 A145     		cmp	r9, r4
 675              		.loc 1 430 0
 676 0204 24BF     		itt	cs
 677 0206 EC68     		ldrcs	r4, [r5, #12]
 678 0208 6C61     		strcs	r4, [r5, #20]
 679              		.loc 1 427 0
ARM GAS  C:\Users\srich\AppData\Local\Temp\cc7Prgoh.s 			page 13


 680 020a 032B     		cmp	r3, #3
 681 020c 0BD0     		beq	.L191
 682              	.LVL86:
 683              		.loc 1 428 0
 684 020e 6969     		ldr	r1, [r5, #20]
 685 0210 120E     		lsrs	r2, r2, #24
 686              	.LVL87:
 687 0212 01F8012B 		strb	r2, [r1], #1
 688              		.loc 1 429 0
 689 0216 2C69     		ldr	r4, [r5, #16]
 690              		.loc 1 428 0
 691 0218 6961     		str	r1, [r5, #20]
 692              		.loc 1 429 0
 693 021a A142     		cmp	r1, r4
 694              		.loc 1 430 0
 695 021c 24BF     		itt	cs
 696 021e EC68     		ldrcs	r4, [r5, #12]
 697 0220 6C61     		strcs	r4, [r5, #20]
 698              		.loc 1 427 0
 699 0222 043B     		subs	r3, r3, #4
 700              	.LVL88:
 701 0224 C1D1     		bne	.L179
 702              	.LVL89:
 703              	.L191:
 704 0226 6446     		mov	r4, ip
 705              	.L36:
 706              	.LBE120:
 707              	.LBB124:
 708              		.loc 1 437 0
 709 0228 2023     		movs	r3, #32
 710              	.LVL90:
 711              	@ 437 "c:\ChibiStudio\chibios/os/hal/platforms/STM32/OTGv1/usb_lld.c" 1
 712 022a 83F31188 		msr     BASEPRI, r3
 713              	@ 0 "" 2
 714              	.LVL91:
 715              		.thumb
 716              	.LBE124:
 717              		.loc 1 438 0
 718 022e A968     		ldr	r1, [r5, #8]
 719              		.loc 1 439 0
 720 0230 2868     		ldr	r0, [r5, #0]
 721              	.LVL92:
 722              		.loc 1 438 0
 723 0232 8A19     		adds	r2, r1, r6
 724              		.loc 1 439 0
 725 0234 A842     		cmp	r0, r5
 726              		.loc 1 438 0
 727 0236 AA60     		str	r2, [r5, #8]
 728              		.loc 1 439 0
 729 0238 09D0     		beq	.L47
 730              	.LVL93:
 731              	.L120:
 732              	.LBB125:
 733              	.LBB126:
 734              		.file 2 "c:\\ChibiStudio\\chibios/os/kernel/include/chinline.h"
 735              		.loc 2 62 0
 736 023a 0368     		ldr	r3, [r0, #0]
ARM GAS  C:\Users\srich\AppData\Local\Temp\cc7Prgoh.s 			page 14


 737              	.LVL94:
 738 023c 2B60     		str	r3, [r5, #0]
 739 023e 5D60     		str	r5, [r3, #4]
 740              	.LBE126:
 741              	.LBE125:
 742              		.loc 1 440 0
 743 0240 FFF7FEFF 		bl	chSchReadyI
 744              	.LVL95:
 745 0244 C0F82480 		str	r8, [r0, #36]
 746              		.loc 1 439 0
 747 0248 2868     		ldr	r0, [r5, #0]
 748 024a A842     		cmp	r0, r5
 749 024c F5D1     		bne	.L120
 750              	.LVL96:
 751              	.L47:
 752              		.loc 1 441 0
 753 024e FFF7FEFF 		bl	chSchRescheduleS
 754              	.LVL97:
 755              	.LBB127:
 756              		.loc 1 442 0
 757 0252 0023     		movs	r3, #0
 758              	@ 442 "c:\ChibiStudio\chibios/os/hal/platforms/STM32/OTGv1/usb_lld.c" 1
 759 0254 83F31188 		msr     BASEPRI, r3
 760              	@ 0 "" 2
 761              	.LVL98:
 762              		.thumb
 763 0258 98E7     		b	.L45
 764              	.L209:
 765 025a 00BF     		.align	2
 766              	.L208:
 767 025c 00000000 		.word	.LC0
 768              	.LVL99:
 769              	.L185:
 770              	.LBE127:
 771              	.LBE119:
 772              	.LBE118:
 773              	.LBE128:
 774              	.LBE130:
 775              	.LBB131:
 776              	.LBB132:
 777              		.loc 1 746 0
 778 0260 2023     		movs	r3, #32
 779              	.LVL100:
 780              	@ 746 "c:\ChibiStudio\chibios/os/hal/platforms/STM32/OTGv1/usb_lld.c" 1
 781 0262 83F31188 		msr     BASEPRI, r3
 782              	@ 0 "" 2
 783              	.LVL101:
 784              		.thumb
 785              	.LBE132:
 786              		.loc 1 754 0
 787 0266 DAF80860 		ldr	r6, [sl, #8]
 788              		.loc 1 755 0
 789 026a DBF85C10 		ldr	r1, [fp, #92]
 790 026e 0498     		ldr	r0, [sp, #16]
 791              		.loc 1 754 0
 792 0270 26F00102 		bic	r2, r6, #1
 793              		.loc 1 755 0
ARM GAS  C:\Users\srich\AppData\Local\Temp\cc7Prgoh.s 			page 15


 794 0274 21EA0005 		bic	r5, r1, r0
 795              	.LVL102:
 796              		.loc 1 754 0
 797 0278 CAF80820 		str	r2, [sl, #8]
 798              	.LBB133:
 799              		.loc 1 756 0
 800 027c 3B46     		mov	r3, r7
 801              	.LVL103:
 802              	.LBE133:
 803              		.loc 1 755 0
 804 027e CBF85C50 		str	r5, [fp, #92]
 805              	.LBB134:
 806              		.loc 1 756 0
 807              	@ 756 "c:\ChibiStudio\chibios/os/hal/platforms/STM32/OTGv1/usb_lld.c" 1
 808 0282 83F31188 		msr     BASEPRI, r3
 809              	@ 0 "" 2
 810              	.LVL104:
 811              		.thumb
 812              	.LBE134:
 813              	.LBB135:
 814              	.LBB136:
 815              		.loc 1 506 0
 816 0286 A71C     		adds	r7, r4, #2
 817 0288 0BEB8703 		add	r3, fp, r7, lsl #2
 818              	.LVL105:
 819 028c 5D68     		ldr	r5, [r3, #4]
 820 028e 6869     		ldr	r0, [r5, #20]
 821 0290 8268     		ldr	r2, [r0, #8]
 822 0292 4668     		ldr	r6, [r0, #4]
 823 0294 9642     		cmp	r6, r2
 824 0296 40F2FA80 		bls	.L206
 825              		.loc 1 516 0
 826 029a DBF85010 		ldr	r1, [fp, #80]
 827              		.loc 1 511 0
 828 029e 2D8A     		ldrh	r5, [r5, #16]
 829              		.loc 1 516 0
 830 02a0 6701     		lsls	r7, r4, #5
 831 02a2 0297     		str	r7, [sp, #8]
 832 02a4 CF19     		adds	r7, r1, r7
 833              		.loc 1 510 0
 834 02a6 B61A     		subs	r6, r6, r2
 835              	.LVL106:
 836              		.loc 1 516 0
 837 02a8 D7F81829 		ldr	r2, [r7, #2328]
 838 02ac B542     		cmp	r5, r6
 839 02ae 28BF     		it	cs
 840 02b0 3546     		movcs	r5, r6
 841              	.LVL107:
 842 02b2 97B2     		uxth	r7, r2
 843 02b4 0134     		adds	r4, r4, #1
 844              	.LVL108:
 845 02b6 B5EB870F 		cmp	r5, r7, lsl #2
 846 02ba 0594     		str	r4, [sp, #20]
 847 02bc 47D8     		bhi	.L57
 848              		.loc 1 531 0
 849 02be 2603     		lsls	r6, r4, #12
 850 02c0 0196     		str	r6, [sp, #4]
ARM GAS  C:\Users\srich\AppData\Local\Temp\cc7Prgoh.s 			page 16


 851              		.loc 1 539 0
 852 02c2 0393     		str	r3, [sp, #12]
 853              	.LVL109:
 854              	.L58:
 855              		.loc 1 523 0
 856 02c4 0378     		ldrb	r3, [r0, #0]	@ zero_extendqisi2
 857 02c6 002B     		cmp	r3, #0
 858 02c8 57D1     		bne	.L207
 859              		.loc 1 531 0
 860 02ca 019F     		ldr	r7, [sp, #4]
 861              	.LBB137:
 862              	.LBB138:
 863              		.loc 1 272 0
 864 02cc EA1C     		adds	r2, r5, #3
 865              	.LBB139:
 866              	.LBB140:
 867              		.loc 1 249 0
 868 02ce 5FEA920E 		lsrs	lr, r2, #2
 869              	.LBE140:
 870              	.LBE139:
 871              	.LBE138:
 872              	.LBE137:
 873              		.loc 1 531 0
 874 02d2 01EB0704 		add	r4, r1, r7
 875 02d6 C768     		ldr	r7, [r0, #12]
 876              	.LVL110:
 877              	.LBB147:
 878              	.LBB145:
 879              	.LBB143:
 880              	.LBB141:
 881              		.loc 1 249 0
 882 02d8 1ED0     		beq	.L81
 883              	.LBE141:
 884              	.LBE143:
 885              	.LBE145:
 886              	.LBE147:
 887              		.loc 1 715 0
 888 02da 3A46     		mov	r2, r7
 889 02dc 0EF1FF36 		add	r6, lr, #-1
 890              	.LBB148:
 891              	.LBB146:
 892              	.LBB144:
 893              	.LBB142:
 894              		.loc 1 252 0
 895 02e0 52F804CB 		ldr	ip, [r2], #4
 896              		.loc 1 249 0
 897 02e4 3346     		mov	r3, r6
 898 02e6 06F00109 		and	r9, r6, #1
 899              		.loc 1 252 0
 900 02ea 019E     		ldr	r6, [sp, #4]
 901 02ec 0432     		adds	r2, r2, #4
 902 02ee 41F806C0 		str	ip, [r1, r6]
 903              	.LVL111:
 904              		.loc 1 249 0
 905 02f2 8BB1     		cbz	r3, .L81
 906 02f4 B9F1000F 		cmp	r9, #0
 907 02f8 05D0     		beq	.L80
ARM GAS  C:\Users\srich\AppData\Local\Temp\cc7Prgoh.s 			page 17


 908              		.loc 1 252 0
 909 02fa 52F8041C 		ldr	r1, [r2, #-4]
 910 02fe 0432     		adds	r2, r2, #4
 911              		.loc 1 249 0
 912 0300 013B     		subs	r3, r3, #1
 913              		.loc 1 252 0
 914 0302 2160     		str	r1, [r4, #0]
 915              	.LVL112:
 916              		.loc 1 249 0
 917 0304 08D0     		beq	.L81
 918              	.L80:
 919              		.loc 1 252 0
 920 0306 52F8046C 		ldr	r6, [r2, #-4]
 921 030a 2660     		str	r6, [r4, #0]
 922 030c 52F8041B 		ldr	r1, [r2], #4
 923 0310 0432     		adds	r2, r2, #4
 924              		.loc 1 249 0
 925 0312 023B     		subs	r3, r3, #2
 926              		.loc 1 252 0
 927 0314 2160     		str	r1, [r4, #0]
 928              		.loc 1 249 0
 929 0316 F6D1     		bne	.L80
 930              	.L81:
 931              	.LBE142:
 932              	.LBE144:
 933              	.LBE146:
 934              	.LBE148:
 935              		.loc 1 534 0
 936 0318 7C19     		adds	r4, r7, r5
 937              	.LVL113:
 938 031a C460     		str	r4, [r0, #12]
 939              	.LVL114:
 940              	.L77:
 941              		.loc 1 539 0
 942 031c 0398     		ldr	r0, [sp, #12]
 943 031e 4468     		ldr	r4, [r0, #4]
 944 0320 6069     		ldr	r0, [r4, #20]
 945 0322 8668     		ldr	r6, [r0, #8]
 946              		.loc 1 506 0
 947 0324 4268     		ldr	r2, [r0, #4]
 948              		.loc 1 539 0
 949 0326 AB19     		adds	r3, r5, r6
 950              	.LVL115:
 951              		.loc 1 506 0
 952 0328 9A42     		cmp	r2, r3
 953              		.loc 1 539 0
 954 032a 8360     		str	r3, [r0, #8]
 955              		.loc 1 506 0
 956 032c 40F2B180 		bls	.L82
 957              		.loc 1 516 0
 958 0330 029D     		ldr	r5, [sp, #8]
 959              	.LVL116:
 960 0332 DBF85010 		ldr	r1, [fp, #80]
 961              		.loc 1 511 0
 962 0336 248A     		ldrh	r4, [r4, #16]
 963              		.loc 1 516 0
 964 0338 4F19     		adds	r7, r1, r5
ARM GAS  C:\Users\srich\AppData\Local\Temp\cc7Prgoh.s 			page 18


 965              		.loc 1 510 0
 966 033a D51A     		subs	r5, r2, r3
 967              	.LVL117:
 968              		.loc 1 516 0
 969 033c D7F81869 		ldr	r6, [r7, #2328]
 970 0340 A542     		cmp	r5, r4
 971 0342 28BF     		it	cs
 972 0344 2546     		movcs	r5, r4
 973              	.LVL118:
 974 0346 B2B2     		uxth	r2, r6
 975 0348 B5EB820F 		cmp	r5, r2, lsl #2
 976 034c BAD9     		bls	.L58
 977              	.L57:
 978              	.LBB149:
 979              	.LBB150:
 980              		.loc 1 517 0
 981 034e 0020     		movs	r0, #0
 982              	.LVL119:
 983              	.L55:
 984              	.LBE150:
 985              	.LBE149:
 986              	.LBE136:
 987              	.LBE135:
 988              	.LBB163:
 989              		.loc 1 760 0
 990 0350 2023     		movs	r3, #32
 991              	.LVL120:
 992              	@ 760 "c:\ChibiStudio\chibios/os/hal/platforms/STM32/OTGv1/usb_lld.c" 1
 993 0352 83F31188 		msr     BASEPRI, r3
 994              	@ 0 "" 2
 995              	.LVL121:
 996              		.thumb
 997              	.LBE163:
 998              		.loc 1 761 0
 999 0356 DAF80810 		ldr	r1, [sl, #8]
 1000 035a 41F00104 		orr	r4, r1, #1
 1001 035e CAF80840 		str	r4, [sl, #8]
 1002              		.loc 1 762 0
 1003 0362 30B9     		cbnz	r0, .L84
 1004              		.loc 1 763 0
 1005 0364 DAF83458 		ldr	r5, [sl, #2100]
 1006 0368 049F     		ldr	r7, [sp, #16]
 1007 036a 47EA0506 		orr	r6, r7, r5
 1008 036e CAF83468 		str	r6, [sl, #2100]
 1009              	.L84:
 1010              	.LBB164:
 1011              		.loc 1 764 0
 1012 0372 0023     		movs	r3, #0
 1013              	.LVL122:
 1014              	@ 764 "c:\ChibiStudio\chibios/os/hal/platforms/STM32/OTGv1/usb_lld.c" 1
 1015 0374 83F31188 		msr     BASEPRI, r3
 1016              	@ 0 "" 2
 1017              	.LVL123:
 1018              		.thumb
 1019 0378 BDE6     		b	.L53
 1020              	.LVL124:
 1021              	.L207:
ARM GAS  C:\Users\srich\AppData\Local\Temp\cc7Prgoh.s 			page 19


 1022              	.LBE164:
 1023              	.LBB165:
 1024              	.LBB162:
 1025              		.loc 1 525 0
 1026 037a 019A     		ldr	r2, [sp, #4]
 1027 037c C468     		ldr	r4, [r0, #12]
 1028 037e 8918     		adds	r1, r1, r2
 1029              	.LVL125:
 1030              	.LBB161:
 1031              	.LBB160:
 1032              		.loc 1 290 0
 1033 0380 002D     		cmp	r5, #0
 1034 0382 35D0     		beq	.L69
 1035 0384 2069     		ldr	r0, [r4, #16]
 1036 0386 2A46     		mov	r2, r5
 1037 0388 AE46     		mov	lr, r5
 1038              	.LVL126:
 1039              	.L76:
 1040              	.LBB151:
 1041              		.loc 1 294 0
 1042 038a 9708     		lsrs	r7, r2, #2
 1043              	.LVL127:
 1044 038c 4BD0     		beq	.L63
 1045              	.LBB152:
 1046              		.loc 1 296 0
 1047 038e A569     		ldr	r5, [r4, #24]
 1048              	.LVL128:
 1049 0390 431B     		subs	r3, r0, r5
 1050 0392 48BF     		it	mi
 1051 0394 0333     		addmi	r3, r3, #3
 1052 0396 9B10     		asrs	r3, r3, #2
 1053              		.loc 1 298 0
 1054 0398 9F42     		cmp	r7, r3
 1055 039a 38BF     		it	cc
 1056 039c 3B46     		movcc	r3, r7
 1057              	.LVL129:
 1058 039e 4FEA830C 		lsl	ip, r3, #2
 1059 03a2 CCEB0202 		rsb	r2, ip, r2
 1060              	.LVL130:
 1061              	.LBB153:
 1062              	.LBB154:
 1063              		.loc 1 249 0
 1064 03a6 DBB1     		cbz	r3, .L65
 1065              		.loc 1 715 0
 1066 03a8 2E46     		mov	r6, r5
 1067 03aa 5F1E     		subs	r7, r3, #1
 1068              	.LVL131:
 1069              		.loc 1 252 0
 1070 03ac 56F8049B 		ldr	r9, [r6], #4
 1071              		.loc 1 249 0
 1072 03b0 3B46     		mov	r3, r7
 1073              	.LVL132:
 1074              		.loc 1 252 0
 1075 03b2 C1F80090 		str	r9, [r1, #0]
 1076              	.LVL133:
 1077 03b6 07F00107 		and	r7, r7, #1
 1078 03ba 0436     		adds	r6, r6, #4
ARM GAS  C:\Users\srich\AppData\Local\Temp\cc7Prgoh.s 			page 20


 1079              		.loc 1 249 0
 1080 03bc 7BB1     		cbz	r3, .L187
 1081 03be 2FB1     		cbz	r7, .L66
 1082              		.loc 1 252 0
 1083 03c0 56F8047C 		ldr	r7, [r6, #-4]
 1084 03c4 0436     		adds	r6, r6, #4
 1085              		.loc 1 249 0
 1086 03c6 013B     		subs	r3, r3, #1
 1087              	.LVL134:
 1088              		.loc 1 252 0
 1089 03c8 0F60     		str	r7, [r1, #0]
 1090              	.LVL135:
 1091              		.loc 1 249 0
 1092 03ca 08D0     		beq	.L187
 1093              	.LVL136:
 1094              	.L66:
 1095              		.loc 1 252 0
 1096 03cc 56F8047C 		ldr	r7, [r6, #-4]
 1097 03d0 0F60     		str	r7, [r1, #0]
 1098 03d2 56F8047B 		ldr	r7, [r6], #4
 1099 03d6 0436     		adds	r6, r6, #4
 1100              		.loc 1 249 0
 1101 03d8 023B     		subs	r3, r3, #2
 1102              		.loc 1 252 0
 1103 03da 0F60     		str	r7, [r1, #0]
 1104              		.loc 1 249 0
 1105 03dc F6D1     		bne	.L66
 1106              	.L187:
 1107 03de 6544     		add	r5, r5, ip
 1108              	.LVL137:
 1109              	.L65:
 1110              	.LBE154:
 1111              	.LBE153:
 1112              		.loc 1 300 0
 1113 03e0 A842     		cmp	r0, r5
 1114              		.loc 1 299 0
 1115 03e2 A561     		str	r5, [r4, #24]
 1116              		.loc 1 300 0
 1117 03e4 1DD8     		bhi	.L67
 1118              		.loc 1 301 0
 1119 03e6 E668     		ldr	r6, [r4, #12]
 1120 03e8 A661     		str	r6, [r4, #24]
 1121              	.LBE152:
 1122              	.LBE151:
 1123              		.loc 1 290 0
 1124 03ea 002A     		cmp	r2, #0
 1125 03ec CDD1     		bne	.L76
 1126              	.LVL138:
 1127              	.L195:
 1128 03ee 7546     		mov	r5, lr
 1129              	.LVL139:
 1130              	.L69:
 1131              	.LBB155:
 1132              		.loc 1 325 0
 1133 03f0 2023     		movs	r3, #32
 1134              	.LVL140:
 1135              	@ 325 "c:\ChibiStudio\chibios/os/hal/platforms/STM32/OTGv1/usb_lld.c" 1
ARM GAS  C:\Users\srich\AppData\Local\Temp\cc7Prgoh.s 			page 21


 1136 03f2 83F31188 		msr     BASEPRI, r3
 1137              	@ 0 "" 2
 1138              	.LVL141:
 1139              		.thumb
 1140              	.LBE155:
 1141              		.loc 1 326 0
 1142 03f6 A168     		ldr	r1, [r4, #8]
 1143              	.LVL142:
 1144              		.loc 1 327 0
 1145 03f8 2068     		ldr	r0, [r4, #0]
 1146              		.loc 1 326 0
 1147 03fa 4F19     		adds	r7, r1, r5
 1148              		.loc 1 327 0
 1149 03fc A042     		cmp	r0, r4
 1150              		.loc 1 326 0
 1151 03fe A760     		str	r7, [r4, #8]
 1152              		.loc 1 327 0
 1153 0400 09D0     		beq	.L62
 1154              	.L121:
 1155              	.LVL143:
 1156              	.LBB156:
 1157              	.LBB157:
 1158              		.loc 2 62 0
 1159 0402 0368     		ldr	r3, [r0, #0]
 1160              	.LVL144:
 1161 0404 2360     		str	r3, [r4, #0]
 1162 0406 5C60     		str	r4, [r3, #4]
 1163              	.LBE157:
 1164              	.LBE156:
 1165              		.loc 1 328 0
 1166 0408 FFF7FEFF 		bl	chSchReadyI
 1167              	.LVL145:
 1168 040c C0F82480 		str	r8, [r0, #36]
 1169              		.loc 1 327 0
 1170 0410 2068     		ldr	r0, [r4, #0]
 1171 0412 A042     		cmp	r0, r4
 1172 0414 F5D1     		bne	.L121
 1173              	.LVL146:
 1174              	.L62:
 1175              		.loc 1 329 0
 1176 0416 FFF7FEFF 		bl	chSchRescheduleS
 1177              	.LVL147:
 1178              	.LBB158:
 1179              		.loc 1 330 0
 1180 041a 0023     		movs	r3, #0
 1181              	@ 330 "c:\ChibiStudio\chibios/os/hal/platforms/STM32/OTGv1/usb_lld.c" 1
 1182 041c 83F31188 		msr     BASEPRI, r3
 1183              	@ 0 "" 2
 1184              	.LVL148:
 1185              		.thumb
 1186 0420 7CE7     		b	.L77
 1187              	.LVL149:
 1188              	.L67:
 1189              	.LBE158:
 1190              	.LBB159:
 1191              		.loc 1 308 0
 1192 0422 002A     		cmp	r2, #0
ARM GAS  C:\Users\srich\AppData\Local\Temp\cc7Prgoh.s 			page 22


 1193 0424 E3D0     		beq	.L195
 1194              	.LVL150:
 1195              	.L63:
 1196              		.loc 1 315 0
 1197 0426 A669     		ldr	r6, [r4, #24]
 1198 0428 16F8013B 		ldrb	r3, [r6], #1	@ zero_extendqisi2
 1199              	.LVL151:
 1200              		.loc 1 316 0
 1201 042c B042     		cmp	r0, r6
 1202              		.loc 1 315 0
 1203 042e A661     		str	r6, [r4, #24]
 1204              		.loc 1 317 0
 1205 0430 9CBF     		itt	ls
 1206 0432 E668     		ldrls	r6, [r4, #12]
 1207 0434 A661     		strls	r6, [r4, #24]
 1208              		.loc 1 314 0
 1209 0436 012A     		cmp	r2, #1
 1210 0438 27D0     		beq	.L71
 1211              		.loc 1 315 0
 1212 043a A769     		ldr	r7, [r4, #24]
 1213 043c 17F8015B 		ldrb	r5, [r7], #1	@ zero_extendqisi2
 1214              		.loc 1 316 0
 1215 0440 B842     		cmp	r0, r7
 1216              		.loc 1 315 0
 1217 0442 A761     		str	r7, [r4, #24]
 1218              		.loc 1 317 0
 1219 0444 9CBF     		itt	ls
 1220 0446 E768     		ldrls	r7, [r4, #12]
 1221 0448 A761     		strls	r7, [r4, #24]
 1222              		.loc 1 314 0
 1223 044a 022A     		cmp	r2, #2
 1224              		.loc 1 315 0
 1225 044c 43EA0523 		orr	r3, r3, r5, lsl #8
 1226              	.LVL152:
 1227              		.loc 1 314 0
 1228 0450 1BD0     		beq	.L71
 1229              		.loc 1 315 0
 1230 0452 A769     		ldr	r7, [r4, #24]
 1231 0454 17F8016B 		ldrb	r6, [r7], #1	@ zero_extendqisi2
 1232              		.loc 1 316 0
 1233 0458 B842     		cmp	r0, r7
 1234              		.loc 1 315 0
 1235 045a A761     		str	r7, [r4, #24]
 1236              		.loc 1 317 0
 1237 045c 9CBF     		itt	ls
 1238 045e E768     		ldrls	r7, [r4, #12]
 1239 0460 A761     		strls	r7, [r4, #24]
 1240              		.loc 1 314 0
 1241 0462 032A     		cmp	r2, #3
 1242              		.loc 1 315 0
 1243 0464 43EA0643 		orr	r3, r3, r6, lsl #16
 1244              	.LVL153:
 1245              		.loc 1 314 0
 1246 0468 0FD0     		beq	.L71
 1247              		.loc 1 315 0
 1248 046a A569     		ldr	r5, [r4, #24]
 1249 046c 15F8017B 		ldrb	r7, [r5], #1	@ zero_extendqisi2
ARM GAS  C:\Users\srich\AppData\Local\Temp\cc7Prgoh.s 			page 23


 1250              		.loc 1 316 0
 1251 0470 8542     		cmp	r5, r0
 1252              		.loc 1 315 0
 1253 0472 A561     		str	r5, [r4, #24]
 1254              		.loc 1 317 0
 1255 0474 24BF     		itt	cs
 1256 0476 E568     		ldrcs	r5, [r4, #12]
 1257 0478 A561     		strcs	r5, [r4, #24]
 1258              		.loc 1 314 0
 1259 047a 043A     		subs	r2, r2, #4
 1260              	.LVL154:
 1261              		.loc 1 315 0
 1262 047c 43EA0763 		orr	r3, r3, r7, lsl #24
 1263              	.LVL155:
 1264              		.loc 1 314 0
 1265 0480 03D0     		beq	.L71
 1266              	.LVL156:
 1267              	.L75:
 1268              		.loc 1 321 0
 1269 0482 0B60     		str	r3, [r1, #0]
 1270              	.LVL157:
 1271              	.LBE159:
 1272              		.loc 1 290 0
 1273 0484 002A     		cmp	r2, #0
 1274 0486 80D1     		bne	.L76
 1275 0488 B1E7     		b	.L195
 1276              	.LVL158:
 1277              	.L71:
 1278 048a 0022     		movs	r2, #0
 1279 048c F9E7     		b	.L75
 1280              	.LVL159:
 1281              	.L206:
 1282 048e 631C     		adds	r3, r4, #1
 1283 0490 0593     		str	r3, [sp, #20]
 1284              	.LVL160:
 1285              	.L82:
 1286              		.loc 1 507 0
 1287 0492 0120     		movs	r0, #1
 1288 0494 5CE7     		b	.L55
 1289              	.LBE160:
 1290              	.LBE161:
 1291              	.LBE162:
 1292              	.LBE165:
 1293              	.LBE131:
 1294              	.LBE166:
 1295              		.cfi_endproc
 1296              	.LFE136:
 1297              		.size	usb_lld_pump, .-usb_lld_pump
 1298 0496 00BFAFF3 		.section	.text.usb_lld_init,"ax",%progbits
 1298      0080AFF3 
 1298      0080
 1299              		.align	2
 1300              		.p2align 4,,15
 1301              		.global	usb_lld_init
 1302              		.thumb
 1303              		.thumb_func
 1304              		.type	usb_lld_init, %function
ARM GAS  C:\Users\srich\AppData\Local\Temp\cc7Prgoh.s 			page 24


 1305              	usb_lld_init:
 1306              	.LFB138:
 1307              		.loc 1 818 0
 1308              		.cfi_startproc
 1309              		@ args = 0, pretend = 0, frame = 0
 1310              		@ frame_needed = 0, uses_anonymous_args = 0
 1311 0000 10B5     		push	{r4, lr}
 1312              	.LCFI3:
 1313              		.cfi_def_cfa_offset 8
 1314              		.cfi_offset 4, -8
 1315              		.cfi_offset 14, -4
 1316              		.loc 1 822 0
 1317 0002 40F20004 		movw	r4, #:lower16:.LANCHOR0
 1318 0006 C0F20004 		movt	r4, #:upper16:.LANCHOR0
 1319 000a 2046     		mov	r0, r4
 1320 000c FFF7FEFF 		bl	usbObjectInit
 1321              	.LVL161:
 1322              		.loc 1 826 0
 1323 0010 40F20001 		movw	r1, #:lower16:.LANCHOR1
 1324              		.loc 1 823 0
 1325 0014 0023     		movs	r3, #0
 1326              		.loc 1 825 0
 1327 0016 4FF0A040 		mov	r0, #1342177280
 1328              		.loc 1 826 0
 1329 001a C0F20001 		movt	r1, #:upper16:.LANCHOR1
 1330              		.loc 1 823 0
 1331 001e 2366     		str	r3, [r4, #96]
 1332              		.loc 1 824 0
 1333 0020 6366     		str	r3, [r4, #100]
 1334              		.loc 1 825 0
 1335 0022 2065     		str	r0, [r4, #80]
 1336              		.loc 1 826 0
 1337 0024 6165     		str	r1, [r4, #84]
 1338 0026 10BD     		pop	{r4, pc}
 1339              		.cfi_endproc
 1340              	.LFE138:
 1341              		.size	usb_lld_init, .-usb_lld_init
 1342              		.section	.text.usb_lld_start,"ax",%progbits
 1343              		.align	2
 1344              		.p2align 4,,15
 1345              		.global	usb_lld_start
 1346              		.thumb
 1347              		.thumb_func
 1348              		.type	usb_lld_start, %function
 1349              	usb_lld_start:
 1350              	.LFB139:
 1351              		.loc 1 876 0
 1352              		.cfi_startproc
 1353              		@ args = 0, pretend = 0, frame = 0
 1354              		@ frame_needed = 0, uses_anonymous_args = 0
 1355              	.LVL162:
 1356 0000 70B5     		push	{r4, r5, r6, lr}
 1357              	.LCFI4:
 1358              		.cfi_def_cfa_offset 16
 1359              		.cfi_offset 4, -16
 1360              		.cfi_offset 5, -12
 1361              		.cfi_offset 6, -8
ARM GAS  C:\Users\srich\AppData\Local\Temp\cc7Prgoh.s 			page 25


 1362              		.cfi_offset 14, -4
 1363              		.loc 1 879 0
 1364 0002 0378     		ldrb	r3, [r0, #0]	@ zero_extendqisi2
 1365              		.loc 1 877 0
 1366 0004 056D     		ldr	r5, [r0, #80]
 1367              	.LVL163:
 1368              		.loc 1 879 0
 1369 0006 012B     		cmp	r3, #1
 1370              		.loc 1 876 0
 1371 0008 82B0     		sub	sp, sp, #8
 1372              	.LCFI5:
 1373              		.cfi_def_cfa_offset 24
 1374              		.loc 1 876 0
 1375 000a 0646     		mov	r6, r0
 1376              		.loc 1 879 0
 1377 000c 01D0     		beq	.L221
 1378              	.LVL164:
 1379              	.L211:
 1380              		.loc 1 962 0
 1381 000e 02B0     		add	sp, sp, #8
 1382 0010 70BD     		pop	{r4, r5, r6, pc}
 1383              	.LVL165:
 1384              	.L221:
 1385              		.loc 1 882 0
 1386 0012 3148     		ldr	r0, .L225
 1387              	.LVL166:
 1388 0014 8642     		cmp	r6, r0
 1389 0016 4CD0     		beq	.L222
 1390              	.L213:
 1391              		.loc 1 911 0
 1392 0018 316E     		ldr	r1, [r6, #96]
 1393              		.loc 1 910 0
 1394 001a 0024     		movs	r4, #0
 1395 001c F465     		str	r4, [r6, #92]
 1396              		.loc 1 911 0
 1397 001e 0029     		cmp	r1, #0
 1398 0020 3BD0     		beq	.L223
 1399              	.L214:
 1400              		.loc 1 921 0
 1401 0022 4FF4A250 		mov	r0, #5184
 1402              		.loc 1 924 0
 1403 0026 0323     		movs	r3, #3
 1404              		.loc 1 921 0
 1405 0028 C4F20000 		movt	r0, 16384
 1406              		.loc 1 924 0
 1407 002c C0F22023 		movt	r3, 544
 1408              		.loc 1 927 0
 1409 0030 0022     		movs	r2, #0
 1410              		.loc 1 934 0
 1411 0032 4FF45021 		mov	r1, #851968
 1412              		.loc 1 921 0
 1413 0036 E860     		str	r0, [r5, #12]
 1414              	.LBB169:
 1415              	.LBB170:
 1416              		.loc 1 132 0
 1417 0038 346D     		ldr	r4, [r6, #80]
 1418              	.LBE170:
ARM GAS  C:\Users\srich\AppData\Local\Temp\cc7Prgoh.s 			page 26


 1419              	.LBE169:
 1420              		.loc 1 924 0
 1421 003a C5F80038 		str	r3, [r5, #2048]
 1422              	.LBB173:
 1423              	.LBB171:
 1424              		.loc 1 134 0
 1425 003e 2020     		movs	r0, #32
 1426              	.LBE171:
 1427              	.LBE173:
 1428              		.loc 1 927 0
 1429 0040 C5F8002E 		str	r2, [r5, #3584]
 1430              		.loc 1 934 0
 1431 0044 A963     		str	r1, [r5, #56]
 1432              	.LVL167:
 1433              	.LBB174:
 1434              	.LBB172:
 1435              		.loc 1 134 0
 1436 0046 FFF7FEFF 		bl	halPolledDelay
 1437              	.LVL168:
 1438              		.loc 1 137 0
 1439 004a 0120     		movs	r0, #1
 1440 004c 2061     		str	r0, [r4, #16]
 1441              	.L215:
 1442              		.loc 1 138 0
 1443 004e 2369     		ldr	r3, [r4, #16]
 1444 0050 DB07     		lsls	r3, r3, #31
 1445 0052 FCD4     		bmi	.L215
 1446              		.loc 1 141 0
 1447 0054 0C20     		movs	r0, #12
 1448 0056 FFF7FEFF 		bl	halPolledDelay
 1449              	.LVL169:
 1450              	.L216:
 1451              		.loc 1 144 0
 1452 005a 2269     		ldr	r2, [r4, #16]
 1453 005c 002A     		cmp	r2, #0
 1454 005e FCDA     		bge	.L216
 1455              	.LBE172:
 1456              	.LBE174:
 1457              		.loc 1 941 0
 1458 0060 0024     		movs	r4, #0
 1459              	.LVL170:
 1460              		.loc 1 944 0
 1461 0062 3046     		mov	r0, r6
 1462              		.loc 1 941 0
 1463 0064 AC60     		str	r4, [r5, #8]
 1464              		.loc 1 944 0
 1465 0066 FFF7FEFF 		bl	otg_disable_ep
 1466              	.LVL171:
 1467              		.loc 1 951 0
 1468 006a 7168     		ldr	r1, [r6, #4]
 1469              		.loc 1 948 0
 1470 006c C5F81048 		str	r4, [r5, #2064]
 1471              		.loc 1 951 0
 1472 0070 C868     		ldr	r0, [r1, #12]
 1473              		.loc 1 949 0
 1474 0072 C5F81448 		str	r4, [r5, #2068]
 1475              		.loc 1 950 0
ARM GAS  C:\Users\srich\AppData\Local\Temp\cc7Prgoh.s 			page 27


 1476 0076 C5F81C48 		str	r4, [r5, #2076]
 1477              		.loc 1 951 0
 1478 007a 50B1     		cbz	r0, .L224
 1479              		.loc 1 955 0
 1480 007c 43F20803 		movw	r3, #12296
 1481 0080 AB61     		str	r3, [r5, #24]
 1482              	.L218:
 1483              		.loc 1 957 0
 1484 0082 4FF0FF31 		mov	r1, #-1
 1485 0086 6961     		str	r1, [r5, #20]
 1486              		.loc 1 960 0
 1487 0088 A868     		ldr	r0, [r5, #8]
 1488 008a 40F00103 		orr	r3, r0, #1
 1489 008e AB60     		str	r3, [r5, #8]
 1490 0090 BDE7     		b	.L211
 1491              	.L224:
 1492              		.loc 1 952 0
 1493 0092 4FF44052 		mov	r2, #12288
 1494 0096 AA61     		str	r2, [r5, #24]
 1495 0098 F3E7     		b	.L218
 1496              	.LVL172:
 1497              	.L223:
 1498              		.loc 1 912 0
 1499 009a 0096     		str	r6, [sp, #0]
 1500 009c 06F16800 		add	r0, r6, #104
 1501 00a0 4FF4A871 		mov	r1, #336
 1502 00a4 0222     		movs	r2, #2
 1503 00a6 0D4B     		ldr	r3, .L225+4
 1504 00a8 FFF7FEFF 		bl	chThdCreateI
 1505              	.LVL173:
 1506 00ac 7066     		str	r0, [r6, #100]
 1507 00ae 3066     		str	r0, [r6, #96]
 1508 00b0 B7E7     		b	.L214
 1509              	.L222:
 1510              		.loc 1 884 0
 1511 00b2 4FF46051 		mov	r1, #14336
 1512 00b6 C4F20201 		movt	r1, 16386
 1513 00ba 4A6B     		ldr	r2, [r1, #52]
 1514 00bc 42F08004 		orr	r4, r2, #128
 1515 00c0 4C63     		str	r4, [r1, #52]
 1516              		.loc 1 885 0
 1517 00c2 4B69     		ldr	r3, [r1, #20]
 1518 00c4 0022     		movs	r2, #0
 1519 00c6 43F08000 		orr	r0, r3, #128
 1520 00ca 4861     		str	r0, [r1, #20]
 1521 00cc 4A61     		str	r2, [r1, #20]
 1522              		.loc 1 888 0
 1523 00ce 4320     		movs	r0, #67
 1524 00d0 E021     		movs	r1, #224
 1525 00d2 FFF7FEFF 		bl	nvicEnableVector
 1526              	.LVL174:
 1527 00d6 9FE7     		b	.L213
 1528              	.L226:
 1529              		.align	2
 1530              	.L225:
 1531 00d8 00000000 		.word	.LANCHOR0
 1532 00dc 00000000 		.word	usb_lld_pump
ARM GAS  C:\Users\srich\AppData\Local\Temp\cc7Prgoh.s 			page 28


 1533              		.cfi_endproc
 1534              	.LFE139:
 1535              		.size	usb_lld_start, .-usb_lld_start
 1536              		.section	.text.usb_lld_stop,"ax",%progbits
 1537              		.align	2
 1538              		.p2align 4,,15
 1539              		.global	usb_lld_stop
 1540              		.thumb
 1541              		.thumb_func
 1542              		.type	usb_lld_stop, %function
 1543              	usb_lld_stop:
 1544              	.LFB140:
 1545              		.loc 1 971 0
 1546              		.cfi_startproc
 1547              		@ args = 0, pretend = 0, frame = 0
 1548              		@ frame_needed = 0, uses_anonymous_args = 0
 1549              	.LVL175:
 1550 0000 38B5     		push	{r3, r4, r5, lr}
 1551              	.LCFI6:
 1552              		.cfi_def_cfa_offset 16
 1553              		.cfi_offset 3, -16
 1554              		.cfi_offset 4, -12
 1555              		.cfi_offset 5, -8
 1556              		.cfi_offset 14, -4
 1557              		.loc 1 975 0
 1558 0002 0378     		ldrb	r3, [r0, #0]	@ zero_extendqisi2
 1559              		.loc 1 972 0
 1560 0004 056D     		ldr	r5, [r0, #80]
 1561              	.LVL176:
 1562              		.loc 1 975 0
 1563 0006 012B     		cmp	r3, #1
 1564              		.loc 1 971 0
 1565 0008 0446     		mov	r4, r0
 1566              		.loc 1 975 0
 1567 000a 07D0     		beq	.L227
 1568              		.loc 1 979 0
 1569 000c FFF7FEFF 		bl	otg_disable_ep
 1570              	.LVL177:
 1571              		.loc 1 981 0
 1572 0010 0020     		movs	r0, #0
 1573 0012 E065     		str	r0, [r4, #92]
 1574              		.loc 1 983 0
 1575 0014 C5F81C08 		str	r0, [r5, #2076]
 1576              		.loc 1 984 0
 1577 0018 A860     		str	r0, [r5, #8]
 1578              		.loc 1 985 0
 1579 001a A863     		str	r0, [r5, #56]
 1580              	.L227:
 1581 001c 38BD     		pop	{r3, r4, r5, pc}
 1582              		.cfi_endproc
 1583              	.LFE140:
 1584              		.size	usb_lld_stop, .-usb_lld_stop
 1585 001e 00BF     		.section	.text.usb_lld_reset,"ax",%progbits
 1586              		.align	2
 1587              		.p2align 4,,15
 1588              		.global	usb_lld_reset
 1589              		.thumb
ARM GAS  C:\Users\srich\AppData\Local\Temp\cc7Prgoh.s 			page 29


 1590              		.thumb_func
 1591              		.type	usb_lld_reset, %function
 1592              	usb_lld_reset:
 1593              	.LFB141:
 1594              		.loc 1 1010 0
 1595              		.cfi_startproc
 1596              		@ args = 0, pretend = 0, frame = 0
 1597              		@ frame_needed = 0, uses_anonymous_args = 0
 1598              	.LVL178:
 1599 0000 2DE9F84F 		push	{r3, r4, r5, r6, r7, r8, r9, sl, fp, lr}
 1600              	.LCFI7:
 1601              		.cfi_def_cfa_offset 40
 1602              		.cfi_offset 3, -40
 1603              		.cfi_offset 4, -36
 1604              		.cfi_offset 5, -32
 1605              		.cfi_offset 6, -28
 1606              		.cfi_offset 7, -24
 1607              		.cfi_offset 8, -20
 1608              		.cfi_offset 9, -16
 1609              		.cfi_offset 10, -12
 1610              		.cfi_offset 11, -8
 1611              		.cfi_offset 14, -4
 1612              		.loc 1 1010 0
 1613 0004 8046     		mov	r8, r0
 1614              		.loc 1 1015 0
 1615 0006 0021     		movs	r1, #0
 1616              		.loc 1 1012 0
 1617 0008 046D     		ldr	r4, [r0, #80]
 1618              	.LVL179:
 1619              		.loc 1 1015 0
 1620 000a FFF7FEFF 		bl	otg_txfifo_flush
 1621              	.LVL180:
 1622 000e D8F854B0 		ldr	fp, [r8, #84]
 1623 0012 DBF808A0 		ldr	sl, [fp, #8]
 1624              		.loc 1 1019 0
 1625 0016 4FF00061 		mov	r1, #134217728
 1626              		.loc 1 1021 0
 1627 001a FF22     		movs	r2, #255
 1628              		.loc 1 1019 0
 1629 001c C4F80019 		str	r1, [r4, #2304]
 1630 0020 0AF00106 		and	r6, sl, #1
 1631              		.loc 1 1020 0
 1632 0024 C4F8001B 		str	r1, [r4, #2816]
 1633              		.loc 1 1018 0
 1634 0028 0123     		movs	r3, #1
 1635              		.loc 1 1021 0
 1636 002a C4F80829 		str	r2, [r4, #2312]
 1637              		.loc 1 1022 0
 1638 002e C4F8082B 		str	r2, [r4, #2824]
 1639              		.loc 1 1018 0
 1640 0032 BAF1000F 		cmp	sl, #0
 1641 0036 33D0     		beq	.L243
 1642 0038 66B1     		cbz	r6, .L233
 1643 003a 0223     		movs	r3, #2
 1644 003c 5345     		cmp	r3, sl
 1645              		.loc 1 1019 0
 1646 003e C4F82019 		str	r1, [r4, #2336]
ARM GAS  C:\Users\srich\AppData\Local\Temp\cc7Prgoh.s 			page 30


 1647 0042 04F51267 		add	r7, r4, #2336
 1648              		.loc 1 1020 0
 1649 0046 C4F8201B 		str	r1, [r4, #2848]
 1650              		.loc 1 1021 0
 1651 004a C4F82829 		str	r2, [r4, #2344]
 1652              		.loc 1 1022 0
 1653 004e C4F8282B 		str	r2, [r4, #2856]
 1654              		.loc 1 1018 0
 1655 0052 25D8     		bhi	.L243
 1656              	.L233:
 1657              		.loc 1 1018 0 is_stmt 0 discriminator 2
 1658 0054 5F1C     		adds	r7, r3, #1
 1659              		.loc 1 1019 0 is_stmt 1 discriminator 2
 1660 0056 03F14809 		add	r9, r3, #72
 1661              		.loc 1 1020 0 discriminator 2
 1662 005a 03F15800 		add	r0, r3, #88
 1663              		.loc 1 1019 0 discriminator 2
 1664 005e 03F1490C 		add	ip, r3, #73
 1665              		.loc 1 1020 0 discriminator 2
 1666 0062 03F1590E 		add	lr, r3, #89
 1667              		.loc 1 1021 0 discriminator 2
 1668 0066 04EB4316 		add	r6, r4, r3, lsl #5
 1669 006a 04EB4715 		add	r5, r4, r7, lsl #5
 1670              		.loc 1 1020 0 discriminator 2
 1671 006e 4001     		lsls	r0, r0, #5
 1672              		.loc 1 1019 0 discriminator 2
 1673 0070 4FEA4919 		lsl	r9, r9, #5
 1674 0074 4FEA4C1C 		lsl	ip, ip, #5
 1675              		.loc 1 1020 0 discriminator 2
 1676 0078 4FEA4E1E 		lsl	lr, lr, #5
 1677              		.loc 1 1018 0 discriminator 2
 1678 007c 0233     		adds	r3, r3, #2
 1679 007e 5345     		cmp	r3, sl
 1680              		.loc 1 1019 0 discriminator 2
 1681 0080 44F80910 		str	r1, [r4, r9]
 1682              		.loc 1 1020 0 discriminator 2
 1683 0084 2150     		str	r1, [r4, r0]
 1684              		.loc 1 1021 0 discriminator 2
 1685 0086 C6F80829 		str	r2, [r6, #2312]
 1686              		.loc 1 1022 0 discriminator 2
 1687 008a C6F8082B 		str	r2, [r6, #2824]
 1688              		.loc 1 1019 0 discriminator 2
 1689 008e 44F80C10 		str	r1, [r4, ip]
 1690              		.loc 1 1020 0 discriminator 2
 1691 0092 44F80E10 		str	r1, [r4, lr]
 1692              		.loc 1 1021 0 discriminator 2
 1693 0096 C5F80829 		str	r2, [r5, #2312]
 1694              		.loc 1 1022 0 discriminator 2
 1695 009a C5F8082B 		str	r2, [r5, #2824]
 1696              		.loc 1 1018 0 discriminator 2
 1697 009e D9D9     		bls	.L233
 1698              	.L243:
 1699              	.LBB181:
 1700              	.LBB182:
 1701              		.loc 1 214 0
 1702 00a0 DBF80030 		ldr	r3, [fp, #0]
 1703              	.LBE182:
ARM GAS  C:\Users\srich\AppData\Local\Temp\cc7Prgoh.s 			page 31


 1704              	.LBE181:
 1705              	.LBB184:
 1706              	.LBB185:
 1707              		.loc 1 186 0
 1708 00a4 D8F85020 		ldr	r2, [r8, #80]
 1709              	.LBE185:
 1710              	.LBE184:
 1711              		.loc 1 1026 0
 1712 00a8 4FF0FF31 		mov	r1, #-1
 1713              		.loc 1 1027 0
 1714 00ac 4FF00116 		mov	r6, #65537
 1715              	.LBB188:
 1716              	.LBB186:
 1717              		.loc 1 188 0
 1718 00b0 1025     		movs	r5, #16
 1719              	.LBE186:
 1720              	.LBE188:
 1721              		.loc 1 1026 0
 1722 00b2 C4F81818 		str	r1, [r4, #2072]
 1723              		.loc 1 1027 0
 1724 00b6 C4F81C68 		str	r6, [r4, #2076]
 1725              	.LVL181:
 1726              	.LBB189:
 1727              	.LBB183:
 1728              		.loc 1 214 0
 1729 00ba C8F85830 		str	r3, [r8, #88]
 1730              	.LBE183:
 1731              	.LBE189:
 1732              		.loc 1 1033 0
 1733 00be 6362     		str	r3, [r4, #36]
 1734              	.LVL182:
 1735              	.LBB190:
 1736              	.LBB187:
 1737              		.loc 1 188 0
 1738 00c0 1561     		str	r5, [r2, #16]
 1739              	.L234:
 1740              		.loc 1 189 0
 1741 00c2 1069     		ldr	r0, [r2, #16]
 1742 00c4 10F01005 		ands	r5, r0, #16
 1743 00c8 FBD1     		bne	.L234
 1744              		.loc 1 192 0
 1745 00ca 0C20     		movs	r0, #12
 1746 00cc FFF7FEFF 		bl	halPolledDelay
 1747              	.LVL183:
 1748              	.LBE187:
 1749              	.LBE190:
 1750              		.loc 1 1037 0
 1751 00d0 D4F80038 		ldr	r3, [r4, #2048]
 1752              	.LBB191:
 1753              	.LBB192:
 1754              		.loc 1 228 0
 1755 00d4 D8F85810 		ldr	r1, [r8, #88]
 1756              	.LBE192:
 1757              	.LBE191:
 1758              		.loc 1 1037 0
 1759 00d8 23F4FE62 		bic	r2, r3, #2032
 1760 00dc C4F80028 		str	r2, [r4, #2048]
ARM GAS  C:\Users\srich\AppData\Local\Temp\cc7Prgoh.s 			page 32


 1761              		.loc 1 1040 0
 1762 00e0 A669     		ldr	r6, [r4, #24]
 1763 00e2 46F44020 		orr	r0, r6, #786432
 1764              		.loc 1 1041 0
 1765 00e6 0922     		movs	r2, #9
 1766              		.loc 1 1040 0
 1767 00e8 40F01006 		orr	r6, r0, #16
 1768 00ec A661     		str	r6, [r4, #24]
 1769              		.loc 1 1047 0
 1770 00ee 48F24003 		movw	r3, #32832
 1771              		.loc 1 1041 0
 1772 00f2 C4F81028 		str	r2, [r4, #2064]
 1773              		.loc 1 1042 0
 1774 00f6 C4F81428 		str	r2, [r4, #2068]
 1775              		.loc 1 1045 0
 1776 00fa 0B4A     		ldr	r2, .L244
 1777              		.loc 1 1047 0
 1778 00fc C1F20003 		movt	r3, 4096
 1779              	.LBB195:
 1780              	.LBB193:
 1781              		.loc 1 229 0
 1782 0100 01F11000 		add	r0, r1, #16
 1783              	.LBE193:
 1784              	.LBE195:
 1785              		.loc 1 1052 0
 1786 0104 41F48011 		orr	r1, r1, #1048576
 1787              		.loc 1 1045 0
 1788 0108 C8F80C20 		str	r2, [r8, #12]
 1789              		.loc 1 1046 0
 1790 010c C4F8105B 		str	r5, [r4, #2832]
 1791              		.loc 1 1047 0
 1792 0110 C4F8003B 		str	r3, [r4, #2816]
 1793              		.loc 1 1049 0
 1794 0114 C4F81059 		str	r5, [r4, #2320]
 1795              		.loc 1 1050 0
 1796 0118 C4F80039 		str	r3, [r4, #2304]
 1797              	.LVL184:
 1798              	.LBB196:
 1799              	.LBB194:
 1800              		.loc 1 229 0
 1801 011c C8F85800 		str	r0, [r8, #88]
 1802              	.LBE194:
 1803              	.LBE196:
 1804              		.loc 1 1052 0
 1805 0120 A162     		str	r1, [r4, #40]
 1806 0122 BDE8F88F 		pop	{r3, r4, r5, r6, r7, r8, r9, sl, fp, pc}
 1807              	.L245:
 1808 0126 00BF     		.align	2
 1809              	.L244:
 1810 0128 00000000 		.word	.LANCHOR2
 1811              		.cfi_endproc
 1812              	.LFE141:
 1813              		.size	usb_lld_reset, .-usb_lld_reset
 1814 012c AFF30080 		.section	.text.usb_lld_set_address,"ax",%progbits
 1815              		.align	2
 1816              		.p2align 4,,15
 1817              		.global	usb_lld_set_address
ARM GAS  C:\Users\srich\AppData\Local\Temp\cc7Prgoh.s 			page 33


 1818              		.thumb
 1819              		.thumb_func
 1820              		.type	usb_lld_set_address, %function
 1821              	usb_lld_set_address:
 1822              	.LFB142:
 1823              		.loc 1 1064 0
 1824              		.cfi_startproc
 1825              		@ args = 0, pretend = 0, frame = 0
 1826              		@ frame_needed = 0, uses_anonymous_args = 0
 1827              		@ link register save eliminated.
 1828              	.LVL185:
 1829              		.loc 1 1065 0
 1830 0000 036D     		ldr	r3, [r0, #80]
 1831              	.LVL186:
 1832              		.loc 1 1067 0
 1833 0002 90F84E10 		ldrb	r1, [r0, #78]	@ zero_extendqisi2
 1834 0006 D3F80028 		ldr	r2, [r3, #2048]
 1835 000a 22F4FE60 		bic	r0, r2, #2032
 1836              	.LVL187:
 1837 000e 40EA0111 		orr	r1, r0, r1, lsl #4
 1838 0012 C3F80018 		str	r1, [r3, #2048]
 1839 0016 7047     		bx	lr
 1840              		.cfi_endproc
 1841              	.LFE142:
 1842              		.size	usb_lld_set_address, .-usb_lld_set_address
 1843 0018 AFF30080 		.section	.text.usb_lld_init_endpoint,"ax",%progbits
 1843      AFF30080 
 1844              		.align	2
 1845              		.p2align 4,,15
 1846              		.global	usb_lld_init_endpoint
 1847              		.thumb
 1848              		.thumb_func
 1849              		.type	usb_lld_init_endpoint, %function
 1850              	usb_lld_init_endpoint:
 1851              	.LFB143:
 1852              		.loc 1 1078 0
 1853              		.cfi_startproc
 1854              		@ args = 0, pretend = 0, frame = 0
 1855              		@ frame_needed = 0, uses_anonymous_args = 0
 1856              	.LVL188:
 1857 0000 2DE9F041 		push	{r4, r5, r6, r7, r8, lr}
 1858              	.LCFI8:
 1859              		.cfi_def_cfa_offset 24
 1860              		.cfi_offset 4, -24
 1861              		.cfi_offset 5, -20
 1862              		.cfi_offset 6, -16
 1863              		.cfi_offset 7, -12
 1864              		.cfi_offset 8, -8
 1865              		.cfi_offset 14, -4
 1866              		.loc 1 1083 0
 1867 0004 8F1C     		adds	r7, r1, #2
 1868 0006 00EB8703 		add	r3, r0, r7, lsl #2
 1869              		.loc 1 1078 0
 1870 000a 0646     		mov	r6, r0
 1871              		.loc 1 1083 0
 1872 000c 5B68     		ldr	r3, [r3, #4]
 1873              		.loc 1 1080 0
ARM GAS  C:\Users\srich\AppData\Local\Temp\cc7Prgoh.s 			page 34


 1874 000e 046D     		ldr	r4, [r0, #80]
 1875              	.LVL189:
 1876              		.loc 1 1083 0
 1877 0010 1A68     		ldr	r2, [r3, #0]
 1878 0012 02F00300 		and	r0, r2, #3
 1879              	.LVL190:
 1880 0016 0228     		cmp	r0, #2
 1881              		.loc 1 1078 0
 1882 0018 0D46     		mov	r5, r1
 1883              		.loc 1 1091 0
 1884 001a 4FF40048 		mov	r8, #32768
 1885              		.loc 1 1083 0
 1886 001e 54D0     		beq	.L250
 1887 0020 0328     		cmp	r0, #3
 1888 0022 55D0     		beq	.L251
 1889              		.loc 1 1085 0
 1890 0024 4146     		mov	r1, r8
 1891              	.LVL191:
 1892 0026 C1F20001 		movt	r1, 4096
 1893 002a C1F20408 		movt	r8, 4100
 1894 002e 0128     		cmp	r0, #1
 1895 0030 18BF     		it	ne
 1896 0032 8846     		movne	r8, r1
 1897              	.L249:
 1898              	.LVL192:
 1899              		.loc 1 1101 0
 1900 0034 6A01     		lsls	r2, r5, #5
 1901 0036 A018     		adds	r0, r4, r2
 1902 0038 0021     		movs	r1, #0
 1903 003a C0F8101B 		str	r1, [r0, #2832]
 1904              		.loc 1 1102 0
 1905 003e D868     		ldr	r0, [r3, #12]
 1906 0040 0028     		cmp	r0, #0
 1907 0042 48D0     		beq	.L252
 1908              		.loc 1 1103 0
 1909 0044 588A     		ldrh	r0, [r3, #18]
 1910 0046 05F15801 		add	r1, r5, #88
 1911 004a 4901     		lsls	r1, r1, #5
 1912 004c 48EA0000 		orr	r0, r8, r0
 1913 0050 6050     		str	r0, [r4, r1]
 1914              		.loc 1 1104 0
 1915 0052 4FF0010C 		mov	ip, #1
 1916 0056 D4F81C08 		ldr	r0, [r4, #2076]
 1917 005a 05F11001 		add	r1, r5, #16
 1918 005e 0CFA01F1 		lsl	r1, ip, r1
 1919 0062 0143     		orrs	r1, r1, r0
 1920 0064 C4F81C18 		str	r1, [r4, #2076]
 1921              	.L253:
 1922              		.loc 1 1112 0
 1923 0068 A218     		adds	r2, r4, r2
 1924              		.loc 1 1113 0
 1925 006a 9968     		ldr	r1, [r3, #8]
 1926              		.loc 1 1112 0
 1927 006c 0020     		movs	r0, #0
 1928 006e C2F81009 		str	r0, [r2, #2320]
 1929              		.loc 1 1113 0
 1930 0072 0029     		cmp	r1, #0
ARM GAS  C:\Users\srich\AppData\Local\Temp\cc7Prgoh.s 			page 35


 1931 0074 42D0     		beq	.L254
 1932              		.loc 1 1116 0
 1933 0076 9A8B     		ldrh	r2, [r3, #28]
 1934              		.loc 1 1115 0
 1935 0078 198A     		ldrh	r1, [r3, #16]
 1936 007a 8B08     		lsrs	r3, r1, #2
 1937              	.LVL193:
 1938              		.loc 1 1116 0
 1939 007c 012A     		cmp	r2, #1
 1940              		.loc 1 1117 0
 1941 007e 88BF     		it	hi
 1942 0080 5343     		mulhi	r3, r2, r3
 1943              	.LVL194:
 1944              	.LBB197:
 1945              	.LBB198:
 1946              		.loc 1 228 0
 1947 0082 B26D     		ldr	r2, [r6, #88]
 1948              	.LVL195:
 1949              	.LBE198:
 1950              	.LBE197:
 1951              		.loc 1 1118 0
 1952 0084 05F13F00 		add	r0, r5, #63
 1953 0088 04EB8001 		add	r1, r4, r0, lsl #2
 1954              	.LBB200:
 1955              	.LBB199:
 1956              		.loc 1 229 0
 1957 008c 9818     		adds	r0, r3, r2
 1958 008e B065     		str	r0, [r6, #88]
 1959              	.LBE199:
 1960              	.LBE200:
 1961              		.loc 1 1118 0
 1962 0090 42EA0343 		orr	r3, r2, r3, lsl #16
 1963              	.LVL196:
 1964              		.loc 1 1120 0
 1965 0094 3046     		mov	r0, r6
 1966              		.loc 1 1124 0
 1967 0096 06EB8706 		add	r6, r6, r7, lsl #2
 1968              	.LVL197:
 1969              		.loc 1 1118 0
 1970 009a 4B60     		str	r3, [r1, #4]
 1971              		.loc 1 1120 0
 1972 009c 2946     		mov	r1, r5
 1973 009e FFF7FEFF 		bl	otg_txfifo_flush
 1974              	.LVL198:
 1975              		.loc 1 1124 0
 1976 00a2 7268     		ldr	r2, [r6, #4]
 1977              		.loc 1 1123 0
 1978 00a4 108A     		ldrh	r0, [r2, #16]
 1979              		.loc 1 1122 0
 1980 00a6 05F14801 		add	r1, r5, #72
 1981 00aa 4B01     		lsls	r3, r1, #5
 1982 00ac 40EA8551 		orr	r1, r0, r5, lsl #22
 1983              		.loc 1 1123 0
 1984 00b0 41EA0802 		orr	r2, r1, r8
 1985              		.loc 1 1122 0
 1986 00b4 E250     		str	r2, [r4, r3]
 1987              		.loc 1 1125 0
ARM GAS  C:\Users\srich\AppData\Local\Temp\cc7Prgoh.s 			page 36


 1988 00b6 0123     		movs	r3, #1
 1989 00b8 D4F81C08 		ldr	r0, [r4, #2076]
 1990 00bc 03FA05F5 		lsl	r5, r3, r5
 1991 00c0 0543     		orrs	r5, r5, r0
 1992 00c2 C4F81C58 		str	r5, [r4, #2076]
 1993 00c6 BDE8F081 		pop	{r4, r5, r6, r7, r8, pc}
 1994              	.LVL199:
 1995              	.L250:
 1996              		.loc 1 1091 0
 1997 00ca C1F20808 		movt	r8, 4104
 1998              	.LVL200:
 1999              		.loc 1 1092 0
 2000 00ce B1E7     		b	.L249
 2001              	.L251:
 2002              	.LVL201:
 2003              		.loc 1 1094 0
 2004 00d0 C1F20C08 		movt	r8, 4108
 2005              	.LVL202:
 2006              		.loc 1 1095 0
 2007 00d4 AEE7     		b	.L249
 2008              	.LVL203:
 2009              	.L252:
 2010              		.loc 1 1107 0
 2011 00d6 05F15801 		add	r1, r5, #88
 2012 00da 4901     		lsls	r1, r1, #5
 2013              		.loc 1 1108 0
 2014 00dc 05F1100E 		add	lr, r5, #16
 2015              		.loc 1 1107 0
 2016 00e0 6058     		ldr	r0, [r4, r1]
 2017 00e2 20F40040 		bic	r0, r0, #32768
 2018 00e6 6050     		str	r0, [r4, r1]
 2019              		.loc 1 1108 0
 2020 00e8 0121     		movs	r1, #1
 2021 00ea D4F81C08 		ldr	r0, [r4, #2076]
 2022 00ee 01FA0EF1 		lsl	r1, r1, lr
 2023 00f2 20EA0100 		bic	r0, r0, r1
 2024 00f6 C4F81C08 		str	r0, [r4, #2076]
 2025 00fa B5E7     		b	.L253
 2026              	.L254:
 2027              		.loc 1 1128 0
 2028 00fc 05F13F03 		add	r3, r5, #63
 2029 0100 04EB8302 		add	r2, r4, r3, lsl #2
 2030 0104 4FF48061 		mov	r1, #1024
 2031 0108 C0F20021 		movt	r1, 512
 2032 010c 5160     		str	r1, [r2, #4]
 2033              		.loc 1 1129 0
 2034 010e 3046     		mov	r0, r6
 2035 0110 2946     		mov	r1, r5
 2036 0112 FFF7FEFF 		bl	otg_txfifo_flush
 2037              	.LVL204:
 2038              		.loc 1 1130 0
 2039 0116 05F14800 		add	r0, r5, #72
 2040 011a 4301     		lsls	r3, r0, #5
 2041 011c E258     		ldr	r2, [r4, r3]
 2042 011e 22F40041 		bic	r1, r2, #32768
 2043 0122 E150     		str	r1, [r4, r3]
 2044              		.loc 1 1131 0
ARM GAS  C:\Users\srich\AppData\Local\Temp\cc7Prgoh.s 			page 37


 2045 0124 0123     		movs	r3, #1
 2046 0126 D4F81C08 		ldr	r0, [r4, #2076]
 2047 012a 03FA05F5 		lsl	r5, r3, r5
 2048 012e 20EA0505 		bic	r5, r0, r5
 2049 0132 C4F81C58 		str	r5, [r4, #2076]
 2050 0136 BDE8F081 		pop	{r4, r5, r6, r7, r8, pc}
 2051              		.cfi_endproc
 2052              	.LFE143:
 2053              		.size	usb_lld_init_endpoint, .-usb_lld_init_endpoint
 2054 013a 00BFAFF3 		.section	.text.usb_lld_disable_endpoints,"ax",%progbits
 2054      0080
 2055              		.align	2
 2056              		.p2align 4,,15
 2057              		.global	usb_lld_disable_endpoints
 2058              		.thumb
 2059              		.thumb_func
 2060              		.type	usb_lld_disable_endpoints, %function
 2061              	usb_lld_disable_endpoints:
 2062              	.LFB144:
 2063              		.loc 1 1142 0
 2064              		.cfi_startproc
 2065              		@ args = 0, pretend = 0, frame = 0
 2066              		@ frame_needed = 0, uses_anonymous_args = 0
 2067              		@ link register save eliminated.
 2068              	.LVL205:
 2069              	.LBB201:
 2070              	.LBB202:
 2071              		.loc 1 214 0
 2072 0000 426D     		ldr	r2, [r0, #84]
 2073 0002 1168     		ldr	r1, [r2, #0]
 2074 0004 8165     		str	r1, [r0, #88]
 2075              	.LBE202:
 2076              	.LBE201:
 2077              		.loc 1 1149 0
 2078              		.loc 1 1148 0
 2079 0006 FFF7FEBF 		b	otg_disable_ep
 2080              	.LVL206:
 2081              		.cfi_endproc
 2082              	.LFE144:
 2083              		.size	usb_lld_disable_endpoints, .-usb_lld_disable_endpoints
 2084 000a 00BFAFF3 		.section	.text.usb_lld_get_status_out,"ax",%progbits
 2084      0080
 2085              		.align	2
 2086              		.p2align 4,,15
 2087              		.global	usb_lld_get_status_out
 2088              		.thumb
 2089              		.thumb_func
 2090              		.type	usb_lld_get_status_out, %function
 2091              	usb_lld_get_status_out:
 2092              	.LFB145:
 2093              		.loc 1 1163 0
 2094              		.cfi_startproc
 2095              		@ args = 0, pretend = 0, frame = 0
 2096              		@ frame_needed = 0, uses_anonymous_args = 0
 2097              		@ link register save eliminated.
 2098              	.LVL207:
 2099              		.loc 1 1168 0
ARM GAS  C:\Users\srich\AppData\Local\Temp\cc7Prgoh.s 			page 38


 2100 0000 5831     		adds	r1, r1, #88
 2101              	.LVL208:
 2102 0002 036D     		ldr	r3, [r0, #80]
 2103 0004 4901     		lsls	r1, r1, #5
 2104 0006 5A58     		ldr	r2, [r3, r1]
 2105              	.LVL209:
 2106              		.loc 1 1169 0
 2107 0008 12F40040 		ands	r0, r2, #32768
 2108              	.LVL210:
 2109 000c 04D0     		beq	.L260
 2110              		.loc 1 1171 0
 2111 000e 12F4001F 		tst	r2, #2097152
 2112              		.loc 1 1172 0
 2113 0012 0CBF     		ite	eq
 2114 0014 0220     		moveq	r0, #2
 2115 0016 0120     		movne	r0, #1
 2116              	.L260:
 2117              		.loc 1 1174 0
 2118 0018 7047     		bx	lr
 2119              		.cfi_endproc
 2120              	.LFE145:
 2121              		.size	usb_lld_get_status_out, .-usb_lld_get_status_out
 2122 001a 00BFAFF3 		.section	.text.usb_lld_get_status_in,"ax",%progbits
 2122      0080
 2123              		.align	2
 2124              		.p2align 4,,15
 2125              		.global	usb_lld_get_status_in
 2126              		.thumb
 2127              		.thumb_func
 2128              		.type	usb_lld_get_status_in, %function
 2129              	usb_lld_get_status_in:
 2130              	.LFB146:
 2131              		.loc 1 1188 0
 2132              		.cfi_startproc
 2133              		@ args = 0, pretend = 0, frame = 0
 2134              		@ frame_needed = 0, uses_anonymous_args = 0
 2135              		@ link register save eliminated.
 2136              	.LVL211:
 2137              		.loc 1 1193 0
 2138 0000 4831     		adds	r1, r1, #72
 2139              	.LVL212:
 2140 0002 036D     		ldr	r3, [r0, #80]
 2141 0004 4901     		lsls	r1, r1, #5
 2142 0006 5A58     		ldr	r2, [r3, r1]
 2143              	.LVL213:
 2144              		.loc 1 1194 0
 2145 0008 12F40040 		ands	r0, r2, #32768
 2146              	.LVL214:
 2147 000c 04D0     		beq	.L264
 2148              		.loc 1 1196 0
 2149 000e 12F4001F 		tst	r2, #2097152
 2150              		.loc 1 1197 0
 2151 0012 0CBF     		ite	eq
 2152 0014 0220     		moveq	r0, #2
 2153 0016 0120     		movne	r0, #1
 2154              	.L264:
 2155              		.loc 1 1199 0
ARM GAS  C:\Users\srich\AppData\Local\Temp\cc7Prgoh.s 			page 39


 2156 0018 7047     		bx	lr
 2157              		.cfi_endproc
 2158              	.LFE146:
 2159              		.size	usb_lld_get_status_in, .-usb_lld_get_status_in
 2160 001a 00BFAFF3 		.section	.text.usb_lld_read_setup,"ax",%progbits
 2160      0080
 2161              		.align	2
 2162              		.p2align 4,,15
 2163              		.global	usb_lld_read_setup
 2164              		.thumb
 2165              		.thumb_func
 2166              		.type	usb_lld_read_setup, %function
 2167              	usb_lld_read_setup:
 2168              	.LFB147:
 2169              		.loc 1 1215 0
 2170              		.cfi_startproc
 2171              		@ args = 0, pretend = 0, frame = 0
 2172              		@ frame_needed = 0, uses_anonymous_args = 0
 2173              		@ link register save eliminated.
 2174              	.LVL215:
 2175              		.loc 1 1217 0
 2176 0000 00EB8101 		add	r1, r0, r1, lsl #2
 2177              	.LVL216:
 2178 0004 CB68     		ldr	r3, [r1, #12]
 2179 0006 186A     		ldr	r0, [r3, #32]
 2180              	.LVL217:
 2181 0008 0168     		ldr	r1, [r0, #0]	@ unaligned
 2182 000a 4368     		ldr	r3, [r0, #4]	@ unaligned
 2183 000c 1160     		str	r1, [r2, #0]	@ unaligned
 2184 000e 5360     		str	r3, [r2, #4]	@ unaligned
 2185 0010 7047     		bx	lr
 2186              		.cfi_endproc
 2187              	.LFE147:
 2188              		.size	usb_lld_read_setup, .-usb_lld_read_setup
 2189 0012 00BFAFF3 		.section	.text.usb_lld_prepare_receive,"ax",%progbits
 2189      0080AFF3 
 2189      0080AFF3 
 2189      0080
 2190              		.align	2
 2191              		.p2align 4,,15
 2192              		.global	usb_lld_prepare_receive
 2193              		.thumb
 2194              		.thumb_func
 2195              		.type	usb_lld_prepare_receive, %function
 2196              	usb_lld_prepare_receive:
 2197              	.LFB148:
 2198              		.loc 1 1228 0
 2199              		.cfi_startproc
 2200              		@ args = 0, pretend = 0, frame = 0
 2201              		@ frame_needed = 0, uses_anonymous_args = 0
 2202              		@ link register save eliminated.
 2203              	.LVL218:
 2204              		.loc 1 1230 0
 2205 0000 00EB8103 		add	r3, r0, r1, lsl #2
 2206              		.loc 1 1228 0
 2207 0004 30B4     		push	{r4, r5}
 2208              	.LCFI9:
ARM GAS  C:\Users\srich\AppData\Local\Temp\cc7Prgoh.s 			page 40


 2209              		.cfi_def_cfa_offset 8
 2210              		.cfi_offset 4, -8
 2211              		.cfi_offset 5, -4
 2212              		.loc 1 1230 0
 2213 0006 DC68     		ldr	r4, [r3, #12]
 2214 0008 A269     		ldr	r2, [r4, #24]
 2215              	.LVL219:
 2216              		.loc 1 1233 0
 2217 000a 5368     		ldr	r3, [r2, #4]
 2218 000c 1361     		str	r3, [r2, #16]
 2219              		.loc 1 1234 0
 2220 000e 39B9     		cbnz	r1, .L272
 2221              		.loc 1 1234 0 is_stmt 0 discriminator 1
 2222 0010 402B     		cmp	r3, #64
 2223 0012 05D9     		bls	.L272
 2224              		.loc 1 1235 0 is_stmt 1
 2225 0014 4023     		movs	r3, #64
 2226 0016 5360     		str	r3, [r2, #4]
 2227 0018 3F25     		movs	r5, #63
 2228 001a C6F20003 		movt	r3, 24576
 2229 001e 02E0     		b	.L270
 2230              	.L272:
 2231 0020 5D1E     		subs	r5, r3, #1
 2232 0022 43F0C043 		orr	r3, r3, #1610612736
 2233              	.L270:
 2234              		.loc 1 1237 0
 2235 0026 628A     		ldrh	r2, [r4, #18]
 2236              	.LVL220:
 2237              		.loc 1 1239 0
 2238 0028 006D     		ldr	r0, [r0, #80]
 2239              	.LVL221:
 2240              		.loc 1 1237 0
 2241 002a AC18     		adds	r4, r5, r2
 2242              	.LVL222:
 2243 002c B4FBF2F2 		udiv	r2, r4, r2
 2244              	.LVL223:
 2245              		.loc 1 1239 0
 2246 0030 00EB4111 		add	r1, r0, r1, lsl #5
 2247              	.LVL224:
 2248 0034 43EAC243 		orr	r3, r3, r2, lsl #19
 2249 0038 C1F8103B 		str	r3, [r1, #2832]
 2250              		.loc 1 1242 0
 2251 003c 30BC     		pop	{r4, r5}
 2252 003e 7047     		bx	lr
 2253              		.cfi_endproc
 2254              	.LFE148:
 2255              		.size	usb_lld_prepare_receive, .-usb_lld_prepare_receive
 2256              		.section	.text.otg_epout_handler,"ax",%progbits
 2257              		.align	2
 2258              		.p2align 4,,15
 2259              		.thumb
 2260              		.thumb_func
 2261              		.type	otg_epout_handler, %function
 2262              	otg_epout_handler:
 2263              	.LFB134:
 2264              		.loc 1 599 0
 2265              		.cfi_startproc
ARM GAS  C:\Users\srich\AppData\Local\Temp\cc7Prgoh.s 			page 41


 2266              		@ args = 0, pretend = 0, frame = 0
 2267              		@ frame_needed = 0, uses_anonymous_args = 0
 2268              	.LVL225:
 2269 0000 F8B5     		push	{r3, r4, r5, r6, r7, lr}
 2270              	.LCFI10:
 2271              		.cfi_def_cfa_offset 24
 2272              		.cfi_offset 3, -24
 2273              		.cfi_offset 4, -20
 2274              		.cfi_offset 5, -16
 2275              		.cfi_offset 6, -12
 2276              		.cfi_offset 7, -8
 2277              		.cfi_offset 14, -4
 2278              		.loc 1 600 0
 2279 0002 076D     		ldr	r7, [r0, #80]
 2280              	.LVL226:
 2281              		.loc 1 601 0
 2282 0004 07EB4113 		add	r3, r7, r1, lsl #5
 2283              		.loc 1 599 0
 2284 0008 0546     		mov	r5, r0
 2285              		.loc 1 601 0
 2286 000a D3F8084B 		ldr	r4, [r3, #2824]
 2287              	.LVL227:
 2288              		.loc 1 606 0
 2289 000e 2207     		lsls	r2, r4, #28
 2290              		.loc 1 599 0
 2291 0010 0E46     		mov	r6, r1
 2292              		.loc 1 604 0
 2293 0012 C3F8084B 		str	r4, [r3, #2824]
 2294              		.loc 1 606 0
 2295 0016 03D5     		bpl	.L274
 2296              		.loc 1 606 0 is_stmt 0 discriminator 1
 2297 0018 D7F81428 		ldr	r2, [r7, #2068]
 2298 001c 1307     		lsls	r3, r2, #28
 2299 001e 19D4     		bmi	.L289
 2300              	.LVL228:
 2301              	.L274:
 2302              		.loc 1 612 0 is_stmt 1
 2303 0020 E207     		lsls	r2, r4, #31
 2304 0022 16D5     		bpl	.L273
 2305              		.loc 1 612 0 is_stmt 0 discriminator 1
 2306 0024 D7F81408 		ldr	r0, [r7, #2068]
 2307 0028 C307     		lsls	r3, r0, #31
 2308 002a 12D5     		bpl	.L273
 2309              	.LBB203:
 2310              		.loc 1 614 0 is_stmt 1
 2311 002c 05EB8601 		add	r1, r5, r6, lsl #2
 2312 0030 CB68     		ldr	r3, [r1, #12]
 2313 0032 9A69     		ldr	r2, [r3, #24]
 2314              	.LVL229:
 2315              		.loc 1 616 0
 2316 0034 5168     		ldr	r1, [r2, #4]
 2317 0036 1069     		ldr	r0, [r2, #16]
 2318 0038 8142     		cmp	r1, r0
 2319 003a 11D3     		bcc	.L290
 2320              		.loc 1 629 0
 2321 003c 6989     		ldrh	r1, [r5, #10]
 2322 003e DB68     		ldr	r3, [r3, #12]
ARM GAS  C:\Users\srich\AppData\Local\Temp\cc7Prgoh.s 			page 42


 2323 0040 0122     		movs	r2, #1
 2324              	.LVL230:
 2325 0042 02FA06F2 		lsl	r2, r2, r6
 2326 0046 21EA0200 		bic	r0, r1, r2
 2327 004a 6881     		strh	r0, [r5, #10]	@ movhi
 2328 004c 3146     		mov	r1, r6
 2329 004e 2846     		mov	r0, r5
 2330 0050 9847     		blx	r3
 2331              	.LVL231:
 2332              	.L273:
 2333 0052 F8BD     		pop	{r3, r4, r5, r6, r7, pc}
 2334              	.LVL232:
 2335              	.L289:
 2336              	.LBE203:
 2337              		.loc 1 609 0
 2338 0054 00EB8103 		add	r3, r0, r1, lsl #2
 2339 0058 DA68     		ldr	r2, [r3, #12]
 2340 005a 5368     		ldr	r3, [r2, #4]
 2341 005c 9847     		blx	r3
 2342              	.LVL233:
 2343 005e DFE7     		b	.L274
 2344              	.LVL234:
 2345              	.L290:
 2346              	.LBB211:
 2347              		.loc 1 620 0
 2348 0060 411A     		subs	r1, r0, r1
 2349              		.loc 1 621 0
 2350 0062 0024     		movs	r4, #0
 2351              	.LVL235:
 2352              		.loc 1 620 0
 2353 0064 5160     		str	r1, [r2, #4]
 2354              		.loc 1 621 0
 2355 0066 9460     		str	r4, [r2, #8]
 2356              		.loc 1 622 0
 2357 0068 2846     		mov	r0, r5
 2358 006a 3146     		mov	r1, r6
 2359 006c FFF7FEFF 		bl	usb_lld_prepare_receive
 2360              	.LVL236:
 2361              	.LBB204:
 2362              		.loc 1 623 0
 2363 0070 2023     		movs	r3, #32
 2364              	.LVL237:
 2365              	@ 623 "c:\ChibiStudio\chibios/os/hal/platforms/STM32/OTGv1/usb_lld.c" 1
 2366 0072 83F31188 		msr     BASEPRI, r3
 2367              	@ 0 "" 2
 2368              	.LVL238:
 2369              		.thumb
 2370              	.LBE204:
 2371              	.LBB205:
 2372              	.LBB206:
 2373              		.loc 1 1283 0
 2374 0076 5836     		adds	r6, r6, #88
 2375              	.LVL239:
 2376 0078 2A6D     		ldr	r2, [r5, #80]
 2377 007a 7601     		lsls	r6, r6, #5
 2378              	.LVL240:
 2379              	.LBE206:
ARM GAS  C:\Users\srich\AppData\Local\Temp\cc7Prgoh.s 			page 43


 2380              	.LBE205:
 2381              	.LBB208:
 2382              		.loc 1 625 0
 2383 007c 2346     		mov	r3, r4
 2384              	.LVL241:
 2385              	.LBE208:
 2386              	.LBB209:
 2387              	.LBB207:
 2388              		.loc 1 1283 0
 2389 007e 9059     		ldr	r0, [r2, r6]
 2390 0080 40F08061 		orr	r1, r0, #67108864
 2391 0084 9151     		str	r1, [r2, r6]
 2392              	.LBE207:
 2393              	.LBE209:
 2394              	.LBB210:
 2395              		.loc 1 625 0
 2396              	@ 625 "c:\ChibiStudio\chibios/os/hal/platforms/STM32/OTGv1/usb_lld.c" 1
 2397 0086 83F31188 		msr     BASEPRI, r3
 2398              	@ 0 "" 2
 2399              	.LVL242:
 2400              		.thumb
 2401 008a F8BD     		pop	{r3, r4, r5, r6, r7, pc}
 2402              	.LBE210:
 2403              	.LBE211:
 2404              		.cfi_endproc
 2405              	.LFE134:
 2406              		.size	otg_epout_handler, .-otg_epout_handler
 2407 008c AFF30080 		.section	.text.usb_lld_prepare_transmit,"ax",%progbits
 2408              		.align	2
 2409              		.p2align 4,,15
 2410              		.global	usb_lld_prepare_transmit
 2411              		.thumb
 2412              		.thumb_func
 2413              		.type	usb_lld_prepare_transmit, %function
 2414              	usb_lld_prepare_transmit:
 2415              	.LFB149:
 2416              		.loc 1 1252 0
 2417              		.cfi_startproc
 2418              		@ args = 0, pretend = 0, frame = 0
 2419              		@ frame_needed = 0, uses_anonymous_args = 0
 2420              		@ link register save eliminated.
 2421              	.LVL243:
 2422              		.loc 1 1253 0
 2423 0000 00EB8103 		add	r3, r0, r1, lsl #2
 2424              		.loc 1 1252 0
 2425 0004 30B4     		push	{r4, r5}
 2426              	.LCFI11:
 2427              		.cfi_def_cfa_offset 8
 2428              		.cfi_offset 4, -8
 2429              		.cfi_offset 5, -4
 2430              		.loc 1 1253 0
 2431 0006 DC68     		ldr	r4, [r3, #12]
 2432 0008 6269     		ldr	r2, [r4, #20]
 2433              	.LVL244:
 2434              		.loc 1 1256 0
 2435 000a 5368     		ldr	r3, [r2, #4]
 2436 000c 1361     		str	r3, [r2, #16]
ARM GAS  C:\Users\srich\AppData\Local\Temp\cc7Prgoh.s 			page 44


 2437              		.loc 1 1257 0
 2438 000e A3B1     		cbz	r3, .L298
 2439              	.LBB212:
 2440              		.loc 1 1262 0
 2441 0010 69B1     		cbz	r1, .L294
 2442              	.L297:
 2443 0012 5D1E     		subs	r5, r3, #1
 2444              	.L295:
 2445              		.loc 1 1266 0
 2446 0014 228A     		ldrh	r2, [r4, #16]
 2447              	.LVL245:
 2448              		.loc 1 1268 0
 2449 0016 006D     		ldr	r0, [r0, #80]
 2450              	.LVL246:
 2451              		.loc 1 1266 0
 2452 0018 AC18     		adds	r4, r5, r2
 2453              	.LVL247:
 2454 001a B4FBF2F2 		udiv	r2, r4, r2
 2455              	.LVL248:
 2456              		.loc 1 1268 0
 2457 001e 00EB4111 		add	r1, r0, r1, lsl #5
 2458              	.LVL249:
 2459 0022 43EAC243 		orr	r3, r3, r2, lsl #19
 2460 0026 C1F81039 		str	r3, [r1, #2320]
 2461              	.LVL250:
 2462              	.L291:
 2463              	.LBE212:
 2464              		.loc 1 1271 0
 2465 002a 30BC     		pop	{r4, r5}
 2466 002c 7047     		bx	lr
 2467              	.LVL251:
 2468              	.L294:
 2469              	.LBB213:
 2470              		.loc 1 1262 0 discriminator 1
 2471 002e 402B     		cmp	r3, #64
 2472 0030 EFD9     		bls	.L297
 2473              		.loc 1 1263 0
 2474 0032 4023     		movs	r3, #64
 2475 0034 5360     		str	r3, [r2, #4]
 2476 0036 3F25     		movs	r5, #63
 2477 0038 ECE7     		b	.L295
 2478              	.L298:
 2479              	.LBE213:
 2480              		.loc 1 1259 0
 2481 003a 006D     		ldr	r0, [r0, #80]
 2482              	.LVL252:
 2483 003c 00EB4112 		add	r2, r0, r1, lsl #5
 2484              	.LVL253:
 2485 0040 4FF40021 		mov	r1, #524288
 2486              	.LVL254:
 2487 0044 C2F81019 		str	r1, [r2, #2320]
 2488 0048 EFE7     		b	.L291
 2489              		.cfi_endproc
 2490              	.LFE149:
 2491              		.size	usb_lld_prepare_transmit, .-usb_lld_prepare_transmit
 2492 004a 00BFAFF3 		.section	.text.otg_epin_handler,"ax",%progbits
 2492      0080
ARM GAS  C:\Users\srich\AppData\Local\Temp\cc7Prgoh.s 			page 45


 2493              		.align	2
 2494              		.p2align 4,,15
 2495              		.thumb
 2496              		.thumb_func
 2497              		.type	otg_epin_handler, %function
 2498              	otg_epin_handler:
 2499              	.LFB133:
 2500              		.loc 1 551 0
 2501              		.cfi_startproc
 2502              		@ args = 0, pretend = 0, frame = 0
 2503              		@ frame_needed = 0, uses_anonymous_args = 0
 2504              	.LVL255:
 2505 0000 2DE9F041 		push	{r4, r5, r6, r7, r8, lr}
 2506              	.LCFI12:
 2507              		.cfi_def_cfa_offset 24
 2508              		.cfi_offset 4, -24
 2509              		.cfi_offset 5, -20
 2510              		.cfi_offset 6, -16
 2511              		.cfi_offset 7, -12
 2512              		.cfi_offset 8, -8
 2513              		.cfi_offset 14, -4
 2514              		.loc 1 552 0
 2515 0004 056D     		ldr	r5, [r0, #80]
 2516              	.LVL256:
 2517              		.loc 1 553 0
 2518 0006 05EB4113 		add	r3, r5, r1, lsl #5
 2519              		.loc 1 551 0
 2520 000a 0646     		mov	r6, r0
 2521              		.loc 1 553 0
 2522 000c D3F80849 		ldr	r4, [r3, #2312]
 2523              	.LVL257:
 2524              		.loc 1 555 0
 2525 0010 C3F80849 		str	r4, [r3, #2312]
 2526              		.loc 1 560 0
 2527 0014 E307     		lsls	r3, r4, #31
 2528              		.loc 1 551 0
 2529 0016 0F46     		mov	r7, r1
 2530              		.loc 1 560 0
 2531 0018 03D5     		bpl	.L300
 2532              		.loc 1 560 0 is_stmt 0 discriminator 1
 2533 001a D5F81028 		ldr	r2, [r5, #2064]
 2534 001e D207     		lsls	r2, r2, #31
 2535 0020 0AD4     		bmi	.L319
 2536              	.LVL258:
 2537              	.L300:
 2538              		.loc 1 580 0 is_stmt 1
 2539 0022 2306     		lsls	r3, r4, #24
 2540              	.LVL259:
 2541 0024 06D5     		bpl	.L299
 2542              		.loc 1 581 0 discriminator 1
 2543 0026 0122     		movs	r2, #1
 2544 0028 D5F83408 		ldr	r0, [r5, #2100]
 2545 002c 02FA07F7 		lsl	r7, r2, r7
 2546              		.loc 1 580 0 discriminator 1
 2547 0030 0742     		tst	r7, r0
 2548 0032 2BD1     		bne	.L320
 2549              	.L299:
ARM GAS  C:\Users\srich\AppData\Local\Temp\cc7Prgoh.s 			page 46


 2550 0034 BDE8F081 		pop	{r4, r5, r6, r7, r8, pc}
 2551              	.LVL260:
 2552              	.L319:
 2553              	.LBB223:
 2554              		.loc 1 562 0
 2555 0038 00EB8103 		add	r3, r0, r1, lsl #2
 2556 003c DB68     		ldr	r3, [r3, #12]
 2557 003e 5A69     		ldr	r2, [r3, #20]
 2558              	.LVL261:
 2559              		.loc 1 564 0
 2560 0040 D2F804E0 		ldr	lr, [r2, #4]
 2561 0044 D2F810C0 		ldr	ip, [r2, #16]
 2562 0048 E645     		cmp	lr, ip
 2563 004a 36D2     		bcs	.L301
 2564              		.loc 1 568 0
 2565 004c CEEB0C03 		rsb	r3, lr, ip
 2566              		.loc 1 569 0
 2567 0050 4FF00008 		mov	r8, #0
 2568              		.loc 1 568 0
 2569 0054 5360     		str	r3, [r2, #4]
 2570              		.loc 1 569 0
 2571 0056 C2F80880 		str	r8, [r2, #8]
 2572              		.loc 1 570 0
 2573 005a FFF7FEFF 		bl	usb_lld_prepare_transmit
 2574              	.LVL262:
 2575              	.LBB224:
 2576              		.loc 1 571 0
 2577 005e 2023     		movs	r3, #32
 2578              	.LVL263:
 2579              	@ 571 "c:\ChibiStudio\chibios/os/hal/platforms/STM32/OTGv1/usb_lld.c" 1
 2580 0060 83F31188 		msr     BASEPRI, r3
 2581              	@ 0 "" 2
 2582              	.LVL264:
 2583              		.thumb
 2584              	.LBE224:
 2585              	.LBB225:
 2586              	.LBB226:
 2587              		.loc 1 1296 0
 2588 0064 07F14800 		add	r0, r7, #72
 2589 0068 326D     		ldr	r2, [r6, #80]
 2590 006a 4301     		lsls	r3, r0, #5
 2591              	.LVL265:
 2592 006c D158     		ldr	r1, [r2, r3]
 2593 006e 41F00440 		orr	r0, r1, #-2080374784
 2594 0072 D050     		str	r0, [r2, r3]
 2595              		.loc 1 1297 0
 2596 0074 0123     		movs	r3, #1
 2597 0076 D2F83418 		ldr	r1, [r2, #2100]
 2598 007a 03FA07F3 		lsl	r3, r3, r7
 2599 007e 0B43     		orrs	r3, r3, r1
 2600 0080 C2F83438 		str	r3, [r2, #2100]
 2601              	.LBE226:
 2602              	.LBE225:
 2603              	.LBB227:
 2604              		.loc 1 573 0
 2605 0084 4346     		mov	r3, r8
 2606              	@ 573 "c:\ChibiStudio\chibios/os/hal/platforms/STM32/OTGv1/usb_lld.c" 1
ARM GAS  C:\Users\srich\AppData\Local\Temp\cc7Prgoh.s 			page 47


 2607 0086 83F31188 		msr     BASEPRI, r3
 2608              	@ 0 "" 2
 2609              	.LVL266:
 2610              		.thumb
 2611 008a CAE7     		b	.L300
 2612              	.LVL267:
 2613              	.L320:
 2614              	.LBE227:
 2615              	.LBE223:
 2616              	.LBB228:
 2617              		.loc 1 583 0
 2618 008c 2023     		movs	r3, #32
 2619              	.LVL268:
 2620              	@ 583 "c:\ChibiStudio\chibios/os/hal/platforms/STM32/OTGv1/usb_lld.c" 1
 2621 008e 83F31188 		msr     BASEPRI, r3
 2622              	@ 0 "" 2
 2623              	.LVL269:
 2624              		.thumb
 2625              	.LBE228:
 2626              		.loc 1 584 0
 2627 0092 F16D     		ldr	r1, [r6, #92]
 2628              		.loc 1 585 0
 2629 0094 D5F83438 		ldr	r3, [r5, #2100]
 2630              	.LVL270:
 2631              	.LBB229:
 2632              	.LBB230:
 2633              		.loc 1 125 0
 2634 0098 706E     		ldr	r0, [r6, #100]
 2635              	.LBE230:
 2636              	.LBE229:
 2637              		.loc 1 584 0
 2638 009a 3943     		orrs	r1, r1, r7
 2639              		.loc 1 585 0
 2640 009c 23EA0707 		bic	r7, r3, r7
 2641              		.loc 1 584 0
 2642 00a0 F165     		str	r1, [r6, #92]
 2643              		.loc 1 585 0
 2644 00a2 C5F83478 		str	r7, [r5, #2100]
 2645              	.LVL271:
 2646              	.LBB232:
 2647              	.LBB231:
 2648              		.loc 1 125 0
 2649 00a6 18B1     		cbz	r0, .L303
 2650              		.loc 1 126 0
 2651 00a8 FFF7FEFF 		bl	chSchReadyI
 2652              	.LVL272:
 2653              		.loc 1 127 0
 2654 00ac 0020     		movs	r0, #0
 2655 00ae 7066     		str	r0, [r6, #100]
 2656              	.L303:
 2657              	.LBE231:
 2658              	.LBE232:
 2659              	.LBB233:
 2660              		.loc 1 587 0
 2661 00b0 0023     		movs	r3, #0
 2662              	.LVL273:
 2663              	@ 587 "c:\ChibiStudio\chibios/os/hal/platforms/STM32/OTGv1/usb_lld.c" 1
ARM GAS  C:\Users\srich\AppData\Local\Temp\cc7Prgoh.s 			page 48


 2664 00b2 83F31188 		msr     BASEPRI, r3
 2665              	@ 0 "" 2
 2666              	.LVL274:
 2667              		.thumb
 2668 00b6 BDE8F081 		pop	{r4, r5, r6, r7, r8, pc}
 2669              	.LVL275:
 2670              	.L301:
 2671              	.LBE233:
 2672              	.LBB234:
 2673              		.loc 1 577 0
 2674 00ba B0F808E0 		ldrh	lr, [r0, #8]
 2675 00be 9B68     		ldr	r3, [r3, #8]
 2676 00c0 0122     		movs	r2, #1
 2677              	.LVL276:
 2678 00c2 02FA01F2 		lsl	r2, r2, r1
 2679 00c6 2EEA0202 		bic	r2, lr, r2
 2680 00ca 0281     		strh	r2, [r0, #8]	@ movhi
 2681 00cc 9847     		blx	r3
 2682              	.LVL277:
 2683 00ce A8E7     		b	.L300
 2684              	.LBE234:
 2685              		.cfi_endproc
 2686              	.LFE133:
 2687              		.size	otg_epin_handler, .-otg_epin_handler
 2688              		.section	.text.Vector14C,"ax",%progbits
 2689              		.align	2
 2690              		.p2align 4,,15
 2691              		.global	Vector14C
 2692              		.thumb
 2693              		.thumb_func
 2694              		.type	Vector14C, %function
 2695              	Vector14C:
 2696              	.LFB137:
 2697              		.loc 1 780 0
 2698              		.cfi_startproc
 2699              		@ args = 0, pretend = 0, frame = 0
 2700              		@ frame_needed = 0, uses_anonymous_args = 0
 2701              	.LVL278:
 2702 0000 70B5     		push	{r4, r5, r6, lr}
 2703              	.LCFI13:
 2704              		.cfi_def_cfa_offset 16
 2705              		.cfi_offset 4, -16
 2706              		.cfi_offset 5, -12
 2707              		.cfi_offset 6, -8
 2708              		.cfi_offset 14, -4
 2709              	.LBB241:
 2710              	.LBB242:
 2711              		.loc 1 642 0
 2712 0002 3E4E     		ldr	r6, .L393
 2713 0004 356D     		ldr	r5, [r6, #80]
 2714              	.LVL279:
 2715              		.loc 1 645 0
 2716 0006 6B69     		ldr	r3, [r5, #20]
 2717              	.LVL280:
 2718              		.loc 1 646 0
 2719 0008 AC69     		ldr	r4, [r5, #24]
 2720 000a 1C40     		ands	r4, r4, r3
ARM GAS  C:\Users\srich\AppData\Local\Temp\cc7Prgoh.s 			page 49


 2721              	.LVL281:
 2722              		.loc 1 650 0
 2723 000c E204     		lsls	r2, r4, #19
 2724              		.loc 1 647 0
 2725 000e 6C61     		str	r4, [r5, #20]
 2726              		.loc 1 650 0
 2727 0010 2BD4     		bmi	.L383
 2728              	.L323:
 2729              		.loc 1 656 0
 2730 0012 A104     		lsls	r1, r4, #18
 2731              		.loc 1 657 0
 2732 0014 48BF     		it	mi
 2733 0016 D5F80818 		ldrmi	r1, [r5, #2056]
 2734              		.loc 1 661 0
 2735 001a 2007     		lsls	r0, r4, #28
 2736 001c 04D5     		bpl	.L326
 2737              		.loc 1 662 0
 2738 001e 7368     		ldr	r3, [r6, #4]
 2739 0020 DA68     		ldr	r2, [r3, #12]
 2740 0022 0AB1     		cbz	r2, .L326
 2741 0024 3548     		ldr	r0, .L393
 2742 0026 9047     		blx	r2
 2743              	.LVL282:
 2744              	.L326:
 2745              		.loc 1 666 0
 2746 0028 E106     		lsls	r1, r4, #27
 2747 002a 29D4     		bmi	.L384
 2748              	.LVL283:
 2749              	.L327:
 2750              		.loc 1 677 0
 2751 002c 6203     		lsls	r2, r4, #13
 2752              		.loc 1 676 0
 2753 002e D5F81858 		ldr	r5, [r5, #2072]
 2754              	.LVL284:
 2755              		.loc 1 677 0
 2756 0032 07D5     		bpl	.L330
 2757              		.loc 1 678 0
 2758 0034 EB07     		lsls	r3, r5, #31
 2759              	.LVL285:
 2760 0036 49D4     		bmi	.L385
 2761              		.loc 1 680 0
 2762 0038 A807     		lsls	r0, r5, #30
 2763 003a 4DD4     		bmi	.L386
 2764              	.L332:
 2765              		.loc 1 682 0
 2766 003c 6907     		lsls	r1, r5, #29
 2767 003e 51D4     		bmi	.L387
 2768              	.L333:
 2769              		.loc 1 684 0
 2770 0040 2A07     		lsls	r2, r5, #28
 2771 0042 55D4     		bmi	.L388
 2772              	.LVL286:
 2773              	.L330:
 2774              		.loc 1 693 0
 2775 0044 2303     		lsls	r3, r4, #12
 2776              	.LVL287:
 2777 0046 07D5     		bpl	.L336
ARM GAS  C:\Users\srich\AppData\Local\Temp\cc7Prgoh.s 			page 50


 2778              		.loc 1 694 0
 2779 0048 E803     		lsls	r0, r5, #15
 2780 004a 32D4     		bmi	.L389
 2781              		.loc 1 696 0
 2782 004c A903     		lsls	r1, r5, #14
 2783 004e 36D4     		bmi	.L390
 2784              	.L338:
 2785              		.loc 1 698 0
 2786 0050 6A03     		lsls	r2, r5, #13
 2787 0052 27D4     		bmi	.L391
 2788              	.L339:
 2789              		.loc 1 700 0
 2790 0054 2B03     		lsls	r3, r5, #12
 2791 0056 03D4     		bmi	.L392
 2792              	.L336:
 2793              	.LBE242:
 2794              	.LBE241:
 2795              		.loc 1 787 0
 2796 0058 BDE87040 		pop	{r4, r5, r6, lr}
 2797              		.loc 1 786 0
 2798 005c FFF7FEBF 		b	_port_irq_epilogue
 2799              	.LVL288:
 2800              	.L392:
 2801              	.LBB250:
 2802              	.LBB249:
 2803              		.loc 1 701 0
 2804 0060 2648     		ldr	r0, .L393
 2805 0062 0321     		movs	r1, #3
 2806 0064 FFF7FEFF 		bl	otg_epout_handler
 2807              	.LVL289:
 2808 0068 F6E7     		b	.L336
 2809              	.LVL290:
 2810              	.L383:
 2811              		.loc 1 651 0
 2812 006a 3046     		mov	r0, r6
 2813 006c FFF7FEFF 		bl	_usb_reset
 2814              	.LVL291:
 2815              		.loc 1 652 0
 2816 0070 7068     		ldr	r0, [r6, #4]
 2817 0072 0268     		ldr	r2, [r0, #0]
 2818 0074 002A     		cmp	r2, #0
 2819 0076 CCD0     		beq	.L323
 2820 0078 3046     		mov	r0, r6
 2821 007a 0021     		movs	r1, #0
 2822 007c 9047     		blx	r2
 2823              	.LVL292:
 2824 007e C8E7     		b	.L323
 2825              	.L384:
 2826              	.LBB243:
 2827              		.loc 1 669 0
 2828 0080 2023     		movs	r3, #32
 2829              	.LVL293:
 2830              	@ 669 "c:\ChibiStudio\chibios/os/hal/platforms/STM32/OTGv1/usb_lld.c" 1
 2831 0082 83F31188 		msr     BASEPRI, r3
 2832              	@ 0 "" 2
 2833              	.LVL294:
 2834              		.thumb
ARM GAS  C:\Users\srich\AppData\Local\Temp\cc7Prgoh.s 			page 51


 2835              	.LBE243:
 2836              		.loc 1 670 0
 2837 0086 A969     		ldr	r1, [r5, #24]
 2838              	.LBB244:
 2839              	.LBB245:
 2840              		.loc 1 125 0
 2841 0088 706E     		ldr	r0, [r6, #100]
 2842              	.LBE245:
 2843              	.LBE244:
 2844              		.loc 1 670 0
 2845 008a 21F01003 		bic	r3, r1, #16
 2846              	.LVL295:
 2847 008e AB61     		str	r3, [r5, #24]
 2848              	.LVL296:
 2849              	.LBB247:
 2850              	.LBB246:
 2851              		.loc 1 125 0
 2852 0090 20B1     		cbz	r0, .L328
 2853              		.loc 1 126 0
 2854 0092 FFF7FEFF 		bl	chSchReadyI
 2855              	.LVL297:
 2856              		.loc 1 127 0
 2857 0096 194A     		ldr	r2, .L393
 2858 0098 0020     		movs	r0, #0
 2859 009a 5066     		str	r0, [r2, #100]
 2860              	.L328:
 2861              	.LBE246:
 2862              	.LBE247:
 2863              	.LBB248:
 2864              		.loc 1 672 0
 2865 009c 0023     		movs	r3, #0
 2866              	@ 672 "c:\ChibiStudio\chibios/os/hal/platforms/STM32/OTGv1/usb_lld.c" 1
 2867 009e 83F31188 		msr     BASEPRI, r3
 2868              	@ 0 "" 2
 2869              	.LVL298:
 2870              		.thumb
 2871 00a2 C3E7     		b	.L327
 2872              	.LVL299:
 2873              	.L391:
 2874              	.LBE248:
 2875              		.loc 1 699 0
 2876 00a4 0221     		movs	r1, #2
 2877 00a6 1548     		ldr	r0, .L393
 2878 00a8 FFF7FEFF 		bl	otg_epout_handler
 2879              	.LVL300:
 2880              		.loc 1 700 0
 2881 00ac 2B03     		lsls	r3, r5, #12
 2882 00ae D3D5     		bpl	.L336
 2883 00b0 D6E7     		b	.L392
 2884              	.L389:
 2885              		.loc 1 695 0
 2886 00b2 0021     		movs	r1, #0
 2887 00b4 1148     		ldr	r0, .L393
 2888 00b6 FFF7FEFF 		bl	otg_epout_handler
 2889              	.LVL301:
 2890              		.loc 1 696 0
 2891 00ba A903     		lsls	r1, r5, #14
ARM GAS  C:\Users\srich\AppData\Local\Temp\cc7Prgoh.s 			page 52


 2892 00bc C8D5     		bpl	.L338
 2893              	.L390:
 2894              		.loc 1 697 0
 2895 00be 0121     		movs	r1, #1
 2896 00c0 0E48     		ldr	r0, .L393
 2897 00c2 FFF7FEFF 		bl	otg_epout_handler
 2898              	.LVL302:
 2899              		.loc 1 698 0
 2900 00c6 6A03     		lsls	r2, r5, #13
 2901 00c8 C4D5     		bpl	.L339
 2902 00ca EBE7     		b	.L391
 2903              	.L385:
 2904              		.loc 1 679 0
 2905 00cc 0B48     		ldr	r0, .L393
 2906 00ce 0021     		movs	r1, #0
 2907 00d0 FFF7FEFF 		bl	otg_epin_handler
 2908              	.LVL303:
 2909              		.loc 1 680 0
 2910 00d4 A807     		lsls	r0, r5, #30
 2911 00d6 B1D5     		bpl	.L332
 2912              	.L386:
 2913              		.loc 1 681 0
 2914 00d8 0121     		movs	r1, #1
 2915 00da 0848     		ldr	r0, .L393
 2916 00dc FFF7FEFF 		bl	otg_epin_handler
 2917              	.LVL304:
 2918              		.loc 1 682 0
 2919 00e0 6907     		lsls	r1, r5, #29
 2920 00e2 ADD5     		bpl	.L333
 2921              	.L387:
 2922              		.loc 1 683 0
 2923 00e4 0221     		movs	r1, #2
 2924 00e6 0548     		ldr	r0, .L393
 2925 00e8 FFF7FEFF 		bl	otg_epin_handler
 2926              	.LVL305:
 2927              		.loc 1 684 0
 2928 00ec 2A07     		lsls	r2, r5, #28
 2929 00ee A9D5     		bpl	.L330
 2930              	.L388:
 2931              		.loc 1 685 0
 2932 00f0 0248     		ldr	r0, .L393
 2933 00f2 0321     		movs	r1, #3
 2934 00f4 FFF7FEFF 		bl	otg_epin_handler
 2935              	.LVL306:
 2936 00f8 A4E7     		b	.L330
 2937              	.L394:
 2938 00fa 00BF     		.align	2
 2939              	.L393:
 2940 00fc 00000000 		.word	.LANCHOR0
 2941              	.LBE249:
 2942              	.LBE250:
 2943              		.cfi_endproc
 2944              	.LFE137:
 2945              		.size	Vector14C, .-Vector14C
 2946              		.section	.text.usb_lld_start_out,"ax",%progbits
 2947              		.align	2
 2948              		.p2align 4,,15
ARM GAS  C:\Users\srich\AppData\Local\Temp\cc7Prgoh.s 			page 53


 2949              		.global	usb_lld_start_out
 2950              		.thumb
 2951              		.thumb_func
 2952              		.type	usb_lld_start_out, %function
 2953              	usb_lld_start_out:
 2954              	.LFB150:
 2955              		.loc 1 1281 0
 2956              		.cfi_startproc
 2957              		@ args = 0, pretend = 0, frame = 0
 2958              		@ frame_needed = 0, uses_anonymous_args = 0
 2959              		@ link register save eliminated.
 2960              	.LVL307:
 2961              		.loc 1 1283 0
 2962 0000 5831     		adds	r1, r1, #88
 2963              	.LVL308:
 2964 0002 036D     		ldr	r3, [r0, #80]
 2965 0004 4901     		lsls	r1, r1, #5
 2966 0006 5A58     		ldr	r2, [r3, r1]
 2967 0008 42F08060 		orr	r0, r2, #67108864
 2968              	.LVL309:
 2969 000c 5850     		str	r0, [r3, r1]
 2970 000e 7047     		bx	lr
 2971              		.cfi_endproc
 2972              	.LFE150:
 2973              		.size	usb_lld_start_out, .-usb_lld_start_out
 2974              		.section	.text.usb_lld_start_in,"ax",%progbits
 2975              		.align	2
 2976              		.p2align 4,,15
 2977              		.global	usb_lld_start_in
 2978              		.thumb
 2979              		.thumb_func
 2980              		.type	usb_lld_start_in, %function
 2981              	usb_lld_start_in:
 2982              	.LFB151:
 2983              		.loc 1 1294 0
 2984              		.cfi_startproc
 2985              		@ args = 0, pretend = 0, frame = 0
 2986              		@ frame_needed = 0, uses_anonymous_args = 0
 2987              		@ link register save eliminated.
 2988              	.LVL310:
 2989              		.loc 1 1296 0
 2990 0000 01F14802 		add	r2, r1, #72
 2991 0004 036D     		ldr	r3, [r0, #80]
 2992 0006 5201     		lsls	r2, r2, #5
 2993 0008 9858     		ldr	r0, [r3, r2]
 2994              	.LVL311:
 2995 000a 40F00440 		orr	r0, r0, #-2080374784
 2996 000e 9850     		str	r0, [r3, r2]
 2997              		.loc 1 1297 0
 2998 0010 0120     		movs	r0, #1
 2999 0012 D3F83428 		ldr	r2, [r3, #2100]
 3000 0016 00FA01F1 		lsl	r1, r0, r1
 3001              	.LVL312:
 3002 001a 1143     		orrs	r1, r1, r2
 3003 001c C3F83418 		str	r1, [r3, #2100]
 3004 0020 7047     		bx	lr
 3005              		.cfi_endproc
ARM GAS  C:\Users\srich\AppData\Local\Temp\cc7Prgoh.s 			page 54


 3006              	.LFE151:
 3007              		.size	usb_lld_start_in, .-usb_lld_start_in
 3008 0022 00BFAFF3 		.section	.text.usb_lld_stall_out,"ax",%progbits
 3008      0080AFF3 
 3008      0080AFF3 
 3008      0080
 3009              		.align	2
 3010              		.p2align 4,,15
 3011              		.global	usb_lld_stall_out
 3012              		.thumb
 3013              		.thumb_func
 3014              		.type	usb_lld_stall_out, %function
 3015              	usb_lld_stall_out:
 3016              	.LFB152:
 3017              		.loc 1 1308 0
 3018              		.cfi_startproc
 3019              		@ args = 0, pretend = 0, frame = 0
 3020              		@ frame_needed = 0, uses_anonymous_args = 0
 3021              		@ link register save eliminated.
 3022              	.LVL313:
 3023              		.loc 1 1310 0
 3024 0000 5831     		adds	r1, r1, #88
 3025              	.LVL314:
 3026 0002 036D     		ldr	r3, [r0, #80]
 3027 0004 4901     		lsls	r1, r1, #5
 3028 0006 5A58     		ldr	r2, [r3, r1]
 3029 0008 42F40010 		orr	r0, r2, #2097152
 3030              	.LVL315:
 3031 000c 5850     		str	r0, [r3, r1]
 3032 000e 7047     		bx	lr
 3033              		.cfi_endproc
 3034              	.LFE152:
 3035              		.size	usb_lld_stall_out, .-usb_lld_stall_out
 3036              		.section	.text.usb_lld_stall_in,"ax",%progbits
 3037              		.align	2
 3038              		.p2align 4,,15
 3039              		.global	usb_lld_stall_in
 3040              		.thumb
 3041              		.thumb_func
 3042              		.type	usb_lld_stall_in, %function
 3043              	usb_lld_stall_in:
 3044              	.LFB153:
 3045              		.loc 1 1321 0
 3046              		.cfi_startproc
 3047              		@ args = 0, pretend = 0, frame = 0
 3048              		@ frame_needed = 0, uses_anonymous_args = 0
 3049              		@ link register save eliminated.
 3050              	.LVL316:
 3051              		.loc 1 1323 0
 3052 0000 4831     		adds	r1, r1, #72
 3053              	.LVL317:
 3054 0002 036D     		ldr	r3, [r0, #80]
 3055 0004 4901     		lsls	r1, r1, #5
 3056 0006 5A58     		ldr	r2, [r3, r1]
 3057 0008 42F40010 		orr	r0, r2, #2097152
 3058              	.LVL318:
 3059 000c 5850     		str	r0, [r3, r1]
ARM GAS  C:\Users\srich\AppData\Local\Temp\cc7Prgoh.s 			page 55


 3060 000e 7047     		bx	lr
 3061              		.cfi_endproc
 3062              	.LFE153:
 3063              		.size	usb_lld_stall_in, .-usb_lld_stall_in
 3064              		.section	.text.usb_lld_clear_out,"ax",%progbits
 3065              		.align	2
 3066              		.p2align 4,,15
 3067              		.global	usb_lld_clear_out
 3068              		.thumb
 3069              		.thumb_func
 3070              		.type	usb_lld_clear_out, %function
 3071              	usb_lld_clear_out:
 3072              	.LFB154:
 3073              		.loc 1 1334 0
 3074              		.cfi_startproc
 3075              		@ args = 0, pretend = 0, frame = 0
 3076              		@ frame_needed = 0, uses_anonymous_args = 0
 3077              		@ link register save eliminated.
 3078              	.LVL319:
 3079              		.loc 1 1336 0
 3080 0000 5831     		adds	r1, r1, #88
 3081              	.LVL320:
 3082 0002 036D     		ldr	r3, [r0, #80]
 3083 0004 4901     		lsls	r1, r1, #5
 3084 0006 5A58     		ldr	r2, [r3, r1]
 3085 0008 22F40010 		bic	r0, r2, #2097152
 3086              	.LVL321:
 3087 000c 5850     		str	r0, [r3, r1]
 3088 000e 7047     		bx	lr
 3089              		.cfi_endproc
 3090              	.LFE154:
 3091              		.size	usb_lld_clear_out, .-usb_lld_clear_out
 3092              		.section	.text.usb_lld_clear_in,"ax",%progbits
 3093              		.align	2
 3094              		.p2align 4,,15
 3095              		.global	usb_lld_clear_in
 3096              		.thumb
 3097              		.thumb_func
 3098              		.type	usb_lld_clear_in, %function
 3099              	usb_lld_clear_in:
 3100              	.LFB155:
 3101              		.loc 1 1347 0
 3102              		.cfi_startproc
 3103              		@ args = 0, pretend = 0, frame = 0
 3104              		@ frame_needed = 0, uses_anonymous_args = 0
 3105              		@ link register save eliminated.
 3106              	.LVL322:
 3107              		.loc 1 1349 0
 3108 0000 4831     		adds	r1, r1, #72
 3109              	.LVL323:
 3110 0002 036D     		ldr	r3, [r0, #80]
 3111 0004 4901     		lsls	r1, r1, #5
 3112 0006 5A58     		ldr	r2, [r3, r1]
 3113 0008 22F40010 		bic	r0, r2, #2097152
 3114              	.LVL324:
 3115 000c 5850     		str	r0, [r3, r1]
 3116 000e 7047     		bx	lr
ARM GAS  C:\Users\srich\AppData\Local\Temp\cc7Prgoh.s 			page 56


 3117              		.cfi_endproc
 3118              	.LFE155:
 3119              		.size	usb_lld_clear_in, .-usb_lld_clear_in
 3120              		.global	USBD1
 3121              		.section	.rodata.fsparams,"a",%progbits
 3122              		.align	2
 3123              		.set	.LANCHOR1,. + 0
 3124              		.type	fsparams, %object
 3125              		.size	fsparams, 12
 3126              	fsparams:
 3127 0000 80000000 		.word	128
 3128 0004 40010000 		.word	320
 3129 0008 03000000 		.word	3
 3130              		.section	.bss.USBD1,"aw",%nobits
 3131              		.align	3
 3132              		.set	.LANCHOR0,. + 0
 3133              		.type	USBD1, %object
 3134              		.size	USBD1, 440
 3135              	USBD1:
 3136 0000 00000000 		.space	440
 3136      00000000 
 3136      00000000 
 3136      00000000 
 3136      00000000 
 3137              		.section	.rodata.str1.4,"aMS",%progbits,1
 3138              		.align	2
 3139              	.LC0:
 3140 0000 7573625F 		.ascii	"usb_lld_pump\000"
 3140      6C6C645F 
 3140      70756D70 
 3140      00
 3141 000d 000000   		.section	.rodata.ep0config,"a",%progbits
 3142              		.align	2
 3143              		.set	.LANCHOR2,. + 0
 3144              		.type	ep0config, %object
 3145              		.size	ep0config, 36
 3146              	ep0config:
 3147 0000 00000000 		.word	0
 3148 0004 00000000 		.word	_usb_ep0setup
 3149 0008 00000000 		.word	_usb_ep0in
 3150 000c 00000000 		.word	_usb_ep0out
 3151 0010 4000     		.short	64
 3152 0012 4000     		.short	64
 3153 0014 00000000 		.word	ep0_state
 3154 0018 00000000 		.word	ep0_state
 3155 001c 0100     		.short	1
 3156 001e 0000     		.space	2
 3157 0020 00000000 		.word	ep0setup_buffer
 3158              		.section	.bss.ep0_state,"aw",%nobits
 3159              		.align	2
 3160              		.type	ep0_state, %object
 3161              		.size	ep0_state, 20
 3162              	ep0_state:
 3163 0000 00000000 		.space	20
 3163      00000000 
 3163      00000000 
 3163      00000000 
ARM GAS  C:\Users\srich\AppData\Local\Temp\cc7Prgoh.s 			page 57


 3163      00000000 
 3164              		.section	.bss.ep0setup_buffer,"aw",%nobits
 3165              		.align	2
 3166              		.type	ep0setup_buffer, %object
 3167              		.size	ep0setup_buffer, 8
 3168              	ep0setup_buffer:
 3169 0000 00000000 		.space	8
 3169      00000000 
 3170              		.text
 3171              	.Letext0:
 3172              		.file 3 "c:\\chibistudio\\tools\\gnu tools arm embedded\\4.7 2014q2\\bin\\../lib/gcc/arm-none-eabi
 3173              		.file 4 "c:\\chibistudio\\tools\\gnu tools arm embedded\\4.7 2014q2\\bin\\../lib/gcc/arm-none-eabi
 3174              		.file 5 "c:\\ChibiStudio\\chibios/os/ports/GCC/ARMCMx/chtypes.h"
 3175              		.file 6 "c:\\ChibiStudio\\chibios/os/kernel/include/chlists.h"
 3176              		.file 7 "c:\\ChibiStudio\\chibios/os/kernel/include/chthreads.h"
 3177              		.file 8 "c:\\ChibiStudio\\chibios/os/ports/GCC/ARMCMx/chcore_v7m.h"
 3178              		.file 9 "c:\\ChibiStudio\\chibios/os/kernel/include/chschd.h"
 3179              		.file 10 "c:\\ChibiStudio\\chibios/os/kernel/include/chmtx.h"
 3180              		.file 11 "c:\\ChibiStudio\\chibios/os/kernel/include/chqueues.h"
 3181              		.file 12 "c:\\ChibiStudio\\chibios/os/hal/platforms/STM32F4xx/stm32f4xx.h"
 3182              		.file 13 "c:\\ChibiStudio\\chibios/os/hal/platforms/STM32F4xx/hal_lld.h"
 3183              		.file 14 "c:\\ChibiStudio\\chibios/os/hal/include/usb.h"
 3184              		.file 15 "c:\\ChibiStudio\\chibios/os/hal/platforms/STM32/OTGv1/usb_lld.h"
 3185              		.file 16 "c:\\ChibiStudio\\chibios/os/hal/platforms/STM32/OTGv1/stm32_otg.h"
 3186              		.file 17 "c:\\ChibiStudio\\chibios/os/ports/common/ARMCMx/CMSIS/include/core_cm4.h"
 3187              		.file 18 "c:\\ChibiStudio\\chibios/os/hal/include/hal.h"
 3188              		.file 19 "c:\\ChibiStudio\\chibios/os/ports/common/ARMCMx/nvic.h"
 3189              		.section	.debug_info,"",%progbits
 3190              	.Ldebug_info0:
 3191 0000 27290000 		.4byte	0x2927
 3192 0004 0200     		.2byte	0x2
 3193 0006 00000000 		.4byte	.Ldebug_abbrev0
 3194 000a 04       		.byte	0x4
 3195 000b 01       		.uleb128 0x1
 3196 000c 4E090000 		.4byte	.LASF346
 3197 0010 01       		.byte	0x1
 3198 0011 60070000 		.4byte	.LASF347
 3199 0015 B0030000 		.4byte	.Ldebug_ranges0+0x3b0
 3200 0019 00000000 		.4byte	0
 3201 001d 00000000 		.4byte	0
 3202 0021 00000000 		.4byte	.Ldebug_line0
 3203 0025 02       		.uleb128 0x2
 3204 0026 04       		.byte	0x4
 3205 0027 07       		.byte	0x7
 3206 0028 2E080000 		.4byte	.LASF0
 3207 002c 02       		.uleb128 0x2
 3208 002d 01       		.byte	0x1
 3209 002e 06       		.byte	0x6
 3210 002f A8020000 		.4byte	.LASF1
 3211 0033 02       		.uleb128 0x2
 3212 0034 01       		.byte	0x1
 3213 0035 08       		.byte	0x8
 3214 0036 35030000 		.4byte	.LASF2
 3215 003a 02       		.uleb128 0x2
 3216 003b 02       		.byte	0x2
 3217 003c 05       		.byte	0x5
 3218 003d F00B0000 		.4byte	.LASF3
ARM GAS  C:\Users\srich\AppData\Local\Temp\cc7Prgoh.s 			page 58


 3219 0041 02       		.uleb128 0x2
 3220 0042 02       		.byte	0x2
 3221 0043 07       		.byte	0x7
 3222 0044 C00D0000 		.4byte	.LASF4
 3223 0048 03       		.uleb128 0x3
 3224 0049 04       		.byte	0x4
 3225 004a 05       		.byte	0x5
 3226 004b 696E7400 		.ascii	"int\000"
 3227 004f 02       		.uleb128 0x2
 3228 0050 08       		.byte	0x8
 3229 0051 05       		.byte	0x5
 3230 0052 29070000 		.4byte	.LASF5
 3231 0056 02       		.uleb128 0x2
 3232 0057 08       		.byte	0x8
 3233 0058 07       		.byte	0x7
 3234 0059 2E0A0000 		.4byte	.LASF6
 3235 005d 02       		.uleb128 0x2
 3236 005e 04       		.byte	0x4
 3237 005f 05       		.byte	0x5
 3238 0060 C9010000 		.4byte	.LASF7
 3239 0064 02       		.uleb128 0x2
 3240 0065 04       		.byte	0x4
 3241 0066 07       		.byte	0x7
 3242 0067 19000000 		.4byte	.LASF8
 3243 006b 04       		.uleb128 0x4
 3244 006c 04       		.byte	0x4
 3245 006d 02       		.uleb128 0x2
 3246 006e 04       		.byte	0x4
 3247 006f 07       		.byte	0x7
 3248 0070 02060000 		.4byte	.LASF9
 3249 0074 02       		.uleb128 0x2
 3250 0075 01       		.byte	0x1
 3251 0076 08       		.byte	0x8
 3252 0077 02040000 		.4byte	.LASF10
 3253 007b 05       		.uleb128 0x5
 3254 007c 04       		.byte	0x4
 3255 007d 81000000 		.4byte	0x81
 3256 0081 06       		.uleb128 0x6
 3257 0082 74000000 		.4byte	0x74
 3258 0086 07       		.uleb128 0x7
 3259 0087 00000000 		.4byte	.LASF11
 3260 008b 03       		.byte	0x3
 3261 008c D5       		.byte	0xd5
 3262 008d 25000000 		.4byte	0x25
 3263 0091 07       		.uleb128 0x7
 3264 0092 BE020000 		.4byte	.LASF12
 3265 0096 04       		.byte	0x4
 3266 0097 2A       		.byte	0x2a
 3267 0098 33000000 		.4byte	0x33
 3268 009c 07       		.uleb128 0x7
 3269 009d 700A0000 		.4byte	.LASF13
 3270 00a1 04       		.byte	0x4
 3271 00a2 36       		.byte	0x36
 3272 00a3 41000000 		.4byte	0x41
 3273 00a7 07       		.uleb128 0x7
 3274 00a8 56000000 		.4byte	.LASF14
 3275 00ac 04       		.byte	0x4
ARM GAS  C:\Users\srich\AppData\Local\Temp\cc7Prgoh.s 			page 59


 3276 00ad 4F       		.byte	0x4f
 3277 00ae 5D000000 		.4byte	0x5d
 3278 00b2 07       		.uleb128 0x7
 3279 00b3 670D0000 		.4byte	.LASF15
 3280 00b7 04       		.byte	0x4
 3281 00b8 50       		.byte	0x50
 3282 00b9 6D000000 		.4byte	0x6d
 3283 00bd 07       		.uleb128 0x7
 3284 00be 0F0C0000 		.4byte	.LASF16
 3285 00c2 04       		.byte	0x4
 3286 00c3 78       		.byte	0x78
 3287 00c4 56000000 		.4byte	0x56
 3288 00c8 07       		.uleb128 0x7
 3289 00c9 A50C0000 		.4byte	.LASF17
 3290 00cd 05       		.byte	0x5
 3291 00ce 2B       		.byte	0x2b
 3292 00cf D3000000 		.4byte	0xd3
 3293 00d3 02       		.uleb128 0x2
 3294 00d4 01       		.byte	0x1
 3295 00d5 02       		.byte	0x2
 3296 00d6 A3030000 		.4byte	.LASF18
 3297 00da 07       		.uleb128 0x7
 3298 00db 710B0000 		.4byte	.LASF19
 3299 00df 05       		.byte	0x5
 3300 00e0 2C       		.byte	0x2c
 3301 00e1 91000000 		.4byte	0x91
 3302 00e5 07       		.uleb128 0x7
 3303 00e6 E8010000 		.4byte	.LASF20
 3304 00ea 05       		.byte	0x5
 3305 00eb 2D       		.byte	0x2d
 3306 00ec 91000000 		.4byte	0x91
 3307 00f0 07       		.uleb128 0x7
 3308 00f1 280D0000 		.4byte	.LASF21
 3309 00f5 05       		.byte	0x5
 3310 00f6 2E       		.byte	0x2e
 3311 00f7 91000000 		.4byte	0x91
 3312 00fb 07       		.uleb128 0x7
 3313 00fc B50A0000 		.4byte	.LASF22
 3314 0100 05       		.byte	0x5
 3315 0101 2F       		.byte	0x2f
 3316 0102 91000000 		.4byte	0x91
 3317 0106 07       		.uleb128 0x7
 3318 0107 3D000000 		.4byte	.LASF23
 3319 010b 05       		.byte	0x5
 3320 010c 30       		.byte	0x30
 3321 010d B2000000 		.4byte	0xb2
 3322 0111 07       		.uleb128 0x7
 3323 0112 860A0000 		.4byte	.LASF24
 3324 0116 05       		.byte	0x5
 3325 0117 31       		.byte	0x31
 3326 0118 A7000000 		.4byte	0xa7
 3327 011c 07       		.uleb128 0x7
 3328 011d F1020000 		.4byte	.LASF25
 3329 0121 05       		.byte	0x5
 3330 0122 33       		.byte	0x33
 3331 0123 B2000000 		.4byte	0xb2
 3332 0127 07       		.uleb128 0x7
ARM GAS  C:\Users\srich\AppData\Local\Temp\cc7Prgoh.s 			page 60


 3333 0128 22000000 		.4byte	.LASF26
 3334 012c 05       		.byte	0x5
 3335 012d 35       		.byte	0x35
 3336 012e B2000000 		.4byte	0xb2
 3337 0132 07       		.uleb128 0x7
 3338 0133 DA0C0000 		.4byte	.LASF27
 3339 0137 06       		.byte	0x6
 3340 0138 2A       		.byte	0x2a
 3341 0139 3D010000 		.4byte	0x13d
 3342 013d 08       		.uleb128 0x8
 3343 013e DA0C0000 		.4byte	.LASF27
 3344 0142 48       		.byte	0x48
 3345 0143 07       		.byte	0x7
 3346 0144 5E       		.byte	0x5e
 3347 0145 62020000 		.4byte	0x262
 3348 0149 09       		.uleb128 0x9
 3349 014a D2010000 		.4byte	.LASF28
 3350 014e 07       		.byte	0x7
 3351 014f 5F       		.byte	0x5f
 3352 0150 87020000 		.4byte	0x287
 3353 0154 02       		.byte	0x2
 3354 0155 23       		.byte	0x23
 3355 0156 00       		.uleb128 0
 3356 0157 09       		.uleb128 0x9
 3357 0158 E1010000 		.4byte	.LASF29
 3358 015c 07       		.byte	0x7
 3359 015d 61       		.byte	0x61
 3360 015e 87020000 		.4byte	0x287
 3361 0162 02       		.byte	0x2
 3362 0163 23       		.byte	0x23
 3363 0164 04       		.uleb128 0x4
 3364 0165 09       		.uleb128 0x9
 3365 0166 1A040000 		.4byte	.LASF30
 3366 016a 07       		.byte	0x7
 3367 016b 63       		.byte	0x63
 3368 016c 06010000 		.4byte	0x106
 3369 0170 02       		.byte	0x2
 3370 0171 23       		.byte	0x23
 3371 0172 08       		.uleb128 0x8
 3372 0173 09       		.uleb128 0x9
 3373 0174 37000000 		.4byte	.LASF31
 3374 0178 07       		.byte	0x7
 3375 0179 64       		.byte	0x64
 3376 017a 5E030000 		.4byte	0x35e
 3377 017e 02       		.byte	0x2
 3378 017f 23       		.byte	0x23
 3379 0180 0C       		.uleb128 0xc
 3380 0181 09       		.uleb128 0x9
 3381 0182 BC010000 		.4byte	.LASF32
 3382 0186 07       		.byte	0x7
 3383 0187 66       		.byte	0x66
 3384 0188 87020000 		.4byte	0x287
 3385 018c 02       		.byte	0x2
 3386 018d 23       		.byte	0x23
 3387 018e 10       		.uleb128 0x10
 3388 018f 09       		.uleb128 0x9
 3389 0190 680A0000 		.4byte	.LASF33
ARM GAS  C:\Users\srich\AppData\Local\Temp\cc7Prgoh.s 			page 61


 3390 0194 07       		.byte	0x7
 3391 0195 67       		.byte	0x67
 3392 0196 87020000 		.4byte	0x287
 3393 019a 02       		.byte	0x2
 3394 019b 23       		.byte	0x23
 3395 019c 14       		.uleb128 0x14
 3396 019d 09       		.uleb128 0x9
 3397 019e 790E0000 		.4byte	.LASF34
 3398 01a2 07       		.byte	0x7
 3399 01a3 6E       		.byte	0x6e
 3400 01a4 7B000000 		.4byte	0x7b
 3401 01a8 02       		.byte	0x2
 3402 01a9 23       		.byte	0x23
 3403 01aa 18       		.uleb128 0x18
 3404 01ab 09       		.uleb128 0x9
 3405 01ac F60E0000 		.4byte	.LASF35
 3406 01b0 07       		.byte	0x7
 3407 01b1 79       		.byte	0x79
 3408 01b2 E5000000 		.4byte	0xe5
 3409 01b6 02       		.byte	0x2
 3410 01b7 23       		.byte	0x23
 3411 01b8 1C       		.uleb128 0x1c
 3412 01b9 09       		.uleb128 0x9
 3413 01ba 17080000 		.4byte	.LASF36
 3414 01be 07       		.byte	0x7
 3415 01bf 7D       		.byte	0x7d
 3416 01c0 DA000000 		.4byte	0xda
 3417 01c4 02       		.byte	0x2
 3418 01c5 23       		.byte	0x23
 3419 01c6 1D       		.uleb128 0x1d
 3420 01c7 09       		.uleb128 0x9
 3421 01c8 8B080000 		.4byte	.LASF37
 3422 01cc 07       		.byte	0x7
 3423 01cd 82       		.byte	0x82
 3424 01ce F0000000 		.4byte	0xf0
 3425 01d2 02       		.byte	0x2
 3426 01d3 23       		.byte	0x23
 3427 01d4 1E       		.uleb128 0x1e
 3428 01d5 09       		.uleb128 0x9
 3429 01d6 B4020000 		.4byte	.LASF38
 3430 01da 07       		.byte	0x7
 3431 01db 88       		.byte	0x88
 3432 01dc FB000000 		.4byte	0xfb
 3433 01e0 02       		.byte	0x2
 3434 01e1 23       		.byte	0x23
 3435 01e2 1F       		.uleb128 0x1f
 3436 01e3 09       		.uleb128 0x9
 3437 01e4 2F090000 		.4byte	.LASF39
 3438 01e8 07       		.byte	0x7
 3439 01e9 8F       		.byte	0x8f
 3440 01ea 86030000 		.4byte	0x386
 3441 01ee 02       		.byte	0x2
 3442 01ef 23       		.byte	0x23
 3443 01f0 20       		.uleb128 0x20
 3444 01f1 0A       		.uleb128 0xa
 3445 01f2 705F7500 		.ascii	"p_u\000"
 3446 01f6 07       		.byte	0x7
ARM GAS  C:\Users\srich\AppData\Local\Temp\cc7Prgoh.s 			page 62


 3447 01f7 B4       		.byte	0xb4
 3448 01f8 3B040000 		.4byte	0x43b
 3449 01fc 02       		.byte	0x2
 3450 01fd 23       		.byte	0x23
 3451 01fe 24       		.uleb128 0x24
 3452 01ff 09       		.uleb128 0x9
 3453 0200 06080000 		.4byte	.LASF40
 3454 0204 07       		.byte	0x7
 3455 0205 B9       		.byte	0xb9
 3456 0206 AF020000 		.4byte	0x2af
 3457 020a 02       		.byte	0x2
 3458 020b 23       		.byte	0x23
 3459 020c 28       		.uleb128 0x28
 3460 020d 09       		.uleb128 0x9
 3461 020e 45000000 		.4byte	.LASF41
 3462 0212 07       		.byte	0x7
 3463 0213 BF       		.byte	0xbf
 3464 0214 8D020000 		.4byte	0x28d
 3465 0218 02       		.byte	0x2
 3466 0219 23       		.byte	0x23
 3467 021a 2C       		.uleb128 0x2c
 3468 021b 09       		.uleb128 0x9
 3469 021c E10E0000 		.4byte	.LASF42
 3470 0220 07       		.byte	0x7
 3471 0221 C3       		.byte	0xc3
 3472 0222 11010000 		.4byte	0x111
 3473 0226 02       		.byte	0x2
 3474 0227 23       		.byte	0x23
 3475 0228 34       		.uleb128 0x34
 3476 0229 09       		.uleb128 0x9
 3477 022a 52050000 		.4byte	.LASF43
 3478 022e 07       		.byte	0x7
 3479 022f C9       		.byte	0xc9
 3480 0230 1C010000 		.4byte	0x11c
 3481 0234 02       		.byte	0x2
 3482 0235 23       		.byte	0x23
 3483 0236 38       		.uleb128 0x38
 3484 0237 09       		.uleb128 0x9
 3485 0238 FD010000 		.4byte	.LASF44
 3486 023c 07       		.byte	0x7
 3487 023d D0       		.byte	0xd0
 3488 023e 70040000 		.4byte	0x470
 3489 0242 02       		.byte	0x2
 3490 0243 23       		.byte	0x23
 3491 0244 3C       		.uleb128 0x3c
 3492 0245 09       		.uleb128 0x9
 3493 0246 C1090000 		.4byte	.LASF45
 3494 024a 07       		.byte	0x7
 3495 024b D4       		.byte	0xd4
 3496 024c 06010000 		.4byte	0x106
 3497 0250 02       		.byte	0x2
 3498 0251 23       		.byte	0x23
 3499 0252 40       		.uleb128 0x40
 3500 0253 09       		.uleb128 0x9
 3501 0254 66080000 		.4byte	.LASF46
 3502 0258 07       		.byte	0x7
 3503 0259 DA       		.byte	0xda
ARM GAS  C:\Users\srich\AppData\Local\Temp\cc7Prgoh.s 			page 63


 3504 025a 6B000000 		.4byte	0x6b
 3505 025e 02       		.byte	0x2
 3506 025f 23       		.byte	0x23
 3507 0260 44       		.uleb128 0x44
 3508 0261 00       		.byte	0
 3509 0262 0B       		.uleb128 0xb
 3510 0263 08       		.byte	0x8
 3511 0264 06       		.byte	0x6
 3512 0265 61       		.byte	0x61
 3513 0266 87020000 		.4byte	0x287
 3514 026a 09       		.uleb128 0x9
 3515 026b D2010000 		.4byte	.LASF28
 3516 026f 06       		.byte	0x6
 3517 0270 62       		.byte	0x62
 3518 0271 87020000 		.4byte	0x287
 3519 0275 02       		.byte	0x2
 3520 0276 23       		.byte	0x23
 3521 0277 00       		.uleb128 0
 3522 0278 09       		.uleb128 0x9
 3523 0279 E1010000 		.4byte	.LASF29
 3524 027d 06       		.byte	0x6
 3525 027e 64       		.byte	0x64
 3526 027f 87020000 		.4byte	0x287
 3527 0283 02       		.byte	0x2
 3528 0284 23       		.byte	0x23
 3529 0285 04       		.uleb128 0x4
 3530 0286 00       		.byte	0
 3531 0287 05       		.uleb128 0x5
 3532 0288 04       		.byte	0x4
 3533 0289 32010000 		.4byte	0x132
 3534 028d 07       		.uleb128 0x7
 3535 028e 780D0000 		.4byte	.LASF47
 3536 0292 06       		.byte	0x6
 3537 0293 66       		.byte	0x66
 3538 0294 62020000 		.4byte	0x262
 3539 0298 0B       		.uleb128 0xb
 3540 0299 04       		.byte	0x4
 3541 029a 06       		.byte	0x6
 3542 029b 6B       		.byte	0x6b
 3543 029c AF020000 		.4byte	0x2af
 3544 02a0 09       		.uleb128 0x9
 3545 02a1 D2010000 		.4byte	.LASF28
 3546 02a5 06       		.byte	0x6
 3547 02a6 6D       		.byte	0x6d
 3548 02a7 87020000 		.4byte	0x287
 3549 02ab 02       		.byte	0x2
 3550 02ac 23       		.byte	0x23
 3551 02ad 00       		.uleb128 0
 3552 02ae 00       		.byte	0
 3553 02af 07       		.uleb128 0x7
 3554 02b0 D0080000 		.4byte	.LASF48
 3555 02b4 06       		.byte	0x6
 3556 02b5 70       		.byte	0x70
 3557 02b6 98020000 		.4byte	0x298
 3558 02ba 07       		.uleb128 0x7
 3559 02bb 31020000 		.4byte	.LASF49
 3560 02bf 08       		.byte	0x8
ARM GAS  C:\Users\srich\AppData\Local\Temp\cc7Prgoh.s 			page 64


 3561 02c0 E5       		.byte	0xe5
 3562 02c1 6B000000 		.4byte	0x6b
 3563 02c5 07       		.uleb128 0x7
 3564 02c6 79040000 		.4byte	.LASF50
 3565 02ca 08       		.byte	0x8
 3566 02cb EB       		.byte	0xeb
 3567 02cc BD000000 		.4byte	0xbd
 3568 02d0 0C       		.uleb128 0xc
 3569 02d1 4B050000 		.4byte	.LASF51
 3570 02d5 24       		.byte	0x24
 3571 02d6 08       		.byte	0x8
 3572 02d7 0C01     		.2byte	0x10c
 3573 02d9 5E030000 		.4byte	0x35e
 3574 02dd 0D       		.uleb128 0xd
 3575 02de 723400   		.ascii	"r4\000"
 3576 02e1 08       		.byte	0x8
 3577 02e2 1F01     		.2byte	0x11f
 3578 02e4 BA020000 		.4byte	0x2ba
 3579 02e8 02       		.byte	0x2
 3580 02e9 23       		.byte	0x23
 3581 02ea 00       		.uleb128 0
 3582 02eb 0D       		.uleb128 0xd
 3583 02ec 723500   		.ascii	"r5\000"
 3584 02ef 08       		.byte	0x8
 3585 02f0 2001     		.2byte	0x120
 3586 02f2 BA020000 		.4byte	0x2ba
 3587 02f6 02       		.byte	0x2
 3588 02f7 23       		.byte	0x23
 3589 02f8 04       		.uleb128 0x4
 3590 02f9 0D       		.uleb128 0xd
 3591 02fa 723600   		.ascii	"r6\000"
 3592 02fd 08       		.byte	0x8
 3593 02fe 2101     		.2byte	0x121
 3594 0300 BA020000 		.4byte	0x2ba
 3595 0304 02       		.byte	0x2
 3596 0305 23       		.byte	0x23
 3597 0306 08       		.uleb128 0x8
 3598 0307 0D       		.uleb128 0xd
 3599 0308 723700   		.ascii	"r7\000"
 3600 030b 08       		.byte	0x8
 3601 030c 2201     		.2byte	0x122
 3602 030e BA020000 		.4byte	0x2ba
 3603 0312 02       		.byte	0x2
 3604 0313 23       		.byte	0x23
 3605 0314 0C       		.uleb128 0xc
 3606 0315 0D       		.uleb128 0xd
 3607 0316 723800   		.ascii	"r8\000"
 3608 0319 08       		.byte	0x8
 3609 031a 2301     		.2byte	0x123
 3610 031c BA020000 		.4byte	0x2ba
 3611 0320 02       		.byte	0x2
 3612 0321 23       		.byte	0x23
 3613 0322 10       		.uleb128 0x10
 3614 0323 0D       		.uleb128 0xd
 3615 0324 723900   		.ascii	"r9\000"
 3616 0327 08       		.byte	0x8
 3617 0328 2401     		.2byte	0x124
ARM GAS  C:\Users\srich\AppData\Local\Temp\cc7Prgoh.s 			page 65


 3618 032a BA020000 		.4byte	0x2ba
 3619 032e 02       		.byte	0x2
 3620 032f 23       		.byte	0x23
 3621 0330 14       		.uleb128 0x14
 3622 0331 0D       		.uleb128 0xd
 3623 0332 72313000 		.ascii	"r10\000"
 3624 0336 08       		.byte	0x8
 3625 0337 2501     		.2byte	0x125
 3626 0339 BA020000 		.4byte	0x2ba
 3627 033d 02       		.byte	0x2
 3628 033e 23       		.byte	0x23
 3629 033f 18       		.uleb128 0x18
 3630 0340 0D       		.uleb128 0xd
 3631 0341 72313100 		.ascii	"r11\000"
 3632 0345 08       		.byte	0x8
 3633 0346 2601     		.2byte	0x126
 3634 0348 BA020000 		.4byte	0x2ba
 3635 034c 02       		.byte	0x2
 3636 034d 23       		.byte	0x23
 3637 034e 1C       		.uleb128 0x1c
 3638 034f 0D       		.uleb128 0xd
 3639 0350 6C7200   		.ascii	"lr\000"
 3640 0353 08       		.byte	0x8
 3641 0354 2701     		.2byte	0x127
 3642 0356 BA020000 		.4byte	0x2ba
 3643 035a 02       		.byte	0x2
 3644 035b 23       		.byte	0x23
 3645 035c 20       		.uleb128 0x20
 3646 035d 00       		.byte	0
 3647 035e 0C       		.uleb128 0xc
 3648 035f FD020000 		.4byte	.LASF52
 3649 0363 04       		.byte	0x4
 3650 0364 08       		.byte	0x8
 3651 0365 3101     		.2byte	0x131
 3652 0367 7B030000 		.4byte	0x37b
 3653 036b 0D       		.uleb128 0xd
 3654 036c 72313300 		.ascii	"r13\000"
 3655 0370 08       		.byte	0x8
 3656 0371 3201     		.2byte	0x132
 3657 0373 7B030000 		.4byte	0x37b
 3658 0377 02       		.byte	0x2
 3659 0378 23       		.byte	0x23
 3660 0379 00       		.uleb128 0
 3661 037a 00       		.byte	0
 3662 037b 05       		.uleb128 0x5
 3663 037c 04       		.byte	0x4
 3664 037d D0020000 		.4byte	0x2d0
 3665 0381 0E       		.uleb128 0xe
 3666 0382 B2000000 		.4byte	0xb2
 3667 0386 0E       		.uleb128 0xe
 3668 0387 27010000 		.4byte	0x127
 3669 038b 0B       		.uleb128 0xb
 3670 038c 1C       		.byte	0x1c
 3671 038d 09       		.byte	0x9
 3672 038e 5E       		.byte	0x5e
 3673 038f E8030000 		.4byte	0x3e8
 3674 0393 09       		.uleb128 0x9
ARM GAS  C:\Users\srich\AppData\Local\Temp\cc7Prgoh.s 			page 66


 3675 0394 3F0B0000 		.4byte	.LASF53
 3676 0398 09       		.byte	0x9
 3677 0399 5F       		.byte	0x5f
 3678 039a 8D020000 		.4byte	0x28d
 3679 039e 02       		.byte	0x2
 3680 039f 23       		.byte	0x23
 3681 03a0 00       		.uleb128 0
 3682 03a1 09       		.uleb128 0x9
 3683 03a2 790C0000 		.4byte	.LASF54
 3684 03a6 09       		.byte	0x9
 3685 03a7 60       		.byte	0x60
 3686 03a8 06010000 		.4byte	0x106
 3687 03ac 02       		.byte	0x2
 3688 03ad 23       		.byte	0x23
 3689 03ae 08       		.uleb128 0x8
 3690 03af 09       		.uleb128 0x9
 3691 03b0 50000000 		.4byte	.LASF55
 3692 03b4 09       		.byte	0x9
 3693 03b5 62       		.byte	0x62
 3694 03b6 5E030000 		.4byte	0x35e
 3695 03ba 02       		.byte	0x2
 3696 03bb 23       		.byte	0x23
 3697 03bc 0C       		.uleb128 0xc
 3698 03bd 09       		.uleb128 0x9
 3699 03be 6D030000 		.4byte	.LASF56
 3700 03c2 09       		.byte	0x9
 3701 03c3 65       		.byte	0x65
 3702 03c4 87020000 		.4byte	0x287
 3703 03c8 02       		.byte	0x2
 3704 03c9 23       		.byte	0x23
 3705 03ca 10       		.uleb128 0x10
 3706 03cb 09       		.uleb128 0x9
 3707 03cc C20B0000 		.4byte	.LASF57
 3708 03d0 09       		.byte	0x9
 3709 03d1 66       		.byte	0x66
 3710 03d2 87020000 		.4byte	0x287
 3711 03d6 02       		.byte	0x2
 3712 03d7 23       		.byte	0x23
 3713 03d8 14       		.uleb128 0x14
 3714 03d9 09       		.uleb128 0x9
 3715 03da DF0A0000 		.4byte	.LASF58
 3716 03de 09       		.byte	0x9
 3717 03df 69       		.byte	0x69
 3718 03e0 87020000 		.4byte	0x287
 3719 03e4 02       		.byte	0x2
 3720 03e5 23       		.byte	0x23
 3721 03e6 18       		.uleb128 0x18
 3722 03e7 00       		.byte	0
 3723 03e8 07       		.uleb128 0x7
 3724 03e9 560E0000 		.4byte	.LASF59
 3725 03ed 09       		.byte	0x9
 3726 03ee 6B       		.byte	0x6b
 3727 03ef 8B030000 		.4byte	0x38b
 3728 03f3 08       		.uleb128 0x8
 3729 03f4 23070000 		.4byte	.LASF60
 3730 03f8 10       		.byte	0x10
 3731 03f9 0A       		.byte	0xa
ARM GAS  C:\Users\srich\AppData\Local\Temp\cc7Prgoh.s 			page 67


 3732 03fa 2C       		.byte	0x2c
 3733 03fb 2A040000 		.4byte	0x42a
 3734 03ff 09       		.uleb128 0x9
 3735 0400 41070000 		.4byte	.LASF61
 3736 0404 0A       		.byte	0xa
 3737 0405 2D       		.byte	0x2d
 3738 0406 8D020000 		.4byte	0x28d
 3739 040a 02       		.byte	0x2
 3740 040b 23       		.byte	0x23
 3741 040c 00       		.uleb128 0
 3742 040d 09       		.uleb128 0x9
 3743 040e 4B010000 		.4byte	.LASF62
 3744 0412 0A       		.byte	0xa
 3745 0413 2F       		.byte	0x2f
 3746 0414 87020000 		.4byte	0x287
 3747 0418 02       		.byte	0x2
 3748 0419 23       		.byte	0x23
 3749 041a 08       		.uleb128 0x8
 3750 041b 09       		.uleb128 0x9
 3751 041c 850E0000 		.4byte	.LASF63
 3752 0420 0A       		.byte	0xa
 3753 0421 31       		.byte	0x31
 3754 0422 2A040000 		.4byte	0x42a
 3755 0426 02       		.byte	0x2
 3756 0427 23       		.byte	0x23
 3757 0428 0C       		.uleb128 0xc
 3758 0429 00       		.byte	0
 3759 042a 05       		.uleb128 0x5
 3760 042b 04       		.byte	0x4
 3761 042c F3030000 		.4byte	0x3f3
 3762 0430 07       		.uleb128 0x7
 3763 0431 23070000 		.4byte	.LASF60
 3764 0435 0A       		.byte	0xa
 3765 0436 33       		.byte	0x33
 3766 0437 F3030000 		.4byte	0x3f3
 3767 043b 0F       		.uleb128 0xf
 3768 043c 04       		.byte	0x4
 3769 043d 07       		.byte	0x7
 3770 043e 96       		.byte	0x96
 3771 043f 70040000 		.4byte	0x470
 3772 0443 10       		.uleb128 0x10
 3773 0444 B90D0000 		.4byte	.LASF64
 3774 0448 07       		.byte	0x7
 3775 0449 9D       		.byte	0x9d
 3776 044a 11010000 		.4byte	0x111
 3777 044e 10       		.uleb128 0x10
 3778 044f 53010000 		.4byte	.LASF65
 3779 0453 07       		.byte	0x7
 3780 0454 A4       		.byte	0xa4
 3781 0455 11010000 		.4byte	0x111
 3782 0459 10       		.uleb128 0x10
 3783 045a 47040000 		.4byte	.LASF66
 3784 045e 07       		.byte	0x7
 3785 045f AB       		.byte	0xab
 3786 0460 6B000000 		.4byte	0x6b
 3787 0464 10       		.uleb128 0x10
 3788 0465 70010000 		.4byte	.LASF67
ARM GAS  C:\Users\srich\AppData\Local\Temp\cc7Prgoh.s 			page 68


 3789 0469 07       		.byte	0x7
 3790 046a B2       		.byte	0xb2
 3791 046b 1C010000 		.4byte	0x11c
 3792 046f 00       		.byte	0
 3793 0470 05       		.uleb128 0x5
 3794 0471 04       		.byte	0x4
 3795 0472 30040000 		.4byte	0x430
 3796 0476 07       		.uleb128 0x7
 3797 0477 D6070000 		.4byte	.LASF68
 3798 047b 07       		.byte	0x7
 3799 047c E5       		.byte	0xe5
 3800 047d 81040000 		.4byte	0x481
 3801 0481 05       		.uleb128 0x5
 3802 0482 04       		.byte	0x4
 3803 0483 87040000 		.4byte	0x487
 3804 0487 11       		.uleb128 0x11
 3805 0488 01       		.byte	0x1
 3806 0489 11010000 		.4byte	0x111
 3807 048d 97040000 		.4byte	0x497
 3808 0491 12       		.uleb128 0x12
 3809 0492 6B000000 		.4byte	0x6b
 3810 0496 00       		.byte	0
 3811 0497 07       		.uleb128 0x7
 3812 0498 33040000 		.4byte	.LASF69
 3813 049c 0B       		.byte	0xb
 3814 049d 37       		.byte	0x37
 3815 049e A2040000 		.4byte	0x4a2
 3816 04a2 08       		.uleb128 0x8
 3817 04a3 33040000 		.4byte	.LASF69
 3818 04a7 24       		.byte	0x24
 3819 04a8 0B       		.byte	0xb
 3820 04a9 45       		.byte	0x45
 3821 04aa 1F050000 		.4byte	0x51f
 3822 04ae 09       		.uleb128 0x9
 3823 04af 610B0000 		.4byte	.LASF70
 3824 04b3 0B       		.byte	0xb
 3825 04b4 46       		.byte	0x46
 3826 04b5 8D020000 		.4byte	0x28d
 3827 04b9 02       		.byte	0x2
 3828 04ba 23       		.byte	0x23
 3829 04bb 00       		.uleb128 0
 3830 04bc 09       		.uleb128 0x9
 3831 04bd CF050000 		.4byte	.LASF71
 3832 04c1 0B       		.byte	0xb
 3833 04c2 47       		.byte	0x47
 3834 04c3 86000000 		.4byte	0x86
 3835 04c7 02       		.byte	0x2
 3836 04c8 23       		.byte	0x23
 3837 04c9 08       		.uleb128 0x8
 3838 04ca 09       		.uleb128 0x9
 3839 04cb 8F010000 		.4byte	.LASF72
 3840 04cf 0B       		.byte	0xb
 3841 04d0 48       		.byte	0x48
 3842 04d1 42050000 		.4byte	0x542
 3843 04d5 02       		.byte	0x2
 3844 04d6 23       		.byte	0x23
 3845 04d7 0C       		.uleb128 0xc
ARM GAS  C:\Users\srich\AppData\Local\Temp\cc7Prgoh.s 			page 69


 3846 04d8 09       		.uleb128 0x9
 3847 04d9 6A010000 		.4byte	.LASF73
 3848 04dd 0B       		.byte	0xb
 3849 04de 49       		.byte	0x49
 3850 04df 42050000 		.4byte	0x542
 3851 04e3 02       		.byte	0x2
 3852 04e4 23       		.byte	0x23
 3853 04e5 10       		.uleb128 0x10
 3854 04e6 09       		.uleb128 0x9
 3855 04e7 55060000 		.4byte	.LASF74
 3856 04eb 0B       		.byte	0xb
 3857 04ec 4B       		.byte	0x4b
 3858 04ed 42050000 		.4byte	0x542
 3859 04f1 02       		.byte	0x2
 3860 04f2 23       		.byte	0x23
 3861 04f3 14       		.uleb128 0x14
 3862 04f4 09       		.uleb128 0x9
 3863 04f5 D9010000 		.4byte	.LASF75
 3864 04f9 0B       		.byte	0xb
 3865 04fa 4C       		.byte	0x4c
 3866 04fb 42050000 		.4byte	0x542
 3867 04ff 02       		.byte	0x2
 3868 0500 23       		.byte	0x23
 3869 0501 18       		.uleb128 0x18
 3870 0502 09       		.uleb128 0x9
 3871 0503 B3010000 		.4byte	.LASF76
 3872 0507 0B       		.byte	0xb
 3873 0508 4D       		.byte	0x4d
 3874 0509 1F050000 		.4byte	0x51f
 3875 050d 02       		.byte	0x2
 3876 050e 23       		.byte	0x23
 3877 050f 1C       		.uleb128 0x1c
 3878 0510 09       		.uleb128 0x9
 3879 0511 57030000 		.4byte	.LASF77
 3880 0515 0B       		.byte	0xb
 3881 0516 4E       		.byte	0x4e
 3882 0517 6B000000 		.4byte	0x6b
 3883 051b 02       		.byte	0x2
 3884 051c 23       		.byte	0x23
 3885 051d 20       		.uleb128 0x20
 3886 051e 00       		.byte	0
 3887 051f 07       		.uleb128 0x7
 3888 0520 FC070000 		.4byte	.LASF78
 3889 0524 0B       		.byte	0xb
 3890 0525 3A       		.byte	0x3a
 3891 0526 2A050000 		.4byte	0x52a
 3892 052a 05       		.uleb128 0x5
 3893 052b 04       		.byte	0x4
 3894 052c 30050000 		.4byte	0x530
 3895 0530 13       		.uleb128 0x13
 3896 0531 01       		.byte	0x1
 3897 0532 3C050000 		.4byte	0x53c
 3898 0536 12       		.uleb128 0x12
 3899 0537 3C050000 		.4byte	0x53c
 3900 053b 00       		.byte	0
 3901 053c 05       		.uleb128 0x5
 3902 053d 04       		.byte	0x4
ARM GAS  C:\Users\srich\AppData\Local\Temp\cc7Prgoh.s 			page 70


 3903 053e 97040000 		.4byte	0x497
 3904 0542 05       		.uleb128 0x5
 3905 0543 04       		.byte	0x4
 3906 0544 91000000 		.4byte	0x91
 3907 0548 07       		.uleb128 0x7
 3908 0549 FB0D0000 		.4byte	.LASF79
 3909 054d 0B       		.byte	0xb
 3910 054e 82       		.byte	0x82
 3911 054f 97040000 		.4byte	0x497
 3912 0553 07       		.uleb128 0x7
 3913 0554 84040000 		.4byte	.LASF80
 3914 0558 0B       		.byte	0xb
 3915 0559 F5       		.byte	0xf5
 3916 055a 97040000 		.4byte	0x497
 3917 055e 05       		.uleb128 0x5
 3918 055f 04       		.byte	0x4
 3919 0560 64050000 		.4byte	0x564
 3920 0564 06       		.uleb128 0x6
 3921 0565 91000000 		.4byte	0x91
 3922 0569 14       		.uleb128 0x14
 3923 056a B2000000 		.4byte	0xb2
 3924 056e 79050000 		.4byte	0x579
 3925 0572 15       		.uleb128 0x15
 3926 0573 64000000 		.4byte	0x64
 3927 0577 01       		.byte	0x1
 3928 0578 00       		.byte	0
 3929 0579 14       		.uleb128 0x14
 3930 057a B2000000 		.4byte	0xb2
 3931 057e 89050000 		.4byte	0x589
 3932 0582 15       		.uleb128 0x15
 3933 0583 64000000 		.4byte	0x64
 3934 0587 0E       		.byte	0xe
 3935 0588 00       		.byte	0
 3936 0589 0E       		.uleb128 0xe
 3937 058a A7000000 		.4byte	0xa7
 3938 058e 16       		.uleb128 0x16
 3939 058f 90       		.byte	0x90
 3940 0590 0C       		.byte	0xc
 3941 0591 5804     		.2byte	0x458
 3942 0593 7B070000 		.4byte	0x77b
 3943 0597 0D       		.uleb128 0xd
 3944 0598 435200   		.ascii	"CR\000"
 3945 059b 0C       		.byte	0xc
 3946 059c 5A04     		.2byte	0x45a
 3947 059e 81030000 		.4byte	0x381
 3948 05a2 02       		.byte	0x2
 3949 05a3 23       		.byte	0x23
 3950 05a4 00       		.uleb128 0
 3951 05a5 17       		.uleb128 0x17
 3952 05a6 BB060000 		.4byte	.LASF81
 3953 05aa 0C       		.byte	0xc
 3954 05ab 5B04     		.2byte	0x45b
 3955 05ad 81030000 		.4byte	0x381
 3956 05b1 02       		.byte	0x2
 3957 05b2 23       		.byte	0x23
 3958 05b3 04       		.uleb128 0x4
 3959 05b4 17       		.uleb128 0x17
ARM GAS  C:\Users\srich\AppData\Local\Temp\cc7Prgoh.s 			page 71


 3960 05b5 81050000 		.4byte	.LASF82
 3961 05b9 0C       		.byte	0xc
 3962 05ba 5C04     		.2byte	0x45c
 3963 05bc 81030000 		.4byte	0x381
 3964 05c0 02       		.byte	0x2
 3965 05c1 23       		.byte	0x23
 3966 05c2 08       		.uleb128 0x8
 3967 05c3 0D       		.uleb128 0xd
 3968 05c4 43495200 		.ascii	"CIR\000"
 3969 05c8 0C       		.byte	0xc
 3970 05c9 5D04     		.2byte	0x45d
 3971 05cb 81030000 		.4byte	0x381
 3972 05cf 02       		.byte	0x2
 3973 05d0 23       		.byte	0x23
 3974 05d1 0C       		.uleb128 0xc
 3975 05d2 17       		.uleb128 0x17
 3976 05d3 290E0000 		.4byte	.LASF83
 3977 05d7 0C       		.byte	0xc
 3978 05d8 5E04     		.2byte	0x45e
 3979 05da 81030000 		.4byte	0x381
 3980 05de 02       		.byte	0x2
 3981 05df 23       		.byte	0x23
 3982 05e0 10       		.uleb128 0x10
 3983 05e1 17       		.uleb128 0x17
 3984 05e2 CA0B0000 		.4byte	.LASF84
 3985 05e6 0C       		.byte	0xc
 3986 05e7 5F04     		.2byte	0x45f
 3987 05e9 81030000 		.4byte	0x381
 3988 05ed 02       		.byte	0x2
 3989 05ee 23       		.byte	0x23
 3990 05ef 14       		.uleb128 0x14
 3991 05f0 17       		.uleb128 0x17
 3992 05f1 B8090000 		.4byte	.LASF85
 3993 05f5 0C       		.byte	0xc
 3994 05f6 6004     		.2byte	0x460
 3995 05f8 81030000 		.4byte	0x381
 3996 05fc 02       		.byte	0x2
 3997 05fd 23       		.byte	0x23
 3998 05fe 18       		.uleb128 0x18
 3999 05ff 17       		.uleb128 0x17
 4000 0600 21030000 		.4byte	.LASF86
 4001 0604 0C       		.byte	0xc
 4002 0605 6104     		.2byte	0x461
 4003 0607 B2000000 		.4byte	0xb2
 4004 060b 02       		.byte	0x2
 4005 060c 23       		.byte	0x23
 4006 060d 1C       		.uleb128 0x1c
 4007 060e 17       		.uleb128 0x17
 4008 060f EA090000 		.4byte	.LASF87
 4009 0613 0C       		.byte	0xc
 4010 0614 6204     		.2byte	0x462
 4011 0616 81030000 		.4byte	0x381
 4012 061a 02       		.byte	0x2
 4013 061b 23       		.byte	0x23
 4014 061c 20       		.uleb128 0x20
 4015 061d 17       		.uleb128 0x17
 4016 061e 9E070000 		.4byte	.LASF88
ARM GAS  C:\Users\srich\AppData\Local\Temp\cc7Prgoh.s 			page 72


 4017 0622 0C       		.byte	0xc
 4018 0623 6304     		.2byte	0x463
 4019 0625 81030000 		.4byte	0x381
 4020 0629 02       		.byte	0x2
 4021 062a 23       		.byte	0x23
 4022 062b 24       		.uleb128 0x24
 4023 062c 17       		.uleb128 0x17
 4024 062d 2B030000 		.4byte	.LASF89
 4025 0631 0C       		.byte	0xc
 4026 0632 6404     		.2byte	0x464
 4027 0634 69050000 		.4byte	0x569
 4028 0638 02       		.byte	0x2
 4029 0639 23       		.byte	0x23
 4030 063a 28       		.uleb128 0x28
 4031 063b 17       		.uleb128 0x17
 4032 063c 790B0000 		.4byte	.LASF90
 4033 0640 0C       		.byte	0xc
 4034 0641 6504     		.2byte	0x465
 4035 0643 81030000 		.4byte	0x381
 4036 0647 02       		.byte	0x2
 4037 0648 23       		.byte	0x23
 4038 0649 30       		.uleb128 0x30
 4039 064a 17       		.uleb128 0x17
 4040 064b 2B040000 		.4byte	.LASF91
 4041 064f 0C       		.byte	0xc
 4042 0650 6604     		.2byte	0x466
 4043 0652 81030000 		.4byte	0x381
 4044 0656 02       		.byte	0x2
 4045 0657 23       		.byte	0x23
 4046 0658 34       		.uleb128 0x34
 4047 0659 17       		.uleb128 0x17
 4048 065a BA0B0000 		.4byte	.LASF92
 4049 065e 0C       		.byte	0xc
 4050 065f 6704     		.2byte	0x467
 4051 0661 81030000 		.4byte	0x381
 4052 0665 02       		.byte	0x2
 4053 0666 23       		.byte	0x23
 4054 0667 38       		.uleb128 0x38
 4055 0668 17       		.uleb128 0x17
 4056 0669 BC030000 		.4byte	.LASF93
 4057 066d 0C       		.byte	0xc
 4058 066e 6804     		.2byte	0x468
 4059 0670 B2000000 		.4byte	0xb2
 4060 0674 02       		.byte	0x2
 4061 0675 23       		.byte	0x23
 4062 0676 3C       		.uleb128 0x3c
 4063 0677 17       		.uleb128 0x17
 4064 0678 F3090000 		.4byte	.LASF94
 4065 067c 0C       		.byte	0xc
 4066 067d 6904     		.2byte	0x469
 4067 067f 81030000 		.4byte	0x381
 4068 0683 02       		.byte	0x2
 4069 0684 23       		.byte	0x23
 4070 0685 40       		.uleb128 0x40
 4071 0686 17       		.uleb128 0x17
 4072 0687 78020000 		.4byte	.LASF95
 4073 068b 0C       		.byte	0xc
ARM GAS  C:\Users\srich\AppData\Local\Temp\cc7Prgoh.s 			page 73


 4074 068c 6A04     		.2byte	0x46a
 4075 068e 81030000 		.4byte	0x381
 4076 0692 02       		.byte	0x2
 4077 0693 23       		.byte	0x23
 4078 0694 44       		.uleb128 0x44
 4079 0695 17       		.uleb128 0x17
 4080 0696 43030000 		.4byte	.LASF96
 4081 069a 0C       		.byte	0xc
 4082 069b 6B04     		.2byte	0x46b
 4083 069d 69050000 		.4byte	0x569
 4084 06a1 02       		.byte	0x2
 4085 06a2 23       		.byte	0x23
 4086 06a3 48       		.uleb128 0x48
 4087 06a4 17       		.uleb128 0x17
 4088 06a5 8E020000 		.4byte	.LASF97
 4089 06a9 0C       		.byte	0xc
 4090 06aa 6C04     		.2byte	0x46c
 4091 06ac 81030000 		.4byte	0x381
 4092 06b0 02       		.byte	0x2
 4093 06b1 23       		.byte	0x23
 4094 06b2 50       		.uleb128 0x50
 4095 06b3 17       		.uleb128 0x17
 4096 06b4 77010000 		.4byte	.LASF98
 4097 06b8 0C       		.byte	0xc
 4098 06b9 6D04     		.2byte	0x46d
 4099 06bb 81030000 		.4byte	0x381
 4100 06bf 02       		.byte	0x2
 4101 06c0 23       		.byte	0x23
 4102 06c1 54       		.uleb128 0x54
 4103 06c2 17       		.uleb128 0x17
 4104 06c3 0D0B0000 		.4byte	.LASF99
 4105 06c7 0C       		.byte	0xc
 4106 06c8 6E04     		.2byte	0x46e
 4107 06ca 81030000 		.4byte	0x381
 4108 06ce 02       		.byte	0x2
 4109 06cf 23       		.byte	0x23
 4110 06d0 58       		.uleb128 0x58
 4111 06d1 17       		.uleb128 0x17
 4112 06d2 4D030000 		.4byte	.LASF100
 4113 06d6 0C       		.byte	0xc
 4114 06d7 6F04     		.2byte	0x46f
 4115 06d9 B2000000 		.4byte	0xb2
 4116 06dd 02       		.byte	0x2
 4117 06de 23       		.byte	0x23
 4118 06df 5C       		.uleb128 0x5c
 4119 06e0 17       		.uleb128 0x17
 4120 06e1 00090000 		.4byte	.LASF101
 4121 06e5 0C       		.byte	0xc
 4122 06e6 7004     		.2byte	0x470
 4123 06e8 81030000 		.4byte	0x381
 4124 06ec 02       		.byte	0x2
 4125 06ed 23       		.byte	0x23
 4126 06ee 60       		.uleb128 0x60
 4127 06ef 17       		.uleb128 0x17
 4128 06f0 DE070000 		.4byte	.LASF102
 4129 06f4 0C       		.byte	0xc
 4130 06f5 7104     		.2byte	0x471
ARM GAS  C:\Users\srich\AppData\Local\Temp\cc7Prgoh.s 			page 74


 4131 06f7 81030000 		.4byte	0x381
 4132 06fb 02       		.byte	0x2
 4133 06fc 23       		.byte	0x23
 4134 06fd 64       		.uleb128 0x64
 4135 06fe 17       		.uleb128 0x17
 4136 06ff D2030000 		.4byte	.LASF103
 4137 0703 0C       		.byte	0xc
 4138 0704 7204     		.2byte	0x472
 4139 0706 69050000 		.4byte	0x569
 4140 070a 02       		.byte	0x2
 4141 070b 23       		.byte	0x23
 4142 070c 68       		.uleb128 0x68
 4143 070d 17       		.uleb128 0x17
 4144 070e FE040000 		.4byte	.LASF104
 4145 0712 0C       		.byte	0xc
 4146 0713 7304     		.2byte	0x473
 4147 0715 81030000 		.4byte	0x381
 4148 0719 02       		.byte	0x2
 4149 071a 23       		.byte	0x23
 4150 071b 70       		.uleb128 0x70
 4151 071c 0D       		.uleb128 0xd
 4152 071d 43535200 		.ascii	"CSR\000"
 4153 0721 0C       		.byte	0xc
 4154 0722 7404     		.2byte	0x474
 4155 0724 81030000 		.4byte	0x381
 4156 0728 02       		.byte	0x2
 4157 0729 23       		.byte	0x23
 4158 072a 74       		.uleb128 0x74
 4159 072b 17       		.uleb128 0x17
 4160 072c 5E030000 		.4byte	.LASF105
 4161 0730 0C       		.byte	0xc
 4162 0731 7504     		.2byte	0x475
 4163 0733 69050000 		.4byte	0x569
 4164 0737 02       		.byte	0x2
 4165 0738 23       		.byte	0x23
 4166 0739 78       		.uleb128 0x78
 4167 073a 17       		.uleb128 0x17
 4168 073b 49070000 		.4byte	.LASF106
 4169 073f 0C       		.byte	0xc
 4170 0740 7604     		.2byte	0x476
 4171 0742 81030000 		.4byte	0x381
 4172 0746 03       		.byte	0x3
 4173 0747 23       		.byte	0x23
 4174 0748 8001     		.uleb128 0x80
 4175 074a 17       		.uleb128 0x17
 4176 074b 2C000000 		.4byte	.LASF107
 4177 074f 0C       		.byte	0xc
 4178 0750 7704     		.2byte	0x477
 4179 0752 81030000 		.4byte	0x381
 4180 0756 03       		.byte	0x3
 4181 0757 23       		.byte	0x23
 4182 0758 8401     		.uleb128 0x84
 4183 075a 17       		.uleb128 0x17
 4184 075b 970D0000 		.4byte	.LASF108
 4185 075f 0C       		.byte	0xc
 4186 0760 7804     		.2byte	0x478
 4187 0762 81030000 		.4byte	0x381
ARM GAS  C:\Users\srich\AppData\Local\Temp\cc7Prgoh.s 			page 75


 4188 0766 03       		.byte	0x3
 4189 0767 23       		.byte	0x23
 4190 0768 8801     		.uleb128 0x88
 4191 076a 17       		.uleb128 0x17
 4192 076b A0020000 		.4byte	.LASF109
 4193 076f 0C       		.byte	0xc
 4194 0770 7904     		.2byte	0x479
 4195 0772 81030000 		.4byte	0x381
 4196 0776 03       		.byte	0x3
 4197 0777 23       		.byte	0x23
 4198 0778 8C01     		.uleb128 0x8c
 4199 077a 00       		.byte	0
 4200 077b 18       		.uleb128 0x18
 4201 077c E40B0000 		.4byte	.LASF110
 4202 0780 0C       		.byte	0xc
 4203 0781 7B04     		.2byte	0x47b
 4204 0783 8E050000 		.4byte	0x58e
 4205 0787 18       		.uleb128 0x18
 4206 0788 AF0B0000 		.4byte	.LASF111
 4207 078c 0D       		.byte	0xd
 4208 078d C006     		.2byte	0x6c0
 4209 078f B2000000 		.4byte	0xb2
 4210 0793 05       		.uleb128 0x5
 4211 0794 04       		.byte	0x4
 4212 0795 81030000 		.4byte	0x381
 4213 0799 14       		.uleb128 0x14
 4214 079a 91000000 		.4byte	0x91
 4215 079e A9070000 		.4byte	0x7a9
 4216 07a2 15       		.uleb128 0x15
 4217 07a3 64000000 		.4byte	0x64
 4218 07a7 07       		.byte	0x7
 4219 07a8 00       		.byte	0
 4220 07a9 07       		.uleb128 0x7
 4221 07aa F6080000 		.4byte	.LASF112
 4222 07ae 0E       		.byte	0xe
 4223 07af E9       		.byte	0xe9
 4224 07b0 B4070000 		.4byte	0x7b4
 4225 07b4 19       		.uleb128 0x19
 4226 07b5 F6080000 		.4byte	.LASF112
 4227 07b9 B801     		.2byte	0x1b8
 4228 07bb 0F       		.byte	0xf
 4229 07bc 7701     		.2byte	0x177
 4230 07be 0D090000 		.4byte	0x90d
 4231 07c2 17       		.uleb128 0x17
 4232 07c3 0F010000 		.4byte	.LASF113
 4233 07c7 0F       		.byte	0xf
 4234 07c8 7B01     		.2byte	0x17b
 4235 07ca 3F090000 		.4byte	0x93f
 4236 07ce 02       		.byte	0x2
 4237 07cf 23       		.byte	0x23
 4238 07d0 00       		.uleb128 0
 4239 07d1 17       		.uleb128 0x17
 4240 07d2 08010000 		.4byte	.LASF114
 4241 07d6 0F       		.byte	0xf
 4242 07d7 7F01     		.2byte	0x17f
 4243 07d9 6C130000 		.4byte	0x136c
 4244 07dd 02       		.byte	0x2
ARM GAS  C:\Users\srich\AppData\Local\Temp\cc7Prgoh.s 			page 76


 4245 07de 23       		.byte	0x23
 4246 07df 04       		.uleb128 0x4
 4247 07e0 17       		.uleb128 0x17
 4248 07e1 C5040000 		.4byte	.LASF115
 4249 07e5 0F       		.byte	0xf
 4250 07e6 8301     		.2byte	0x183
 4251 07e8 9C000000 		.4byte	0x9c
 4252 07ec 02       		.byte	0x2
 4253 07ed 23       		.byte	0x23
 4254 07ee 08       		.uleb128 0x8
 4255 07ef 17       		.uleb128 0x17
 4256 07f0 21040000 		.4byte	.LASF116
 4257 07f4 0F       		.byte	0xf
 4258 07f5 8701     		.2byte	0x187
 4259 07f7 9C000000 		.4byte	0x9c
 4260 07fb 02       		.byte	0x2
 4261 07fc 23       		.byte	0x23
 4262 07fd 0A       		.uleb128 0xa
 4263 07fe 0D       		.uleb128 0xd
 4264 07ff 65706300 		.ascii	"epc\000"
 4265 0803 0F       		.byte	0xf
 4266 0804 8B01     		.2byte	0x18b
 4267 0806 77130000 		.4byte	0x1377
 4268 080a 02       		.byte	0x2
 4269 080b 23       		.byte	0x23
 4270 080c 0C       		.uleb128 0xc
 4271 080d 17       		.uleb128 0x17
 4272 080e A50B0000 		.4byte	.LASF117
 4273 0812 0F       		.byte	0xf
 4274 0813 9201     		.2byte	0x192
 4275 0815 92130000 		.4byte	0x1392
 4276 0819 02       		.byte	0x2
 4277 081a 23       		.byte	0x23
 4278 081b 1C       		.uleb128 0x1c
 4279 081c 17       		.uleb128 0x17
 4280 081d 0B0E0000 		.4byte	.LASF118
 4281 0821 0F       		.byte	0xf
 4282 0822 9901     		.2byte	0x199
 4283 0824 92130000 		.4byte	0x1392
 4284 0828 02       		.byte	0x2
 4285 0829 23       		.byte	0x23
 4286 082a 28       		.uleb128 0x28
 4287 082b 17       		.uleb128 0x17
 4288 082c 7B030000 		.4byte	.LASF119
 4289 0830 0F       		.byte	0xf
 4290 0831 9D01     		.2byte	0x19d
 4291 0833 A5090000 		.4byte	0x9a5
 4292 0837 02       		.byte	0x2
 4293 0838 23       		.byte	0x23
 4294 0839 34       		.uleb128 0x34
 4295 083a 17       		.uleb128 0x17
 4296 083b 4F070000 		.4byte	.LASF120
 4297 083f 0F       		.byte	0xf
 4298 0840 A101     		.2byte	0x1a1
 4299 0842 42050000 		.4byte	0x542
 4300 0846 02       		.byte	0x2
 4301 0847 23       		.byte	0x23
ARM GAS  C:\Users\srich\AppData\Local\Temp\cc7Prgoh.s 			page 77


 4302 0848 38       		.uleb128 0x38
 4303 0849 17       		.uleb128 0x17
 4304 084a 07040000 		.4byte	.LASF121
 4305 084e 0F       		.byte	0xf
 4306 084f A501     		.2byte	0x1a5
 4307 0851 86000000 		.4byte	0x86
 4308 0855 02       		.byte	0x2
 4309 0856 23       		.byte	0x23
 4310 0857 3C       		.uleb128 0x3c
 4311 0858 17       		.uleb128 0x17
 4312 0859 23060000 		.4byte	.LASF122
 4313 085d 0F       		.byte	0xf
 4314 085e A901     		.2byte	0x1a9
 4315 0860 1F0A0000 		.4byte	0xa1f
 4316 0864 02       		.byte	0x2
 4317 0865 23       		.byte	0x23
 4318 0866 40       		.uleb128 0x40
 4319 0867 17       		.uleb128 0x17
 4320 0868 45050000 		.4byte	.LASF123
 4321 086c 0F       		.byte	0xf
 4322 086d AD01     		.2byte	0x1ad
 4323 086f 99070000 		.4byte	0x799
 4324 0873 02       		.byte	0x2
 4325 0874 23       		.byte	0x23
 4326 0875 44       		.uleb128 0x44
 4327 0876 17       		.uleb128 0x17
 4328 0877 14060000 		.4byte	.LASF124
 4329 087b 0F       		.byte	0xf
 4330 087c B101     		.2byte	0x1b1
 4331 087e 9C000000 		.4byte	0x9c
 4332 0882 02       		.byte	0x2
 4333 0883 23       		.byte	0x23
 4334 0884 4C       		.uleb128 0x4c
 4335 0885 17       		.uleb128 0x17
 4336 0886 1B060000 		.4byte	.LASF125
 4337 088a 0F       		.byte	0xf
 4338 088b B501     		.2byte	0x1b5
 4339 088d 91000000 		.4byte	0x91
 4340 0891 02       		.byte	0x2
 4341 0892 23       		.byte	0x23
 4342 0893 4E       		.uleb128 0x4e
 4343 0894 17       		.uleb128 0x17
 4344 0895 A1050000 		.4byte	.LASF126
 4345 0899 0F       		.byte	0xf
 4346 089a B901     		.2byte	0x1b9
 4347 089c 91000000 		.4byte	0x91
 4348 08a0 02       		.byte	0x2
 4349 08a1 23       		.byte	0x23
 4350 08a2 4F       		.uleb128 0x4f
 4351 08a3 0D       		.uleb128 0xd
 4352 08a4 6F746700 		.ascii	"otg\000"
 4353 08a8 0F       		.byte	0xf
 4354 08a9 C101     		.2byte	0x1c1
 4355 08ab A2130000 		.4byte	0x13a2
 4356 08af 02       		.byte	0x2
 4357 08b0 23       		.byte	0x23
 4358 08b1 50       		.uleb128 0x50
ARM GAS  C:\Users\srich\AppData\Local\Temp\cc7Prgoh.s 			page 78


 4359 08b2 17       		.uleb128 0x17
 4360 08b3 E0090000 		.4byte	.LASF127
 4361 08b7 0F       		.byte	0xf
 4362 08b8 C501     		.2byte	0x1c5
 4363 08ba A8130000 		.4byte	0x13a8
 4364 08be 02       		.byte	0x2
 4365 08bf 23       		.byte	0x23
 4366 08c0 54       		.uleb128 0x54
 4367 08c1 17       		.uleb128 0x17
 4368 08c2 980E0000 		.4byte	.LASF128
 4369 08c6 0F       		.byte	0xf
 4370 08c7 C901     		.2byte	0x1c9
 4371 08c9 B2000000 		.4byte	0xb2
 4372 08cd 02       		.byte	0x2
 4373 08ce 23       		.byte	0x23
 4374 08cf 58       		.uleb128 0x58
 4375 08d0 17       		.uleb128 0x17
 4376 08d1 5C080000 		.4byte	.LASF129
 4377 08d5 0F       		.byte	0xf
 4378 08d6 CD01     		.2byte	0x1cd
 4379 08d8 B2000000 		.4byte	0xb2
 4380 08dc 02       		.byte	0x2
 4381 08dd 23       		.byte	0x23
 4382 08de 5C       		.uleb128 0x5c
 4383 08df 17       		.uleb128 0x17
 4384 08e0 64060000 		.4byte	.LASF130
 4385 08e4 0F       		.byte	0xf
 4386 08e5 D101     		.2byte	0x1d1
 4387 08e7 87020000 		.4byte	0x287
 4388 08eb 02       		.byte	0x2
 4389 08ec 23       		.byte	0x23
 4390 08ed 60       		.uleb128 0x60
 4391 08ee 17       		.uleb128 0x17
 4392 08ef 07020000 		.4byte	.LASF131
 4393 08f3 0F       		.byte	0xf
 4394 08f4 D501     		.2byte	0x1d5
 4395 08f6 87020000 		.4byte	0x287
 4396 08fa 02       		.byte	0x2
 4397 08fb 23       		.byte	0x23
 4398 08fc 64       		.uleb128 0x64
 4399 08fd 17       		.uleb128 0x17
 4400 08fe 9D0B0000 		.4byte	.LASF132
 4401 0902 0F       		.byte	0xf
 4402 0903 D901     		.2byte	0x1d9
 4403 0905 B3130000 		.4byte	0x13b3
 4404 0909 02       		.byte	0x2
 4405 090a 23       		.byte	0x23
 4406 090b 68       		.uleb128 0x68
 4407 090c 00       		.byte	0
 4408 090d 07       		.uleb128 0x7
 4409 090e 700D0000 		.4byte	.LASF133
 4410 0912 0E       		.byte	0xe
 4411 0913 EE       		.byte	0xee
 4412 0914 91000000 		.4byte	0x91
 4413 0918 1A       		.uleb128 0x1a
 4414 0919 01       		.byte	0x1
 4415 091a 0E       		.byte	0xe
ARM GAS  C:\Users\srich\AppData\Local\Temp\cc7Prgoh.s 			page 79


 4416 091b F3       		.byte	0xf3
 4417 091c 3F090000 		.4byte	0x93f
 4418 0920 1B       		.uleb128 0x1b
 4419 0921 0E050000 		.4byte	.LASF134
 4420 0925 00       		.sleb128 0
 4421 0926 1B       		.uleb128 0x1b
 4422 0927 13090000 		.4byte	.LASF135
 4423 092b 01       		.sleb128 1
 4424 092c 1B       		.uleb128 0x1b
 4425 092d 37070000 		.4byte	.LASF136
 4426 0931 02       		.sleb128 2
 4427 0932 1B       		.uleb128 0x1b
 4428 0933 94050000 		.4byte	.LASF137
 4429 0937 03       		.sleb128 3
 4430 0938 1B       		.uleb128 0x1b
 4431 0939 1D010000 		.4byte	.LASF138
 4432 093d 04       		.sleb128 4
 4433 093e 00       		.byte	0
 4434 093f 07       		.uleb128 0x7
 4435 0940 72060000 		.4byte	.LASF139
 4436 0944 0E       		.byte	0xe
 4437 0945 F9       		.byte	0xf9
 4438 0946 18090000 		.4byte	0x918
 4439 094a 1A       		.uleb128 0x1a
 4440 094b 01       		.byte	0x1
 4441 094c 0E       		.byte	0xe
 4442 094d FE       		.byte	0xfe
 4443 094e 65090000 		.4byte	0x965
 4444 0952 1B       		.uleb128 0x1b
 4445 0953 160E0000 		.4byte	.LASF140
 4446 0957 00       		.sleb128 0
 4447 0958 1B       		.uleb128 0x1b
 4448 0959 B7050000 		.4byte	.LASF141
 4449 095d 01       		.sleb128 1
 4450 095e 1B       		.uleb128 0x1b
 4451 095f D8020000 		.4byte	.LASF142
 4452 0963 02       		.sleb128 2
 4453 0964 00       		.byte	0
 4454 0965 18       		.uleb128 0x18
 4455 0966 81010000 		.4byte	.LASF143
 4456 096a 0E       		.byte	0xe
 4457 096b 0201     		.2byte	0x102
 4458 096d 4A090000 		.4byte	0x94a
 4459 0971 1C       		.uleb128 0x1c
 4460 0972 01       		.byte	0x1
 4461 0973 0E       		.byte	0xe
 4462 0974 0701     		.2byte	0x107
 4463 0976 A5090000 		.4byte	0x9a5
 4464 097a 1B       		.uleb128 0x1b
 4465 097b 5A020000 		.4byte	.LASF144
 4466 097f 00       		.sleb128 0
 4467 0980 1B       		.uleb128 0x1b
 4468 0981 D8000000 		.4byte	.LASF145
 4469 0985 01       		.sleb128 1
 4470 0986 1B       		.uleb128 0x1b
 4471 0987 CC090000 		.4byte	.LASF146
 4472 098b 02       		.sleb128 2
ARM GAS  C:\Users\srich\AppData\Local\Temp\cc7Prgoh.s 			page 80


 4473 098c 1B       		.uleb128 0x1b
 4474 098d 650E0000 		.4byte	.LASF147
 4475 0991 03       		.sleb128 3
 4476 0992 1B       		.uleb128 0x1b
 4477 0993 BE0E0000 		.4byte	.LASF148
 4478 0997 04       		.sleb128 4
 4479 0998 1B       		.uleb128 0x1b
 4480 0999 420E0000 		.4byte	.LASF149
 4481 099d 05       		.sleb128 5
 4482 099e 1B       		.uleb128 0x1b
 4483 099f 8B060000 		.4byte	.LASF150
 4484 09a3 06       		.sleb128 6
 4485 09a4 00       		.byte	0
 4486 09a5 18       		.uleb128 0x18
 4487 09a6 5C010000 		.4byte	.LASF151
 4488 09aa 0E       		.byte	0xe
 4489 09ab 0F01     		.2byte	0x10f
 4490 09ad 71090000 		.4byte	0x971
 4491 09b1 1C       		.uleb128 0x1c
 4492 09b2 01       		.byte	0x1
 4493 09b3 0E       		.byte	0xe
 4494 09b4 1401     		.2byte	0x114
 4495 09b6 DF090000 		.4byte	0x9df
 4496 09ba 1B       		.uleb128 0x1b
 4497 09bb 2E0C0000 		.4byte	.LASF152
 4498 09bf 00       		.sleb128 0
 4499 09c0 1B       		.uleb128 0x1b
 4500 09c1 98010000 		.4byte	.LASF153
 4501 09c5 01       		.sleb128 1
 4502 09c6 1B       		.uleb128 0x1b
 4503 09c7 470B0000 		.4byte	.LASF154
 4504 09cb 02       		.sleb128 2
 4505 09cc 1B       		.uleb128 0x1b
 4506 09cd 850D0000 		.4byte	.LASF155
 4507 09d1 03       		.sleb128 3
 4508 09d2 1B       		.uleb128 0x1b
 4509 09d3 F5060000 		.4byte	.LASF156
 4510 09d7 04       		.sleb128 4
 4511 09d8 1B       		.uleb128 0x1b
 4512 09d9 C6020000 		.4byte	.LASF157
 4513 09dd 05       		.sleb128 5
 4514 09de 00       		.byte	0
 4515 09df 18       		.uleb128 0x18
 4516 09e0 65050000 		.4byte	.LASF158
 4517 09e4 0E       		.byte	0xe
 4518 09e5 1B01     		.2byte	0x11b
 4519 09e7 B1090000 		.4byte	0x9b1
 4520 09eb 16       		.uleb128 0x16
 4521 09ec 08       		.byte	0x8
 4522 09ed 0E       		.byte	0xe
 4523 09ee 2001     		.2byte	0x120
 4524 09f0 130A0000 		.4byte	0xa13
 4525 09f4 17       		.uleb128 0x17
 4526 09f5 79050000 		.4byte	.LASF159
 4527 09f9 0E       		.byte	0xe
 4528 09fa 2401     		.2byte	0x124
 4529 09fc 86000000 		.4byte	0x86
ARM GAS  C:\Users\srich\AppData\Local\Temp\cc7Prgoh.s 			page 81


 4530 0a00 02       		.byte	0x2
 4531 0a01 23       		.byte	0x23
 4532 0a02 00       		.uleb128 0
 4533 0a03 17       		.uleb128 0x17
 4534 0a04 57040000 		.4byte	.LASF160
 4535 0a08 0E       		.byte	0xe
 4536 0a09 2801     		.2byte	0x128
 4537 0a0b 5E050000 		.4byte	0x55e
 4538 0a0f 02       		.byte	0x2
 4539 0a10 23       		.byte	0x23
 4540 0a11 04       		.uleb128 0x4
 4541 0a12 00       		.byte	0
 4542 0a13 18       		.uleb128 0x18
 4543 0a14 24050000 		.4byte	.LASF161
 4544 0a18 0E       		.byte	0xe
 4545 0a19 2901     		.2byte	0x129
 4546 0a1b EB090000 		.4byte	0x9eb
 4547 0a1f 18       		.uleb128 0x18
 4548 0a20 CC0C0000 		.4byte	.LASF162
 4549 0a24 0E       		.byte	0xe
 4550 0a25 3101     		.2byte	0x131
 4551 0a27 2B0A0000 		.4byte	0xa2b
 4552 0a2b 05       		.uleb128 0x5
 4553 0a2c 04       		.byte	0x4
 4554 0a2d 310A0000 		.4byte	0xa31
 4555 0a31 13       		.uleb128 0x13
 4556 0a32 01       		.byte	0x1
 4557 0a33 3D0A0000 		.4byte	0xa3d
 4558 0a37 12       		.uleb128 0x12
 4559 0a38 3D0A0000 		.4byte	0xa3d
 4560 0a3c 00       		.byte	0
 4561 0a3d 05       		.uleb128 0x5
 4562 0a3e 04       		.byte	0x4
 4563 0a3f A9070000 		.4byte	0x7a9
 4564 0a43 18       		.uleb128 0x18
 4565 0a44 A7070000 		.4byte	.LASF163
 4566 0a48 0E       		.byte	0xe
 4567 0a49 3A01     		.2byte	0x13a
 4568 0a4b 4F0A0000 		.4byte	0xa4f
 4569 0a4f 05       		.uleb128 0x5
 4570 0a50 04       		.byte	0x4
 4571 0a51 550A0000 		.4byte	0xa55
 4572 0a55 13       		.uleb128 0x13
 4573 0a56 01       		.byte	0x1
 4574 0a57 660A0000 		.4byte	0xa66
 4575 0a5b 12       		.uleb128 0x12
 4576 0a5c 3D0A0000 		.4byte	0xa3d
 4577 0a60 12       		.uleb128 0x12
 4578 0a61 0D090000 		.4byte	0x90d
 4579 0a65 00       		.byte	0
 4580 0a66 18       		.uleb128 0x18
 4581 0a67 96040000 		.4byte	.LASF164
 4582 0a6b 0E       		.byte	0xe
 4583 0a6c 4301     		.2byte	0x143
 4584 0a6e 720A0000 		.4byte	0xa72
 4585 0a72 05       		.uleb128 0x5
 4586 0a73 04       		.byte	0x4
ARM GAS  C:\Users\srich\AppData\Local\Temp\cc7Prgoh.s 			page 82


 4587 0a74 780A0000 		.4byte	0xa78
 4588 0a78 13       		.uleb128 0x13
 4589 0a79 01       		.byte	0x1
 4590 0a7a 890A0000 		.4byte	0xa89
 4591 0a7e 12       		.uleb128 0x12
 4592 0a7f 3D0A0000 		.4byte	0xa3d
 4593 0a83 12       		.uleb128 0x12
 4594 0a84 DF090000 		.4byte	0x9df
 4595 0a88 00       		.byte	0
 4596 0a89 18       		.uleb128 0x18
 4597 0a8a B40C0000 		.4byte	.LASF165
 4598 0a8e 0E       		.byte	0xe
 4599 0a8f 4F01     		.2byte	0x14f
 4600 0a91 950A0000 		.4byte	0xa95
 4601 0a95 05       		.uleb128 0x5
 4602 0a96 04       		.byte	0x4
 4603 0a97 9B0A0000 		.4byte	0xa9b
 4604 0a9b 11       		.uleb128 0x11
 4605 0a9c 01       		.byte	0x1
 4606 0a9d C8000000 		.4byte	0xc8
 4607 0aa1 AB0A0000 		.4byte	0xaab
 4608 0aa5 12       		.uleb128 0x12
 4609 0aa6 3D0A0000 		.4byte	0xa3d
 4610 0aaa 00       		.byte	0
 4611 0aab 18       		.uleb128 0x18
 4612 0aac 8A0B0000 		.4byte	.LASF166
 4613 0ab0 0E       		.byte	0xe
 4614 0ab1 5401     		.2byte	0x154
 4615 0ab3 B70A0000 		.4byte	0xab7
 4616 0ab7 05       		.uleb128 0x5
 4617 0ab8 04       		.byte	0x4
 4618 0ab9 BD0A0000 		.4byte	0xabd
 4619 0abd 11       		.uleb128 0x11
 4620 0abe 01       		.byte	0x1
 4621 0abf DC0A0000 		.4byte	0xadc
 4622 0ac3 DC0A0000 		.4byte	0xadc
 4623 0ac7 12       		.uleb128 0x12
 4624 0ac8 3D0A0000 		.4byte	0xa3d
 4625 0acc 12       		.uleb128 0x12
 4626 0acd 91000000 		.4byte	0x91
 4627 0ad1 12       		.uleb128 0x12
 4628 0ad2 91000000 		.4byte	0x91
 4629 0ad6 12       		.uleb128 0x12
 4630 0ad7 9C000000 		.4byte	0x9c
 4631 0adb 00       		.byte	0
 4632 0adc 05       		.uleb128 0x5
 4633 0add 04       		.byte	0x4
 4634 0ade E20A0000 		.4byte	0xae2
 4635 0ae2 06       		.uleb128 0x6
 4636 0ae3 130A0000 		.4byte	0xa13
 4637 0ae7 0B       		.uleb128 0xb
 4638 0ae8 20       		.byte	0x20
 4639 0ae9 10       		.byte	0x10
 4640 0aea 35       		.byte	0x35
 4641 0aeb 600B0000 		.4byte	0xb60
 4642 0aef 09       		.uleb128 0x9
 4643 0af0 CB030000 		.4byte	.LASF167
ARM GAS  C:\Users\srich\AppData\Local\Temp\cc7Prgoh.s 			page 83


 4644 0af4 10       		.byte	0x10
 4645 0af5 36       		.byte	0x36
 4646 0af6 81030000 		.4byte	0x381
 4647 0afa 02       		.byte	0x2
 4648 0afb 23       		.byte	0x23
 4649 0afc 00       		.uleb128 0
 4650 0afd 09       		.uleb128 0x9
 4651 0afe 65000000 		.4byte	.LASF168
 4652 0b02 10       		.byte	0x10
 4653 0b03 38       		.byte	0x38
 4654 0b04 81030000 		.4byte	0x381
 4655 0b08 02       		.byte	0x2
 4656 0b09 23       		.byte	0x23
 4657 0b0a 04       		.uleb128 0x4
 4658 0b0b 09       		.uleb128 0x9
 4659 0b0c 790A0000 		.4byte	.LASF169
 4660 0b10 10       		.byte	0x10
 4661 0b11 39       		.byte	0x39
 4662 0b12 81030000 		.4byte	0x381
 4663 0b16 02       		.byte	0x2
 4664 0b17 23       		.byte	0x23
 4665 0b18 08       		.uleb128 0x8
 4666 0b19 09       		.uleb128 0x9
 4667 0b1a A30A0000 		.4byte	.LASF170
 4668 0b1e 10       		.byte	0x10
 4669 0b1f 3A       		.byte	0x3a
 4670 0b20 81030000 		.4byte	0x381
 4671 0b24 02       		.byte	0x2
 4672 0b25 23       		.byte	0x23
 4673 0b26 0C       		.uleb128 0xc
 4674 0b27 09       		.uleb128 0x9
 4675 0b28 D2040000 		.4byte	.LASF171
 4676 0b2c 10       		.byte	0x10
 4677 0b2d 3C       		.byte	0x3c
 4678 0b2e 81030000 		.4byte	0x381
 4679 0b32 02       		.byte	0x2
 4680 0b33 23       		.byte	0x23
 4681 0b34 10       		.uleb128 0x10
 4682 0b35 09       		.uleb128 0x9
 4683 0b36 3E0C0000 		.4byte	.LASF172
 4684 0b3a 10       		.byte	0x10
 4685 0b3b 3E       		.byte	0x3e
 4686 0b3c 81030000 		.4byte	0x381
 4687 0b40 02       		.byte	0x2
 4688 0b41 23       		.byte	0x23
 4689 0b42 14       		.uleb128 0x14
 4690 0b43 09       		.uleb128 0x9
 4691 0b44 460C0000 		.4byte	.LASF173
 4692 0b48 10       		.byte	0x10
 4693 0b49 3F       		.byte	0x3f
 4694 0b4a 81030000 		.4byte	0x381
 4695 0b4e 02       		.byte	0x2
 4696 0b4f 23       		.byte	0x23
 4697 0b50 18       		.uleb128 0x18
 4698 0b51 09       		.uleb128 0x9
 4699 0b52 AC0C0000 		.4byte	.LASF174
 4700 0b56 10       		.byte	0x10
ARM GAS  C:\Users\srich\AppData\Local\Temp\cc7Prgoh.s 			page 84


 4701 0b57 40       		.byte	0x40
 4702 0b58 81030000 		.4byte	0x381
 4703 0b5c 02       		.byte	0x2
 4704 0b5d 23       		.byte	0x23
 4705 0b5e 1C       		.uleb128 0x1c
 4706 0b5f 00       		.byte	0
 4707 0b60 07       		.uleb128 0x7
 4708 0b61 B0040000 		.4byte	.LASF175
 4709 0b65 10       		.byte	0x10
 4710 0b66 41       		.byte	0x41
 4711 0b67 E70A0000 		.4byte	0xae7
 4712 0b6b 0B       		.uleb128 0xb
 4713 0b6c 20       		.byte	0x20
 4714 0b6d 10       		.byte	0x10
 4715 0b6e 46       		.byte	0x46
 4716 0b6f E40B0000 		.4byte	0xbe4
 4717 0b73 09       		.uleb128 0x9
 4718 0b74 C40C0000 		.4byte	.LASF176
 4719 0b78 10       		.byte	0x10
 4720 0b79 47       		.byte	0x47
 4721 0b7a 81030000 		.4byte	0x381
 4722 0b7e 02       		.byte	0x2
 4723 0b7f 23       		.byte	0x23
 4724 0b80 00       		.uleb128 0
 4725 0b81 09       		.uleb128 0x9
 4726 0b82 5E000000 		.4byte	.LASF177
 4727 0b86 10       		.byte	0x10
 4728 0b87 49       		.byte	0x49
 4729 0b88 81030000 		.4byte	0x381
 4730 0b8c 02       		.byte	0x2
 4731 0b8d 23       		.byte	0x23
 4732 0b8e 04       		.uleb128 0x4
 4733 0b8f 09       		.uleb128 0x9
 4734 0b90 110D0000 		.4byte	.LASF178
 4735 0b94 10       		.byte	0x10
 4736 0b95 4A       		.byte	0x4a
 4737 0b96 81030000 		.4byte	0x381
 4738 0b9a 02       		.byte	0x2
 4739 0b9b 23       		.byte	0x23
 4740 0b9c 08       		.uleb128 0x8
 4741 0b9d 09       		.uleb128 0x9
 4742 0b9e 84000000 		.4byte	.LASF179
 4743 0ba2 10       		.byte	0x10
 4744 0ba3 4C       		.byte	0x4c
 4745 0ba4 81030000 		.4byte	0x381
 4746 0ba8 02       		.byte	0x2
 4747 0ba9 23       		.byte	0x23
 4748 0baa 0C       		.uleb128 0xc
 4749 0bab 09       		.uleb128 0x9
 4750 0bac 84030000 		.4byte	.LASF180
 4751 0bb0 10       		.byte	0x10
 4752 0bb1 4D       		.byte	0x4d
 4753 0bb2 81030000 		.4byte	0x381
 4754 0bb6 02       		.byte	0x2
 4755 0bb7 23       		.byte	0x23
 4756 0bb8 10       		.uleb128 0x10
 4757 0bb9 09       		.uleb128 0x9
ARM GAS  C:\Users\srich\AppData\Local\Temp\cc7Prgoh.s 			page 85


 4758 0bba 3E0C0000 		.4byte	.LASF172
 4759 0bbe 10       		.byte	0x10
 4760 0bbf 4F       		.byte	0x4f
 4761 0bc0 81030000 		.4byte	0x381
 4762 0bc4 02       		.byte	0x2
 4763 0bc5 23       		.byte	0x23
 4764 0bc6 14       		.uleb128 0x14
 4765 0bc7 09       		.uleb128 0x9
 4766 0bc8 4E0C0000 		.4byte	.LASF181
 4767 0bcc 10       		.byte	0x10
 4768 0bcd 50       		.byte	0x50
 4769 0bce 81030000 		.4byte	0x381
 4770 0bd2 02       		.byte	0x2
 4771 0bd3 23       		.byte	0x23
 4772 0bd4 18       		.uleb128 0x18
 4773 0bd5 09       		.uleb128 0x9
 4774 0bd6 690C0000 		.4byte	.LASF182
 4775 0bda 10       		.byte	0x10
 4776 0bdb 52       		.byte	0x52
 4777 0bdc 81030000 		.4byte	0x381
 4778 0be0 02       		.byte	0x2
 4779 0be1 23       		.byte	0x23
 4780 0be2 1C       		.uleb128 0x1c
 4781 0be3 00       		.byte	0
 4782 0be4 07       		.uleb128 0x7
 4783 0be5 200B0000 		.4byte	.LASF183
 4784 0be9 10       		.byte	0x10
 4785 0bea 53       		.byte	0x53
 4786 0beb 6B0B0000 		.4byte	0xb6b
 4787 0bef 0B       		.uleb128 0xb
 4788 0bf0 20       		.byte	0x20
 4789 0bf1 10       		.byte	0x10
 4790 0bf2 58       		.byte	0x58
 4791 0bf3 680C0000 		.4byte	0xc68
 4792 0bf7 09       		.uleb128 0x9
 4793 0bf8 98020000 		.4byte	.LASF184
 4794 0bfc 10       		.byte	0x10
 4795 0bfd 59       		.byte	0x59
 4796 0bfe 81030000 		.4byte	0x381
 4797 0c02 02       		.byte	0x2
 4798 0c03 23       		.byte	0x23
 4799 0c04 00       		.uleb128 0
 4800 0c05 09       		.uleb128 0x9
 4801 0c06 5E000000 		.4byte	.LASF177
 4802 0c0a 10       		.byte	0x10
 4803 0c0b 5B       		.byte	0x5b
 4804 0c0c 81030000 		.4byte	0x381
 4805 0c10 02       		.byte	0x2
 4806 0c11 23       		.byte	0x23
 4807 0c12 04       		.uleb128 0x4
 4808 0c13 09       		.uleb128 0x9
 4809 0c14 E9020000 		.4byte	.LASF185
 4810 0c18 10       		.byte	0x10
 4811 0c19 5C       		.byte	0x5c
 4812 0c1a 81030000 		.4byte	0x381
 4813 0c1e 02       		.byte	0x2
 4814 0c1f 23       		.byte	0x23
ARM GAS  C:\Users\srich\AppData\Local\Temp\cc7Prgoh.s 			page 86


 4815 0c20 08       		.uleb128 0x8
 4816 0c21 09       		.uleb128 0x9
 4817 0c22 84000000 		.4byte	.LASF179
 4818 0c26 10       		.byte	0x10
 4819 0c27 5E       		.byte	0x5e
 4820 0c28 81030000 		.4byte	0x381
 4821 0c2c 02       		.byte	0x2
 4822 0c2d 23       		.byte	0x23
 4823 0c2e 0C       		.uleb128 0xc
 4824 0c2f 09       		.uleb128 0x9
 4825 0c30 1F080000 		.4byte	.LASF186
 4826 0c34 10       		.byte	0x10
 4827 0c35 5F       		.byte	0x5f
 4828 0c36 81030000 		.4byte	0x381
 4829 0c3a 02       		.byte	0x2
 4830 0c3b 23       		.byte	0x23
 4831 0c3c 10       		.uleb128 0x10
 4832 0c3d 09       		.uleb128 0x9
 4833 0c3e 3E0C0000 		.4byte	.LASF172
 4834 0c42 10       		.byte	0x10
 4835 0c43 61       		.byte	0x61
 4836 0c44 81030000 		.4byte	0x381
 4837 0c48 02       		.byte	0x2
 4838 0c49 23       		.byte	0x23
 4839 0c4a 14       		.uleb128 0x14
 4840 0c4b 09       		.uleb128 0x9
 4841 0c4c 460C0000 		.4byte	.LASF173
 4842 0c50 10       		.byte	0x10
 4843 0c51 62       		.byte	0x62
 4844 0c52 81030000 		.4byte	0x381
 4845 0c56 02       		.byte	0x2
 4846 0c57 23       		.byte	0x23
 4847 0c58 18       		.uleb128 0x18
 4848 0c59 09       		.uleb128 0x9
 4849 0c5a 690C0000 		.4byte	.LASF182
 4850 0c5e 10       		.byte	0x10
 4851 0c5f 63       		.byte	0x63
 4852 0c60 81030000 		.4byte	0x381
 4853 0c64 02       		.byte	0x2
 4854 0c65 23       		.byte	0x23
 4855 0c66 1C       		.uleb128 0x1c
 4856 0c67 00       		.byte	0
 4857 0c68 07       		.uleb128 0x7
 4858 0c69 EF030000 		.4byte	.LASF187
 4859 0c6d 10       		.byte	0x10
 4860 0c6e 64       		.byte	0x64
 4861 0c6f EF0B0000 		.4byte	0xbef
 4862 0c73 1D       		.uleb128 0x1d
 4863 0c74 00100100 		.4byte	0x11000
 4864 0c78 10       		.byte	0x10
 4865 0c79 69       		.byte	0x69
 4866 0c7a C20F0000 		.4byte	0xfc2
 4867 0c7e 09       		.uleb128 0x9
 4868 0c7f B3060000 		.4byte	.LASF188
 4869 0c83 10       		.byte	0x10
 4870 0c84 6A       		.byte	0x6a
 4871 0c85 81030000 		.4byte	0x381
ARM GAS  C:\Users\srich\AppData\Local\Temp\cc7Prgoh.s 			page 87


 4872 0c89 02       		.byte	0x2
 4873 0c8a 23       		.byte	0x23
 4874 0c8b 00       		.uleb128 0
 4875 0c8c 09       		.uleb128 0x9
 4876 0c8d D70A0000 		.4byte	.LASF189
 4877 0c91 10       		.byte	0x10
 4878 0c92 6B       		.byte	0x6b
 4879 0c93 81030000 		.4byte	0x381
 4880 0c97 02       		.byte	0x2
 4881 0c98 23       		.byte	0x23
 4882 0c99 04       		.uleb128 0x4
 4883 0c9a 09       		.uleb128 0x9
 4884 0c9b 2C060000 		.4byte	.LASF190
 4885 0c9f 10       		.byte	0x10
 4886 0ca0 6C       		.byte	0x6c
 4887 0ca1 81030000 		.4byte	0x381
 4888 0ca5 02       		.byte	0x2
 4889 0ca6 23       		.byte	0x23
 4890 0ca7 08       		.uleb128 0x8
 4891 0ca8 09       		.uleb128 0x9
 4892 0ca9 B60E0000 		.4byte	.LASF191
 4893 0cad 10       		.byte	0x10
 4894 0cae 6D       		.byte	0x6d
 4895 0caf 81030000 		.4byte	0x381
 4896 0cb3 02       		.byte	0x2
 4897 0cb4 23       		.byte	0x23
 4898 0cb5 0C       		.uleb128 0xc
 4899 0cb6 09       		.uleb128 0x9
 4900 0cb7 5D050000 		.4byte	.LASF192
 4901 0cbb 10       		.byte	0x10
 4902 0cbc 6E       		.byte	0x6e
 4903 0cbd 81030000 		.4byte	0x381
 4904 0cc1 02       		.byte	0x2
 4905 0cc2 23       		.byte	0x23
 4906 0cc3 10       		.uleb128 0x10
 4907 0cc4 09       		.uleb128 0x9
 4908 0cc5 E10C0000 		.4byte	.LASF193
 4909 0cc9 10       		.byte	0x10
 4910 0cca 6F       		.byte	0x6f
 4911 0ccb 81030000 		.4byte	0x381
 4912 0ccf 02       		.byte	0x2
 4913 0cd0 23       		.byte	0x23
 4914 0cd1 14       		.uleb128 0x14
 4915 0cd2 09       		.uleb128 0x9
 4916 0cd3 27090000 		.4byte	.LASF194
 4917 0cd7 10       		.byte	0x10
 4918 0cd8 70       		.byte	0x70
 4919 0cd9 81030000 		.4byte	0x381
 4920 0cdd 02       		.byte	0x2
 4921 0cde 23       		.byte	0x23
 4922 0cdf 18       		.uleb128 0x18
 4923 0ce0 09       		.uleb128 0x9
 4924 0ce1 ED060000 		.4byte	.LASF195
 4925 0ce5 10       		.byte	0x10
 4926 0ce6 71       		.byte	0x71
 4927 0ce7 81030000 		.4byte	0x381
 4928 0ceb 02       		.byte	0x2
ARM GAS  C:\Users\srich\AppData\Local\Temp\cc7Prgoh.s 			page 88


 4929 0cec 23       		.byte	0x23
 4930 0ced 1C       		.uleb128 0x1c
 4931 0cee 09       		.uleb128 0x9
 4932 0cef DC060000 		.4byte	.LASF196
 4933 0cf3 10       		.byte	0x10
 4934 0cf4 73       		.byte	0x73
 4935 0cf5 81030000 		.4byte	0x381
 4936 0cf9 02       		.byte	0x2
 4937 0cfa 23       		.byte	0x23
 4938 0cfb 20       		.uleb128 0x20
 4939 0cfc 09       		.uleb128 0x9
 4940 0cfd AF050000 		.4byte	.LASF197
 4941 0d01 10       		.byte	0x10
 4942 0d02 75       		.byte	0x75
 4943 0d03 81030000 		.4byte	0x381
 4944 0d07 02       		.byte	0x2
 4945 0d08 23       		.byte	0x23
 4946 0d09 24       		.uleb128 0x24
 4947 0d0a 09       		.uleb128 0x9
 4948 0d0b AA010000 		.4byte	.LASF198
 4949 0d0f 10       		.byte	0x10
 4950 0d10 76       		.byte	0x76
 4951 0d11 81030000 		.4byte	0x381
 4952 0d15 02       		.byte	0x2
 4953 0d16 23       		.byte	0x23
 4954 0d17 28       		.uleb128 0x28
 4955 0d18 09       		.uleb128 0x9
 4956 0d19 190D0000 		.4byte	.LASF199
 4957 0d1d 10       		.byte	0x10
 4958 0d1e 78       		.byte	0x78
 4959 0d1f 81030000 		.4byte	0x381
 4960 0d23 02       		.byte	0x2
 4961 0d24 23       		.byte	0x23
 4962 0d25 2C       		.uleb128 0x2c
 4963 0d26 09       		.uleb128 0x9
 4964 0d27 400D0000 		.4byte	.LASF200
 4965 0d2b 10       		.byte	0x10
 4966 0d2c 7A       		.byte	0x7a
 4967 0d2d 81030000 		.4byte	0x381
 4968 0d31 02       		.byte	0x2
 4969 0d32 23       		.byte	0x23
 4970 0d33 30       		.uleb128 0x30
 4971 0d34 09       		.uleb128 0x9
 4972 0d35 510D0000 		.4byte	.LASF201
 4973 0d39 10       		.byte	0x10
 4974 0d3a 7B       		.byte	0x7b
 4975 0d3b 81030000 		.4byte	0x381
 4976 0d3f 02       		.byte	0x2
 4977 0d40 23       		.byte	0x23
 4978 0d41 34       		.uleb128 0x34
 4979 0d42 09       		.uleb128 0x9
 4980 0d43 75030000 		.4byte	.LASF202
 4981 0d47 10       		.byte	0x10
 4982 0d48 7C       		.byte	0x7c
 4983 0d49 81030000 		.4byte	0x381
 4984 0d4d 02       		.byte	0x2
 4985 0d4e 23       		.byte	0x23
ARM GAS  C:\Users\srich\AppData\Local\Temp\cc7Prgoh.s 			page 89


 4986 0d4f 38       		.uleb128 0x38
 4987 0d50 0A       		.uleb128 0xa
 4988 0d51 43494400 		.ascii	"CID\000"
 4989 0d55 10       		.byte	0x10
 4990 0d56 7D       		.byte	0x7d
 4991 0d57 81030000 		.4byte	0x381
 4992 0d5b 02       		.byte	0x2
 4993 0d5c 23       		.byte	0x23
 4994 0d5d 3C       		.uleb128 0x3c
 4995 0d5e 09       		.uleb128 0x9
 4996 0d5f 3A0E0000 		.4byte	.LASF203
 4997 0d63 10       		.byte	0x10
 4998 0d64 7E       		.byte	0x7e
 4999 0d65 D20F0000 		.4byte	0xfd2
 5000 0d69 02       		.byte	0x2
 5001 0d6a 23       		.byte	0x23
 5002 0d6b 40       		.uleb128 0x40
 5003 0d6c 09       		.uleb128 0x9
 5004 0d6d 450A0000 		.4byte	.LASF204
 5005 0d71 10       		.byte	0x10
 5006 0d72 7F       		.byte	0x7f
 5007 0d73 81030000 		.4byte	0x381
 5008 0d77 03       		.byte	0x3
 5009 0d78 23       		.byte	0x23
 5010 0d79 8002     		.uleb128 0x100
 5011 0d7b 09       		.uleb128 0x9
 5012 0d7c FA050000 		.4byte	.LASF205
 5013 0d80 10       		.byte	0x10
 5014 0d81 81       		.byte	0x81
 5015 0d82 D70F0000 		.4byte	0xfd7
 5016 0d86 03       		.byte	0x3
 5017 0d87 23       		.byte	0x23
 5018 0d88 8402     		.uleb128 0x104
 5019 0d8a 09       		.uleb128 0x9
 5020 0d8b C90E0000 		.4byte	.LASF206
 5021 0d8f 10       		.byte	0x10
 5022 0d90 83       		.byte	0x83
 5023 0d91 EC0F0000 		.4byte	0xfec
 5024 0d95 03       		.byte	0x3
 5025 0d96 23       		.byte	0x23
 5026 0d97 C002     		.uleb128 0x140
 5027 0d99 09       		.uleb128 0x9
 5028 0d9a C6030000 		.4byte	.LASF207
 5029 0d9e 10       		.byte	0x10
 5030 0d9f 84       		.byte	0x84
 5031 0da0 81030000 		.4byte	0x381
 5032 0da4 03       		.byte	0x3
 5033 0da5 23       		.byte	0x23
 5034 0da6 8008     		.uleb128 0x400
 5035 0da8 09       		.uleb128 0x9
 5036 0da9 600E0000 		.4byte	.LASF208
 5037 0dad 10       		.byte	0x10
 5038 0dae 85       		.byte	0x85
 5039 0daf 81030000 		.4byte	0x381
 5040 0db3 03       		.byte	0x3
 5041 0db4 23       		.byte	0x23
 5042 0db5 8408     		.uleb128 0x404
ARM GAS  C:\Users\srich\AppData\Local\Temp\cc7Prgoh.s 			page 90


 5043 0db7 09       		.uleb128 0x9
 5044 0db8 90040000 		.4byte	.LASF209
 5045 0dbc 10       		.byte	0x10
 5046 0dbd 86       		.byte	0x86
 5047 0dbe 81030000 		.4byte	0x381
 5048 0dc2 03       		.byte	0x3
 5049 0dc3 23       		.byte	0x23
 5050 0dc4 8808     		.uleb128 0x408
 5051 0dc6 09       		.uleb128 0x9
 5052 0dc7 99060000 		.4byte	.LASF210
 5053 0dcb 10       		.byte	0x10
 5054 0dcc 88       		.byte	0x88
 5055 0dcd 81030000 		.4byte	0x381
 5056 0dd1 03       		.byte	0x3
 5057 0dd2 23       		.byte	0x23
 5058 0dd3 8C08     		.uleb128 0x40c
 5059 0dd5 09       		.uleb128 0x9
 5060 0dd6 320E0000 		.4byte	.LASF211
 5061 0dda 10       		.byte	0x10
 5062 0ddb 89       		.byte	0x89
 5063 0ddc 81030000 		.4byte	0x381
 5064 0de0 03       		.byte	0x3
 5065 0de1 23       		.byte	0x23
 5066 0de2 9008     		.uleb128 0x410
 5067 0de4 09       		.uleb128 0x9
 5068 0de5 28080000 		.4byte	.LASF212
 5069 0de9 10       		.byte	0x10
 5070 0dea 8B       		.byte	0x8b
 5071 0deb 81030000 		.4byte	0x381
 5072 0def 03       		.byte	0x3
 5073 0df0 23       		.byte	0x23
 5074 0df1 9408     		.uleb128 0x414
 5075 0df3 09       		.uleb128 0x9
 5076 0df4 0A090000 		.4byte	.LASF213
 5077 0df8 10       		.byte	0x10
 5078 0df9 8D       		.byte	0x8d
 5079 0dfa 81030000 		.4byte	0x381
 5080 0dfe 03       		.byte	0x3
 5081 0dff 23       		.byte	0x23
 5082 0e00 9808     		.uleb128 0x418
 5083 0e02 09       		.uleb128 0x9
 5084 0e03 810B0000 		.4byte	.LASF214
 5085 0e07 10       		.byte	0x10
 5086 0e08 8F       		.byte	0x8f
 5087 0e09 01100000 		.4byte	0x1001
 5088 0e0d 03       		.byte	0x3
 5089 0e0e 23       		.byte	0x23
 5090 0e0f 9C08     		.uleb128 0x41c
 5091 0e11 09       		.uleb128 0x9
 5092 0e12 15040000 		.4byte	.LASF215
 5093 0e16 10       		.byte	0x10
 5094 0e17 90       		.byte	0x90
 5095 0e18 81030000 		.4byte	0x381
 5096 0e1c 03       		.byte	0x3
 5097 0e1d 23       		.byte	0x23
 5098 0e1e C008     		.uleb128 0x440
 5099 0e20 09       		.uleb128 0x9
ARM GAS  C:\Users\srich\AppData\Local\Temp\cc7Prgoh.s 			page 91


 5100 0e21 DC080000 		.4byte	.LASF216
 5101 0e25 10       		.byte	0x10
 5102 0e26 92       		.byte	0x92
 5103 0e27 16100000 		.4byte	0x1016
 5104 0e2b 03       		.byte	0x3
 5105 0e2c 23       		.byte	0x23
 5106 0e2d C408     		.uleb128 0x444
 5107 0e2f 0A       		.uleb128 0xa
 5108 0e30 686300   		.ascii	"hc\000"
 5109 0e33 10       		.byte	0x10
 5110 0e34 93       		.byte	0x93
 5111 0e35 1B100000 		.4byte	0x101b
 5112 0e39 03       		.byte	0x3
 5113 0e3a 23       		.byte	0x23
 5114 0e3b 800A     		.uleb128 0x500
 5115 0e3d 09       		.uleb128 0x9
 5116 0e3e F9000000 		.4byte	.LASF217
 5117 0e42 10       		.byte	0x10
 5118 0e43 94       		.byte	0x94
 5119 0e44 3B100000 		.4byte	0x103b
 5120 0e48 03       		.byte	0x3
 5121 0e49 23       		.byte	0x23
 5122 0e4a 800E     		.uleb128 0x700
 5123 0e4c 09       		.uleb128 0x9
 5124 0e4d 68030000 		.4byte	.LASF218
 5125 0e51 10       		.byte	0x10
 5126 0e52 95       		.byte	0x95
 5127 0e53 81030000 		.4byte	0x381
 5128 0e57 03       		.byte	0x3
 5129 0e58 23       		.byte	0x23
 5130 0e59 8010     		.uleb128 0x800
 5131 0e5b 09       		.uleb128 0x9
 5132 0e5c 8C0A0000 		.4byte	.LASF219
 5133 0e60 10       		.byte	0x10
 5134 0e61 96       		.byte	0x96
 5135 0e62 81030000 		.4byte	0x381
 5136 0e66 03       		.byte	0x3
 5137 0e67 23       		.byte	0x23
 5138 0e68 8410     		.uleb128 0x804
 5139 0e6a 09       		.uleb128 0x9
 5140 0e6b D30D0000 		.4byte	.LASF220
 5141 0e6f 10       		.byte	0x10
 5142 0e70 97       		.byte	0x97
 5143 0e71 81030000 		.4byte	0x381
 5144 0e75 03       		.byte	0x3
 5145 0e76 23       		.byte	0x23
 5146 0e77 8810     		.uleb128 0x808
 5147 0e79 09       		.uleb128 0x9
 5148 0e7a 0C040000 		.4byte	.LASF221
 5149 0e7e 10       		.byte	0x10
 5150 0e7f 98       		.byte	0x98
 5151 0e80 81030000 		.4byte	0x381
 5152 0e84 03       		.byte	0x3
 5153 0e85 23       		.byte	0x23
 5154 0e86 8C10     		.uleb128 0x80c
 5155 0e88 09       		.uleb128 0x9
 5156 0e89 710C0000 		.4byte	.LASF222
ARM GAS  C:\Users\srich\AppData\Local\Temp\cc7Prgoh.s 			page 92


 5157 0e8d 10       		.byte	0x10
 5158 0e8e 99       		.byte	0x99
 5159 0e8f 81030000 		.4byte	0x381
 5160 0e93 03       		.byte	0x3
 5161 0e94 23       		.byte	0x23
 5162 0e95 9010     		.uleb128 0x810
 5163 0e97 09       		.uleb128 0x9
 5164 0e98 70020000 		.4byte	.LASF223
 5165 0e9c 10       		.byte	0x10
 5166 0e9d 9B       		.byte	0x9b
 5167 0e9e 81030000 		.4byte	0x381
 5168 0ea2 03       		.byte	0x3
 5169 0ea3 23       		.byte	0x23
 5170 0ea4 9410     		.uleb128 0x814
 5171 0ea6 09       		.uleb128 0x9
 5172 0ea7 54020000 		.4byte	.LASF224
 5173 0eab 10       		.byte	0x10
 5174 0eac 9D       		.byte	0x9d
 5175 0ead 81030000 		.4byte	0x381
 5176 0eb1 03       		.byte	0x3
 5177 0eb2 23       		.byte	0x23
 5178 0eb3 9810     		.uleb128 0x818
 5179 0eb5 09       		.uleb128 0x9
 5180 0eb6 F70A0000 		.4byte	.LASF225
 5181 0eba 10       		.byte	0x10
 5182 0ebb 9F       		.byte	0x9f
 5183 0ebc 81030000 		.4byte	0x381
 5184 0ec0 03       		.byte	0x3
 5185 0ec1 23       		.byte	0x23
 5186 0ec2 9C10     		.uleb128 0x81c
 5187 0ec4 09       		.uleb128 0x9
 5188 0ec5 EC040000 		.4byte	.LASF226
 5189 0ec9 10       		.byte	0x10
 5190 0eca A1       		.byte	0xa1
 5191 0ecb 81030000 		.4byte	0x381
 5192 0ecf 03       		.byte	0x3
 5193 0ed0 23       		.byte	0x23
 5194 0ed1 A010     		.uleb128 0x820
 5195 0ed3 09       		.uleb128 0x9
 5196 0ed4 F5040000 		.4byte	.LASF227
 5197 0ed8 10       		.byte	0x10
 5198 0ed9 A2       		.byte	0xa2
 5199 0eda 81030000 		.4byte	0x381
 5200 0ede 03       		.byte	0x3
 5201 0edf 23       		.byte	0x23
 5202 0ee0 A410     		.uleb128 0x824
 5203 0ee2 09       		.uleb128 0x9
 5204 0ee3 170B0000 		.4byte	.LASF228
 5205 0ee7 10       		.byte	0x10
 5206 0ee8 A3       		.byte	0xa3
 5207 0ee9 81030000 		.4byte	0x381
 5208 0eed 03       		.byte	0x3
 5209 0eee 23       		.byte	0x23
 5210 0eef A810     		.uleb128 0x828
 5211 0ef1 09       		.uleb128 0x9
 5212 0ef2 03050000 		.4byte	.LASF229
 5213 0ef6 10       		.byte	0x10
ARM GAS  C:\Users\srich\AppData\Local\Temp\cc7Prgoh.s 			page 93


 5214 0ef7 A5       		.byte	0xa5
 5215 0ef8 81030000 		.4byte	0x381
 5216 0efc 03       		.byte	0x3
 5217 0efd 23       		.byte	0x23
 5218 0efe AC10     		.uleb128 0x82c
 5219 0f00 09       		.uleb128 0x9
 5220 0f01 57070000 		.4byte	.LASF230
 5221 0f05 10       		.byte	0x10
 5222 0f06 A7       		.byte	0xa7
 5223 0f07 81030000 		.4byte	0x381
 5224 0f0b 03       		.byte	0x3
 5225 0f0c 23       		.byte	0x23
 5226 0f0d B010     		.uleb128 0x830
 5227 0f0f 09       		.uleb128 0x9
 5228 0f10 19050000 		.4byte	.LASF231
 5229 0f14 10       		.byte	0x10
 5230 0f15 A8       		.byte	0xa8
 5231 0f16 81030000 		.4byte	0x381
 5232 0f1a 03       		.byte	0x3
 5233 0f1b 23       		.byte	0x23
 5234 0f1c B410     		.uleb128 0x834
 5235 0f1e 09       		.uleb128 0x9
 5236 0f1f 70050000 		.4byte	.LASF232
 5237 0f23 10       		.byte	0x10
 5238 0f24 AA       		.byte	0xaa
 5239 0f25 81030000 		.4byte	0x381
 5240 0f29 03       		.byte	0x3
 5241 0f2a 23       		.byte	0x23
 5242 0f2b B810     		.uleb128 0x838
 5243 0f2d 09       		.uleb128 0x9
 5244 0f2e CD070000 		.4byte	.LASF233
 5245 0f32 10       		.byte	0x10
 5246 0f33 AB       		.byte	0xab
 5247 0f34 81030000 		.4byte	0x381
 5248 0f38 03       		.byte	0x3
 5249 0f39 23       		.byte	0x23
 5250 0f3a BC10     		.uleb128 0x83c
 5251 0f3c 09       		.uleb128 0x9
 5252 0f3d F1050000 		.4byte	.LASF234
 5253 0f41 10       		.byte	0x10
 5254 0f42 AC       		.byte	0xac
 5255 0f43 50100000 		.4byte	0x1050
 5256 0f47 03       		.byte	0x3
 5257 0f48 23       		.byte	0x23
 5258 0f49 C010     		.uleb128 0x840
 5259 0f4b 09       		.uleb128 0x9
 5260 0f4c B7070000 		.4byte	.LASF235
 5261 0f50 10       		.byte	0x10
 5262 0f51 AD       		.byte	0xad
 5263 0f52 55100000 		.4byte	0x1055
 5264 0f56 03       		.byte	0x3
 5265 0f57 23       		.byte	0x23
 5266 0f58 8011     		.uleb128 0x880
 5267 0f5a 09       		.uleb128 0x9
 5268 0f5b 480D0000 		.4byte	.LASF236
 5269 0f5f 10       		.byte	0x10
 5270 0f60 AE       		.byte	0xae
ARM GAS  C:\Users\srich\AppData\Local\Temp\cc7Prgoh.s 			page 94


 5271 0f61 5A100000 		.4byte	0x105a
 5272 0f65 03       		.byte	0x3
 5273 0f66 23       		.byte	0x23
 5274 0f67 C011     		.uleb128 0x8c0
 5275 0f69 0A       		.uleb128 0xa
 5276 0f6a 696500   		.ascii	"ie\000"
 5277 0f6d 10       		.byte	0x10
 5278 0f6e AF       		.byte	0xaf
 5279 0f6f 5F100000 		.4byte	0x105f
 5280 0f73 03       		.byte	0x3
 5281 0f74 23       		.byte	0x23
 5282 0f75 8012     		.uleb128 0x900
 5283 0f77 0A       		.uleb128 0xa
 5284 0f78 6F6500   		.ascii	"oe\000"
 5285 0f7b 10       		.byte	0x10
 5286 0f7c B0       		.byte	0xb0
 5287 0f7d 6F100000 		.4byte	0x106f
 5288 0f81 03       		.byte	0x3
 5289 0f82 23       		.byte	0x23
 5290 0f83 8016     		.uleb128 0xb00
 5291 0f85 09       		.uleb128 0x9
 5292 0f86 250A0000 		.4byte	.LASF237
 5293 0f8a 10       		.byte	0x10
 5294 0f8b B1       		.byte	0xb1
 5295 0f8c 7F100000 		.4byte	0x107f
 5296 0f90 03       		.byte	0x3
 5297 0f91 23       		.byte	0x23
 5298 0f92 801A     		.uleb128 0xd00
 5299 0f94 09       		.uleb128 0x9
 5300 0f95 06070000 		.4byte	.LASF238
 5301 0f99 10       		.byte	0x10
 5302 0f9a B2       		.byte	0xb2
 5303 0f9b 81030000 		.4byte	0x381
 5304 0f9f 03       		.byte	0x3
 5305 0fa0 23       		.byte	0x23
 5306 0fa1 801C     		.uleb128 0xe00
 5307 0fa3 09       		.uleb128 0x9
 5308 0fa4 370D0000 		.4byte	.LASF239
 5309 0fa8 10       		.byte	0x10
 5310 0fa9 B4       		.byte	0xb4
 5311 0faa 94100000 		.4byte	0x1094
 5312 0fae 03       		.byte	0x3
 5313 0faf 23       		.byte	0x23
 5314 0fb0 841C     		.uleb128 0xe04
 5315 0fb2 09       		.uleb128 0x9
 5316 0fb3 5C0B0000 		.4byte	.LASF240
 5317 0fb7 10       		.byte	0x10
 5318 0fb8 B5       		.byte	0xb5
 5319 0fb9 B0100000 		.4byte	0x10b0
 5320 0fbd 03       		.byte	0x3
 5321 0fbe 23       		.byte	0x23
 5322 0fbf 8020     		.uleb128 0x1000
 5323 0fc1 00       		.byte	0
 5324 0fc2 14       		.uleb128 0x14
 5325 0fc3 B2000000 		.4byte	0xb2
 5326 0fc7 D20F0000 		.4byte	0xfd2
 5327 0fcb 15       		.uleb128 0x15
ARM GAS  C:\Users\srich\AppData\Local\Temp\cc7Prgoh.s 			page 95


 5328 0fcc 64000000 		.4byte	0x64
 5329 0fd0 2F       		.byte	0x2f
 5330 0fd1 00       		.byte	0
 5331 0fd2 0E       		.uleb128 0xe
 5332 0fd3 C20F0000 		.4byte	0xfc2
 5333 0fd7 0E       		.uleb128 0xe
 5334 0fd8 79050000 		.4byte	0x579
 5335 0fdc 14       		.uleb128 0x14
 5336 0fdd B2000000 		.4byte	0xb2
 5337 0fe1 EC0F0000 		.4byte	0xfec
 5338 0fe5 15       		.uleb128 0x15
 5339 0fe6 64000000 		.4byte	0x64
 5340 0fea AF       		.byte	0xaf
 5341 0feb 00       		.byte	0
 5342 0fec 0E       		.uleb128 0xe
 5343 0fed DC0F0000 		.4byte	0xfdc
 5344 0ff1 14       		.uleb128 0x14
 5345 0ff2 B2000000 		.4byte	0xb2
 5346 0ff6 01100000 		.4byte	0x1001
 5347 0ffa 15       		.uleb128 0x15
 5348 0ffb 64000000 		.4byte	0x64
 5349 0fff 08       		.byte	0x8
 5350 1000 00       		.byte	0
 5351 1001 0E       		.uleb128 0xe
 5352 1002 F10F0000 		.4byte	0xff1
 5353 1006 14       		.uleb128 0x14
 5354 1007 B2000000 		.4byte	0xb2
 5355 100b 16100000 		.4byte	0x1016
 5356 100f 15       		.uleb128 0x15
 5357 1010 64000000 		.4byte	0x64
 5358 1014 2E       		.byte	0x2e
 5359 1015 00       		.byte	0
 5360 1016 0E       		.uleb128 0xe
 5361 1017 06100000 		.4byte	0x1006
 5362 101b 14       		.uleb128 0x14
 5363 101c 600B0000 		.4byte	0xb60
 5364 1020 2B100000 		.4byte	0x102b
 5365 1024 15       		.uleb128 0x15
 5366 1025 64000000 		.4byte	0x64
 5367 1029 0F       		.byte	0xf
 5368 102a 00       		.byte	0
 5369 102b 14       		.uleb128 0x14
 5370 102c B2000000 		.4byte	0xb2
 5371 1030 3B100000 		.4byte	0x103b
 5372 1034 15       		.uleb128 0x15
 5373 1035 64000000 		.4byte	0x64
 5374 1039 3F       		.byte	0x3f
 5375 103a 00       		.byte	0
 5376 103b 0E       		.uleb128 0xe
 5377 103c 2B100000 		.4byte	0x102b
 5378 1040 14       		.uleb128 0x14
 5379 1041 B2000000 		.4byte	0xb2
 5380 1045 50100000 		.4byte	0x1050
 5381 1049 15       		.uleb128 0x15
 5382 104a 64000000 		.4byte	0x64
 5383 104e 0F       		.byte	0xf
 5384 104f 00       		.byte	0
ARM GAS  C:\Users\srich\AppData\Local\Temp\cc7Prgoh.s 			page 96


 5385 1050 0E       		.uleb128 0xe
 5386 1051 40100000 		.4byte	0x1040
 5387 1055 0E       		.uleb128 0xe
 5388 1056 40100000 		.4byte	0x1040
 5389 105a 0E       		.uleb128 0xe
 5390 105b 40100000 		.4byte	0x1040
 5391 105f 14       		.uleb128 0x14
 5392 1060 E40B0000 		.4byte	0xbe4
 5393 1064 6F100000 		.4byte	0x106f
 5394 1068 15       		.uleb128 0x15
 5395 1069 64000000 		.4byte	0x64
 5396 106d 0F       		.byte	0xf
 5397 106e 00       		.byte	0
 5398 106f 14       		.uleb128 0x14
 5399 1070 680C0000 		.4byte	0xc68
 5400 1074 7F100000 		.4byte	0x107f
 5401 1078 15       		.uleb128 0x15
 5402 1079 64000000 		.4byte	0x64
 5403 107d 0F       		.byte	0xf
 5404 107e 00       		.byte	0
 5405 107f 0E       		.uleb128 0xe
 5406 1080 2B100000 		.4byte	0x102b
 5407 1084 14       		.uleb128 0x14
 5408 1085 B2000000 		.4byte	0xb2
 5409 1089 94100000 		.4byte	0x1094
 5410 108d 15       		.uleb128 0x15
 5411 108e 64000000 		.4byte	0x64
 5412 1092 7E       		.byte	0x7e
 5413 1093 00       		.byte	0
 5414 1094 0E       		.uleb128 0xe
 5415 1095 84100000 		.4byte	0x1084
 5416 1099 14       		.uleb128 0x14
 5417 109a B2000000 		.4byte	0xb2
 5418 109e B0100000 		.4byte	0x10b0
 5419 10a2 15       		.uleb128 0x15
 5420 10a3 64000000 		.4byte	0x64
 5421 10a7 0F       		.byte	0xf
 5422 10a8 1E       		.uleb128 0x1e
 5423 10a9 64000000 		.4byte	0x64
 5424 10ad FF03     		.2byte	0x3ff
 5425 10af 00       		.byte	0
 5426 10b0 0E       		.uleb128 0xe
 5427 10b1 99100000 		.4byte	0x1099
 5428 10b5 07       		.uleb128 0x7
 5429 10b6 7F080000 		.4byte	.LASF241
 5430 10ba 10       		.byte	0x10
 5431 10bb B6       		.byte	0xb6
 5432 10bc 730C0000 		.4byte	0xc73
 5433 10c0 0B       		.uleb128 0xb
 5434 10c1 0C       		.byte	0xc
 5435 10c2 0F       		.byte	0xf
 5436 10c3 C6       		.byte	0xc6
 5437 10c4 F3100000 		.4byte	0x10f3
 5438 10c8 09       		.uleb128 0x9
 5439 10c9 020C0000 		.4byte	.LASF242
 5440 10cd 0F       		.byte	0xf
 5441 10ce C7       		.byte	0xc7
ARM GAS  C:\Users\srich\AppData\Local\Temp\cc7Prgoh.s 			page 97


 5442 10cf B2000000 		.4byte	0xb2
 5443 10d3 02       		.byte	0x2
 5444 10d4 23       		.byte	0x23
 5445 10d5 00       		.uleb128 0
 5446 10d6 09       		.uleb128 0x9
 5447 10d7 320B0000 		.4byte	.LASF243
 5448 10db 0F       		.byte	0xf
 5449 10dc C8       		.byte	0xc8
 5450 10dd B2000000 		.4byte	0xb2
 5451 10e1 02       		.byte	0x2
 5452 10e2 23       		.byte	0x23
 5453 10e3 04       		.uleb128 0x4
 5454 10e4 09       		.uleb128 0x9
 5455 10e5 47060000 		.4byte	.LASF244
 5456 10e9 0F       		.byte	0xf
 5457 10ea C9       		.byte	0xc9
 5458 10eb B2000000 		.4byte	0xb2
 5459 10ef 02       		.byte	0x2
 5460 10f0 23       		.byte	0x23
 5461 10f1 08       		.uleb128 0x8
 5462 10f2 00       		.byte	0
 5463 10f3 07       		.uleb128 0x7
 5464 10f4 32050000 		.4byte	.LASF245
 5465 10f8 0F       		.byte	0xf
 5466 10f9 CA       		.byte	0xca
 5467 10fa C0100000 		.4byte	0x10c0
 5468 10fe 0B       		.uleb128 0xb
 5469 10ff 04       		.byte	0x4
 5470 1100 0F       		.byte	0xf
 5471 1101 DD       		.byte	0xdd
 5472 1102 15110000 		.4byte	0x1115
 5473 1106 09       		.uleb128 0x9
 5474 1107 10020000 		.4byte	.LASF246
 5475 110b 0F       		.byte	0xf
 5476 110c E1       		.byte	0xe1
 5477 110d 5E050000 		.4byte	0x55e
 5478 1111 02       		.byte	0x2
 5479 1112 23       		.byte	0x23
 5480 1113 00       		.uleb128 0
 5481 1114 00       		.byte	0
 5482 1115 0B       		.uleb128 0xb
 5483 1116 04       		.byte	0x4
 5484 1117 0F       		.byte	0xf
 5485 1118 E3       		.byte	0xe3
 5486 1119 2C110000 		.4byte	0x112c
 5487 111d 09       		.uleb128 0x9
 5488 111e 560C0000 		.4byte	.LASF247
 5489 1122 0F       		.byte	0xf
 5490 1123 E7       		.byte	0xe7
 5491 1124 2C110000 		.4byte	0x112c
 5492 1128 02       		.byte	0x2
 5493 1129 23       		.byte	0x23
 5494 112a 00       		.uleb128 0
 5495 112b 00       		.byte	0
 5496 112c 05       		.uleb128 0x5
 5497 112d 04       		.byte	0x4
 5498 112e 53050000 		.4byte	0x553
ARM GAS  C:\Users\srich\AppData\Local\Temp\cc7Prgoh.s 			page 98


 5499 1132 0F       		.uleb128 0xf
 5500 1133 04       		.byte	0x4
 5501 1134 0F       		.byte	0xf
 5502 1135 DC       		.byte	0xdc
 5503 1136 51110000 		.4byte	0x1151
 5504 113a 10       		.uleb128 0x10
 5505 113b 7F0A0000 		.4byte	.LASF248
 5506 113f 0F       		.byte	0xf
 5507 1140 E2       		.byte	0xe2
 5508 1141 FE100000 		.4byte	0x10fe
 5509 1145 10       		.uleb128 0x10
 5510 1146 E90A0000 		.4byte	.LASF249
 5511 114a 0F       		.byte	0xf
 5512 114b E8       		.byte	0xe8
 5513 114c 15110000 		.4byte	0x1115
 5514 1150 00       		.byte	0
 5515 1151 0B       		.uleb128 0xb
 5516 1152 14       		.byte	0x14
 5517 1153 0F       		.byte	0xf
 5518 1154 CF       		.byte	0xcf
 5519 1155 A0110000 		.4byte	0x11a0
 5520 1159 09       		.uleb128 0x9
 5521 115a AD0E0000 		.4byte	.LASF250
 5522 115e 0F       		.byte	0xf
 5523 115f D3       		.byte	0xd3
 5524 1160 C8000000 		.4byte	0xc8
 5525 1164 02       		.byte	0x2
 5526 1165 23       		.byte	0x23
 5527 1166 00       		.uleb128 0
 5528 1167 09       		.uleb128 0x9
 5529 1168 5D060000 		.4byte	.LASF251
 5530 116c 0F       		.byte	0xf
 5531 116d D7       		.byte	0xd7
 5532 116e 86000000 		.4byte	0x86
 5533 1172 02       		.byte	0x2
 5534 1173 23       		.byte	0x23
 5535 1174 04       		.uleb128 0x4
 5536 1175 09       		.uleb128 0x9
 5537 1176 C9050000 		.4byte	.LASF252
 5538 117a 0F       		.byte	0xf
 5539 117b DB       		.byte	0xdb
 5540 117c 86000000 		.4byte	0x86
 5541 1180 02       		.byte	0x2
 5542 1181 23       		.byte	0x23
 5543 1182 08       		.uleb128 0x8
 5544 1183 09       		.uleb128 0x9
 5545 1184 180C0000 		.4byte	.LASF253
 5546 1188 0F       		.byte	0xf
 5547 1189 E9       		.byte	0xe9
 5548 118a 32110000 		.4byte	0x1132
 5549 118e 02       		.byte	0x2
 5550 118f 23       		.byte	0x23
 5551 1190 0C       		.uleb128 0xc
 5552 1191 09       		.uleb128 0x9
 5553 1192 FA0B0000 		.4byte	.LASF254
 5554 1196 0F       		.byte	0xf
 5555 1197 ED       		.byte	0xed
ARM GAS  C:\Users\srich\AppData\Local\Temp\cc7Prgoh.s 			page 99


 5556 1198 86000000 		.4byte	0x86
 5557 119c 02       		.byte	0x2
 5558 119d 23       		.byte	0x23
 5559 119e 10       		.uleb128 0x10
 5560 119f 00       		.byte	0
 5561 11a0 07       		.uleb128 0x7
 5562 11a1 D9040000 		.4byte	.LASF255
 5563 11a5 0F       		.byte	0xf
 5564 11a6 EE       		.byte	0xee
 5565 11a7 51110000 		.4byte	0x1151
 5566 11ab 16       		.uleb128 0x16
 5567 11ac 04       		.byte	0x4
 5568 11ad 0F       		.byte	0xf
 5569 11ae 0101     		.2byte	0x101
 5570 11b0 C4110000 		.4byte	0x11c4
 5571 11b4 17       		.uleb128 0x17
 5572 11b5 D6060000 		.4byte	.LASF256
 5573 11b9 0F       		.byte	0xf
 5574 11ba 0501     		.2byte	0x105
 5575 11bc 42050000 		.4byte	0x542
 5576 11c0 02       		.byte	0x2
 5577 11c1 23       		.byte	0x23
 5578 11c2 00       		.uleb128 0
 5579 11c3 00       		.byte	0
 5580 11c4 16       		.uleb128 0x16
 5581 11c5 04       		.byte	0x4
 5582 11c6 0F       		.byte	0xf
 5583 11c7 0701     		.2byte	0x107
 5584 11c9 DD110000 		.4byte	0x11dd
 5585 11cd 17       		.uleb128 0x17
 5586 11ce EF0A0000 		.4byte	.LASF257
 5587 11d2 0F       		.byte	0xf
 5588 11d3 0B01     		.2byte	0x10b
 5589 11d5 DD110000 		.4byte	0x11dd
 5590 11d9 02       		.byte	0x2
 5591 11da 23       		.byte	0x23
 5592 11db 00       		.uleb128 0
 5593 11dc 00       		.byte	0
 5594 11dd 05       		.uleb128 0x5
 5595 11de 04       		.byte	0x4
 5596 11df 48050000 		.4byte	0x548
 5597 11e3 1F       		.uleb128 0x1f
 5598 11e4 04       		.byte	0x4
 5599 11e5 0F       		.byte	0xf
 5600 11e6 0001     		.2byte	0x100
 5601 11e8 05120000 		.4byte	0x1205
 5602 11ec 20       		.uleb128 0x20
 5603 11ed 7F0A0000 		.4byte	.LASF248
 5604 11f1 0F       		.byte	0xf
 5605 11f2 0601     		.2byte	0x106
 5606 11f4 AB110000 		.4byte	0x11ab
 5607 11f8 20       		.uleb128 0x20
 5608 11f9 E90A0000 		.4byte	.LASF249
 5609 11fd 0F       		.byte	0xf
 5610 11fe 0C01     		.2byte	0x10c
 5611 1200 C4110000 		.4byte	0x11c4
 5612 1204 00       		.byte	0
ARM GAS  C:\Users\srich\AppData\Local\Temp\cc7Prgoh.s 			page 100


 5613 1205 0B       		.uleb128 0xb
 5614 1206 14       		.byte	0x14
 5615 1207 0F       		.byte	0xf
 5616 1208 F3       		.byte	0xf3
 5617 1209 56120000 		.4byte	0x1256
 5618 120d 09       		.uleb128 0x9
 5619 120e AC0A0000 		.4byte	.LASF258
 5620 1212 0F       		.byte	0xf
 5621 1213 F7       		.byte	0xf7
 5622 1214 C8000000 		.4byte	0xc8
 5623 1218 02       		.byte	0x2
 5624 1219 23       		.byte	0x23
 5625 121a 00       		.uleb128 0
 5626 121b 09       		.uleb128 0x9
 5627 121c 05030000 		.4byte	.LASF259
 5628 1220 0F       		.byte	0xf
 5629 1221 FB       		.byte	0xfb
 5630 1222 86000000 		.4byte	0x86
 5631 1226 02       		.byte	0x2
 5632 1227 23       		.byte	0x23
 5633 1228 04       		.uleb128 0x4
 5634 1229 09       		.uleb128 0x9
 5635 122a 6C060000 		.4byte	.LASF260
 5636 122e 0F       		.byte	0xf
 5637 122f FF       		.byte	0xff
 5638 1230 86000000 		.4byte	0x86
 5639 1234 02       		.byte	0x2
 5640 1235 23       		.byte	0x23
 5641 1236 08       		.uleb128 0x8
 5642 1237 17       		.uleb128 0x17
 5643 1238 180C0000 		.4byte	.LASF253
 5644 123c 0F       		.byte	0xf
 5645 123d 0D01     		.2byte	0x10d
 5646 123f E3110000 		.4byte	0x11e3
 5647 1243 02       		.byte	0x2
 5648 1244 23       		.byte	0x23
 5649 1245 0C       		.uleb128 0xc
 5650 1246 17       		.uleb128 0x17
 5651 1247 FA0B0000 		.4byte	.LASF254
 5652 124b 0F       		.byte	0xf
 5653 124c 1101     		.2byte	0x111
 5654 124e 86000000 		.4byte	0x86
 5655 1252 02       		.byte	0x2
 5656 1253 23       		.byte	0x23
 5657 1254 10       		.uleb128 0x10
 5658 1255 00       		.byte	0
 5659 1256 18       		.uleb128 0x18
 5660 1257 FB090000 		.4byte	.LASF261
 5661 125b 0F       		.byte	0xf
 5662 125c 1201     		.2byte	0x112
 5663 125e 05120000 		.4byte	0x1205
 5664 1262 16       		.uleb128 0x16
 5665 1263 24       		.byte	0x24
 5666 1264 0F       		.byte	0xf
 5667 1265 1801     		.2byte	0x118
 5668 1267 02130000 		.4byte	0x1302
 5669 126b 17       		.uleb128 0x17
ARM GAS  C:\Users\srich\AppData\Local\Temp\cc7Prgoh.s 			page 101


 5670 126c 15010000 		.4byte	.LASF262
 5671 1270 0F       		.byte	0xf
 5672 1271 1C01     		.2byte	0x11c
 5673 1273 B2000000 		.4byte	0xb2
 5674 1277 02       		.byte	0x2
 5675 1278 23       		.byte	0x23
 5676 1279 00       		.uleb128 0
 5677 127a 17       		.uleb128 0x17
 5678 127b 4E040000 		.4byte	.LASF263
 5679 127f 0F       		.byte	0xf
 5680 1280 2701     		.2byte	0x127
 5681 1282 430A0000 		.4byte	0xa43
 5682 1286 02       		.byte	0x2
 5683 1287 23       		.byte	0x23
 5684 1288 04       		.uleb128 0x4
 5685 1289 17       		.uleb128 0x17
 5686 128a 73040000 		.4byte	.LASF264
 5687 128e 0F       		.byte	0xf
 5688 128f 2D01     		.2byte	0x12d
 5689 1291 430A0000 		.4byte	0xa43
 5690 1295 02       		.byte	0x2
 5691 1296 23       		.byte	0x23
 5692 1297 08       		.uleb128 0x8
 5693 1298 17       		.uleb128 0x17
 5694 1299 EF080000 		.4byte	.LASF265
 5695 129d 0F       		.byte	0xf
 5696 129e 3301     		.2byte	0x133
 5697 12a0 430A0000 		.4byte	0xa43
 5698 12a4 02       		.byte	0x2
 5699 12a5 23       		.byte	0x23
 5700 12a6 0C       		.uleb128 0xc
 5701 12a7 17       		.uleb128 0x17
 5702 12a8 1C090000 		.4byte	.LASF266
 5703 12ac 0F       		.byte	0xf
 5704 12ad 3901     		.2byte	0x139
 5705 12af 9C000000 		.4byte	0x9c
 5706 12b3 02       		.byte	0x2
 5707 12b4 23       		.byte	0x23
 5708 12b5 10       		.uleb128 0x10
 5709 12b6 17       		.uleb128 0x17
 5710 12b7 F1010000 		.4byte	.LASF267
 5711 12bb 0F       		.byte	0xf
 5712 12bc 3F01     		.2byte	0x13f
 5713 12be 9C000000 		.4byte	0x9c
 5714 12c2 02       		.byte	0x2
 5715 12c3 23       		.byte	0x23
 5716 12c4 12       		.uleb128 0x12
 5717 12c5 17       		.uleb128 0x17
 5718 12c6 E4060000 		.4byte	.LASF268
 5719 12ca 0F       		.byte	0xf
 5720 12cb 4401     		.2byte	0x144
 5721 12cd 02130000 		.4byte	0x1302
 5722 12d1 02       		.byte	0x2
 5723 12d2 23       		.byte	0x23
 5724 12d3 14       		.uleb128 0x14
 5725 12d4 17       		.uleb128 0x17
 5726 12d5 36090000 		.4byte	.LASF269
ARM GAS  C:\Users\srich\AppData\Local\Temp\cc7Prgoh.s 			page 102


 5727 12d9 0F       		.byte	0xf
 5728 12da 4901     		.2byte	0x149
 5729 12dc 08130000 		.4byte	0x1308
 5730 12e0 02       		.byte	0x2
 5731 12e1 23       		.byte	0x23
 5732 12e2 18       		.uleb128 0x18
 5733 12e3 17       		.uleb128 0x17
 5734 12e4 34060000 		.4byte	.LASF270
 5735 12e8 0F       		.byte	0xf
 5736 12e9 5001     		.2byte	0x150
 5737 12eb 9C000000 		.4byte	0x9c
 5738 12ef 02       		.byte	0x2
 5739 12f0 23       		.byte	0x23
 5740 12f1 1C       		.uleb128 0x1c
 5741 12f2 17       		.uleb128 0x17
 5742 12f3 B3080000 		.4byte	.LASF271
 5743 12f7 0F       		.byte	0xf
 5744 12f8 5601     		.2byte	0x156
 5745 12fa 42050000 		.4byte	0x542
 5746 12fe 02       		.byte	0x2
 5747 12ff 23       		.byte	0x23
 5748 1300 20       		.uleb128 0x20
 5749 1301 00       		.byte	0
 5750 1302 05       		.uleb128 0x5
 5751 1303 04       		.byte	0x4
 5752 1304 A0110000 		.4byte	0x11a0
 5753 1308 05       		.uleb128 0x5
 5754 1309 04       		.byte	0x4
 5755 130a 56120000 		.4byte	0x1256
 5756 130e 18       		.uleb128 0x18
 5757 130f 910A0000 		.4byte	.LASF272
 5758 1313 0F       		.byte	0xf
 5759 1314 5701     		.2byte	0x157
 5760 1316 62120000 		.4byte	0x1262
 5761 131a 16       		.uleb128 0x16
 5762 131b 10       		.byte	0x10
 5763 131c 0F       		.byte	0xf
 5764 131d 5C01     		.2byte	0x15c
 5765 131f 60130000 		.4byte	0x1360
 5766 1323 17       		.uleb128 0x17
 5767 1324 1A070000 		.4byte	.LASF273
 5768 1328 0F       		.byte	0xf
 5769 1329 6101     		.2byte	0x161
 5770 132b 660A0000 		.4byte	0xa66
 5771 132f 02       		.byte	0x2
 5772 1330 23       		.byte	0x23
 5773 1331 00       		.uleb128 0
 5774 1332 17       		.uleb128 0x17
 5775 1333 D80D0000 		.4byte	.LASF274
 5776 1337 0F       		.byte	0xf
 5777 1338 6601     		.2byte	0x166
 5778 133a AB0A0000 		.4byte	0xaab
 5779 133e 02       		.byte	0x2
 5780 133f 23       		.byte	0x23
 5781 1340 04       		.uleb128 0x4
 5782 1341 17       		.uleb128 0x17
 5783 1342 8D030000 		.4byte	.LASF275
ARM GAS  C:\Users\srich\AppData\Local\Temp\cc7Prgoh.s 			page 103


 5784 1346 0F       		.byte	0xf
 5785 1347 6C01     		.2byte	0x16c
 5786 1349 890A0000 		.4byte	0xa89
 5787 134d 02       		.byte	0x2
 5788 134e 23       		.byte	0x23
 5789 134f 08       		.uleb128 0x8
 5790 1350 17       		.uleb128 0x17
 5791 1351 300D0000 		.4byte	.LASF276
 5792 1355 0F       		.byte	0xf
 5793 1356 7001     		.2byte	0x170
 5794 1358 1F0A0000 		.4byte	0xa1f
 5795 135c 02       		.byte	0x2
 5796 135d 23       		.byte	0x23
 5797 135e 0C       		.uleb128 0xc
 5798 135f 00       		.byte	0
 5799 1360 18       		.uleb128 0x18
 5800 1361 48080000 		.4byte	.LASF277
 5801 1365 0F       		.byte	0xf
 5802 1366 7201     		.2byte	0x172
 5803 1368 1A130000 		.4byte	0x131a
 5804 136c 05       		.uleb128 0x5
 5805 136d 04       		.byte	0x4
 5806 136e 72130000 		.4byte	0x1372
 5807 1372 06       		.uleb128 0x6
 5808 1373 60130000 		.4byte	0x1360
 5809 1377 14       		.uleb128 0x14
 5810 1378 87130000 		.4byte	0x1387
 5811 137c 87130000 		.4byte	0x1387
 5812 1380 15       		.uleb128 0x15
 5813 1381 64000000 		.4byte	0x64
 5814 1385 03       		.byte	0x3
 5815 1386 00       		.byte	0
 5816 1387 05       		.uleb128 0x5
 5817 1388 04       		.byte	0x4
 5818 1389 8D130000 		.4byte	0x138d
 5819 138d 06       		.uleb128 0x6
 5820 138e 0E130000 		.4byte	0x130e
 5821 1392 14       		.uleb128 0x14
 5822 1393 6B000000 		.4byte	0x6b
 5823 1397 A2130000 		.4byte	0x13a2
 5824 139b 15       		.uleb128 0x15
 5825 139c 64000000 		.4byte	0x64
 5826 13a0 02       		.byte	0x2
 5827 13a1 00       		.byte	0
 5828 13a2 05       		.uleb128 0x5
 5829 13a3 04       		.byte	0x4
 5830 13a4 B5100000 		.4byte	0x10b5
 5831 13a8 05       		.uleb128 0x5
 5832 13a9 04       		.byte	0x4
 5833 13aa AE130000 		.4byte	0x13ae
 5834 13ae 06       		.uleb128 0x6
 5835 13af F3100000 		.4byte	0x10f3
 5836 13b3 14       		.uleb128 0x14
 5837 13b4 C5020000 		.4byte	0x2c5
 5838 13b8 C3130000 		.4byte	0x13c3
 5839 13bc 15       		.uleb128 0x15
 5840 13bd 64000000 		.4byte	0x64
ARM GAS  C:\Users\srich\AppData\Local\Temp\cc7Prgoh.s 			page 104


 5841 13c1 29       		.byte	0x29
 5842 13c2 00       		.byte	0
 5843 13c3 0F       		.uleb128 0xf
 5844 13c4 14       		.byte	0x14
 5845 13c5 01       		.byte	0x1
 5846 13c6 40       		.byte	0x40
 5847 13c7 E1130000 		.4byte	0x13e1
 5848 13cb 21       		.uleb128 0x21
 5849 13cc 696E00   		.ascii	"in\000"
 5850 13cf 01       		.byte	0x1
 5851 13d0 44       		.byte	0x44
 5852 13d1 A0110000 		.4byte	0x11a0
 5853 13d5 21       		.uleb128 0x21
 5854 13d6 6F757400 		.ascii	"out\000"
 5855 13da 01       		.byte	0x1
 5856 13db 48       		.byte	0x48
 5857 13dc 56120000 		.4byte	0x1256
 5858 13e0 00       		.byte	0
 5859 13e1 22       		.uleb128 0x22
 5860 13e2 0E070000 		.4byte	.LASF279
 5861 13e6 01       		.byte	0x1
 5862 13e7 F7       		.byte	0xf7
 5863 13e8 01       		.byte	0x1
 5864 13e9 42050000 		.4byte	0x542
 5865 13ed 01       		.byte	0x1
 5866 13ee 12140000 		.4byte	0x1412
 5867 13f2 23       		.uleb128 0x23
 5868 13f3 E3000000 		.4byte	.LASF278
 5869 13f7 01       		.byte	0x1
 5870 13f8 F7       		.byte	0xf7
 5871 13f9 93070000 		.4byte	0x793
 5872 13fd 24       		.uleb128 0x24
 5873 13fe 62756600 		.ascii	"buf\000"
 5874 1402 01       		.byte	0x1
 5875 1403 F7       		.byte	0xf7
 5876 1404 42050000 		.4byte	0x542
 5877 1408 24       		.uleb128 0x24
 5878 1409 6E00     		.ascii	"n\000"
 5879 140b 01       		.byte	0x1
 5880 140c F7       		.byte	0xf7
 5881 140d 86000000 		.4byte	0x86
 5882 1411 00       		.byte	0
 5883 1412 25       		.uleb128 0x25
 5884 1413 5E0C0000 		.4byte	.LASF280
 5885 1417 01       		.byte	0x1
 5886 1418 5901     		.2byte	0x159
 5887 141a 01       		.byte	0x1
 5888 141b 42050000 		.4byte	0x542
 5889 141f 01       		.byte	0x1
 5890 1420 53140000 		.4byte	0x1453
 5891 1424 26       		.uleb128 0x26
 5892 1425 E3000000 		.4byte	.LASF278
 5893 1429 01       		.byte	0x1
 5894 142a 5901     		.2byte	0x159
 5895 142c 93070000 		.4byte	0x793
 5896 1430 27       		.uleb128 0x27
 5897 1431 62756600 		.ascii	"buf\000"
ARM GAS  C:\Users\srich\AppData\Local\Temp\cc7Prgoh.s 			page 105


 5898 1435 01       		.byte	0x1
 5899 1436 5901     		.2byte	0x159
 5900 1438 42050000 		.4byte	0x542
 5901 143c 27       		.uleb128 0x27
 5902 143d 6E00     		.ascii	"n\000"
 5903 143f 01       		.byte	0x1
 5904 1440 5901     		.2byte	0x159
 5905 1442 86000000 		.4byte	0x86
 5906 1446 28       		.uleb128 0x28
 5907 1447 29       		.uleb128 0x29
 5908 1448 7700     		.ascii	"w\000"
 5909 144a 01       		.byte	0x1
 5910 144b 5C01     		.2byte	0x15c
 5911 144d B2000000 		.4byte	0xb2
 5912 1451 00       		.byte	0
 5913 1452 00       		.byte	0
 5914 1453 22       		.uleb128 0x22
 5915 1454 8C0E0000 		.4byte	.LASF281
 5916 1458 02       		.byte	0x2
 5917 1459 3B       		.byte	0x3b
 5918 145a 01       		.byte	0x1
 5919 145b 87020000 		.4byte	0x287
 5920 145f 03       		.byte	0x3
 5921 1460 7A140000 		.4byte	0x147a
 5922 1464 24       		.uleb128 0x24
 5923 1465 74717000 		.ascii	"tqp\000"
 5924 1469 02       		.byte	0x2
 5925 146a 3B       		.byte	0x3b
 5926 146b 7A140000 		.4byte	0x147a
 5927 146f 2A       		.uleb128 0x2a
 5928 1470 747000   		.ascii	"tp\000"
 5929 1473 02       		.byte	0x2
 5930 1474 3C       		.byte	0x3c
 5931 1475 87020000 		.4byte	0x287
 5932 1479 00       		.byte	0
 5933 147a 05       		.uleb128 0x5
 5934 147b 04       		.byte	0x4
 5935 147c 8D020000 		.4byte	0x28d
 5936 1480 2B       		.uleb128 0x2b
 5937 1481 6C000000 		.4byte	.LASF282
 5938 1485 01       		.byte	0x1
 5939 1486 7001     		.2byte	0x170
 5940 1488 01       		.byte	0x1
 5941 1489 01       		.byte	0x1
 5942 148a C9140000 		.4byte	0x14c9
 5943 148e 26       		.uleb128 0x26
 5944 148f E3000000 		.4byte	.LASF278
 5945 1493 01       		.byte	0x1
 5946 1494 7001     		.2byte	0x170
 5947 1496 93070000 		.4byte	0x793
 5948 149a 27       		.uleb128 0x27
 5949 149b 62756600 		.ascii	"buf\000"
 5950 149f 01       		.byte	0x1
 5951 14a0 7101     		.2byte	0x171
 5952 14a2 42050000 		.4byte	0x542
 5953 14a6 27       		.uleb128 0x27
 5954 14a7 6E00     		.ascii	"n\000"
ARM GAS  C:\Users\srich\AppData\Local\Temp\cc7Prgoh.s 			page 106


 5955 14a9 01       		.byte	0x1
 5956 14aa 7201     		.2byte	0x172
 5957 14ac 86000000 		.4byte	0x86
 5958 14b0 27       		.uleb128 0x27
 5959 14b1 6D617800 		.ascii	"max\000"
 5960 14b5 01       		.byte	0x1
 5961 14b6 7301     		.2byte	0x173
 5962 14b8 86000000 		.4byte	0x86
 5963 14bc 28       		.uleb128 0x28
 5964 14bd 29       		.uleb128 0x29
 5965 14be 7700     		.ascii	"w\000"
 5966 14c0 01       		.byte	0x1
 5967 14c1 7801     		.2byte	0x178
 5968 14c3 B2000000 		.4byte	0xb2
 5969 14c7 00       		.byte	0
 5970 14c8 00       		.byte	0
 5971 14c9 2B       		.uleb128 0x2b
 5972 14ca 16020000 		.4byte	.LASF283
 5973 14ce 01       		.byte	0x1
 5974 14cf 0C01     		.2byte	0x10c
 5975 14d1 01       		.byte	0x1
 5976 14d2 01       		.byte	0x1
 5977 14d3 FA140000 		.4byte	0x14fa
 5978 14d7 26       		.uleb128 0x26
 5979 14d8 E3000000 		.4byte	.LASF278
 5980 14dc 01       		.byte	0x1
 5981 14dd 0C01     		.2byte	0x10c
 5982 14df 93070000 		.4byte	0x793
 5983 14e3 27       		.uleb128 0x27
 5984 14e4 62756600 		.ascii	"buf\000"
 5985 14e8 01       		.byte	0x1
 5986 14e9 0D01     		.2byte	0x10d
 5987 14eb 5E050000 		.4byte	0x55e
 5988 14ef 27       		.uleb128 0x27
 5989 14f0 6E00     		.ascii	"n\000"
 5990 14f2 01       		.byte	0x1
 5991 14f3 0E01     		.2byte	0x10e
 5992 14f5 86000000 		.4byte	0x86
 5993 14f9 00       		.byte	0
 5994 14fa 2C       		.uleb128 0x2c
 5995 14fb 590D0000 		.4byte	.LASF284
 5996 14ff 01       		.byte	0x1
 5997 1500 D4       		.byte	0xd4
 5998 1501 01       		.byte	0x1
 5999 1502 01       		.byte	0x1
 6000 1503 13150000 		.4byte	0x1513
 6001 1507 23       		.uleb128 0x23
 6002 1508 42060000 		.4byte	.LASF285
 6003 150c 01       		.byte	0x1
 6004 150d D4       		.byte	0xd4
 6005 150e 3D0A0000 		.4byte	0xa3d
 6006 1512 00       		.byte	0
 6007 1513 22       		.uleb128 0x22
 6008 1514 9F0E0000 		.4byte	.LASF286
 6009 1518 01       		.byte	0x1
 6010 1519 E1       		.byte	0xe1
 6011 151a 01       		.byte	0x1
ARM GAS  C:\Users\srich\AppData\Local\Temp\cc7Prgoh.s 			page 107


 6012 151b B2000000 		.4byte	0xb2
 6013 151f 01       		.byte	0x1
 6014 1520 46150000 		.4byte	0x1546
 6015 1524 23       		.uleb128 0x23
 6016 1525 42060000 		.4byte	.LASF285
 6017 1529 01       		.byte	0x1
 6018 152a E1       		.byte	0xe1
 6019 152b 3D0A0000 		.4byte	0xa3d
 6020 152f 23       		.uleb128 0x23
 6021 1530 200A0000 		.4byte	.LASF287
 6022 1534 01       		.byte	0x1
 6023 1535 E1       		.byte	0xe1
 6024 1536 86000000 		.4byte	0x86
 6025 153a 2D       		.uleb128 0x2d
 6026 153b 800E0000 		.4byte	.LASF288
 6027 153f 01       		.byte	0x1
 6028 1540 E2       		.byte	0xe2
 6029 1541 B2000000 		.4byte	0xb2
 6030 1545 00       		.byte	0
 6031 1546 2E       		.uleb128 0x2e
 6032 1547 01       		.byte	0x1
 6033 1548 92080000 		.4byte	.LASF289
 6034 154c 01       		.byte	0x1
 6035 154d 0105     		.2byte	0x501
 6036 154f 01       		.byte	0x1
 6037 1550 01       		.byte	0x1
 6038 1551 6D150000 		.4byte	0x156d
 6039 1555 26       		.uleb128 0x26
 6040 1556 42060000 		.4byte	.LASF285
 6041 155a 01       		.byte	0x1
 6042 155b 0105     		.2byte	0x501
 6043 155d 3D0A0000 		.4byte	0xa3d
 6044 1561 27       		.uleb128 0x27
 6045 1562 657000   		.ascii	"ep\000"
 6046 1565 01       		.byte	0x1
 6047 1566 0105     		.2byte	0x501
 6048 1568 0D090000 		.4byte	0x90d
 6049 156c 00       		.byte	0
 6050 156d 2E       		.uleb128 0x2e
 6051 156e 01       		.byte	0x1
 6052 156f 0F0A0000 		.4byte	.LASF290
 6053 1573 01       		.byte	0x1
 6054 1574 0E05     		.2byte	0x50e
 6055 1576 01       		.byte	0x1
 6056 1577 01       		.byte	0x1
 6057 1578 94150000 		.4byte	0x1594
 6058 157c 26       		.uleb128 0x26
 6059 157d 42060000 		.4byte	.LASF285
 6060 1581 01       		.byte	0x1
 6061 1582 0E05     		.2byte	0x50e
 6062 1584 3D0A0000 		.4byte	0xa3d
 6063 1588 27       		.uleb128 0x27
 6064 1589 657000   		.ascii	"ep\000"
 6065 158c 01       		.byte	0x1
 6066 158d 0E05     		.2byte	0x50e
 6067 158f 0D090000 		.4byte	0x90d
 6068 1593 00       		.byte	0
ARM GAS  C:\Users\srich\AppData\Local\Temp\cc7Prgoh.s 			page 108


 6069 1594 2B       		.uleb128 0x2b
 6070 1595 D9050000 		.4byte	.LASF291
 6071 1599 01       		.byte	0x1
 6072 159a 8102     		.2byte	0x281
 6073 159c 01       		.byte	0x1
 6074 159d 01       		.byte	0x1
 6075 159e F3150000 		.4byte	0x15f3
 6076 15a2 26       		.uleb128 0x26
 6077 15a3 42060000 		.4byte	.LASF285
 6078 15a7 01       		.byte	0x1
 6079 15a8 8102     		.2byte	0x281
 6080 15aa 3D0A0000 		.4byte	0xa3d
 6081 15ae 2F       		.uleb128 0x2f
 6082 15af 060E0000 		.4byte	.LASF292
 6083 15b3 01       		.byte	0x1
 6084 15b4 8202     		.2byte	0x282
 6085 15b6 A2130000 		.4byte	0x13a2
 6086 15ba 29       		.uleb128 0x29
 6087 15bb 73747300 		.ascii	"sts\000"
 6088 15bf 01       		.byte	0x1
 6089 15c0 8302     		.2byte	0x283
 6090 15c2 B2000000 		.4byte	0xb2
 6091 15c6 29       		.uleb128 0x29
 6092 15c7 73726300 		.ascii	"src\000"
 6093 15cb 01       		.byte	0x1
 6094 15cc 8302     		.2byte	0x283
 6095 15ce B2000000 		.4byte	0xb2
 6096 15d2 30       		.uleb128 0x30
 6097 15d3 E4150000 		.4byte	0x15e4
 6098 15d7 29       		.uleb128 0x29
 6099 15d8 746D7000 		.ascii	"tmp\000"
 6100 15dc 01       		.byte	0x1
 6101 15dd 9D02     		.2byte	0x29d
 6102 15df B2000000 		.4byte	0xb2
 6103 15e3 00       		.byte	0
 6104 15e4 28       		.uleb128 0x28
 6105 15e5 29       		.uleb128 0x29
 6106 15e6 746D7000 		.ascii	"tmp\000"
 6107 15ea 01       		.byte	0x1
 6108 15eb A002     		.2byte	0x2a0
 6109 15ed B2000000 		.4byte	0xb2
 6110 15f1 00       		.byte	0
 6111 15f2 00       		.byte	0
 6112 15f3 31       		.uleb128 0x31
 6113 15f4 D20E0000 		.4byte	.LASF293
 6114 15f8 01       		.byte	0x1
 6115 15f9 94       		.byte	0x94
 6116 15fa 01       		.byte	0x1
 6117 15fb 00000000 		.4byte	.LFB120
 6118 15ff 82000000 		.4byte	.LFE120
 6119 1603 00000000 		.4byte	.LLST0
 6120 1607 01       		.byte	0x1
 6121 1608 36160000 		.4byte	0x1636
 6122 160c 32       		.uleb128 0x32
 6123 160d 42060000 		.4byte	.LASF285
 6124 1611 01       		.byte	0x1
 6125 1612 94       		.byte	0x94
ARM GAS  C:\Users\srich\AppData\Local\Temp\cc7Prgoh.s 			page 109


 6126 1613 3D0A0000 		.4byte	0xa3d
 6127 1617 20000000 		.4byte	.LLST1
 6128 161b 33       		.uleb128 0x33
 6129 161c 060E0000 		.4byte	.LASF292
 6130 1620 01       		.byte	0x1
 6131 1621 95       		.byte	0x95
 6132 1622 A2130000 		.4byte	0x13a2
 6133 1626 01       		.byte	0x1
 6134 1627 53       		.byte	0x53
 6135 1628 34       		.uleb128 0x34
 6136 1629 6900     		.ascii	"i\000"
 6137 162b 01       		.byte	0x1
 6138 162c 96       		.byte	0x96
 6139 162d 25000000 		.4byte	0x25
 6140 1631 41000000 		.4byte	.LLST2
 6141 1635 00       		.byte	0
 6142 1636 35       		.uleb128 0x35
 6143 1637 D30B0000 		.4byte	.LASF294
 6144 163b 01       		.byte	0x1
 6145 163c C3       		.byte	0xc3
 6146 163d 01       		.byte	0x1
 6147 163e 00000000 		.4byte	.LFB122
 6148 1642 16000000 		.4byte	.LFE122
 6149 1646 02       		.byte	0x2
 6150 1647 7D       		.byte	0x7d
 6151 1648 00       		.sleb128 0
 6152 1649 01       		.byte	0x1
 6153 164a 8C160000 		.4byte	0x168c
 6154 164e 32       		.uleb128 0x32
 6155 164f 42060000 		.4byte	.LASF285
 6156 1653 01       		.byte	0x1
 6157 1654 C3       		.byte	0xc3
 6158 1655 3D0A0000 		.4byte	0xa3d
 6159 1659 6B000000 		.4byte	.LLST3
 6160 165d 32       		.uleb128 0x32
 6161 165e C4010000 		.4byte	.LASF295
 6162 1662 01       		.byte	0x1
 6163 1663 C3       		.byte	0xc3
 6164 1664 B2000000 		.4byte	0xb2
 6165 1668 8C000000 		.4byte	.LLST4
 6166 166c 36       		.uleb128 0x36
 6167 166d 060E0000 		.4byte	.LASF292
 6168 1671 01       		.byte	0x1
 6169 1672 C4       		.byte	0xc4
 6170 1673 A2130000 		.4byte	0x13a2
 6171 1677 AD000000 		.4byte	.LLST5
 6172 167b 37       		.uleb128 0x37
 6173 167c 16000000 		.4byte	.LVL11
 6174 1680 01       		.byte	0x1
 6175 1681 64280000 		.4byte	0x2864
 6176 1685 38       		.uleb128 0x38
 6177 1686 01       		.byte	0x1
 6178 1687 50       		.byte	0x50
 6179 1688 01       		.byte	0x1
 6180 1689 3C       		.byte	0x3c
 6181 168a 00       		.byte	0
 6182 168b 00       		.byte	0
ARM GAS  C:\Users\srich\AppData\Local\Temp\cc7Prgoh.s 			page 110


 6183 168c 2B       		.uleb128 0x2b
 6184 168d A9030000 		.4byte	.LASF296
 6185 1691 01       		.byte	0x1
 6186 1692 C401     		.2byte	0x1c4
 6187 1694 01       		.byte	0x1
 6188 1695 01       		.byte	0x1
 6189 1696 CA160000 		.4byte	0x16ca
 6190 169a 26       		.uleb128 0x26
 6191 169b 42060000 		.4byte	.LASF285
 6192 169f 01       		.byte	0x1
 6193 16a0 C401     		.2byte	0x1c4
 6194 16a2 3D0A0000 		.4byte	0xa3d
 6195 16a6 29       		.uleb128 0x29
 6196 16a7 73747300 		.ascii	"sts\000"
 6197 16ab 01       		.byte	0x1
 6198 16ac C501     		.2byte	0x1c5
 6199 16ae B2000000 		.4byte	0xb2
 6200 16b2 29       		.uleb128 0x29
 6201 16b3 636E7400 		.ascii	"cnt\000"
 6202 16b7 01       		.byte	0x1
 6203 16b8 C501     		.2byte	0x1c5
 6204 16ba B2000000 		.4byte	0xb2
 6205 16be 29       		.uleb128 0x29
 6206 16bf 657000   		.ascii	"ep\000"
 6207 16c2 01       		.byte	0x1
 6208 16c3 C501     		.2byte	0x1c5
 6209 16c5 B2000000 		.4byte	0xb2
 6210 16c9 00       		.byte	0
 6211 16ca 2B       		.uleb128 0x2b
 6212 16cb E90C0000 		.4byte	.LASF297
 6213 16cf 01       		.byte	0x1
 6214 16d0 8D01     		.2byte	0x18d
 6215 16d2 01       		.byte	0x1
 6216 16d3 01       		.byte	0x1
 6217 16d4 66170000 		.4byte	0x1766
 6218 16d8 26       		.uleb128 0x26
 6219 16d9 E3000000 		.4byte	.LASF278
 6220 16dd 01       		.byte	0x1
 6221 16de 8D01     		.2byte	0x18d
 6222 16e0 93070000 		.4byte	0x793
 6223 16e4 27       		.uleb128 0x27
 6224 16e5 69717000 		.ascii	"iqp\000"
 6225 16e9 01       		.byte	0x1
 6226 16ea 8E01     		.2byte	0x18e
 6227 16ec DD110000 		.4byte	0x11dd
 6228 16f0 27       		.uleb128 0x27
 6229 16f1 6E00     		.ascii	"n\000"
 6230 16f3 01       		.byte	0x1
 6231 16f4 8F01     		.2byte	0x18f
 6232 16f6 86000000 		.4byte	0x86
 6233 16fa 2F       		.uleb128 0x2f
 6234 16fb B30D0000 		.4byte	.LASF298
 6235 16ff 01       		.byte	0x1
 6236 1700 9001     		.2byte	0x190
 6237 1702 86000000 		.4byte	0x86
 6238 1706 30       		.uleb128 0x30
 6239 1707 45170000 		.4byte	0x1745
ARM GAS  C:\Users\srich\AppData\Local\Temp\cc7Prgoh.s 			page 111


 6240 170b 29       		.uleb128 0x29
 6241 170c 7700     		.ascii	"w\000"
 6242 170e 01       		.byte	0x1
 6243 170f 9401     		.2byte	0x194
 6244 1711 B2000000 		.4byte	0xb2
 6245 1715 29       		.uleb128 0x29
 6246 1716 6900     		.ascii	"i\000"
 6247 1718 01       		.byte	0x1
 6248 1719 9401     		.2byte	0x194
 6249 171b B2000000 		.4byte	0xb2
 6250 171f 29       		.uleb128 0x29
 6251 1720 6E7700   		.ascii	"nw\000"
 6252 1723 01       		.byte	0x1
 6253 1724 9501     		.2byte	0x195
 6254 1726 86000000 		.4byte	0x86
 6255 172a 28       		.uleb128 0x28
 6256 172b 2F       		.uleb128 0x2f
 6257 172c A9040000 		.4byte	.LASF299
 6258 1730 01       		.byte	0x1
 6259 1731 9801     		.2byte	0x198
 6260 1733 86000000 		.4byte	0x86
 6261 1737 2F       		.uleb128 0x2f
 6262 1738 10080000 		.4byte	.LASF300
 6263 173c 01       		.byte	0x1
 6264 173d 9901     		.2byte	0x199
 6265 173f B2000000 		.4byte	0xb2
 6266 1743 00       		.byte	0
 6267 1744 00       		.byte	0
 6268 1745 30       		.uleb128 0x30
 6269 1746 57170000 		.4byte	0x1757
 6270 174a 29       		.uleb128 0x29
 6271 174b 746D7000 		.ascii	"tmp\000"
 6272 174f 01       		.byte	0x1
 6273 1750 B501     		.2byte	0x1b5
 6274 1752 B2000000 		.4byte	0xb2
 6275 1756 00       		.byte	0
 6276 1757 28       		.uleb128 0x28
 6277 1758 29       		.uleb128 0x29
 6278 1759 746D7000 		.ascii	"tmp\000"
 6279 175d 01       		.byte	0x1
 6280 175e BA01     		.2byte	0x1ba
 6281 1760 B2000000 		.4byte	0xb2
 6282 1764 00       		.byte	0
 6283 1765 00       		.byte	0
 6284 1766 25       		.uleb128 0x25
 6285 1767 C3060000 		.4byte	.LASF301
 6286 176b 01       		.byte	0x1
 6287 176c F301     		.2byte	0x1f3
 6288 176e 01       		.byte	0x1
 6289 176f C8000000 		.4byte	0xc8
 6290 1773 01       		.byte	0x1
 6291 1774 9C170000 		.4byte	0x179c
 6292 1778 26       		.uleb128 0x26
 6293 1779 42060000 		.4byte	.LASF285
 6294 177d 01       		.byte	0x1
 6295 177e F301     		.2byte	0x1f3
 6296 1780 3D0A0000 		.4byte	0xa3d
ARM GAS  C:\Users\srich\AppData\Local\Temp\cc7Prgoh.s 			page 112


 6297 1784 27       		.uleb128 0x27
 6298 1785 657000   		.ascii	"ep\000"
 6299 1788 01       		.byte	0x1
 6300 1789 F301     		.2byte	0x1f3
 6301 178b 0D090000 		.4byte	0x90d
 6302 178f 28       		.uleb128 0x28
 6303 1790 29       		.uleb128 0x29
 6304 1791 6E00     		.ascii	"n\000"
 6305 1793 01       		.byte	0x1
 6306 1794 F701     		.2byte	0x1f7
 6307 1796 B2000000 		.4byte	0xb2
 6308 179a 00       		.byte	0
 6309 179b 00       		.byte	0
 6310 179c 2B       		.uleb128 0x2b
 6311 179d 3A020000 		.4byte	.LASF302
 6312 17a1 01       		.byte	0x1
 6313 17a2 1C01     		.2byte	0x11c
 6314 17a4 01       		.byte	0x1
 6315 17a5 01       		.byte	0x1
 6316 17a6 38180000 		.4byte	0x1838
 6317 17aa 26       		.uleb128 0x26
 6318 17ab E3000000 		.4byte	.LASF278
 6319 17af 01       		.byte	0x1
 6320 17b0 1C01     		.2byte	0x11c
 6321 17b2 93070000 		.4byte	0x793
 6322 17b6 27       		.uleb128 0x27
 6323 17b7 6F717000 		.ascii	"oqp\000"
 6324 17bb 01       		.byte	0x1
 6325 17bc 1D01     		.2byte	0x11d
 6326 17be 2C110000 		.4byte	0x112c
 6327 17c2 27       		.uleb128 0x27
 6328 17c3 6E00     		.ascii	"n\000"
 6329 17c5 01       		.byte	0x1
 6330 17c6 1E01     		.2byte	0x11e
 6331 17c8 86000000 		.4byte	0x86
 6332 17cc 2F       		.uleb128 0x2f
 6333 17cd B30D0000 		.4byte	.LASF298
 6334 17d1 01       		.byte	0x1
 6335 17d2 1F01     		.2byte	0x11f
 6336 17d4 86000000 		.4byte	0x86
 6337 17d8 30       		.uleb128 0x30
 6338 17d9 17180000 		.4byte	0x1817
 6339 17dd 29       		.uleb128 0x29
 6340 17de 7700     		.ascii	"w\000"
 6341 17e0 01       		.byte	0x1
 6342 17e1 2301     		.2byte	0x123
 6343 17e3 B2000000 		.4byte	0xb2
 6344 17e7 29       		.uleb128 0x29
 6345 17e8 6900     		.ascii	"i\000"
 6346 17ea 01       		.byte	0x1
 6347 17eb 2301     		.2byte	0x123
 6348 17ed B2000000 		.4byte	0xb2
 6349 17f1 29       		.uleb128 0x29
 6350 17f2 6E7700   		.ascii	"nw\000"
 6351 17f5 01       		.byte	0x1
 6352 17f6 2401     		.2byte	0x124
 6353 17f8 86000000 		.4byte	0x86
ARM GAS  C:\Users\srich\AppData\Local\Temp\cc7Prgoh.s 			page 113


 6354 17fc 28       		.uleb128 0x28
 6355 17fd 2F       		.uleb128 0x2f
 6356 17fe A9040000 		.4byte	.LASF299
 6357 1802 01       		.byte	0x1
 6358 1803 2701     		.2byte	0x127
 6359 1805 86000000 		.4byte	0x86
 6360 1809 2F       		.uleb128 0x2f
 6361 180a 10080000 		.4byte	.LASF300
 6362 180e 01       		.byte	0x1
 6363 180f 2801     		.2byte	0x128
 6364 1811 B2000000 		.4byte	0xb2
 6365 1815 00       		.byte	0
 6366 1816 00       		.byte	0
 6367 1817 30       		.uleb128 0x30
 6368 1818 29180000 		.4byte	0x1829
 6369 181c 29       		.uleb128 0x29
 6370 181d 746D7000 		.ascii	"tmp\000"
 6371 1821 01       		.byte	0x1
 6372 1822 4501     		.2byte	0x145
 6373 1824 B2000000 		.4byte	0xb2
 6374 1828 00       		.byte	0
 6375 1829 28       		.uleb128 0x28
 6376 182a 29       		.uleb128 0x29
 6377 182b 746D7000 		.ascii	"tmp\000"
 6378 182f 01       		.byte	0x1
 6379 1830 4A01     		.2byte	0x14a
 6380 1832 B2000000 		.4byte	0xb2
 6381 1836 00       		.byte	0
 6382 1837 00       		.byte	0
 6383 1838 39       		.uleb128 0x39
 6384 1839 AB090000 		.4byte	.LASF348
 6385 183d 01       		.byte	0x1
 6386 183e CB02     		.2byte	0x2cb
 6387 1840 01       		.byte	0x1
 6388 1841 11010000 		.4byte	0x111
 6389 1845 00000000 		.4byte	.LFB136
 6390 1849 96040000 		.4byte	.LFE136
 6391 184d C0000000 		.4byte	.LLST6
 6392 1851 01       		.byte	0x1
 6393 1852 FA1C0000 		.4byte	0x1cfa
 6394 1856 3A       		.uleb128 0x3a
 6395 1857 7000     		.ascii	"p\000"
 6396 1859 01       		.byte	0x1
 6397 185a CB02     		.2byte	0x2cb
 6398 185c 6B000000 		.4byte	0x6b
 6399 1860 ED000000 		.4byte	.LLST7
 6400 1864 3B       		.uleb128 0x3b
 6401 1865 42060000 		.4byte	.LASF285
 6402 1869 01       		.byte	0x1
 6403 186a CC02     		.2byte	0x2cc
 6404 186c 3D0A0000 		.4byte	0xa3d
 6405 1870 0B010000 		.4byte	.LLST8
 6406 1874 3C       		.uleb128 0x3c
 6407 1875 060E0000 		.4byte	.LASF292
 6408 1879 01       		.byte	0x1
 6409 187a CD02     		.2byte	0x2cd
 6410 187c A2130000 		.4byte	0x13a2
ARM GAS  C:\Users\srich\AppData\Local\Temp\cc7Prgoh.s 			page 114


 6411 1880 01       		.byte	0x1
 6412 1881 5A       		.byte	0x5a
 6413 1882 3D       		.uleb128 0x3d
 6414 1883 00000000 		.4byte	.Ldebug_ranges0+0
 6415 1887 9C180000 		.4byte	0x189c
 6416 188b 3E       		.uleb128 0x3e
 6417 188c 746D7000 		.ascii	"tmp\000"
 6418 1890 01       		.byte	0x1
 6419 1891 D002     		.2byte	0x2d0
 6420 1893 B2000000 		.4byte	0xb2
 6421 1897 29010000 		.4byte	.LLST9
 6422 189b 00       		.byte	0
 6423 189c 3F       		.uleb128 0x3f
 6424 189d 18000000 		.4byte	.Ldebug_ranges0+0x18
 6425 18a1 3E       		.uleb128 0x3e
 6426 18a2 657000   		.ascii	"ep\000"
 6427 18a5 01       		.byte	0x1
 6428 18a6 D202     		.2byte	0x2d2
 6429 18a8 0D090000 		.4byte	0x90d
 6430 18ac 3C010000 		.4byte	.LLST10
 6431 18b0 3B       		.uleb128 0x3b
 6432 18b1 40040000 		.4byte	.LASF303
 6433 18b5 01       		.byte	0x1
 6434 18b6 D302     		.2byte	0x2d3
 6435 18b8 B2000000 		.4byte	0xb2
 6436 18bc 66010000 		.4byte	.LLST11
 6437 18c0 3D       		.uleb128 0x3d
 6438 18c1 30000000 		.4byte	.Ldebug_ranges0+0x30
 6439 18c5 DA180000 		.4byte	0x18da
 6440 18c9 3E       		.uleb128 0x3e
 6441 18ca 746D7000 		.ascii	"tmp\000"
 6442 18ce 01       		.byte	0x1
 6443 18cf DC02     		.2byte	0x2dc
 6444 18d1 B2000000 		.4byte	0xb2
 6445 18d5 9C010000 		.4byte	.LLST12
 6446 18d9 00       		.byte	0
 6447 18da 40       		.uleb128 0x40
 6448 18db 8C160000 		.4byte	0x168c
 6449 18df 6C000000 		.4byte	.LBB102
 6450 18e3 48000000 		.4byte	.Ldebug_ranges0+0x48
 6451 18e7 01       		.byte	0x1
 6452 18e8 E302     		.2byte	0x2e3
 6453 18ea 9A1A0000 		.4byte	0x1a9a
 6454 18ee 41       		.uleb128 0x41
 6455 18ef 9A160000 		.4byte	0x169a
 6456 18f3 C5010000 		.4byte	.LLST13
 6457 18f7 3F       		.uleb128 0x3f
 6458 18f8 60000000 		.4byte	.Ldebug_ranges0+0x60
 6459 18fc 42       		.uleb128 0x42
 6460 18fd A6160000 		.4byte	0x16a6
 6461 1901 E3010000 		.4byte	.LLST14
 6462 1905 42       		.uleb128 0x42
 6463 1906 B2160000 		.4byte	0x16b2
 6464 190a 01020000 		.4byte	.LLST15
 6465 190e 42       		.uleb128 0x42
 6466 190f BE160000 		.4byte	0x16be
 6467 1913 32020000 		.4byte	.LLST16
ARM GAS  C:\Users\srich\AppData\Local\Temp\cc7Prgoh.s 			page 115


 6468 1917 40       		.uleb128 0x40
 6469 1918 80140000 		.4byte	0x1480
 6470 191c 90000000 		.4byte	.LBB104
 6471 1920 78000000 		.4byte	.Ldebug_ranges0+0x78
 6472 1924 01       		.byte	0x1
 6473 1925 CE01     		.2byte	0x1ce
 6474 1927 5F190000 		.4byte	0x195f
 6475 192b 41       		.uleb128 0x41
 6476 192c B0140000 		.4byte	0x14b0
 6477 1930 6E020000 		.4byte	.LLST17
 6478 1934 41       		.uleb128 0x41
 6479 1935 A6140000 		.4byte	0x14a6
 6480 1939 A4020000 		.4byte	.LLST18
 6481 193d 41       		.uleb128 0x41
 6482 193e 9A140000 		.4byte	0x149a
 6483 1942 D1020000 		.4byte	.LLST19
 6484 1946 41       		.uleb128 0x41
 6485 1947 8E140000 		.4byte	0x148e
 6486 194b E4020000 		.4byte	.LLST20
 6487 194f 3F       		.uleb128 0x3f
 6488 1950 90000000 		.4byte	.Ldebug_ranges0+0x90
 6489 1954 42       		.uleb128 0x42
 6490 1955 BD140000 		.4byte	0x14bd
 6491 1959 17030000 		.4byte	.LLST21
 6492 195d 00       		.byte	0
 6493 195e 00       		.byte	0
 6494 195f 43       		.uleb128 0x43
 6495 1960 80140000 		.4byte	0x1480
 6496 1964 2A010000 		.4byte	.LBB113
 6497 1968 88010000 		.4byte	.LBE113
 6498 196c 01       		.byte	0x1
 6499 196d DB01     		.2byte	0x1db
 6500 196f A7190000 		.4byte	0x19a7
 6501 1973 41       		.uleb128 0x41
 6502 1974 B0140000 		.4byte	0x14b0
 6503 1978 36030000 		.4byte	.LLST22
 6504 197c 41       		.uleb128 0x41
 6505 197d A6140000 		.4byte	0x14a6
 6506 1981 84030000 		.4byte	.LLST23
 6507 1985 41       		.uleb128 0x41
 6508 1986 9A140000 		.4byte	0x149a
 6509 198a C0030000 		.4byte	.LLST24
 6510 198e 41       		.uleb128 0x41
 6511 198f 8E140000 		.4byte	0x148e
 6512 1993 DE030000 		.4byte	.LLST25
 6513 1997 3F       		.uleb128 0x3f
 6514 1998 C0000000 		.4byte	.Ldebug_ranges0+0xc0
 6515 199c 42       		.uleb128 0x42
 6516 199d BD140000 		.4byte	0x14bd
 6517 19a1 11040000 		.4byte	.LLST26
 6518 19a5 00       		.byte	0
 6519 19a6 00       		.byte	0
 6520 19a7 44       		.uleb128 0x44
 6521 19a8 CA160000 		.4byte	0x16ca
 6522 19ac A2010000 		.4byte	.LBB118
 6523 19b0 60020000 		.4byte	.LBE118
 6524 19b4 01       		.byte	0x1
ARM GAS  C:\Users\srich\AppData\Local\Temp\cc7Prgoh.s 			page 116


 6525 19b5 D601     		.2byte	0x1d6
 6526 19b7 41       		.uleb128 0x41
 6527 19b8 F0160000 		.4byte	0x16f0
 6528 19bc 24040000 		.4byte	.LLST27
 6529 19c0 41       		.uleb128 0x41
 6530 19c1 E4160000 		.4byte	0x16e4
 6531 19c5 37040000 		.4byte	.LLST28
 6532 19c9 41       		.uleb128 0x41
 6533 19ca D8160000 		.4byte	0x16d8
 6534 19ce 4A040000 		.4byte	.LLST29
 6535 19d2 45       		.uleb128 0x45
 6536 19d3 A2010000 		.4byte	.LBB119
 6537 19d7 60020000 		.4byte	.LBE119
 6538 19db 42       		.uleb128 0x42
 6539 19dc FA160000 		.4byte	0x16fa
 6540 19e0 6F040000 		.4byte	.LLST30
 6541 19e4 46       		.uleb128 0x46
 6542 19e5 AA010000 		.4byte	.LBB120
 6543 19e9 28020000 		.4byte	.LBE120
 6544 19ed 251A0000 		.4byte	0x1a25
 6545 19f1 42       		.uleb128 0x42
 6546 19f2 0B170000 		.4byte	0x170b
 6547 19f6 CC040000 		.4byte	.LLST31
 6548 19fa 42       		.uleb128 0x42
 6549 19fb 15170000 		.4byte	0x1715
 6550 19ff DF040000 		.4byte	.LLST32
 6551 1a03 42       		.uleb128 0x42
 6552 1a04 1F170000 		.4byte	0x171f
 6553 1a08 17050000 		.4byte	.LLST33
 6554 1a0c 3F       		.uleb128 0x3f
 6555 1a0d E0000000 		.4byte	.Ldebug_ranges0+0xe0
 6556 1a11 42       		.uleb128 0x42
 6557 1a12 2B170000 		.4byte	0x172b
 6558 1a16 3D050000 		.4byte	.LLST34
 6559 1a1a 42       		.uleb128 0x42
 6560 1a1b 37170000 		.4byte	0x1737
 6561 1a1f 3D050000 		.4byte	.LLST34
 6562 1a23 00       		.byte	0
 6563 1a24 00       		.byte	0
 6564 1a25 46       		.uleb128 0x46
 6565 1a26 28020000 		.4byte	.LBB124
 6566 1a2a 2E020000 		.4byte	.LBE124
 6567 1a2e 3C1A0000 		.4byte	0x1a3c
 6568 1a32 42       		.uleb128 0x42
 6569 1a33 4A170000 		.4byte	0x174a
 6570 1a37 51050000 		.4byte	.LLST36
 6571 1a3b 00       		.byte	0
 6572 1a3c 43       		.uleb128 0x43
 6573 1a3d 53140000 		.4byte	0x1453
 6574 1a41 3A020000 		.4byte	.LBB125
 6575 1a45 40020000 		.4byte	.LBE125
 6576 1a49 01       		.byte	0x1
 6577 1a4a B801     		.2byte	0x1b8
 6578 1a4c 6D1A0000 		.4byte	0x1a6d
 6579 1a50 41       		.uleb128 0x41
 6580 1a51 64140000 		.4byte	0x1464
 6581 1a55 6F050000 		.4byte	.LLST37
ARM GAS  C:\Users\srich\AppData\Local\Temp\cc7Prgoh.s 			page 117


 6582 1a59 45       		.uleb128 0x45
 6583 1a5a 3A020000 		.4byte	.LBB126
 6584 1a5e 40020000 		.4byte	.LBE126
 6585 1a62 42       		.uleb128 0x42
 6586 1a63 6F140000 		.4byte	0x146f
 6587 1a67 82050000 		.4byte	.LLST38
 6588 1a6b 00       		.byte	0
 6589 1a6c 00       		.byte	0
 6590 1a6d 46       		.uleb128 0x46
 6591 1a6e 52020000 		.4byte	.LBB127
 6592 1a72 60020000 		.4byte	.LBE127
 6593 1a76 841A0000 		.4byte	0x1a84
 6594 1a7a 42       		.uleb128 0x42
 6595 1a7b 58170000 		.4byte	0x1758
 6596 1a7f 95050000 		.4byte	.LLST39
 6597 1a83 00       		.byte	0
 6598 1a84 47       		.uleb128 0x47
 6599 1a85 44020000 		.4byte	.LVL95
 6600 1a89 78280000 		.4byte	0x2878
 6601 1a8d 47       		.uleb128 0x47
 6602 1a8e 52020000 		.4byte	.LVL97
 6603 1a92 90280000 		.4byte	0x2890
 6604 1a96 00       		.byte	0
 6605 1a97 00       		.byte	0
 6606 1a98 00       		.byte	0
 6607 1a99 00       		.byte	0
 6608 1a9a 46       		.uleb128 0x46
 6609 1a9b 04010000 		.4byte	.LBB129
 6610 1a9f 0A010000 		.4byte	.LBE129
 6611 1aa3 B81A0000 		.4byte	0x1ab8
 6612 1aa7 3E       		.uleb128 0x3e
 6613 1aa8 746D7000 		.ascii	"tmp\000"
 6614 1aac 01       		.byte	0x1
 6615 1aad FF02     		.2byte	0x2ff
 6616 1aaf B2000000 		.4byte	0xb2
 6617 1ab3 D4050000 		.4byte	.LLST40
 6618 1ab7 00       		.byte	0
 6619 1ab8 46       		.uleb128 0x46
 6620 1ab9 60020000 		.4byte	.LBB131
 6621 1abd 96040000 		.4byte	.LBE131
 6622 1ac1 E91C0000 		.4byte	0x1ce9
 6623 1ac5 3C       		.uleb128 0x3c
 6624 1ac6 86060000 		.4byte	.LASF304
 6625 1aca 01       		.byte	0x1
 6626 1acb E802     		.2byte	0x2e8
 6627 1acd C8000000 		.4byte	0xc8
 6628 1ad1 01       		.byte	0x1
 6629 1ad2 52       		.byte	0x52
 6630 1ad3 46       		.uleb128 0x46
 6631 1ad4 60020000 		.4byte	.LBB132
 6632 1ad8 66020000 		.4byte	.LBE132
 6633 1adc F11A0000 		.4byte	0x1af1
 6634 1ae0 3E       		.uleb128 0x3e
 6635 1ae1 746D7000 		.ascii	"tmp\000"
 6636 1ae5 01       		.byte	0x1
 6637 1ae6 EA02     		.2byte	0x2ea
 6638 1ae8 B2000000 		.4byte	0xb2
ARM GAS  C:\Users\srich\AppData\Local\Temp\cc7Prgoh.s 			page 118


 6639 1aec F2050000 		.4byte	.LLST41
 6640 1af0 00       		.byte	0
 6641 1af1 3D       		.uleb128 0x3d
 6642 1af2 00010000 		.4byte	.Ldebug_ranges0+0x100
 6643 1af6 0B1B0000 		.4byte	0x1b0b
 6644 1afa 3E       		.uleb128 0x3e
 6645 1afb 746D7000 		.ascii	"tmp\000"
 6646 1aff 01       		.byte	0x1
 6647 1b00 F402     		.2byte	0x2f4
 6648 1b02 B2000000 		.4byte	0xb2
 6649 1b06 05060000 		.4byte	.LLST42
 6650 1b0a 00       		.byte	0
 6651 1b0b 40       		.uleb128 0x40
 6652 1b0c 66170000 		.4byte	0x1766
 6653 1b10 86020000 		.4byte	.LBB135
 6654 1b14 18010000 		.4byte	.Ldebug_ranges0+0x118
 6655 1b18 01       		.byte	0x1
 6656 1b19 F602     		.2byte	0x2f6
 6657 1b1b B01C0000 		.4byte	0x1cb0
 6658 1b1f 41       		.uleb128 0x41
 6659 1b20 84170000 		.4byte	0x1784
 6660 1b24 18060000 		.4byte	.LLST43
 6661 1b28 48       		.uleb128 0x48
 6662 1b29 78170000 		.4byte	0x1778
 6663 1b2d 01       		.byte	0x1
 6664 1b2e 5B       		.byte	0x5b
 6665 1b2f 3F       		.uleb128 0x3f
 6666 1b30 30010000 		.4byte	.Ldebug_ranges0+0x130
 6667 1b34 42       		.uleb128 0x42
 6668 1b35 90170000 		.4byte	0x1790
 6669 1b39 63060000 		.4byte	.LLST44
 6670 1b3d 40       		.uleb128 0x40
 6671 1b3e C9140000 		.4byte	0x14c9
 6672 1b42 CC020000 		.4byte	.LBB137
 6673 1b46 48010000 		.4byte	.Ldebug_ranges0+0x148
 6674 1b4a 01       		.byte	0x1
 6675 1b4b 1302     		.2byte	0x213
 6676 1b4d 991B0000 		.4byte	0x1b99
 6677 1b51 41       		.uleb128 0x41
 6678 1b52 EF140000 		.4byte	0x14ef
 6679 1b56 B8060000 		.4byte	.LLST45
 6680 1b5a 41       		.uleb128 0x41
 6681 1b5b E3140000 		.4byte	0x14e3
 6682 1b5f CB060000 		.4byte	.LLST46
 6683 1b63 41       		.uleb128 0x41
 6684 1b64 D7140000 		.4byte	0x14d7
 6685 1b68 DE060000 		.4byte	.LLST47
 6686 1b6c 49       		.uleb128 0x49
 6687 1b6d E1130000 		.4byte	0x13e1
 6688 1b71 CE020000 		.4byte	.LBB139
 6689 1b75 68010000 		.4byte	.Ldebug_ranges0+0x168
 6690 1b79 01       		.byte	0x1
 6691 1b7a 1001     		.2byte	0x110
 6692 1b7c 41       		.uleb128 0x41
 6693 1b7d 08140000 		.4byte	0x1408
 6694 1b81 F1060000 		.4byte	.LLST48
 6695 1b85 41       		.uleb128 0x41
ARM GAS  C:\Users\srich\AppData\Local\Temp\cc7Prgoh.s 			page 119


 6696 1b86 FD130000 		.4byte	0x13fd
 6697 1b8a 04070000 		.4byte	.LLST49
 6698 1b8e 41       		.uleb128 0x41
 6699 1b8f F2130000 		.4byte	0x13f2
 6700 1b93 DE060000 		.4byte	.LLST47
 6701 1b97 00       		.byte	0
 6702 1b98 00       		.byte	0
 6703 1b99 49       		.uleb128 0x49
 6704 1b9a 9C170000 		.4byte	0x179c
 6705 1b9e 4E030000 		.4byte	.LBB149
 6706 1ba2 88010000 		.4byte	.Ldebug_ranges0+0x188
 6707 1ba6 01       		.byte	0x1
 6708 1ba7 0D02     		.2byte	0x20d
 6709 1ba9 41       		.uleb128 0x41
 6710 1baa C2170000 		.4byte	0x17c2
 6711 1bae 17070000 		.4byte	.LLST51
 6712 1bb2 41       		.uleb128 0x41
 6713 1bb3 B6170000 		.4byte	0x17b6
 6714 1bb7 4B070000 		.4byte	.LLST52
 6715 1bbb 41       		.uleb128 0x41
 6716 1bbc AA170000 		.4byte	0x17aa
 6717 1bc0 5E070000 		.4byte	.LLST53
 6718 1bc4 3F       		.uleb128 0x3f
 6719 1bc5 A0010000 		.4byte	.Ldebug_ranges0+0x1a0
 6720 1bc9 42       		.uleb128 0x42
 6721 1bca CC170000 		.4byte	0x17cc
 6722 1bce 7C070000 		.4byte	.LLST54
 6723 1bd2 3D       		.uleb128 0x3d
 6724 1bd3 B8010000 		.4byte	.Ldebug_ranges0+0x1b8
 6725 1bd7 3B1C0000 		.4byte	0x1c3b
 6726 1bdb 42       		.uleb128 0x42
 6727 1bdc DD170000 		.4byte	0x17dd
 6728 1be0 E4070000 		.4byte	.LLST55
 6729 1be4 42       		.uleb128 0x42
 6730 1be5 E7170000 		.4byte	0x17e7
 6731 1be9 03080000 		.4byte	.LLST56
 6732 1bed 42       		.uleb128 0x42
 6733 1bee F1170000 		.4byte	0x17f1
 6734 1bf2 47080000 		.4byte	.LLST57
 6735 1bf6 45       		.uleb128 0x45
 6736 1bf7 8E030000 		.4byte	.LBB152
 6737 1bfb EA030000 		.4byte	.LBE152
 6738 1bff 42       		.uleb128 0x42
 6739 1c00 FD170000 		.4byte	0x17fd
 6740 1c04 69080000 		.4byte	.LLST58
 6741 1c08 42       		.uleb128 0x42
 6742 1c09 09180000 		.4byte	0x1809
 6743 1c0d 96080000 		.4byte	.LLST59
 6744 1c11 44       		.uleb128 0x44
 6745 1c12 E1130000 		.4byte	0x13e1
 6746 1c16 A6030000 		.4byte	.LBB153
 6747 1c1a E0030000 		.4byte	.LBE153
 6748 1c1e 01       		.byte	0x1
 6749 1c1f 2B01     		.2byte	0x12b
 6750 1c21 41       		.uleb128 0x41
 6751 1c22 FD130000 		.4byte	0x13fd
 6752 1c26 D6080000 		.4byte	.LLST60
ARM GAS  C:\Users\srich\AppData\Local\Temp\cc7Prgoh.s 			page 120


 6753 1c2a 41       		.uleb128 0x41
 6754 1c2b 08140000 		.4byte	0x1408
 6755 1c2f E9080000 		.4byte	.LLST61
 6756 1c33 4A       		.uleb128 0x4a
 6757 1c34 F2130000 		.4byte	0x13f2
 6758 1c38 00       		.byte	0
 6759 1c39 00       		.byte	0
 6760 1c3a 00       		.byte	0
 6761 1c3b 46       		.uleb128 0x46
 6762 1c3c F0030000 		.4byte	.LBB155
 6763 1c40 F6030000 		.4byte	.LBE155
 6764 1c44 521C0000 		.4byte	0x1c52
 6765 1c48 42       		.uleb128 0x42
 6766 1c49 1C180000 		.4byte	0x181c
 6767 1c4d 16090000 		.4byte	.LLST62
 6768 1c51 00       		.byte	0
 6769 1c52 43       		.uleb128 0x43
 6770 1c53 53140000 		.4byte	0x1453
 6771 1c57 02040000 		.4byte	.LBB156
 6772 1c5b 08040000 		.4byte	.LBE156
 6773 1c5f 01       		.byte	0x1
 6774 1c60 4801     		.2byte	0x148
 6775 1c62 831C0000 		.4byte	0x1c83
 6776 1c66 41       		.uleb128 0x41
 6777 1c67 64140000 		.4byte	0x1464
 6778 1c6b 34090000 		.4byte	.LLST63
 6779 1c6f 45       		.uleb128 0x45
 6780 1c70 02040000 		.4byte	.LBB157
 6781 1c74 08040000 		.4byte	.LBE157
 6782 1c78 42       		.uleb128 0x42
 6783 1c79 6F140000 		.4byte	0x146f
 6784 1c7d 47090000 		.4byte	.LLST64
 6785 1c81 00       		.byte	0
 6786 1c82 00       		.byte	0
 6787 1c83 46       		.uleb128 0x46
 6788 1c84 1A040000 		.4byte	.LBB158
 6789 1c88 22040000 		.4byte	.LBE158
 6790 1c8c 9A1C0000 		.4byte	0x1c9a
 6791 1c90 42       		.uleb128 0x42
 6792 1c91 2A180000 		.4byte	0x182a
 6793 1c95 5A090000 		.4byte	.LLST65
 6794 1c99 00       		.byte	0
 6795 1c9a 47       		.uleb128 0x47
 6796 1c9b 0C040000 		.4byte	.LVL145
 6797 1c9f 78280000 		.4byte	0x2878
 6798 1ca3 47       		.uleb128 0x47
 6799 1ca4 1A040000 		.4byte	.LVL147
 6800 1ca8 90280000 		.4byte	0x2890
 6801 1cac 00       		.byte	0
 6802 1cad 00       		.byte	0
 6803 1cae 00       		.byte	0
 6804 1caf 00       		.byte	0
 6805 1cb0 46       		.uleb128 0x46
 6806 1cb1 50030000 		.4byte	.LBB163
 6807 1cb5 56030000 		.4byte	.LBE163
 6808 1cb9 CE1C0000 		.4byte	0x1cce
 6809 1cbd 3E       		.uleb128 0x3e
ARM GAS  C:\Users\srich\AppData\Local\Temp\cc7Prgoh.s 			page 121


 6810 1cbe 746D7000 		.ascii	"tmp\000"
 6811 1cc2 01       		.byte	0x1
 6812 1cc3 F802     		.2byte	0x2f8
 6813 1cc5 B2000000 		.4byte	0xb2
 6814 1cc9 78090000 		.4byte	.LLST66
 6815 1ccd 00       		.byte	0
 6816 1cce 45       		.uleb128 0x45
 6817 1ccf 72030000 		.4byte	.LBB164
 6818 1cd3 7A030000 		.4byte	.LBE164
 6819 1cd7 3E       		.uleb128 0x3e
 6820 1cd8 746D7000 		.ascii	"tmp\000"
 6821 1cdc 01       		.byte	0x1
 6822 1cdd FC02     		.2byte	0x2fc
 6823 1cdf B2000000 		.4byte	0xb2
 6824 1ce3 8B090000 		.4byte	.LLST67
 6825 1ce7 00       		.byte	0
 6826 1ce8 00       		.byte	0
 6827 1ce9 4B       		.uleb128 0x4b
 6828 1cea 5A000000 		.4byte	.LVL19
 6829 1cee 9A280000 		.4byte	0x289a
 6830 1cf2 38       		.uleb128 0x38
 6831 1cf3 01       		.byte	0x1
 6832 1cf4 50       		.byte	0x50
 6833 1cf5 01       		.byte	0x1
 6834 1cf6 32       		.byte	0x32
 6835 1cf7 00       		.byte	0
 6836 1cf8 00       		.byte	0
 6837 1cf9 00       		.byte	0
 6838 1cfa 4C       		.uleb128 0x4c
 6839 1cfb 01       		.byte	0x1
 6840 1cfc 3B080000 		.4byte	.LASF306
 6841 1d00 01       		.byte	0x1
 6842 1d01 3203     		.2byte	0x332
 6843 1d03 01       		.byte	0x1
 6844 1d04 00000000 		.4byte	.LFB138
 6845 1d08 28000000 		.4byte	.LFE138
 6846 1d0c A9090000 		.4byte	.LLST68
 6847 1d10 01       		.byte	0x1
 6848 1d11 261D0000 		.4byte	0x1d26
 6849 1d15 4B       		.uleb128 0x4b
 6850 1d16 10000000 		.4byte	.LVL161
 6851 1d1a AE280000 		.4byte	0x28ae
 6852 1d1e 38       		.uleb128 0x38
 6853 1d1f 01       		.byte	0x1
 6854 1d20 50       		.byte	0x50
 6855 1d21 02       		.byte	0x2
 6856 1d22 74       		.byte	0x74
 6857 1d23 00       		.sleb128 0
 6858 1d24 00       		.byte	0
 6859 1d25 00       		.byte	0
 6860 1d26 2C       		.uleb128 0x2c
 6861 1d27 E70E0000 		.4byte	.LASF305
 6862 1d2b 01       		.byte	0x1
 6863 1d2c 83       		.byte	0x83
 6864 1d2d 01       		.byte	0x1
 6865 1d2e 01       		.byte	0x1
 6866 1d2f 4A1D0000 		.4byte	0x1d4a
ARM GAS  C:\Users\srich\AppData\Local\Temp\cc7Prgoh.s 			page 122


 6867 1d33 23       		.uleb128 0x23
 6868 1d34 42060000 		.4byte	.LASF285
 6869 1d38 01       		.byte	0x1
 6870 1d39 83       		.byte	0x83
 6871 1d3a 3D0A0000 		.4byte	0xa3d
 6872 1d3e 2D       		.uleb128 0x2d
 6873 1d3f 060E0000 		.4byte	.LASF292
 6874 1d43 01       		.byte	0x1
 6875 1d44 84       		.byte	0x84
 6876 1d45 A2130000 		.4byte	0x13a2
 6877 1d49 00       		.byte	0
 6878 1d4a 4C       		.uleb128 0x4c
 6879 1d4b 01       		.byte	0x1
 6880 1d4c 970C0000 		.4byte	.LASF307
 6881 1d50 01       		.byte	0x1
 6882 1d51 6C03     		.2byte	0x36c
 6883 1d53 01       		.byte	0x1
 6884 1d54 00000000 		.4byte	.LFB139
 6885 1d58 E0000000 		.4byte	.LFE139
 6886 1d5c C9090000 		.4byte	.LLST69
 6887 1d60 01       		.byte	0x1
 6888 1d61 2F1E0000 		.4byte	0x1e2f
 6889 1d65 4D       		.uleb128 0x4d
 6890 1d66 42060000 		.4byte	.LASF285
 6891 1d6a 01       		.byte	0x1
 6892 1d6b 6C03     		.2byte	0x36c
 6893 1d6d 3D0A0000 		.4byte	0xa3d
 6894 1d71 F5090000 		.4byte	.LLST70
 6895 1d75 3C       		.uleb128 0x3c
 6896 1d76 060E0000 		.4byte	.LASF292
 6897 1d7a 01       		.byte	0x1
 6898 1d7b 6D03     		.2byte	0x36d
 6899 1d7d A2130000 		.4byte	0x13a2
 6900 1d81 01       		.byte	0x1
 6901 1d82 55       		.byte	0x55
 6902 1d83 40       		.uleb128 0x40
 6903 1d84 261D0000 		.4byte	0x1d26
 6904 1d88 38000000 		.4byte	.LBB169
 6905 1d8c D0010000 		.4byte	.Ldebug_ranges0+0x1d0
 6906 1d90 01       		.byte	0x1
 6907 1d91 AA03     		.2byte	0x3aa
 6908 1d93 D31D0000 		.4byte	0x1dd3
 6909 1d97 41       		.uleb128 0x41
 6910 1d98 331D0000 		.4byte	0x1d33
 6911 1d9c 290A0000 		.4byte	.LLST71
 6912 1da0 3F       		.uleb128 0x3f
 6913 1da1 F0010000 		.4byte	.Ldebug_ranges0+0x1f0
 6914 1da5 42       		.uleb128 0x42
 6915 1da6 3E1D0000 		.4byte	0x1d3e
 6916 1daa 3C0A0000 		.4byte	.LLST72
 6917 1dae 4E       		.uleb128 0x4e
 6918 1daf 4A000000 		.4byte	.LVL168
 6919 1db3 64280000 		.4byte	0x2864
 6920 1db7 C21D0000 		.4byte	0x1dc2
 6921 1dbb 38       		.uleb128 0x38
 6922 1dbc 01       		.byte	0x1
 6923 1dbd 50       		.byte	0x50
ARM GAS  C:\Users\srich\AppData\Local\Temp\cc7Prgoh.s 			page 123


 6924 1dbe 02       		.byte	0x2
 6925 1dbf 08       		.byte	0x8
 6926 1dc0 20       		.byte	0x20
 6927 1dc1 00       		.byte	0
 6928 1dc2 4B       		.uleb128 0x4b
 6929 1dc3 5A000000 		.4byte	.LVL169
 6930 1dc7 64280000 		.4byte	0x2864
 6931 1dcb 38       		.uleb128 0x38
 6932 1dcc 01       		.byte	0x1
 6933 1dcd 50       		.byte	0x50
 6934 1dce 01       		.byte	0x1
 6935 1dcf 3C       		.byte	0x3c
 6936 1dd0 00       		.byte	0
 6937 1dd1 00       		.byte	0
 6938 1dd2 00       		.byte	0
 6939 1dd3 4E       		.uleb128 0x4e
 6940 1dd4 6A000000 		.4byte	.LVL171
 6941 1dd8 F3150000 		.4byte	0x15f3
 6942 1ddc E71D0000 		.4byte	0x1de7
 6943 1de0 38       		.uleb128 0x38
 6944 1de1 01       		.byte	0x1
 6945 1de2 50       		.byte	0x50
 6946 1de3 02       		.byte	0x2
 6947 1de4 76       		.byte	0x76
 6948 1de5 00       		.sleb128 0
 6949 1de6 00       		.byte	0
 6950 1de7 4E       		.uleb128 0x4e
 6951 1de8 AC000000 		.4byte	.LVL173
 6952 1dec C3280000 		.4byte	0x28c3
 6953 1df0 181E0000 		.4byte	0x1e18
 6954 1df4 38       		.uleb128 0x38
 6955 1df5 01       		.byte	0x1
 6956 1df6 53       		.byte	0x53
 6957 1df7 05       		.byte	0x5
 6958 1df8 03       		.byte	0x3
 6959 1df9 00000000 		.4byte	usb_lld_pump
 6960 1dfd 38       		.uleb128 0x38
 6961 1dfe 01       		.byte	0x1
 6962 1dff 52       		.byte	0x52
 6963 1e00 01       		.byte	0x1
 6964 1e01 32       		.byte	0x32
 6965 1e02 38       		.uleb128 0x38
 6966 1e03 01       		.byte	0x1
 6967 1e04 51       		.byte	0x51
 6968 1e05 03       		.byte	0x3
 6969 1e06 0A       		.byte	0xa
 6970 1e07 5001     		.2byte	0x150
 6971 1e09 38       		.uleb128 0x38
 6972 1e0a 01       		.byte	0x1
 6973 1e0b 50       		.byte	0x50
 6974 1e0c 03       		.byte	0x3
 6975 1e0d 76       		.byte	0x76
 6976 1e0e E800     		.sleb128 104
 6977 1e10 38       		.uleb128 0x38
 6978 1e11 02       		.byte	0x2
 6979 1e12 7D       		.byte	0x7d
 6980 1e13 00       		.sleb128 0
ARM GAS  C:\Users\srich\AppData\Local\Temp\cc7Prgoh.s 			page 124


 6981 1e14 02       		.byte	0x2
 6982 1e15 76       		.byte	0x76
 6983 1e16 00       		.sleb128 0
 6984 1e17 00       		.byte	0
 6985 1e18 4B       		.uleb128 0x4b
 6986 1e19 D6000000 		.4byte	.LVL174
 6987 1e1d F0280000 		.4byte	0x28f0
 6988 1e21 38       		.uleb128 0x38
 6989 1e22 01       		.byte	0x1
 6990 1e23 51       		.byte	0x51
 6991 1e24 02       		.byte	0x2
 6992 1e25 08       		.byte	0x8
 6993 1e26 E0       		.byte	0xe0
 6994 1e27 38       		.uleb128 0x38
 6995 1e28 01       		.byte	0x1
 6996 1e29 50       		.byte	0x50
 6997 1e2a 02       		.byte	0x2
 6998 1e2b 08       		.byte	0x8
 6999 1e2c 43       		.byte	0x43
 7000 1e2d 00       		.byte	0
 7001 1e2e 00       		.byte	0
 7002 1e2f 4C       		.uleb128 0x4c
 7003 1e30 01       		.byte	0x1
 7004 1e31 3E010000 		.4byte	.LASF308
 7005 1e35 01       		.byte	0x1
 7006 1e36 CB03     		.2byte	0x3cb
 7007 1e38 01       		.byte	0x1
 7008 1e39 00000000 		.4byte	.LFB140
 7009 1e3d 1E000000 		.4byte	.LFE140
 7010 1e41 4F0A0000 		.4byte	.LLST73
 7011 1e45 01       		.byte	0x1
 7012 1e46 791E0000 		.4byte	0x1e79
 7013 1e4a 4D       		.uleb128 0x4d
 7014 1e4b 42060000 		.4byte	.LASF285
 7015 1e4f 01       		.byte	0x1
 7016 1e50 CB03     		.2byte	0x3cb
 7017 1e52 3D0A0000 		.4byte	0xa3d
 7018 1e56 6F0A0000 		.4byte	.LLST74
 7019 1e5a 3C       		.uleb128 0x3c
 7020 1e5b 060E0000 		.4byte	.LASF292
 7021 1e5f 01       		.byte	0x1
 7022 1e60 CC03     		.2byte	0x3cc
 7023 1e62 A2130000 		.4byte	0x13a2
 7024 1e66 01       		.byte	0x1
 7025 1e67 55       		.byte	0x55
 7026 1e68 4B       		.uleb128 0x4b
 7027 1e69 10000000 		.4byte	.LVL177
 7028 1e6d F3150000 		.4byte	0x15f3
 7029 1e71 38       		.uleb128 0x38
 7030 1e72 01       		.byte	0x1
 7031 1e73 50       		.byte	0x50
 7032 1e74 02       		.byte	0x2
 7033 1e75 74       		.byte	0x74
 7034 1e76 00       		.sleb128 0
 7035 1e77 00       		.byte	0
 7036 1e78 00       		.byte	0
 7037 1e79 2C       		.uleb128 0x2c
ARM GAS  C:\Users\srich\AppData\Local\Temp\cc7Prgoh.s 			page 125


 7038 1e7a EA0D0000 		.4byte	.LASF309
 7039 1e7e 01       		.byte	0x1
 7040 1e7f B9       		.byte	0xb9
 7041 1e80 01       		.byte	0x1
 7042 1e81 01       		.byte	0x1
 7043 1e82 9D1E0000 		.4byte	0x1e9d
 7044 1e86 23       		.uleb128 0x23
 7045 1e87 42060000 		.4byte	.LASF285
 7046 1e8b 01       		.byte	0x1
 7047 1e8c B9       		.byte	0xb9
 7048 1e8d 3D0A0000 		.4byte	0xa3d
 7049 1e91 2D       		.uleb128 0x2d
 7050 1e92 060E0000 		.4byte	.LASF292
 7051 1e96 01       		.byte	0x1
 7052 1e97 BA       		.byte	0xba
 7053 1e98 A2130000 		.4byte	0x13a2
 7054 1e9c 00       		.byte	0
 7055 1e9d 4C       		.uleb128 0x4c
 7056 1e9e 01       		.byte	0x1
 7057 1e9f 40090000 		.4byte	.LASF310
 7058 1ea3 01       		.byte	0x1
 7059 1ea4 F203     		.2byte	0x3f2
 7060 1ea6 01       		.byte	0x1
 7061 1ea7 00000000 		.4byte	.LFB141
 7062 1eab 2C010000 		.4byte	.LFE141
 7063 1eaf 8D0A0000 		.4byte	.LLST75
 7064 1eb3 01       		.byte	0x1
 7065 1eb4 7D1F0000 		.4byte	0x1f7d
 7066 1eb8 4D       		.uleb128 0x4d
 7067 1eb9 42060000 		.4byte	.LASF285
 7068 1ebd 01       		.byte	0x1
 7069 1ebe F203     		.2byte	0x3f2
 7070 1ec0 3D0A0000 		.4byte	0xa3d
 7071 1ec4 AD0A0000 		.4byte	.LLST76
 7072 1ec8 29       		.uleb128 0x29
 7073 1ec9 6900     		.ascii	"i\000"
 7074 1ecb 01       		.byte	0x1
 7075 1ecc F303     		.2byte	0x3f3
 7076 1ece 25000000 		.4byte	0x25
 7077 1ed2 3C       		.uleb128 0x3c
 7078 1ed3 060E0000 		.4byte	.LASF292
 7079 1ed7 01       		.byte	0x1
 7080 1ed8 F403     		.2byte	0x3f4
 7081 1eda A2130000 		.4byte	0x13a2
 7082 1ede 01       		.byte	0x1
 7083 1edf 54       		.byte	0x54
 7084 1ee0 40       		.uleb128 0x40
 7085 1ee1 FA140000 		.4byte	0x14fa
 7086 1ee5 A0000000 		.4byte	.LBB181
 7087 1ee9 10020000 		.4byte	.Ldebug_ranges0+0x210
 7088 1eed 01       		.byte	0x1
 7089 1eee 0604     		.2byte	0x406
 7090 1ef0 FC1E0000 		.4byte	0x1efc
 7091 1ef4 48       		.uleb128 0x48
 7092 1ef5 07150000 		.4byte	0x1507
 7093 1ef9 01       		.byte	0x1
 7094 1efa 58       		.byte	0x58
ARM GAS  C:\Users\srich\AppData\Local\Temp\cc7Prgoh.s 			page 126


 7095 1efb 00       		.byte	0
 7096 1efc 40       		.uleb128 0x40
 7097 1efd 791E0000 		.4byte	0x1e79
 7098 1f01 A4000000 		.4byte	.LBB184
 7099 1f05 28020000 		.4byte	.Ldebug_ranges0+0x228
 7100 1f09 01       		.byte	0x1
 7101 1f0a 0A04     		.2byte	0x40a
 7102 1f0c 361F0000 		.4byte	0x1f36
 7103 1f10 48       		.uleb128 0x48
 7104 1f11 861E0000 		.4byte	0x1e86
 7105 1f15 01       		.byte	0x1
 7106 1f16 58       		.byte	0x58
 7107 1f17 3F       		.uleb128 0x3f
 7108 1f18 48020000 		.4byte	.Ldebug_ranges0+0x248
 7109 1f1c 42       		.uleb128 0x42
 7110 1f1d 911E0000 		.4byte	0x1e91
 7111 1f21 CB0A0000 		.4byte	.LLST77
 7112 1f25 4B       		.uleb128 0x4b
 7113 1f26 D0000000 		.4byte	.LVL183
 7114 1f2a 64280000 		.4byte	0x2864
 7115 1f2e 38       		.uleb128 0x38
 7116 1f2f 01       		.byte	0x1
 7117 1f30 50       		.byte	0x50
 7118 1f31 01       		.byte	0x1
 7119 1f32 3C       		.byte	0x3c
 7120 1f33 00       		.byte	0
 7121 1f34 00       		.byte	0
 7122 1f35 00       		.byte	0
 7123 1f36 40       		.uleb128 0x40
 7124 1f37 13150000 		.4byte	0x1513
 7125 1f3b D4000000 		.4byte	.LBB191
 7126 1f3f 68020000 		.4byte	.Ldebug_ranges0+0x268
 7127 1f43 01       		.byte	0x1
 7128 1f44 1D04     		.2byte	0x41d
 7129 1f46 671F0000 		.4byte	0x1f67
 7130 1f4a 4F       		.uleb128 0x4f
 7131 1f4b 2F150000 		.4byte	0x152f
 7132 1f4f 10       		.byte	0x10
 7133 1f50 48       		.uleb128 0x48
 7134 1f51 24150000 		.4byte	0x1524
 7135 1f55 01       		.byte	0x1
 7136 1f56 58       		.byte	0x58
 7137 1f57 3F       		.uleb128 0x3f
 7138 1f58 88020000 		.4byte	.Ldebug_ranges0+0x288
 7139 1f5c 50       		.uleb128 0x50
 7140 1f5d 3A150000 		.4byte	0x153a
 7141 1f61 03       		.byte	0x3
 7142 1f62 78       		.byte	0x78
 7143 1f63 D800     		.sleb128 88
 7144 1f65 00       		.byte	0
 7145 1f66 00       		.byte	0
 7146 1f67 4B       		.uleb128 0x4b
 7147 1f68 0E000000 		.4byte	.LVL180
 7148 1f6c 36160000 		.4byte	0x1636
 7149 1f70 38       		.uleb128 0x38
 7150 1f71 01       		.byte	0x1
 7151 1f72 51       		.byte	0x51
ARM GAS  C:\Users\srich\AppData\Local\Temp\cc7Prgoh.s 			page 127


 7152 1f73 01       		.byte	0x1
 7153 1f74 30       		.byte	0x30
 7154 1f75 38       		.uleb128 0x38
 7155 1f76 01       		.byte	0x1
 7156 1f77 50       		.byte	0x50
 7157 1f78 02       		.byte	0x2
 7158 1f79 78       		.byte	0x78
 7159 1f7a 00       		.sleb128 0
 7160 1f7b 00       		.byte	0
 7161 1f7c 00       		.byte	0
 7162 1f7d 51       		.uleb128 0x51
 7163 1f7e 01       		.byte	0x1
 7164 1f7f 97090000 		.4byte	.LASF311
 7165 1f83 01       		.byte	0x1
 7166 1f84 2804     		.2byte	0x428
 7167 1f86 01       		.byte	0x1
 7168 1f87 00000000 		.4byte	.LFB142
 7169 1f8b 18000000 		.4byte	.LFE142
 7170 1f8f 02       		.byte	0x2
 7171 1f90 7D       		.byte	0x7d
 7172 1f91 00       		.sleb128 0
 7173 1f92 01       		.byte	0x1
 7174 1f93 B61F0000 		.4byte	0x1fb6
 7175 1f97 4D       		.uleb128 0x4d
 7176 1f98 42060000 		.4byte	.LASF285
 7177 1f9c 01       		.byte	0x1
 7178 1f9d 2804     		.2byte	0x428
 7179 1f9f 3D0A0000 		.4byte	0xa3d
 7180 1fa3 DE0A0000 		.4byte	.LLST78
 7181 1fa7 3C       		.uleb128 0x3c
 7182 1fa8 060E0000 		.4byte	.LASF292
 7183 1fac 01       		.byte	0x1
 7184 1fad 2904     		.2byte	0x429
 7185 1faf A2130000 		.4byte	0x13a2
 7186 1fb3 01       		.byte	0x1
 7187 1fb4 53       		.byte	0x53
 7188 1fb5 00       		.byte	0
 7189 1fb6 4C       		.uleb128 0x4c
 7190 1fb7 01       		.byte	0x1
 7191 1fb8 28010000 		.4byte	.LASF312
 7192 1fbc 01       		.byte	0x1
 7193 1fbd 3604     		.2byte	0x436
 7194 1fbf 01       		.byte	0x1
 7195 1fc0 00000000 		.4byte	.LFB143
 7196 1fc4 3A010000 		.4byte	.LFE143
 7197 1fc8 FF0A0000 		.4byte	.LLST79
 7198 1fcc 01       		.byte	0x1
 7199 1fcd 86200000 		.4byte	0x2086
 7200 1fd1 4D       		.uleb128 0x4d
 7201 1fd2 42060000 		.4byte	.LASF285
 7202 1fd6 01       		.byte	0x1
 7203 1fd7 3604     		.2byte	0x436
 7204 1fd9 3D0A0000 		.4byte	0xa3d
 7205 1fdd 1F0B0000 		.4byte	.LLST80
 7206 1fe1 3A       		.uleb128 0x3a
 7207 1fe2 657000   		.ascii	"ep\000"
 7208 1fe5 01       		.byte	0x1
ARM GAS  C:\Users\srich\AppData\Local\Temp\cc7Prgoh.s 			page 128


 7209 1fe6 3604     		.2byte	0x436
 7210 1fe8 0D090000 		.4byte	0x90d
 7211 1fec 610B0000 		.4byte	.LLST81
 7212 1ff0 3E       		.uleb128 0x3e
 7213 1ff1 63746C00 		.ascii	"ctl\000"
 7214 1ff5 01       		.byte	0x1
 7215 1ff6 3704     		.2byte	0x437
 7216 1ff8 B2000000 		.4byte	0xb2
 7217 1ffc 9B0B0000 		.4byte	.LLST82
 7218 2000 3B       		.uleb128 0x3b
 7219 2001 02010000 		.4byte	.LASF313
 7220 2005 01       		.byte	0x1
 7221 2006 3704     		.2byte	0x437
 7222 2008 B2000000 		.4byte	0xb2
 7223 200c D90B0000 		.4byte	.LLST83
 7224 2010 3C       		.uleb128 0x3c
 7225 2011 060E0000 		.4byte	.LASF292
 7226 2015 01       		.byte	0x1
 7227 2016 3804     		.2byte	0x438
 7228 2018 A2130000 		.4byte	0x13a2
 7229 201c 01       		.byte	0x1
 7230 201d 54       		.byte	0x54
 7231 201e 40       		.uleb128 0x40
 7232 201f 13150000 		.4byte	0x1513
 7233 2023 82000000 		.4byte	.LBB197
 7234 2027 A8020000 		.4byte	.Ldebug_ranges0+0x2a8
 7235 202b 01       		.byte	0x1
 7236 202c 5F04     		.2byte	0x45f
 7237 202e 54200000 		.4byte	0x2054
 7238 2032 41       		.uleb128 0x41
 7239 2033 2F150000 		.4byte	0x152f
 7240 2037 EC0B0000 		.4byte	.LLST84
 7241 203b 41       		.uleb128 0x41
 7242 203c 24150000 		.4byte	0x1524
 7243 2040 FF0B0000 		.4byte	.LLST85
 7244 2044 3F       		.uleb128 0x3f
 7245 2045 C0020000 		.4byte	.Ldebug_ranges0+0x2c0
 7246 2049 42       		.uleb128 0x42
 7247 204a 3A150000 		.4byte	0x153a
 7248 204e 2B0C0000 		.4byte	.LLST86
 7249 2052 00       		.byte	0
 7250 2053 00       		.byte	0
 7251 2054 4E       		.uleb128 0x4e
 7252 2055 A2000000 		.4byte	.LVL198
 7253 2059 36160000 		.4byte	0x1636
 7254 205d 6F200000 		.4byte	0x206f
 7255 2061 38       		.uleb128 0x38
 7256 2062 01       		.byte	0x1
 7257 2063 51       		.byte	0x51
 7258 2064 02       		.byte	0x2
 7259 2065 75       		.byte	0x75
 7260 2066 00       		.sleb128 0
 7261 2067 38       		.uleb128 0x38
 7262 2068 01       		.byte	0x1
 7263 2069 50       		.byte	0x50
 7264 206a 03       		.byte	0x3
 7265 206b F3       		.byte	0xf3
ARM GAS  C:\Users\srich\AppData\Local\Temp\cc7Prgoh.s 			page 129


 7266 206c 01       		.uleb128 0x1
 7267 206d 50       		.byte	0x50
 7268 206e 00       		.byte	0
 7269 206f 4B       		.uleb128 0x4b
 7270 2070 16010000 		.4byte	.LVL204
 7271 2074 36160000 		.4byte	0x1636
 7272 2078 38       		.uleb128 0x38
 7273 2079 01       		.byte	0x1
 7274 207a 51       		.byte	0x51
 7275 207b 02       		.byte	0x2
 7276 207c 75       		.byte	0x75
 7277 207d 00       		.sleb128 0
 7278 207e 38       		.uleb128 0x38
 7279 207f 01       		.byte	0x1
 7280 2080 50       		.byte	0x50
 7281 2081 02       		.byte	0x2
 7282 2082 76       		.byte	0x76
 7283 2083 00       		.sleb128 0
 7284 2084 00       		.byte	0
 7285 2085 00       		.byte	0
 7286 2086 51       		.uleb128 0x51
 7287 2087 01       		.byte	0x1
 7288 2088 4E0A0000 		.4byte	.LASF314
 7289 208c 01       		.byte	0x1
 7290 208d 7604     		.2byte	0x476
 7291 208f 01       		.byte	0x1
 7292 2090 00000000 		.4byte	.LFB144
 7293 2094 0A000000 		.4byte	.LFE144
 7294 2098 02       		.byte	0x2
 7295 2099 7D       		.byte	0x7d
 7296 209a 00       		.sleb128 0
 7297 209b 01       		.byte	0x1
 7298 209c E1200000 		.4byte	0x20e1
 7299 20a0 4D       		.uleb128 0x4d
 7300 20a1 42060000 		.4byte	.LASF285
 7301 20a5 01       		.byte	0x1
 7302 20a6 7604     		.2byte	0x476
 7303 20a8 3D0A0000 		.4byte	0xa3d
 7304 20ac 3E0C0000 		.4byte	.LLST87
 7305 20b0 43       		.uleb128 0x43
 7306 20b1 FA140000 		.4byte	0x14fa
 7307 20b5 00000000 		.4byte	.LBB201
 7308 20b9 06000000 		.4byte	.LBE201
 7309 20bd 01       		.byte	0x1
 7310 20be 7904     		.2byte	0x479
 7311 20c0 CE200000 		.4byte	0x20ce
 7312 20c4 41       		.uleb128 0x41
 7313 20c5 07150000 		.4byte	0x1507
 7314 20c9 3E0C0000 		.4byte	.LLST87
 7315 20cd 00       		.byte	0
 7316 20ce 37       		.uleb128 0x37
 7317 20cf 0A000000 		.4byte	.LVL206
 7318 20d3 01       		.byte	0x1
 7319 20d4 F3150000 		.4byte	0x15f3
 7320 20d8 38       		.uleb128 0x38
 7321 20d9 01       		.byte	0x1
 7322 20da 50       		.byte	0x50
ARM GAS  C:\Users\srich\AppData\Local\Temp\cc7Prgoh.s 			page 130


 7323 20db 03       		.byte	0x3
 7324 20dc F3       		.byte	0xf3
 7325 20dd 01       		.uleb128 0x1
 7326 20de 50       		.byte	0x50
 7327 20df 00       		.byte	0
 7328 20e0 00       		.byte	0
 7329 20e1 52       		.uleb128 0x52
 7330 20e2 01       		.byte	0x1
 7331 20e3 800C0000 		.4byte	.LASF315
 7332 20e7 01       		.byte	0x1
 7333 20e8 8B04     		.2byte	0x48b
 7334 20ea 01       		.byte	0x1
 7335 20eb 65090000 		.4byte	0x965
 7336 20ef 00000000 		.4byte	.LFB145
 7337 20f3 1A000000 		.4byte	.LFE145
 7338 20f7 02       		.byte	0x2
 7339 20f8 7D       		.byte	0x7d
 7340 20f9 00       		.sleb128 0
 7341 20fa 01       		.byte	0x1
 7342 20fb 2D210000 		.4byte	0x212d
 7343 20ff 4D       		.uleb128 0x4d
 7344 2100 42060000 		.4byte	.LASF285
 7345 2104 01       		.byte	0x1
 7346 2105 8B04     		.2byte	0x48b
 7347 2107 3D0A0000 		.4byte	0xa3d
 7348 210b 5F0C0000 		.4byte	.LLST89
 7349 210f 3A       		.uleb128 0x3a
 7350 2110 657000   		.ascii	"ep\000"
 7351 2113 01       		.byte	0x1
 7352 2114 8B04     		.2byte	0x48b
 7353 2116 0D090000 		.4byte	0x90d
 7354 211a 800C0000 		.4byte	.LLST90
 7355 211e 53       		.uleb128 0x53
 7356 211f 63746C00 		.ascii	"ctl\000"
 7357 2123 01       		.byte	0x1
 7358 2124 8C04     		.2byte	0x48c
 7359 2126 B2000000 		.4byte	0xb2
 7360 212a 01       		.byte	0x1
 7361 212b 52       		.byte	0x52
 7362 212c 00       		.byte	0
 7363 212d 52       		.uleb128 0x52
 7364 212e 01       		.byte	0x1
 7365 212f C2000000 		.4byte	.LASF316
 7366 2133 01       		.byte	0x1
 7367 2134 A404     		.2byte	0x4a4
 7368 2136 01       		.byte	0x1
 7369 2137 65090000 		.4byte	0x965
 7370 213b 00000000 		.4byte	.LFB146
 7371 213f 1A000000 		.4byte	.LFE146
 7372 2143 02       		.byte	0x2
 7373 2144 7D       		.byte	0x7d
 7374 2145 00       		.sleb128 0
 7375 2146 01       		.byte	0x1
 7376 2147 79210000 		.4byte	0x2179
 7377 214b 4D       		.uleb128 0x4d
 7378 214c 42060000 		.4byte	.LASF285
 7379 2150 01       		.byte	0x1
ARM GAS  C:\Users\srich\AppData\Local\Temp\cc7Prgoh.s 			page 131


 7380 2151 A404     		.2byte	0x4a4
 7381 2153 3D0A0000 		.4byte	0xa3d
 7382 2157 A10C0000 		.4byte	.LLST91
 7383 215b 3A       		.uleb128 0x3a
 7384 215c 657000   		.ascii	"ep\000"
 7385 215f 01       		.byte	0x1
 7386 2160 A404     		.2byte	0x4a4
 7387 2162 0D090000 		.4byte	0x90d
 7388 2166 C20C0000 		.4byte	.LLST92
 7389 216a 53       		.uleb128 0x53
 7390 216b 63746C00 		.ascii	"ctl\000"
 7391 216f 01       		.byte	0x1
 7392 2170 A504     		.2byte	0x4a5
 7393 2172 B2000000 		.4byte	0xb2
 7394 2176 01       		.byte	0x1
 7395 2177 52       		.byte	0x52
 7396 2178 00       		.byte	0
 7397 2179 51       		.uleb128 0x51
 7398 217a 01       		.byte	0x1
 7399 217b DC030000 		.4byte	.LASF317
 7400 217f 01       		.byte	0x1
 7401 2180 BF04     		.2byte	0x4bf
 7402 2182 01       		.byte	0x1
 7403 2183 00000000 		.4byte	.LFB147
 7404 2187 12000000 		.4byte	.LFE147
 7405 218b 02       		.byte	0x2
 7406 218c 7D       		.byte	0x7d
 7407 218d 00       		.sleb128 0
 7408 218e 01       		.byte	0x1
 7409 218f C1210000 		.4byte	0x21c1
 7410 2193 4D       		.uleb128 0x4d
 7411 2194 42060000 		.4byte	.LASF285
 7412 2198 01       		.byte	0x1
 7413 2199 BF04     		.2byte	0x4bf
 7414 219b 3D0A0000 		.4byte	0xa3d
 7415 219f E30C0000 		.4byte	.LLST93
 7416 21a3 3A       		.uleb128 0x3a
 7417 21a4 657000   		.ascii	"ep\000"
 7418 21a7 01       		.byte	0x1
 7419 21a8 BF04     		.2byte	0x4bf
 7420 21aa 0D090000 		.4byte	0x90d
 7421 21ae 040D0000 		.4byte	.LLST94
 7422 21b2 54       		.uleb128 0x54
 7423 21b3 62756600 		.ascii	"buf\000"
 7424 21b7 01       		.byte	0x1
 7425 21b8 BF04     		.2byte	0x4bf
 7426 21ba 42050000 		.4byte	0x542
 7427 21be 01       		.byte	0x1
 7428 21bf 52       		.byte	0x52
 7429 21c0 00       		.byte	0
 7430 21c1 4C       		.uleb128 0x4c
 7431 21c2 01       		.byte	0x1
 7432 21c3 BF0A0000 		.4byte	.LASF318
 7433 21c7 01       		.byte	0x1
 7434 21c8 CC04     		.2byte	0x4cc
 7435 21ca 01       		.byte	0x1
 7436 21cb 00000000 		.4byte	.LFB148
ARM GAS  C:\Users\srich\AppData\Local\Temp\cc7Prgoh.s 			page 132


 7437 21cf 40000000 		.4byte	.LFE148
 7438 21d3 250D0000 		.4byte	.LLST95
 7439 21d7 01       		.byte	0x1
 7440 21d8 1C220000 		.4byte	0x221c
 7441 21dc 4D       		.uleb128 0x4d
 7442 21dd 42060000 		.4byte	.LASF285
 7443 21e1 01       		.byte	0x1
 7444 21e2 CC04     		.2byte	0x4cc
 7445 21e4 3D0A0000 		.4byte	0xa3d
 7446 21e8 450D0000 		.4byte	.LLST96
 7447 21ec 3A       		.uleb128 0x3a
 7448 21ed 657000   		.ascii	"ep\000"
 7449 21f0 01       		.byte	0x1
 7450 21f1 CC04     		.2byte	0x4cc
 7451 21f3 0D090000 		.4byte	0x90d
 7452 21f7 660D0000 		.4byte	.LLST97
 7453 21fb 3B       		.uleb128 0x3b
 7454 21fc 9E030000 		.4byte	.LASF319
 7455 2200 01       		.byte	0x1
 7456 2201 CD04     		.2byte	0x4cd
 7457 2203 B2000000 		.4byte	0xb2
 7458 2207 870D0000 		.4byte	.LLST98
 7459 220b 3E       		.uleb128 0x3e
 7460 220c 6F737000 		.ascii	"osp\000"
 7461 2210 01       		.byte	0x1
 7462 2211 CE04     		.2byte	0x4ce
 7463 2213 08130000 		.4byte	0x1308
 7464 2217 B30D0000 		.4byte	.LLST99
 7465 221b 00       		.byte	0
 7466 221c 55       		.uleb128 0x55
 7467 221d 61040000 		.4byte	.LASF320
 7468 2221 01       		.byte	0x1
 7469 2222 5702     		.2byte	0x257
 7470 2224 01       		.byte	0x1
 7471 2225 00000000 		.4byte	.LFB134
 7472 2229 8C000000 		.4byte	.LFE134
 7473 222d E90D0000 		.4byte	.LLST100
 7474 2231 01       		.byte	0x1
 7475 2232 29230000 		.4byte	0x2329
 7476 2236 4D       		.uleb128 0x4d
 7477 2237 42060000 		.4byte	.LASF285
 7478 223b 01       		.byte	0x1
 7479 223c 5702     		.2byte	0x257
 7480 223e 3D0A0000 		.4byte	0xa3d
 7481 2242 090E0000 		.4byte	.LLST101
 7482 2246 3A       		.uleb128 0x3a
 7483 2247 657000   		.ascii	"ep\000"
 7484 224a 01       		.byte	0x1
 7485 224b 5702     		.2byte	0x257
 7486 224d 0D090000 		.4byte	0x90d
 7487 2251 3D0E0000 		.4byte	.LLST102
 7488 2255 3C       		.uleb128 0x3c
 7489 2256 060E0000 		.4byte	.LASF292
 7490 225a 01       		.byte	0x1
 7491 225b 5802     		.2byte	0x258
 7492 225d A2130000 		.4byte	0x13a2
 7493 2261 01       		.byte	0x1
ARM GAS  C:\Users\srich\AppData\Local\Temp\cc7Prgoh.s 			page 133


 7494 2262 57       		.byte	0x57
 7495 2263 3B       		.uleb128 0x3b
 7496 2264 A3040000 		.4byte	.LASF321
 7497 2268 01       		.byte	0x1
 7498 2269 5902     		.2byte	0x259
 7499 226b B2000000 		.4byte	0xb2
 7500 226f 770E0000 		.4byte	.LLST103
 7501 2273 3D       		.uleb128 0x3d
 7502 2274 D8020000 		.4byte	.Ldebug_ranges0+0x2d8
 7503 2278 16230000 		.4byte	0x2316
 7504 227c 3E       		.uleb128 0x3e
 7505 227d 6F737000 		.ascii	"osp\000"
 7506 2281 01       		.byte	0x1
 7507 2282 6602     		.2byte	0x266
 7508 2284 08130000 		.4byte	0x1308
 7509 2288 8A0E0000 		.4byte	.LLST104
 7510 228c 46       		.uleb128 0x46
 7511 228d 70000000 		.4byte	.LBB204
 7512 2291 76000000 		.4byte	.LBE204
 7513 2295 AA220000 		.4byte	0x22aa
 7514 2299 3E       		.uleb128 0x3e
 7515 229a 746D7000 		.ascii	"tmp\000"
 7516 229e 01       		.byte	0x1
 7517 229f 6F02     		.2byte	0x26f
 7518 22a1 B2000000 		.4byte	0xb2
 7519 22a5 BE0E0000 		.4byte	.LLST105
 7520 22a9 00       		.byte	0
 7521 22aa 40       		.uleb128 0x40
 7522 22ab 46150000 		.4byte	0x1546
 7523 22af 76000000 		.4byte	.LBB205
 7524 22b3 F0020000 		.4byte	.Ldebug_ranges0+0x2f0
 7525 22b7 01       		.byte	0x1
 7526 22b8 7002     		.2byte	0x270
 7527 22ba CF220000 		.4byte	0x22cf
 7528 22be 41       		.uleb128 0x41
 7529 22bf 61150000 		.4byte	0x1561
 7530 22c3 D10E0000 		.4byte	.LLST106
 7531 22c7 48       		.uleb128 0x48
 7532 22c8 55150000 		.4byte	0x1555
 7533 22cc 01       		.byte	0x1
 7534 22cd 55       		.byte	0x55
 7535 22ce 00       		.byte	0
 7536 22cf 3D       		.uleb128 0x3d
 7537 22d0 08030000 		.4byte	.Ldebug_ranges0+0x308
 7538 22d4 E9220000 		.4byte	0x22e9
 7539 22d8 3E       		.uleb128 0x3e
 7540 22d9 746D7000 		.ascii	"tmp\000"
 7541 22dd 01       		.byte	0x1
 7542 22de 7102     		.2byte	0x271
 7543 22e0 B2000000 		.4byte	0xb2
 7544 22e4 F20E0000 		.4byte	.LLST107
 7545 22e8 00       		.byte	0
 7546 22e9 56       		.uleb128 0x56
 7547 22ea 52000000 		.4byte	.LVL231
 7548 22ee FF220000 		.4byte	0x22ff
 7549 22f2 38       		.uleb128 0x38
 7550 22f3 01       		.byte	0x1
ARM GAS  C:\Users\srich\AppData\Local\Temp\cc7Prgoh.s 			page 134


 7551 22f4 51       		.byte	0x51
 7552 22f5 02       		.byte	0x2
 7553 22f6 76       		.byte	0x76
 7554 22f7 00       		.sleb128 0
 7555 22f8 38       		.uleb128 0x38
 7556 22f9 01       		.byte	0x1
 7557 22fa 50       		.byte	0x50
 7558 22fb 02       		.byte	0x2
 7559 22fc 75       		.byte	0x75
 7560 22fd 00       		.sleb128 0
 7561 22fe 00       		.byte	0
 7562 22ff 4B       		.uleb128 0x4b
 7563 2300 70000000 		.4byte	.LVL236
 7564 2304 C1210000 		.4byte	0x21c1
 7565 2308 38       		.uleb128 0x38
 7566 2309 01       		.byte	0x1
 7567 230a 51       		.byte	0x51
 7568 230b 02       		.byte	0x2
 7569 230c 76       		.byte	0x76
 7570 230d 00       		.sleb128 0
 7571 230e 38       		.uleb128 0x38
 7572 230f 01       		.byte	0x1
 7573 2310 50       		.byte	0x50
 7574 2311 02       		.byte	0x2
 7575 2312 75       		.byte	0x75
 7576 2313 00       		.sleb128 0
 7577 2314 00       		.byte	0
 7578 2315 00       		.byte	0
 7579 2316 57       		.uleb128 0x57
 7580 2317 5E000000 		.4byte	.LVL233
 7581 231b 38       		.uleb128 0x38
 7582 231c 01       		.byte	0x1
 7583 231d 51       		.byte	0x51
 7584 231e 02       		.byte	0x2
 7585 231f 76       		.byte	0x76
 7586 2320 00       		.sleb128 0
 7587 2321 38       		.uleb128 0x38
 7588 2322 01       		.byte	0x1
 7589 2323 50       		.byte	0x50
 7590 2324 02       		.byte	0x2
 7591 2325 75       		.byte	0x75
 7592 2326 00       		.sleb128 0
 7593 2327 00       		.byte	0
 7594 2328 00       		.byte	0
 7595 2329 4C       		.uleb128 0x4c
 7596 232a 01       		.byte	0x1
 7597 232b 8B000000 		.4byte	.LASF322
 7598 232f 01       		.byte	0x1
 7599 2330 E404     		.2byte	0x4e4
 7600 2332 01       		.byte	0x1
 7601 2333 00000000 		.4byte	.LFB149
 7602 2337 4A000000 		.4byte	.LFE149
 7603 233b 050F0000 		.4byte	.LLST108
 7604 233f 01       		.byte	0x1
 7605 2340 8A230000 		.4byte	0x238a
 7606 2344 4D       		.uleb128 0x4d
 7607 2345 42060000 		.4byte	.LASF285
ARM GAS  C:\Users\srich\AppData\Local\Temp\cc7Prgoh.s 			page 135


 7608 2349 01       		.byte	0x1
 7609 234a E404     		.2byte	0x4e4
 7610 234c 3D0A0000 		.4byte	0xa3d
 7611 2350 250F0000 		.4byte	.LLST109
 7612 2354 3A       		.uleb128 0x3a
 7613 2355 657000   		.ascii	"ep\000"
 7614 2358 01       		.byte	0x1
 7615 2359 E404     		.2byte	0x4e4
 7616 235b 0D090000 		.4byte	0x90d
 7617 235f 5F0F0000 		.4byte	.LLST110
 7618 2363 3E       		.uleb128 0x3e
 7619 2364 69737000 		.ascii	"isp\000"
 7620 2368 01       		.byte	0x1
 7621 2369 E504     		.2byte	0x4e5
 7622 236b 02130000 		.4byte	0x1302
 7623 236f 990F0000 		.4byte	.LLST111
 7624 2373 3F       		.uleb128 0x3f
 7625 2374 20030000 		.4byte	.Ldebug_ranges0+0x320
 7626 2378 3B       		.uleb128 0x3b
 7627 2379 9E030000 		.4byte	.LASF319
 7628 237d 01       		.byte	0x1
 7629 237e F204     		.2byte	0x4f2
 7630 2380 B2000000 		.4byte	0xb2
 7631 2384 E60F0000 		.4byte	.LLST112
 7632 2388 00       		.byte	0
 7633 2389 00       		.byte	0
 7634 238a 2C       		.uleb128 0x2c
 7635 238b E8070000 		.4byte	.LASF323
 7636 238f 01       		.byte	0x1
 7637 2390 7B       		.byte	0x7b
 7638 2391 01       		.byte	0x1
 7639 2392 01       		.byte	0x1
 7640 2393 A3230000 		.4byte	0x23a3
 7641 2397 23       		.uleb128 0x23
 7642 2398 42060000 		.4byte	.LASF285
 7643 239c 01       		.byte	0x1
 7644 239d 7B       		.byte	0x7b
 7645 239e 3D0A0000 		.4byte	0xa3d
 7646 23a2 00       		.byte	0
 7647 23a3 55       		.uleb128 0x55
 7648 23a4 A20D0000 		.4byte	.LASF324
 7649 23a8 01       		.byte	0x1
 7650 23a9 2702     		.2byte	0x227
 7651 23ab 01       		.byte	0x1
 7652 23ac 00000000 		.4byte	.LFB133
 7653 23b0 D0000000 		.4byte	.LFE133
 7654 23b4 12100000 		.4byte	.LLST113
 7655 23b8 01       		.byte	0x1
 7656 23b9 01250000 		.4byte	0x2501
 7657 23bd 4D       		.uleb128 0x4d
 7658 23be 42060000 		.4byte	.LASF285
 7659 23c2 01       		.byte	0x1
 7660 23c3 2702     		.2byte	0x227
 7661 23c5 3D0A0000 		.4byte	0xa3d
 7662 23c9 32100000 		.4byte	.LLST114
 7663 23cd 3A       		.uleb128 0x3a
 7664 23ce 657000   		.ascii	"ep\000"
ARM GAS  C:\Users\srich\AppData\Local\Temp\cc7Prgoh.s 			page 136


 7665 23d1 01       		.byte	0x1
 7666 23d2 2702     		.2byte	0x227
 7667 23d4 0D090000 		.4byte	0x90d
 7668 23d8 7C100000 		.4byte	.LLST115
 7669 23dc 3C       		.uleb128 0x3c
 7670 23dd 060E0000 		.4byte	.LASF292
 7671 23e1 01       		.byte	0x1
 7672 23e2 2802     		.2byte	0x228
 7673 23e4 A2130000 		.4byte	0x13a2
 7674 23e8 01       		.byte	0x1
 7675 23e9 55       		.byte	0x55
 7676 23ea 3C       		.uleb128 0x3c
 7677 23eb A3040000 		.4byte	.LASF321
 7678 23ef 01       		.byte	0x1
 7679 23f0 2902     		.2byte	0x229
 7680 23f2 B2000000 		.4byte	0xb2
 7681 23f6 01       		.byte	0x1
 7682 23f7 54       		.byte	0x54
 7683 23f8 3D       		.uleb128 0x3d
 7684 23f9 38030000 		.4byte	.Ldebug_ranges0+0x338
 7685 23fd A1240000 		.4byte	0x24a1
 7686 2401 3E       		.uleb128 0x3e
 7687 2402 69737000 		.ascii	"isp\000"
 7688 2406 01       		.byte	0x1
 7689 2407 3202     		.2byte	0x232
 7690 2409 02130000 		.4byte	0x1302
 7691 240d CF100000 		.4byte	.LLST116
 7692 2411 46       		.uleb128 0x46
 7693 2412 5E000000 		.4byte	.LBB224
 7694 2416 64000000 		.4byte	.LBE224
 7695 241a 2F240000 		.4byte	0x242f
 7696 241e 3E       		.uleb128 0x3e
 7697 241f 746D7000 		.ascii	"tmp\000"
 7698 2423 01       		.byte	0x1
 7699 2424 3B02     		.2byte	0x23b
 7700 2426 B2000000 		.4byte	0xb2
 7701 242a 03110000 		.4byte	.LLST117
 7702 242e 00       		.byte	0
 7703 242f 43       		.uleb128 0x43
 7704 2430 6D150000 		.4byte	0x156d
 7705 2434 64000000 		.4byte	.LBB225
 7706 2438 84000000 		.4byte	.LBE225
 7707 243c 01       		.byte	0x1
 7708 243d 3C02     		.2byte	0x23c
 7709 243f 56240000 		.4byte	0x2456
 7710 2443 41       		.uleb128 0x41
 7711 2444 88150000 		.4byte	0x1588
 7712 2448 16110000 		.4byte	.LLST118
 7713 244c 41       		.uleb128 0x41
 7714 244d 7C150000 		.4byte	0x157c
 7715 2451 29110000 		.4byte	.LLST119
 7716 2455 00       		.byte	0
 7717 2456 46       		.uleb128 0x46
 7718 2457 84000000 		.4byte	.LBB227
 7719 245b 8C000000 		.4byte	.LBE227
 7720 245f 74240000 		.4byte	0x2474
 7721 2463 3E       		.uleb128 0x3e
ARM GAS  C:\Users\srich\AppData\Local\Temp\cc7Prgoh.s 			page 137


 7722 2464 746D7000 		.ascii	"tmp\000"
 7723 2468 01       		.byte	0x1
 7724 2469 3D02     		.2byte	0x23d
 7725 246b B2000000 		.4byte	0xb2
 7726 246f 3C110000 		.4byte	.LLST120
 7727 2473 00       		.byte	0
 7728 2474 4E       		.uleb128 0x4e
 7729 2475 5E000000 		.4byte	.LVL262
 7730 2479 29230000 		.4byte	0x2329
 7731 247d 8E240000 		.4byte	0x248e
 7732 2481 38       		.uleb128 0x38
 7733 2482 01       		.byte	0x1
 7734 2483 51       		.byte	0x51
 7735 2484 02       		.byte	0x2
 7736 2485 77       		.byte	0x77
 7737 2486 00       		.sleb128 0
 7738 2487 38       		.uleb128 0x38
 7739 2488 01       		.byte	0x1
 7740 2489 50       		.byte	0x50
 7741 248a 02       		.byte	0x2
 7742 248b 76       		.byte	0x76
 7743 248c 00       		.sleb128 0
 7744 248d 00       		.byte	0
 7745 248e 57       		.uleb128 0x57
 7746 248f CE000000 		.4byte	.LVL277
 7747 2493 38       		.uleb128 0x38
 7748 2494 01       		.byte	0x1
 7749 2495 51       		.byte	0x51
 7750 2496 02       		.byte	0x2
 7751 2497 77       		.byte	0x77
 7752 2498 00       		.sleb128 0
 7753 2499 38       		.uleb128 0x38
 7754 249a 01       		.byte	0x1
 7755 249b 50       		.byte	0x50
 7756 249c 02       		.byte	0x2
 7757 249d 76       		.byte	0x76
 7758 249e 00       		.sleb128 0
 7759 249f 00       		.byte	0
 7760 24a0 00       		.byte	0
 7761 24a1 46       		.uleb128 0x46
 7762 24a2 8C000000 		.4byte	.LBB228
 7763 24a6 92000000 		.4byte	.LBE228
 7764 24aa BF240000 		.4byte	0x24bf
 7765 24ae 3E       		.uleb128 0x3e
 7766 24af 746D7000 		.ascii	"tmp\000"
 7767 24b3 01       		.byte	0x1
 7768 24b4 4702     		.2byte	0x247
 7769 24b6 B2000000 		.4byte	0xb2
 7770 24ba 5A110000 		.4byte	.LLST121
 7771 24be 00       		.byte	0
 7772 24bf 40       		.uleb128 0x40
 7773 24c0 8A230000 		.4byte	0x238a
 7774 24c4 98000000 		.4byte	.LBB229
 7775 24c8 50030000 		.4byte	.Ldebug_ranges0+0x350
 7776 24cc 01       		.byte	0x1
 7777 24cd 4A02     		.2byte	0x24a
 7778 24cf E6240000 		.4byte	0x24e6
ARM GAS  C:\Users\srich\AppData\Local\Temp\cc7Prgoh.s 			page 138


 7779 24d3 41       		.uleb128 0x41
 7780 24d4 97230000 		.4byte	0x2397
 7781 24d8 6D110000 		.4byte	.LLST122
 7782 24dc 47       		.uleb128 0x47
 7783 24dd AC000000 		.4byte	.LVL272
 7784 24e1 78280000 		.4byte	0x2878
 7785 24e5 00       		.byte	0
 7786 24e6 45       		.uleb128 0x45
 7787 24e7 B0000000 		.4byte	.LBB233
 7788 24eb BA000000 		.4byte	.LBE233
 7789 24ef 3E       		.uleb128 0x3e
 7790 24f0 746D7000 		.ascii	"tmp\000"
 7791 24f4 01       		.byte	0x1
 7792 24f5 4B02     		.2byte	0x24b
 7793 24f7 B2000000 		.4byte	0xb2
 7794 24fb 80110000 		.4byte	.LLST123
 7795 24ff 00       		.byte	0
 7796 2500 00       		.byte	0
 7797 2501 4C       		.uleb128 0x4c
 7798 2502 01       		.byte	0x1
 7799 2503 52080000 		.4byte	.LASF325
 7800 2507 01       		.byte	0x1
 7801 2508 0C03     		.2byte	0x30c
 7802 250a 01       		.byte	0x1
 7803 250b 00000000 		.4byte	.LFB137
 7804 250f 00010000 		.4byte	.LFE137
 7805 2513 93110000 		.4byte	.LLST124
 7806 2517 01       		.byte	0x1
 7807 2518 BB260000 		.4byte	0x26bb
 7808 251c 40       		.uleb128 0x40
 7809 251d 94150000 		.4byte	0x1594
 7810 2521 02000000 		.4byte	.LBB241
 7811 2525 68030000 		.4byte	.Ldebug_ranges0+0x368
 7812 2529 01       		.byte	0x1
 7813 252a 1003     		.2byte	0x310
 7814 252c B0260000 		.4byte	0x26b0
 7815 2530 3F       		.uleb128 0x3f
 7816 2531 80030000 		.4byte	.Ldebug_ranges0+0x380
 7817 2535 42       		.uleb128 0x42
 7818 2536 AE150000 		.4byte	0x15ae
 7819 253a B3110000 		.4byte	.LLST125
 7820 253e 42       		.uleb128 0x42
 7821 253f BA150000 		.4byte	0x15ba
 7822 2543 D1110000 		.4byte	.LLST126
 7823 2547 42       		.uleb128 0x42
 7824 2548 C6150000 		.4byte	0x15c6
 7825 254c EF110000 		.4byte	.LLST127
 7826 2550 48       		.uleb128 0x48
 7827 2551 A2150000 		.4byte	0x15a2
 7828 2555 06       		.byte	0x6
 7829 2556 03       		.byte	0x3
 7830 2557 00000000 		.4byte	USBD1
 7831 255b 9F       		.byte	0x9f
 7832 255c 46       		.uleb128 0x46
 7833 255d 80000000 		.4byte	.LBB243
 7834 2561 86000000 		.4byte	.LBE243
 7835 2565 73250000 		.4byte	0x2573
ARM GAS  C:\Users\srich\AppData\Local\Temp\cc7Prgoh.s 			page 139


 7836 2569 42       		.uleb128 0x42
 7837 256a D7150000 		.4byte	0x15d7
 7838 256e 0D120000 		.4byte	.LLST128
 7839 2572 00       		.byte	0
 7840 2573 40       		.uleb128 0x40
 7841 2574 8A230000 		.4byte	0x238a
 7842 2578 88000000 		.4byte	.LBB244
 7843 257c 98030000 		.4byte	.Ldebug_ranges0+0x398
 7844 2580 01       		.byte	0x1
 7845 2581 9F02     		.2byte	0x29f
 7846 2583 9A250000 		.4byte	0x259a
 7847 2587 41       		.uleb128 0x41
 7848 2588 97230000 		.4byte	0x2397
 7849 258c 20120000 		.4byte	.LLST129
 7850 2590 47       		.uleb128 0x47
 7851 2591 96000000 		.4byte	.LVL297
 7852 2595 78280000 		.4byte	0x2878
 7853 2599 00       		.byte	0
 7854 259a 46       		.uleb128 0x46
 7855 259b 9C000000 		.4byte	.LBB248
 7856 259f A4000000 		.4byte	.LBE248
 7857 25a3 B1250000 		.4byte	0x25b1
 7858 25a7 42       		.uleb128 0x42
 7859 25a8 E5150000 		.4byte	0x15e5
 7860 25ac 38120000 		.4byte	.LLST130
 7861 25b0 00       		.byte	0
 7862 25b1 56       		.uleb128 0x56
 7863 25b2 28000000 		.4byte	.LVL282
 7864 25b6 C1250000 		.4byte	0x25c1
 7865 25ba 38       		.uleb128 0x38
 7866 25bb 01       		.byte	0x1
 7867 25bc 50       		.byte	0x50
 7868 25bd 02       		.byte	0x2
 7869 25be 76       		.byte	0x76
 7870 25bf 00       		.sleb128 0
 7871 25c0 00       		.byte	0
 7872 25c1 4E       		.uleb128 0x4e
 7873 25c2 68000000 		.4byte	.LVL289
 7874 25c6 1C220000 		.4byte	0x221c
 7875 25ca DA250000 		.4byte	0x25da
 7876 25ce 38       		.uleb128 0x38
 7877 25cf 01       		.byte	0x1
 7878 25d0 51       		.byte	0x51
 7879 25d1 01       		.byte	0x1
 7880 25d2 33       		.byte	0x33
 7881 25d3 38       		.uleb128 0x38
 7882 25d4 01       		.byte	0x1
 7883 25d5 50       		.byte	0x50
 7884 25d6 02       		.byte	0x2
 7885 25d7 76       		.byte	0x76
 7886 25d8 00       		.sleb128 0
 7887 25d9 00       		.byte	0
 7888 25da 4E       		.uleb128 0x4e
 7889 25db 70000000 		.4byte	.LVL291
 7890 25df 0A290000 		.4byte	0x290a
 7891 25e3 EE250000 		.4byte	0x25ee
 7892 25e7 38       		.uleb128 0x38
ARM GAS  C:\Users\srich\AppData\Local\Temp\cc7Prgoh.s 			page 140


 7893 25e8 01       		.byte	0x1
 7894 25e9 50       		.byte	0x50
 7895 25ea 02       		.byte	0x2
 7896 25eb 76       		.byte	0x76
 7897 25ec 00       		.sleb128 0
 7898 25ed 00       		.byte	0
 7899 25ee 56       		.uleb128 0x56
 7900 25ef 7E000000 		.4byte	.LVL292
 7901 25f3 03260000 		.4byte	0x2603
 7902 25f7 38       		.uleb128 0x38
 7903 25f8 01       		.byte	0x1
 7904 25f9 51       		.byte	0x51
 7905 25fa 01       		.byte	0x1
 7906 25fb 30       		.byte	0x30
 7907 25fc 38       		.uleb128 0x38
 7908 25fd 01       		.byte	0x1
 7909 25fe 50       		.byte	0x50
 7910 25ff 02       		.byte	0x2
 7911 2600 76       		.byte	0x76
 7912 2601 00       		.sleb128 0
 7913 2602 00       		.byte	0
 7914 2603 4E       		.uleb128 0x4e
 7915 2604 AC000000 		.4byte	.LVL300
 7916 2608 1C220000 		.4byte	0x221c
 7917 260c 1C260000 		.4byte	0x261c
 7918 2610 38       		.uleb128 0x38
 7919 2611 01       		.byte	0x1
 7920 2612 51       		.byte	0x51
 7921 2613 01       		.byte	0x1
 7922 2614 32       		.byte	0x32
 7923 2615 38       		.uleb128 0x38
 7924 2616 01       		.byte	0x1
 7925 2617 50       		.byte	0x50
 7926 2618 02       		.byte	0x2
 7927 2619 76       		.byte	0x76
 7928 261a 00       		.sleb128 0
 7929 261b 00       		.byte	0
 7930 261c 4E       		.uleb128 0x4e
 7931 261d BA000000 		.4byte	.LVL301
 7932 2621 1C220000 		.4byte	0x221c
 7933 2625 35260000 		.4byte	0x2635
 7934 2629 38       		.uleb128 0x38
 7935 262a 01       		.byte	0x1
 7936 262b 51       		.byte	0x51
 7937 262c 01       		.byte	0x1
 7938 262d 30       		.byte	0x30
 7939 262e 38       		.uleb128 0x38
 7940 262f 01       		.byte	0x1
 7941 2630 50       		.byte	0x50
 7942 2631 02       		.byte	0x2
 7943 2632 76       		.byte	0x76
 7944 2633 00       		.sleb128 0
 7945 2634 00       		.byte	0
 7946 2635 4E       		.uleb128 0x4e
 7947 2636 C6000000 		.4byte	.LVL302
 7948 263a 1C220000 		.4byte	0x221c
 7949 263e 4E260000 		.4byte	0x264e
ARM GAS  C:\Users\srich\AppData\Local\Temp\cc7Prgoh.s 			page 141


 7950 2642 38       		.uleb128 0x38
 7951 2643 01       		.byte	0x1
 7952 2644 51       		.byte	0x51
 7953 2645 01       		.byte	0x1
 7954 2646 31       		.byte	0x31
 7955 2647 38       		.uleb128 0x38
 7956 2648 01       		.byte	0x1
 7957 2649 50       		.byte	0x50
 7958 264a 02       		.byte	0x2
 7959 264b 76       		.byte	0x76
 7960 264c 00       		.sleb128 0
 7961 264d 00       		.byte	0
 7962 264e 4E       		.uleb128 0x4e
 7963 264f D4000000 		.4byte	.LVL303
 7964 2653 A3230000 		.4byte	0x23a3
 7965 2657 67260000 		.4byte	0x2667
 7966 265b 38       		.uleb128 0x38
 7967 265c 01       		.byte	0x1
 7968 265d 51       		.byte	0x51
 7969 265e 01       		.byte	0x1
 7970 265f 30       		.byte	0x30
 7971 2660 38       		.uleb128 0x38
 7972 2661 01       		.byte	0x1
 7973 2662 50       		.byte	0x50
 7974 2663 02       		.byte	0x2
 7975 2664 76       		.byte	0x76
 7976 2665 00       		.sleb128 0
 7977 2666 00       		.byte	0
 7978 2667 4E       		.uleb128 0x4e
 7979 2668 E0000000 		.4byte	.LVL304
 7980 266c A3230000 		.4byte	0x23a3
 7981 2670 80260000 		.4byte	0x2680
 7982 2674 38       		.uleb128 0x38
 7983 2675 01       		.byte	0x1
 7984 2676 51       		.byte	0x51
 7985 2677 01       		.byte	0x1
 7986 2678 31       		.byte	0x31
 7987 2679 38       		.uleb128 0x38
 7988 267a 01       		.byte	0x1
 7989 267b 50       		.byte	0x50
 7990 267c 02       		.byte	0x2
 7991 267d 76       		.byte	0x76
 7992 267e 00       		.sleb128 0
 7993 267f 00       		.byte	0
 7994 2680 4E       		.uleb128 0x4e
 7995 2681 EC000000 		.4byte	.LVL305
 7996 2685 A3230000 		.4byte	0x23a3
 7997 2689 99260000 		.4byte	0x2699
 7998 268d 38       		.uleb128 0x38
 7999 268e 01       		.byte	0x1
 8000 268f 51       		.byte	0x51
 8001 2690 01       		.byte	0x1
 8002 2691 32       		.byte	0x32
 8003 2692 38       		.uleb128 0x38
 8004 2693 01       		.byte	0x1
 8005 2694 50       		.byte	0x50
 8006 2695 02       		.byte	0x2
ARM GAS  C:\Users\srich\AppData\Local\Temp\cc7Prgoh.s 			page 142


 8007 2696 76       		.byte	0x76
 8008 2697 00       		.sleb128 0
 8009 2698 00       		.byte	0
 8010 2699 4B       		.uleb128 0x4b
 8011 269a F8000000 		.4byte	.LVL306
 8012 269e A3230000 		.4byte	0x23a3
 8013 26a2 38       		.uleb128 0x38
 8014 26a3 01       		.byte	0x1
 8015 26a4 51       		.byte	0x51
 8016 26a5 01       		.byte	0x1
 8017 26a6 33       		.byte	0x33
 8018 26a7 38       		.uleb128 0x38
 8019 26a8 01       		.byte	0x1
 8020 26a9 50       		.byte	0x50
 8021 26aa 02       		.byte	0x2
 8022 26ab 76       		.byte	0x76
 8023 26ac 00       		.sleb128 0
 8024 26ad 00       		.byte	0
 8025 26ae 00       		.byte	0
 8026 26af 00       		.byte	0
 8027 26b0 58       		.uleb128 0x58
 8028 26b1 60000000 		.4byte	.LVL288
 8029 26b5 01       		.byte	0x1
 8030 26b6 1F290000 		.4byte	0x291f
 8031 26ba 00       		.byte	0
 8032 26bb 59       		.uleb128 0x59
 8033 26bc 46150000 		.4byte	0x1546
 8034 26c0 00000000 		.4byte	.LFB150
 8035 26c4 10000000 		.4byte	.LFE150
 8036 26c8 02       		.byte	0x2
 8037 26c9 7D       		.byte	0x7d
 8038 26ca 00       		.sleb128 0
 8039 26cb 01       		.byte	0x1
 8040 26cc E3260000 		.4byte	0x26e3
 8041 26d0 41       		.uleb128 0x41
 8042 26d1 55150000 		.4byte	0x1555
 8043 26d5 61120000 		.4byte	.LLST131
 8044 26d9 41       		.uleb128 0x41
 8045 26da 61150000 		.4byte	0x1561
 8046 26de 82120000 		.4byte	.LLST132
 8047 26e2 00       		.byte	0
 8048 26e3 59       		.uleb128 0x59
 8049 26e4 6D150000 		.4byte	0x156d
 8050 26e8 00000000 		.4byte	.LFB151
 8051 26ec 22000000 		.4byte	.LFE151
 8052 26f0 02       		.byte	0x2
 8053 26f1 7D       		.byte	0x7d
 8054 26f2 00       		.sleb128 0
 8055 26f3 01       		.byte	0x1
 8056 26f4 0B270000 		.4byte	0x270b
 8057 26f8 41       		.uleb128 0x41
 8058 26f9 7C150000 		.4byte	0x157c
 8059 26fd A3120000 		.4byte	.LLST133
 8060 2701 41       		.uleb128 0x41
 8061 2702 88150000 		.4byte	0x1588
 8062 2706 C4120000 		.4byte	.LLST134
 8063 270a 00       		.byte	0
ARM GAS  C:\Users\srich\AppData\Local\Temp\cc7Prgoh.s 			page 143


 8064 270b 51       		.uleb128 0x51
 8065 270c 01       		.byte	0x1
 8066 270d 07000000 		.4byte	.LASF326
 8067 2711 01       		.byte	0x1
 8068 2712 1C05     		.2byte	0x51c
 8069 2714 01       		.byte	0x1
 8070 2715 00000000 		.4byte	.LFB152
 8071 2719 10000000 		.4byte	.LFE152
 8072 271d 02       		.byte	0x2
 8073 271e 7D       		.byte	0x7d
 8074 271f 00       		.sleb128 0
 8075 2720 01       		.byte	0x1
 8076 2721 45270000 		.4byte	0x2745
 8077 2725 4D       		.uleb128 0x4d
 8078 2726 42060000 		.4byte	.LASF285
 8079 272a 01       		.byte	0x1
 8080 272b 1C05     		.2byte	0x51c
 8081 272d 3D0A0000 		.4byte	0xa3d
 8082 2731 E5120000 		.4byte	.LLST135
 8083 2735 3A       		.uleb128 0x3a
 8084 2736 657000   		.ascii	"ep\000"
 8085 2739 01       		.byte	0x1
 8086 273a 1C05     		.2byte	0x51c
 8087 273c 0D090000 		.4byte	0x90d
 8088 2740 06130000 		.4byte	.LLST136
 8089 2744 00       		.byte	0
 8090 2745 51       		.uleb128 0x51
 8091 2746 01       		.byte	0x1
 8092 2747 6E080000 		.4byte	.LASF327
 8093 274b 01       		.byte	0x1
 8094 274c 2905     		.2byte	0x529
 8095 274e 01       		.byte	0x1
 8096 274f 00000000 		.4byte	.LFB153
 8097 2753 10000000 		.4byte	.LFE153
 8098 2757 02       		.byte	0x2
 8099 2758 7D       		.byte	0x7d
 8100 2759 00       		.sleb128 0
 8101 275a 01       		.byte	0x1
 8102 275b 7F270000 		.4byte	0x277f
 8103 275f 4D       		.uleb128 0x4d
 8104 2760 42060000 		.4byte	.LASF285
 8105 2764 01       		.byte	0x1
 8106 2765 2905     		.2byte	0x529
 8107 2767 3D0A0000 		.4byte	0xa3d
 8108 276b 27130000 		.4byte	.LLST137
 8109 276f 3A       		.uleb128 0x3a
 8110 2770 657000   		.ascii	"ep\000"
 8111 2773 01       		.byte	0x1
 8112 2774 2905     		.2byte	0x529
 8113 2776 0D090000 		.4byte	0x90d
 8114 277a 48130000 		.4byte	.LLST138
 8115 277e 00       		.byte	0
 8116 277f 51       		.uleb128 0x51
 8117 2780 01       		.byte	0x1
 8118 2781 B0000000 		.4byte	.LASF328
 8119 2785 01       		.byte	0x1
 8120 2786 3605     		.2byte	0x536
ARM GAS  C:\Users\srich\AppData\Local\Temp\cc7Prgoh.s 			page 144


 8121 2788 01       		.byte	0x1
 8122 2789 00000000 		.4byte	.LFB154
 8123 278d 10000000 		.4byte	.LFE154
 8124 2791 02       		.byte	0x2
 8125 2792 7D       		.byte	0x7d
 8126 2793 00       		.sleb128 0
 8127 2794 01       		.byte	0x1
 8128 2795 B9270000 		.4byte	0x27b9
 8129 2799 4D       		.uleb128 0x4d
 8130 279a 42060000 		.4byte	.LASF285
 8131 279e 01       		.byte	0x1
 8132 279f 3605     		.2byte	0x536
 8133 27a1 3D0A0000 		.4byte	0xa3d
 8134 27a5 69130000 		.4byte	.LLST139
 8135 27a9 3A       		.uleb128 0x3a
 8136 27aa 657000   		.ascii	"ep\000"
 8137 27ad 01       		.byte	0x1
 8138 27ae 3605     		.2byte	0x536
 8139 27b0 0D090000 		.4byte	0x90d
 8140 27b4 8A130000 		.4byte	.LLST140
 8141 27b8 00       		.byte	0
 8142 27b9 51       		.uleb128 0x51
 8143 27ba 01       		.byte	0x1
 8144 27bb 000D0000 		.4byte	.LASF329
 8145 27bf 01       		.byte	0x1
 8146 27c0 4305     		.2byte	0x543
 8147 27c2 01       		.byte	0x1
 8148 27c3 00000000 		.4byte	.LFB155
 8149 27c7 10000000 		.4byte	.LFE155
 8150 27cb 02       		.byte	0x2
 8151 27cc 7D       		.byte	0x7d
 8152 27cd 00       		.sleb128 0
 8153 27ce 01       		.byte	0x1
 8154 27cf F3270000 		.4byte	0x27f3
 8155 27d3 4D       		.uleb128 0x4d
 8156 27d4 42060000 		.4byte	.LASF285
 8157 27d8 01       		.byte	0x1
 8158 27d9 4305     		.2byte	0x543
 8159 27db 3D0A0000 		.4byte	0xa3d
 8160 27df AB130000 		.4byte	.LLST141
 8161 27e3 3A       		.uleb128 0x3a
 8162 27e4 657000   		.ascii	"ep\000"
 8163 27e7 01       		.byte	0x1
 8164 27e8 4305     		.2byte	0x543
 8165 27ea 0D090000 		.4byte	0x90d
 8166 27ee CC130000 		.4byte	.LLST142
 8167 27f2 00       		.byte	0
 8168 27f3 33       		.uleb128 0x33
 8169 27f4 0C030000 		.4byte	.LASF330
 8170 27f8 01       		.byte	0x1
 8171 27f9 49       		.byte	0x49
 8172 27fa C3130000 		.4byte	0x13c3
 8173 27fe 05       		.byte	0x5
 8174 27ff 03       		.byte	0x3
 8175 2800 00000000 		.4byte	ep0_state
 8176 2804 33       		.uleb128 0x33
 8177 2805 E9000000 		.4byte	.LASF331
ARM GAS  C:\Users\srich\AppData\Local\Temp\cc7Prgoh.s 			page 145


 8178 2809 01       		.byte	0x1
 8179 280a 4E       		.byte	0x4e
 8180 280b 99070000 		.4byte	0x799
 8181 280f 05       		.byte	0x5
 8182 2810 03       		.byte	0x3
 8183 2811 00000000 		.4byte	ep0setup_buffer
 8184 2815 33       		.uleb128 0x33
 8185 2816 E5080000 		.4byte	.LASF332
 8186 281a 01       		.byte	0x1
 8187 281b 53       		.byte	0x53
 8188 281c 8D130000 		.4byte	0x138d
 8189 2820 05       		.byte	0x5
 8190 2821 03       		.byte	0x3
 8191 2822 00000000 		.4byte	ep0config
 8192 2826 33       		.uleb128 0x33
 8193 2827 7D060000 		.4byte	.LASF333
 8194 282b 01       		.byte	0x1
 8195 282c 61       		.byte	0x61
 8196 282d AE130000 		.4byte	0x13ae
 8197 2831 05       		.byte	0x5
 8198 2832 03       		.byte	0x3
 8199 2833 00000000 		.4byte	fsparams
 8200 2837 5A       		.uleb128 0x5a
 8201 2838 6B0B0000 		.4byte	.LASF334
 8202 283c 09       		.byte	0x9
 8203 283d 6F       		.byte	0x6f
 8204 283e E8030000 		.4byte	0x3e8
 8205 2842 01       		.byte	0x1
 8206 2843 01       		.byte	0x1
 8207 2844 5B       		.uleb128 0x5b
 8208 2845 C0070000 		.4byte	.LASF335
 8209 2849 11       		.byte	0x11
 8210 284a 9806     		.2byte	0x698
 8211 284c 89050000 		.4byte	0x589
 8212 2850 01       		.byte	0x1
 8213 2851 01       		.byte	0x1
 8214 2852 5C       		.uleb128 0x5c
 8215 2853 220D0000 		.4byte	.LASF336
 8216 2857 01       		.byte	0x1
 8217 2858 2F       		.byte	0x2f
 8218 2859 A9070000 		.4byte	0x7a9
 8219 285d 01       		.byte	0x1
 8220 285e 05       		.byte	0x5
 8221 285f 03       		.byte	0x3
 8222 2860 00000000 		.4byte	USBD1
 8223 2864 5D       		.uleb128 0x5d
 8224 2865 01       		.byte	0x1
 8225 2866 A4080000 		.4byte	.LASF337
 8226 286a 12       		.byte	0x12
 8227 286b D3       		.byte	0xd3
 8228 286c 01       		.byte	0x1
 8229 286d 01       		.byte	0x1
 8230 286e 78280000 		.4byte	0x2878
 8231 2872 12       		.uleb128 0x12
 8232 2873 87070000 		.4byte	0x787
 8233 2877 00       		.byte	0
 8234 2878 5E       		.uleb128 0x5e
ARM GAS  C:\Users\srich\AppData\Local\Temp\cc7Prgoh.s 			page 146


 8235 2879 01       		.byte	0x1
 8236 287a A4000000 		.4byte	.LASF340
 8237 287e 09       		.byte	0x9
 8238 287f 90       		.byte	0x90
 8239 2880 01       		.byte	0x1
 8240 2881 87020000 		.4byte	0x287
 8241 2885 01       		.byte	0x1
 8242 2886 90280000 		.4byte	0x2890
 8243 288a 12       		.uleb128 0x12
 8244 288b 87020000 		.4byte	0x287
 8245 288f 00       		.byte	0
 8246 2890 5F       		.uleb128 0x5f
 8247 2891 01       		.byte	0x1
 8248 2892 1D0C0000 		.4byte	.LASF344
 8249 2896 09       		.byte	0x9
 8250 2897 9C       		.byte	0x9c
 8251 2898 01       		.byte	0x1
 8252 2899 01       		.byte	0x1
 8253 289a 5D       		.uleb128 0x5d
 8254 289b 01       		.byte	0x1
 8255 289c 86050000 		.4byte	.LASF338
 8256 28a0 09       		.byte	0x9
 8257 28a1 93       		.byte	0x93
 8258 28a2 01       		.byte	0x1
 8259 28a3 01       		.byte	0x1
 8260 28a4 AE280000 		.4byte	0x28ae
 8261 28a8 12       		.uleb128 0x12
 8262 28a9 E5000000 		.4byte	0xe5
 8263 28ad 00       		.byte	0
 8264 28ae 60       		.uleb128 0x60
 8265 28af 01       		.byte	0x1
 8266 28b0 80020000 		.4byte	.LASF339
 8267 28b4 0E       		.byte	0xe
 8268 28b5 2A02     		.2byte	0x22a
 8269 28b7 01       		.byte	0x1
 8270 28b8 01       		.byte	0x1
 8271 28b9 C3280000 		.4byte	0x28c3
 8272 28bd 12       		.uleb128 0x12
 8273 28be 3D0A0000 		.4byte	0xa3d
 8274 28c2 00       		.byte	0
 8275 28c3 61       		.uleb128 0x61
 8276 28c4 01       		.byte	0x1
 8277 28c5 000B0000 		.4byte	.LASF341
 8278 28c9 07       		.byte	0x7
 8279 28ca 6E01     		.2byte	0x16e
 8280 28cc 01       		.byte	0x1
 8281 28cd 87020000 		.4byte	0x287
 8282 28d1 01       		.byte	0x1
 8283 28d2 F0280000 		.4byte	0x28f0
 8284 28d6 12       		.uleb128 0x12
 8285 28d7 6B000000 		.4byte	0x6b
 8286 28db 12       		.uleb128 0x12
 8287 28dc 86000000 		.4byte	0x86
 8288 28e0 12       		.uleb128 0x12
 8289 28e1 06010000 		.4byte	0x106
 8290 28e5 12       		.uleb128 0x12
 8291 28e6 76040000 		.4byte	0x476
ARM GAS  C:\Users\srich\AppData\Local\Temp\cc7Prgoh.s 			page 147


 8292 28ea 12       		.uleb128 0x12
 8293 28eb 6B000000 		.4byte	0x6b
 8294 28ef 00       		.byte	0
 8295 28f0 60       		.uleb128 0x60
 8296 28f1 01       		.byte	0x1
 8297 28f2 A2060000 		.4byte	.LASF342
 8298 28f6 13       		.byte	0x13
 8299 28f7 2301     		.2byte	0x123
 8300 28f9 01       		.byte	0x1
 8301 28fa 01       		.byte	0x1
 8302 28fb 0A290000 		.4byte	0x290a
 8303 28ff 12       		.uleb128 0x12
 8304 2900 B2000000 		.4byte	0xb2
 8305 2904 12       		.uleb128 0x12
 8306 2905 B2000000 		.4byte	0xb2
 8307 2909 00       		.byte	0
 8308 290a 60       		.uleb128 0x60
 8309 290b 01       		.byte	0x1
 8310 290c 16030000 		.4byte	.LASF343
 8311 2910 0E       		.byte	0xe
 8312 2911 3D02     		.2byte	0x23d
 8313 2913 01       		.byte	0x1
 8314 2914 01       		.byte	0x1
 8315 2915 1F290000 		.4byte	0x291f
 8316 2919 12       		.uleb128 0x12
 8317 291a 3D0A0000 		.4byte	0xa3d
 8318 291e 00       		.byte	0
 8319 291f 62       		.uleb128 0x62
 8320 2920 01       		.byte	0x1
 8321 2921 BD080000 		.4byte	.LASF345
 8322 2925 08       		.byte	0x8
 8323 2926 0302     		.2byte	0x203
 8324 2928 01       		.byte	0x1
 8325 2929 01       		.byte	0x1
 8326 292a 00       		.byte	0
 8327              		.section	.debug_abbrev,"",%progbits
 8328              	.Ldebug_abbrev0:
 8329 0000 01       		.uleb128 0x1
 8330 0001 11       		.uleb128 0x11
 8331 0002 01       		.byte	0x1
 8332 0003 25       		.uleb128 0x25
 8333 0004 0E       		.uleb128 0xe
 8334 0005 13       		.uleb128 0x13
 8335 0006 0B       		.uleb128 0xb
 8336 0007 03       		.uleb128 0x3
 8337 0008 0E       		.uleb128 0xe
 8338 0009 55       		.uleb128 0x55
 8339 000a 06       		.uleb128 0x6
 8340 000b 11       		.uleb128 0x11
 8341 000c 01       		.uleb128 0x1
 8342 000d 52       		.uleb128 0x52
 8343 000e 01       		.uleb128 0x1
 8344 000f 10       		.uleb128 0x10
 8345 0010 06       		.uleb128 0x6
 8346 0011 00       		.byte	0
 8347 0012 00       		.byte	0
 8348 0013 02       		.uleb128 0x2
ARM GAS  C:\Users\srich\AppData\Local\Temp\cc7Prgoh.s 			page 148


 8349 0014 24       		.uleb128 0x24
 8350 0015 00       		.byte	0
 8351 0016 0B       		.uleb128 0xb
 8352 0017 0B       		.uleb128 0xb
 8353 0018 3E       		.uleb128 0x3e
 8354 0019 0B       		.uleb128 0xb
 8355 001a 03       		.uleb128 0x3
 8356 001b 0E       		.uleb128 0xe
 8357 001c 00       		.byte	0
 8358 001d 00       		.byte	0
 8359 001e 03       		.uleb128 0x3
 8360 001f 24       		.uleb128 0x24
 8361 0020 00       		.byte	0
 8362 0021 0B       		.uleb128 0xb
 8363 0022 0B       		.uleb128 0xb
 8364 0023 3E       		.uleb128 0x3e
 8365 0024 0B       		.uleb128 0xb
 8366 0025 03       		.uleb128 0x3
 8367 0026 08       		.uleb128 0x8
 8368 0027 00       		.byte	0
 8369 0028 00       		.byte	0
 8370 0029 04       		.uleb128 0x4
 8371 002a 0F       		.uleb128 0xf
 8372 002b 00       		.byte	0
 8373 002c 0B       		.uleb128 0xb
 8374 002d 0B       		.uleb128 0xb
 8375 002e 00       		.byte	0
 8376 002f 00       		.byte	0
 8377 0030 05       		.uleb128 0x5
 8378 0031 0F       		.uleb128 0xf
 8379 0032 00       		.byte	0
 8380 0033 0B       		.uleb128 0xb
 8381 0034 0B       		.uleb128 0xb
 8382 0035 49       		.uleb128 0x49
 8383 0036 13       		.uleb128 0x13
 8384 0037 00       		.byte	0
 8385 0038 00       		.byte	0
 8386 0039 06       		.uleb128 0x6
 8387 003a 26       		.uleb128 0x26
 8388 003b 00       		.byte	0
 8389 003c 49       		.uleb128 0x49
 8390 003d 13       		.uleb128 0x13
 8391 003e 00       		.byte	0
 8392 003f 00       		.byte	0
 8393 0040 07       		.uleb128 0x7
 8394 0041 16       		.uleb128 0x16
 8395 0042 00       		.byte	0
 8396 0043 03       		.uleb128 0x3
 8397 0044 0E       		.uleb128 0xe
 8398 0045 3A       		.uleb128 0x3a
 8399 0046 0B       		.uleb128 0xb
 8400 0047 3B       		.uleb128 0x3b
 8401 0048 0B       		.uleb128 0xb
 8402 0049 49       		.uleb128 0x49
 8403 004a 13       		.uleb128 0x13
 8404 004b 00       		.byte	0
 8405 004c 00       		.byte	0
ARM GAS  C:\Users\srich\AppData\Local\Temp\cc7Prgoh.s 			page 149


 8406 004d 08       		.uleb128 0x8
 8407 004e 13       		.uleb128 0x13
 8408 004f 01       		.byte	0x1
 8409 0050 03       		.uleb128 0x3
 8410 0051 0E       		.uleb128 0xe
 8411 0052 0B       		.uleb128 0xb
 8412 0053 0B       		.uleb128 0xb
 8413 0054 3A       		.uleb128 0x3a
 8414 0055 0B       		.uleb128 0xb
 8415 0056 3B       		.uleb128 0x3b
 8416 0057 0B       		.uleb128 0xb
 8417 0058 01       		.uleb128 0x1
 8418 0059 13       		.uleb128 0x13
 8419 005a 00       		.byte	0
 8420 005b 00       		.byte	0
 8421 005c 09       		.uleb128 0x9
 8422 005d 0D       		.uleb128 0xd
 8423 005e 00       		.byte	0
 8424 005f 03       		.uleb128 0x3
 8425 0060 0E       		.uleb128 0xe
 8426 0061 3A       		.uleb128 0x3a
 8427 0062 0B       		.uleb128 0xb
 8428 0063 3B       		.uleb128 0x3b
 8429 0064 0B       		.uleb128 0xb
 8430 0065 49       		.uleb128 0x49
 8431 0066 13       		.uleb128 0x13
 8432 0067 38       		.uleb128 0x38
 8433 0068 0A       		.uleb128 0xa
 8434 0069 00       		.byte	0
 8435 006a 00       		.byte	0
 8436 006b 0A       		.uleb128 0xa
 8437 006c 0D       		.uleb128 0xd
 8438 006d 00       		.byte	0
 8439 006e 03       		.uleb128 0x3
 8440 006f 08       		.uleb128 0x8
 8441 0070 3A       		.uleb128 0x3a
 8442 0071 0B       		.uleb128 0xb
 8443 0072 3B       		.uleb128 0x3b
 8444 0073 0B       		.uleb128 0xb
 8445 0074 49       		.uleb128 0x49
 8446 0075 13       		.uleb128 0x13
 8447 0076 38       		.uleb128 0x38
 8448 0077 0A       		.uleb128 0xa
 8449 0078 00       		.byte	0
 8450 0079 00       		.byte	0
 8451 007a 0B       		.uleb128 0xb
 8452 007b 13       		.uleb128 0x13
 8453 007c 01       		.byte	0x1
 8454 007d 0B       		.uleb128 0xb
 8455 007e 0B       		.uleb128 0xb
 8456 007f 3A       		.uleb128 0x3a
 8457 0080 0B       		.uleb128 0xb
 8458 0081 3B       		.uleb128 0x3b
 8459 0082 0B       		.uleb128 0xb
 8460 0083 01       		.uleb128 0x1
 8461 0084 13       		.uleb128 0x13
 8462 0085 00       		.byte	0
ARM GAS  C:\Users\srich\AppData\Local\Temp\cc7Prgoh.s 			page 150


 8463 0086 00       		.byte	0
 8464 0087 0C       		.uleb128 0xc
 8465 0088 13       		.uleb128 0x13
 8466 0089 01       		.byte	0x1
 8467 008a 03       		.uleb128 0x3
 8468 008b 0E       		.uleb128 0xe
 8469 008c 0B       		.uleb128 0xb
 8470 008d 0B       		.uleb128 0xb
 8471 008e 3A       		.uleb128 0x3a
 8472 008f 0B       		.uleb128 0xb
 8473 0090 3B       		.uleb128 0x3b
 8474 0091 05       		.uleb128 0x5
 8475 0092 01       		.uleb128 0x1
 8476 0093 13       		.uleb128 0x13
 8477 0094 00       		.byte	0
 8478 0095 00       		.byte	0
 8479 0096 0D       		.uleb128 0xd
 8480 0097 0D       		.uleb128 0xd
 8481 0098 00       		.byte	0
 8482 0099 03       		.uleb128 0x3
 8483 009a 08       		.uleb128 0x8
 8484 009b 3A       		.uleb128 0x3a
 8485 009c 0B       		.uleb128 0xb
 8486 009d 3B       		.uleb128 0x3b
 8487 009e 05       		.uleb128 0x5
 8488 009f 49       		.uleb128 0x49
 8489 00a0 13       		.uleb128 0x13
 8490 00a1 38       		.uleb128 0x38
 8491 00a2 0A       		.uleb128 0xa
 8492 00a3 00       		.byte	0
 8493 00a4 00       		.byte	0
 8494 00a5 0E       		.uleb128 0xe
 8495 00a6 35       		.uleb128 0x35
 8496 00a7 00       		.byte	0
 8497 00a8 49       		.uleb128 0x49
 8498 00a9 13       		.uleb128 0x13
 8499 00aa 00       		.byte	0
 8500 00ab 00       		.byte	0
 8501 00ac 0F       		.uleb128 0xf
 8502 00ad 17       		.uleb128 0x17
 8503 00ae 01       		.byte	0x1
 8504 00af 0B       		.uleb128 0xb
 8505 00b0 0B       		.uleb128 0xb
 8506 00b1 3A       		.uleb128 0x3a
 8507 00b2 0B       		.uleb128 0xb
 8508 00b3 3B       		.uleb128 0x3b
 8509 00b4 0B       		.uleb128 0xb
 8510 00b5 01       		.uleb128 0x1
 8511 00b6 13       		.uleb128 0x13
 8512 00b7 00       		.byte	0
 8513 00b8 00       		.byte	0
 8514 00b9 10       		.uleb128 0x10
 8515 00ba 0D       		.uleb128 0xd
 8516 00bb 00       		.byte	0
 8517 00bc 03       		.uleb128 0x3
 8518 00bd 0E       		.uleb128 0xe
 8519 00be 3A       		.uleb128 0x3a
ARM GAS  C:\Users\srich\AppData\Local\Temp\cc7Prgoh.s 			page 151


 8520 00bf 0B       		.uleb128 0xb
 8521 00c0 3B       		.uleb128 0x3b
 8522 00c1 0B       		.uleb128 0xb
 8523 00c2 49       		.uleb128 0x49
 8524 00c3 13       		.uleb128 0x13
 8525 00c4 00       		.byte	0
 8526 00c5 00       		.byte	0
 8527 00c6 11       		.uleb128 0x11
 8528 00c7 15       		.uleb128 0x15
 8529 00c8 01       		.byte	0x1
 8530 00c9 27       		.uleb128 0x27
 8531 00ca 0C       		.uleb128 0xc
 8532 00cb 49       		.uleb128 0x49
 8533 00cc 13       		.uleb128 0x13
 8534 00cd 01       		.uleb128 0x1
 8535 00ce 13       		.uleb128 0x13
 8536 00cf 00       		.byte	0
 8537 00d0 00       		.byte	0
 8538 00d1 12       		.uleb128 0x12
 8539 00d2 05       		.uleb128 0x5
 8540 00d3 00       		.byte	0
 8541 00d4 49       		.uleb128 0x49
 8542 00d5 13       		.uleb128 0x13
 8543 00d6 00       		.byte	0
 8544 00d7 00       		.byte	0
 8545 00d8 13       		.uleb128 0x13
 8546 00d9 15       		.uleb128 0x15
 8547 00da 01       		.byte	0x1
 8548 00db 27       		.uleb128 0x27
 8549 00dc 0C       		.uleb128 0xc
 8550 00dd 01       		.uleb128 0x1
 8551 00de 13       		.uleb128 0x13
 8552 00df 00       		.byte	0
 8553 00e0 00       		.byte	0
 8554 00e1 14       		.uleb128 0x14
 8555 00e2 01       		.uleb128 0x1
 8556 00e3 01       		.byte	0x1
 8557 00e4 49       		.uleb128 0x49
 8558 00e5 13       		.uleb128 0x13
 8559 00e6 01       		.uleb128 0x1
 8560 00e7 13       		.uleb128 0x13
 8561 00e8 00       		.byte	0
 8562 00e9 00       		.byte	0
 8563 00ea 15       		.uleb128 0x15
 8564 00eb 21       		.uleb128 0x21
 8565 00ec 00       		.byte	0
 8566 00ed 49       		.uleb128 0x49
 8567 00ee 13       		.uleb128 0x13
 8568 00ef 2F       		.uleb128 0x2f
 8569 00f0 0B       		.uleb128 0xb
 8570 00f1 00       		.byte	0
 8571 00f2 00       		.byte	0
 8572 00f3 16       		.uleb128 0x16
 8573 00f4 13       		.uleb128 0x13
 8574 00f5 01       		.byte	0x1
 8575 00f6 0B       		.uleb128 0xb
 8576 00f7 0B       		.uleb128 0xb
ARM GAS  C:\Users\srich\AppData\Local\Temp\cc7Prgoh.s 			page 152


 8577 00f8 3A       		.uleb128 0x3a
 8578 00f9 0B       		.uleb128 0xb
 8579 00fa 3B       		.uleb128 0x3b
 8580 00fb 05       		.uleb128 0x5
 8581 00fc 01       		.uleb128 0x1
 8582 00fd 13       		.uleb128 0x13
 8583 00fe 00       		.byte	0
 8584 00ff 00       		.byte	0
 8585 0100 17       		.uleb128 0x17
 8586 0101 0D       		.uleb128 0xd
 8587 0102 00       		.byte	0
 8588 0103 03       		.uleb128 0x3
 8589 0104 0E       		.uleb128 0xe
 8590 0105 3A       		.uleb128 0x3a
 8591 0106 0B       		.uleb128 0xb
 8592 0107 3B       		.uleb128 0x3b
 8593 0108 05       		.uleb128 0x5
 8594 0109 49       		.uleb128 0x49
 8595 010a 13       		.uleb128 0x13
 8596 010b 38       		.uleb128 0x38
 8597 010c 0A       		.uleb128 0xa
 8598 010d 00       		.byte	0
 8599 010e 00       		.byte	0
 8600 010f 18       		.uleb128 0x18
 8601 0110 16       		.uleb128 0x16
 8602 0111 00       		.byte	0
 8603 0112 03       		.uleb128 0x3
 8604 0113 0E       		.uleb128 0xe
 8605 0114 3A       		.uleb128 0x3a
 8606 0115 0B       		.uleb128 0xb
 8607 0116 3B       		.uleb128 0x3b
 8608 0117 05       		.uleb128 0x5
 8609 0118 49       		.uleb128 0x49
 8610 0119 13       		.uleb128 0x13
 8611 011a 00       		.byte	0
 8612 011b 00       		.byte	0
 8613 011c 19       		.uleb128 0x19
 8614 011d 13       		.uleb128 0x13
 8615 011e 01       		.byte	0x1
 8616 011f 03       		.uleb128 0x3
 8617 0120 0E       		.uleb128 0xe
 8618 0121 0B       		.uleb128 0xb
 8619 0122 05       		.uleb128 0x5
 8620 0123 3A       		.uleb128 0x3a
 8621 0124 0B       		.uleb128 0xb
 8622 0125 3B       		.uleb128 0x3b
 8623 0126 05       		.uleb128 0x5
 8624 0127 01       		.uleb128 0x1
 8625 0128 13       		.uleb128 0x13
 8626 0129 00       		.byte	0
 8627 012a 00       		.byte	0
 8628 012b 1A       		.uleb128 0x1a
 8629 012c 04       		.uleb128 0x4
 8630 012d 01       		.byte	0x1
 8631 012e 0B       		.uleb128 0xb
 8632 012f 0B       		.uleb128 0xb
 8633 0130 3A       		.uleb128 0x3a
ARM GAS  C:\Users\srich\AppData\Local\Temp\cc7Prgoh.s 			page 153


 8634 0131 0B       		.uleb128 0xb
 8635 0132 3B       		.uleb128 0x3b
 8636 0133 0B       		.uleb128 0xb
 8637 0134 01       		.uleb128 0x1
 8638 0135 13       		.uleb128 0x13
 8639 0136 00       		.byte	0
 8640 0137 00       		.byte	0
 8641 0138 1B       		.uleb128 0x1b
 8642 0139 28       		.uleb128 0x28
 8643 013a 00       		.byte	0
 8644 013b 03       		.uleb128 0x3
 8645 013c 0E       		.uleb128 0xe
 8646 013d 1C       		.uleb128 0x1c
 8647 013e 0D       		.uleb128 0xd
 8648 013f 00       		.byte	0
 8649 0140 00       		.byte	0
 8650 0141 1C       		.uleb128 0x1c
 8651 0142 04       		.uleb128 0x4
 8652 0143 01       		.byte	0x1
 8653 0144 0B       		.uleb128 0xb
 8654 0145 0B       		.uleb128 0xb
 8655 0146 3A       		.uleb128 0x3a
 8656 0147 0B       		.uleb128 0xb
 8657 0148 3B       		.uleb128 0x3b
 8658 0149 05       		.uleb128 0x5
 8659 014a 01       		.uleb128 0x1
 8660 014b 13       		.uleb128 0x13
 8661 014c 00       		.byte	0
 8662 014d 00       		.byte	0
 8663 014e 1D       		.uleb128 0x1d
 8664 014f 13       		.uleb128 0x13
 8665 0150 01       		.byte	0x1
 8666 0151 0B       		.uleb128 0xb
 8667 0152 06       		.uleb128 0x6
 8668 0153 3A       		.uleb128 0x3a
 8669 0154 0B       		.uleb128 0xb
 8670 0155 3B       		.uleb128 0x3b
 8671 0156 0B       		.uleb128 0xb
 8672 0157 01       		.uleb128 0x1
 8673 0158 13       		.uleb128 0x13
 8674 0159 00       		.byte	0
 8675 015a 00       		.byte	0
 8676 015b 1E       		.uleb128 0x1e
 8677 015c 21       		.uleb128 0x21
 8678 015d 00       		.byte	0
 8679 015e 49       		.uleb128 0x49
 8680 015f 13       		.uleb128 0x13
 8681 0160 2F       		.uleb128 0x2f
 8682 0161 05       		.uleb128 0x5
 8683 0162 00       		.byte	0
 8684 0163 00       		.byte	0
 8685 0164 1F       		.uleb128 0x1f
 8686 0165 17       		.uleb128 0x17
 8687 0166 01       		.byte	0x1
 8688 0167 0B       		.uleb128 0xb
 8689 0168 0B       		.uleb128 0xb
 8690 0169 3A       		.uleb128 0x3a
ARM GAS  C:\Users\srich\AppData\Local\Temp\cc7Prgoh.s 			page 154


 8691 016a 0B       		.uleb128 0xb
 8692 016b 3B       		.uleb128 0x3b
 8693 016c 05       		.uleb128 0x5
 8694 016d 01       		.uleb128 0x1
 8695 016e 13       		.uleb128 0x13
 8696 016f 00       		.byte	0
 8697 0170 00       		.byte	0
 8698 0171 20       		.uleb128 0x20
 8699 0172 0D       		.uleb128 0xd
 8700 0173 00       		.byte	0
 8701 0174 03       		.uleb128 0x3
 8702 0175 0E       		.uleb128 0xe
 8703 0176 3A       		.uleb128 0x3a
 8704 0177 0B       		.uleb128 0xb
 8705 0178 3B       		.uleb128 0x3b
 8706 0179 05       		.uleb128 0x5
 8707 017a 49       		.uleb128 0x49
 8708 017b 13       		.uleb128 0x13
 8709 017c 00       		.byte	0
 8710 017d 00       		.byte	0
 8711 017e 21       		.uleb128 0x21
 8712 017f 0D       		.uleb128 0xd
 8713 0180 00       		.byte	0
 8714 0181 03       		.uleb128 0x3
 8715 0182 08       		.uleb128 0x8
 8716 0183 3A       		.uleb128 0x3a
 8717 0184 0B       		.uleb128 0xb
 8718 0185 3B       		.uleb128 0x3b
 8719 0186 0B       		.uleb128 0xb
 8720 0187 49       		.uleb128 0x49
 8721 0188 13       		.uleb128 0x13
 8722 0189 00       		.byte	0
 8723 018a 00       		.byte	0
 8724 018b 22       		.uleb128 0x22
 8725 018c 2E       		.uleb128 0x2e
 8726 018d 01       		.byte	0x1
 8727 018e 03       		.uleb128 0x3
 8728 018f 0E       		.uleb128 0xe
 8729 0190 3A       		.uleb128 0x3a
 8730 0191 0B       		.uleb128 0xb
 8731 0192 3B       		.uleb128 0x3b
 8732 0193 0B       		.uleb128 0xb
 8733 0194 27       		.uleb128 0x27
 8734 0195 0C       		.uleb128 0xc
 8735 0196 49       		.uleb128 0x49
 8736 0197 13       		.uleb128 0x13
 8737 0198 20       		.uleb128 0x20
 8738 0199 0B       		.uleb128 0xb
 8739 019a 01       		.uleb128 0x1
 8740 019b 13       		.uleb128 0x13
 8741 019c 00       		.byte	0
 8742 019d 00       		.byte	0
 8743 019e 23       		.uleb128 0x23
 8744 019f 05       		.uleb128 0x5
 8745 01a0 00       		.byte	0
 8746 01a1 03       		.uleb128 0x3
 8747 01a2 0E       		.uleb128 0xe
ARM GAS  C:\Users\srich\AppData\Local\Temp\cc7Prgoh.s 			page 155


 8748 01a3 3A       		.uleb128 0x3a
 8749 01a4 0B       		.uleb128 0xb
 8750 01a5 3B       		.uleb128 0x3b
 8751 01a6 0B       		.uleb128 0xb
 8752 01a7 49       		.uleb128 0x49
 8753 01a8 13       		.uleb128 0x13
 8754 01a9 00       		.byte	0
 8755 01aa 00       		.byte	0
 8756 01ab 24       		.uleb128 0x24
 8757 01ac 05       		.uleb128 0x5
 8758 01ad 00       		.byte	0
 8759 01ae 03       		.uleb128 0x3
 8760 01af 08       		.uleb128 0x8
 8761 01b0 3A       		.uleb128 0x3a
 8762 01b1 0B       		.uleb128 0xb
 8763 01b2 3B       		.uleb128 0x3b
 8764 01b3 0B       		.uleb128 0xb
 8765 01b4 49       		.uleb128 0x49
 8766 01b5 13       		.uleb128 0x13
 8767 01b6 00       		.byte	0
 8768 01b7 00       		.byte	0
 8769 01b8 25       		.uleb128 0x25
 8770 01b9 2E       		.uleb128 0x2e
 8771 01ba 01       		.byte	0x1
 8772 01bb 03       		.uleb128 0x3
 8773 01bc 0E       		.uleb128 0xe
 8774 01bd 3A       		.uleb128 0x3a
 8775 01be 0B       		.uleb128 0xb
 8776 01bf 3B       		.uleb128 0x3b
 8777 01c0 05       		.uleb128 0x5
 8778 01c1 27       		.uleb128 0x27
 8779 01c2 0C       		.uleb128 0xc
 8780 01c3 49       		.uleb128 0x49
 8781 01c4 13       		.uleb128 0x13
 8782 01c5 20       		.uleb128 0x20
 8783 01c6 0B       		.uleb128 0xb
 8784 01c7 01       		.uleb128 0x1
 8785 01c8 13       		.uleb128 0x13
 8786 01c9 00       		.byte	0
 8787 01ca 00       		.byte	0
 8788 01cb 26       		.uleb128 0x26
 8789 01cc 05       		.uleb128 0x5
 8790 01cd 00       		.byte	0
 8791 01ce 03       		.uleb128 0x3
 8792 01cf 0E       		.uleb128 0xe
 8793 01d0 3A       		.uleb128 0x3a
 8794 01d1 0B       		.uleb128 0xb
 8795 01d2 3B       		.uleb128 0x3b
 8796 01d3 05       		.uleb128 0x5
 8797 01d4 49       		.uleb128 0x49
 8798 01d5 13       		.uleb128 0x13
 8799 01d6 00       		.byte	0
 8800 01d7 00       		.byte	0
 8801 01d8 27       		.uleb128 0x27
 8802 01d9 05       		.uleb128 0x5
 8803 01da 00       		.byte	0
 8804 01db 03       		.uleb128 0x3
ARM GAS  C:\Users\srich\AppData\Local\Temp\cc7Prgoh.s 			page 156


 8805 01dc 08       		.uleb128 0x8
 8806 01dd 3A       		.uleb128 0x3a
 8807 01de 0B       		.uleb128 0xb
 8808 01df 3B       		.uleb128 0x3b
 8809 01e0 05       		.uleb128 0x5
 8810 01e1 49       		.uleb128 0x49
 8811 01e2 13       		.uleb128 0x13
 8812 01e3 00       		.byte	0
 8813 01e4 00       		.byte	0
 8814 01e5 28       		.uleb128 0x28
 8815 01e6 0B       		.uleb128 0xb
 8816 01e7 01       		.byte	0x1
 8817 01e8 00       		.byte	0
 8818 01e9 00       		.byte	0
 8819 01ea 29       		.uleb128 0x29
 8820 01eb 34       		.uleb128 0x34
 8821 01ec 00       		.byte	0
 8822 01ed 03       		.uleb128 0x3
 8823 01ee 08       		.uleb128 0x8
 8824 01ef 3A       		.uleb128 0x3a
 8825 01f0 0B       		.uleb128 0xb
 8826 01f1 3B       		.uleb128 0x3b
 8827 01f2 05       		.uleb128 0x5
 8828 01f3 49       		.uleb128 0x49
 8829 01f4 13       		.uleb128 0x13
 8830 01f5 00       		.byte	0
 8831 01f6 00       		.byte	0
 8832 01f7 2A       		.uleb128 0x2a
 8833 01f8 34       		.uleb128 0x34
 8834 01f9 00       		.byte	0
 8835 01fa 03       		.uleb128 0x3
 8836 01fb 08       		.uleb128 0x8
 8837 01fc 3A       		.uleb128 0x3a
 8838 01fd 0B       		.uleb128 0xb
 8839 01fe 3B       		.uleb128 0x3b
 8840 01ff 0B       		.uleb128 0xb
 8841 0200 49       		.uleb128 0x49
 8842 0201 13       		.uleb128 0x13
 8843 0202 00       		.byte	0
 8844 0203 00       		.byte	0
 8845 0204 2B       		.uleb128 0x2b
 8846 0205 2E       		.uleb128 0x2e
 8847 0206 01       		.byte	0x1
 8848 0207 03       		.uleb128 0x3
 8849 0208 0E       		.uleb128 0xe
 8850 0209 3A       		.uleb128 0x3a
 8851 020a 0B       		.uleb128 0xb
 8852 020b 3B       		.uleb128 0x3b
 8853 020c 05       		.uleb128 0x5
 8854 020d 27       		.uleb128 0x27
 8855 020e 0C       		.uleb128 0xc
 8856 020f 20       		.uleb128 0x20
 8857 0210 0B       		.uleb128 0xb
 8858 0211 01       		.uleb128 0x1
 8859 0212 13       		.uleb128 0x13
 8860 0213 00       		.byte	0
 8861 0214 00       		.byte	0
ARM GAS  C:\Users\srich\AppData\Local\Temp\cc7Prgoh.s 			page 157


 8862 0215 2C       		.uleb128 0x2c
 8863 0216 2E       		.uleb128 0x2e
 8864 0217 01       		.byte	0x1
 8865 0218 03       		.uleb128 0x3
 8866 0219 0E       		.uleb128 0xe
 8867 021a 3A       		.uleb128 0x3a
 8868 021b 0B       		.uleb128 0xb
 8869 021c 3B       		.uleb128 0x3b
 8870 021d 0B       		.uleb128 0xb
 8871 021e 27       		.uleb128 0x27
 8872 021f 0C       		.uleb128 0xc
 8873 0220 20       		.uleb128 0x20
 8874 0221 0B       		.uleb128 0xb
 8875 0222 01       		.uleb128 0x1
 8876 0223 13       		.uleb128 0x13
 8877 0224 00       		.byte	0
 8878 0225 00       		.byte	0
 8879 0226 2D       		.uleb128 0x2d
 8880 0227 34       		.uleb128 0x34
 8881 0228 00       		.byte	0
 8882 0229 03       		.uleb128 0x3
 8883 022a 0E       		.uleb128 0xe
 8884 022b 3A       		.uleb128 0x3a
 8885 022c 0B       		.uleb128 0xb
 8886 022d 3B       		.uleb128 0x3b
 8887 022e 0B       		.uleb128 0xb
 8888 022f 49       		.uleb128 0x49
 8889 0230 13       		.uleb128 0x13
 8890 0231 00       		.byte	0
 8891 0232 00       		.byte	0
 8892 0233 2E       		.uleb128 0x2e
 8893 0234 2E       		.uleb128 0x2e
 8894 0235 01       		.byte	0x1
 8895 0236 3F       		.uleb128 0x3f
 8896 0237 0C       		.uleb128 0xc
 8897 0238 03       		.uleb128 0x3
 8898 0239 0E       		.uleb128 0xe
 8899 023a 3A       		.uleb128 0x3a
 8900 023b 0B       		.uleb128 0xb
 8901 023c 3B       		.uleb128 0x3b
 8902 023d 05       		.uleb128 0x5
 8903 023e 27       		.uleb128 0x27
 8904 023f 0C       		.uleb128 0xc
 8905 0240 20       		.uleb128 0x20
 8906 0241 0B       		.uleb128 0xb
 8907 0242 01       		.uleb128 0x1
 8908 0243 13       		.uleb128 0x13
 8909 0244 00       		.byte	0
 8910 0245 00       		.byte	0
 8911 0246 2F       		.uleb128 0x2f
 8912 0247 34       		.uleb128 0x34
 8913 0248 00       		.byte	0
 8914 0249 03       		.uleb128 0x3
 8915 024a 0E       		.uleb128 0xe
 8916 024b 3A       		.uleb128 0x3a
 8917 024c 0B       		.uleb128 0xb
 8918 024d 3B       		.uleb128 0x3b
ARM GAS  C:\Users\srich\AppData\Local\Temp\cc7Prgoh.s 			page 158


 8919 024e 05       		.uleb128 0x5
 8920 024f 49       		.uleb128 0x49
 8921 0250 13       		.uleb128 0x13
 8922 0251 00       		.byte	0
 8923 0252 00       		.byte	0
 8924 0253 30       		.uleb128 0x30
 8925 0254 0B       		.uleb128 0xb
 8926 0255 01       		.byte	0x1
 8927 0256 01       		.uleb128 0x1
 8928 0257 13       		.uleb128 0x13
 8929 0258 00       		.byte	0
 8930 0259 00       		.byte	0
 8931 025a 31       		.uleb128 0x31
 8932 025b 2E       		.uleb128 0x2e
 8933 025c 01       		.byte	0x1
 8934 025d 03       		.uleb128 0x3
 8935 025e 0E       		.uleb128 0xe
 8936 025f 3A       		.uleb128 0x3a
 8937 0260 0B       		.uleb128 0xb
 8938 0261 3B       		.uleb128 0x3b
 8939 0262 0B       		.uleb128 0xb
 8940 0263 27       		.uleb128 0x27
 8941 0264 0C       		.uleb128 0xc
 8942 0265 11       		.uleb128 0x11
 8943 0266 01       		.uleb128 0x1
 8944 0267 12       		.uleb128 0x12
 8945 0268 01       		.uleb128 0x1
 8946 0269 40       		.uleb128 0x40
 8947 026a 06       		.uleb128 0x6
 8948 026b 9742     		.uleb128 0x2117
 8949 026d 0C       		.uleb128 0xc
 8950 026e 01       		.uleb128 0x1
 8951 026f 13       		.uleb128 0x13
 8952 0270 00       		.byte	0
 8953 0271 00       		.byte	0
 8954 0272 32       		.uleb128 0x32
 8955 0273 05       		.uleb128 0x5
 8956 0274 00       		.byte	0
 8957 0275 03       		.uleb128 0x3
 8958 0276 0E       		.uleb128 0xe
 8959 0277 3A       		.uleb128 0x3a
 8960 0278 0B       		.uleb128 0xb
 8961 0279 3B       		.uleb128 0x3b
 8962 027a 0B       		.uleb128 0xb
 8963 027b 49       		.uleb128 0x49
 8964 027c 13       		.uleb128 0x13
 8965 027d 02       		.uleb128 0x2
 8966 027e 06       		.uleb128 0x6
 8967 027f 00       		.byte	0
 8968 0280 00       		.byte	0
 8969 0281 33       		.uleb128 0x33
 8970 0282 34       		.uleb128 0x34
 8971 0283 00       		.byte	0
 8972 0284 03       		.uleb128 0x3
 8973 0285 0E       		.uleb128 0xe
 8974 0286 3A       		.uleb128 0x3a
 8975 0287 0B       		.uleb128 0xb
ARM GAS  C:\Users\srich\AppData\Local\Temp\cc7Prgoh.s 			page 159


 8976 0288 3B       		.uleb128 0x3b
 8977 0289 0B       		.uleb128 0xb
 8978 028a 49       		.uleb128 0x49
 8979 028b 13       		.uleb128 0x13
 8980 028c 02       		.uleb128 0x2
 8981 028d 0A       		.uleb128 0xa
 8982 028e 00       		.byte	0
 8983 028f 00       		.byte	0
 8984 0290 34       		.uleb128 0x34
 8985 0291 34       		.uleb128 0x34
 8986 0292 00       		.byte	0
 8987 0293 03       		.uleb128 0x3
 8988 0294 08       		.uleb128 0x8
 8989 0295 3A       		.uleb128 0x3a
 8990 0296 0B       		.uleb128 0xb
 8991 0297 3B       		.uleb128 0x3b
 8992 0298 0B       		.uleb128 0xb
 8993 0299 49       		.uleb128 0x49
 8994 029a 13       		.uleb128 0x13
 8995 029b 02       		.uleb128 0x2
 8996 029c 06       		.uleb128 0x6
 8997 029d 00       		.byte	0
 8998 029e 00       		.byte	0
 8999 029f 35       		.uleb128 0x35
 9000 02a0 2E       		.uleb128 0x2e
 9001 02a1 01       		.byte	0x1
 9002 02a2 03       		.uleb128 0x3
 9003 02a3 0E       		.uleb128 0xe
 9004 02a4 3A       		.uleb128 0x3a
 9005 02a5 0B       		.uleb128 0xb
 9006 02a6 3B       		.uleb128 0x3b
 9007 02a7 0B       		.uleb128 0xb
 9008 02a8 27       		.uleb128 0x27
 9009 02a9 0C       		.uleb128 0xc
 9010 02aa 11       		.uleb128 0x11
 9011 02ab 01       		.uleb128 0x1
 9012 02ac 12       		.uleb128 0x12
 9013 02ad 01       		.uleb128 0x1
 9014 02ae 40       		.uleb128 0x40
 9015 02af 0A       		.uleb128 0xa
 9016 02b0 9742     		.uleb128 0x2117
 9017 02b2 0C       		.uleb128 0xc
 9018 02b3 01       		.uleb128 0x1
 9019 02b4 13       		.uleb128 0x13
 9020 02b5 00       		.byte	0
 9021 02b6 00       		.byte	0
 9022 02b7 36       		.uleb128 0x36
 9023 02b8 34       		.uleb128 0x34
 9024 02b9 00       		.byte	0
 9025 02ba 03       		.uleb128 0x3
 9026 02bb 0E       		.uleb128 0xe
 9027 02bc 3A       		.uleb128 0x3a
 9028 02bd 0B       		.uleb128 0xb
 9029 02be 3B       		.uleb128 0x3b
 9030 02bf 0B       		.uleb128 0xb
 9031 02c0 49       		.uleb128 0x49
 9032 02c1 13       		.uleb128 0x13
ARM GAS  C:\Users\srich\AppData\Local\Temp\cc7Prgoh.s 			page 160


 9033 02c2 02       		.uleb128 0x2
 9034 02c3 06       		.uleb128 0x6
 9035 02c4 00       		.byte	0
 9036 02c5 00       		.byte	0
 9037 02c6 37       		.uleb128 0x37
 9038 02c7 898201   		.uleb128 0x4109
 9039 02ca 01       		.byte	0x1
 9040 02cb 11       		.uleb128 0x11
 9041 02cc 01       		.uleb128 0x1
 9042 02cd 9542     		.uleb128 0x2115
 9043 02cf 0C       		.uleb128 0xc
 9044 02d0 31       		.uleb128 0x31
 9045 02d1 13       		.uleb128 0x13
 9046 02d2 00       		.byte	0
 9047 02d3 00       		.byte	0
 9048 02d4 38       		.uleb128 0x38
 9049 02d5 8A8201   		.uleb128 0x410a
 9050 02d8 00       		.byte	0
 9051 02d9 02       		.uleb128 0x2
 9052 02da 0A       		.uleb128 0xa
 9053 02db 9142     		.uleb128 0x2111
 9054 02dd 0A       		.uleb128 0xa
 9055 02de 00       		.byte	0
 9056 02df 00       		.byte	0
 9057 02e0 39       		.uleb128 0x39
 9058 02e1 2E       		.uleb128 0x2e
 9059 02e2 01       		.byte	0x1
 9060 02e3 03       		.uleb128 0x3
 9061 02e4 0E       		.uleb128 0xe
 9062 02e5 3A       		.uleb128 0x3a
 9063 02e6 0B       		.uleb128 0xb
 9064 02e7 3B       		.uleb128 0x3b
 9065 02e8 05       		.uleb128 0x5
 9066 02e9 27       		.uleb128 0x27
 9067 02ea 0C       		.uleb128 0xc
 9068 02eb 49       		.uleb128 0x49
 9069 02ec 13       		.uleb128 0x13
 9070 02ed 11       		.uleb128 0x11
 9071 02ee 01       		.uleb128 0x1
 9072 02ef 12       		.uleb128 0x12
 9073 02f0 01       		.uleb128 0x1
 9074 02f1 40       		.uleb128 0x40
 9075 02f2 06       		.uleb128 0x6
 9076 02f3 9742     		.uleb128 0x2117
 9077 02f5 0C       		.uleb128 0xc
 9078 02f6 01       		.uleb128 0x1
 9079 02f7 13       		.uleb128 0x13
 9080 02f8 00       		.byte	0
 9081 02f9 00       		.byte	0
 9082 02fa 3A       		.uleb128 0x3a
 9083 02fb 05       		.uleb128 0x5
 9084 02fc 00       		.byte	0
 9085 02fd 03       		.uleb128 0x3
 9086 02fe 08       		.uleb128 0x8
 9087 02ff 3A       		.uleb128 0x3a
 9088 0300 0B       		.uleb128 0xb
 9089 0301 3B       		.uleb128 0x3b
ARM GAS  C:\Users\srich\AppData\Local\Temp\cc7Prgoh.s 			page 161


 9090 0302 05       		.uleb128 0x5
 9091 0303 49       		.uleb128 0x49
 9092 0304 13       		.uleb128 0x13
 9093 0305 02       		.uleb128 0x2
 9094 0306 06       		.uleb128 0x6
 9095 0307 00       		.byte	0
 9096 0308 00       		.byte	0
 9097 0309 3B       		.uleb128 0x3b
 9098 030a 34       		.uleb128 0x34
 9099 030b 00       		.byte	0
 9100 030c 03       		.uleb128 0x3
 9101 030d 0E       		.uleb128 0xe
 9102 030e 3A       		.uleb128 0x3a
 9103 030f 0B       		.uleb128 0xb
 9104 0310 3B       		.uleb128 0x3b
 9105 0311 05       		.uleb128 0x5
 9106 0312 49       		.uleb128 0x49
 9107 0313 13       		.uleb128 0x13
 9108 0314 02       		.uleb128 0x2
 9109 0315 06       		.uleb128 0x6
 9110 0316 00       		.byte	0
 9111 0317 00       		.byte	0
 9112 0318 3C       		.uleb128 0x3c
 9113 0319 34       		.uleb128 0x34
 9114 031a 00       		.byte	0
 9115 031b 03       		.uleb128 0x3
 9116 031c 0E       		.uleb128 0xe
 9117 031d 3A       		.uleb128 0x3a
 9118 031e 0B       		.uleb128 0xb
 9119 031f 3B       		.uleb128 0x3b
 9120 0320 05       		.uleb128 0x5
 9121 0321 49       		.uleb128 0x49
 9122 0322 13       		.uleb128 0x13
 9123 0323 02       		.uleb128 0x2
 9124 0324 0A       		.uleb128 0xa
 9125 0325 00       		.byte	0
 9126 0326 00       		.byte	0
 9127 0327 3D       		.uleb128 0x3d
 9128 0328 0B       		.uleb128 0xb
 9129 0329 01       		.byte	0x1
 9130 032a 55       		.uleb128 0x55
 9131 032b 06       		.uleb128 0x6
 9132 032c 01       		.uleb128 0x1
 9133 032d 13       		.uleb128 0x13
 9134 032e 00       		.byte	0
 9135 032f 00       		.byte	0
 9136 0330 3E       		.uleb128 0x3e
 9137 0331 34       		.uleb128 0x34
 9138 0332 00       		.byte	0
 9139 0333 03       		.uleb128 0x3
 9140 0334 08       		.uleb128 0x8
 9141 0335 3A       		.uleb128 0x3a
 9142 0336 0B       		.uleb128 0xb
 9143 0337 3B       		.uleb128 0x3b
 9144 0338 05       		.uleb128 0x5
 9145 0339 49       		.uleb128 0x49
 9146 033a 13       		.uleb128 0x13
ARM GAS  C:\Users\srich\AppData\Local\Temp\cc7Prgoh.s 			page 162


 9147 033b 02       		.uleb128 0x2
 9148 033c 06       		.uleb128 0x6
 9149 033d 00       		.byte	0
 9150 033e 00       		.byte	0
 9151 033f 3F       		.uleb128 0x3f
 9152 0340 0B       		.uleb128 0xb
 9153 0341 01       		.byte	0x1
 9154 0342 55       		.uleb128 0x55
 9155 0343 06       		.uleb128 0x6
 9156 0344 00       		.byte	0
 9157 0345 00       		.byte	0
 9158 0346 40       		.uleb128 0x40
 9159 0347 1D       		.uleb128 0x1d
 9160 0348 01       		.byte	0x1
 9161 0349 31       		.uleb128 0x31
 9162 034a 13       		.uleb128 0x13
 9163 034b 52       		.uleb128 0x52
 9164 034c 01       		.uleb128 0x1
 9165 034d 55       		.uleb128 0x55
 9166 034e 06       		.uleb128 0x6
 9167 034f 58       		.uleb128 0x58
 9168 0350 0B       		.uleb128 0xb
 9169 0351 59       		.uleb128 0x59
 9170 0352 05       		.uleb128 0x5
 9171 0353 01       		.uleb128 0x1
 9172 0354 13       		.uleb128 0x13
 9173 0355 00       		.byte	0
 9174 0356 00       		.byte	0
 9175 0357 41       		.uleb128 0x41
 9176 0358 05       		.uleb128 0x5
 9177 0359 00       		.byte	0
 9178 035a 31       		.uleb128 0x31
 9179 035b 13       		.uleb128 0x13
 9180 035c 02       		.uleb128 0x2
 9181 035d 06       		.uleb128 0x6
 9182 035e 00       		.byte	0
 9183 035f 00       		.byte	0
 9184 0360 42       		.uleb128 0x42
 9185 0361 34       		.uleb128 0x34
 9186 0362 00       		.byte	0
 9187 0363 31       		.uleb128 0x31
 9188 0364 13       		.uleb128 0x13
 9189 0365 02       		.uleb128 0x2
 9190 0366 06       		.uleb128 0x6
 9191 0367 00       		.byte	0
 9192 0368 00       		.byte	0
 9193 0369 43       		.uleb128 0x43
 9194 036a 1D       		.uleb128 0x1d
 9195 036b 01       		.byte	0x1
 9196 036c 31       		.uleb128 0x31
 9197 036d 13       		.uleb128 0x13
 9198 036e 11       		.uleb128 0x11
 9199 036f 01       		.uleb128 0x1
 9200 0370 12       		.uleb128 0x12
 9201 0371 01       		.uleb128 0x1
 9202 0372 58       		.uleb128 0x58
 9203 0373 0B       		.uleb128 0xb
ARM GAS  C:\Users\srich\AppData\Local\Temp\cc7Prgoh.s 			page 163


 9204 0374 59       		.uleb128 0x59
 9205 0375 05       		.uleb128 0x5
 9206 0376 01       		.uleb128 0x1
 9207 0377 13       		.uleb128 0x13
 9208 0378 00       		.byte	0
 9209 0379 00       		.byte	0
 9210 037a 44       		.uleb128 0x44
 9211 037b 1D       		.uleb128 0x1d
 9212 037c 01       		.byte	0x1
 9213 037d 31       		.uleb128 0x31
 9214 037e 13       		.uleb128 0x13
 9215 037f 11       		.uleb128 0x11
 9216 0380 01       		.uleb128 0x1
 9217 0381 12       		.uleb128 0x12
 9218 0382 01       		.uleb128 0x1
 9219 0383 58       		.uleb128 0x58
 9220 0384 0B       		.uleb128 0xb
 9221 0385 59       		.uleb128 0x59
 9222 0386 05       		.uleb128 0x5
 9223 0387 00       		.byte	0
 9224 0388 00       		.byte	0
 9225 0389 45       		.uleb128 0x45
 9226 038a 0B       		.uleb128 0xb
 9227 038b 01       		.byte	0x1
 9228 038c 11       		.uleb128 0x11
 9229 038d 01       		.uleb128 0x1
 9230 038e 12       		.uleb128 0x12
 9231 038f 01       		.uleb128 0x1
 9232 0390 00       		.byte	0
 9233 0391 00       		.byte	0
 9234 0392 46       		.uleb128 0x46
 9235 0393 0B       		.uleb128 0xb
 9236 0394 01       		.byte	0x1
 9237 0395 11       		.uleb128 0x11
 9238 0396 01       		.uleb128 0x1
 9239 0397 12       		.uleb128 0x12
 9240 0398 01       		.uleb128 0x1
 9241 0399 01       		.uleb128 0x1
 9242 039a 13       		.uleb128 0x13
 9243 039b 00       		.byte	0
 9244 039c 00       		.byte	0
 9245 039d 47       		.uleb128 0x47
 9246 039e 898201   		.uleb128 0x4109
 9247 03a1 00       		.byte	0
 9248 03a2 11       		.uleb128 0x11
 9249 03a3 01       		.uleb128 0x1
 9250 03a4 31       		.uleb128 0x31
 9251 03a5 13       		.uleb128 0x13
 9252 03a6 00       		.byte	0
 9253 03a7 00       		.byte	0
 9254 03a8 48       		.uleb128 0x48
 9255 03a9 05       		.uleb128 0x5
 9256 03aa 00       		.byte	0
 9257 03ab 31       		.uleb128 0x31
 9258 03ac 13       		.uleb128 0x13
 9259 03ad 02       		.uleb128 0x2
 9260 03ae 0A       		.uleb128 0xa
ARM GAS  C:\Users\srich\AppData\Local\Temp\cc7Prgoh.s 			page 164


 9261 03af 00       		.byte	0
 9262 03b0 00       		.byte	0
 9263 03b1 49       		.uleb128 0x49
 9264 03b2 1D       		.uleb128 0x1d
 9265 03b3 01       		.byte	0x1
 9266 03b4 31       		.uleb128 0x31
 9267 03b5 13       		.uleb128 0x13
 9268 03b6 52       		.uleb128 0x52
 9269 03b7 01       		.uleb128 0x1
 9270 03b8 55       		.uleb128 0x55
 9271 03b9 06       		.uleb128 0x6
 9272 03ba 58       		.uleb128 0x58
 9273 03bb 0B       		.uleb128 0xb
 9274 03bc 59       		.uleb128 0x59
 9275 03bd 05       		.uleb128 0x5
 9276 03be 00       		.byte	0
 9277 03bf 00       		.byte	0
 9278 03c0 4A       		.uleb128 0x4a
 9279 03c1 05       		.uleb128 0x5
 9280 03c2 00       		.byte	0
 9281 03c3 31       		.uleb128 0x31
 9282 03c4 13       		.uleb128 0x13
 9283 03c5 00       		.byte	0
 9284 03c6 00       		.byte	0
 9285 03c7 4B       		.uleb128 0x4b
 9286 03c8 898201   		.uleb128 0x4109
 9287 03cb 01       		.byte	0x1
 9288 03cc 11       		.uleb128 0x11
 9289 03cd 01       		.uleb128 0x1
 9290 03ce 31       		.uleb128 0x31
 9291 03cf 13       		.uleb128 0x13
 9292 03d0 00       		.byte	0
 9293 03d1 00       		.byte	0
 9294 03d2 4C       		.uleb128 0x4c
 9295 03d3 2E       		.uleb128 0x2e
 9296 03d4 01       		.byte	0x1
 9297 03d5 3F       		.uleb128 0x3f
 9298 03d6 0C       		.uleb128 0xc
 9299 03d7 03       		.uleb128 0x3
 9300 03d8 0E       		.uleb128 0xe
 9301 03d9 3A       		.uleb128 0x3a
 9302 03da 0B       		.uleb128 0xb
 9303 03db 3B       		.uleb128 0x3b
 9304 03dc 05       		.uleb128 0x5
 9305 03dd 27       		.uleb128 0x27
 9306 03de 0C       		.uleb128 0xc
 9307 03df 11       		.uleb128 0x11
 9308 03e0 01       		.uleb128 0x1
 9309 03e1 12       		.uleb128 0x12
 9310 03e2 01       		.uleb128 0x1
 9311 03e3 40       		.uleb128 0x40
 9312 03e4 06       		.uleb128 0x6
 9313 03e5 9742     		.uleb128 0x2117
 9314 03e7 0C       		.uleb128 0xc
 9315 03e8 01       		.uleb128 0x1
 9316 03e9 13       		.uleb128 0x13
 9317 03ea 00       		.byte	0
ARM GAS  C:\Users\srich\AppData\Local\Temp\cc7Prgoh.s 			page 165


 9318 03eb 00       		.byte	0
 9319 03ec 4D       		.uleb128 0x4d
 9320 03ed 05       		.uleb128 0x5
 9321 03ee 00       		.byte	0
 9322 03ef 03       		.uleb128 0x3
 9323 03f0 0E       		.uleb128 0xe
 9324 03f1 3A       		.uleb128 0x3a
 9325 03f2 0B       		.uleb128 0xb
 9326 03f3 3B       		.uleb128 0x3b
 9327 03f4 05       		.uleb128 0x5
 9328 03f5 49       		.uleb128 0x49
 9329 03f6 13       		.uleb128 0x13
 9330 03f7 02       		.uleb128 0x2
 9331 03f8 06       		.uleb128 0x6
 9332 03f9 00       		.byte	0
 9333 03fa 00       		.byte	0
 9334 03fb 4E       		.uleb128 0x4e
 9335 03fc 898201   		.uleb128 0x4109
 9336 03ff 01       		.byte	0x1
 9337 0400 11       		.uleb128 0x11
 9338 0401 01       		.uleb128 0x1
 9339 0402 31       		.uleb128 0x31
 9340 0403 13       		.uleb128 0x13
 9341 0404 01       		.uleb128 0x1
 9342 0405 13       		.uleb128 0x13
 9343 0406 00       		.byte	0
 9344 0407 00       		.byte	0
 9345 0408 4F       		.uleb128 0x4f
 9346 0409 05       		.uleb128 0x5
 9347 040a 00       		.byte	0
 9348 040b 31       		.uleb128 0x31
 9349 040c 13       		.uleb128 0x13
 9350 040d 1C       		.uleb128 0x1c
 9351 040e 0B       		.uleb128 0xb
 9352 040f 00       		.byte	0
 9353 0410 00       		.byte	0
 9354 0411 50       		.uleb128 0x50
 9355 0412 34       		.uleb128 0x34
 9356 0413 00       		.byte	0
 9357 0414 31       		.uleb128 0x31
 9358 0415 13       		.uleb128 0x13
 9359 0416 02       		.uleb128 0x2
 9360 0417 0A       		.uleb128 0xa
 9361 0418 00       		.byte	0
 9362 0419 00       		.byte	0
 9363 041a 51       		.uleb128 0x51
 9364 041b 2E       		.uleb128 0x2e
 9365 041c 01       		.byte	0x1
 9366 041d 3F       		.uleb128 0x3f
 9367 041e 0C       		.uleb128 0xc
 9368 041f 03       		.uleb128 0x3
 9369 0420 0E       		.uleb128 0xe
 9370 0421 3A       		.uleb128 0x3a
 9371 0422 0B       		.uleb128 0xb
 9372 0423 3B       		.uleb128 0x3b
 9373 0424 05       		.uleb128 0x5
 9374 0425 27       		.uleb128 0x27
ARM GAS  C:\Users\srich\AppData\Local\Temp\cc7Prgoh.s 			page 166


 9375 0426 0C       		.uleb128 0xc
 9376 0427 11       		.uleb128 0x11
 9377 0428 01       		.uleb128 0x1
 9378 0429 12       		.uleb128 0x12
 9379 042a 01       		.uleb128 0x1
 9380 042b 40       		.uleb128 0x40
 9381 042c 0A       		.uleb128 0xa
 9382 042d 9742     		.uleb128 0x2117
 9383 042f 0C       		.uleb128 0xc
 9384 0430 01       		.uleb128 0x1
 9385 0431 13       		.uleb128 0x13
 9386 0432 00       		.byte	0
 9387 0433 00       		.byte	0
 9388 0434 52       		.uleb128 0x52
 9389 0435 2E       		.uleb128 0x2e
 9390 0436 01       		.byte	0x1
 9391 0437 3F       		.uleb128 0x3f
 9392 0438 0C       		.uleb128 0xc
 9393 0439 03       		.uleb128 0x3
 9394 043a 0E       		.uleb128 0xe
 9395 043b 3A       		.uleb128 0x3a
 9396 043c 0B       		.uleb128 0xb
 9397 043d 3B       		.uleb128 0x3b
 9398 043e 05       		.uleb128 0x5
 9399 043f 27       		.uleb128 0x27
 9400 0440 0C       		.uleb128 0xc
 9401 0441 49       		.uleb128 0x49
 9402 0442 13       		.uleb128 0x13
 9403 0443 11       		.uleb128 0x11
 9404 0444 01       		.uleb128 0x1
 9405 0445 12       		.uleb128 0x12
 9406 0446 01       		.uleb128 0x1
 9407 0447 40       		.uleb128 0x40
 9408 0448 0A       		.uleb128 0xa
 9409 0449 9742     		.uleb128 0x2117
 9410 044b 0C       		.uleb128 0xc
 9411 044c 01       		.uleb128 0x1
 9412 044d 13       		.uleb128 0x13
 9413 044e 00       		.byte	0
 9414 044f 00       		.byte	0
 9415 0450 53       		.uleb128 0x53
 9416 0451 34       		.uleb128 0x34
 9417 0452 00       		.byte	0
 9418 0453 03       		.uleb128 0x3
 9419 0454 08       		.uleb128 0x8
 9420 0455 3A       		.uleb128 0x3a
 9421 0456 0B       		.uleb128 0xb
 9422 0457 3B       		.uleb128 0x3b
 9423 0458 05       		.uleb128 0x5
 9424 0459 49       		.uleb128 0x49
 9425 045a 13       		.uleb128 0x13
 9426 045b 02       		.uleb128 0x2
 9427 045c 0A       		.uleb128 0xa
 9428 045d 00       		.byte	0
 9429 045e 00       		.byte	0
 9430 045f 54       		.uleb128 0x54
 9431 0460 05       		.uleb128 0x5
ARM GAS  C:\Users\srich\AppData\Local\Temp\cc7Prgoh.s 			page 167


 9432 0461 00       		.byte	0
 9433 0462 03       		.uleb128 0x3
 9434 0463 08       		.uleb128 0x8
 9435 0464 3A       		.uleb128 0x3a
 9436 0465 0B       		.uleb128 0xb
 9437 0466 3B       		.uleb128 0x3b
 9438 0467 05       		.uleb128 0x5
 9439 0468 49       		.uleb128 0x49
 9440 0469 13       		.uleb128 0x13
 9441 046a 02       		.uleb128 0x2
 9442 046b 0A       		.uleb128 0xa
 9443 046c 00       		.byte	0
 9444 046d 00       		.byte	0
 9445 046e 55       		.uleb128 0x55
 9446 046f 2E       		.uleb128 0x2e
 9447 0470 01       		.byte	0x1
 9448 0471 03       		.uleb128 0x3
 9449 0472 0E       		.uleb128 0xe
 9450 0473 3A       		.uleb128 0x3a
 9451 0474 0B       		.uleb128 0xb
 9452 0475 3B       		.uleb128 0x3b
 9453 0476 05       		.uleb128 0x5
 9454 0477 27       		.uleb128 0x27
 9455 0478 0C       		.uleb128 0xc
 9456 0479 11       		.uleb128 0x11
 9457 047a 01       		.uleb128 0x1
 9458 047b 12       		.uleb128 0x12
 9459 047c 01       		.uleb128 0x1
 9460 047d 40       		.uleb128 0x40
 9461 047e 06       		.uleb128 0x6
 9462 047f 9742     		.uleb128 0x2117
 9463 0481 0C       		.uleb128 0xc
 9464 0482 01       		.uleb128 0x1
 9465 0483 13       		.uleb128 0x13
 9466 0484 00       		.byte	0
 9467 0485 00       		.byte	0
 9468 0486 56       		.uleb128 0x56
 9469 0487 898201   		.uleb128 0x4109
 9470 048a 01       		.byte	0x1
 9471 048b 11       		.uleb128 0x11
 9472 048c 01       		.uleb128 0x1
 9473 048d 01       		.uleb128 0x1
 9474 048e 13       		.uleb128 0x13
 9475 048f 00       		.byte	0
 9476 0490 00       		.byte	0
 9477 0491 57       		.uleb128 0x57
 9478 0492 898201   		.uleb128 0x4109
 9479 0495 01       		.byte	0x1
 9480 0496 11       		.uleb128 0x11
 9481 0497 01       		.uleb128 0x1
 9482 0498 00       		.byte	0
 9483 0499 00       		.byte	0
 9484 049a 58       		.uleb128 0x58
 9485 049b 898201   		.uleb128 0x4109
 9486 049e 00       		.byte	0
 9487 049f 11       		.uleb128 0x11
 9488 04a0 01       		.uleb128 0x1
ARM GAS  C:\Users\srich\AppData\Local\Temp\cc7Prgoh.s 			page 168


 9489 04a1 9542     		.uleb128 0x2115
 9490 04a3 0C       		.uleb128 0xc
 9491 04a4 31       		.uleb128 0x31
 9492 04a5 13       		.uleb128 0x13
 9493 04a6 00       		.byte	0
 9494 04a7 00       		.byte	0
 9495 04a8 59       		.uleb128 0x59
 9496 04a9 2E       		.uleb128 0x2e
 9497 04aa 01       		.byte	0x1
 9498 04ab 31       		.uleb128 0x31
 9499 04ac 13       		.uleb128 0x13
 9500 04ad 11       		.uleb128 0x11
 9501 04ae 01       		.uleb128 0x1
 9502 04af 12       		.uleb128 0x12
 9503 04b0 01       		.uleb128 0x1
 9504 04b1 40       		.uleb128 0x40
 9505 04b2 0A       		.uleb128 0xa
 9506 04b3 9742     		.uleb128 0x2117
 9507 04b5 0C       		.uleb128 0xc
 9508 04b6 01       		.uleb128 0x1
 9509 04b7 13       		.uleb128 0x13
 9510 04b8 00       		.byte	0
 9511 04b9 00       		.byte	0
 9512 04ba 5A       		.uleb128 0x5a
 9513 04bb 34       		.uleb128 0x34
 9514 04bc 00       		.byte	0
 9515 04bd 03       		.uleb128 0x3
 9516 04be 0E       		.uleb128 0xe
 9517 04bf 3A       		.uleb128 0x3a
 9518 04c0 0B       		.uleb128 0xb
 9519 04c1 3B       		.uleb128 0x3b
 9520 04c2 0B       		.uleb128 0xb
 9521 04c3 49       		.uleb128 0x49
 9522 04c4 13       		.uleb128 0x13
 9523 04c5 3F       		.uleb128 0x3f
 9524 04c6 0C       		.uleb128 0xc
 9525 04c7 3C       		.uleb128 0x3c
 9526 04c8 0C       		.uleb128 0xc
 9527 04c9 00       		.byte	0
 9528 04ca 00       		.byte	0
 9529 04cb 5B       		.uleb128 0x5b
 9530 04cc 34       		.uleb128 0x34
 9531 04cd 00       		.byte	0
 9532 04ce 03       		.uleb128 0x3
 9533 04cf 0E       		.uleb128 0xe
 9534 04d0 3A       		.uleb128 0x3a
 9535 04d1 0B       		.uleb128 0xb
 9536 04d2 3B       		.uleb128 0x3b
 9537 04d3 05       		.uleb128 0x5
 9538 04d4 49       		.uleb128 0x49
 9539 04d5 13       		.uleb128 0x13
 9540 04d6 3F       		.uleb128 0x3f
 9541 04d7 0C       		.uleb128 0xc
 9542 04d8 3C       		.uleb128 0x3c
 9543 04d9 0C       		.uleb128 0xc
 9544 04da 00       		.byte	0
 9545 04db 00       		.byte	0
ARM GAS  C:\Users\srich\AppData\Local\Temp\cc7Prgoh.s 			page 169


 9546 04dc 5C       		.uleb128 0x5c
 9547 04dd 34       		.uleb128 0x34
 9548 04de 00       		.byte	0
 9549 04df 03       		.uleb128 0x3
 9550 04e0 0E       		.uleb128 0xe
 9551 04e1 3A       		.uleb128 0x3a
 9552 04e2 0B       		.uleb128 0xb
 9553 04e3 3B       		.uleb128 0x3b
 9554 04e4 0B       		.uleb128 0xb
 9555 04e5 49       		.uleb128 0x49
 9556 04e6 13       		.uleb128 0x13
 9557 04e7 3F       		.uleb128 0x3f
 9558 04e8 0C       		.uleb128 0xc
 9559 04e9 02       		.uleb128 0x2
 9560 04ea 0A       		.uleb128 0xa
 9561 04eb 00       		.byte	0
 9562 04ec 00       		.byte	0
 9563 04ed 5D       		.uleb128 0x5d
 9564 04ee 2E       		.uleb128 0x2e
 9565 04ef 01       		.byte	0x1
 9566 04f0 3F       		.uleb128 0x3f
 9567 04f1 0C       		.uleb128 0xc
 9568 04f2 03       		.uleb128 0x3
 9569 04f3 0E       		.uleb128 0xe
 9570 04f4 3A       		.uleb128 0x3a
 9571 04f5 0B       		.uleb128 0xb
 9572 04f6 3B       		.uleb128 0x3b
 9573 04f7 0B       		.uleb128 0xb
 9574 04f8 27       		.uleb128 0x27
 9575 04f9 0C       		.uleb128 0xc
 9576 04fa 3C       		.uleb128 0x3c
 9577 04fb 0C       		.uleb128 0xc
 9578 04fc 01       		.uleb128 0x1
 9579 04fd 13       		.uleb128 0x13
 9580 04fe 00       		.byte	0
 9581 04ff 00       		.byte	0
 9582 0500 5E       		.uleb128 0x5e
 9583 0501 2E       		.uleb128 0x2e
 9584 0502 01       		.byte	0x1
 9585 0503 3F       		.uleb128 0x3f
 9586 0504 0C       		.uleb128 0xc
 9587 0505 03       		.uleb128 0x3
 9588 0506 0E       		.uleb128 0xe
 9589 0507 3A       		.uleb128 0x3a
 9590 0508 0B       		.uleb128 0xb
 9591 0509 3B       		.uleb128 0x3b
 9592 050a 0B       		.uleb128 0xb
 9593 050b 27       		.uleb128 0x27
 9594 050c 0C       		.uleb128 0xc
 9595 050d 49       		.uleb128 0x49
 9596 050e 13       		.uleb128 0x13
 9597 050f 3C       		.uleb128 0x3c
 9598 0510 0C       		.uleb128 0xc
 9599 0511 01       		.uleb128 0x1
 9600 0512 13       		.uleb128 0x13
 9601 0513 00       		.byte	0
 9602 0514 00       		.byte	0
ARM GAS  C:\Users\srich\AppData\Local\Temp\cc7Prgoh.s 			page 170


 9603 0515 5F       		.uleb128 0x5f
 9604 0516 2E       		.uleb128 0x2e
 9605 0517 00       		.byte	0
 9606 0518 3F       		.uleb128 0x3f
 9607 0519 0C       		.uleb128 0xc
 9608 051a 03       		.uleb128 0x3
 9609 051b 0E       		.uleb128 0xe
 9610 051c 3A       		.uleb128 0x3a
 9611 051d 0B       		.uleb128 0xb
 9612 051e 3B       		.uleb128 0x3b
 9613 051f 0B       		.uleb128 0xb
 9614 0520 27       		.uleb128 0x27
 9615 0521 0C       		.uleb128 0xc
 9616 0522 3C       		.uleb128 0x3c
 9617 0523 0C       		.uleb128 0xc
 9618 0524 00       		.byte	0
 9619 0525 00       		.byte	0
 9620 0526 60       		.uleb128 0x60
 9621 0527 2E       		.uleb128 0x2e
 9622 0528 01       		.byte	0x1
 9623 0529 3F       		.uleb128 0x3f
 9624 052a 0C       		.uleb128 0xc
 9625 052b 03       		.uleb128 0x3
 9626 052c 0E       		.uleb128 0xe
 9627 052d 3A       		.uleb128 0x3a
 9628 052e 0B       		.uleb128 0xb
 9629 052f 3B       		.uleb128 0x3b
 9630 0530 05       		.uleb128 0x5
 9631 0531 27       		.uleb128 0x27
 9632 0532 0C       		.uleb128 0xc
 9633 0533 3C       		.uleb128 0x3c
 9634 0534 0C       		.uleb128 0xc
 9635 0535 01       		.uleb128 0x1
 9636 0536 13       		.uleb128 0x13
 9637 0537 00       		.byte	0
 9638 0538 00       		.byte	0
 9639 0539 61       		.uleb128 0x61
 9640 053a 2E       		.uleb128 0x2e
 9641 053b 01       		.byte	0x1
 9642 053c 3F       		.uleb128 0x3f
 9643 053d 0C       		.uleb128 0xc
 9644 053e 03       		.uleb128 0x3
 9645 053f 0E       		.uleb128 0xe
 9646 0540 3A       		.uleb128 0x3a
 9647 0541 0B       		.uleb128 0xb
 9648 0542 3B       		.uleb128 0x3b
 9649 0543 05       		.uleb128 0x5
 9650 0544 27       		.uleb128 0x27
 9651 0545 0C       		.uleb128 0xc
 9652 0546 49       		.uleb128 0x49
 9653 0547 13       		.uleb128 0x13
 9654 0548 3C       		.uleb128 0x3c
 9655 0549 0C       		.uleb128 0xc
 9656 054a 01       		.uleb128 0x1
 9657 054b 13       		.uleb128 0x13
 9658 054c 00       		.byte	0
 9659 054d 00       		.byte	0
ARM GAS  C:\Users\srich\AppData\Local\Temp\cc7Prgoh.s 			page 171


 9660 054e 62       		.uleb128 0x62
 9661 054f 2E       		.uleb128 0x2e
 9662 0550 00       		.byte	0
 9663 0551 3F       		.uleb128 0x3f
 9664 0552 0C       		.uleb128 0xc
 9665 0553 03       		.uleb128 0x3
 9666 0554 0E       		.uleb128 0xe
 9667 0555 3A       		.uleb128 0x3a
 9668 0556 0B       		.uleb128 0xb
 9669 0557 3B       		.uleb128 0x3b
 9670 0558 05       		.uleb128 0x5
 9671 0559 27       		.uleb128 0x27
 9672 055a 0C       		.uleb128 0xc
 9673 055b 3C       		.uleb128 0x3c
 9674 055c 0C       		.uleb128 0xc
 9675 055d 00       		.byte	0
 9676 055e 00       		.byte	0
 9677 055f 00       		.byte	0
 9678              		.section	.debug_loc,"",%progbits
 9679              	.Ldebug_loc0:
 9680              	.LLST0:
 9681 0000 00000000 		.4byte	.LFB120
 9682 0004 0A000000 		.4byte	.LCFI0
 9683 0008 0200     		.2byte	0x2
 9684 000a 7D       		.byte	0x7d
 9685 000b 00       		.sleb128 0
 9686 000c 0A000000 		.4byte	.LCFI0
 9687 0010 82000000 		.4byte	.LFE120
 9688 0014 0200     		.2byte	0x2
 9689 0016 7D       		.byte	0x7d
 9690 0017 14       		.sleb128 20
 9691 0018 00000000 		.4byte	0
 9692 001c 00000000 		.4byte	0
 9693              	.LLST1:
 9694 0020 00000000 		.4byte	.LVL0
 9695 0024 0C000000 		.4byte	.LVL2
 9696 0028 0100     		.2byte	0x1
 9697 002a 50       		.byte	0x50
 9698 002b 0C000000 		.4byte	.LVL2
 9699 002f 82000000 		.4byte	.LFE120
 9700 0033 0400     		.2byte	0x4
 9701 0035 F3       		.byte	0xf3
 9702 0036 01       		.uleb128 0x1
 9703 0037 50       		.byte	0x50
 9704 0038 9F       		.byte	0x9f
 9705 0039 00000000 		.4byte	0
 9706 003d 00000000 		.4byte	0
 9707              	.LLST2:
 9708 0041 04000000 		.4byte	.LVL1
 9709 0045 18000000 		.4byte	.LVL3
 9710 0049 0200     		.2byte	0x2
 9711 004b 30       		.byte	0x30
 9712 004c 9F       		.byte	0x9f
 9713 004d 3C000000 		.4byte	.LVL4
 9714 0051 48000000 		.4byte	.LVL5
 9715 0055 0100     		.2byte	0x1
 9716 0057 52       		.byte	0x52
ARM GAS  C:\Users\srich\AppData\Local\Temp\cc7Prgoh.s 			page 172


 9717 0058 74000000 		.4byte	.LVL6
 9718 005c 82000000 		.4byte	.LFE120
 9719 0060 0100     		.2byte	0x1
 9720 0062 52       		.byte	0x52
 9721 0063 00000000 		.4byte	0
 9722 0067 00000000 		.4byte	0
 9723              	.LLST3:
 9724 006b 00000000 		.4byte	.LVL7
 9725 006f 0A000000 		.4byte	.LVL10
 9726 0073 0100     		.2byte	0x1
 9727 0075 50       		.byte	0x50
 9728 0076 0A000000 		.4byte	.LVL10
 9729 007a 16000000 		.4byte	.LFE122
 9730 007e 0400     		.2byte	0x4
 9731 0080 F3       		.byte	0xf3
 9732 0081 01       		.uleb128 0x1
 9733 0082 50       		.byte	0x50
 9734 0083 9F       		.byte	0x9f
 9735 0084 00000000 		.4byte	0
 9736 0088 00000000 		.4byte	0
 9737              	.LLST4:
 9738 008c 00000000 		.4byte	.LVL7
 9739 0090 04000000 		.4byte	.LVL9
 9740 0094 0100     		.2byte	0x1
 9741 0096 51       		.byte	0x51
 9742 0097 04000000 		.4byte	.LVL9
 9743 009b 16000000 		.4byte	.LFE122
 9744 009f 0400     		.2byte	0x4
 9745 00a1 F3       		.byte	0xf3
 9746 00a2 01       		.uleb128 0x1
 9747 00a3 51       		.byte	0x51
 9748 00a4 9F       		.byte	0x9f
 9749 00a5 00000000 		.4byte	0
 9750 00a9 00000000 		.4byte	0
 9751              	.LLST5:
 9752 00ad 02000000 		.4byte	.LVL8
 9753 00b1 15000000 		.4byte	.LVL11-1
 9754 00b5 0100     		.2byte	0x1
 9755 00b7 52       		.byte	0x52
 9756 00b8 00000000 		.4byte	0
 9757 00bc 00000000 		.4byte	0
 9758              	.LLST6:
 9759 00c0 00000000 		.4byte	.LFB136
 9760 00c4 04000000 		.4byte	.LCFI1
 9761 00c8 0200     		.2byte	0x2
 9762 00ca 7D       		.byte	0x7d
 9763 00cb 00       		.sleb128 0
 9764 00cc 04000000 		.4byte	.LCFI1
 9765 00d0 18000000 		.4byte	.LCFI2
 9766 00d4 0200     		.2byte	0x2
 9767 00d6 7D       		.byte	0x7d
 9768 00d7 24       		.sleb128 36
 9769 00d8 18000000 		.4byte	.LCFI2
 9770 00dc 96040000 		.4byte	.LFE136
 9771 00e0 0300     		.2byte	0x3
 9772 00e2 7D       		.byte	0x7d
 9773 00e3 C000     		.sleb128 64
ARM GAS  C:\Users\srich\AppData\Local\Temp\cc7Prgoh.s 			page 173


 9774 00e5 00000000 		.4byte	0
 9775 00e9 00000000 		.4byte	0
 9776              	.LLST7:
 9777 00ed 00000000 		.4byte	.LVL12
 9778 00f1 16000000 		.4byte	.LVL14
 9779 00f5 0100     		.2byte	0x1
 9780 00f7 50       		.byte	0x50
 9781 00f8 16000000 		.4byte	.LVL14
 9782 00fc 96040000 		.4byte	.LFE136
 9783 0100 0100     		.2byte	0x1
 9784 0102 5B       		.byte	0x5b
 9785 0103 00000000 		.4byte	0
 9786 0107 00000000 		.4byte	0
 9787              	.LLST8:
 9788 010b 14000000 		.4byte	.LVL13
 9789 010f 16000000 		.4byte	.LVL14
 9790 0113 0100     		.2byte	0x1
 9791 0115 50       		.byte	0x50
 9792 0116 16000000 		.4byte	.LVL14
 9793 011a 96040000 		.4byte	.LFE136
 9794 011e 0100     		.2byte	0x1
 9795 0120 5B       		.byte	0x5b
 9796 0121 00000000 		.4byte	0
 9797 0125 00000000 		.4byte	0
 9798              	.LLST9:
 9799 0129 20000000 		.4byte	.LVL16
 9800 012d 28000000 		.4byte	.LVL18
 9801 0131 0100     		.2byte	0x1
 9802 0133 53       		.byte	0x53
 9803 0134 00000000 		.4byte	0
 9804 0138 00000000 		.4byte	0
 9805              	.LLST10:
 9806 013c 60000000 		.4byte	.LVL21
 9807 0140 62000000 		.4byte	.LVL22
 9808 0144 0200     		.2byte	0x2
 9809 0146 30       		.byte	0x30
 9810 0147 9F       		.byte	0x9f
 9811 0148 00010000 		.4byte	.LVL49
 9812 014c 06010000 		.4byte	.LVL50
 9813 0150 0100     		.2byte	0x1
 9814 0152 53       		.byte	0x53
 9815 0153 06010000 		.4byte	.LVL50
 9816 0157 0C010000 		.4byte	.LVL52
 9817 015b 0100     		.2byte	0x1
 9818 015d 54       		.byte	0x54
 9819 015e 00000000 		.4byte	0
 9820 0162 00000000 		.4byte	0
 9821              	.LLST11:
 9822 0166 EE000000 		.4byte	.LVL46
 9823 016a F6000000 		.4byte	.LVL47
 9824 016e 0100     		.2byte	0x1
 9825 0170 55       		.byte	0x55
 9826 0171 F6000000 		.4byte	.LVL47
 9827 0175 0C010000 		.4byte	.LVL52
 9828 0179 0200     		.2byte	0x2
 9829 017b 91       		.byte	0x91
 9830 017c 50       		.sleb128 -48
ARM GAS  C:\Users\srich\AppData\Local\Temp\cc7Prgoh.s 			page 174


 9831 017d 60020000 		.4byte	.LVL99
 9832 0181 78020000 		.4byte	.LVL102
 9833 0185 0100     		.2byte	0x1
 9834 0187 55       		.byte	0x55
 9835 0188 78020000 		.4byte	.LVL102
 9836 018c 96040000 		.4byte	.LFE136
 9837 0190 0200     		.2byte	0x2
 9838 0192 91       		.byte	0x91
 9839 0193 50       		.sleb128 -48
 9840 0194 00000000 		.4byte	0
 9841 0198 00000000 		.4byte	0
 9842              	.LLST12:
 9843 019c 24000000 		.4byte	.LVL17
 9844 01a0 5C000000 		.4byte	.LVL20
 9845 01a4 0100     		.2byte	0x1
 9846 01a6 58       		.byte	0x58
 9847 01a7 60000000 		.4byte	.LVL21
 9848 01ab 62000000 		.4byte	.LVL22
 9849 01af 0100     		.2byte	0x1
 9850 01b1 53       		.byte	0x53
 9851 01b2 62000000 		.4byte	.LVL22
 9852 01b6 96040000 		.4byte	.LFE136
 9853 01ba 0100     		.2byte	0x1
 9854 01bc 58       		.byte	0x58
 9855 01bd 00000000 		.4byte	0
 9856 01c1 00000000 		.4byte	0
 9857              	.LLST13:
 9858 01c5 6C000000 		.4byte	.LVL23
 9859 01c9 E2000000 		.4byte	.LVL44
 9860 01cd 0100     		.2byte	0x1
 9861 01cf 5B       		.byte	0x5b
 9862 01d0 0C010000 		.4byte	.LVL52
 9863 01d4 60020000 		.4byte	.LVL99
 9864 01d8 0100     		.2byte	0x1
 9865 01da 5B       		.byte	0x5b
 9866 01db 00000000 		.4byte	0
 9867 01df 00000000 		.4byte	0
 9868              	.LLST14:
 9869 01e3 72000000 		.4byte	.LVL24
 9870 01e7 92000000 		.4byte	.LVL28
 9871 01eb 0100     		.2byte	0x1
 9872 01ed 51       		.byte	0x51
 9873 01ee 0C010000 		.4byte	.LVL52
 9874 01f2 1E010000 		.4byte	.LVL54
 9875 01f6 0100     		.2byte	0x1
 9876 01f8 51       		.byte	0x51
 9877 01f9 00000000 		.4byte	0
 9878 01fd 00000000 		.4byte	0
 9879              	.LLST15:
 9880 0201 82000000 		.4byte	.LVL25
 9881 0205 92000000 		.4byte	.LVL28
 9882 0209 0900     		.2byte	0x9
 9883 020b 71       		.byte	0x71
 9884 020c 00       		.sleb128 0
 9885 020d 0A       		.byte	0xa
 9886 020e F07F     		.2byte	0x7ff0
 9887 0210 1A       		.byte	0x1a
ARM GAS  C:\Users\srich\AppData\Local\Temp\cc7Prgoh.s 			page 175


 9888 0211 34       		.byte	0x34
 9889 0212 25       		.byte	0x25
 9890 0213 9F       		.byte	0x9f
 9891 0214 1A010000 		.4byte	.LVL53
 9892 0218 98010000 		.4byte	.LVL76
 9893 021c 0100     		.2byte	0x1
 9894 021e 56       		.byte	0x56
 9895 021f 9C010000 		.4byte	.LVL77
 9896 0223 60020000 		.4byte	.LVL99
 9897 0227 0100     		.2byte	0x1
 9898 0229 56       		.byte	0x56
 9899 022a 00000000 		.4byte	0
 9900 022e 00000000 		.4byte	0
 9901              	.LLST16:
 9902 0232 82000000 		.4byte	.LVL25
 9903 0236 86000000 		.4byte	.LVL26
 9904 023a 0500     		.2byte	0x5
 9905 023c 71       		.byte	0x71
 9906 023d 00       		.sleb128 0
 9907 023e 3F       		.byte	0x3f
 9908 023f 1A       		.byte	0x1a
 9909 0240 9F       		.byte	0x9f
 9910 0241 86000000 		.4byte	.LVL26
 9911 0245 96000000 		.4byte	.LVL29
 9912 0249 0100     		.2byte	0x1
 9913 024b 57       		.byte	0x57
 9914 024c 1A010000 		.4byte	.LVL53
 9915 0250 90010000 		.4byte	.LVL75
 9916 0254 0300     		.2byte	0x3
 9917 0256 77       		.byte	0x77
 9918 0257 7E       		.sleb128 -2
 9919 0258 9F       		.byte	0x9f
 9920 0259 9C010000 		.4byte	.LVL77
 9921 025d 60020000 		.4byte	.LVL99
 9922 0261 0300     		.2byte	0x3
 9923 0263 77       		.byte	0x77
 9924 0264 7E       		.sleb128 -2
 9925 0265 9F       		.byte	0x9f
 9926 0266 00000000 		.4byte	0
 9927 026a 00000000 		.4byte	0
 9928              	.LLST17:
 9929 026e 96000000 		.4byte	.LVL29
 9930 0272 AC000000 		.4byte	.LVL33
 9931 0276 0200     		.2byte	0x2
 9932 0278 32       		.byte	0x32
 9933 0279 9F       		.byte	0x9f
 9934 027a AC000000 		.4byte	.LVL33
 9935 027e B6000000 		.4byte	.LVL35
 9936 0282 0100     		.2byte	0x1
 9937 0284 53       		.byte	0x53
 9938 0285 B6000000 		.4byte	.LVL35
 9939 0289 BC000000 		.4byte	.LVL37
 9940 028d 0200     		.2byte	0x2
 9941 028f 31       		.byte	0x31
 9942 0290 9F       		.byte	0x9f
 9943 0291 BC000000 		.4byte	.LVL37
 9944 0295 E2000000 		.4byte	.LVL44
ARM GAS  C:\Users\srich\AppData\Local\Temp\cc7Prgoh.s 			page 176


 9945 0299 0100     		.2byte	0x1
 9946 029b 53       		.byte	0x53
 9947 029c 00000000 		.4byte	0
 9948 02a0 00000000 		.4byte	0
 9949              	.LLST18:
 9950 02a4 96000000 		.4byte	.LVL29
 9951 02a8 B4000000 		.4byte	.LVL34
 9952 02ac 0100     		.2byte	0x1
 9953 02ae 55       		.byte	0x55
 9954 02af B4000000 		.4byte	.LVL34
 9955 02b3 B8000000 		.4byte	.LVL36
 9956 02b7 0300     		.2byte	0x3
 9957 02b9 71       		.byte	0x71
 9958 02ba 01       		.sleb128 1
 9959 02bb 9F       		.byte	0x9f
 9960 02bc B8000000 		.4byte	.LVL36
 9961 02c0 BC000000 		.4byte	.LVL37
 9962 02c4 0300     		.2byte	0x3
 9963 02c6 72       		.byte	0x72
 9964 02c7 01       		.sleb128 1
 9965 02c8 9F       		.byte	0x9f
 9966 02c9 00000000 		.4byte	0
 9967 02cd 00000000 		.4byte	0
 9968              	.LLST19:
 9969 02d1 96000000 		.4byte	.LVL29
 9970 02d5 E0000000 		.4byte	.LVL43
 9971 02d9 0100     		.2byte	0x1
 9972 02db 57       		.byte	0x57
 9973 02dc 00000000 		.4byte	0
 9974 02e0 00000000 		.4byte	0
 9975              	.LLST20:
 9976 02e4 96000000 		.4byte	.LVL29
 9977 02e8 9C000000 		.4byte	.LVL30
 9978 02ec 0400     		.2byte	0x4
 9979 02ee 70       		.byte	0x70
 9980 02ef 8020     		.sleb128 4096
 9981 02f1 9F       		.byte	0x9f
 9982 02f2 9C000000 		.4byte	.LVL30
 9983 02f6 DC000000 		.4byte	.LVL42
 9984 02fa 0100     		.2byte	0x1
 9985 02fc 50       		.byte	0x50
 9986 02fd DC000000 		.4byte	.LVL42
 9987 0301 E2000000 		.4byte	.LVL44
 9988 0305 0800     		.2byte	0x8
 9989 0307 7B       		.byte	0x7b
 9990 0308 D000     		.sleb128 80
 9991 030a 06       		.byte	0x6
 9992 030b 23       		.byte	0x23
 9993 030c 8020     		.uleb128 0x1000
 9994 030e 9F       		.byte	0x9f
 9995 030f 00000000 		.4byte	0
 9996 0313 00000000 		.4byte	0
 9997              	.LLST21:
 9998 0317 A0000000 		.4byte	.LVL31
 9999 031b AC000000 		.4byte	.LVL33
 10000 031f 0100     		.2byte	0x1
 10001 0321 53       		.byte	0x53
ARM GAS  C:\Users\srich\AppData\Local\Temp\cc7Prgoh.s 			page 177


 10002 0322 AC000000 		.4byte	.LVL33
 10003 0326 B4000000 		.4byte	.LVL34
 10004 032a 0200     		.2byte	0x2
 10005 032c 77       		.byte	0x77
 10006 032d 7C       		.sleb128 -4
 10007 032e 00000000 		.4byte	0
 10008 0332 00000000 		.4byte	0
 10009              	.LLST22:
 10010 0336 28010000 		.4byte	.LVL56
 10011 033a 2A010000 		.4byte	.LVL57
 10012 033e 0700     		.2byte	0x7
 10013 0340 72       		.byte	0x72
 10014 0341 00       		.sleb128 0
 10015 0342 71       		.byte	0x71
 10016 0343 08       		.sleb128 8
 10017 0344 06       		.byte	0x6
 10018 0345 1C       		.byte	0x1c
 10019 0346 9F       		.byte	0x9f
 10020 0347 2A010000 		.4byte	.LVL57
 10021 034b 30010000 		.4byte	.LVL59
 10022 034f 0800     		.2byte	0x8
 10023 0351 71       		.byte	0x71
 10024 0352 04       		.sleb128 4
 10025 0353 06       		.byte	0x6
 10026 0354 71       		.byte	0x71
 10027 0355 08       		.sleb128 8
 10028 0356 06       		.byte	0x6
 10029 0357 1C       		.byte	0x1c
 10030 0358 9F       		.byte	0x9f
 10031 0359 30010000 		.4byte	.LVL59
 10032 035d 4C010000 		.4byte	.LVL63
 10033 0361 0100     		.2byte	0x1
 10034 0363 53       		.byte	0x53
 10035 0364 4C010000 		.4byte	.LVL63
 10036 0368 50010000 		.4byte	.LVL64
 10037 036c 0300     		.2byte	0x3
 10038 036e 73       		.byte	0x73
 10039 036f 01       		.sleb128 1
 10040 0370 9F       		.byte	0x9f
 10041 0371 50010000 		.4byte	.LVL64
 10042 0375 8C010000 		.4byte	.LVL74
 10043 0379 0100     		.2byte	0x1
 10044 037b 53       		.byte	0x53
 10045 037c 00000000 		.4byte	0
 10046 0380 00000000 		.4byte	0
 10047              	.LLST23:
 10048 0384 28010000 		.4byte	.LVL56
 10049 0388 2E010000 		.4byte	.LVL58
 10050 038c 0100     		.2byte	0x1
 10051 038e 56       		.byte	0x56
 10052 038f 2E010000 		.4byte	.LVL58
 10053 0393 32010000 		.4byte	.LVL60
 10054 0397 0500     		.2byte	0x5
 10055 0399 72       		.byte	0x72
 10056 039a 00       		.sleb128 0
 10057 039b 32       		.byte	0x32
 10058 039c 25       		.byte	0x25
ARM GAS  C:\Users\srich\AppData\Local\Temp\cc7Prgoh.s 			page 178


 10059 039d 9F       		.byte	0x9f
 10060 039e 32010000 		.4byte	.LVL60
 10061 03a2 52010000 		.4byte	.LVL65
 10062 03a6 0100     		.2byte	0x1
 10063 03a8 52       		.byte	0x52
 10064 03a9 52010000 		.4byte	.LVL65
 10065 03ad 66010000 		.4byte	.LVL68
 10066 03b1 0500     		.2byte	0x5
 10067 03b3 76       		.byte	0x76
 10068 03b4 03       		.sleb128 3
 10069 03b5 32       		.byte	0x32
 10070 03b6 25       		.byte	0x25
 10071 03b7 9F       		.byte	0x9f
 10072 03b8 00000000 		.4byte	0
 10073 03bc 00000000 		.4byte	0
 10074              	.LLST24:
 10075 03c0 28010000 		.4byte	.LVL56
 10076 03c4 50010000 		.4byte	.LVL64
 10077 03c8 0100     		.2byte	0x1
 10078 03ca 55       		.byte	0x55
 10079 03cb 50010000 		.4byte	.LVL64
 10080 03cf 88010000 		.4byte	.LVL73
 10081 03d3 0100     		.2byte	0x1
 10082 03d5 5E       		.byte	0x5e
 10083 03d6 00000000 		.4byte	0
 10084 03da 00000000 		.4byte	0
 10085              	.LLST25:
 10086 03de 28010000 		.4byte	.LVL56
 10087 03e2 38010000 		.4byte	.LVL61
 10088 03e6 0400     		.2byte	0x4
 10089 03e8 70       		.byte	0x70
 10090 03e9 8020     		.sleb128 4096
 10091 03eb 9F       		.byte	0x9f
 10092 03ec 38010000 		.4byte	.LVL61
 10093 03f0 88010000 		.4byte	.LVL73
 10094 03f4 0100     		.2byte	0x1
 10095 03f6 50       		.byte	0x50
 10096 03f7 88010000 		.4byte	.LVL73
 10097 03fb 8C010000 		.4byte	.LVL74
 10098 03ff 0800     		.2byte	0x8
 10099 0401 7B       		.byte	0x7b
 10100 0402 D000     		.sleb128 80
 10101 0404 06       		.byte	0x6
 10102 0405 23       		.byte	0x23
 10103 0406 8020     		.uleb128 0x1000
 10104 0408 9F       		.byte	0x9f
 10105 0409 00000000 		.4byte	0
 10106 040d 00000000 		.4byte	0
 10107              	.LLST26:
 10108 0411 46010000 		.4byte	.LVL62
 10109 0415 5E010000 		.4byte	.LVL66
 10110 0419 0100     		.2byte	0x1
 10111 041b 59       		.byte	0x59
 10112 041c 00000000 		.4byte	0
 10113 0420 00000000 		.4byte	0
 10114              	.LLST27:
 10115 0424 A2010000 		.4byte	.LVL78
ARM GAS  C:\Users\srich\AppData\Local\Temp\cc7Prgoh.s 			page 179


 10116 0428 60020000 		.4byte	.LVL99
 10117 042c 0100     		.2byte	0x1
 10118 042e 56       		.byte	0x56
 10119 042f 00000000 		.4byte	0
 10120 0433 00000000 		.4byte	0
 10121              	.LLST28:
 10122 0437 A2010000 		.4byte	.LVL78
 10123 043b 60020000 		.4byte	.LVL99
 10124 043f 0100     		.2byte	0x1
 10125 0441 55       		.byte	0x55
 10126 0442 00000000 		.4byte	0
 10127 0446 00000000 		.4byte	0
 10128              	.LLST29:
 10129 044a A2010000 		.4byte	.LVL78
 10130 044e 32020000 		.4byte	.LVL92
 10131 0452 0100     		.2byte	0x1
 10132 0454 50       		.byte	0x50
 10133 0455 32020000 		.4byte	.LVL92
 10134 0459 3A020000 		.4byte	.LVL93
 10135 045d 0800     		.2byte	0x8
 10136 045f 7B       		.byte	0x7b
 10137 0460 D000     		.sleb128 80
 10138 0462 06       		.byte	0x6
 10139 0463 23       		.byte	0x23
 10140 0464 8020     		.uleb128 0x1000
 10141 0466 9F       		.byte	0x9f
 10142 0467 00000000 		.4byte	0
 10143 046b 00000000 		.4byte	0
 10144              	.LLST30:
 10145 046f A2010000 		.4byte	.LVL78
 10146 0473 AA010000 		.4byte	.LVL79
 10147 0477 0100     		.2byte	0x1
 10148 0479 56       		.byte	0x56
 10149 047a AA010000 		.4byte	.LVL79
 10150 047e C2010000 		.4byte	.LVL83
 10151 0482 0100     		.2byte	0x1
 10152 0484 53       		.byte	0x53
 10153 0485 C2010000 		.4byte	.LVL83
 10154 0489 D6010000 		.4byte	.LVL84
 10155 048d 0300     		.2byte	0x3
 10156 048f 73       		.byte	0x73
 10157 0490 7F       		.sleb128 -1
 10158 0491 9F       		.byte	0x9f
 10159 0492 D6010000 		.4byte	.LVL84
 10160 0496 F2010000 		.4byte	.LVL85
 10161 049a 0300     		.2byte	0x3
 10162 049c 73       		.byte	0x73
 10163 049d 7E       		.sleb128 -2
 10164 049e 9F       		.byte	0x9f
 10165 049f F2010000 		.4byte	.LVL85
 10166 04a3 0E020000 		.4byte	.LVL86
 10167 04a7 0300     		.2byte	0x3
 10168 04a9 73       		.byte	0x73
 10169 04aa 7D       		.sleb128 -3
 10170 04ab 9F       		.byte	0x9f
 10171 04ac 0E020000 		.4byte	.LVL86
 10172 04b0 24020000 		.4byte	.LVL88
ARM GAS  C:\Users\srich\AppData\Local\Temp\cc7Prgoh.s 			page 180


 10173 04b4 0300     		.2byte	0x3
 10174 04b6 73       		.byte	0x73
 10175 04b7 7C       		.sleb128 -4
 10176 04b8 9F       		.byte	0x9f
 10177 04b9 24020000 		.4byte	.LVL88
 10178 04bd 26020000 		.4byte	.LVL89
 10179 04c1 0100     		.2byte	0x1
 10180 04c3 53       		.byte	0x53
 10181 04c4 00000000 		.4byte	0
 10182 04c8 00000000 		.4byte	0
 10183              	.LLST31:
 10184 04cc C2010000 		.4byte	.LVL83
 10185 04d0 12020000 		.4byte	.LVL87
 10186 04d4 0100     		.2byte	0x1
 10187 04d6 52       		.byte	0x52
 10188 04d7 00000000 		.4byte	0
 10189 04db 00000000 		.4byte	0
 10190              	.LLST32:
 10191 04df C2010000 		.4byte	.LVL83
 10192 04e3 D6010000 		.4byte	.LVL84
 10193 04e7 0200     		.2byte	0x2
 10194 04e9 31       		.byte	0x31
 10195 04ea 9F       		.byte	0x9f
 10196 04eb D6010000 		.4byte	.LVL84
 10197 04ef F2010000 		.4byte	.LVL85
 10198 04f3 0200     		.2byte	0x2
 10199 04f5 32       		.byte	0x32
 10200 04f6 9F       		.byte	0x9f
 10201 04f7 F2010000 		.4byte	.LVL85
 10202 04fb 0E020000 		.4byte	.LVL86
 10203 04ff 0200     		.2byte	0x2
 10204 0501 33       		.byte	0x33
 10205 0502 9F       		.byte	0x9f
 10206 0503 0E020000 		.4byte	.LVL86
 10207 0507 26020000 		.4byte	.LVL89
 10208 050b 0200     		.2byte	0x2
 10209 050d 34       		.byte	0x34
 10210 050e 9F       		.byte	0x9f
 10211 050f 00000000 		.4byte	0
 10212 0513 00000000 		.4byte	0
 10213              	.LLST33:
 10214 0517 AA010000 		.4byte	.LVL79
 10215 051b B0010000 		.4byte	.LVL80
 10216 051f 0500     		.2byte	0x5
 10217 0521 73       		.byte	0x73
 10218 0522 00       		.sleb128 0
 10219 0523 32       		.byte	0x32
 10220 0524 25       		.byte	0x25
 10221 0525 9F       		.byte	0x9f
 10222 0526 BC010000 		.4byte	.LVL81
 10223 052a C0010000 		.4byte	.LVL82
 10224 052e 0500     		.2byte	0x5
 10225 0530 73       		.byte	0x73
 10226 0531 00       		.sleb128 0
 10227 0532 32       		.byte	0x32
 10228 0533 25       		.byte	0x25
 10229 0534 9F       		.byte	0x9f
ARM GAS  C:\Users\srich\AppData\Local\Temp\cc7Prgoh.s 			page 181


 10230 0535 00000000 		.4byte	0
 10231 0539 00000000 		.4byte	0
 10232              	.LLST34:
 10233 053d B0010000 		.4byte	.LVL80
 10234 0541 C0010000 		.4byte	.LVL82
 10235 0545 0200     		.2byte	0x2
 10236 0547 30       		.byte	0x30
 10237 0548 9F       		.byte	0x9f
 10238 0549 00000000 		.4byte	0
 10239 054d 00000000 		.4byte	0
 10240              	.LLST36:
 10241 0551 2E020000 		.4byte	.LVL91
 10242 0555 3C020000 		.4byte	.LVL94
 10243 0559 0100     		.2byte	0x1
 10244 055b 53       		.byte	0x53
 10245 055c 4E020000 		.4byte	.LVL96
 10246 0560 51020000 		.4byte	.LVL97-1
 10247 0564 0100     		.2byte	0x1
 10248 0566 53       		.byte	0x53
 10249 0567 00000000 		.4byte	0
 10250 056b 00000000 		.4byte	0
 10251              	.LLST37:
 10252 056f 3A020000 		.4byte	.LVL93
 10253 0573 4E020000 		.4byte	.LVL96
 10254 0577 0100     		.2byte	0x1
 10255 0579 55       		.byte	0x55
 10256 057a 00000000 		.4byte	0
 10257 057e 00000000 		.4byte	0
 10258              	.LLST38:
 10259 0582 3A020000 		.4byte	.LVL93
 10260 0586 43020000 		.4byte	.LVL95-1
 10261 058a 0100     		.2byte	0x1
 10262 058c 50       		.byte	0x50
 10263 058d 00000000 		.4byte	0
 10264 0591 00000000 		.4byte	0
 10265              	.LLST39:
 10266 0595 62000000 		.4byte	.LVL22
 10267 0599 90000000 		.4byte	.LVL27
 10268 059d 0100     		.2byte	0x1
 10269 059f 53       		.byte	0x53
 10270 05a0 E2000000 		.4byte	.LVL44
 10271 05a4 E8000000 		.4byte	.LVL45
 10272 05a8 0100     		.2byte	0x1
 10273 05aa 53       		.byte	0x53
 10274 05ab 0C010000 		.4byte	.LVL52
 10275 05af 20010000 		.4byte	.LVL55
 10276 05b3 0100     		.2byte	0x1
 10277 05b5 53       		.byte	0x53
 10278 05b6 8C010000 		.4byte	.LVL74
 10279 05ba 9C010000 		.4byte	.LVL77
 10280 05be 0100     		.2byte	0x1
 10281 05c0 53       		.byte	0x53
 10282 05c1 58020000 		.4byte	.LVL98
 10283 05c5 60020000 		.4byte	.LVL99
 10284 05c9 0100     		.2byte	0x1
 10285 05cb 53       		.byte	0x53
 10286 05cc 00000000 		.4byte	0
ARM GAS  C:\Users\srich\AppData\Local\Temp\cc7Prgoh.s 			page 182


 10287 05d0 00000000 		.4byte	0
 10288              	.LLST40:
 10289 05d4 24000000 		.4byte	.LVL17
 10290 05d8 28000000 		.4byte	.LVL18
 10291 05dc 0100     		.2byte	0x1
 10292 05de 53       		.byte	0x53
 10293 05df 0A010000 		.4byte	.LVL51
 10294 05e3 0C010000 		.4byte	.LVL52
 10295 05e7 0100     		.2byte	0x1
 10296 05e9 53       		.byte	0x53
 10297 05ea 00000000 		.4byte	0
 10298 05ee 00000000 		.4byte	0
 10299              	.LLST41:
 10300 05f2 66020000 		.4byte	.LVL101
 10301 05f6 7E020000 		.4byte	.LVL103
 10302 05fa 0100     		.2byte	0x1
 10303 05fc 53       		.byte	0x53
 10304 05fd 00000000 		.4byte	0
 10305 0601 00000000 		.4byte	0
 10306              	.LLST42:
 10307 0605 86020000 		.4byte	.LVL104
 10308 0609 8C020000 		.4byte	.LVL105
 10309 060d 0100     		.2byte	0x1
 10310 060f 53       		.byte	0x53
 10311 0610 00000000 		.4byte	0
 10312 0614 00000000 		.4byte	0
 10313              	.LLST43:
 10314 0618 86020000 		.4byte	.LVL104
 10315 061c B6020000 		.4byte	.LVL108
 10316 0620 0100     		.2byte	0x1
 10317 0622 54       		.byte	0x54
 10318 0623 B6020000 		.4byte	.LVL108
 10319 0627 C4020000 		.4byte	.LVL109
 10320 062b 0300     		.2byte	0x3
 10321 062d 74       		.byte	0x74
 10322 062e 7F       		.sleb128 -1
 10323 062f 9F       		.byte	0x9f
 10324 0630 C4020000 		.4byte	.LVL109
 10325 0634 50030000 		.4byte	.LVL119
 10326 0638 0600     		.2byte	0x6
 10327 063a 91       		.byte	0x91
 10328 063b 54       		.sleb128 -44
 10329 063c 06       		.byte	0x6
 10330 063d 31       		.byte	0x31
 10331 063e 1C       		.byte	0x1c
 10332 063f 9F       		.byte	0x9f
 10333 0640 7A030000 		.4byte	.LVL124
 10334 0644 8E040000 		.4byte	.LVL159
 10335 0648 0600     		.2byte	0x6
 10336 064a 91       		.byte	0x91
 10337 064b 54       		.sleb128 -44
 10338 064c 06       		.byte	0x6
 10339 064d 31       		.byte	0x31
 10340 064e 1C       		.byte	0x1c
 10341 064f 9F       		.byte	0x9f
 10342 0650 8E040000 		.4byte	.LVL159
 10343 0654 92040000 		.4byte	.LVL160
ARM GAS  C:\Users\srich\AppData\Local\Temp\cc7Prgoh.s 			page 183


 10344 0658 0100     		.2byte	0x1
 10345 065a 54       		.byte	0x54
 10346 065b 00000000 		.4byte	0
 10347 065f 00000000 		.4byte	0
 10348              	.LLST44:
 10349 0663 A8020000 		.4byte	.LVL106
 10350 0667 B2020000 		.4byte	.LVL107
 10351 066b 0100     		.2byte	0x1
 10352 066d 56       		.byte	0x56
 10353 066e B2020000 		.4byte	.LVL107
 10354 0672 32030000 		.4byte	.LVL116
 10355 0676 0100     		.2byte	0x1
 10356 0678 55       		.byte	0x55
 10357 0679 3C030000 		.4byte	.LVL117
 10358 067d 50030000 		.4byte	.LVL119
 10359 0681 0100     		.2byte	0x1
 10360 0683 55       		.byte	0x55
 10361 0684 7A030000 		.4byte	.LVL124
 10362 0688 8A030000 		.4byte	.LVL126
 10363 068c 0100     		.2byte	0x1
 10364 068e 55       		.byte	0x55
 10365 068f 8A030000 		.4byte	.LVL126
 10366 0693 F0030000 		.4byte	.LVL139
 10367 0697 0100     		.2byte	0x1
 10368 0699 5E       		.byte	0x5e
 10369 069a F0030000 		.4byte	.LVL139
 10370 069e 22040000 		.4byte	.LVL149
 10371 06a2 0100     		.2byte	0x1
 10372 06a4 55       		.byte	0x55
 10373 06a5 22040000 		.4byte	.LVL149
 10374 06a9 8E040000 		.4byte	.LVL159
 10375 06ad 0100     		.2byte	0x1
 10376 06af 5E       		.byte	0x5e
 10377 06b0 00000000 		.4byte	0
 10378 06b4 00000000 		.4byte	0
 10379              	.LLST45:
 10380 06b8 D8020000 		.4byte	.LVL110
 10381 06bc 1C030000 		.4byte	.LVL114
 10382 06c0 0100     		.2byte	0x1
 10383 06c2 55       		.byte	0x55
 10384 06c3 00000000 		.4byte	0
 10385 06c7 00000000 		.4byte	0
 10386              	.LLST46:
 10387 06cb D8020000 		.4byte	.LVL110
 10388 06cf 1C030000 		.4byte	.LVL114
 10389 06d3 0100     		.2byte	0x1
 10390 06d5 57       		.byte	0x57
 10391 06d6 00000000 		.4byte	0
 10392 06da 00000000 		.4byte	0
 10393              	.LLST47:
 10394 06de D8020000 		.4byte	.LVL110
 10395 06e2 1A030000 		.4byte	.LVL113
 10396 06e6 0100     		.2byte	0x1
 10397 06e8 54       		.byte	0x54
 10398 06e9 00000000 		.4byte	0
 10399 06ed 00000000 		.4byte	0
 10400              	.LLST48:
ARM GAS  C:\Users\srich\AppData\Local\Temp\cc7Prgoh.s 			page 184


 10401 06f1 D8020000 		.4byte	.LVL110
 10402 06f5 04030000 		.4byte	.LVL112
 10403 06f9 0100     		.2byte	0x1
 10404 06fb 5E       		.byte	0x5e
 10405 06fc 00000000 		.4byte	0
 10406 0700 00000000 		.4byte	0
 10407              	.LLST49:
 10408 0704 D8020000 		.4byte	.LVL110
 10409 0708 F2020000 		.4byte	.LVL111
 10410 070c 0100     		.2byte	0x1
 10411 070e 57       		.byte	0x57
 10412 070f 00000000 		.4byte	0
 10413 0713 00000000 		.4byte	0
 10414              	.LLST51:
 10415 0717 80030000 		.4byte	.LVL125
 10416 071b 8A030000 		.4byte	.LVL126
 10417 071f 0100     		.2byte	0x1
 10418 0721 55       		.byte	0x55
 10419 0722 8A030000 		.4byte	.LVL126
 10420 0726 F0030000 		.4byte	.LVL139
 10421 072a 0100     		.2byte	0x1
 10422 072c 5E       		.byte	0x5e
 10423 072d F0030000 		.4byte	.LVL139
 10424 0731 22040000 		.4byte	.LVL149
 10425 0735 0100     		.2byte	0x1
 10426 0737 55       		.byte	0x55
 10427 0738 22040000 		.4byte	.LVL149
 10428 073c 8E040000 		.4byte	.LVL159
 10429 0740 0100     		.2byte	0x1
 10430 0742 5E       		.byte	0x5e
 10431 0743 00000000 		.4byte	0
 10432 0747 00000000 		.4byte	0
 10433              	.LLST52:
 10434 074b 80030000 		.4byte	.LVL125
 10435 074f 8E040000 		.4byte	.LVL159
 10436 0753 0100     		.2byte	0x1
 10437 0755 54       		.byte	0x54
 10438 0756 00000000 		.4byte	0
 10439 075a 00000000 		.4byte	0
 10440              	.LLST53:
 10441 075e 80030000 		.4byte	.LVL125
 10442 0762 F8030000 		.4byte	.LVL142
 10443 0766 0100     		.2byte	0x1
 10444 0768 51       		.byte	0x51
 10445 0769 22040000 		.4byte	.LVL149
 10446 076d 8E040000 		.4byte	.LVL159
 10447 0771 0100     		.2byte	0x1
 10448 0773 51       		.byte	0x51
 10449 0774 00000000 		.4byte	0
 10450 0778 00000000 		.4byte	0
 10451              	.LLST54:
 10452 077c 80030000 		.4byte	.LVL125
 10453 0780 8A030000 		.4byte	.LVL126
 10454 0784 0100     		.2byte	0x1
 10455 0786 55       		.byte	0x55
 10456 0787 8A030000 		.4byte	.LVL126
 10457 078b F0030000 		.4byte	.LVL139
ARM GAS  C:\Users\srich\AppData\Local\Temp\cc7Prgoh.s 			page 185


 10458 078f 0100     		.2byte	0x1
 10459 0791 52       		.byte	0x52
 10460 0792 22040000 		.4byte	.LVL149
 10461 0796 2C040000 		.4byte	.LVL151
 10462 079a 0100     		.2byte	0x1
 10463 079c 52       		.byte	0x52
 10464 079d 2C040000 		.4byte	.LVL151
 10465 07a1 50040000 		.4byte	.LVL152
 10466 07a5 0300     		.2byte	0x3
 10467 07a7 72       		.byte	0x72
 10468 07a8 7F       		.sleb128 -1
 10469 07a9 9F       		.byte	0x9f
 10470 07aa 50040000 		.4byte	.LVL152
 10471 07ae 68040000 		.4byte	.LVL153
 10472 07b2 0300     		.2byte	0x3
 10473 07b4 72       		.byte	0x72
 10474 07b5 7E       		.sleb128 -2
 10475 07b6 9F       		.byte	0x9f
 10476 07b7 68040000 		.4byte	.LVL153
 10477 07bb 7C040000 		.4byte	.LVL154
 10478 07bf 0300     		.2byte	0x3
 10479 07c1 72       		.byte	0x72
 10480 07c2 7D       		.sleb128 -3
 10481 07c3 9F       		.byte	0x9f
 10482 07c4 7C040000 		.4byte	.LVL154
 10483 07c8 80040000 		.4byte	.LVL155
 10484 07cc 0300     		.2byte	0x3
 10485 07ce 72       		.byte	0x72
 10486 07cf 01       		.sleb128 1
 10487 07d0 9F       		.byte	0x9f
 10488 07d1 84040000 		.4byte	.LVL157
 10489 07d5 8A040000 		.4byte	.LVL158
 10490 07d9 0100     		.2byte	0x1
 10491 07db 52       		.byte	0x52
 10492 07dc 00000000 		.4byte	0
 10493 07e0 00000000 		.4byte	0
 10494              	.LLST55:
 10495 07e4 26040000 		.4byte	.LVL150
 10496 07e8 2C040000 		.4byte	.LVL151
 10497 07ec 0200     		.2byte	0x2
 10498 07ee 30       		.byte	0x30
 10499 07ef 9F       		.byte	0x9f
 10500 07f0 2C040000 		.4byte	.LVL151
 10501 07f4 8E040000 		.4byte	.LVL159
 10502 07f8 0100     		.2byte	0x1
 10503 07fa 53       		.byte	0x53
 10504 07fb 00000000 		.4byte	0
 10505 07ff 00000000 		.4byte	0
 10506              	.LLST56:
 10507 0803 26040000 		.4byte	.LVL150
 10508 0807 2C040000 		.4byte	.LVL151
 10509 080b 0200     		.2byte	0x2
 10510 080d 30       		.byte	0x30
 10511 080e 9F       		.byte	0x9f
 10512 080f 2C040000 		.4byte	.LVL151
 10513 0813 50040000 		.4byte	.LVL152
 10514 0817 0200     		.2byte	0x2
ARM GAS  C:\Users\srich\AppData\Local\Temp\cc7Prgoh.s 			page 186


 10515 0819 31       		.byte	0x31
 10516 081a 9F       		.byte	0x9f
 10517 081b 50040000 		.4byte	.LVL152
 10518 081f 68040000 		.4byte	.LVL153
 10519 0823 0200     		.2byte	0x2
 10520 0825 32       		.byte	0x32
 10521 0826 9F       		.byte	0x9f
 10522 0827 68040000 		.4byte	.LVL153
 10523 082b 80040000 		.4byte	.LVL155
 10524 082f 0200     		.2byte	0x2
 10525 0831 33       		.byte	0x33
 10526 0832 9F       		.byte	0x9f
 10527 0833 80040000 		.4byte	.LVL155
 10528 0837 82040000 		.4byte	.LVL156
 10529 083b 0200     		.2byte	0x2
 10530 083d 34       		.byte	0x34
 10531 083e 9F       		.byte	0x9f
 10532 083f 00000000 		.4byte	0
 10533 0843 00000000 		.4byte	0
 10534              	.LLST57:
 10535 0847 8A030000 		.4byte	.LVL126
 10536 084b 8C030000 		.4byte	.LVL127
 10537 084f 0500     		.2byte	0x5
 10538 0851 72       		.byte	0x72
 10539 0852 00       		.sleb128 0
 10540 0853 32       		.byte	0x32
 10541 0854 25       		.byte	0x25
 10542 0855 9F       		.byte	0x9f
 10543 0856 8C030000 		.4byte	.LVL127
 10544 085a AC030000 		.4byte	.LVL131
 10545 085e 0100     		.2byte	0x1
 10546 0860 57       		.byte	0x57
 10547 0861 00000000 		.4byte	0
 10548 0865 00000000 		.4byte	0
 10549              	.LLST58:
 10550 0869 9E030000 		.4byte	.LVL129
 10551 086d B2030000 		.4byte	.LVL132
 10552 0871 0100     		.2byte	0x1
 10553 0873 53       		.byte	0x53
 10554 0874 B2030000 		.4byte	.LVL132
 10555 0878 C8030000 		.4byte	.LVL134
 10556 087c 0300     		.2byte	0x3
 10557 087e 73       		.byte	0x73
 10558 087f 01       		.sleb128 1
 10559 0880 9F       		.byte	0x9f
 10560 0881 C8030000 		.4byte	.LVL134
 10561 0885 CC030000 		.4byte	.LVL136
 10562 0889 0300     		.2byte	0x3
 10563 088b 73       		.byte	0x73
 10564 088c 02       		.sleb128 2
 10565 088d 9F       		.byte	0x9f
 10566 088e 00000000 		.4byte	0
 10567 0892 00000000 		.4byte	0
 10568              	.LLST59:
 10569 0896 90030000 		.4byte	.LVL128
 10570 089a E0030000 		.4byte	.LVL137
 10571 089e 0800     		.2byte	0x8
ARM GAS  C:\Users\srich\AppData\Local\Temp\cc7Prgoh.s 			page 187


 10572 08a0 70       		.byte	0x70
 10573 08a1 00       		.sleb128 0
 10574 08a2 75       		.byte	0x75
 10575 08a3 00       		.sleb128 0
 10576 08a4 1C       		.byte	0x1c
 10577 08a5 34       		.byte	0x34
 10578 08a6 1B       		.byte	0x1b
 10579 08a7 9F       		.byte	0x9f
 10580 08a8 E0030000 		.4byte	.LVL137
 10581 08ac EE030000 		.4byte	.LVL138
 10582 08b0 0900     		.2byte	0x9
 10583 08b2 70       		.byte	0x70
 10584 08b3 00       		.sleb128 0
 10585 08b4 74       		.byte	0x74
 10586 08b5 18       		.sleb128 24
 10587 08b6 06       		.byte	0x6
 10588 08b7 1C       		.byte	0x1c
 10589 08b8 34       		.byte	0x34
 10590 08b9 1B       		.byte	0x1b
 10591 08ba 9F       		.byte	0x9f
 10592 08bb 22040000 		.4byte	.LVL149
 10593 08bf 26040000 		.4byte	.LVL150
 10594 08c3 0900     		.2byte	0x9
 10595 08c5 70       		.byte	0x70
 10596 08c6 00       		.sleb128 0
 10597 08c7 74       		.byte	0x74
 10598 08c8 18       		.sleb128 24
 10599 08c9 06       		.byte	0x6
 10600 08ca 1C       		.byte	0x1c
 10601 08cb 34       		.byte	0x34
 10602 08cc 1B       		.byte	0x1b
 10603 08cd 9F       		.byte	0x9f
 10604 08ce 00000000 		.4byte	0
 10605 08d2 00000000 		.4byte	0
 10606              	.LLST60:
 10607 08d6 A6030000 		.4byte	.LVL130
 10608 08da B6030000 		.4byte	.LVL133
 10609 08de 0100     		.2byte	0x1
 10610 08e0 55       		.byte	0x55
 10611 08e1 00000000 		.4byte	0
 10612 08e5 00000000 		.4byte	0
 10613              	.LLST61:
 10614 08e9 A6030000 		.4byte	.LVL130
 10615 08ed B2030000 		.4byte	.LVL132
 10616 08f1 0100     		.2byte	0x1
 10617 08f3 53       		.byte	0x53
 10618 08f4 B2030000 		.4byte	.LVL132
 10619 08f8 C8030000 		.4byte	.LVL134
 10620 08fc 0300     		.2byte	0x3
 10621 08fe 73       		.byte	0x73
 10622 08ff 01       		.sleb128 1
 10623 0900 9F       		.byte	0x9f
 10624 0901 C8030000 		.4byte	.LVL134
 10625 0905 CA030000 		.4byte	.LVL135
 10626 0909 0300     		.2byte	0x3
 10627 090b 73       		.byte	0x73
 10628 090c 02       		.sleb128 2
ARM GAS  C:\Users\srich\AppData\Local\Temp\cc7Prgoh.s 			page 188


 10629 090d 9F       		.byte	0x9f
 10630 090e 00000000 		.4byte	0
 10631 0912 00000000 		.4byte	0
 10632              	.LLST62:
 10633 0916 F6030000 		.4byte	.LVL141
 10634 091a 04040000 		.4byte	.LVL144
 10635 091e 0100     		.2byte	0x1
 10636 0920 53       		.byte	0x53
 10637 0921 16040000 		.4byte	.LVL146
 10638 0925 19040000 		.4byte	.LVL147-1
 10639 0929 0100     		.2byte	0x1
 10640 092b 53       		.byte	0x53
 10641 092c 00000000 		.4byte	0
 10642 0930 00000000 		.4byte	0
 10643              	.LLST63:
 10644 0934 02040000 		.4byte	.LVL143
 10645 0938 16040000 		.4byte	.LVL146
 10646 093c 0100     		.2byte	0x1
 10647 093e 54       		.byte	0x54
 10648 093f 00000000 		.4byte	0
 10649 0943 00000000 		.4byte	0
 10650              	.LLST64:
 10651 0947 02040000 		.4byte	.LVL143
 10652 094b 0B040000 		.4byte	.LVL145-1
 10653 094f 0100     		.2byte	0x1
 10654 0951 50       		.byte	0x50
 10655 0952 00000000 		.4byte	0
 10656 0956 00000000 		.4byte	0
 10657              	.LLST65:
 10658 095a 1C030000 		.4byte	.LVL114
 10659 095e 28030000 		.4byte	.LVL115
 10660 0962 0100     		.2byte	0x1
 10661 0964 53       		.byte	0x53
 10662 0965 20040000 		.4byte	.LVL148
 10663 0969 22040000 		.4byte	.LVL149
 10664 096d 0100     		.2byte	0x1
 10665 096f 53       		.byte	0x53
 10666 0970 00000000 		.4byte	0
 10667 0974 00000000 		.4byte	0
 10668              	.LLST66:
 10669 0978 56030000 		.4byte	.LVL121
 10670 097c 74030000 		.4byte	.LVL122
 10671 0980 0100     		.2byte	0x1
 10672 0982 53       		.byte	0x53
 10673 0983 00000000 		.4byte	0
 10674 0987 00000000 		.4byte	0
 10675              	.LLST67:
 10676 098b F6000000 		.4byte	.LVL47
 10677 098f FC000000 		.4byte	.LVL48
 10678 0993 0100     		.2byte	0x1
 10679 0995 53       		.byte	0x53
 10680 0996 78030000 		.4byte	.LVL123
 10681 099a 7A030000 		.4byte	.LVL124
 10682 099e 0100     		.2byte	0x1
 10683 09a0 53       		.byte	0x53
 10684 09a1 00000000 		.4byte	0
 10685 09a5 00000000 		.4byte	0
ARM GAS  C:\Users\srich\AppData\Local\Temp\cc7Prgoh.s 			page 189


 10686              	.LLST68:
 10687 09a9 00000000 		.4byte	.LFB138
 10688 09ad 02000000 		.4byte	.LCFI3
 10689 09b1 0200     		.2byte	0x2
 10690 09b3 7D       		.byte	0x7d
 10691 09b4 00       		.sleb128 0
 10692 09b5 02000000 		.4byte	.LCFI3
 10693 09b9 28000000 		.4byte	.LFE138
 10694 09bd 0200     		.2byte	0x2
 10695 09bf 7D       		.byte	0x7d
 10696 09c0 08       		.sleb128 8
 10697 09c1 00000000 		.4byte	0
 10698 09c5 00000000 		.4byte	0
 10699              	.LLST69:
 10700 09c9 00000000 		.4byte	.LFB139
 10701 09cd 02000000 		.4byte	.LCFI4
 10702 09d1 0200     		.2byte	0x2
 10703 09d3 7D       		.byte	0x7d
 10704 09d4 00       		.sleb128 0
 10705 09d5 02000000 		.4byte	.LCFI4
 10706 09d9 0A000000 		.4byte	.LCFI5
 10707 09dd 0200     		.2byte	0x2
 10708 09df 7D       		.byte	0x7d
 10709 09e0 10       		.sleb128 16
 10710 09e1 0A000000 		.4byte	.LCFI5
 10711 09e5 E0000000 		.4byte	.LFE139
 10712 09e9 0200     		.2byte	0x2
 10713 09eb 7D       		.byte	0x7d
 10714 09ec 18       		.sleb128 24
 10715 09ed 00000000 		.4byte	0
 10716 09f1 00000000 		.4byte	0
 10717              	.LLST70:
 10718 09f5 00000000 		.4byte	.LVL162
 10719 09f9 0E000000 		.4byte	.LVL164
 10720 09fd 0100     		.2byte	0x1
 10721 09ff 50       		.byte	0x50
 10722 0a00 0E000000 		.4byte	.LVL164
 10723 0a04 12000000 		.4byte	.LVL165
 10724 0a08 0100     		.2byte	0x1
 10725 0a0a 56       		.byte	0x56
 10726 0a0b 12000000 		.4byte	.LVL165
 10727 0a0f 14000000 		.4byte	.LVL166
 10728 0a13 0100     		.2byte	0x1
 10729 0a15 50       		.byte	0x50
 10730 0a16 14000000 		.4byte	.LVL166
 10731 0a1a E0000000 		.4byte	.LFE139
 10732 0a1e 0100     		.2byte	0x1
 10733 0a20 56       		.byte	0x56
 10734 0a21 00000000 		.4byte	0
 10735 0a25 00000000 		.4byte	0
 10736              	.LLST71:
 10737 0a29 46000000 		.4byte	.LVL167
 10738 0a2d 9A000000 		.4byte	.LVL172
 10739 0a31 0100     		.2byte	0x1
 10740 0a33 56       		.byte	0x56
 10741 0a34 00000000 		.4byte	0
 10742 0a38 00000000 		.4byte	0
ARM GAS  C:\Users\srich\AppData\Local\Temp\cc7Prgoh.s 			page 190


 10743              	.LLST72:
 10744 0a3c 46000000 		.4byte	.LVL167
 10745 0a40 62000000 		.4byte	.LVL170
 10746 0a44 0100     		.2byte	0x1
 10747 0a46 54       		.byte	0x54
 10748 0a47 00000000 		.4byte	0
 10749 0a4b 00000000 		.4byte	0
 10750              	.LLST73:
 10751 0a4f 00000000 		.4byte	.LFB140
 10752 0a53 02000000 		.4byte	.LCFI6
 10753 0a57 0200     		.2byte	0x2
 10754 0a59 7D       		.byte	0x7d
 10755 0a5a 00       		.sleb128 0
 10756 0a5b 02000000 		.4byte	.LCFI6
 10757 0a5f 1E000000 		.4byte	.LFE140
 10758 0a63 0200     		.2byte	0x2
 10759 0a65 7D       		.byte	0x7d
 10760 0a66 10       		.sleb128 16
 10761 0a67 00000000 		.4byte	0
 10762 0a6b 00000000 		.4byte	0
 10763              	.LLST74:
 10764 0a6f 00000000 		.4byte	.LVL175
 10765 0a73 0F000000 		.4byte	.LVL177-1
 10766 0a77 0100     		.2byte	0x1
 10767 0a79 50       		.byte	0x50
 10768 0a7a 0F000000 		.4byte	.LVL177-1
 10769 0a7e 1E000000 		.4byte	.LFE140
 10770 0a82 0100     		.2byte	0x1
 10771 0a84 54       		.byte	0x54
 10772 0a85 00000000 		.4byte	0
 10773 0a89 00000000 		.4byte	0
 10774              	.LLST75:
 10775 0a8d 00000000 		.4byte	.LFB141
 10776 0a91 04000000 		.4byte	.LCFI7
 10777 0a95 0200     		.2byte	0x2
 10778 0a97 7D       		.byte	0x7d
 10779 0a98 00       		.sleb128 0
 10780 0a99 04000000 		.4byte	.LCFI7
 10781 0a9d 2C010000 		.4byte	.LFE141
 10782 0aa1 0200     		.2byte	0x2
 10783 0aa3 7D       		.byte	0x7d
 10784 0aa4 28       		.sleb128 40
 10785 0aa5 00000000 		.4byte	0
 10786 0aa9 00000000 		.4byte	0
 10787              	.LLST76:
 10788 0aad 00000000 		.4byte	.LVL178
 10789 0ab1 0D000000 		.4byte	.LVL180-1
 10790 0ab5 0100     		.2byte	0x1
 10791 0ab7 50       		.byte	0x50
 10792 0ab8 0D000000 		.4byte	.LVL180-1
 10793 0abc 2C010000 		.4byte	.LFE141
 10794 0ac0 0100     		.2byte	0x1
 10795 0ac2 58       		.byte	0x58
 10796 0ac3 00000000 		.4byte	0
 10797 0ac7 00000000 		.4byte	0
 10798              	.LLST77:
 10799 0acb C0000000 		.4byte	.LVL182
ARM GAS  C:\Users\srich\AppData\Local\Temp\cc7Prgoh.s 			page 191


 10800 0acf CF000000 		.4byte	.LVL183-1
 10801 0ad3 0100     		.2byte	0x1
 10802 0ad5 52       		.byte	0x52
 10803 0ad6 00000000 		.4byte	0
 10804 0ada 00000000 		.4byte	0
 10805              	.LLST78:
 10806 0ade 00000000 		.4byte	.LVL185
 10807 0ae2 0E000000 		.4byte	.LVL187
 10808 0ae6 0100     		.2byte	0x1
 10809 0ae8 50       		.byte	0x50
 10810 0ae9 0E000000 		.4byte	.LVL187
 10811 0aed 18000000 		.4byte	.LFE142
 10812 0af1 0400     		.2byte	0x4
 10813 0af3 F3       		.byte	0xf3
 10814 0af4 01       		.uleb128 0x1
 10815 0af5 50       		.byte	0x50
 10816 0af6 9F       		.byte	0x9f
 10817 0af7 00000000 		.4byte	0
 10818 0afb 00000000 		.4byte	0
 10819              	.LLST79:
 10820 0aff 00000000 		.4byte	.LFB143
 10821 0b03 04000000 		.4byte	.LCFI8
 10822 0b07 0200     		.2byte	0x2
 10823 0b09 7D       		.byte	0x7d
 10824 0b0a 00       		.sleb128 0
 10825 0b0b 04000000 		.4byte	.LCFI8
 10826 0b0f 3A010000 		.4byte	.LFE143
 10827 0b13 0200     		.2byte	0x2
 10828 0b15 7D       		.byte	0x7d
 10829 0b16 18       		.sleb128 24
 10830 0b17 00000000 		.4byte	0
 10831 0b1b 00000000 		.4byte	0
 10832              	.LLST80:
 10833 0b1f 00000000 		.4byte	.LVL188
 10834 0b23 16000000 		.4byte	.LVL190
 10835 0b27 0100     		.2byte	0x1
 10836 0b29 50       		.byte	0x50
 10837 0b2a 16000000 		.4byte	.LVL190
 10838 0b2e 9A000000 		.4byte	.LVL197
 10839 0b32 0100     		.2byte	0x1
 10840 0b34 56       		.byte	0x56
 10841 0b35 9A000000 		.4byte	.LVL197
 10842 0b39 A1000000 		.4byte	.LVL198-1
 10843 0b3d 0100     		.2byte	0x1
 10844 0b3f 50       		.byte	0x50
 10845 0b40 A1000000 		.4byte	.LVL198-1
 10846 0b44 CA000000 		.4byte	.LVL199
 10847 0b48 0400     		.2byte	0x4
 10848 0b4a F3       		.byte	0xf3
 10849 0b4b 01       		.uleb128 0x1
 10850 0b4c 50       		.byte	0x50
 10851 0b4d 9F       		.byte	0x9f
 10852 0b4e CA000000 		.4byte	.LVL199
 10853 0b52 3A010000 		.4byte	.LFE143
 10854 0b56 0100     		.2byte	0x1
 10855 0b58 56       		.byte	0x56
 10856 0b59 00000000 		.4byte	0
ARM GAS  C:\Users\srich\AppData\Local\Temp\cc7Prgoh.s 			page 192


 10857 0b5d 00000000 		.4byte	0
 10858              	.LLST81:
 10859 0b61 00000000 		.4byte	.LVL188
 10860 0b65 26000000 		.4byte	.LVL191
 10861 0b69 0100     		.2byte	0x1
 10862 0b6b 51       		.byte	0x51
 10863 0b6c 26000000 		.4byte	.LVL191
 10864 0b70 CA000000 		.4byte	.LVL199
 10865 0b74 0400     		.2byte	0x4
 10866 0b76 F3       		.byte	0xf3
 10867 0b77 01       		.uleb128 0x1
 10868 0b78 51       		.byte	0x51
 10869 0b79 9F       		.byte	0x9f
 10870 0b7a CA000000 		.4byte	.LVL199
 10871 0b7e D6000000 		.4byte	.LVL203
 10872 0b82 0100     		.2byte	0x1
 10873 0b84 51       		.byte	0x51
 10874 0b85 D6000000 		.4byte	.LVL203
 10875 0b89 3A010000 		.4byte	.LFE143
 10876 0b8d 0400     		.2byte	0x4
 10877 0b8f F3       		.byte	0xf3
 10878 0b90 01       		.uleb128 0x1
 10879 0b91 51       		.byte	0x51
 10880 0b92 9F       		.byte	0x9f
 10881 0b93 00000000 		.4byte	0
 10882 0b97 00000000 		.4byte	0
 10883              	.LLST82:
 10884 0b9b 34000000 		.4byte	.LVL192
 10885 0b9f CA000000 		.4byte	.LVL199
 10886 0ba3 0100     		.2byte	0x1
 10887 0ba5 58       		.byte	0x58
 10888 0ba6 CA000000 		.4byte	.LVL199
 10889 0baa CE000000 		.4byte	.LVL200
 10890 0bae 0600     		.2byte	0x6
 10891 0bb0 0C       		.byte	0xc
 10892 0bb1 00800810 		.4byte	0x10088000
 10893 0bb5 9F       		.byte	0x9f
 10894 0bb6 D0000000 		.4byte	.LVL201
 10895 0bba D4000000 		.4byte	.LVL202
 10896 0bbe 0600     		.2byte	0x6
 10897 0bc0 0C       		.byte	0xc
 10898 0bc1 00800C10 		.4byte	0x100c8000
 10899 0bc5 9F       		.byte	0x9f
 10900 0bc6 D6000000 		.4byte	.LVL203
 10901 0bca 3A010000 		.4byte	.LFE143
 10902 0bce 0100     		.2byte	0x1
 10903 0bd0 58       		.byte	0x58
 10904 0bd1 00000000 		.4byte	0
 10905 0bd5 00000000 		.4byte	0
 10906              	.LLST83:
 10907 0bd9 7C000000 		.4byte	.LVL193
 10908 0bdd 94000000 		.4byte	.LVL196
 10909 0be1 0100     		.2byte	0x1
 10910 0be3 53       		.byte	0x53
 10911 0be4 00000000 		.4byte	0
 10912 0be8 00000000 		.4byte	0
 10913              	.LLST84:
ARM GAS  C:\Users\srich\AppData\Local\Temp\cc7Prgoh.s 			page 193


 10914 0bec 82000000 		.4byte	.LVL194
 10915 0bf0 94000000 		.4byte	.LVL196
 10916 0bf4 0100     		.2byte	0x1
 10917 0bf6 53       		.byte	0x53
 10918 0bf7 00000000 		.4byte	0
 10919 0bfb 00000000 		.4byte	0
 10920              	.LLST85:
 10921 0bff 82000000 		.4byte	.LVL194
 10922 0c03 9A000000 		.4byte	.LVL197
 10923 0c07 0100     		.2byte	0x1
 10924 0c09 56       		.byte	0x56
 10925 0c0a 9A000000 		.4byte	.LVL197
 10926 0c0e A1000000 		.4byte	.LVL198-1
 10927 0c12 0100     		.2byte	0x1
 10928 0c14 50       		.byte	0x50
 10929 0c15 A1000000 		.4byte	.LVL198-1
 10930 0c19 CA000000 		.4byte	.LVL199
 10931 0c1d 0400     		.2byte	0x4
 10932 0c1f F3       		.byte	0xf3
 10933 0c20 01       		.uleb128 0x1
 10934 0c21 50       		.byte	0x50
 10935 0c22 9F       		.byte	0x9f
 10936 0c23 00000000 		.4byte	0
 10937 0c27 00000000 		.4byte	0
 10938              	.LLST86:
 10939 0c2b 84000000 		.4byte	.LVL195
 10940 0c2f A1000000 		.4byte	.LVL198-1
 10941 0c33 0100     		.2byte	0x1
 10942 0c35 52       		.byte	0x52
 10943 0c36 00000000 		.4byte	0
 10944 0c3a 00000000 		.4byte	0
 10945              	.LLST87:
 10946 0c3e 00000000 		.4byte	.LVL205
 10947 0c42 09000000 		.4byte	.LVL206-1
 10948 0c46 0100     		.2byte	0x1
 10949 0c48 50       		.byte	0x50
 10950 0c49 09000000 		.4byte	.LVL206-1
 10951 0c4d 0A000000 		.4byte	.LFE144
 10952 0c51 0400     		.2byte	0x4
 10953 0c53 F3       		.byte	0xf3
 10954 0c54 01       		.uleb128 0x1
 10955 0c55 50       		.byte	0x50
 10956 0c56 9F       		.byte	0x9f
 10957 0c57 00000000 		.4byte	0
 10958 0c5b 00000000 		.4byte	0
 10959              	.LLST89:
 10960 0c5f 00000000 		.4byte	.LVL207
 10961 0c63 0C000000 		.4byte	.LVL210
 10962 0c67 0100     		.2byte	0x1
 10963 0c69 50       		.byte	0x50
 10964 0c6a 0C000000 		.4byte	.LVL210
 10965 0c6e 1A000000 		.4byte	.LFE145
 10966 0c72 0400     		.2byte	0x4
 10967 0c74 F3       		.byte	0xf3
 10968 0c75 01       		.uleb128 0x1
 10969 0c76 50       		.byte	0x50
 10970 0c77 9F       		.byte	0x9f
ARM GAS  C:\Users\srich\AppData\Local\Temp\cc7Prgoh.s 			page 194


 10971 0c78 00000000 		.4byte	0
 10972 0c7c 00000000 		.4byte	0
 10973              	.LLST90:
 10974 0c80 00000000 		.4byte	.LVL207
 10975 0c84 02000000 		.4byte	.LVL208
 10976 0c88 0100     		.2byte	0x1
 10977 0c8a 51       		.byte	0x51
 10978 0c8b 02000000 		.4byte	.LVL208
 10979 0c8f 1A000000 		.4byte	.LFE145
 10980 0c93 0400     		.2byte	0x4
 10981 0c95 F3       		.byte	0xf3
 10982 0c96 01       		.uleb128 0x1
 10983 0c97 51       		.byte	0x51
 10984 0c98 9F       		.byte	0x9f
 10985 0c99 00000000 		.4byte	0
 10986 0c9d 00000000 		.4byte	0
 10987              	.LLST91:
 10988 0ca1 00000000 		.4byte	.LVL211
 10989 0ca5 0C000000 		.4byte	.LVL214
 10990 0ca9 0100     		.2byte	0x1
 10991 0cab 50       		.byte	0x50
 10992 0cac 0C000000 		.4byte	.LVL214
 10993 0cb0 1A000000 		.4byte	.LFE146
 10994 0cb4 0400     		.2byte	0x4
 10995 0cb6 F3       		.byte	0xf3
 10996 0cb7 01       		.uleb128 0x1
 10997 0cb8 50       		.byte	0x50
 10998 0cb9 9F       		.byte	0x9f
 10999 0cba 00000000 		.4byte	0
 11000 0cbe 00000000 		.4byte	0
 11001              	.LLST92:
 11002 0cc2 00000000 		.4byte	.LVL211
 11003 0cc6 02000000 		.4byte	.LVL212
 11004 0cca 0100     		.2byte	0x1
 11005 0ccc 51       		.byte	0x51
 11006 0ccd 02000000 		.4byte	.LVL212
 11007 0cd1 1A000000 		.4byte	.LFE146
 11008 0cd5 0400     		.2byte	0x4
 11009 0cd7 F3       		.byte	0xf3
 11010 0cd8 01       		.uleb128 0x1
 11011 0cd9 51       		.byte	0x51
 11012 0cda 9F       		.byte	0x9f
 11013 0cdb 00000000 		.4byte	0
 11014 0cdf 00000000 		.4byte	0
 11015              	.LLST93:
 11016 0ce3 00000000 		.4byte	.LVL215
 11017 0ce7 08000000 		.4byte	.LVL217
 11018 0ceb 0100     		.2byte	0x1
 11019 0ced 50       		.byte	0x50
 11020 0cee 08000000 		.4byte	.LVL217
 11021 0cf2 12000000 		.4byte	.LFE147
 11022 0cf6 0400     		.2byte	0x4
 11023 0cf8 F3       		.byte	0xf3
 11024 0cf9 01       		.uleb128 0x1
 11025 0cfa 50       		.byte	0x50
 11026 0cfb 9F       		.byte	0x9f
 11027 0cfc 00000000 		.4byte	0
ARM GAS  C:\Users\srich\AppData\Local\Temp\cc7Prgoh.s 			page 195


 11028 0d00 00000000 		.4byte	0
 11029              	.LLST94:
 11030 0d04 00000000 		.4byte	.LVL215
 11031 0d08 04000000 		.4byte	.LVL216
 11032 0d0c 0100     		.2byte	0x1
 11033 0d0e 51       		.byte	0x51
 11034 0d0f 04000000 		.4byte	.LVL216
 11035 0d13 12000000 		.4byte	.LFE147
 11036 0d17 0400     		.2byte	0x4
 11037 0d19 F3       		.byte	0xf3
 11038 0d1a 01       		.uleb128 0x1
 11039 0d1b 51       		.byte	0x51
 11040 0d1c 9F       		.byte	0x9f
 11041 0d1d 00000000 		.4byte	0
 11042 0d21 00000000 		.4byte	0
 11043              	.LLST95:
 11044 0d25 00000000 		.4byte	.LFB148
 11045 0d29 06000000 		.4byte	.LCFI9
 11046 0d2d 0200     		.2byte	0x2
 11047 0d2f 7D       		.byte	0x7d
 11048 0d30 00       		.sleb128 0
 11049 0d31 06000000 		.4byte	.LCFI9
 11050 0d35 40000000 		.4byte	.LFE148
 11051 0d39 0200     		.2byte	0x2
 11052 0d3b 7D       		.byte	0x7d
 11053 0d3c 08       		.sleb128 8
 11054 0d3d 00000000 		.4byte	0
 11055 0d41 00000000 		.4byte	0
 11056              	.LLST96:
 11057 0d45 00000000 		.4byte	.LVL218
 11058 0d49 2A000000 		.4byte	.LVL221
 11059 0d4d 0100     		.2byte	0x1
 11060 0d4f 50       		.byte	0x50
 11061 0d50 2A000000 		.4byte	.LVL221
 11062 0d54 40000000 		.4byte	.LFE148
 11063 0d58 0400     		.2byte	0x4
 11064 0d5a F3       		.byte	0xf3
 11065 0d5b 01       		.uleb128 0x1
 11066 0d5c 50       		.byte	0x50
 11067 0d5d 9F       		.byte	0x9f
 11068 0d5e 00000000 		.4byte	0
 11069 0d62 00000000 		.4byte	0
 11070              	.LLST97:
 11071 0d66 00000000 		.4byte	.LVL218
 11072 0d6a 34000000 		.4byte	.LVL224
 11073 0d6e 0100     		.2byte	0x1
 11074 0d70 51       		.byte	0x51
 11075 0d71 34000000 		.4byte	.LVL224
 11076 0d75 40000000 		.4byte	.LFE148
 11077 0d79 0400     		.2byte	0x4
 11078 0d7b F3       		.byte	0xf3
 11079 0d7c 01       		.uleb128 0x1
 11080 0d7d 51       		.byte	0x51
 11081 0d7e 9F       		.byte	0x9f
 11082 0d7f 00000000 		.4byte	0
 11083 0d83 00000000 		.4byte	0
 11084              	.LLST98:
ARM GAS  C:\Users\srich\AppData\Local\Temp\cc7Prgoh.s 			page 196


 11085 0d87 28000000 		.4byte	.LVL220
 11086 0d8b 30000000 		.4byte	.LVL223
 11087 0d8f 0F00     		.2byte	0xf
 11088 0d91 75       		.byte	0x75
 11089 0d92 00       		.sleb128 0
 11090 0d93 72       		.byte	0x72
 11091 0d94 00       		.sleb128 0
 11092 0d95 22       		.byte	0x22
 11093 0d96 F7       		.byte	0xf7
 11094 0d97 25       		.uleb128 0x25
 11095 0d98 72       		.byte	0x72
 11096 0d99 00       		.sleb128 0
 11097 0d9a F7       		.byte	0xf7
 11098 0d9b 25       		.uleb128 0x25
 11099 0d9c 1B       		.byte	0x1b
 11100 0d9d F7       		.byte	0xf7
 11101 0d9e 00       		.uleb128 0
 11102 0d9f 9F       		.byte	0x9f
 11103 0da0 30000000 		.4byte	.LVL223
 11104 0da4 40000000 		.4byte	.LFE148
 11105 0da8 0100     		.2byte	0x1
 11106 0daa 52       		.byte	0x52
 11107 0dab 00000000 		.4byte	0
 11108 0daf 00000000 		.4byte	0
 11109              	.LLST99:
 11110 0db3 0A000000 		.4byte	.LVL219
 11111 0db7 28000000 		.4byte	.LVL220
 11112 0dbb 0100     		.2byte	0x1
 11113 0dbd 52       		.byte	0x52
 11114 0dbe 28000000 		.4byte	.LVL220
 11115 0dc2 2C000000 		.4byte	.LVL222
 11116 0dc6 0200     		.2byte	0x2
 11117 0dc8 74       		.byte	0x74
 11118 0dc9 18       		.sleb128 24
 11119 0dca 2C000000 		.4byte	.LVL222
 11120 0dce 34000000 		.4byte	.LVL224
 11121 0dd2 0D00     		.2byte	0xd
 11122 0dd4 71       		.byte	0x71
 11123 0dd5 00       		.sleb128 0
 11124 0dd6 32       		.byte	0x32
 11125 0dd7 24       		.byte	0x24
 11126 0dd8 F3       		.byte	0xf3
 11127 0dd9 01       		.uleb128 0x1
 11128 0dda 50       		.byte	0x50
 11129 0ddb 22       		.byte	0x22
 11130 0ddc 23       		.byte	0x23
 11131 0ddd 0C       		.uleb128 0xc
 11132 0dde 06       		.byte	0x6
 11133 0ddf 23       		.byte	0x23
 11134 0de0 18       		.uleb128 0x18
 11135 0de1 00000000 		.4byte	0
 11136 0de5 00000000 		.4byte	0
 11137              	.LLST100:
 11138 0de9 00000000 		.4byte	.LFB134
 11139 0ded 02000000 		.4byte	.LCFI10
 11140 0df1 0200     		.2byte	0x2
 11141 0df3 7D       		.byte	0x7d
ARM GAS  C:\Users\srich\AppData\Local\Temp\cc7Prgoh.s 			page 197


 11142 0df4 00       		.sleb128 0
 11143 0df5 02000000 		.4byte	.LCFI10
 11144 0df9 8C000000 		.4byte	.LFE134
 11145 0dfd 0200     		.2byte	0x2
 11146 0dff 7D       		.byte	0x7d
 11147 0e00 18       		.sleb128 24
 11148 0e01 00000000 		.4byte	0
 11149 0e05 00000000 		.4byte	0
 11150              	.LLST101:
 11151 0e09 00000000 		.4byte	.LVL225
 11152 0e0d 20000000 		.4byte	.LVL228
 11153 0e11 0100     		.2byte	0x1
 11154 0e13 50       		.byte	0x50
 11155 0e14 20000000 		.4byte	.LVL228
 11156 0e18 54000000 		.4byte	.LVL232
 11157 0e1c 0100     		.2byte	0x1
 11158 0e1e 55       		.byte	0x55
 11159 0e1f 54000000 		.4byte	.LVL232
 11160 0e23 5D000000 		.4byte	.LVL233-1
 11161 0e27 0100     		.2byte	0x1
 11162 0e29 50       		.byte	0x50
 11163 0e2a 5D000000 		.4byte	.LVL233-1
 11164 0e2e 8C000000 		.4byte	.LFE134
 11165 0e32 0100     		.2byte	0x1
 11166 0e34 55       		.byte	0x55
 11167 0e35 00000000 		.4byte	0
 11168 0e39 00000000 		.4byte	0
 11169              	.LLST102:
 11170 0e3d 00000000 		.4byte	.LVL225
 11171 0e41 20000000 		.4byte	.LVL228
 11172 0e45 0100     		.2byte	0x1
 11173 0e47 51       		.byte	0x51
 11174 0e48 20000000 		.4byte	.LVL228
 11175 0e4c 54000000 		.4byte	.LVL232
 11176 0e50 0400     		.2byte	0x4
 11177 0e52 F3       		.byte	0xf3
 11178 0e53 01       		.uleb128 0x1
 11179 0e54 51       		.byte	0x51
 11180 0e55 9F       		.byte	0x9f
 11181 0e56 54000000 		.4byte	.LVL232
 11182 0e5a 5D000000 		.4byte	.LVL233-1
 11183 0e5e 0100     		.2byte	0x1
 11184 0e60 51       		.byte	0x51
 11185 0e61 5D000000 		.4byte	.LVL233-1
 11186 0e65 8C000000 		.4byte	.LFE134
 11187 0e69 0400     		.2byte	0x4
 11188 0e6b F3       		.byte	0xf3
 11189 0e6c 01       		.uleb128 0x1
 11190 0e6d 51       		.byte	0x51
 11191 0e6e 9F       		.byte	0x9f
 11192 0e6f 00000000 		.4byte	0
 11193 0e73 00000000 		.4byte	0
 11194              	.LLST103:
 11195 0e77 0E000000 		.4byte	.LVL227
 11196 0e7b 64000000 		.4byte	.LVL235
 11197 0e7f 0100     		.2byte	0x1
 11198 0e81 54       		.byte	0x54
ARM GAS  C:\Users\srich\AppData\Local\Temp\cc7Prgoh.s 			page 198


 11199 0e82 00000000 		.4byte	0
 11200 0e86 00000000 		.4byte	0
 11201              	.LLST104:
 11202 0e8a 34000000 		.4byte	.LVL229
 11203 0e8e 42000000 		.4byte	.LVL230
 11204 0e92 0100     		.2byte	0x1
 11205 0e94 52       		.byte	0x52
 11206 0e95 42000000 		.4byte	.LVL230
 11207 0e99 51000000 		.4byte	.LVL231-1
 11208 0e9d 0C00     		.2byte	0xc
 11209 0e9f 76       		.byte	0x76
 11210 0ea0 00       		.sleb128 0
 11211 0ea1 32       		.byte	0x32
 11212 0ea2 24       		.byte	0x24
 11213 0ea3 75       		.byte	0x75
 11214 0ea4 00       		.sleb128 0
 11215 0ea5 22       		.byte	0x22
 11216 0ea6 23       		.byte	0x23
 11217 0ea7 0C       		.uleb128 0xc
 11218 0ea8 06       		.byte	0x6
 11219 0ea9 23       		.byte	0x23
 11220 0eaa 18       		.uleb128 0x18
 11221 0eab 60000000 		.4byte	.LVL234
 11222 0eaf 6F000000 		.4byte	.LVL236-1
 11223 0eb3 0100     		.2byte	0x1
 11224 0eb5 52       		.byte	0x52
 11225 0eb6 00000000 		.4byte	0
 11226 0eba 00000000 		.4byte	0
 11227              	.LLST105:
 11228 0ebe 76000000 		.4byte	.LVL238
 11229 0ec2 7E000000 		.4byte	.LVL241
 11230 0ec6 0100     		.2byte	0x1
 11231 0ec8 53       		.byte	0x53
 11232 0ec9 00000000 		.4byte	0
 11233 0ecd 00000000 		.4byte	0
 11234              	.LLST106:
 11235 0ed1 76000000 		.4byte	.LVL238
 11236 0ed5 78000000 		.4byte	.LVL239
 11237 0ed9 0100     		.2byte	0x1
 11238 0edb 56       		.byte	0x56
 11239 0edc 78000000 		.4byte	.LVL239
 11240 0ee0 7C000000 		.4byte	.LVL240
 11241 0ee4 0400     		.2byte	0x4
 11242 0ee6 76       		.byte	0x76
 11243 0ee7 A87F     		.sleb128 -88
 11244 0ee9 9F       		.byte	0x9f
 11245 0eea 00000000 		.4byte	0
 11246 0eee 00000000 		.4byte	0
 11247              	.LLST107:
 11248 0ef2 8A000000 		.4byte	.LVL242
 11249 0ef6 8C000000 		.4byte	.LFE134
 11250 0efa 0100     		.2byte	0x1
 11251 0efc 53       		.byte	0x53
 11252 0efd 00000000 		.4byte	0
 11253 0f01 00000000 		.4byte	0
 11254              	.LLST108:
 11255 0f05 00000000 		.4byte	.LFB149
ARM GAS  C:\Users\srich\AppData\Local\Temp\cc7Prgoh.s 			page 199


 11256 0f09 06000000 		.4byte	.LCFI11
 11257 0f0d 0200     		.2byte	0x2
 11258 0f0f 7D       		.byte	0x7d
 11259 0f10 00       		.sleb128 0
 11260 0f11 06000000 		.4byte	.LCFI11
 11261 0f15 4A000000 		.4byte	.LFE149
 11262 0f19 0200     		.2byte	0x2
 11263 0f1b 7D       		.byte	0x7d
 11264 0f1c 08       		.sleb128 8
 11265 0f1d 00000000 		.4byte	0
 11266 0f21 00000000 		.4byte	0
 11267              	.LLST109:
 11268 0f25 00000000 		.4byte	.LVL243
 11269 0f29 18000000 		.4byte	.LVL246
 11270 0f2d 0100     		.2byte	0x1
 11271 0f2f 50       		.byte	0x50
 11272 0f30 18000000 		.4byte	.LVL246
 11273 0f34 2E000000 		.4byte	.LVL251
 11274 0f38 0400     		.2byte	0x4
 11275 0f3a F3       		.byte	0xf3
 11276 0f3b 01       		.uleb128 0x1
 11277 0f3c 50       		.byte	0x50
 11278 0f3d 9F       		.byte	0x9f
 11279 0f3e 2E000000 		.4byte	.LVL251
 11280 0f42 3C000000 		.4byte	.LVL252
 11281 0f46 0100     		.2byte	0x1
 11282 0f48 50       		.byte	0x50
 11283 0f49 3C000000 		.4byte	.LVL252
 11284 0f4d 4A000000 		.4byte	.LFE149
 11285 0f51 0400     		.2byte	0x4
 11286 0f53 F3       		.byte	0xf3
 11287 0f54 01       		.uleb128 0x1
 11288 0f55 50       		.byte	0x50
 11289 0f56 9F       		.byte	0x9f
 11290 0f57 00000000 		.4byte	0
 11291 0f5b 00000000 		.4byte	0
 11292              	.LLST110:
 11293 0f5f 00000000 		.4byte	.LVL243
 11294 0f63 22000000 		.4byte	.LVL249
 11295 0f67 0100     		.2byte	0x1
 11296 0f69 51       		.byte	0x51
 11297 0f6a 22000000 		.4byte	.LVL249
 11298 0f6e 2E000000 		.4byte	.LVL251
 11299 0f72 0400     		.2byte	0x4
 11300 0f74 F3       		.byte	0xf3
 11301 0f75 01       		.uleb128 0x1
 11302 0f76 51       		.byte	0x51
 11303 0f77 9F       		.byte	0x9f
 11304 0f78 2E000000 		.4byte	.LVL251
 11305 0f7c 44000000 		.4byte	.LVL254
 11306 0f80 0100     		.2byte	0x1
 11307 0f82 51       		.byte	0x51
 11308 0f83 44000000 		.4byte	.LVL254
 11309 0f87 4A000000 		.4byte	.LFE149
 11310 0f8b 0400     		.2byte	0x4
 11311 0f8d F3       		.byte	0xf3
 11312 0f8e 01       		.uleb128 0x1
ARM GAS  C:\Users\srich\AppData\Local\Temp\cc7Prgoh.s 			page 200


 11313 0f8f 51       		.byte	0x51
 11314 0f90 9F       		.byte	0x9f
 11315 0f91 00000000 		.4byte	0
 11316 0f95 00000000 		.4byte	0
 11317              	.LLST111:
 11318 0f99 0A000000 		.4byte	.LVL244
 11319 0f9d 16000000 		.4byte	.LVL245
 11320 0fa1 0100     		.2byte	0x1
 11321 0fa3 52       		.byte	0x52
 11322 0fa4 16000000 		.4byte	.LVL245
 11323 0fa8 1A000000 		.4byte	.LVL247
 11324 0fac 0200     		.2byte	0x2
 11325 0fae 74       		.byte	0x74
 11326 0faf 14       		.sleb128 20
 11327 0fb0 1A000000 		.4byte	.LVL247
 11328 0fb4 22000000 		.4byte	.LVL249
 11329 0fb8 0D00     		.2byte	0xd
 11330 0fba 71       		.byte	0x71
 11331 0fbb 00       		.sleb128 0
 11332 0fbc 32       		.byte	0x32
 11333 0fbd 24       		.byte	0x24
 11334 0fbe F3       		.byte	0xf3
 11335 0fbf 01       		.uleb128 0x1
 11336 0fc0 50       		.byte	0x50
 11337 0fc1 22       		.byte	0x22
 11338 0fc2 23       		.byte	0x23
 11339 0fc3 0C       		.uleb128 0xc
 11340 0fc4 06       		.byte	0x6
 11341 0fc5 23       		.byte	0x23
 11342 0fc6 14       		.uleb128 0x14
 11343 0fc7 2E000000 		.4byte	.LVL251
 11344 0fcb 40000000 		.4byte	.LVL253
 11345 0fcf 0100     		.2byte	0x1
 11346 0fd1 52       		.byte	0x52
 11347 0fd2 40000000 		.4byte	.LVL253
 11348 0fd6 4A000000 		.4byte	.LFE149
 11349 0fda 0200     		.2byte	0x2
 11350 0fdc 74       		.byte	0x74
 11351 0fdd 14       		.sleb128 20
 11352 0fde 00000000 		.4byte	0
 11353 0fe2 00000000 		.4byte	0
 11354              	.LLST112:
 11355 0fe6 16000000 		.4byte	.LVL245
 11356 0fea 1E000000 		.4byte	.LVL248
 11357 0fee 0F00     		.2byte	0xf
 11358 0ff0 75       		.byte	0x75
 11359 0ff1 00       		.sleb128 0
 11360 0ff2 72       		.byte	0x72
 11361 0ff3 00       		.sleb128 0
 11362 0ff4 22       		.byte	0x22
 11363 0ff5 F7       		.byte	0xf7
 11364 0ff6 25       		.uleb128 0x25
 11365 0ff7 72       		.byte	0x72
 11366 0ff8 00       		.sleb128 0
 11367 0ff9 F7       		.byte	0xf7
 11368 0ffa 25       		.uleb128 0x25
 11369 0ffb 1B       		.byte	0x1b
ARM GAS  C:\Users\srich\AppData\Local\Temp\cc7Prgoh.s 			page 201


 11370 0ffc F7       		.byte	0xf7
 11371 0ffd 00       		.uleb128 0
 11372 0ffe 9F       		.byte	0x9f
 11373 0fff 1E000000 		.4byte	.LVL248
 11374 1003 2A000000 		.4byte	.LVL250
 11375 1007 0100     		.2byte	0x1
 11376 1009 52       		.byte	0x52
 11377 100a 00000000 		.4byte	0
 11378 100e 00000000 		.4byte	0
 11379              	.LLST113:
 11380 1012 00000000 		.4byte	.LFB133
 11381 1016 04000000 		.4byte	.LCFI12
 11382 101a 0200     		.2byte	0x2
 11383 101c 7D       		.byte	0x7d
 11384 101d 00       		.sleb128 0
 11385 101e 04000000 		.4byte	.LCFI12
 11386 1022 D0000000 		.4byte	.LFE133
 11387 1026 0200     		.2byte	0x2
 11388 1028 7D       		.byte	0x7d
 11389 1029 18       		.sleb128 24
 11390 102a 00000000 		.4byte	0
 11391 102e 00000000 		.4byte	0
 11392              	.LLST114:
 11393 1032 00000000 		.4byte	.LVL255
 11394 1036 22000000 		.4byte	.LVL258
 11395 103a 0100     		.2byte	0x1
 11396 103c 50       		.byte	0x50
 11397 103d 22000000 		.4byte	.LVL258
 11398 1041 38000000 		.4byte	.LVL260
 11399 1045 0100     		.2byte	0x1
 11400 1047 56       		.byte	0x56
 11401 1048 38000000 		.4byte	.LVL260
 11402 104c 5D000000 		.4byte	.LVL262-1
 11403 1050 0100     		.2byte	0x1
 11404 1052 50       		.byte	0x50
 11405 1053 5D000000 		.4byte	.LVL262-1
 11406 1057 BA000000 		.4byte	.LVL275
 11407 105b 0100     		.2byte	0x1
 11408 105d 56       		.byte	0x56
 11409 105e BA000000 		.4byte	.LVL275
 11410 1062 CD000000 		.4byte	.LVL277-1
 11411 1066 0100     		.2byte	0x1
 11412 1068 50       		.byte	0x50
 11413 1069 CD000000 		.4byte	.LVL277-1
 11414 106d D0000000 		.4byte	.LFE133
 11415 1071 0100     		.2byte	0x1
 11416 1073 56       		.byte	0x56
 11417 1074 00000000 		.4byte	0
 11418 1078 00000000 		.4byte	0
 11419              	.LLST115:
 11420 107c 00000000 		.4byte	.LVL255
 11421 1080 22000000 		.4byte	.LVL258
 11422 1084 0100     		.2byte	0x1
 11423 1086 51       		.byte	0x51
 11424 1087 22000000 		.4byte	.LVL258
 11425 108b 38000000 		.4byte	.LVL260
 11426 108f 0400     		.2byte	0x4
ARM GAS  C:\Users\srich\AppData\Local\Temp\cc7Prgoh.s 			page 202


 11427 1091 F3       		.byte	0xf3
 11428 1092 01       		.uleb128 0x1
 11429 1093 51       		.byte	0x51
 11430 1094 9F       		.byte	0x9f
 11431 1095 38000000 		.4byte	.LVL260
 11432 1099 5D000000 		.4byte	.LVL262-1
 11433 109d 0100     		.2byte	0x1
 11434 109f 51       		.byte	0x51
 11435 10a0 5D000000 		.4byte	.LVL262-1
 11436 10a4 BA000000 		.4byte	.LVL275
 11437 10a8 0400     		.2byte	0x4
 11438 10aa F3       		.byte	0xf3
 11439 10ab 01       		.uleb128 0x1
 11440 10ac 51       		.byte	0x51
 11441 10ad 9F       		.byte	0x9f
 11442 10ae BA000000 		.4byte	.LVL275
 11443 10b2 CD000000 		.4byte	.LVL277-1
 11444 10b6 0100     		.2byte	0x1
 11445 10b8 51       		.byte	0x51
 11446 10b9 CD000000 		.4byte	.LVL277-1
 11447 10bd D0000000 		.4byte	.LFE133
 11448 10c1 0400     		.2byte	0x4
 11449 10c3 F3       		.byte	0xf3
 11450 10c4 01       		.uleb128 0x1
 11451 10c5 51       		.byte	0x51
 11452 10c6 9F       		.byte	0x9f
 11453 10c7 00000000 		.4byte	0
 11454 10cb 00000000 		.4byte	0
 11455              	.LLST116:
 11456 10cf 40000000 		.4byte	.LVL261
 11457 10d3 5D000000 		.4byte	.LVL262-1
 11458 10d7 0100     		.2byte	0x1
 11459 10d9 52       		.byte	0x52
 11460 10da BA000000 		.4byte	.LVL275
 11461 10de C2000000 		.4byte	.LVL276
 11462 10e2 0100     		.2byte	0x1
 11463 10e4 52       		.byte	0x52
 11464 10e5 C2000000 		.4byte	.LVL276
 11465 10e9 CD000000 		.4byte	.LVL277-1
 11466 10ed 0C00     		.2byte	0xc
 11467 10ef 71       		.byte	0x71
 11468 10f0 00       		.sleb128 0
 11469 10f1 32       		.byte	0x32
 11470 10f2 24       		.byte	0x24
 11471 10f3 70       		.byte	0x70
 11472 10f4 00       		.sleb128 0
 11473 10f5 22       		.byte	0x22
 11474 10f6 23       		.byte	0x23
 11475 10f7 0C       		.uleb128 0xc
 11476 10f8 06       		.byte	0x6
 11477 10f9 23       		.byte	0x23
 11478 10fa 14       		.uleb128 0x14
 11479 10fb 00000000 		.4byte	0
 11480 10ff 00000000 		.4byte	0
 11481              	.LLST117:
 11482 1103 64000000 		.4byte	.LVL264
 11483 1107 6C000000 		.4byte	.LVL265
ARM GAS  C:\Users\srich\AppData\Local\Temp\cc7Prgoh.s 			page 203


 11484 110b 0100     		.2byte	0x1
 11485 110d 53       		.byte	0x53
 11486 110e 00000000 		.4byte	0
 11487 1112 00000000 		.4byte	0
 11488              	.LLST118:
 11489 1116 64000000 		.4byte	.LVL264
 11490 111a 8C000000 		.4byte	.LVL267
 11491 111e 0100     		.2byte	0x1
 11492 1120 57       		.byte	0x57
 11493 1121 00000000 		.4byte	0
 11494 1125 00000000 		.4byte	0
 11495              	.LLST119:
 11496 1129 64000000 		.4byte	.LVL264
 11497 112d 8C000000 		.4byte	.LVL267
 11498 1131 0100     		.2byte	0x1
 11499 1133 56       		.byte	0x56
 11500 1134 00000000 		.4byte	0
 11501 1138 00000000 		.4byte	0
 11502              	.LLST120:
 11503 113c 22000000 		.4byte	.LVL258
 11504 1140 24000000 		.4byte	.LVL259
 11505 1144 0100     		.2byte	0x1
 11506 1146 53       		.byte	0x53
 11507 1147 8A000000 		.4byte	.LVL266
 11508 114b 8C000000 		.4byte	.LVL267
 11509 114f 0100     		.2byte	0x1
 11510 1151 53       		.byte	0x53
 11511 1152 00000000 		.4byte	0
 11512 1156 00000000 		.4byte	0
 11513              	.LLST121:
 11514 115a 92000000 		.4byte	.LVL269
 11515 115e 98000000 		.4byte	.LVL270
 11516 1162 0100     		.2byte	0x1
 11517 1164 53       		.byte	0x53
 11518 1165 00000000 		.4byte	0
 11519 1169 00000000 		.4byte	0
 11520              	.LLST122:
 11521 116d A6000000 		.4byte	.LVL271
 11522 1171 BA000000 		.4byte	.LVL275
 11523 1175 0100     		.2byte	0x1
 11524 1177 56       		.byte	0x56
 11525 1178 00000000 		.4byte	0
 11526 117c 00000000 		.4byte	0
 11527              	.LLST123:
 11528 1180 B6000000 		.4byte	.LVL274
 11529 1184 BA000000 		.4byte	.LVL275
 11530 1188 0100     		.2byte	0x1
 11531 118a 53       		.byte	0x53
 11532 118b 00000000 		.4byte	0
 11533 118f 00000000 		.4byte	0
 11534              	.LLST124:
 11535 1193 00000000 		.4byte	.LFB137
 11536 1197 02000000 		.4byte	.LCFI13
 11537 119b 0200     		.2byte	0x2
 11538 119d 7D       		.byte	0x7d
 11539 119e 00       		.sleb128 0
 11540 119f 02000000 		.4byte	.LCFI13
ARM GAS  C:\Users\srich\AppData\Local\Temp\cc7Prgoh.s 			page 204


 11541 11a3 00010000 		.4byte	.LFE137
 11542 11a7 0200     		.2byte	0x2
 11543 11a9 7D       		.byte	0x7d
 11544 11aa 10       		.sleb128 16
 11545 11ab 00000000 		.4byte	0
 11546 11af 00000000 		.4byte	0
 11547              	.LLST125:
 11548 11b3 06000000 		.4byte	.LVL279
 11549 11b7 32000000 		.4byte	.LVL284
 11550 11bb 0100     		.2byte	0x1
 11551 11bd 55       		.byte	0x55
 11552 11be 6A000000 		.4byte	.LVL290
 11553 11c2 A4000000 		.4byte	.LVL299
 11554 11c6 0100     		.2byte	0x1
 11555 11c8 55       		.byte	0x55
 11556 11c9 00000000 		.4byte	0
 11557 11cd 00000000 		.4byte	0
 11558              	.LLST126:
 11559 11d1 08000000 		.4byte	.LVL280
 11560 11d5 0C000000 		.4byte	.LVL281
 11561 11d9 0100     		.2byte	0x1
 11562 11db 53       		.byte	0x53
 11563 11dc 0C000000 		.4byte	.LVL281
 11564 11e0 00010000 		.4byte	.LFE137
 11565 11e4 0100     		.2byte	0x1
 11566 11e6 54       		.byte	0x54
 11567 11e7 00000000 		.4byte	0
 11568 11eb 00000000 		.4byte	0
 11569              	.LLST127:
 11570 11ef 32000000 		.4byte	.LVL284
 11571 11f3 6A000000 		.4byte	.LVL290
 11572 11f7 0100     		.2byte	0x1
 11573 11f9 55       		.byte	0x55
 11574 11fa A4000000 		.4byte	.LVL299
 11575 11fe 00010000 		.4byte	.LFE137
 11576 1202 0100     		.2byte	0x1
 11577 1204 55       		.byte	0x55
 11578 1205 00000000 		.4byte	0
 11579 1209 00000000 		.4byte	0
 11580              	.LLST128:
 11581 120d 86000000 		.4byte	.LVL294
 11582 1211 8E000000 		.4byte	.LVL295
 11583 1215 0100     		.2byte	0x1
 11584 1217 53       		.byte	0x53
 11585 1218 00000000 		.4byte	0
 11586 121c 00000000 		.4byte	0
 11587              	.LLST129:
 11588 1220 90000000 		.4byte	.LVL296
 11589 1224 A4000000 		.4byte	.LVL299
 11590 1228 0600     		.2byte	0x6
 11591 122a 03       		.byte	0x3
 11592 122b 00000000 		.4byte	USBD1
 11593 122f 9F       		.byte	0x9f
 11594 1230 00000000 		.4byte	0
 11595 1234 00000000 		.4byte	0
 11596              	.LLST130:
 11597 1238 2C000000 		.4byte	.LVL283
ARM GAS  C:\Users\srich\AppData\Local\Temp\cc7Prgoh.s 			page 205


 11598 123c 36000000 		.4byte	.LVL285
 11599 1240 0100     		.2byte	0x1
 11600 1242 53       		.byte	0x53
 11601 1243 44000000 		.4byte	.LVL286
 11602 1247 46000000 		.4byte	.LVL287
 11603 124b 0100     		.2byte	0x1
 11604 124d 53       		.byte	0x53
 11605 124e A2000000 		.4byte	.LVL298
 11606 1252 A4000000 		.4byte	.LVL299
 11607 1256 0100     		.2byte	0x1
 11608 1258 53       		.byte	0x53
 11609 1259 00000000 		.4byte	0
 11610 125d 00000000 		.4byte	0
 11611              	.LLST131:
 11612 1261 00000000 		.4byte	.LVL307
 11613 1265 0C000000 		.4byte	.LVL309
 11614 1269 0100     		.2byte	0x1
 11615 126b 50       		.byte	0x50
 11616 126c 0C000000 		.4byte	.LVL309
 11617 1270 10000000 		.4byte	.LFE150
 11618 1274 0400     		.2byte	0x4
 11619 1276 F3       		.byte	0xf3
 11620 1277 01       		.uleb128 0x1
 11621 1278 50       		.byte	0x50
 11622 1279 9F       		.byte	0x9f
 11623 127a 00000000 		.4byte	0
 11624 127e 00000000 		.4byte	0
 11625              	.LLST132:
 11626 1282 00000000 		.4byte	.LVL307
 11627 1286 02000000 		.4byte	.LVL308
 11628 128a 0100     		.2byte	0x1
 11629 128c 51       		.byte	0x51
 11630 128d 02000000 		.4byte	.LVL308
 11631 1291 10000000 		.4byte	.LFE150
 11632 1295 0400     		.2byte	0x4
 11633 1297 F3       		.byte	0xf3
 11634 1298 01       		.uleb128 0x1
 11635 1299 51       		.byte	0x51
 11636 129a 9F       		.byte	0x9f
 11637 129b 00000000 		.4byte	0
 11638 129f 00000000 		.4byte	0
 11639              	.LLST133:
 11640 12a3 00000000 		.4byte	.LVL310
 11641 12a7 0A000000 		.4byte	.LVL311
 11642 12ab 0100     		.2byte	0x1
 11643 12ad 50       		.byte	0x50
 11644 12ae 0A000000 		.4byte	.LVL311
 11645 12b2 22000000 		.4byte	.LFE151
 11646 12b6 0400     		.2byte	0x4
 11647 12b8 F3       		.byte	0xf3
 11648 12b9 01       		.uleb128 0x1
 11649 12ba 50       		.byte	0x50
 11650 12bb 9F       		.byte	0x9f
 11651 12bc 00000000 		.4byte	0
 11652 12c0 00000000 		.4byte	0
 11653              	.LLST134:
 11654 12c4 00000000 		.4byte	.LVL310
ARM GAS  C:\Users\srich\AppData\Local\Temp\cc7Prgoh.s 			page 206


 11655 12c8 1A000000 		.4byte	.LVL312
 11656 12cc 0100     		.2byte	0x1
 11657 12ce 51       		.byte	0x51
 11658 12cf 1A000000 		.4byte	.LVL312
 11659 12d3 22000000 		.4byte	.LFE151
 11660 12d7 0400     		.2byte	0x4
 11661 12d9 F3       		.byte	0xf3
 11662 12da 01       		.uleb128 0x1
 11663 12db 51       		.byte	0x51
 11664 12dc 9F       		.byte	0x9f
 11665 12dd 00000000 		.4byte	0
 11666 12e1 00000000 		.4byte	0
 11667              	.LLST135:
 11668 12e5 00000000 		.4byte	.LVL313
 11669 12e9 0C000000 		.4byte	.LVL315
 11670 12ed 0100     		.2byte	0x1
 11671 12ef 50       		.byte	0x50
 11672 12f0 0C000000 		.4byte	.LVL315
 11673 12f4 10000000 		.4byte	.LFE152
 11674 12f8 0400     		.2byte	0x4
 11675 12fa F3       		.byte	0xf3
 11676 12fb 01       		.uleb128 0x1
 11677 12fc 50       		.byte	0x50
 11678 12fd 9F       		.byte	0x9f
 11679 12fe 00000000 		.4byte	0
 11680 1302 00000000 		.4byte	0
 11681              	.LLST136:
 11682 1306 00000000 		.4byte	.LVL313
 11683 130a 02000000 		.4byte	.LVL314
 11684 130e 0100     		.2byte	0x1
 11685 1310 51       		.byte	0x51
 11686 1311 02000000 		.4byte	.LVL314
 11687 1315 10000000 		.4byte	.LFE152
 11688 1319 0400     		.2byte	0x4
 11689 131b F3       		.byte	0xf3
 11690 131c 01       		.uleb128 0x1
 11691 131d 51       		.byte	0x51
 11692 131e 9F       		.byte	0x9f
 11693 131f 00000000 		.4byte	0
 11694 1323 00000000 		.4byte	0
 11695              	.LLST137:
 11696 1327 00000000 		.4byte	.LVL316
 11697 132b 0C000000 		.4byte	.LVL318
 11698 132f 0100     		.2byte	0x1
 11699 1331 50       		.byte	0x50
 11700 1332 0C000000 		.4byte	.LVL318
 11701 1336 10000000 		.4byte	.LFE153
 11702 133a 0400     		.2byte	0x4
 11703 133c F3       		.byte	0xf3
 11704 133d 01       		.uleb128 0x1
 11705 133e 50       		.byte	0x50
 11706 133f 9F       		.byte	0x9f
 11707 1340 00000000 		.4byte	0
 11708 1344 00000000 		.4byte	0
 11709              	.LLST138:
 11710 1348 00000000 		.4byte	.LVL316
 11711 134c 02000000 		.4byte	.LVL317
ARM GAS  C:\Users\srich\AppData\Local\Temp\cc7Prgoh.s 			page 207


 11712 1350 0100     		.2byte	0x1
 11713 1352 51       		.byte	0x51
 11714 1353 02000000 		.4byte	.LVL317
 11715 1357 10000000 		.4byte	.LFE153
 11716 135b 0400     		.2byte	0x4
 11717 135d F3       		.byte	0xf3
 11718 135e 01       		.uleb128 0x1
 11719 135f 51       		.byte	0x51
 11720 1360 9F       		.byte	0x9f
 11721 1361 00000000 		.4byte	0
 11722 1365 00000000 		.4byte	0
 11723              	.LLST139:
 11724 1369 00000000 		.4byte	.LVL319
 11725 136d 0C000000 		.4byte	.LVL321
 11726 1371 0100     		.2byte	0x1
 11727 1373 50       		.byte	0x50
 11728 1374 0C000000 		.4byte	.LVL321
 11729 1378 10000000 		.4byte	.LFE154
 11730 137c 0400     		.2byte	0x4
 11731 137e F3       		.byte	0xf3
 11732 137f 01       		.uleb128 0x1
 11733 1380 50       		.byte	0x50
 11734 1381 9F       		.byte	0x9f
 11735 1382 00000000 		.4byte	0
 11736 1386 00000000 		.4byte	0
 11737              	.LLST140:
 11738 138a 00000000 		.4byte	.LVL319
 11739 138e 02000000 		.4byte	.LVL320
 11740 1392 0100     		.2byte	0x1
 11741 1394 51       		.byte	0x51
 11742 1395 02000000 		.4byte	.LVL320
 11743 1399 10000000 		.4byte	.LFE154
 11744 139d 0400     		.2byte	0x4
 11745 139f F3       		.byte	0xf3
 11746 13a0 01       		.uleb128 0x1
 11747 13a1 51       		.byte	0x51
 11748 13a2 9F       		.byte	0x9f
 11749 13a3 00000000 		.4byte	0
 11750 13a7 00000000 		.4byte	0
 11751              	.LLST141:
 11752 13ab 00000000 		.4byte	.LVL322
 11753 13af 0C000000 		.4byte	.LVL324
 11754 13b3 0100     		.2byte	0x1
 11755 13b5 50       		.byte	0x50
 11756 13b6 0C000000 		.4byte	.LVL324
 11757 13ba 10000000 		.4byte	.LFE155
 11758 13be 0400     		.2byte	0x4
 11759 13c0 F3       		.byte	0xf3
 11760 13c1 01       		.uleb128 0x1
 11761 13c2 50       		.byte	0x50
 11762 13c3 9F       		.byte	0x9f
 11763 13c4 00000000 		.4byte	0
 11764 13c8 00000000 		.4byte	0
 11765              	.LLST142:
 11766 13cc 00000000 		.4byte	.LVL322
 11767 13d0 02000000 		.4byte	.LVL323
 11768 13d4 0100     		.2byte	0x1
ARM GAS  C:\Users\srich\AppData\Local\Temp\cc7Prgoh.s 			page 208


 11769 13d6 51       		.byte	0x51
 11770 13d7 02000000 		.4byte	.LVL323
 11771 13db 10000000 		.4byte	.LFE155
 11772 13df 0400     		.2byte	0x4
 11773 13e1 F3       		.byte	0xf3
 11774 13e2 01       		.uleb128 0x1
 11775 13e3 51       		.byte	0x51
 11776 13e4 9F       		.byte	0x9f
 11777 13e5 00000000 		.4byte	0
 11778 13e9 00000000 		.4byte	0
 11779              		.section	.debug_aranges,"",%progbits
 11780 0000 D4000000 		.4byte	0xd4
 11781 0004 0200     		.2byte	0x2
 11782 0006 00000000 		.4byte	.Ldebug_info0
 11783 000a 04       		.byte	0x4
 11784 000b 00       		.byte	0
 11785 000c 0000     		.2byte	0
 11786 000e 0000     		.2byte	0
 11787 0010 00000000 		.4byte	.LFB120
 11788 0014 82000000 		.4byte	.LFE120-.LFB120
 11789 0018 00000000 		.4byte	.LFB122
 11790 001c 16000000 		.4byte	.LFE122-.LFB122
 11791 0020 00000000 		.4byte	.LFB136
 11792 0024 96040000 		.4byte	.LFE136-.LFB136
 11793 0028 00000000 		.4byte	.LFB138
 11794 002c 28000000 		.4byte	.LFE138-.LFB138
 11795 0030 00000000 		.4byte	.LFB139
 11796 0034 E0000000 		.4byte	.LFE139-.LFB139
 11797 0038 00000000 		.4byte	.LFB140
 11798 003c 1E000000 		.4byte	.LFE140-.LFB140
 11799 0040 00000000 		.4byte	.LFB141
 11800 0044 2C010000 		.4byte	.LFE141-.LFB141
 11801 0048 00000000 		.4byte	.LFB142
 11802 004c 18000000 		.4byte	.LFE142-.LFB142
 11803 0050 00000000 		.4byte	.LFB143
 11804 0054 3A010000 		.4byte	.LFE143-.LFB143
 11805 0058 00000000 		.4byte	.LFB144
 11806 005c 0A000000 		.4byte	.LFE144-.LFB144
 11807 0060 00000000 		.4byte	.LFB145
 11808 0064 1A000000 		.4byte	.LFE145-.LFB145
 11809 0068 00000000 		.4byte	.LFB146
 11810 006c 1A000000 		.4byte	.LFE146-.LFB146
 11811 0070 00000000 		.4byte	.LFB147
 11812 0074 12000000 		.4byte	.LFE147-.LFB147
 11813 0078 00000000 		.4byte	.LFB148
 11814 007c 40000000 		.4byte	.LFE148-.LFB148
 11815 0080 00000000 		.4byte	.LFB134
 11816 0084 8C000000 		.4byte	.LFE134-.LFB134
 11817 0088 00000000 		.4byte	.LFB149
 11818 008c 4A000000 		.4byte	.LFE149-.LFB149
 11819 0090 00000000 		.4byte	.LFB133
 11820 0094 D0000000 		.4byte	.LFE133-.LFB133
 11821 0098 00000000 		.4byte	.LFB137
 11822 009c 00010000 		.4byte	.LFE137-.LFB137
 11823 00a0 00000000 		.4byte	.LFB150
 11824 00a4 10000000 		.4byte	.LFE150-.LFB150
 11825 00a8 00000000 		.4byte	.LFB151
ARM GAS  C:\Users\srich\AppData\Local\Temp\cc7Prgoh.s 			page 209


 11826 00ac 22000000 		.4byte	.LFE151-.LFB151
 11827 00b0 00000000 		.4byte	.LFB152
 11828 00b4 10000000 		.4byte	.LFE152-.LFB152
 11829 00b8 00000000 		.4byte	.LFB153
 11830 00bc 10000000 		.4byte	.LFE153-.LFB153
 11831 00c0 00000000 		.4byte	.LFB154
 11832 00c4 10000000 		.4byte	.LFE154-.LFB154
 11833 00c8 00000000 		.4byte	.LFB155
 11834 00cc 10000000 		.4byte	.LFE155-.LFB155
 11835 00d0 00000000 		.4byte	0
 11836 00d4 00000000 		.4byte	0
 11837              		.section	.debug_ranges,"",%progbits
 11838              	.Ldebug_ranges0:
 11839 0000 18000000 		.4byte	.LBB97
 11840 0004 1A000000 		.4byte	.LBE97
 11841 0008 1C000000 		.4byte	.LBB98
 11842 000c 20000000 		.4byte	.LBE98
 11843 0010 00000000 		.4byte	0
 11844 0014 00000000 		.4byte	0
 11845 0018 20000000 		.4byte	.LBB99
 11846 001c 0A010000 		.4byte	.LBE99
 11847 0020 0C010000 		.4byte	.LBB166
 11848 0024 96040000 		.4byte	.LBE166
 11849 0028 00000000 		.4byte	0
 11850 002c 00000000 		.4byte	0
 11851 0030 20000000 		.4byte	.LBB100
 11852 0034 24000000 		.4byte	.LBE100
 11853 0038 5A000000 		.4byte	.LBB101
 11854 003c 62000000 		.4byte	.LBE101
 11855 0040 00000000 		.4byte	0
 11856 0044 00000000 		.4byte	0
 11857 0048 6C000000 		.4byte	.LBB102
 11858 004c D8000000 		.4byte	.LBE102
 11859 0050 0C010000 		.4byte	.LBB130
 11860 0054 60020000 		.4byte	.LBE130
 11861 0058 00000000 		.4byte	0
 11862 005c 00000000 		.4byte	0
 11863 0060 6C000000 		.4byte	.LBB103
 11864 0064 D8000000 		.4byte	.LBE103
 11865 0068 0C010000 		.4byte	.LBB128
 11866 006c 60020000 		.4byte	.LBE128
 11867 0070 00000000 		.4byte	0
 11868 0074 00000000 		.4byte	0
 11869 0078 90000000 		.4byte	.LBB104
 11870 007c 94000000 		.4byte	.LBE104
 11871 0080 96000000 		.4byte	.LBB112
 11872 0084 D8000000 		.4byte	.LBE112
 11873 0088 00000000 		.4byte	0
 11874 008c 00000000 		.4byte	0
 11875 0090 9E000000 		.4byte	.LBB106
 11876 0094 A0000000 		.4byte	.LBE106
 11877 0098 A2000000 		.4byte	.LBB107
 11878 009c AC000000 		.4byte	.LBE107
 11879 00a0 B2000000 		.4byte	.LBB108
 11880 00a4 B6000000 		.4byte	.LBE108
 11881 00a8 B8000000 		.4byte	.LBB109
 11882 00ac BC000000 		.4byte	.LBE109
ARM GAS  C:\Users\srich\AppData\Local\Temp\cc7Prgoh.s 			page 210


 11883 00b0 BE000000 		.4byte	.LBB110
 11884 00b4 D4000000 		.4byte	.LBE110
 11885 00b8 00000000 		.4byte	0
 11886 00bc 00000000 		.4byte	0
 11887 00c0 42010000 		.4byte	.LBB115
 11888 00c4 50010000 		.4byte	.LBE115
 11889 00c8 5A010000 		.4byte	.LBB116
 11890 00cc 66010000 		.4byte	.LBE116
 11891 00d0 6C010000 		.4byte	.LBB117
 11892 00d4 82010000 		.4byte	.LBE117
 11893 00d8 00000000 		.4byte	0
 11894 00dc 00000000 		.4byte	0
 11895 00e0 AC010000 		.4byte	.LBB121
 11896 00e4 AE010000 		.4byte	.LBE121
 11897 00e8 B0010000 		.4byte	.LBB122
 11898 00ec B8010000 		.4byte	.LBE122
 11899 00f0 BA010000 		.4byte	.LBB123
 11900 00f4 BE010000 		.4byte	.LBE123
 11901 00f8 00000000 		.4byte	0
 11902 00fc 00000000 		.4byte	0
 11903 0100 7C020000 		.4byte	.LBB133
 11904 0104 7E020000 		.4byte	.LBE133
 11905 0108 82020000 		.4byte	.LBB134
 11906 010c 86020000 		.4byte	.LBE134
 11907 0110 00000000 		.4byte	0
 11908 0114 00000000 		.4byte	0
 11909 0118 86020000 		.4byte	.LBB135
 11910 011c 50030000 		.4byte	.LBE135
 11911 0120 7A030000 		.4byte	.LBB165
 11912 0124 96040000 		.4byte	.LBE165
 11913 0128 00000000 		.4byte	0
 11914 012c 00000000 		.4byte	0
 11915 0130 86020000 		.4byte	.LBB136
 11916 0134 50030000 		.4byte	.LBE136
 11917 0138 7A030000 		.4byte	.LBB162
 11918 013c 96040000 		.4byte	.LBE162
 11919 0140 00000000 		.4byte	0
 11920 0144 00000000 		.4byte	0
 11921 0148 CC020000 		.4byte	.LBB137
 11922 014c D2020000 		.4byte	.LBE137
 11923 0150 D8020000 		.4byte	.LBB147
 11924 0154 DA020000 		.4byte	.LBE147
 11925 0158 E0020000 		.4byte	.LBB148
 11926 015c 18030000 		.4byte	.LBE148
 11927 0160 00000000 		.4byte	0
 11928 0164 00000000 		.4byte	0
 11929 0168 CE020000 		.4byte	.LBB139
 11930 016c D2020000 		.4byte	.LBE139
 11931 0170 D8020000 		.4byte	.LBB143
 11932 0174 DA020000 		.4byte	.LBE143
 11933 0178 E0020000 		.4byte	.LBB144
 11934 017c 18030000 		.4byte	.LBE144
 11935 0180 00000000 		.4byte	0
 11936 0184 00000000 		.4byte	0
 11937 0188 4E030000 		.4byte	.LBB149
 11938 018c 50030000 		.4byte	.LBE149
 11939 0190 80030000 		.4byte	.LBB161
ARM GAS  C:\Users\srich\AppData\Local\Temp\cc7Prgoh.s 			page 211


 11940 0194 96040000 		.4byte	.LBE161
 11941 0198 00000000 		.4byte	0
 11942 019c 00000000 		.4byte	0
 11943 01a0 4E030000 		.4byte	.LBB150
 11944 01a4 50030000 		.4byte	.LBE150
 11945 01a8 80030000 		.4byte	.LBB160
 11946 01ac 96040000 		.4byte	.LBE160
 11947 01b0 00000000 		.4byte	0
 11948 01b4 00000000 		.4byte	0
 11949 01b8 8A030000 		.4byte	.LBB151
 11950 01bc EA030000 		.4byte	.LBE151
 11951 01c0 22040000 		.4byte	.LBB159
 11952 01c4 84040000 		.4byte	.LBE159
 11953 01c8 00000000 		.4byte	0
 11954 01cc 00000000 		.4byte	0
 11955 01d0 38000000 		.4byte	.LBB169
 11956 01d4 3A000000 		.4byte	.LBE169
 11957 01d8 3E000000 		.4byte	.LBB173
 11958 01dc 40000000 		.4byte	.LBE173
 11959 01e0 46000000 		.4byte	.LBB174
 11960 01e4 60000000 		.4byte	.LBE174
 11961 01e8 00000000 		.4byte	0
 11962 01ec 00000000 		.4byte	0
 11963 01f0 38000000 		.4byte	.LBB170
 11964 01f4 3A000000 		.4byte	.LBE170
 11965 01f8 3E000000 		.4byte	.LBB171
 11966 01fc 40000000 		.4byte	.LBE171
 11967 0200 46000000 		.4byte	.LBB172
 11968 0204 60000000 		.4byte	.LBE172
 11969 0208 00000000 		.4byte	0
 11970 020c 00000000 		.4byte	0
 11971 0210 A0000000 		.4byte	.LBB181
 11972 0214 A4000000 		.4byte	.LBE181
 11973 0218 BA000000 		.4byte	.LBB189
 11974 021c BE000000 		.4byte	.LBE189
 11975 0220 00000000 		.4byte	0
 11976 0224 00000000 		.4byte	0
 11977 0228 A4000000 		.4byte	.LBB184
 11978 022c A8000000 		.4byte	.LBE184
 11979 0230 B0000000 		.4byte	.LBB188
 11980 0234 B2000000 		.4byte	.LBE188
 11981 0238 C0000000 		.4byte	.LBB190
 11982 023c D0000000 		.4byte	.LBE190
 11983 0240 00000000 		.4byte	0
 11984 0244 00000000 		.4byte	0
 11985 0248 A4000000 		.4byte	.LBB185
 11986 024c A8000000 		.4byte	.LBE185
 11987 0250 B0000000 		.4byte	.LBB186
 11988 0254 B2000000 		.4byte	.LBE186
 11989 0258 C0000000 		.4byte	.LBB187
 11990 025c D0000000 		.4byte	.LBE187
 11991 0260 00000000 		.4byte	0
 11992 0264 00000000 		.4byte	0
 11993 0268 D4000000 		.4byte	.LBB191
 11994 026c D8000000 		.4byte	.LBE191
 11995 0270 00010000 		.4byte	.LBB195
 11996 0274 04010000 		.4byte	.LBE195
ARM GAS  C:\Users\srich\AppData\Local\Temp\cc7Prgoh.s 			page 212


 11997 0278 1C010000 		.4byte	.LBB196
 11998 027c 20010000 		.4byte	.LBE196
 11999 0280 00000000 		.4byte	0
 12000 0284 00000000 		.4byte	0
 12001 0288 D4000000 		.4byte	.LBB192
 12002 028c D8000000 		.4byte	.LBE192
 12003 0290 00010000 		.4byte	.LBB193
 12004 0294 04010000 		.4byte	.LBE193
 12005 0298 1C010000 		.4byte	.LBB194
 12006 029c 20010000 		.4byte	.LBE194
 12007 02a0 00000000 		.4byte	0
 12008 02a4 00000000 		.4byte	0
 12009 02a8 82000000 		.4byte	.LBB197
 12010 02ac 84000000 		.4byte	.LBE197
 12011 02b0 8C000000 		.4byte	.LBB200
 12012 02b4 90000000 		.4byte	.LBE200
 12013 02b8 00000000 		.4byte	0
 12014 02bc 00000000 		.4byte	0
 12015 02c0 82000000 		.4byte	.LBB198
 12016 02c4 84000000 		.4byte	.LBE198
 12017 02c8 8C000000 		.4byte	.LBB199
 12018 02cc 90000000 		.4byte	.LBE199
 12019 02d0 00000000 		.4byte	0
 12020 02d4 00000000 		.4byte	0
 12021 02d8 2C000000 		.4byte	.LBB203
 12022 02dc 54000000 		.4byte	.LBE203
 12023 02e0 60000000 		.4byte	.LBB211
 12024 02e4 8C000000 		.4byte	.LBE211
 12025 02e8 00000000 		.4byte	0
 12026 02ec 00000000 		.4byte	0
 12027 02f0 76000000 		.4byte	.LBB205
 12028 02f4 7C000000 		.4byte	.LBE205
 12029 02f8 7E000000 		.4byte	.LBB209
 12030 02fc 86000000 		.4byte	.LBE209
 12031 0300 00000000 		.4byte	0
 12032 0304 00000000 		.4byte	0
 12033 0308 7C000000 		.4byte	.LBB208
 12034 030c 7E000000 		.4byte	.LBE208
 12035 0310 86000000 		.4byte	.LBB210
 12036 0314 8C000000 		.4byte	.LBE210
 12037 0318 00000000 		.4byte	0
 12038 031c 00000000 		.4byte	0
 12039 0320 10000000 		.4byte	.LBB212
 12040 0324 2A000000 		.4byte	.LBE212
 12041 0328 2E000000 		.4byte	.LBB213
 12042 032c 3A000000 		.4byte	.LBE213
 12043 0330 00000000 		.4byte	0
 12044 0334 00000000 		.4byte	0
 12045 0338 38000000 		.4byte	.LBB223
 12046 033c 8C000000 		.4byte	.LBE223
 12047 0340 BA000000 		.4byte	.LBB234
 12048 0344 D0000000 		.4byte	.LBE234
 12049 0348 00000000 		.4byte	0
 12050 034c 00000000 		.4byte	0
 12051 0350 98000000 		.4byte	.LBB229
 12052 0354 9A000000 		.4byte	.LBE229
 12053 0358 A6000000 		.4byte	.LBB232
ARM GAS  C:\Users\srich\AppData\Local\Temp\cc7Prgoh.s 			page 213


 12054 035c B0000000 		.4byte	.LBE232
 12055 0360 00000000 		.4byte	0
 12056 0364 00000000 		.4byte	0
 12057 0368 02000000 		.4byte	.LBB241
 12058 036c 58000000 		.4byte	.LBE241
 12059 0370 60000000 		.4byte	.LBB250
 12060 0374 00010000 		.4byte	.LBE250
 12061 0378 00000000 		.4byte	0
 12062 037c 00000000 		.4byte	0
 12063 0380 02000000 		.4byte	.LBB242
 12064 0384 58000000 		.4byte	.LBE242
 12065 0388 60000000 		.4byte	.LBB249
 12066 038c 00010000 		.4byte	.LBE249
 12067 0390 00000000 		.4byte	0
 12068 0394 00000000 		.4byte	0
 12069 0398 88000000 		.4byte	.LBB244
 12070 039c 8A000000 		.4byte	.LBE244
 12071 03a0 90000000 		.4byte	.LBB247
 12072 03a4 9C000000 		.4byte	.LBE247
 12073 03a8 00000000 		.4byte	0
 12074 03ac 00000000 		.4byte	0
 12075 03b0 00000000 		.4byte	.LFB120
 12076 03b4 82000000 		.4byte	.LFE120
 12077 03b8 00000000 		.4byte	.LFB122
 12078 03bc 16000000 		.4byte	.LFE122
 12079 03c0 00000000 		.4byte	.LFB136
 12080 03c4 96040000 		.4byte	.LFE136
 12081 03c8 00000000 		.4byte	.LFB138
 12082 03cc 28000000 		.4byte	.LFE138
 12083 03d0 00000000 		.4byte	.LFB139
 12084 03d4 E0000000 		.4byte	.LFE139
 12085 03d8 00000000 		.4byte	.LFB140
 12086 03dc 1E000000 		.4byte	.LFE140
 12087 03e0 00000000 		.4byte	.LFB141
 12088 03e4 2C010000 		.4byte	.LFE141
 12089 03e8 00000000 		.4byte	.LFB142
 12090 03ec 18000000 		.4byte	.LFE142
 12091 03f0 00000000 		.4byte	.LFB143
 12092 03f4 3A010000 		.4byte	.LFE143
 12093 03f8 00000000 		.4byte	.LFB144
 12094 03fc 0A000000 		.4byte	.LFE144
 12095 0400 00000000 		.4byte	.LFB145
 12096 0404 1A000000 		.4byte	.LFE145
 12097 0408 00000000 		.4byte	.LFB146
 12098 040c 1A000000 		.4byte	.LFE146
 12099 0410 00000000 		.4byte	.LFB147
 12100 0414 12000000 		.4byte	.LFE147
 12101 0418 00000000 		.4byte	.LFB148
 12102 041c 40000000 		.4byte	.LFE148
 12103 0420 00000000 		.4byte	.LFB134
 12104 0424 8C000000 		.4byte	.LFE134
 12105 0428 00000000 		.4byte	.LFB149
 12106 042c 4A000000 		.4byte	.LFE149
 12107 0430 00000000 		.4byte	.LFB133
 12108 0434 D0000000 		.4byte	.LFE133
 12109 0438 00000000 		.4byte	.LFB137
 12110 043c 00010000 		.4byte	.LFE137
ARM GAS  C:\Users\srich\AppData\Local\Temp\cc7Prgoh.s 			page 214


 12111 0440 00000000 		.4byte	.LFB150
 12112 0444 10000000 		.4byte	.LFE150
 12113 0448 00000000 		.4byte	.LFB151
 12114 044c 22000000 		.4byte	.LFE151
 12115 0450 00000000 		.4byte	.LFB152
 12116 0454 10000000 		.4byte	.LFE152
 12117 0458 00000000 		.4byte	.LFB153
 12118 045c 10000000 		.4byte	.LFE153
 12119 0460 00000000 		.4byte	.LFB154
 12120 0464 10000000 		.4byte	.LFE154
 12121 0468 00000000 		.4byte	.LFB155
 12122 046c 10000000 		.4byte	.LFE155
 12123 0470 00000000 		.4byte	0
 12124 0474 00000000 		.4byte	0
 12125              		.section	.debug_line,"",%progbits
 12126              	.Ldebug_line0:
 12127 0000 2E090000 		.section	.debug_str,"MS",%progbits,1
 12127      02002E03 
 12127      00000201 
 12127      FB0E0D00 
 12127      01010101 
 12128              	.LASF11:
 12129 0000 73697A65 		.ascii	"size_t\000"
 12129      5F7400
 12130              	.LASF326:
 12131 0007 7573625F 		.ascii	"usb_lld_stall_out\000"
 12131      6C6C645F 
 12131      7374616C 
 12131      6C5F6F75 
 12131      7400
 12132              	.LASF8:
 12133 0019 73697A65 		.ascii	"sizetype\000"
 12133      74797065 
 12133      00
 12134              	.LASF26:
 12135 0022 73797374 		.ascii	"systime_t\000"
 12135      696D655F 
 12135      7400
 12136              	.LASF107:
 12137 002c 504C4C49 		.ascii	"PLLI2SCFGR\000"
 12137      32534346 
 12137      475200
 12138              	.LASF31:
 12139 0037 705F6374 		.ascii	"p_ctx\000"
 12139      7800
 12140              	.LASF23:
 12141 003d 74707269 		.ascii	"tprio_t\000"
 12141      6F5F7400 
 12142              	.LASF41:
 12143 0045 705F6D73 		.ascii	"p_msgqueue\000"
 12143      67717565 
 12143      756500
 12144              	.LASF55:
 12145 0050 725F6374 		.ascii	"r_ctx\000"
 12145      7800
 12146              	.LASF14:
 12147 0056 696E7433 		.ascii	"int32_t\000"
ARM GAS  C:\Users\srich\AppData\Local\Temp\cc7Prgoh.s 			page 215


 12147      325F7400 
 12148              	.LASF177:
 12149 005e 72657376 		.ascii	"resvd4\000"
 12149      643400
 12150              	.LASF168:
 12151 0065 72657376 		.ascii	"resvd8\000"
 12151      643800
 12152              	.LASF282:
 12153 006c 6F74675F 		.ascii	"otg_fifo_read_to_buffer\000"
 12153      6669666F 
 12153      5F726561 
 12153      645F746F 
 12153      5F627566 
 12154              	.LASF179:
 12155 0084 72657376 		.ascii	"resvdC\000"
 12155      644300
 12156              	.LASF322:
 12157 008b 7573625F 		.ascii	"usb_lld_prepare_transmit\000"
 12157      6C6C645F 
 12157      70726570 
 12157      6172655F 
 12157      7472616E 
 12158              	.LASF340:
 12159 00a4 63685363 		.ascii	"chSchReadyI\000"
 12159      68526561 
 12159      64794900 
 12160              	.LASF328:
 12161 00b0 7573625F 		.ascii	"usb_lld_clear_out\000"
 12161      6C6C645F 
 12161      636C6561 
 12161      725F6F75 
 12161      7400
 12162              	.LASF316:
 12163 00c2 7573625F 		.ascii	"usb_lld_get_status_in\000"
 12163      6C6C645F 
 12163      6765745F 
 12163      73746174 
 12163      75735F69 
 12164              	.LASF145:
 12165 00d8 5553425F 		.ascii	"USB_EP0_TX\000"
 12165      4550305F 
 12165      545800
 12166              	.LASF278:
 12167 00e3 6669666F 		.ascii	"fifop\000"
 12167      7000
 12168              	.LASF331:
 12169 00e9 65703073 		.ascii	"ep0setup_buffer\000"
 12169      65747570 
 12169      5F627566 
 12169      66657200 
 12170              	.LASF217:
 12171 00f9 72657376 		.ascii	"resvd700\000"
 12171      64373030 
 12171      00
 12172              	.LASF313:
 12173 0102 6673697A 		.ascii	"fsize\000"
 12173      6500
ARM GAS  C:\Users\srich\AppData\Local\Temp\cc7Prgoh.s 			page 216


 12174              	.LASF114:
 12175 0108 636F6E66 		.ascii	"config\000"
 12175      696700
 12176              	.LASF113:
 12177 010f 73746174 		.ascii	"state\000"
 12177      6500
 12178              	.LASF262:
 12179 0115 65705F6D 		.ascii	"ep_mode\000"
 12179      6F646500 
 12180              	.LASF138:
 12181 011d 5553425F 		.ascii	"USB_ACTIVE\000"
 12181      41435449 
 12181      564500
 12182              	.LASF312:
 12183 0128 7573625F 		.ascii	"usb_lld_init_endpoint\000"
 12183      6C6C645F 
 12183      696E6974 
 12183      5F656E64 
 12183      706F696E 
 12184              	.LASF308:
 12185 013e 7573625F 		.ascii	"usb_lld_stop\000"
 12185      6C6C645F 
 12185      73746F70 
 12185      00
 12186              	.LASF62:
 12187 014b 6D5F6F77 		.ascii	"m_owner\000"
 12187      6E657200 
 12188              	.LASF65:
 12189 0153 65786974 		.ascii	"exitcode\000"
 12189      636F6465 
 12189      00
 12190              	.LASF151:
 12191 015c 75736265 		.ascii	"usbep0state_t\000"
 12191      70307374 
 12191      6174655F 
 12191      7400
 12192              	.LASF73:
 12193 016a 715F746F 		.ascii	"q_top\000"
 12193      7000
 12194              	.LASF67:
 12195 0170 65776D61 		.ascii	"ewmask\000"
 12195      736B00
 12196              	.LASF98:
 12197 0177 41484232 		.ascii	"AHB2LPENR\000"
 12197      4C50454E 
 12197      5200
 12198              	.LASF143:
 12199 0181 75736265 		.ascii	"usbepstatus_t\000"
 12199      70737461 
 12199      7475735F 
 12199      7400
 12200              	.LASF72:
 12201 018f 715F6275 		.ascii	"q_buffer\000"
 12201      66666572 
 12201      00
 12202              	.LASF153:
 12203 0198 5553425F 		.ascii	"USB_EVENT_ADDRESS\000"
ARM GAS  C:\Users\srich\AppData\Local\Temp\cc7Prgoh.s 			page 217


 12203      4556454E 
 12203      545F4144 
 12203      44524553 
 12203      5300
 12204              	.LASF198:
 12205 01aa 44494550 		.ascii	"DIEPTXF0\000"
 12205      54584630 
 12205      00
 12206              	.LASF76:
 12207 01b3 715F6E6F 		.ascii	"q_notify\000"
 12207      74696679 
 12207      00
 12208              	.LASF32:
 12209 01bc 705F6E65 		.ascii	"p_newer\000"
 12209      77657200 
 12210              	.LASF295:
 12211 01c4 6669666F 		.ascii	"fifo\000"
 12211      00
 12212              	.LASF7:
 12213 01c9 6C6F6E67 		.ascii	"long int\000"
 12213      20696E74 
 12213      00
 12214              	.LASF28:
 12215 01d2 705F6E65 		.ascii	"p_next\000"
 12215      787400
 12216              	.LASF75:
 12217 01d9 715F7264 		.ascii	"q_rdptr\000"
 12217      70747200 
 12218              	.LASF29:
 12219 01e1 705F7072 		.ascii	"p_prev\000"
 12219      657600
 12220              	.LASF20:
 12221 01e8 74737461 		.ascii	"tstate_t\000"
 12221      74655F74 
 12221      00
 12222              	.LASF267:
 12223 01f1 6F75745F 		.ascii	"out_maxsize\000"
 12223      6D617873 
 12223      697A6500 
 12224              	.LASF44:
 12225 01fd 705F6D74 		.ascii	"p_mtxlist\000"
 12225      786C6973 
 12225      7400
 12226              	.LASF131:
 12227 0207 7468645F 		.ascii	"thd_wait\000"
 12227      77616974 
 12227      00
 12228              	.LASF246:
 12229 0210 74786275 		.ascii	"txbuf\000"
 12229      6600
 12230              	.LASF283:
 12231 0216 6F74675F 		.ascii	"otg_fifo_write_from_buffer\000"
 12231      6669666F 
 12231      5F777269 
 12231      74655F66 
 12231      726F6D5F 
 12232              	.LASF49:
ARM GAS  C:\Users\srich\AppData\Local\Temp\cc7Prgoh.s 			page 218


 12233 0231 72656761 		.ascii	"regarm_t\000"
 12233      726D5F74 
 12233      00
 12234              	.LASF302:
 12235 023a 6F74675F 		.ascii	"otg_fifo_write_from_queue\000"
 12235      6669666F 
 12235      5F777269 
 12235      74655F66 
 12235      726F6D5F 
 12236              	.LASF224:
 12237 0254 4441494E 		.ascii	"DAINT\000"
 12237      5400
 12238              	.LASF144:
 12239 025a 5553425F 		.ascii	"USB_EP0_WAITING_SETUP\000"
 12239      4550305F 
 12239      57414954 
 12239      494E475F 
 12239      53455455 
 12240              	.LASF223:
 12241 0270 444F4550 		.ascii	"DOEPMSK\000"
 12241      4D534B00 
 12242              	.LASF95:
 12243 0278 41504232 		.ascii	"APB2ENR\000"
 12243      454E5200 
 12244              	.LASF339:
 12245 0280 7573624F 		.ascii	"usbObjectInit\000"
 12245      626A6563 
 12245      74496E69 
 12245      7400
 12246              	.LASF97:
 12247 028e 41484231 		.ascii	"AHB1LPENR\000"
 12247      4C50454E 
 12247      5200
 12248              	.LASF184:
 12249 0298 444F4550 		.ascii	"DOEPCTL\000"
 12249      43544C00 
 12250              	.LASF109:
 12251 02a0 44434B43 		.ascii	"DCKCFGR\000"
 12251      46475200 
 12252              	.LASF1:
 12253 02a8 7369676E 		.ascii	"signed char\000"
 12253      65642063 
 12253      68617200 
 12254              	.LASF38:
 12255 02b4 705F7072 		.ascii	"p_preempt\000"
 12255      65656D70 
 12255      7400
 12256              	.LASF12:
 12257 02be 75696E74 		.ascii	"uint8_t\000"
 12257      385F7400 
 12258              	.LASF157:
 12259 02c6 5553425F 		.ascii	"USB_EVENT_STALLED\000"
 12259      4556454E 
 12259      545F5354 
 12259      414C4C45 
 12259      4400
 12260              	.LASF142:
ARM GAS  C:\Users\srich\AppData\Local\Temp\cc7Prgoh.s 			page 219


 12261 02d8 45505F53 		.ascii	"EP_STATUS_ACTIVE\000"
 12261      54415455 
 12261      535F4143 
 12261      54495645 
 12261      00
 12262              	.LASF185:
 12263 02e9 444F4550 		.ascii	"DOEPINT\000"
 12263      494E5400 
 12264              	.LASF25:
 12265 02f1 6576656E 		.ascii	"eventmask_t\000"
 12265      746D6173 
 12265      6B5F7400 
 12266              	.LASF52:
 12267 02fd 636F6E74 		.ascii	"context\000"
 12267      65787400 
 12268              	.LASF259:
 12269 0305 72787369 		.ascii	"rxsize\000"
 12269      7A6500
 12270              	.LASF330:
 12271 030c 6570305F 		.ascii	"ep0_state\000"
 12271      73746174 
 12271      6500
 12272              	.LASF343:
 12273 0316 5F757362 		.ascii	"_usb_reset\000"
 12273      5F726573 
 12273      657400
 12274              	.LASF86:
 12275 0321 52455345 		.ascii	"RESERVED0\000"
 12275      52564544 
 12275      3000
 12276              	.LASF89:
 12277 032b 52455345 		.ascii	"RESERVED1\000"
 12277      52564544 
 12277      3100
 12278              	.LASF2:
 12279 0335 756E7369 		.ascii	"unsigned char\000"
 12279      676E6564 
 12279      20636861 
 12279      7200
 12280              	.LASF96:
 12281 0343 52455345 		.ascii	"RESERVED3\000"
 12281      52564544 
 12281      3300
 12282              	.LASF100:
 12283 034d 52455345 		.ascii	"RESERVED4\000"
 12283      52564544 
 12283      3400
 12284              	.LASF77:
 12285 0357 715F6C69 		.ascii	"q_link\000"
 12285      6E6B00
 12286              	.LASF105:
 12287 035e 52455345 		.ascii	"RESERVED6\000"
 12287      52564544 
 12287      3600
 12288              	.LASF218:
 12289 0368 44434647 		.ascii	"DCFG\000"
 12289      00
ARM GAS  C:\Users\srich\AppData\Local\Temp\cc7Prgoh.s 			page 220


 12290              	.LASF56:
 12291 036d 725F6E65 		.ascii	"r_newer\000"
 12291      77657200 
 12292              	.LASF202:
 12293 0375 47434346 		.ascii	"GCCFG\000"
 12293      4700
 12294              	.LASF119:
 12295 037b 65703073 		.ascii	"ep0state\000"
 12295      74617465 
 12295      00
 12296              	.LASF180:
 12297 0384 44494550 		.ascii	"DIEPTSIZ\000"
 12297      5453495A 
 12297      00
 12298              	.LASF275:
 12299 038d 72657175 		.ascii	"requests_hook_cb\000"
 12299      65737473 
 12299      5F686F6F 
 12299      6B5F6362 
 12299      00
 12300              	.LASF319:
 12301 039e 70636E74 		.ascii	"pcnt\000"
 12301      00
 12302              	.LASF18:
 12303 03a3 5F426F6F 		.ascii	"_Bool\000"
 12303      6C00
 12304              	.LASF296:
 12305 03a9 6F74675F 		.ascii	"otg_rxfifo_handler\000"
 12305      72786669 
 12305      666F5F68 
 12305      616E646C 
 12305      657200
 12306              	.LASF93:
 12307 03bc 52455345 		.ascii	"RESERVED2\000"
 12307      52564544 
 12307      3200
 12308              	.LASF207:
 12309 03c6 48434647 		.ascii	"HCFG\000"
 12309      00
 12310              	.LASF167:
 12311 03cb 48434348 		.ascii	"HCCHAR\000"
 12311      415200
 12312              	.LASF103:
 12313 03d2 52455345 		.ascii	"RESERVED5\000"
 12313      52564544 
 12313      3500
 12314              	.LASF317:
 12315 03dc 7573625F 		.ascii	"usb_lld_read_setup\000"
 12315      6C6C645F 
 12315      72656164 
 12315      5F736574 
 12315      757000
 12316              	.LASF187:
 12317 03ef 73746D33 		.ascii	"stm32_otg_out_ep_t\000"
 12317      325F6F74 
 12317      675F6F75 
 12317      745F6570 
ARM GAS  C:\Users\srich\AppData\Local\Temp\cc7Prgoh.s 			page 221


 12317      5F7400
 12318              	.LASF10:
 12319 0402 63686172 		.ascii	"char\000"
 12319      00
 12320              	.LASF121:
 12321 0407 6570306E 		.ascii	"ep0n\000"
 12321      00
 12322              	.LASF221:
 12323 040c 72657376 		.ascii	"resvd80C\000"
 12323      64383043 
 12323      00
 12324              	.LASF215:
 12325 0415 48505254 		.ascii	"HPRT\000"
 12325      00
 12326              	.LASF30:
 12327 041a 705F7072 		.ascii	"p_prio\000"
 12327      696F00
 12328              	.LASF116:
 12329 0421 72656365 		.ascii	"receiving\000"
 12329      6976696E 
 12329      6700
 12330              	.LASF91:
 12331 042b 41484232 		.ascii	"AHB2ENR\000"
 12331      454E5200 
 12332              	.LASF69:
 12333 0433 47656E65 		.ascii	"GenericQueue\000"
 12333      72696351 
 12333      75657565 
 12333      00
 12334              	.LASF303:
 12335 0440 65706D61 		.ascii	"epmask\000"
 12335      736B00
 12336              	.LASF66:
 12337 0447 77746F62 		.ascii	"wtobjp\000"
 12337      6A7000
 12338              	.LASF263:
 12339 044e 73657475 		.ascii	"setup_cb\000"
 12339      705F6362 
 12339      00
 12340              	.LASF160:
 12341 0457 75645F73 		.ascii	"ud_string\000"
 12341      7472696E 
 12341      6700
 12342              	.LASF320:
 12343 0461 6F74675F 		.ascii	"otg_epout_handler\000"
 12343      65706F75 
 12343      745F6861 
 12343      6E646C65 
 12343      7200
 12344              	.LASF264:
 12345 0473 696E5F63 		.ascii	"in_cb\000"
 12345      6200
 12346              	.LASF50:
 12347 0479 73746B61 		.ascii	"stkalign_t\000"
 12347      6C69676E 
 12347      5F7400
 12348              	.LASF80:
ARM GAS  C:\Users\srich\AppData\Local\Temp\cc7Prgoh.s 			page 222


 12349 0484 4F757470 		.ascii	"OutputQueue\000"
 12349      75745175 
 12349      65756500 
 12350              	.LASF209:
 12351 0490 48464E55 		.ascii	"HFNUM\000"
 12351      4D00
 12352              	.LASF164:
 12353 0496 75736265 		.ascii	"usbeventcb_t\000"
 12353      76656E74 
 12353      63625F74 
 12353      00
 12354              	.LASF321:
 12355 04a3 6570696E 		.ascii	"epint\000"
 12355      7400
 12356              	.LASF299:
 12357 04a9 73747265 		.ascii	"streak\000"
 12357      616B00
 12358              	.LASF175:
 12359 04b0 73746D33 		.ascii	"stm32_otg_host_chn_t\000"
 12359      325F6F74 
 12359      675F686F 
 12359      73745F63 
 12359      686E5F74 
 12360              	.LASF115:
 12361 04c5 7472616E 		.ascii	"transmitting\000"
 12361      736D6974 
 12361      74696E67 
 12361      00
 12362              	.LASF171:
 12363 04d2 48435453 		.ascii	"HCTSIZ\000"
 12363      495A00
 12364              	.LASF255:
 12365 04d9 55534249 		.ascii	"USBInEndpointState\000"
 12365      6E456E64 
 12365      706F696E 
 12365      74537461 
 12365      746500
 12366              	.LASF226:
 12367 04ec 72657376 		.ascii	"resvd820\000"
 12367      64383230 
 12367      00
 12368              	.LASF227:
 12369 04f5 72657376 		.ascii	"resvd824\000"
 12369      64383234 
 12369      00
 12370              	.LASF104:
 12371 04fe 42444352 		.ascii	"BDCR\000"
 12371      00
 12372              	.LASF229:
 12373 0503 44564255 		.ascii	"DVBUSPULSE\000"
 12373      5350554C 
 12373      534500
 12374              	.LASF134:
 12375 050e 5553425F 		.ascii	"USB_UNINIT\000"
 12375      554E494E 
 12375      495400
 12376              	.LASF231:
ARM GAS  C:\Users\srich\AppData\Local\Temp\cc7Prgoh.s 			page 223


 12377 0519 44494550 		.ascii	"DIEPEMPMSK\000"
 12377      454D504D 
 12377      534B00
 12378              	.LASF161:
 12379 0524 55534244 		.ascii	"USBDescriptor\000"
 12379      65736372 
 12379      6970746F 
 12379      7200
 12380              	.LASF245:
 12381 0532 73746D33 		.ascii	"stm32_otg_params_t\000"
 12381      325F6F74 
 12381      675F7061 
 12381      72616D73 
 12381      5F7400
 12382              	.LASF123:
 12383 0545 73657475 		.ascii	"setup\000"
 12383      7000
 12384              	.LASF51:
 12385 054b 696E7463 		.ascii	"intctx\000"
 12385      747800
 12386              	.LASF43:
 12387 0552 705F6570 		.ascii	"p_epending\000"
 12387      656E6469 
 12387      6E6700
 12388              	.LASF192:
 12389 055d 47525354 		.ascii	"GRSTCTL\000"
 12389      43544C00 
 12390              	.LASF158:
 12391 0565 75736265 		.ascii	"usbevent_t\000"
 12391      76656E74 
 12391      5F7400
 12392              	.LASF232:
 12393 0570 72657376 		.ascii	"resvd838\000"
 12393      64383338 
 12393      00
 12394              	.LASF159:
 12395 0579 75645F73 		.ascii	"ud_size\000"
 12395      697A6500 
 12396              	.LASF82:
 12397 0581 43464752 		.ascii	"CFGR\000"
 12397      00
 12398              	.LASF338:
 12399 0586 63685363 		.ascii	"chSchGoSleepS\000"
 12399      68476F53 
 12399      6C656570 
 12399      5300
 12400              	.LASF137:
 12401 0594 5553425F 		.ascii	"USB_SELECTED\000"
 12401      53454C45 
 12401      43544544 
 12401      00
 12402              	.LASF126:
 12403 05a1 636F6E66 		.ascii	"configuration\000"
 12403      69677572 
 12403      6174696F 
 12403      6E00
 12404              	.LASF197:
ARM GAS  C:\Users\srich\AppData\Local\Temp\cc7Prgoh.s 			page 224


 12405 05af 47525846 		.ascii	"GRXFSIZ\000"
 12405      53495A00 
 12406              	.LASF141:
 12407 05b7 45505F53 		.ascii	"EP_STATUS_STALLED\000"
 12407      54415455 
 12407      535F5354 
 12407      414C4C45 
 12407      4400
 12408              	.LASF252:
 12409 05c9 7478636E 		.ascii	"txcnt\000"
 12409      7400
 12410              	.LASF71:
 12411 05cf 715F636F 		.ascii	"q_counter\000"
 12411      756E7465 
 12411      7200
 12412              	.LASF291:
 12413 05d9 7573625F 		.ascii	"usb_lld_serve_interrupt\000"
 12413      6C6C645F 
 12413      73657276 
 12413      655F696E 
 12413      74657272 
 12414              	.LASF234:
 12415 05f1 72657376 		.ascii	"resvd840\000"
 12415      64383430 
 12415      00
 12416              	.LASF205:
 12417 05fa 44494550 		.ascii	"DIEPTXF\000"
 12417      54584600 
 12418              	.LASF9:
 12419 0602 6C6F6E67 		.ascii	"long unsigned int\000"
 12419      20756E73 
 12419      69676E65 
 12419      6420696E 
 12419      7400
 12420              	.LASF124:
 12421 0614 73746174 		.ascii	"status\000"
 12421      757300
 12422              	.LASF125:
 12423 061b 61646472 		.ascii	"address\000"
 12423      65737300 
 12424              	.LASF122:
 12425 0623 65703065 		.ascii	"ep0endcb\000"
 12425      6E646362 
 12425      00
 12426              	.LASF190:
 12427 062c 47414842 		.ascii	"GAHBCFG\000"
 12427      43464700 
 12428              	.LASF270:
 12429 0634 696E5F6D 		.ascii	"in_multiplier\000"
 12429      756C7469 
 12429      706C6965 
 12429      7200
 12430              	.LASF285:
 12431 0642 75736270 		.ascii	"usbp\000"
 12431      00
 12432              	.LASF244:
 12433 0647 6E756D5F 		.ascii	"num_endpoints\000"
ARM GAS  C:\Users\srich\AppData\Local\Temp\cc7Prgoh.s 			page 225


 12433      656E6470 
 12433      6F696E74 
 12433      7300
 12434              	.LASF74:
 12435 0655 715F7772 		.ascii	"q_wrptr\000"
 12435      70747200 
 12436              	.LASF251:
 12437 065d 74787369 		.ascii	"txsize\000"
 12437      7A6500
 12438              	.LASF130:
 12439 0664 7468645F 		.ascii	"thd_ptr\000"
 12439      70747200 
 12440              	.LASF260:
 12441 066c 7278636E 		.ascii	"rxcnt\000"
 12441      7400
 12442              	.LASF139:
 12443 0672 75736273 		.ascii	"usbstate_t\000"
 12443      74617465 
 12443      5F7400
 12444              	.LASF333:
 12445 067d 66737061 		.ascii	"fsparams\000"
 12445      72616D73 
 12445      00
 12446              	.LASF304:
 12447 0686 646F6E65 		.ascii	"done\000"
 12447      00
 12448              	.LASF150:
 12449 068b 5553425F 		.ascii	"USB_EP0_ERROR\000"
 12449      4550305F 
 12449      4552524F 
 12449      5200
 12450              	.LASF210:
 12451 0699 72657376 		.ascii	"resvd40C\000"
 12451      64343043 
 12451      00
 12452              	.LASF342:
 12453 06a2 6E766963 		.ascii	"nvicEnableVector\000"
 12453      456E6162 
 12453      6C655665 
 12453      63746F72 
 12453      00
 12454              	.LASF188:
 12455 06b3 474F5447 		.ascii	"GOTGCTL\000"
 12455      43544C00 
 12456              	.LASF81:
 12457 06bb 504C4C43 		.ascii	"PLLCFGR\000"
 12457      46475200 
 12458              	.LASF301:
 12459 06c3 6F74675F 		.ascii	"otg_txfifo_handler\000"
 12459      74786669 
 12459      666F5F68 
 12459      616E646C 
 12459      657200
 12460              	.LASF256:
 12461 06d6 72786275 		.ascii	"rxbuf\000"
 12461      6600
 12462              	.LASF196:
ARM GAS  C:\Users\srich\AppData\Local\Temp\cc7Prgoh.s 			page 226


 12463 06dc 47525853 		.ascii	"GRXSTSP\000"
 12463      54535000 
 12464              	.LASF268:
 12465 06e4 696E5F73 		.ascii	"in_state\000"
 12465      74617465 
 12465      00
 12466              	.LASF195:
 12467 06ed 47525853 		.ascii	"GRXSTSR\000"
 12467      54535200 
 12468              	.LASF156:
 12469 06f5 5553425F 		.ascii	"USB_EVENT_WAKEUP\000"
 12469      4556454E 
 12469      545F5741 
 12469      4B455550 
 12469      00
 12470              	.LASF238:
 12471 0706 50434743 		.ascii	"PCGCCTL\000"
 12471      43544C00 
 12472              	.LASF279:
 12473 070e 6F74675F 		.ascii	"otg_do_push\000"
 12473      646F5F70 
 12473      75736800 
 12474              	.LASF273:
 12475 071a 6576656E 		.ascii	"event_cb\000"
 12475      745F6362 
 12475      00
 12476              	.LASF60:
 12477 0723 4D757465 		.ascii	"Mutex\000"
 12477      7800
 12478              	.LASF5:
 12479 0729 6C6F6E67 		.ascii	"long long int\000"
 12479      206C6F6E 
 12479      6720696E 
 12479      7400
 12480              	.LASF136:
 12481 0737 5553425F 		.ascii	"USB_READY\000"
 12481      52454144 
 12481      5900
 12482              	.LASF61:
 12483 0741 6D5F7175 		.ascii	"m_queue\000"
 12483      65756500 
 12484              	.LASF106:
 12485 0749 53534347 		.ascii	"SSCGR\000"
 12485      5200
 12486              	.LASF120:
 12487 074f 6570306E 		.ascii	"ep0next\000"
 12487      65787400 
 12488              	.LASF230:
 12489 0757 72657376 		.ascii	"resvd830\000"
 12489      64383330 
 12489      00
 12490              	.LASF347:
 12491 0760 633A5C43 		.ascii	"c:\\ChibiStudio\\chibios/os/hal/platforms/STM32/OTG"
 12491      68696269 
 12491      53747564 
 12491      696F5C63 
 12491      68696269 
ARM GAS  C:\Users\srich\AppData\Local\Temp\cc7Prgoh.s 			page 227


 12492 0791 76312F75 		.ascii	"v1/usb_lld.c\000"
 12492      73625F6C 
 12492      6C642E63 
 12492      00
 12493              	.LASF88:
 12494 079e 41504232 		.ascii	"APB2RSTR\000"
 12494      52535452 
 12494      00
 12495              	.LASF163:
 12496 07a7 75736265 		.ascii	"usbepcallback_t\000"
 12496      7063616C 
 12496      6C626163 
 12496      6B5F7400 
 12497              	.LASF235:
 12498 07b7 72657376 		.ascii	"resvd880\000"
 12498      64383830 
 12498      00
 12499              	.LASF335:
 12500 07c0 49544D5F 		.ascii	"ITM_RxBuffer\000"
 12500      52784275 
 12500      66666572 
 12500      00
 12501              	.LASF233:
 12502 07cd 72657376 		.ascii	"resvd83C\000"
 12502      64383343 
 12502      00
 12503              	.LASF68:
 12504 07d6 7466756E 		.ascii	"tfunc_t\000"
 12504      635F7400 
 12505              	.LASF102:
 12506 07de 41504232 		.ascii	"APB2LPENR\000"
 12506      4C50454E 
 12506      5200
 12507              	.LASF323:
 12508 07e8 7573625F 		.ascii	"usb_lld_wakeup_pump\000"
 12508      6C6C645F 
 12508      77616B65 
 12508      75705F70 
 12508      756D7000 
 12509              	.LASF78:
 12510 07fc 716E6F74 		.ascii	"qnotify_t\000"
 12510      6966795F 
 12510      7400
 12511              	.LASF40:
 12512 0806 705F7761 		.ascii	"p_waiting\000"
 12512      6974696E 
 12512      6700
 12513              	.LASF300:
 12514 0810 6E773265 		.ascii	"nw2end\000"
 12514      6E6400
 12515              	.LASF36:
 12516 0817 705F666C 		.ascii	"p_flags\000"
 12516      61677300 
 12517              	.LASF186:
 12518 081f 444F4550 		.ascii	"DOEPTSIZ\000"
 12518      5453495A 
 12518      00
ARM GAS  C:\Users\srich\AppData\Local\Temp\cc7Prgoh.s 			page 228


 12519              	.LASF212:
 12520 0828 4841494E 		.ascii	"HAINT\000"
 12520      5400
 12521              	.LASF0:
 12522 082e 756E7369 		.ascii	"unsigned int\000"
 12522      676E6564 
 12522      20696E74 
 12522      00
 12523              	.LASF306:
 12524 083b 7573625F 		.ascii	"usb_lld_init\000"
 12524      6C6C645F 
 12524      696E6974 
 12524      00
 12525              	.LASF277:
 12526 0848 55534243 		.ascii	"USBConfig\000"
 12526      6F6E6669 
 12526      6700
 12527              	.LASF325:
 12528 0852 56656374 		.ascii	"Vector14C\000"
 12528      6F723134 
 12528      4300
 12529              	.LASF129:
 12530 085c 74787065 		.ascii	"txpending\000"
 12530      6E64696E 
 12530      6700
 12531              	.LASF46:
 12532 0866 705F6D70 		.ascii	"p_mpool\000"
 12532      6F6F6C00 
 12533              	.LASF327:
 12534 086e 7573625F 		.ascii	"usb_lld_stall_in\000"
 12534      6C6C645F 
 12534      7374616C 
 12534      6C5F696E 
 12534      00
 12535              	.LASF241:
 12536 087f 73746D33 		.ascii	"stm32_otg_t\000"
 12536      325F6F74 
 12536      675F7400 
 12537              	.LASF37:
 12538 088b 705F7265 		.ascii	"p_refs\000"
 12538      667300
 12539              	.LASF289:
 12540 0892 7573625F 		.ascii	"usb_lld_start_out\000"
 12540      6C6C645F 
 12540      73746172 
 12540      745F6F75 
 12540      7400
 12541              	.LASF337:
 12542 08a4 68616C50 		.ascii	"halPolledDelay\000"
 12542      6F6C6C65 
 12542      6444656C 
 12542      617900
 12543              	.LASF271:
 12544 08b3 73657475 		.ascii	"setup_buf\000"
 12544      705F6275 
 12544      6600
 12545              	.LASF345:
ARM GAS  C:\Users\srich\AppData\Local\Temp\cc7Prgoh.s 			page 229


 12546 08bd 5F706F72 		.ascii	"_port_irq_epilogue\000"
 12546      745F6972 
 12546      715F6570 
 12546      696C6F67 
 12546      756500
 12547              	.LASF48:
 12548 08d0 54687265 		.ascii	"ThreadsList\000"
 12548      6164734C 
 12548      69737400 
 12549              	.LASF216:
 12550 08dc 72657376 		.ascii	"resvd444\000"
 12550      64343434 
 12550      00
 12551              	.LASF332:
 12552 08e5 65703063 		.ascii	"ep0config\000"
 12552      6F6E6669 
 12552      6700
 12553              	.LASF265:
 12554 08ef 6F75745F 		.ascii	"out_cb\000"
 12554      636200
 12555              	.LASF112:
 12556 08f6 55534244 		.ascii	"USBDriver\000"
 12556      72697665 
 12556      7200
 12557              	.LASF101:
 12558 0900 41504231 		.ascii	"APB1LPENR\000"
 12558      4C50454E 
 12558      5200
 12559              	.LASF213:
 12560 090a 4841494E 		.ascii	"HAINTMSK\000"
 12560      544D534B 
 12560      00
 12561              	.LASF135:
 12562 0913 5553425F 		.ascii	"USB_STOP\000"
 12562      53544F50 
 12562      00
 12563              	.LASF266:
 12564 091c 696E5F6D 		.ascii	"in_maxsize\000"
 12564      61787369 
 12564      7A6500
 12565              	.LASF194:
 12566 0927 47494E54 		.ascii	"GINTMSK\000"
 12566      4D534B00 
 12567              	.LASF39:
 12568 092f 705F7469 		.ascii	"p_time\000"
 12568      6D6500
 12569              	.LASF269:
 12570 0936 6F75745F 		.ascii	"out_state\000"
 12570      73746174 
 12570      6500
 12571              	.LASF310:
 12572 0940 7573625F 		.ascii	"usb_lld_reset\000"
 12572      6C6C645F 
 12572      72657365 
 12572      7400
 12573              	.LASF346:
 12574 094e 474E5520 		.ascii	"GNU C 4.7.4 20140401 (release) [ARM/embedded-4_7-br"
ARM GAS  C:\Users\srich\AppData\Local\Temp\cc7Prgoh.s 			page 230


 12574      4320342E 
 12574      372E3420 
 12574      32303134 
 12574      30343031 
 12575 0981 616E6368 		.ascii	"anch revision 209195]\000"
 12575      20726576 
 12575      6973696F 
 12575      6E203230 
 12575      39313935 
 12576              	.LASF311:
 12577 0997 7573625F 		.ascii	"usb_lld_set_address\000"
 12577      6C6C645F 
 12577      7365745F 
 12577      61646472 
 12577      65737300 
 12578              	.LASF348:
 12579 09ab 7573625F 		.ascii	"usb_lld_pump\000"
 12579      6C6C645F 
 12579      70756D70 
 12579      00
 12580              	.LASF85:
 12581 09b8 41484233 		.ascii	"AHB3RSTR\000"
 12581      52535452 
 12581      00
 12582              	.LASF45:
 12583 09c1 705F7265 		.ascii	"p_realprio\000"
 12583      616C7072 
 12583      696F00
 12584              	.LASF146:
 12585 09cc 5553425F 		.ascii	"USB_EP0_WAITING_TX0\000"
 12585      4550305F 
 12585      57414954 
 12585      494E475F 
 12585      54583000 
 12586              	.LASF127:
 12587 09e0 6F746770 		.ascii	"otgparams\000"
 12587      6172616D 
 12587      7300
 12588              	.LASF87:
 12589 09ea 41504231 		.ascii	"APB1RSTR\000"
 12589      52535452 
 12589      00
 12590              	.LASF94:
 12591 09f3 41504231 		.ascii	"APB1ENR\000"
 12591      454E5200 
 12592              	.LASF261:
 12593 09fb 5553424F 		.ascii	"USBOutEndpointState\000"
 12593      7574456E 
 12593      64706F69 
 12593      6E745374 
 12593      61746500 
 12594              	.LASF290:
 12595 0a0f 7573625F 		.ascii	"usb_lld_start_in\000"
 12595      6C6C645F 
 12595      73746172 
 12595      745F696E 
 12595      00
ARM GAS  C:\Users\srich\AppData\Local\Temp\cc7Prgoh.s 			page 231


 12596              	.LASF287:
 12597 0a20 73697A65 		.ascii	"size\000"
 12597      00
 12598              	.LASF237:
 12599 0a25 72657376 		.ascii	"resvdD00\000"
 12599      64443030 
 12599      00
 12600              	.LASF6:
 12601 0a2e 6C6F6E67 		.ascii	"long long unsigned int\000"
 12601      206C6F6E 
 12601      6720756E 
 12601      7369676E 
 12601      65642069 
 12602              	.LASF204:
 12603 0a45 48505458 		.ascii	"HPTXFSIZ\000"
 12603      4653495A 
 12603      00
 12604              	.LASF314:
 12605 0a4e 7573625F 		.ascii	"usb_lld_disable_endpoints\000"
 12605      6C6C645F 
 12605      64697361 
 12605      626C655F 
 12605      656E6470 
 12606              	.LASF33:
 12607 0a68 705F6F6C 		.ascii	"p_older\000"
 12607      64657200 
 12608              	.LASF13:
 12609 0a70 75696E74 		.ascii	"uint16_t\000"
 12609      31365F74 
 12609      00
 12610              	.LASF169:
 12611 0a79 4843494E 		.ascii	"HCINT\000"
 12611      5400
 12612              	.LASF248:
 12613 0a7f 6C696E65 		.ascii	"linear\000"
 12613      617200
 12614              	.LASF24:
 12615 0a86 6D73675F 		.ascii	"msg_t\000"
 12615      7400
 12616              	.LASF219:
 12617 0a8c 4443544C 		.ascii	"DCTL\000"
 12617      00
 12618              	.LASF272:
 12619 0a91 55534245 		.ascii	"USBEndpointConfig\000"
 12619      6E64706F 
 12619      696E7443 
 12619      6F6E6669 
 12619      6700
 12620              	.LASF170:
 12621 0aa3 4843494E 		.ascii	"HCINTMSK\000"
 12621      544D534B 
 12621      00
 12622              	.LASF258:
 12623 0aac 72787175 		.ascii	"rxqueued\000"
 12623      65756564 
 12623      00
 12624              	.LASF22:
ARM GAS  C:\Users\srich\AppData\Local\Temp\cc7Prgoh.s 			page 232


 12625 0ab5 74736C69 		.ascii	"tslices_t\000"
 12625      6365735F 
 12625      7400
 12626              	.LASF318:
 12627 0abf 7573625F 		.ascii	"usb_lld_prepare_receive\000"
 12627      6C6C645F 
 12627      70726570 
 12627      6172655F 
 12627      72656365 
 12628              	.LASF189:
 12629 0ad7 474F5447 		.ascii	"GOTGINT\000"
 12629      494E5400 
 12630              	.LASF58:
 12631 0adf 725F6375 		.ascii	"r_current\000"
 12631      7272656E 
 12631      7400
 12632              	.LASF249:
 12633 0ae9 71756575 		.ascii	"queue\000"
 12633      6500
 12634              	.LASF257:
 12635 0aef 72787175 		.ascii	"rxqueue\000"
 12635      65756500 
 12636              	.LASF225:
 12637 0af7 4441494E 		.ascii	"DAINTMSK\000"
 12637      544D534B 
 12637      00
 12638              	.LASF341:
 12639 0b00 63685468 		.ascii	"chThdCreateI\000"
 12639      64437265 
 12639      61746549 
 12639      00
 12640              	.LASF99:
 12641 0b0d 41484233 		.ascii	"AHB3LPENR\000"
 12641      4C50454E 
 12641      5200
 12642              	.LASF228:
 12643 0b17 44564255 		.ascii	"DVBUSDIS\000"
 12643      53444953 
 12643      00
 12644              	.LASF183:
 12645 0b20 73746D33 		.ascii	"stm32_otg_in_ep_t\000"
 12645      325F6F74 
 12645      675F696E 
 12645      5F65705F 
 12645      7400
 12646              	.LASF243:
 12647 0b32 6F74675F 		.ascii	"otg_ram_size\000"
 12647      72616D5F 
 12647      73697A65 
 12647      00
 12648              	.LASF53:
 12649 0b3f 725F7175 		.ascii	"r_queue\000"
 12649      65756500 
 12650              	.LASF154:
 12651 0b47 5553425F 		.ascii	"USB_EVENT_CONFIGURED\000"
 12651      4556454E 
 12651      545F434F 
ARM GAS  C:\Users\srich\AppData\Local\Temp\cc7Prgoh.s 			page 233


 12651      4E464947 
 12651      55524544 
 12652              	.LASF240:
 12653 0b5c 4649464F 		.ascii	"FIFO\000"
 12653      00
 12654              	.LASF70:
 12655 0b61 715F7761 		.ascii	"q_waiting\000"
 12655      6974696E 
 12655      6700
 12656              	.LASF334:
 12657 0b6b 726C6973 		.ascii	"rlist\000"
 12657      7400
 12658              	.LASF19:
 12659 0b71 746D6F64 		.ascii	"tmode_t\000"
 12659      655F7400 
 12660              	.LASF90:
 12661 0b79 41484231 		.ascii	"AHB1ENR\000"
 12661      454E5200 
 12662              	.LASF214:
 12663 0b81 72657376 		.ascii	"resvd41C\000"
 12663      64343143 
 12663      00
 12664              	.LASF166:
 12665 0b8a 75736267 		.ascii	"usbgetdescriptor_t\000"
 12665      65746465 
 12665      73637269 
 12665      70746F72 
 12665      5F7400
 12666              	.LASF132:
 12667 0b9d 77615F70 		.ascii	"wa_pump\000"
 12667      756D7000 
 12668              	.LASF117:
 12669 0ba5 696E5F70 		.ascii	"in_params\000"
 12669      6172616D 
 12669      7300
 12670              	.LASF111:
 12671 0baf 68616C72 		.ascii	"halrtcnt_t\000"
 12671      74636E74 
 12671      5F7400
 12672              	.LASF92:
 12673 0bba 41484233 		.ascii	"AHB3ENR\000"
 12673      454E5200 
 12674              	.LASF57:
 12675 0bc2 725F6F6C 		.ascii	"r_older\000"
 12675      64657200 
 12676              	.LASF84:
 12677 0bca 41484232 		.ascii	"AHB2RSTR\000"
 12677      52535452 
 12677      00
 12678              	.LASF294:
 12679 0bd3 6F74675F 		.ascii	"otg_txfifo_flush\000"
 12679      74786669 
 12679      666F5F66 
 12679      6C757368 
 12679      00
 12680              	.LASF110:
 12681 0be4 5243435F 		.ascii	"RCC_TypeDef\000"
ARM GAS  C:\Users\srich\AppData\Local\Temp\cc7Prgoh.s 			page 234


 12681      54797065 
 12681      44656600 
 12682              	.LASF3:
 12683 0bf0 73686F72 		.ascii	"short int\000"
 12683      7420696E 
 12683      7400
 12684              	.LASF254:
 12685 0bfa 746F7473 		.ascii	"totsize\000"
 12685      697A6500 
 12686              	.LASF242:
 12687 0c02 72785F66 		.ascii	"rx_fifo_size\000"
 12687      69666F5F 
 12687      73697A65 
 12687      00
 12688              	.LASF16:
 12689 0c0f 75696E74 		.ascii	"uint64_t\000"
 12689      36345F74 
 12689      00
 12690              	.LASF253:
 12691 0c18 6D6F6465 		.ascii	"mode\000"
 12691      00
 12692              	.LASF344:
 12693 0c1d 63685363 		.ascii	"chSchRescheduleS\000"
 12693      68526573 
 12693      63686564 
 12693      756C6553 
 12693      00
 12694              	.LASF152:
 12695 0c2e 5553425F 		.ascii	"USB_EVENT_RESET\000"
 12695      4556454E 
 12695      545F5245 
 12695      53455400 
 12696              	.LASF172:
 12697 0c3e 72657376 		.ascii	"resvd14\000"
 12697      64313400 
 12698              	.LASF173:
 12699 0c46 72657376 		.ascii	"resvd18\000"
 12699      64313800 
 12700              	.LASF181:
 12701 0c4e 44545846 		.ascii	"DTXFSTS\000"
 12701      53545300 
 12702              	.LASF247:
 12703 0c56 74787175 		.ascii	"txqueue\000"
 12703      65756500 
 12704              	.LASF280:
 12705 0c5e 6F74675F 		.ascii	"otg_do_pop\000"
 12705      646F5F70 
 12705      6F7000
 12706              	.LASF182:
 12707 0c69 72657376 		.ascii	"resvd1C\000"
 12707      64314300 
 12708              	.LASF222:
 12709 0c71 44494550 		.ascii	"DIEPMSK\000"
 12709      4D534B00 
 12710              	.LASF54:
 12711 0c79 725F7072 		.ascii	"r_prio\000"
 12711      696F00
ARM GAS  C:\Users\srich\AppData\Local\Temp\cc7Prgoh.s 			page 235


 12712              	.LASF315:
 12713 0c80 7573625F 		.ascii	"usb_lld_get_status_out\000"
 12713      6C6C645F 
 12713      6765745F 
 12713      73746174 
 12713      75735F6F 
 12714              	.LASF307:
 12715 0c97 7573625F 		.ascii	"usb_lld_start\000"
 12715      6C6C645F 
 12715      73746172 
 12715      7400
 12716              	.LASF17:
 12717 0ca5 626F6F6C 		.ascii	"bool_t\000"
 12717      5F7400
 12718              	.LASF174:
 12719 0cac 72657376 		.ascii	"resvd1c\000"
 12719      64316300 
 12720              	.LASF165:
 12721 0cb4 75736272 		.ascii	"usbreqhandler_t\000"
 12721      65716861 
 12721      6E646C65 
 12721      725F7400 
 12722              	.LASF176:
 12723 0cc4 44494550 		.ascii	"DIEPCTL\000"
 12723      43544C00 
 12724              	.LASF162:
 12725 0ccc 75736263 		.ascii	"usbcallback_t\000"
 12725      616C6C62 
 12725      61636B5F 
 12725      7400
 12726              	.LASF27:
 12727 0cda 54687265 		.ascii	"Thread\000"
 12727      616400
 12728              	.LASF193:
 12729 0ce1 47494E54 		.ascii	"GINTSTS\000"
 12729      53545300 
 12730              	.LASF297:
 12731 0ce9 6F74675F 		.ascii	"otg_fifo_read_to_queue\000"
 12731      6669666F 
 12731      5F726561 
 12731      645F746F 
 12731      5F717565 
 12732              	.LASF329:
 12733 0d00 7573625F 		.ascii	"usb_lld_clear_in\000"
 12733      6C6C645F 
 12733      636C6561 
 12733      725F696E 
 12733      00
 12734              	.LASF178:
 12735 0d11 44494550 		.ascii	"DIEPINT\000"
 12735      494E5400 
 12736              	.LASF199:
 12737 0d19 484E5054 		.ascii	"HNPTXSTS\000"
 12737      58535453 
 12737      00
 12738              	.LASF336:
 12739 0d22 55534244 		.ascii	"USBD1\000"
ARM GAS  C:\Users\srich\AppData\Local\Temp\cc7Prgoh.s 			page 236


 12739      3100
 12740              	.LASF21:
 12741 0d28 74726566 		.ascii	"trefs_t\000"
 12741      735F7400 
 12742              	.LASF276:
 12743 0d30 736F665F 		.ascii	"sof_cb\000"
 12743      636200
 12744              	.LASF239:
 12745 0d37 72657376 		.ascii	"resvdE04\000"
 12745      64453034 
 12745      00
 12746              	.LASF200:
 12747 0d40 72657376 		.ascii	"resvd30\000"
 12747      64333000 
 12748              	.LASF236:
 12749 0d48 72657376 		.ascii	"resvd8C0\000"
 12749      64384330 
 12749      00
 12750              	.LASF201:
 12751 0d51 72657376 		.ascii	"resvd34\000"
 12751      64333400 
 12752              	.LASF284:
 12753 0d59 6F74675F 		.ascii	"otg_ram_reset\000"
 12753      72616D5F 
 12753      72657365 
 12753      7400
 12754              	.LASF15:
 12755 0d67 75696E74 		.ascii	"uint32_t\000"
 12755      33325F74 
 12755      00
 12756              	.LASF133:
 12757 0d70 75736265 		.ascii	"usbep_t\000"
 12757      705F7400 
 12758              	.LASF47:
 12759 0d78 54687265 		.ascii	"ThreadsQueue\000"
 12759      61647351 
 12759      75657565 
 12759      00
 12760              	.LASF155:
 12761 0d85 5553425F 		.ascii	"USB_EVENT_SUSPEND\000"
 12761      4556454E 
 12761      545F5355 
 12761      5350454E 
 12761      4400
 12762              	.LASF108:
 12763 0d97 504C4C53 		.ascii	"PLLSAICFGR\000"
 12763      41494346 
 12763      475200
 12764              	.LASF324:
 12765 0da2 6F74675F 		.ascii	"otg_epin_handler\000"
 12765      6570696E 
 12765      5F68616E 
 12765      646C6572 
 12765      00
 12766              	.LASF298:
 12767 0db3 6E746F67 		.ascii	"ntogo\000"
 12767      6F00
ARM GAS  C:\Users\srich\AppData\Local\Temp\cc7Prgoh.s 			page 237


 12768              	.LASF64:
 12769 0db9 7264796D 		.ascii	"rdymsg\000"
 12769      736700
 12770              	.LASF4:
 12771 0dc0 73686F72 		.ascii	"short unsigned int\000"
 12771      7420756E 
 12771      7369676E 
 12771      65642069 
 12771      6E7400
 12772              	.LASF220:
 12773 0dd3 44535453 		.ascii	"DSTS\000"
 12773      00
 12774              	.LASF274:
 12775 0dd8 6765745F 		.ascii	"get_descriptor_cb\000"
 12775      64657363 
 12775      72697074 
 12775      6F725F63 
 12775      6200
 12776              	.LASF309:
 12777 0dea 6F74675F 		.ascii	"otg_rxfifo_flush\000"
 12777      72786669 
 12777      666F5F66 
 12777      6C757368 
 12777      00
 12778              	.LASF79:
 12779 0dfb 496E7075 		.ascii	"InputQueue\000"
 12779      74517565 
 12779      756500
 12780              	.LASF292:
 12781 0e06 6F746770 		.ascii	"otgp\000"
 12781      00
 12782              	.LASF118:
 12783 0e0b 6F75745F 		.ascii	"out_params\000"
 12783      70617261 
 12783      6D7300
 12784              	.LASF140:
 12785 0e16 45505F53 		.ascii	"EP_STATUS_DISABLED\000"
 12785      54415455 
 12785      535F4449 
 12785      5341424C 
 12785      454400
 12786              	.LASF83:
 12787 0e29 41484231 		.ascii	"AHB1RSTR\000"
 12787      52535452 
 12787      00
 12788              	.LASF211:
 12789 0e32 48505458 		.ascii	"HPTXSTS\000"
 12789      53545300 
 12790              	.LASF203:
 12791 0e3a 72657376 		.ascii	"resvd58\000"
 12791      64353800 
 12792              	.LASF149:
 12793 0e42 5553425F 		.ascii	"USB_EP0_SENDING_STS\000"
 12793      4550305F 
 12793      53454E44 
 12793      494E475F 
 12793      53545300 
ARM GAS  C:\Users\srich\AppData\Local\Temp\cc7Prgoh.s 			page 238


 12794              	.LASF59:
 12795 0e56 52656164 		.ascii	"ReadyList\000"
 12795      794C6973 
 12795      7400
 12796              	.LASF208:
 12797 0e60 48464952 		.ascii	"HFIR\000"
 12797      00
 12798              	.LASF147:
 12799 0e65 5553425F 		.ascii	"USB_EP0_WAITING_STS\000"
 12799      4550305F 
 12799      57414954 
 12799      494E475F 
 12799      53545300 
 12800              	.LASF34:
 12801 0e79 705F6E61 		.ascii	"p_name\000"
 12801      6D6500
 12802              	.LASF288:
 12803 0e80 6E657874 		.ascii	"next\000"
 12803      00
 12804              	.LASF63:
 12805 0e85 6D5F6E65 		.ascii	"m_next\000"
 12805      787400
 12806              	.LASF281:
 12807 0e8c 6669666F 		.ascii	"fifo_remove\000"
 12807      5F72656D 
 12807      6F766500 
 12808              	.LASF128:
 12809 0e98 706D6E65 		.ascii	"pmnext\000"
 12809      787400
 12810              	.LASF286:
 12811 0e9f 6F74675F 		.ascii	"otg_ram_alloc\000"
 12811      72616D5F 
 12811      616C6C6F 
 12811      6300
 12812              	.LASF250:
 12813 0ead 74787175 		.ascii	"txqueued\000"
 12813      65756564 
 12813      00
 12814              	.LASF191:
 12815 0eb6 47555342 		.ascii	"GUSBCFG\000"
 12815      43464700 
 12816              	.LASF148:
 12817 0ebe 5553425F 		.ascii	"USB_EP0_RX\000"
 12817      4550305F 
 12817      525800
 12818              	.LASF206:
 12819 0ec9 72657376 		.ascii	"resvd140\000"
 12819      64313430 
 12819      00
 12820              	.LASF293:
 12821 0ed2 6F74675F 		.ascii	"otg_disable_ep\000"
 12821      64697361 
 12821      626C655F 
 12821      657000
 12822              	.LASF42:
 12823 0ee1 705F6D73 		.ascii	"p_msg\000"
 12823      6700
ARM GAS  C:\Users\srich\AppData\Local\Temp\cc7Prgoh.s 			page 239


 12824              	.LASF305:
 12825 0ee7 6F74675F 		.ascii	"otg_core_reset\000"
 12825      636F7265 
 12825      5F726573 
 12825      657400
 12826              	.LASF35:
 12827 0ef6 705F7374 		.ascii	"p_state\000"
 12827      61746500 
 12828              		.ident	"GCC: (GNU Tools for ARM Embedded Processors) 4.7.4 20140401 (release) [ARM/embedded-4_7-br
ARM GAS  C:\Users\srich\AppData\Local\Temp\cc7Prgoh.s 			page 240


DEFINED SYMBOLS
                            *ABS*:00000000 usb_lld.c
C:\Users\srich\AppData\Local\Temp\cc7Prgoh.s:19     .text.otg_disable_ep:00000000 $t
C:\Users\srich\AppData\Local\Temp\cc7Prgoh.s:24     .text.otg_disable_ep:00000000 otg_disable_ep
C:\Users\srich\AppData\Local\Temp\cc7Prgoh.s:131    .text.otg_txfifo_flush:00000000 $t
C:\Users\srich\AppData\Local\Temp\cc7Prgoh.s:136    .text.otg_txfifo_flush:00000000 otg_txfifo_flush
C:\Users\srich\AppData\Local\Temp\cc7Prgoh.s:168    .text.usb_lld_pump:00000000 $t
C:\Users\srich\AppData\Local\Temp\cc7Prgoh.s:173    .text.usb_lld_pump:00000000 usb_lld_pump
C:\Users\srich\AppData\Local\Temp\cc7Prgoh.s:767    .text.usb_lld_pump:0000025c $d
C:\Users\srich\AppData\Local\Temp\cc7Prgoh.s:778    .text.usb_lld_pump:00000260 $t
C:\Users\srich\AppData\Local\Temp\cc7Prgoh.s:1299   .text.usb_lld_init:00000000 $t
C:\Users\srich\AppData\Local\Temp\cc7Prgoh.s:1305   .text.usb_lld_init:00000000 usb_lld_init
C:\Users\srich\AppData\Local\Temp\cc7Prgoh.s:3132   .bss.USBD1:00000000 .LANCHOR0
C:\Users\srich\AppData\Local\Temp\cc7Prgoh.s:3123   .rodata.fsparams:00000000 .LANCHOR1
C:\Users\srich\AppData\Local\Temp\cc7Prgoh.s:1343   .text.usb_lld_start:00000000 $t
C:\Users\srich\AppData\Local\Temp\cc7Prgoh.s:1349   .text.usb_lld_start:00000000 usb_lld_start
C:\Users\srich\AppData\Local\Temp\cc7Prgoh.s:1531   .text.usb_lld_start:000000d8 $d
C:\Users\srich\AppData\Local\Temp\cc7Prgoh.s:1537   .text.usb_lld_stop:00000000 $t
C:\Users\srich\AppData\Local\Temp\cc7Prgoh.s:1543   .text.usb_lld_stop:00000000 usb_lld_stop
C:\Users\srich\AppData\Local\Temp\cc7Prgoh.s:1586   .text.usb_lld_reset:00000000 $t
C:\Users\srich\AppData\Local\Temp\cc7Prgoh.s:1592   .text.usb_lld_reset:00000000 usb_lld_reset
C:\Users\srich\AppData\Local\Temp\cc7Prgoh.s:1810   .text.usb_lld_reset:00000128 $d
C:\Users\srich\AppData\Local\Temp\cc7Prgoh.s:1815   .text.usb_lld_set_address:00000000 $t
C:\Users\srich\AppData\Local\Temp\cc7Prgoh.s:1821   .text.usb_lld_set_address:00000000 usb_lld_set_address
C:\Users\srich\AppData\Local\Temp\cc7Prgoh.s:1844   .text.usb_lld_init_endpoint:00000000 $t
C:\Users\srich\AppData\Local\Temp\cc7Prgoh.s:1850   .text.usb_lld_init_endpoint:00000000 usb_lld_init_endpoint
C:\Users\srich\AppData\Local\Temp\cc7Prgoh.s:2055   .text.usb_lld_disable_endpoints:00000000 $t
C:\Users\srich\AppData\Local\Temp\cc7Prgoh.s:2061   .text.usb_lld_disable_endpoints:00000000 usb_lld_disable_endpoints
C:\Users\srich\AppData\Local\Temp\cc7Prgoh.s:2085   .text.usb_lld_get_status_out:00000000 $t
C:\Users\srich\AppData\Local\Temp\cc7Prgoh.s:2091   .text.usb_lld_get_status_out:00000000 usb_lld_get_status_out
C:\Users\srich\AppData\Local\Temp\cc7Prgoh.s:2123   .text.usb_lld_get_status_in:00000000 $t
C:\Users\srich\AppData\Local\Temp\cc7Prgoh.s:2129   .text.usb_lld_get_status_in:00000000 usb_lld_get_status_in
C:\Users\srich\AppData\Local\Temp\cc7Prgoh.s:2161   .text.usb_lld_read_setup:00000000 $t
C:\Users\srich\AppData\Local\Temp\cc7Prgoh.s:2167   .text.usb_lld_read_setup:00000000 usb_lld_read_setup
C:\Users\srich\AppData\Local\Temp\cc7Prgoh.s:2190   .text.usb_lld_prepare_receive:00000000 $t
C:\Users\srich\AppData\Local\Temp\cc7Prgoh.s:2196   .text.usb_lld_prepare_receive:00000000 usb_lld_prepare_receive
C:\Users\srich\AppData\Local\Temp\cc7Prgoh.s:2257   .text.otg_epout_handler:00000000 $t
C:\Users\srich\AppData\Local\Temp\cc7Prgoh.s:2262   .text.otg_epout_handler:00000000 otg_epout_handler
C:\Users\srich\AppData\Local\Temp\cc7Prgoh.s:2408   .text.usb_lld_prepare_transmit:00000000 $t
C:\Users\srich\AppData\Local\Temp\cc7Prgoh.s:2414   .text.usb_lld_prepare_transmit:00000000 usb_lld_prepare_transmit
C:\Users\srich\AppData\Local\Temp\cc7Prgoh.s:2493   .text.otg_epin_handler:00000000 $t
C:\Users\srich\AppData\Local\Temp\cc7Prgoh.s:2498   .text.otg_epin_handler:00000000 otg_epin_handler
C:\Users\srich\AppData\Local\Temp\cc7Prgoh.s:2689   .text.Vector14C:00000000 $t
C:\Users\srich\AppData\Local\Temp\cc7Prgoh.s:2695   .text.Vector14C:00000000 Vector14C
C:\Users\srich\AppData\Local\Temp\cc7Prgoh.s:2940   .text.Vector14C:000000fc $d
C:\Users\srich\AppData\Local\Temp\cc7Prgoh.s:2947   .text.usb_lld_start_out:00000000 $t
C:\Users\srich\AppData\Local\Temp\cc7Prgoh.s:2953   .text.usb_lld_start_out:00000000 usb_lld_start_out
C:\Users\srich\AppData\Local\Temp\cc7Prgoh.s:2975   .text.usb_lld_start_in:00000000 $t
C:\Users\srich\AppData\Local\Temp\cc7Prgoh.s:2981   .text.usb_lld_start_in:00000000 usb_lld_start_in
C:\Users\srich\AppData\Local\Temp\cc7Prgoh.s:3009   .text.usb_lld_stall_out:00000000 $t
C:\Users\srich\AppData\Local\Temp\cc7Prgoh.s:3015   .text.usb_lld_stall_out:00000000 usb_lld_stall_out
C:\Users\srich\AppData\Local\Temp\cc7Prgoh.s:3037   .text.usb_lld_stall_in:00000000 $t
C:\Users\srich\AppData\Local\Temp\cc7Prgoh.s:3043   .text.usb_lld_stall_in:00000000 usb_lld_stall_in
C:\Users\srich\AppData\Local\Temp\cc7Prgoh.s:3065   .text.usb_lld_clear_out:00000000 $t
C:\Users\srich\AppData\Local\Temp\cc7Prgoh.s:3071   .text.usb_lld_clear_out:00000000 usb_lld_clear_out
C:\Users\srich\AppData\Local\Temp\cc7Prgoh.s:3093   .text.usb_lld_clear_in:00000000 $t
C:\Users\srich\AppData\Local\Temp\cc7Prgoh.s:3099   .text.usb_lld_clear_in:00000000 usb_lld_clear_in
ARM GAS  C:\Users\srich\AppData\Local\Temp\cc7Prgoh.s 			page 241


C:\Users\srich\AppData\Local\Temp\cc7Prgoh.s:3135   .bss.USBD1:00000000 USBD1
C:\Users\srich\AppData\Local\Temp\cc7Prgoh.s:3122   .rodata.fsparams:00000000 $d
C:\Users\srich\AppData\Local\Temp\cc7Prgoh.s:3126   .rodata.fsparams:00000000 fsparams
C:\Users\srich\AppData\Local\Temp\cc7Prgoh.s:3131   .bss.USBD1:00000000 $d
C:\Users\srich\AppData\Local\Temp\cc7Prgoh.s:3138   .rodata.str1.4:00000000 $d
C:\Users\srich\AppData\Local\Temp\cc7Prgoh.s:3142   .rodata.ep0config:00000000 $d
C:\Users\srich\AppData\Local\Temp\cc7Prgoh.s:3146   .rodata.ep0config:00000000 ep0config
C:\Users\srich\AppData\Local\Temp\cc7Prgoh.s:3162   .bss.ep0_state:00000000 ep0_state
C:\Users\srich\AppData\Local\Temp\cc7Prgoh.s:3168   .bss.ep0setup_buffer:00000000 ep0setup_buffer
C:\Users\srich\AppData\Local\Temp\cc7Prgoh.s:3159   .bss.ep0_state:00000000 $d
C:\Users\srich\AppData\Local\Temp\cc7Prgoh.s:3165   .bss.ep0setup_buffer:00000000 $d
                     .debug_frame:00000010 $d
C:\Users\srich\AppData\Local\Temp\cc7Prgoh.s:1814   .text.usb_lld_reset:0000012c $t

UNDEFINED SYMBOLS
halPolledDelay
rlist
chSchGoSleepS
chSchReadyI
chSchRescheduleS
usbObjectInit
chThdCreateI
nvicEnableVector
_port_irq_epilogue
_usb_reset
_usb_ep0setup
_usb_ep0in
_usb_ep0out
